(i__main__
DelphiUnit
p1
(dp2
S'sectionsInOrderDefined'
p3
(lp4
(i__main__
DelphiConstSection
p5
(dp6
S'constDeclList'
p7
(lp8
(idelphi
DelphiConstDeclaration
p9
(dp10
S'constExpression'
p11
(idelphi
DelphiIntegerValue
p12
(dp13
S'string'
p14
S'256'
p15
sbsS'ident'
p16
S'kFastTrigArraySize'
p17
sS'theType'
p18
(idelphi
DelphiPrimitiveType
p19
(dp20
S'typeName'
p21
S'UNDEFINED_NEEDS_CALCULATION'
p22
sbsba(idelphi
DelphiConstDeclaration
p23
(dp24
g11
(idelphi
DelphiIntegerValue
p25
(dp26
g14
S'1'
sbsg16
S'kDirectionClockwise'
p27
sg18
(idelphi
DelphiPrimitiveType
p28
(dp29
g21
g22
sbsba(idelphi
DelphiConstDeclaration
p30
(dp31
g11
(idelphi
DelphiSignedValue
p32
(dp33
S'value'
p34
(idelphi
DelphiIntegerValue
p35
(dp36
g14
S'1'
sbsS'sign'
p37
S'-'
sbsg16
S'kDirectionCounterClockwise'
p38
sg18
(idelphi
DelphiPrimitiveType
p39
(dp40
g21
g22
sbsba(idelphi
DelphiConstDeclaration
p41
(dp42
g11
(idelphi
DelphiIntegerValue
p43
(dp44
g14
S'0'
sbsg16
S'kDirectionUnknown'
p45
sg18
(idelphi
DelphiPrimitiveType
p46
(dp47
g21
g22
sbsbasS'atTopLevel'
p48
I1
sba(i__main__
DelphiVarSection
p49
(dp50
g48
I1
sS'varDeclList'
p51
(lp52
(idelphi
DelphiVarDecl
p53
(dp54
g11
NsS'identList'
p55
(lp56
S'SinCache'
p57
asg18
(i__main__
DelphiArrayType
p58
(dp59
g18
(i__main__
DelphiPrimitiveType
p60
(dp61
g21
S'single'
p62
sbsS'sizes'
p63
(lp64
(idelphi
DelphiSubrange
p65
(dp66
S'high'
p67
(idelphi
DelphiAddOp
p68
(dp69
S'addOp'
p70
S'-'
sS'term2'
p71
(idelphi
DelphiIntegerValue
p72
(dp73
g14
S'1'
sbsS'term1'
p74
(i__main__
DelphiIdentAccess
p75
(dp76
g16
S'kFastTrigArraySize'
p77
sS'endAccessList'
p78
(lp79
sbsbsS'low'
p80
(idelphi
DelphiIntegerValue
p81
(dp82
g14
S'0'
sbsS'name'
p83
S''
sbasbsba(idelphi
DelphiVarDecl
p84
(dp85
g11
Nsg55
(lp86
S'CosCache'
p87
asg18
(i__main__
DelphiArrayType
p88
(dp89
g18
(i__main__
DelphiPrimitiveType
p90
(dp91
g21
g62
sbsg63
(lp92
(idelphi
DelphiSubrange
p93
(dp94
g67
(idelphi
DelphiAddOp
p95
(dp96
g70
S'-'
sg71
(idelphi
DelphiIntegerValue
p97
(dp98
g14
S'1'
sbsg74
(i__main__
DelphiIdentAccess
p99
(dp100
g16
S'kFastTrigArraySize'
p101
sg78
(lp102
sbsbsg80
(idelphi
DelphiIntegerValue
p103
(dp104
g14
S'0'
sbsg83
S''
sbasbsbasba(i__main__
DelphiRecord
p105
(dp106
S'variableNamesInDeclaredOrder'
p107
(lp108
S'top'
p109
aS'left'
p110
aS'bottom'
p111
aS'right'
p112
asS'variableNamesInProperCase'
p113
(dp114
S'top'
p115
g109
sS'bottom'
p116
g111
sS'right'
p117
g112
sS'left'
p118
g110
ssS'commentLinesBefore'
p119
(lp120
S'if you change this - you need to change angleX etc. functions'
p121
asg83
S'TRealRect'
p122
sS'variableNames'
p123
(dp124
S'top'
p125
(i__main__
DelphiPrimitiveType
p126
(dp127
g21
g62
sbsS'bottom'
p128
g126
sS'right'
p129
g126
sS'left'
p130
g126
ssba(i__main__
DelphiRecord
p131
(dp132
g107
(lp133
S'x'
aS'y'
aS'z'
asg113
(dp134
S'y'
S'y'
sS'x'
S'x'
sS'z'
S'z'
ssg83
S'Vertex'
p135
sg123
(dp136
S'y'
(i__main__
DelphiPrimitiveType
p137
(dp138
g21
S'real'
p139
sbsS'x'
(i__main__
DelphiPrimitiveType
p140
(dp141
g21
g139
sbsS'z'
(i__main__
DelphiPrimitiveType
p142
(dp143
g21
g139
sbssba(i__main__
DelphiRecord
p144
(dp145
g107
(lp146
S'vertex1'
p147
aS'vertex2'
p148
aS'vertex3'
p149
asg113
(dp150
S'vertex1'
p151
g147
sS'vertex3'
p152
g149
sS'vertex2'
p153
g148
ssg83
S'VertexTriangle'
p154
sg123
(dp155
S'vertex1'
p156
(i__main__
DelphiPrimitiveType
p157
(dp158
g21
S'integer'
p159
sbsS'vertex3'
p160
(i__main__
DelphiPrimitiveType
p161
(dp162
g21
g159
sbsS'vertex2'
p163
(i__main__
DelphiPrimitiveType
p164
(dp165
g21
g159
sbssba(i__main__
DelphiClass
p166
(dp167
g113
(dp168
S'a1'
p169
S'a1'
p170
sS'a0'
p171
S'a0'
p172
sS'a2'
p173
S'a2'
p174
sS'b0'
p175
S'b0'
p176
sS'b1'
p177
S'b1'
p178
sS'b2'
p179
S'b2'
p180
sS'position'
p181
S'position'
p182
sS'c2'
p183
S'c2'
p184
sS'c1'
p185
S'c1'
p186
sS'c0'
p187
S'c0'
p188
ssg83
S'KfMatrix'
p189
sS'methodDeclarations'
p190
(dp191
S'move'
p192
(i__main__
DelphiMethodDeclaration
p193
(dp194
g83
S'move'
p195
sS'formalParameters'
p196
(lp197
(i__main__
DelphiFormalParameter
p198
(dp199
S'initialValue'
p200
NsS'names'
p201
(lp202
S'distance'
p203
asg18
(i__main__
DelphiPrimitiveType
p204
(dp205
g21
g62
sbsS'parameterVariety'
p206
NsbasS'className'
p207
g189
sS'resultType'
p208
NsS'isClassMethod'
p209
I0
sS'methodType'
p210
S'procedure'
p211
sbsS'transform'
p212
(i__main__
DelphiMethodDeclaration
p213
(dp214
g83
S'transform'
p215
sg196
(lp216
(i__main__
DelphiFormalParameter
p217
(dp218
g200
Nsg201
(lp219
S'aPoint3D'
p220
asg18
(i__main__
DelphiNamedType
p221
(dp222
g21
S'KfPoint3D'
p223
sS'unitDefinedIn'
p224
g1
sS'unitName'
p225
Nsbsg206
S'var'
p226
sbasg207
g189
sg208
Nsg209
I0
sg210
g211
sbsS'rotatex'
p227
(i__main__
DelphiMethodDeclaration
p228
(dp229
g83
S'rotateX'
p230
sg196
(lp231
(i__main__
DelphiFormalParameter
p232
(dp233
g200
Nsg201
(lp234
S'angle'
p235
asg18
(i__main__
DelphiPrimitiveType
p236
(dp237
g21
g62
sbsg206
Nsbasg207
g189
sg208
Nsg209
I0
sg210
g211
sbsS'rotatey'
p238
(i__main__
DelphiMethodDeclaration
p239
(dp240
g83
S'rotateY'
p241
sg196
(lp242
(i__main__
DelphiFormalParameter
p243
(dp244
g200
Nsg201
(lp245
S'angle'
p246
asg18
(i__main__
DelphiPrimitiveType
p247
(dp248
g21
g62
sbsg206
Nsbasg207
g189
sg208
Nsg209
I0
sg210
g211
sbsS'rotatez'
p249
(i__main__
DelphiMethodDeclaration
p250
(dp251
g83
S'rotateZ'
p252
sg196
(lp253
(i__main__
DelphiFormalParameter
p254
(dp255
g200
Nsg201
(lp256
S'angle'
p257
asg18
(i__main__
DelphiPrimitiveType
p258
(dp259
g21
g62
sbsg206
Nsbasg207
g189
sg208
Nsg209
I0
sg210
g211
sbsS'copyto'
p260
(i__main__
DelphiMethodDeclaration
p261
(dp262
g83
S'copyTo'
p263
sg196
(lp264
(i__main__
DelphiFormalParameter
p265
(dp266
g200
Nsg201
(lp267
S'otherMatrix'
p268
asg18
(i__main__
DelphiNamedType
p269
(dp270
g21
S'KfMatrix'
p271
sg224
g1
sg225
Nsbsg206
Nsbasg207
g189
sg208
Nsg209
I0
sg210
g211
sbsS'deepcopy'
p272
(i__main__
DelphiMethodDeclaration
p273
(dp274
g83
S'deepCopy'
p275
sg196
(lp276
sg207
g189
sg208
(i__main__
DelphiNamedType
p277
(dp278
g21
S'KfMatrix'
p279
sg224
g1
sg225
Nsbsg209
I0
sg210
S'function'
p280
sbsS'initializeasunitmatrix'
p281
(i__main__
DelphiMethodDeclaration
p282
(dp283
g83
S'initializeAsUnitMatrix'
p284
sg196
(lp285
sg207
g189
sg208
Nsg209
I0
sg210
g211
sbsS'angley'
p286
(i__main__
DelphiMethodDeclaration
p287
(dp288
g83
S'angleY'
p289
sg196
(lp290
sg207
g189
sg208
(i__main__
DelphiPrimitiveType
p291
(dp292
g21
S'byte'
p293
sbsg209
I0
sg210
g280
sbsS'anglex'
p294
(i__main__
DelphiMethodDeclaration
p295
(dp296
g83
S'angleX'
p297
sg196
(lp298
sg207
g189
sg208
(i__main__
DelphiPrimitiveType
p299
(dp300
g21
g293
sbsg209
I0
sg210
g280
sg119
(lp301
S'class SinCache CosCache'
p302
aS' ---------------------------------------------------------------------------------- KfMatrix returning current angles '
p303
aS'PDF FIX - potential bug'
p304
aS' these do not take in account kFastTrigArraySize could be different from 256'
p305
asbsS'anglez'
p306
(i__main__
DelphiMethodDeclaration
p307
(dp308
g83
S'angleZ'
p309
sg196
(lp310
sg207
g189
sg208
(i__main__
DelphiPrimitiveType
p311
(dp312
g21
g293
sbsg209
I0
sg210
g280
sbssS'superclassNamedTypes'
p313
(lp314
(i__main__
DelphiNamedType
p315
(dp316
g21
S'TObject'
p317
sg224
g1
sg225
Nsbasg123
(dp318
S'a1'
p319
(i__main__
DelphiPrimitiveType
p320
(dp321
g21
g62
sbsS'a0'
p322
g320
sS'a2'
p323
g320
sS'b0'
p324
g320
sS'b1'
p325
g320
sS'b2'
p326
g320
sS'position'
p327
(i__main__
DelphiNamedType
p328
(dp329
g21
S'KfPoint3D'
p330
sg224
g1
sg225
NsbsS'c2'
p331
g320
sS'c1'
p332
g320
sS'c0'
p333
g320
ssS'methodNamesInDefinedOrder'
p334
(lp335
S'initializeasunitmatrix'
p336
aS'deepcopy'
p337
aS'copyto'
p338
aS'move'
p339
aS'transform'
p340
aS'rotatex'
p341
aS'rotatey'
p342
aS'rotatez'
p343
aS'anglex'
p344
aS'angley'
p345
aS'anglez'
p346
asS'methodImplementations'
p347
(dp348
S'angley'
p349
(i__main__
DelphiMethodImplementation
p350
(dp351
S'originalDeclaration'
p352
g287
sg83
g289
sg196
(lp353
sS'varParamIndexes'
p354
(lp355
sS'varParamsSkipped'
p356
(lp357
sS'argNames'
p358
(lp359
S'self'
p360
asS'argTypes'
p361
(dp362
sg207
S'KfMatrix'
p363
sg208
(i__main__
DelphiPrimitiveType
p364
(dp365
g21
g293
sbsS'varParamNames'
p366
(lp367
sg209
I0
sg210
g280
sS'block'
p368
(i__main__
DelphiBlock
p369
(dp370
S'compoundStatement'
p371
(idelphi
DelphiCompoundStatement
p372
(dp373
S'statements'
p374
(lp375
(idelphi
DelphiTryExceptStatement
p376
(dp377
S'tryStatements'
p378
(lp379
(i__main__
DelphiAssignStatement
p380
(dp381
S'newValueExpression'
p382
(idelphi
DelphiIntegerValue
p383
(dp384
g14
S'0'
sbsS'destinationExpression'
p385
(i__main__
DelphiIdentAccess
p386
(dp387
g16
S'result'
p388
sg78
(lp389
sbsba(i__main__
DelphiAssignStatement
p390
(dp391
g382
(idelphi
DelphiRealValue
p392
(dp393
g14
S'0.0'
p394
sbsg385
(i__main__
DelphiIdentAccess
p395
(dp396
g16
S'temp'
p397
sg78
(lp398
sbsba(i__main__
DelphiAssignStatement
p399
(dp400
g382
(idelphi
DelphiAddOp
p401
(dp402
g70
S'+'
sg71
(idelphi
DelphiNestedExpressionListAccess
p403
(dp404
g78
(lp405
sS'expressionList'
p406
(lp407
(idelphi
DelphiMulOp
p408
(dp409
S'signedFactor2'
p410
(i__main__
DelphiIdentAccess
p411
(dp412
g16
S'c0'
p413
sg78
(lp414
sbsS'mulOp'
p415
S'*'
sS'signedFactor1'
p416
(i__main__
DelphiIdentAccess
p417
(dp418
g16
S'c0'
p419
sg78
(lp420
sbsbasbsg74
(idelphi
DelphiNestedExpressionListAccess
p421
(dp422
g78
(lp423
sg406
(lp424
(idelphi
DelphiMulOp
p425
(dp426
g410
(i__main__
DelphiIdentAccess
p427
(dp428
g16
S'a0'
p429
sg78
(lp430
sbsg415
S'*'
sg416
(i__main__
DelphiIdentAccess
p431
(dp432
g16
S'a0'
p433
sg78
(lp434
sbsbasbsbsg385
(i__main__
DelphiIdentAccess
p435
(dp436
g16
S'temp'
p437
sg78
(lp438
sbsba(idelphi
DelphiIfStatement
p439
(dp440
S'expression'
p441
(idelphi
DelphiNestedExpressionListAccess
p442
(dp443
g78
(lp444
sg406
(lp445
(idelphi
DelphiRelOp
p446
(dp447
S'simpleExpression1'
p448
(i__main__
DelphiIdentAccess
p449
(dp450
g16
S'temp'
p451
sg78
(lp452
sbsS'simpleExpression2'
p453
(idelphi
DelphiRealValue
p454
(dp455
g14
S'0.0'
p456
sbsS'relOp'
p457
S'<'
sbasbsS'ifFalseStatement'
p458
NsS'ifTrueStatement'
p459
(i__main__
DelphiAssignStatement
p460
(dp461
g382
(idelphi
DelphiRealValue
p462
(dp463
g14
S'0.0'
p464
sbsg385
(i__main__
DelphiIdentAccess
p465
(dp466
g16
S'temp'
p467
sg78
(lp468
sbsbsba(i__main__
DelphiAssignStatement
p469
(dp470
g382
(i__main__
DelphiIdentAccess
p471
(dp472
g16
S'sqrt'
p473
sg78
(lp474
(idelphi
DelphiFunctionEndAccess
p475
(dp476
g406
(lp477
(i__main__
DelphiIdentAccess
p478
(dp479
g16
S'temp'
p480
sg78
(lp481
sbasbasbsg385
(i__main__
DelphiIdentAccess
p482
(dp483
g16
S'temp'
p484
sg78
(lp485
sbsba(idelphi
DelphiIfStatement
p486
(dp487
g441
(idelphi
DelphiNestedExpressionListAccess
p488
(dp489
g78
(lp490
sg406
(lp491
(idelphi
DelphiRelOp
p492
(dp493
g448
(i__main__
DelphiIdentAccess
p494
(dp495
g16
S'temp'
p496
sg78
(lp497
sbsg453
(idelphi
DelphiRealValue
p498
(dp499
g14
S'0.0'
p500
sbsg457
S'='
sbasbsg458
(idelphi
DelphiCompoundStatement
p501
(dp502
g374
(lp503
(i__main__
DelphiAssignStatement
p504
(dp505
g382
(idelphi
DelphiMulOp
p506
(dp507
g410
(i__main__
DelphiIdentAccess
p508
(dp509
g16
S'temp'
p510
sg78
(lp511
sbsg415
S'/'
sg416
(i__main__
DelphiIdentAccess
p512
(dp513
g16
S'b0'
p514
sg78
(lp515
sbsbsg385
(i__main__
DelphiIdentAccess
p516
(dp517
g16
S'temp'
p518
sg78
(lp519
sbsba(i__main__
DelphiAssignStatement
p520
(dp521
g382
(i__main__
DelphiIdentAccess
p522
(dp523
g16
S'arcTan'
p524
sg78
(lp525
(idelphi
DelphiFunctionEndAccess
p526
(dp527
g406
(lp528
(i__main__
DelphiIdentAccess
p529
(dp530
g16
S'temp'
p531
sg78
(lp532
sbasbasbsg385
(i__main__
DelphiIdentAccess
p533
(dp534
g16
S'temp'
p535
sg78
(lp536
sbsba(i__main__
DelphiAssignStatement
p537
(dp538
g382
(i__main__
DelphiValueTypecastAccess
p539
(dp540
S'valueTypecast'
p541
(i__main__
DelphiValueTypecast
p542
(dp543
g441
(i__main__
DelphiIdentAccess
p544
(dp545
g16
S'round'
p546
sg78
(lp547
(idelphi
DelphiFunctionEndAccess
p548
(dp549
g406
(lp550
(idelphi
DelphiMulOp
p551
(dp552
g410
(idelphi
DelphiNestedExpressionListAccess
p553
(dp554
g78
(lp555
sg406
(lp556
(idelphi
DelphiMulOp
p557
(dp558
g410
(idelphi
DelphiRealValue
p559
(dp560
g14
S'3.1415926'
p561
sbsg415
S'*'
sg416
(idelphi
DelphiIntegerValue
p562
(dp563
g14
S'2'
sbsbasbsg415
S'/'
sg416
(idelphi
DelphiMulOp
p564
(dp565
g410
(idelphi
DelphiIntegerValue
p566
(dp567
g14
S'256'
p568
sbsg415
S'*'
sg416
(idelphi
DelphiSign
p569
(dp570
S'factor'
p571
(i__main__
DelphiIdentAccess
p572
(dp573
g16
S'temp'
p574
sg78
(lp575
sbsg37
S'-'
sbsbsbasbasbsS'typeIdentPredefined'
p576
(i__main__
DelphiPrimitiveType
p577
(dp578
g21
g293
sbsbsg78
(lp579
sbsg385
(i__main__
DelphiIdentAccess
p580
(dp581
g16
S'result'
p582
sg78
(lp583
sbsbasbsg459
(idelphi
DelphiCompoundStatement
p584
(dp585
g374
(lp586
(idelphi
DelphiIfStatement
p587
(dp588
g441
(idelphi
DelphiNestedExpressionListAccess
p589
(dp590
g78
(lp591
sg406
(lp592
(idelphi
DelphiRelOp
p593
(dp594
g448
(i__main__
DelphiIdentAccess
p595
(dp596
g16
S'b0'
p597
sg78
(lp598
sbsg453
(idelphi
DelphiIntegerValue
p599
(dp600
g14
S'0'
sbsg457
S'<'
sbasbsg458
(i__main__
DelphiAssignStatement
p601
(dp602
g382
(idelphi
DelphiAddOp
p603
(dp604
g70
S'-'
sg71
(idelphi
DelphiIntegerValue
p605
(dp606
g14
S'64'
p607
sbsg74
(idelphi
DelphiIntegerValue
p608
(dp609
g14
S'256'
p610
sbsbsg385
(i__main__
DelphiIdentAccess
p611
(dp612
g16
S'result'
p613
sg78
(lp614
sbsbsg459
(i__main__
DelphiAssignStatement
p615
(dp616
g382
(idelphi
DelphiIntegerValue
p617
(dp618
g14
S'64'
p619
sbsg385
(i__main__
DelphiIdentAccess
p620
(dp621
g16
S'result'
p622
sg78
(lp623
sbsbsbasbsbasS'exceptionHandlers'
p624
(idelphi
DelphiExceptionHandlers
p625
(dp626
S'exceptionHandlerList'
p627
NsS'statementList'
p628
(lp629
(i__main__
DelphiAssignStatement
p630
(dp631
g382
(idelphi
DelphiIntegerValue
p632
(dp633
g14
S'0'
sbsg385
(i__main__
DelphiIdentAccess
p634
(dp635
g16
S'result'
p636
sg78
(lp637
sbsbasbsbasbsS'limitedDeclSectionList'
p638
(lp639
(i__main__
DelphiVarSection
p640
(dp641
g48
I0
sg51
(lp642
(idelphi
DelphiVarDecl
p643
(dp644
g11
Nsg55
(lp645
S'temp'
p646
asg18
(i__main__
DelphiPrimitiveType
p647
(dp648
g21
g62
sbsbasbasbsbsS'move'
p649
(i__main__
DelphiMethodImplementation
p650
(dp651
g352
g193
sg83
g195
sg196
(lp652
(i__main__
DelphiFormalParameter
p653
(dp654
g200
Nsg201
(lp655
S'distance'
p656
asg18
(i__main__
DelphiPrimitiveType
p657
(dp658
g21
g62
sbsg206
Nsbasg354
(lp659
sg356
(lp660
sg358
(lp661
g360
ag656
asg361
(dp662
g656
g657
ssg207
S'KfMatrix'
p663
sg208
Nsg366
(lp664
sg209
I0
sg210
g211
sg368
(i__main__
DelphiBlock
p665
(dp666
g371
(idelphi
DelphiCompoundStatement
p667
(dp668
g374
(lp669
(i__main__
DelphiAssignStatement
p670
(dp671
g382
(idelphi
DelphiAddOp
p672
(dp673
g70
S'+'
sg71
(idelphi
DelphiMulOp
p674
(dp675
g410
(i__main__
DelphiIdentAccess
p676
(dp677
g16
S'a0'
p678
sg78
(lp679
sbsg415
S'*'
sg416
(i__main__
DelphiIdentAccess
p680
(dp681
g16
S'distance'
p682
sg78
(lp683
sbsbsg74
(i__main__
DelphiIdentAccess
p684
(dp685
g16
S'position'
p686
sg78
(lp687
(idelphi
DelphiFieldEndAccess
p688
(dp689
S'field'
p690
S'x'
sbasbsbsg385
(i__main__
DelphiIdentAccess
p691
(dp692
g16
S'position'
p693
sg78
(lp694
(idelphi
DelphiFieldEndAccess
p695
(dp696
g690
S'x'
sbasbsg119
(lp697
S'pdf - move a distance by multiplying matrix values\r'
p698
aS'   movement is along x axis (d, 0, 0, 1);'
p699
asba(i__main__
DelphiAssignStatement
p700
(dp701
g382
(idelphi
DelphiAddOp
p702
(dp703
g70
S'+'
sg71
(idelphi
DelphiMulOp
p704
(dp705
g410
(i__main__
DelphiIdentAccess
p706
(dp707
g16
S'b0'
p708
sg78
(lp709
sbsg415
S'*'
sg416
(i__main__
DelphiIdentAccess
p710
(dp711
g16
S'distance'
p712
sg78
(lp713
sbsbsg74
(i__main__
DelphiIdentAccess
p714
(dp715
g16
S'position'
p716
sg78
(lp717
(idelphi
DelphiFieldEndAccess
p718
(dp719
g690
S'y'
sbasbsbsg385
(i__main__
DelphiIdentAccess
p720
(dp721
g16
S'position'
p722
sg78
(lp723
(idelphi
DelphiFieldEndAccess
p724
(dp725
g690
S'y'
sbasbsba(i__main__
DelphiAssignStatement
p726
(dp727
g382
(idelphi
DelphiAddOp
p728
(dp729
g70
S'+'
sg71
(idelphi
DelphiMulOp
p730
(dp731
g410
(i__main__
DelphiIdentAccess
p732
(dp733
g16
S'c0'
p734
sg78
(lp735
sbsg415
S'*'
sg416
(i__main__
DelphiIdentAccess
p736
(dp737
g16
S'distance'
p738
sg78
(lp739
sbsbsg74
(i__main__
DelphiIdentAccess
p740
(dp741
g16
S'position'
p742
sg78
(lp743
(idelphi
DelphiFieldEndAccess
p744
(dp745
g690
S'z'
sbasbsbsg385
(i__main__
DelphiIdentAccess
p746
(dp747
g16
S'position'
p748
sg78
(lp749
(idelphi
DelphiFieldEndAccess
p750
(dp751
g690
S'z'
sbasbsbasbsg638
(lp752
sbsg119
(lp753
S' ---------------------------------------------------------------------------- KfMatrix moving and transforming '
p754
asbsS'transform'
p755
(i__main__
DelphiMethodImplementation
p756
(dp757
g352
g213
sg83
g215
sg196
(lp758
(i__main__
DelphiFormalParameter
p759
(dp760
g200
Nsg201
(lp761
S'aPoint3D'
p762
asg18
(i__main__
DelphiNamedType
p763
(dp764
g21
S'KfPoint3D'
p765
sg224
g1
sg225
Nsbsg206
g226
sbasg354
(lp766
sg356
(lp767
g762
asg358
(lp768
g360
ag762
asg361
(dp769
g762
g763
ssg207
S'KfMatrix'
p770
sg208
Nsg366
(lp771
sg209
I0
sg210
g211
sg368
(i__main__
DelphiBlock
p772
(dp773
g371
(idelphi
DelphiCompoundStatement
p774
(dp775
g374
(lp776
(i__main__
DelphiAssignStatement
p777
(dp778
g382
(i__main__
DelphiIdentAccess
p779
(dp780
g16
S'aPoint3D'
p781
sg78
(lp782
(idelphi
DelphiFieldEndAccess
p783
(dp784
g690
S'x'
sbasbsg385
(i__main__
DelphiIdentAccess
p785
(dp786
g16
S'x'
sg78
(lp787
sbsba(i__main__
DelphiAssignStatement
p788
(dp789
g382
(i__main__
DelphiIdentAccess
p790
(dp791
g16
S'aPoint3D'
p792
sg78
(lp793
(idelphi
DelphiFieldEndAccess
p794
(dp795
g690
S'y'
sbasbsg385
(i__main__
DelphiIdentAccess
p796
(dp797
g16
S'y'
sg78
(lp798
sbsba(i__main__
DelphiAssignStatement
p799
(dp800
g382
(i__main__
DelphiIdentAccess
p801
(dp802
g16
S'aPoint3D'
p803
sg78
(lp804
(idelphi
DelphiFieldEndAccess
p805
(dp806
g690
S'z'
sbasbsg385
(i__main__
DelphiIdentAccess
p807
(dp808
g16
S'z'
sg78
(lp809
sbsba(i__main__
DelphiAssignStatement
p810
(dp811
g382
(idelphi
DelphiAddOp
p812
(dp813
g70
S'+'
sg71
(i__main__
DelphiIdentAccess
p814
(dp815
g16
S'position'
p816
sg78
(lp817
(idelphi
DelphiFieldEndAccess
p818
(dp819
g690
S'x'
sbasbsg74
(idelphi
DelphiAddOp
p820
(dp821
g70
S'+'
sg71
(idelphi
DelphiNestedExpressionListAccess
p822
(dp823
g78
(lp824
sg406
(lp825
(idelphi
DelphiMulOp
p826
(dp827
g410
(i__main__
DelphiIdentAccess
p828
(dp829
g16
S'a2'
p830
sg78
(lp831
sbsg415
S'*'
sg416
(i__main__
DelphiIdentAccess
p832
(dp833
g16
S'z'
sg78
(lp834
sbsbasbsg74
(idelphi
DelphiAddOp
p835
(dp836
g70
S'+'
sg71
(idelphi
DelphiNestedExpressionListAccess
p837
(dp838
g78
(lp839
sg406
(lp840
(idelphi
DelphiMulOp
p841
(dp842
g410
(i__main__
DelphiIdentAccess
p843
(dp844
g16
S'a1'
p845
sg78
(lp846
sbsg415
S'*'
sg416
(i__main__
DelphiIdentAccess
p847
(dp848
g16
S'y'
sg78
(lp849
sbsbasbsg74
(idelphi
DelphiNestedExpressionListAccess
p850
(dp851
g78
(lp852
sg406
(lp853
(idelphi
DelphiMulOp
p854
(dp855
g410
(i__main__
DelphiIdentAccess
p856
(dp857
g16
S'a0'
p858
sg78
(lp859
sbsg415
S'*'
sg416
(i__main__
DelphiIdentAccess
p860
(dp861
g16
S'x'
sg78
(lp862
sbsbasbsbsbsbsg385
(i__main__
DelphiIdentAccess
p863
(dp864
g16
S'aPoint3D'
p865
sg78
(lp866
(idelphi
DelphiFieldEndAccess
p867
(dp868
g690
S'x'
sbasbsba(i__main__
DelphiAssignStatement
p869
(dp870
g382
(idelphi
DelphiAddOp
p871
(dp872
g70
S'+'
sg71
(i__main__
DelphiIdentAccess
p873
(dp874
g16
S'position'
p875
sg78
(lp876
(idelphi
DelphiFieldEndAccess
p877
(dp878
g690
S'y'
sbasbsg74
(idelphi
DelphiAddOp
p879
(dp880
g70
S'+'
sg71
(idelphi
DelphiNestedExpressionListAccess
p881
(dp882
g78
(lp883
sg406
(lp884
(idelphi
DelphiMulOp
p885
(dp886
g410
(i__main__
DelphiIdentAccess
p887
(dp888
g16
S'b2'
p889
sg78
(lp890
sbsg415
S'*'
sg416
(i__main__
DelphiIdentAccess
p891
(dp892
g16
S'z'
sg78
(lp893
sbsbasbsg74
(idelphi
DelphiAddOp
p894
(dp895
g70
S'+'
sg71
(idelphi
DelphiNestedExpressionListAccess
p896
(dp897
g78
(lp898
sg406
(lp899
(idelphi
DelphiMulOp
p900
(dp901
g410
(i__main__
DelphiIdentAccess
p902
(dp903
g16
S'b1'
p904
sg78
(lp905
sbsg415
S'*'
sg416
(i__main__
DelphiIdentAccess
p906
(dp907
g16
S'y'
sg78
(lp908
sbsbasbsg74
(idelphi
DelphiNestedExpressionListAccess
p909
(dp910
g78
(lp911
sg406
(lp912
(idelphi
DelphiMulOp
p913
(dp914
g410
(i__main__
DelphiIdentAccess
p915
(dp916
g16
S'b0'
p917
sg78
(lp918
sbsg415
S'*'
sg416
(i__main__
DelphiIdentAccess
p919
(dp920
g16
S'x'
sg78
(lp921
sbsbasbsbsbsbsg385
(i__main__
DelphiIdentAccess
p922
(dp923
g16
S'aPoint3D'
p924
sg78
(lp925
(idelphi
DelphiFieldEndAccess
p926
(dp927
g690
S'y'
sbasbsba(i__main__
DelphiAssignStatement
p928
(dp929
g382
(idelphi
DelphiAddOp
p930
(dp931
g70
S'+'
sg71
(i__main__
DelphiIdentAccess
p932
(dp933
g16
S'position'
p934
sg78
(lp935
(idelphi
DelphiFieldEndAccess
p936
(dp937
g690
S'z'
sbasbsg74
(idelphi
DelphiAddOp
p938
(dp939
g70
S'+'
sg71
(idelphi
DelphiNestedExpressionListAccess
p940
(dp941
g78
(lp942
sg406
(lp943
(idelphi
DelphiMulOp
p944
(dp945
g410
(i__main__
DelphiIdentAccess
p946
(dp947
g16
S'c2'
p948
sg78
(lp949
sbsg415
S'*'
sg416
(i__main__
DelphiIdentAccess
p950
(dp951
g16
S'z'
sg78
(lp952
sbsbasbsg74
(idelphi
DelphiAddOp
p953
(dp954
g70
S'+'
sg71
(idelphi
DelphiNestedExpressionListAccess
p955
(dp956
g78
(lp957
sg406
(lp958
(idelphi
DelphiMulOp
p959
(dp960
g410
(i__main__
DelphiIdentAccess
p961
(dp962
g16
S'c1'
p963
sg78
(lp964
sbsg415
S'*'
sg416
(i__main__
DelphiIdentAccess
p965
(dp966
g16
S'y'
sg78
(lp967
sbsbasbsg74
(idelphi
DelphiNestedExpressionListAccess
p968
(dp969
g78
(lp970
sg406
(lp971
(idelphi
DelphiMulOp
p972
(dp973
g410
(i__main__
DelphiIdentAccess
p974
(dp975
g16
S'c0'
p976
sg78
(lp977
sbsg415
S'*'
sg416
(i__main__
DelphiIdentAccess
p978
(dp979
g16
S'x'
sg78
(lp980
sbsbasbsbsbsbsg385
(i__main__
DelphiIdentAccess
p981
(dp982
g16
S'aPoint3D'
p983
sg78
(lp984
(idelphi
DelphiFieldEndAccess
p985
(dp986
g690
S'z'
sbasbsbasbsg638
(lp987
(i__main__
DelphiVarSection
p988
(dp989
g48
I0
sg51
(lp990
(idelphi
DelphiVarDecl
p991
(dp992
g11
Nsg55
(lp993
S'x'
aS'y'
aS'z'
asg18
(i__main__
DelphiPrimitiveType
p994
(dp995
g21
g62
sbsbasbasbsg119
(lp996
S'pdf - transform the point, including offsetting it by the current position'
p997
aS"Alters the point's contents"
p998
asbsS'rotatex'
p999
(i__main__
DelphiMethodImplementation
p1000
(dp1001
g352
g228
sg83
g230
sg196
(lp1002
(i__main__
DelphiFormalParameter
p1003
(dp1004
g200
Nsg201
(lp1005
S'angle'
p1006
asg18
(i__main__
DelphiPrimitiveType
p1007
(dp1008
g21
g62
sbsg206
Nsbasg354
(lp1009
sg356
(lp1010
sg358
(lp1011
g360
ag1006
asg361
(dp1012
g1006
g1007
ssg207
S'KfMatrix'
p1013
sg208
Nsg366
(lp1014
sg209
I0
sg210
g211
sg368
(i__main__
DelphiBlock
p1015
(dp1016
g371
(idelphi
DelphiCompoundStatement
p1017
(dp1018
g374
(lp1019
(i__main__
DelphiAssignStatement
p1020
(dp1021
g382
(idelphi
DelphiMulOp
p1022
(dp1023
g410
(i__main__
DelphiIdentAccess
p1024
(dp1025
g16
S'kFastTrigArraySize'
p1026
sg78
(lp1027
sbsg415
S'mod'
p1028
sg416
(i__main__
DelphiIdentAccess
p1029
(dp1030
g16
S'round'
p1031
sg78
(lp1032
(idelphi
DelphiFunctionEndAccess
p1033
(dp1034
g406
(lp1035
(i__main__
DelphiIdentAccess
p1036
(dp1037
g16
S'angle'
p1038
sg78
(lp1039
sbasbasbsbsg385
(i__main__
DelphiIdentAccess
p1040
(dp1041
g16
S'boundedAngleIndex'
p1042
sg78
(lp1043
sbsg119
(lp1044
S'bound angle and convert to index'
p1045
aS'not doing try except around round for speed here - could fail ...'
p1046
asba(idelphi
DelphiIfStatement
p1047
(dp1048
g441
(idelphi
DelphiNestedExpressionListAccess
p1049
(dp1050
g78
(lp1051
sg406
(lp1052
(idelphi
DelphiRelOp
p1053
(dp1054
g448
(i__main__
DelphiIdentAccess
p1055
(dp1056
g16
S'boundedAngleIndex'
p1057
sg78
(lp1058
sbsg453
(idelphi
DelphiIntegerValue
p1059
(dp1060
g14
S'0'
sbsg457
S'<'
sbasbsg458
Nsg459
(i__main__
DelphiAssignStatement
p1061
(dp1062
g382
(idelphi
DelphiAddOp
p1063
(dp1064
g70
S'+'
sg71
(i__main__
DelphiIdentAccess
p1065
(dp1066
g16
S'boundedAngleIndex'
p1067
sg78
(lp1068
sbsg74
(i__main__
DelphiIdentAccess
p1069
(dp1070
g16
S'kFastTrigArraySize'
p1071
sg78
(lp1072
sbsbsg385
(i__main__
DelphiIdentAccess
p1073
(dp1074
g16
S'boundedAngleIndex'
p1075
sg78
(lp1076
sbsbsba(i__main__
DelphiAssignStatement
p1077
(dp1078
g382
(i__main__
DelphiIdentAccess
p1079
(dp1080
g16
S'CosCache'
p1081
sg78
(lp1082
(idelphi
DelphiArrayEndAccess
p1083
(dp1084
g406
(lp1085
(i__main__
DelphiIdentAccess
p1086
(dp1087
g16
S'boundedAngleIndex'
p1088
sg78
(lp1089
sbasbasbsg385
(i__main__
DelphiIdentAccess
p1090
(dp1091
g16
S'cosAngle'
p1092
sg78
(lp1093
sbsba(i__main__
DelphiAssignStatement
p1094
(dp1095
g382
(i__main__
DelphiIdentAccess
p1096
(dp1097
g16
S'SinCache'
p1098
sg78
(lp1099
(idelphi
DelphiArrayEndAccess
p1100
(dp1101
g406
(lp1102
(i__main__
DelphiIdentAccess
p1103
(dp1104
g16
S'boundedAngleIndex'
p1105
sg78
(lp1106
sbasbasbsg385
(i__main__
DelphiIdentAccess
p1107
(dp1108
g16
S'sinAngle'
p1109
sg78
(lp1110
sbsba(i__main__
DelphiAssignStatement
p1111
(dp1112
g382
(i__main__
DelphiIdentAccess
p1113
(dp1114
g16
S'a0'
p1115
sg78
(lp1116
sbsg385
(i__main__
DelphiIdentAccess
p1117
(dp1118
g16
S'a0'
p1119
sg78
(lp1120
sbsg119
(lp1121
S'moved minuses to middle to optimize'
p1122
asba(i__main__
DelphiAssignStatement
p1123
(dp1124
g382
(idelphi
DelphiAddOp
p1125
(dp1126
g70
S'-'
sg71
(idelphi
DelphiNestedExpressionListAccess
p1127
(dp1128
g78
(lp1129
sg406
(lp1130
(idelphi
DelphiMulOp
p1131
(dp1132
g410
(i__main__
DelphiIdentAccess
p1133
(dp1134
g16
S'sinAngle'
p1135
sg78
(lp1136
sbsg415
S'*'
sg416
(i__main__
DelphiIdentAccess
p1137
(dp1138
g16
S'a2'
p1139
sg78
(lp1140
sbsbasbsg74
(idelphi
DelphiNestedExpressionListAccess
p1141
(dp1142
g78
(lp1143
sg406
(lp1144
(idelphi
DelphiMulOp
p1145
(dp1146
g410
(i__main__
DelphiIdentAccess
p1147
(dp1148
g16
S'cosAngle'
p1149
sg78
(lp1150
sbsg415
S'*'
sg416
(i__main__
DelphiIdentAccess
p1151
(dp1152
g16
S'a1'
p1153
sg78
(lp1154
sbsbasbsbsg385
(i__main__
DelphiIdentAccess
p1155
(dp1156
g16
S'temp1'
p1157
sg78
(lp1158
sbsba(i__main__
DelphiAssignStatement
p1159
(dp1160
g382
(idelphi
DelphiAddOp
p1161
(dp1162
g70
S'+'
sg71
(idelphi
DelphiNestedExpressionListAccess
p1163
(dp1164
g78
(lp1165
sg406
(lp1166
(idelphi
DelphiMulOp
p1167
(dp1168
g410
(i__main__
DelphiIdentAccess
p1169
(dp1170
g16
S'cosAngle'
p1171
sg78
(lp1172
sbsg415
S'*'
sg416
(i__main__
DelphiIdentAccess
p1173
(dp1174
g16
S'a2'
p1175
sg78
(lp1176
sbsbasbsg74
(idelphi
DelphiNestedExpressionListAccess
p1177
(dp1178
g78
(lp1179
sg406
(lp1180
(idelphi
DelphiMulOp
p1181
(dp1182
g410
(i__main__
DelphiIdentAccess
p1183
(dp1184
g16
S'sinAngle'
p1185
sg78
(lp1186
sbsg415
S'*'
sg416
(i__main__
DelphiIdentAccess
p1187
(dp1188
g16
S'a1'
p1189
sg78
(lp1190
sbsbasbsbsg385
(i__main__
DelphiIdentAccess
p1191
(dp1192
g16
S'a2'
p1193
sg78
(lp1194
sbsba(i__main__
DelphiAssignStatement
p1195
(dp1196
g382
(i__main__
DelphiIdentAccess
p1197
(dp1198
g16
S'temp1'
p1199
sg78
(lp1200
sbsg385
(i__main__
DelphiIdentAccess
p1201
(dp1202
g16
S'a1'
p1203
sg78
(lp1204
sbsba(i__main__
DelphiAssignStatement
p1205
(dp1206
g382
(i__main__
DelphiIdentAccess
p1207
(dp1208
g16
S'b0'
p1209
sg78
(lp1210
sbsg385
(i__main__
DelphiIdentAccess
p1211
(dp1212
g16
S'b0'
p1213
sg78
(lp1214
sbsba(i__main__
DelphiAssignStatement
p1215
(dp1216
g382
(idelphi
DelphiAddOp
p1217
(dp1218
g70
S'-'
sg71
(idelphi
DelphiNestedExpressionListAccess
p1219
(dp1220
g78
(lp1221
sg406
(lp1222
(idelphi
DelphiMulOp
p1223
(dp1224
g410
(i__main__
DelphiIdentAccess
p1225
(dp1226
g16
S'sinAngle'
p1227
sg78
(lp1228
sbsg415
S'*'
sg416
(i__main__
DelphiIdentAccess
p1229
(dp1230
g16
S'b2'
p1231
sg78
(lp1232
sbsbasbsg74
(idelphi
DelphiNestedExpressionListAccess
p1233
(dp1234
g78
(lp1235
sg406
(lp1236
(idelphi
DelphiMulOp
p1237
(dp1238
g410
(i__main__
DelphiIdentAccess
p1239
(dp1240
g16
S'cosAngle'
p1241
sg78
(lp1242
sbsg415
S'*'
sg416
(i__main__
DelphiIdentAccess
p1243
(dp1244
g16
S'b1'
p1245
sg78
(lp1246
sbsbasbsbsg385
(i__main__
DelphiIdentAccess
p1247
(dp1248
g16
S'temp1'
p1249
sg78
(lp1250
sbsba(i__main__
DelphiAssignStatement
p1251
(dp1252
g382
(idelphi
DelphiAddOp
p1253
(dp1254
g70
S'+'
sg71
(idelphi
DelphiNestedExpressionListAccess
p1255
(dp1256
g78
(lp1257
sg406
(lp1258
(idelphi
DelphiMulOp
p1259
(dp1260
g410
(i__main__
DelphiIdentAccess
p1261
(dp1262
g16
S'cosAngle'
p1263
sg78
(lp1264
sbsg415
S'*'
sg416
(i__main__
DelphiIdentAccess
p1265
(dp1266
g16
S'b2'
p1267
sg78
(lp1268
sbsbasbsg74
(idelphi
DelphiNestedExpressionListAccess
p1269
(dp1270
g78
(lp1271
sg406
(lp1272
(idelphi
DelphiMulOp
p1273
(dp1274
g410
(i__main__
DelphiIdentAccess
p1275
(dp1276
g16
S'sinAngle'
p1277
sg78
(lp1278
sbsg415
S'*'
sg416
(i__main__
DelphiIdentAccess
p1279
(dp1280
g16
S'b1'
p1281
sg78
(lp1282
sbsbasbsbsg385
(i__main__
DelphiIdentAccess
p1283
(dp1284
g16
S'b2'
p1285
sg78
(lp1286
sbsba(i__main__
DelphiAssignStatement
p1287
(dp1288
g382
(i__main__
DelphiIdentAccess
p1289
(dp1290
g16
S'temp1'
p1291
sg78
(lp1292
sbsg385
(i__main__
DelphiIdentAccess
p1293
(dp1294
g16
S'b1'
p1295
sg78
(lp1296
sbsba(i__main__
DelphiAssignStatement
p1297
(dp1298
g382
(i__main__
DelphiIdentAccess
p1299
(dp1300
g16
S'c0'
p1301
sg78
(lp1302
sbsg385
(i__main__
DelphiIdentAccess
p1303
(dp1304
g16
S'c0'
p1305
sg78
(lp1306
sbsba(i__main__
DelphiAssignStatement
p1307
(dp1308
g382
(idelphi
DelphiAddOp
p1309
(dp1310
g70
S'-'
sg71
(idelphi
DelphiNestedExpressionListAccess
p1311
(dp1312
g78
(lp1313
sg406
(lp1314
(idelphi
DelphiMulOp
p1315
(dp1316
g410
(i__main__
DelphiIdentAccess
p1317
(dp1318
g16
S'sinAngle'
p1319
sg78
(lp1320
sbsg415
S'*'
sg416
(i__main__
DelphiIdentAccess
p1321
(dp1322
g16
S'c2'
p1323
sg78
(lp1324
sbsbasbsg74
(idelphi
DelphiNestedExpressionListAccess
p1325
(dp1326
g78
(lp1327
sg406
(lp1328
(idelphi
DelphiMulOp
p1329
(dp1330
g410
(i__main__
DelphiIdentAccess
p1331
(dp1332
g16
S'cosAngle'
p1333
sg78
(lp1334
sbsg415
S'*'
sg416
(i__main__
DelphiIdentAccess
p1335
(dp1336
g16
S'c1'
p1337
sg78
(lp1338
sbsbasbsbsg385
(i__main__
DelphiIdentAccess
p1339
(dp1340
g16
S'temp1'
p1341
sg78
(lp1342
sbsba(i__main__
DelphiAssignStatement
p1343
(dp1344
g382
(idelphi
DelphiAddOp
p1345
(dp1346
g70
S'+'
sg71
(idelphi
DelphiNestedExpressionListAccess
p1347
(dp1348
g78
(lp1349
sg406
(lp1350
(idelphi
DelphiMulOp
p1351
(dp1352
g410
(i__main__
DelphiIdentAccess
p1353
(dp1354
g16
S'cosAngle'
p1355
sg78
(lp1356
sbsg415
S'*'
sg416
(i__main__
DelphiIdentAccess
p1357
(dp1358
g16
S'c2'
p1359
sg78
(lp1360
sbsbasbsg74
(idelphi
DelphiNestedExpressionListAccess
p1361
(dp1362
g78
(lp1363
sg406
(lp1364
(idelphi
DelphiMulOp
p1365
(dp1366
g410
(i__main__
DelphiIdentAccess
p1367
(dp1368
g16
S'sinAngle'
p1369
sg78
(lp1370
sbsg415
S'*'
sg416
(i__main__
DelphiIdentAccess
p1371
(dp1372
g16
S'c1'
p1373
sg78
(lp1374
sbsbasbsbsg385
(i__main__
DelphiIdentAccess
p1375
(dp1376
g16
S'c2'
p1377
sg78
(lp1378
sbsba(i__main__
DelphiAssignStatement
p1379
(dp1380
g382
(i__main__
DelphiIdentAccess
p1381
(dp1382
g16
S'temp1'
p1383
sg78
(lp1384
sbsg385
(i__main__
DelphiIdentAccess
p1385
(dp1386
g16
S'c1'
p1387
sg78
(lp1388
sbsbasbsg638
(lp1389
(i__main__
DelphiVarSection
p1390
(dp1391
g48
I0
sg51
(lp1392
(idelphi
DelphiVarDecl
p1393
(dp1394
g11
Nsg55
(lp1395
S'cosAngle'
p1396
aS'sinAngle'
p1397
aS'temp1'
p1398
asg18
(i__main__
DelphiPrimitiveType
p1399
(dp1400
g21
g62
sbsba(idelphi
DelphiVarDecl
p1401
(dp1402
g11
Nsg55
(lp1403
S'boundedAngleIndex'
p1404
asg18
(i__main__
DelphiPrimitiveType
p1405
(dp1406
g21
g159
sbsbasbasbsg119
(lp1407
S' ---------------------------------------------------------------------------------- KfMatrix rotating '
p1408
asbsS'rotatey'
p1409
(i__main__
DelphiMethodImplementation
p1410
(dp1411
g352
g239
sg83
g241
sg196
(lp1412
(i__main__
DelphiFormalParameter
p1413
(dp1414
g200
Nsg201
(lp1415
S'angle'
p1416
asg18
(i__main__
DelphiPrimitiveType
p1417
(dp1418
g21
g62
sbsg206
Nsbasg354
(lp1419
sg356
(lp1420
sg358
(lp1421
g360
ag1416
asg361
(dp1422
g1416
g1417
ssg207
S'KfMatrix'
p1423
sg208
Nsg366
(lp1424
sg209
I0
sg210
g211
sg368
(i__main__
DelphiBlock
p1425
(dp1426
g371
(idelphi
DelphiCompoundStatement
p1427
(dp1428
g374
(lp1429
(i__main__
DelphiAssignStatement
p1430
(dp1431
g382
(idelphi
DelphiMulOp
p1432
(dp1433
g410
(i__main__
DelphiIdentAccess
p1434
(dp1435
g16
S'kFastTrigArraySize'
p1436
sg78
(lp1437
sbsg415
g1028
sg416
(i__main__
DelphiIdentAccess
p1438
(dp1439
g16
S'round'
p1440
sg78
(lp1441
(idelphi
DelphiFunctionEndAccess
p1442
(dp1443
g406
(lp1444
(i__main__
DelphiIdentAccess
p1445
(dp1446
g16
S'angle'
p1447
sg78
(lp1448
sbasbasbsbsg385
(i__main__
DelphiIdentAccess
p1449
(dp1450
g16
S'boundedAngleIndex'
p1451
sg78
(lp1452
sbsg119
(lp1453
S'bound angle and convert to index'
p1454
aS'not doing try except around round for speed here - could fail ...'
p1455
asba(idelphi
DelphiIfStatement
p1456
(dp1457
g441
(idelphi
DelphiNestedExpressionListAccess
p1458
(dp1459
g78
(lp1460
sg406
(lp1461
(idelphi
DelphiRelOp
p1462
(dp1463
g448
(i__main__
DelphiIdentAccess
p1464
(dp1465
g16
S'boundedAngleIndex'
p1466
sg78
(lp1467
sbsg453
(idelphi
DelphiIntegerValue
p1468
(dp1469
g14
S'0'
sbsg457
S'<'
sbasbsg458
Nsg459
(i__main__
DelphiAssignStatement
p1470
(dp1471
g382
(idelphi
DelphiAddOp
p1472
(dp1473
g70
S'+'
sg71
(i__main__
DelphiIdentAccess
p1474
(dp1475
g16
S'boundedAngleIndex'
p1476
sg78
(lp1477
sbsg74
(i__main__
DelphiIdentAccess
p1478
(dp1479
g16
S'kFastTrigArraySize'
p1480
sg78
(lp1481
sbsbsg385
(i__main__
DelphiIdentAccess
p1482
(dp1483
g16
S'boundedAngleIndex'
p1484
sg78
(lp1485
sbsbsba(i__main__
DelphiAssignStatement
p1486
(dp1487
g382
(i__main__
DelphiIdentAccess
p1488
(dp1489
g16
S'CosCache'
p1490
sg78
(lp1491
(idelphi
DelphiArrayEndAccess
p1492
(dp1493
g406
(lp1494
(i__main__
DelphiIdentAccess
p1495
(dp1496
g16
S'boundedAngleIndex'
p1497
sg78
(lp1498
sbasbasbsg385
(i__main__
DelphiIdentAccess
p1499
(dp1500
g16
S'cosAngle'
p1501
sg78
(lp1502
sbsba(i__main__
DelphiAssignStatement
p1503
(dp1504
g382
(i__main__
DelphiIdentAccess
p1505
(dp1506
g16
S'SinCache'
p1507
sg78
(lp1508
(idelphi
DelphiArrayEndAccess
p1509
(dp1510
g406
(lp1511
(i__main__
DelphiIdentAccess
p1512
(dp1513
g16
S'boundedAngleIndex'
p1514
sg78
(lp1515
sbasbasbsg385
(i__main__
DelphiIdentAccess
p1516
(dp1517
g16
S'sinAngle'
p1518
sg78
(lp1519
sbsba(i__main__
DelphiAssignStatement
p1520
(dp1521
g382
(idelphi
DelphiAddOp
p1522
(dp1523
g70
S'+'
sg71
(idelphi
DelphiNestedExpressionListAccess
p1524
(dp1525
g78
(lp1526
sg406
(lp1527
(idelphi
DelphiMulOp
p1528
(dp1529
g410
(i__main__
DelphiIdentAccess
p1530
(dp1531
g16
S'sinAngle'
p1532
sg78
(lp1533
sbsg415
S'*'
sg416
(i__main__
DelphiIdentAccess
p1534
(dp1535
g16
S'a2'
p1536
sg78
(lp1537
sbsbasbsg74
(idelphi
DelphiNestedExpressionListAccess
p1538
(dp1539
g78
(lp1540
sg406
(lp1541
(idelphi
DelphiMulOp
p1542
(dp1543
g410
(i__main__
DelphiIdentAccess
p1544
(dp1545
g16
S'cosAngle'
p1546
sg78
(lp1547
sbsg415
S'*'
sg416
(i__main__
DelphiIdentAccess
p1548
(dp1549
g16
S'a0'
p1550
sg78
(lp1551
sbsbasbsbsg385
(i__main__
DelphiIdentAccess
p1552
(dp1553
g16
S'temp0'
p1554
sg78
(lp1555
sbsba(i__main__
DelphiAssignStatement
p1556
(dp1557
g382
(i__main__
DelphiIdentAccess
p1558
(dp1559
g16
S'a1'
p1560
sg78
(lp1561
sbsg385
(i__main__
DelphiIdentAccess
p1562
(dp1563
g16
S'a1'
p1564
sg78
(lp1565
sbsba(i__main__
DelphiAssignStatement
p1566
(dp1567
g382
(idelphi
DelphiAddOp
p1568
(dp1569
g70
S'-'
sg71
(idelphi
DelphiNestedExpressionListAccess
p1570
(dp1571
g78
(lp1572
sg406
(lp1573
(idelphi
DelphiMulOp
p1574
(dp1575
g410
(i__main__
DelphiIdentAccess
p1576
(dp1577
g16
S'sinAngle'
p1578
sg78
(lp1579
sbsg415
S'*'
sg416
(i__main__
DelphiIdentAccess
p1580
(dp1581
g16
S'a0'
p1582
sg78
(lp1583
sbsbasbsg74
(idelphi
DelphiNestedExpressionListAccess
p1584
(dp1585
g78
(lp1586
sg406
(lp1587
(idelphi
DelphiMulOp
p1588
(dp1589
g410
(i__main__
DelphiIdentAccess
p1590
(dp1591
g16
S'cosAngle'
p1592
sg78
(lp1593
sbsg415
S'*'
sg416
(i__main__
DelphiIdentAccess
p1594
(dp1595
g16
S'a2'
p1596
sg78
(lp1597
sbsbasbsbsg385
(i__main__
DelphiIdentAccess
p1598
(dp1599
g16
S'a2'
p1600
sg78
(lp1601
sbsg119
(lp1602
S'flipped to put minus in middle'
p1603
asba(i__main__
DelphiAssignStatement
p1604
(dp1605
g382
(i__main__
DelphiIdentAccess
p1606
(dp1607
g16
S'temp0'
p1608
sg78
(lp1609
sbsg385
(i__main__
DelphiIdentAccess
p1610
(dp1611
g16
S'a0'
p1612
sg78
(lp1613
sbsba(i__main__
DelphiAssignStatement
p1614
(dp1615
g382
(idelphi
DelphiAddOp
p1616
(dp1617
g70
S'+'
sg71
(idelphi
DelphiNestedExpressionListAccess
p1618
(dp1619
g78
(lp1620
sg406
(lp1621
(idelphi
DelphiMulOp
p1622
(dp1623
g410
(i__main__
DelphiIdentAccess
p1624
(dp1625
g16
S'sinAngle'
p1626
sg78
(lp1627
sbsg415
S'*'
sg416
(i__main__
DelphiIdentAccess
p1628
(dp1629
g16
S'b2'
p1630
sg78
(lp1631
sbsbasbsg74
(idelphi
DelphiNestedExpressionListAccess
p1632
(dp1633
g78
(lp1634
sg406
(lp1635
(idelphi
DelphiMulOp
p1636
(dp1637
g410
(i__main__
DelphiIdentAccess
p1638
(dp1639
g16
S'cosAngle'
p1640
sg78
(lp1641
sbsg415
S'*'
sg416
(i__main__
DelphiIdentAccess
p1642
(dp1643
g16
S'b0'
p1644
sg78
(lp1645
sbsbasbsbsg385
(i__main__
DelphiIdentAccess
p1646
(dp1647
g16
S'temp0'
p1648
sg78
(lp1649
sbsba(i__main__
DelphiAssignStatement
p1650
(dp1651
g382
(i__main__
DelphiIdentAccess
p1652
(dp1653
g16
S'b1'
p1654
sg78
(lp1655
sbsg385
(i__main__
DelphiIdentAccess
p1656
(dp1657
g16
S'b1'
p1658
sg78
(lp1659
sbsba(i__main__
DelphiAssignStatement
p1660
(dp1661
g382
(idelphi
DelphiAddOp
p1662
(dp1663
g70
S'-'
sg71
(idelphi
DelphiNestedExpressionListAccess
p1664
(dp1665
g78
(lp1666
sg406
(lp1667
(idelphi
DelphiMulOp
p1668
(dp1669
g410
(i__main__
DelphiIdentAccess
p1670
(dp1671
g16
S'sinAngle'
p1672
sg78
(lp1673
sbsg415
S'*'
sg416
(i__main__
DelphiIdentAccess
p1674
(dp1675
g16
S'b0'
p1676
sg78
(lp1677
sbsbasbsg74
(idelphi
DelphiNestedExpressionListAccess
p1678
(dp1679
g78
(lp1680
sg406
(lp1681
(idelphi
DelphiMulOp
p1682
(dp1683
g410
(i__main__
DelphiIdentAccess
p1684
(dp1685
g16
S'cosAngle'
p1686
sg78
(lp1687
sbsg415
S'*'
sg416
(i__main__
DelphiIdentAccess
p1688
(dp1689
g16
S'b2'
p1690
sg78
(lp1691
sbsbasbsbsg385
(i__main__
DelphiIdentAccess
p1692
(dp1693
g16
S'b2'
p1694
sg78
(lp1695
sbsg119
(lp1696
S'flipped to put minus in middle'
p1697
asba(i__main__
DelphiAssignStatement
p1698
(dp1699
g382
(i__main__
DelphiIdentAccess
p1700
(dp1701
g16
S'temp0'
p1702
sg78
(lp1703
sbsg385
(i__main__
DelphiIdentAccess
p1704
(dp1705
g16
S'b0'
p1706
sg78
(lp1707
sbsba(i__main__
DelphiAssignStatement
p1708
(dp1709
g382
(idelphi
DelphiAddOp
p1710
(dp1711
g70
S'+'
sg71
(idelphi
DelphiNestedExpressionListAccess
p1712
(dp1713
g78
(lp1714
sg406
(lp1715
(idelphi
DelphiMulOp
p1716
(dp1717
g410
(i__main__
DelphiIdentAccess
p1718
(dp1719
g16
S'sinAngle'
p1720
sg78
(lp1721
sbsg415
S'*'
sg416
(i__main__
DelphiIdentAccess
p1722
(dp1723
g16
S'c2'
p1724
sg78
(lp1725
sbsbasbsg74
(idelphi
DelphiNestedExpressionListAccess
p1726
(dp1727
g78
(lp1728
sg406
(lp1729
(idelphi
DelphiMulOp
p1730
(dp1731
g410
(i__main__
DelphiIdentAccess
p1732
(dp1733
g16
S'cosAngle'
p1734
sg78
(lp1735
sbsg415
S'*'
sg416
(i__main__
DelphiIdentAccess
p1736
(dp1737
g16
S'c0'
p1738
sg78
(lp1739
sbsbasbsbsg385
(i__main__
DelphiIdentAccess
p1740
(dp1741
g16
S'temp0'
p1742
sg78
(lp1743
sbsba(i__main__
DelphiAssignStatement
p1744
(dp1745
g382
(i__main__
DelphiIdentAccess
p1746
(dp1747
g16
S'c1'
p1748
sg78
(lp1749
sbsg385
(i__main__
DelphiIdentAccess
p1750
(dp1751
g16
S'c1'
p1752
sg78
(lp1753
sbsba(i__main__
DelphiAssignStatement
p1754
(dp1755
g382
(idelphi
DelphiAddOp
p1756
(dp1757
g70
S'-'
sg71
(idelphi
DelphiNestedExpressionListAccess
p1758
(dp1759
g78
(lp1760
sg406
(lp1761
(idelphi
DelphiMulOp
p1762
(dp1763
g410
(i__main__
DelphiIdentAccess
p1764
(dp1765
g16
S'sinAngle'
p1766
sg78
(lp1767
sbsg415
S'*'
sg416
(i__main__
DelphiIdentAccess
p1768
(dp1769
g16
S'c0'
p1770
sg78
(lp1771
sbsbasbsg74
(idelphi
DelphiNestedExpressionListAccess
p1772
(dp1773
g78
(lp1774
sg406
(lp1775
(idelphi
DelphiMulOp
p1776
(dp1777
g410
(i__main__
DelphiIdentAccess
p1778
(dp1779
g16
S'cosAngle'
p1780
sg78
(lp1781
sbsg415
S'*'
sg416
(i__main__
DelphiIdentAccess
p1782
(dp1783
g16
S'c2'
p1784
sg78
(lp1785
sbsbasbsbsg385
(i__main__
DelphiIdentAccess
p1786
(dp1787
g16
S'c2'
p1788
sg78
(lp1789
sbsg119
(lp1790
S'flipped to put minus in middle'
p1791
asba(i__main__
DelphiAssignStatement
p1792
(dp1793
g382
(i__main__
DelphiIdentAccess
p1794
(dp1795
g16
S'temp0'
p1796
sg78
(lp1797
sbsg385
(i__main__
DelphiIdentAccess
p1798
(dp1799
g16
S'c0'
p1800
sg78
(lp1801
sbsbasbsg638
(lp1802
(i__main__
DelphiVarSection
p1803
(dp1804
g48
I0
sg51
(lp1805
(idelphi
DelphiVarDecl
p1806
(dp1807
g11
Nsg55
(lp1808
S'cosAngle'
p1809
aS'sinAngle'
p1810
aS'temp0'
p1811
asg18
(i__main__
DelphiPrimitiveType
p1812
(dp1813
g21
g62
sbsba(idelphi
DelphiVarDecl
p1814
(dp1815
g11
Nsg55
(lp1816
S'boundedAngleIndex'
p1817
asg18
(i__main__
DelphiPrimitiveType
p1818
(dp1819
g21
g159
sbsbasbasbsbsS'copyto'
p1820
(i__main__
DelphiMethodImplementation
p1821
(dp1822
g352
g261
sg83
g263
sg196
(lp1823
(i__main__
DelphiFormalParameter
p1824
(dp1825
g200
Nsg201
(lp1826
S'otherMatrix'
p1827
asg18
(i__main__
DelphiNamedType
p1828
(dp1829
g21
S'KfMatrix'
p1830
sg224
g1
sg225
Nsbsg206
Nsbasg354
(lp1831
sg356
(lp1832
sg358
(lp1833
g360
ag1827
asg361
(dp1834
g1827
g1828
ssg207
S'KfMatrix'
p1835
sg208
Nsg366
(lp1836
sg209
I0
sg210
g211
sg368
(i__main__
DelphiBlock
p1837
(dp1838
g371
(idelphi
DelphiCompoundStatement
p1839
(dp1840
g374
(lp1841
(i__main__
DelphiAssignStatement
p1842
(dp1843
g382
(i__main__
DelphiIdentAccess
p1844
(dp1845
g16
S'position'
p1846
sg78
(lp1847
sbsg385
(i__main__
DelphiIdentAccess
p1848
(dp1849
g16
S'otherMatrix'
p1850
sg78
(lp1851
(idelphi
DelphiFieldEndAccess
p1852
(dp1853
g690
S'position'
p1854
sbasbsba(i__main__
DelphiAssignStatement
p1855
(dp1856
g382
(i__main__
DelphiIdentAccess
p1857
(dp1858
g16
S'a0'
p1859
sg78
(lp1860
sbsg385
(i__main__
DelphiIdentAccess
p1861
(dp1862
g16
S'otherMatrix'
p1863
sg78
(lp1864
(idelphi
DelphiFieldEndAccess
p1865
(dp1866
g690
S'a0'
p1867
sbasbsba(i__main__
DelphiAssignStatement
p1868
(dp1869
g382
(i__main__
DelphiIdentAccess
p1870
(dp1871
g16
S'a1'
p1872
sg78
(lp1873
sbsg385
(i__main__
DelphiIdentAccess
p1874
(dp1875
g16
S'otherMatrix'
p1876
sg78
(lp1877
(idelphi
DelphiFieldEndAccess
p1878
(dp1879
g690
S'a1'
p1880
sbasbsba(i__main__
DelphiAssignStatement
p1881
(dp1882
g382
(i__main__
DelphiIdentAccess
p1883
(dp1884
g16
S'a2'
p1885
sg78
(lp1886
sbsg385
(i__main__
DelphiIdentAccess
p1887
(dp1888
g16
S'otherMatrix'
p1889
sg78
(lp1890
(idelphi
DelphiFieldEndAccess
p1891
(dp1892
g690
S'a2'
p1893
sbasbsba(i__main__
DelphiAssignStatement
p1894
(dp1895
g382
(i__main__
DelphiIdentAccess
p1896
(dp1897
g16
S'b0'
p1898
sg78
(lp1899
sbsg385
(i__main__
DelphiIdentAccess
p1900
(dp1901
g16
S'otherMatrix'
p1902
sg78
(lp1903
(idelphi
DelphiFieldEndAccess
p1904
(dp1905
g690
S'b0'
p1906
sbasbsba(i__main__
DelphiAssignStatement
p1907
(dp1908
g382
(i__main__
DelphiIdentAccess
p1909
(dp1910
g16
S'b1'
p1911
sg78
(lp1912
sbsg385
(i__main__
DelphiIdentAccess
p1913
(dp1914
g16
S'otherMatrix'
p1915
sg78
(lp1916
(idelphi
DelphiFieldEndAccess
p1917
(dp1918
g690
S'b1'
p1919
sbasbsba(i__main__
DelphiAssignStatement
p1920
(dp1921
g382
(i__main__
DelphiIdentAccess
p1922
(dp1923
g16
S'b2'
p1924
sg78
(lp1925
sbsg385
(i__main__
DelphiIdentAccess
p1926
(dp1927
g16
S'otherMatrix'
p1928
sg78
(lp1929
(idelphi
DelphiFieldEndAccess
p1930
(dp1931
g690
S'b2'
p1932
sbasbsba(i__main__
DelphiAssignStatement
p1933
(dp1934
g382
(i__main__
DelphiIdentAccess
p1935
(dp1936
g16
S'c0'
p1937
sg78
(lp1938
sbsg385
(i__main__
DelphiIdentAccess
p1939
(dp1940
g16
S'otherMatrix'
p1941
sg78
(lp1942
(idelphi
DelphiFieldEndAccess
p1943
(dp1944
g690
S'c0'
p1945
sbasbsba(i__main__
DelphiAssignStatement
p1946
(dp1947
g382
(i__main__
DelphiIdentAccess
p1948
(dp1949
g16
S'c1'
p1950
sg78
(lp1951
sbsg385
(i__main__
DelphiIdentAccess
p1952
(dp1953
g16
S'otherMatrix'
p1954
sg78
(lp1955
(idelphi
DelphiFieldEndAccess
p1956
(dp1957
g690
S'c1'
p1958
sbasbsba(i__main__
DelphiAssignStatement
p1959
(dp1960
g382
(i__main__
DelphiIdentAccess
p1961
(dp1962
g16
S'c2'
p1963
sg78
(lp1964
sbsg385
(i__main__
DelphiIdentAccess
p1965
(dp1966
g16
S'otherMatrix'
p1967
sg78
(lp1968
(idelphi
DelphiFieldEndAccess
p1969
(dp1970
g690
S'c2'
p1971
sbasbsbasbsg638
(lp1972
sbsbsS'deepcopy'
p1973
(i__main__
DelphiMethodImplementation
p1974
(dp1975
g352
g273
sg83
g275
sg196
(lp1976
sg354
(lp1977
sg356
(lp1978
sg358
(lp1979
g360
asg361
(dp1980
sg207
S'KfMatrix'
p1981
sg208
(i__main__
DelphiNamedType
p1982
(dp1983
g21
S'KfMatrix'
p1984
sg224
g1
sg225
Nsbsg366
(lp1985
sg209
I0
sg210
g280
sg368
(i__main__
DelphiBlock
p1986
(dp1987
g371
(idelphi
DelphiCompoundStatement
p1988
(dp1989
g374
(lp1990
(i__main__
DelphiAssignStatement
p1991
(dp1992
g382
(idelphi
DelphiNilValue
p1993
(dp1994
bsg385
(i__main__
DelphiIdentAccess
p1995
(dp1996
g16
S'result'
p1997
sg78
(lp1998
sbsba(i__main__
DelphiAssignStatement
p1999
(dp2000
g382
(i__main__
DelphiIdentAccess
p2001
(dp2002
g16
S'KfMatrix'
p2003
sg78
(lp2004
(idelphi
DelphiFieldEndAccess
p2005
(dp2006
g690
S'create'
p2007
sbasbsg385
(i__main__
DelphiIdentAccess
p2008
(dp2009
g16
S'result'
p2010
sg78
(lp2011
sbsba(i__main__
DelphiAssignStatement
p2012
(dp2013
g382
(i__main__
DelphiIdentAccess
p2014
(dp2015
g16
S'position'
p2016
sg78
(lp2017
sbsg385
(i__main__
DelphiIdentAccess
p2018
(dp2019
g16
S'result'
p2020
sg78
(lp2021
(idelphi
DelphiFieldEndAccess
p2022
(dp2023
g690
S'position'
p2024
sbasbsba(i__main__
DelphiAssignStatement
p2025
(dp2026
g382
(i__main__
DelphiIdentAccess
p2027
(dp2028
g16
S'a0'
p2029
sg78
(lp2030
sbsg385
(i__main__
DelphiIdentAccess
p2031
(dp2032
g16
S'result'
p2033
sg78
(lp2034
(idelphi
DelphiFieldEndAccess
p2035
(dp2036
g690
S'a0'
p2037
sbasbsba(i__main__
DelphiAssignStatement
p2038
(dp2039
g382
(i__main__
DelphiIdentAccess
p2040
(dp2041
g16
S'a1'
p2042
sg78
(lp2043
sbsg385
(i__main__
DelphiIdentAccess
p2044
(dp2045
g16
S'result'
p2046
sg78
(lp2047
(idelphi
DelphiFieldEndAccess
p2048
(dp2049
g690
S'a1'
p2050
sbasbsba(i__main__
DelphiAssignStatement
p2051
(dp2052
g382
(i__main__
DelphiIdentAccess
p2053
(dp2054
g16
S'a2'
p2055
sg78
(lp2056
sbsg385
(i__main__
DelphiIdentAccess
p2057
(dp2058
g16
S'result'
p2059
sg78
(lp2060
(idelphi
DelphiFieldEndAccess
p2061
(dp2062
g690
S'a2'
p2063
sbasbsba(i__main__
DelphiAssignStatement
p2064
(dp2065
g382
(i__main__
DelphiIdentAccess
p2066
(dp2067
g16
S'b0'
p2068
sg78
(lp2069
sbsg385
(i__main__
DelphiIdentAccess
p2070
(dp2071
g16
S'result'
p2072
sg78
(lp2073
(idelphi
DelphiFieldEndAccess
p2074
(dp2075
g690
S'b0'
p2076
sbasbsba(i__main__
DelphiAssignStatement
p2077
(dp2078
g382
(i__main__
DelphiIdentAccess
p2079
(dp2080
g16
S'b1'
p2081
sg78
(lp2082
sbsg385
(i__main__
DelphiIdentAccess
p2083
(dp2084
g16
S'result'
p2085
sg78
(lp2086
(idelphi
DelphiFieldEndAccess
p2087
(dp2088
g690
S'b1'
p2089
sbasbsba(i__main__
DelphiAssignStatement
p2090
(dp2091
g382
(i__main__
DelphiIdentAccess
p2092
(dp2093
g16
S'b2'
p2094
sg78
(lp2095
sbsg385
(i__main__
DelphiIdentAccess
p2096
(dp2097
g16
S'result'
p2098
sg78
(lp2099
(idelphi
DelphiFieldEndAccess
p2100
(dp2101
g690
S'b2'
p2102
sbasbsba(i__main__
DelphiAssignStatement
p2103
(dp2104
g382
(i__main__
DelphiIdentAccess
p2105
(dp2106
g16
S'c0'
p2107
sg78
(lp2108
sbsg385
(i__main__
DelphiIdentAccess
p2109
(dp2110
g16
S'result'
p2111
sg78
(lp2112
(idelphi
DelphiFieldEndAccess
p2113
(dp2114
g690
S'c0'
p2115
sbasbsba(i__main__
DelphiAssignStatement
p2116
(dp2117
g382
(i__main__
DelphiIdentAccess
p2118
(dp2119
g16
S'c1'
p2120
sg78
(lp2121
sbsg385
(i__main__
DelphiIdentAccess
p2122
(dp2123
g16
S'result'
p2124
sg78
(lp2125
(idelphi
DelphiFieldEndAccess
p2126
(dp2127
g690
S'c1'
p2128
sbasbsba(i__main__
DelphiAssignStatement
p2129
(dp2130
g382
(i__main__
DelphiIdentAccess
p2131
(dp2132
g16
S'c2'
p2133
sg78
(lp2134
sbsg385
(i__main__
DelphiIdentAccess
p2135
(dp2136
g16
S'result'
p2137
sg78
(lp2138
(idelphi
DelphiFieldEndAccess
p2139
(dp2140
g690
S'c2'
p2141
sbasbsbasbsg638
(lp2142
sbsbsS'initializeasunitmatrix'
p2143
(i__main__
DelphiMethodImplementation
p2144
(dp2145
g352
g282
sg83
g284
sg196
(lp2146
sg354
(lp2147
sg356
(lp2148
sg358
(lp2149
g360
asg361
(dp2150
sg207
S'KfMatrix'
p2151
sg208
Nsg366
(lp2152
sg209
I0
sg210
g211
sg368
(i__main__
DelphiBlock
p2153
(dp2154
g371
(idelphi
DelphiCompoundStatement
p2155
(dp2156
g374
(lp2157
(i__main__
DelphiAssignStatement
p2158
(dp2159
g382
(idelphi
DelphiRealValue
p2160
(dp2161
g14
S'1.0'
p2162
sbsg385
(i__main__
DelphiIdentAccess
p2163
(dp2164
g16
S'a0'
p2165
sg78
(lp2166
sbsba(i__main__
DelphiAssignStatement
p2167
(dp2168
g382
(idelphi
DelphiIntegerValue
p2169
(dp2170
g14
S'0'
sbsg385
(i__main__
DelphiIdentAccess
p2171
(dp2172
g16
S'a1'
p2173
sg78
(lp2174
sbsba(i__main__
DelphiAssignStatement
p2175
(dp2176
g382
(idelphi
DelphiIntegerValue
p2177
(dp2178
g14
S'0'
sbsg385
(i__main__
DelphiIdentAccess
p2179
(dp2180
g16
S'a2'
p2181
sg78
(lp2182
sbsba(i__main__
DelphiAssignStatement
p2183
(dp2184
g382
(idelphi
DelphiIntegerValue
p2185
(dp2186
g14
S'0'
sbsg385
(i__main__
DelphiIdentAccess
p2187
(dp2188
g16
S'b0'
p2189
sg78
(lp2190
sbsba(i__main__
DelphiAssignStatement
p2191
(dp2192
g382
(idelphi
DelphiRealValue
p2193
(dp2194
g14
S'1.0'
p2195
sbsg385
(i__main__
DelphiIdentAccess
p2196
(dp2197
g16
S'b1'
p2198
sg78
(lp2199
sbsba(i__main__
DelphiAssignStatement
p2200
(dp2201
g382
(idelphi
DelphiIntegerValue
p2202
(dp2203
g14
S'0'
sbsg385
(i__main__
DelphiIdentAccess
p2204
(dp2205
g16
S'b2'
p2206
sg78
(lp2207
sbsba(i__main__
DelphiAssignStatement
p2208
(dp2209
g382
(idelphi
DelphiIntegerValue
p2210
(dp2211
g14
S'0'
sbsg385
(i__main__
DelphiIdentAccess
p2212
(dp2213
g16
S'c0'
p2214
sg78
(lp2215
sbsba(i__main__
DelphiAssignStatement
p2216
(dp2217
g382
(idelphi
DelphiIntegerValue
p2218
(dp2219
g14
S'0'
sbsg385
(i__main__
DelphiIdentAccess
p2220
(dp2221
g16
S'c1'
p2222
sg78
(lp2223
sbsba(i__main__
DelphiAssignStatement
p2224
(dp2225
g382
(idelphi
DelphiRealValue
p2226
(dp2227
g14
S'1.0'
p2228
sbsg385
(i__main__
DelphiIdentAccess
p2229
(dp2230
g16
S'c2'
p2231
sg78
(lp2232
sbsba(i__main__
DelphiAssignStatement
p2233
(dp2234
g382
(idelphi
DelphiIntegerValue
p2235
(dp2236
g14
S'0'
sbsg385
(i__main__
DelphiIdentAccess
p2237
(dp2238
g16
S'position'
p2239
sg78
(lp2240
(idelphi
DelphiFieldEndAccess
p2241
(dp2242
g690
S'x'
sbasbsba(i__main__
DelphiAssignStatement
p2243
(dp2244
g382
(idelphi
DelphiIntegerValue
p2245
(dp2246
g14
S'0'
sbsg385
(i__main__
DelphiIdentAccess
p2247
(dp2248
g16
S'position'
p2249
sg78
(lp2250
(idelphi
DelphiFieldEndAccess
p2251
(dp2252
g690
S'y'
sbasbsba(i__main__
DelphiAssignStatement
p2253
(dp2254
g382
(idelphi
DelphiIntegerValue
p2255
(dp2256
g14
S'0'
sbsg385
(i__main__
DelphiIdentAccess
p2257
(dp2258
g16
S'position'
p2259
sg78
(lp2260
(idelphi
DelphiFieldEndAccess
p2261
(dp2262
g690
S'z'
sbasbsbasbsg638
(lp2263
sbsg119
(lp2264
S' ---------------------------------------------------------------------------------- *KfMatrix imitializing and copying '
p2265
asbsS'rotatez'
p2266
(i__main__
DelphiMethodImplementation
p2267
(dp2268
g352
g250
sg83
g252
sg196
(lp2269
(i__main__
DelphiFormalParameter
p2270
(dp2271
g200
Nsg201
(lp2272
S'angle'
p2273
asg18
(i__main__
DelphiPrimitiveType
p2274
(dp2275
g21
g62
sbsg206
Nsbasg354
(lp2276
sg356
(lp2277
sg358
(lp2278
g360
ag2273
asg361
(dp2279
g2273
g2274
ssg207
S'KfMatrix'
p2280
sg208
Nsg366
(lp2281
sg209
I0
sg210
g211
sg368
(i__main__
DelphiBlock
p2282
(dp2283
g371
(idelphi
DelphiCompoundStatement
p2284
(dp2285
g374
(lp2286
(i__main__
DelphiAssignStatement
p2287
(dp2288
g382
(idelphi
DelphiMulOp
p2289
(dp2290
g410
(i__main__
DelphiIdentAccess
p2291
(dp2292
g16
S'kFastTrigArraySize'
p2293
sg78
(lp2294
sbsg415
g1028
sg416
(i__main__
DelphiIdentAccess
p2295
(dp2296
g16
S'round'
p2297
sg78
(lp2298
(idelphi
DelphiFunctionEndAccess
p2299
(dp2300
g406
(lp2301
(i__main__
DelphiIdentAccess
p2302
(dp2303
g16
S'angle'
p2304
sg78
(lp2305
sbasbasbsbsg385
(i__main__
DelphiIdentAccess
p2306
(dp2307
g16
S'boundedAngleIndex'
p2308
sg78
(lp2309
sbsg119
(lp2310
S'\r'
aS'  {bound angle and convert to index}\r'
p2311
aS'\t{not doing try except around round for speed here - could fail ...}\r'
p2312
aS'  {boundedAngleIndex := round(angle) mod kFastTrigArraySize;\r'
p2313
aS'  if (boundedAngleIndex  < 0) then\r'
p2314
aS'  \tboundedAngleIndex := kFastTrigArraySize + boundedAngleIndex;\r'
p2315
aS'\tcosAngle := CosCache[boundedAngleIndex];\r'
p2316
aS'  sinAngle := SinCache[boundedAngleIndex];}\r'
p2317
aS'                          { cfk try at replacing rounding with using all floating point }\r'
p2318
aS'  cosAngle := cos(angle * 2.0 * 3.14159 / 256.0);\r'
p2319
aS'  sinAngle := sin(angle * 2.0 * 3.14159 / 256.0);\r'
p2320
aS'\r'
aS'  {minuses moved to middle to optimize}\r'
p2321
aS'  temp0  :=(a0 * cosAngle) - (a1 * sinAngle);\r'
p2322
aS'  a1 := (a0 * sinAngle) + (a1 * cosAngle);\r'
p2323
aS'  a2 := a2;\r'
p2324
aS'  a0 := temp0;\r'
p2325
aS'  temp0 := (b0 * cosAngle) - (b1 * sinAngle);\r'
p2326
aS'  b1 := (b0 * sinAngle) + (b1 * cosAngle);\r'
p2327
aS'  b2 := b2;\r'
p2328
aS'  b0 := temp0;\r'
p2329
aS'  temp0 := (c0 * cosAngle) - (c1 * sinAngle);\r'
p2330
aS'  c1 :=  (c0 * sinAngle) + (c1 * cosAngle);\r'
p2331
aS'  c2 := c2;\r'
p2332
aS'  c0 := temp0;    '
p2333
aS'bound angle and convert to index'
p2334
aS'not doing try except around round for speed here - could fail ...'
p2335
asba(idelphi
DelphiIfStatement
p2336
(dp2337
g441
(idelphi
DelphiNestedExpressionListAccess
p2338
(dp2339
g78
(lp2340
sg406
(lp2341
(idelphi
DelphiRelOp
p2342
(dp2343
g448
(i__main__
DelphiIdentAccess
p2344
(dp2345
g16
S'boundedAngleIndex'
p2346
sg78
(lp2347
sbsg453
(idelphi
DelphiIntegerValue
p2348
(dp2349
g14
S'0'
sbsg457
S'<'
sbasbsg458
Nsg459
(i__main__
DelphiAssignStatement
p2350
(dp2351
g382
(idelphi
DelphiAddOp
p2352
(dp2353
g70
S'+'
sg71
(i__main__
DelphiIdentAccess
p2354
(dp2355
g16
S'boundedAngleIndex'
p2356
sg78
(lp2357
sbsg74
(i__main__
DelphiIdentAccess
p2358
(dp2359
g16
S'kFastTrigArraySize'
p2360
sg78
(lp2361
sbsbsg385
(i__main__
DelphiIdentAccess
p2362
(dp2363
g16
S'boundedAngleIndex'
p2364
sg78
(lp2365
sbsbsba(i__main__
DelphiAssignStatement
p2366
(dp2367
g382
(i__main__
DelphiIdentAccess
p2368
(dp2369
g16
S'CosCache'
p2370
sg78
(lp2371
(idelphi
DelphiArrayEndAccess
p2372
(dp2373
g406
(lp2374
(i__main__
DelphiIdentAccess
p2375
(dp2376
g16
S'boundedAngleIndex'
p2377
sg78
(lp2378
sbasbasbsg385
(i__main__
DelphiIdentAccess
p2379
(dp2380
g16
S'cosAngle'
p2381
sg78
(lp2382
sbsba(i__main__
DelphiAssignStatement
p2383
(dp2384
g382
(i__main__
DelphiIdentAccess
p2385
(dp2386
g16
S'SinCache'
p2387
sg78
(lp2388
(idelphi
DelphiArrayEndAccess
p2389
(dp2390
g406
(lp2391
(i__main__
DelphiIdentAccess
p2392
(dp2393
g16
S'boundedAngleIndex'
p2394
sg78
(lp2395
sbasbasbsg385
(i__main__
DelphiIdentAccess
p2396
(dp2397
g16
S'sinAngle'
p2398
sg78
(lp2399
sbsba(i__main__
DelphiAssignStatement
p2400
(dp2401
g382
(idelphi
DelphiAddOp
p2402
(dp2403
g70
S'-'
sg71
(idelphi
DelphiNestedExpressionListAccess
p2404
(dp2405
g78
(lp2406
sg406
(lp2407
(idelphi
DelphiMulOp
p2408
(dp2409
g410
(i__main__
DelphiIdentAccess
p2410
(dp2411
g16
S'sinAngle'
p2412
sg78
(lp2413
sbsg415
S'*'
sg416
(i__main__
DelphiIdentAccess
p2414
(dp2415
g16
S'a1'
p2416
sg78
(lp2417
sbsbasbsg74
(idelphi
DelphiNestedExpressionListAccess
p2418
(dp2419
g78
(lp2420
sg406
(lp2421
(idelphi
DelphiMulOp
p2422
(dp2423
g410
(i__main__
DelphiIdentAccess
p2424
(dp2425
g16
S'cosAngle'
p2426
sg78
(lp2427
sbsg415
S'*'
sg416
(i__main__
DelphiIdentAccess
p2428
(dp2429
g16
S'a0'
p2430
sg78
(lp2431
sbsbasbsbsg385
(i__main__
DelphiIdentAccess
p2432
(dp2433
g16
S'temp0'
p2434
sg78
(lp2435
sbsg119
(lp2436
S'minuses moved to middle to optimize'
p2437
asba(i__main__
DelphiAssignStatement
p2438
(dp2439
g382
(idelphi
DelphiAddOp
p2440
(dp2441
g70
S'+'
sg71
(idelphi
DelphiNestedExpressionListAccess
p2442
(dp2443
g78
(lp2444
sg406
(lp2445
(idelphi
DelphiMulOp
p2446
(dp2447
g410
(i__main__
DelphiIdentAccess
p2448
(dp2449
g16
S'cosAngle'
p2450
sg78
(lp2451
sbsg415
S'*'
sg416
(i__main__
DelphiIdentAccess
p2452
(dp2453
g16
S'a1'
p2454
sg78
(lp2455
sbsbasbsg74
(idelphi
DelphiNestedExpressionListAccess
p2456
(dp2457
g78
(lp2458
sg406
(lp2459
(idelphi
DelphiMulOp
p2460
(dp2461
g410
(i__main__
DelphiIdentAccess
p2462
(dp2463
g16
S'sinAngle'
p2464
sg78
(lp2465
sbsg415
S'*'
sg416
(i__main__
DelphiIdentAccess
p2466
(dp2467
g16
S'a0'
p2468
sg78
(lp2469
sbsbasbsbsg385
(i__main__
DelphiIdentAccess
p2470
(dp2471
g16
S'a1'
p2472
sg78
(lp2473
sbsba(i__main__
DelphiAssignStatement
p2474
(dp2475
g382
(i__main__
DelphiIdentAccess
p2476
(dp2477
g16
S'a2'
p2478
sg78
(lp2479
sbsg385
(i__main__
DelphiIdentAccess
p2480
(dp2481
g16
S'a2'
p2482
sg78
(lp2483
sbsba(i__main__
DelphiAssignStatement
p2484
(dp2485
g382
(i__main__
DelphiIdentAccess
p2486
(dp2487
g16
S'temp0'
p2488
sg78
(lp2489
sbsg385
(i__main__
DelphiIdentAccess
p2490
(dp2491
g16
S'a0'
p2492
sg78
(lp2493
sbsba(i__main__
DelphiAssignStatement
p2494
(dp2495
g382
(idelphi
DelphiAddOp
p2496
(dp2497
g70
S'-'
sg71
(idelphi
DelphiNestedExpressionListAccess
p2498
(dp2499
g78
(lp2500
sg406
(lp2501
(idelphi
DelphiMulOp
p2502
(dp2503
g410
(i__main__
DelphiIdentAccess
p2504
(dp2505
g16
S'sinAngle'
p2506
sg78
(lp2507
sbsg415
S'*'
sg416
(i__main__
DelphiIdentAccess
p2508
(dp2509
g16
S'b1'
p2510
sg78
(lp2511
sbsbasbsg74
(idelphi
DelphiNestedExpressionListAccess
p2512
(dp2513
g78
(lp2514
sg406
(lp2515
(idelphi
DelphiMulOp
p2516
(dp2517
g410
(i__main__
DelphiIdentAccess
p2518
(dp2519
g16
S'cosAngle'
p2520
sg78
(lp2521
sbsg415
S'*'
sg416
(i__main__
DelphiIdentAccess
p2522
(dp2523
g16
S'b0'
p2524
sg78
(lp2525
sbsbasbsbsg385
(i__main__
DelphiIdentAccess
p2526
(dp2527
g16
S'temp0'
p2528
sg78
(lp2529
sbsba(i__main__
DelphiAssignStatement
p2530
(dp2531
g382
(idelphi
DelphiAddOp
p2532
(dp2533
g70
S'+'
sg71
(idelphi
DelphiNestedExpressionListAccess
p2534
(dp2535
g78
(lp2536
sg406
(lp2537
(idelphi
DelphiMulOp
p2538
(dp2539
g410
(i__main__
DelphiIdentAccess
p2540
(dp2541
g16
S'cosAngle'
p2542
sg78
(lp2543
sbsg415
S'*'
sg416
(i__main__
DelphiIdentAccess
p2544
(dp2545
g16
S'b1'
p2546
sg78
(lp2547
sbsbasbsg74
(idelphi
DelphiNestedExpressionListAccess
p2548
(dp2549
g78
(lp2550
sg406
(lp2551
(idelphi
DelphiMulOp
p2552
(dp2553
g410
(i__main__
DelphiIdentAccess
p2554
(dp2555
g16
S'sinAngle'
p2556
sg78
(lp2557
sbsg415
S'*'
sg416
(i__main__
DelphiIdentAccess
p2558
(dp2559
g16
S'b0'
p2560
sg78
(lp2561
sbsbasbsbsg385
(i__main__
DelphiIdentAccess
p2562
(dp2563
g16
S'b1'
p2564
sg78
(lp2565
sbsba(i__main__
DelphiAssignStatement
p2566
(dp2567
g382
(i__main__
DelphiIdentAccess
p2568
(dp2569
g16
S'b2'
p2570
sg78
(lp2571
sbsg385
(i__main__
DelphiIdentAccess
p2572
(dp2573
g16
S'b2'
p2574
sg78
(lp2575
sbsba(i__main__
DelphiAssignStatement
p2576
(dp2577
g382
(i__main__
DelphiIdentAccess
p2578
(dp2579
g16
S'temp0'
p2580
sg78
(lp2581
sbsg385
(i__main__
DelphiIdentAccess
p2582
(dp2583
g16
S'b0'
p2584
sg78
(lp2585
sbsba(i__main__
DelphiAssignStatement
p2586
(dp2587
g382
(idelphi
DelphiAddOp
p2588
(dp2589
g70
S'-'
sg71
(idelphi
DelphiNestedExpressionListAccess
p2590
(dp2591
g78
(lp2592
sg406
(lp2593
(idelphi
DelphiMulOp
p2594
(dp2595
g410
(i__main__
DelphiIdentAccess
p2596
(dp2597
g16
S'sinAngle'
p2598
sg78
(lp2599
sbsg415
S'*'
sg416
(i__main__
DelphiIdentAccess
p2600
(dp2601
g16
S'c1'
p2602
sg78
(lp2603
sbsbasbsg74
(idelphi
DelphiNestedExpressionListAccess
p2604
(dp2605
g78
(lp2606
sg406
(lp2607
(idelphi
DelphiMulOp
p2608
(dp2609
g410
(i__main__
DelphiIdentAccess
p2610
(dp2611
g16
S'cosAngle'
p2612
sg78
(lp2613
sbsg415
S'*'
sg416
(i__main__
DelphiIdentAccess
p2614
(dp2615
g16
S'c0'
p2616
sg78
(lp2617
sbsbasbsbsg385
(i__main__
DelphiIdentAccess
p2618
(dp2619
g16
S'temp0'
p2620
sg78
(lp2621
sbsba(i__main__
DelphiAssignStatement
p2622
(dp2623
g382
(idelphi
DelphiAddOp
p2624
(dp2625
g70
S'+'
sg71
(idelphi
DelphiNestedExpressionListAccess
p2626
(dp2627
g78
(lp2628
sg406
(lp2629
(idelphi
DelphiMulOp
p2630
(dp2631
g410
(i__main__
DelphiIdentAccess
p2632
(dp2633
g16
S'cosAngle'
p2634
sg78
(lp2635
sbsg415
S'*'
sg416
(i__main__
DelphiIdentAccess
p2636
(dp2637
g16
S'c1'
p2638
sg78
(lp2639
sbsbasbsg74
(idelphi
DelphiNestedExpressionListAccess
p2640
(dp2641
g78
(lp2642
sg406
(lp2643
(idelphi
DelphiMulOp
p2644
(dp2645
g410
(i__main__
DelphiIdentAccess
p2646
(dp2647
g16
S'sinAngle'
p2648
sg78
(lp2649
sbsg415
S'*'
sg416
(i__main__
DelphiIdentAccess
p2650
(dp2651
g16
S'c0'
p2652
sg78
(lp2653
sbsbasbsbsg385
(i__main__
DelphiIdentAccess
p2654
(dp2655
g16
S'c1'
p2656
sg78
(lp2657
sbsba(i__main__
DelphiAssignStatement
p2658
(dp2659
g382
(i__main__
DelphiIdentAccess
p2660
(dp2661
g16
S'c2'
p2662
sg78
(lp2663
sbsg385
(i__main__
DelphiIdentAccess
p2664
(dp2665
g16
S'c2'
p2666
sg78
(lp2667
sbsba(i__main__
DelphiAssignStatement
p2668
(dp2669
g382
(i__main__
DelphiIdentAccess
p2670
(dp2671
g16
S'temp0'
p2672
sg78
(lp2673
sbsg385
(i__main__
DelphiIdentAccess
p2674
(dp2675
g16
S'c0'
p2676
sg78
(lp2677
sbsbasbsg638
(lp2678
(i__main__
DelphiVarSection
p2679
(dp2680
g48
I0
sg51
(lp2681
(idelphi
DelphiVarDecl
p2682
(dp2683
g11
Nsg55
(lp2684
S'cosAngle'
p2685
aS'sinAngle'
p2686
aS'temp0'
p2687
asg18
(i__main__
DelphiPrimitiveType
p2688
(dp2689
g21
g62
sbsba(idelphi
DelphiVarDecl
p2690
(dp2691
g11
Nsg55
(lp2692
S'boundedAngleIndex'
p2693
asg18
(i__main__
DelphiPrimitiveType
p2694
(dp2695
g21
g159
sbsbasbasbsbsS'anglex'
p2696
(i__main__
DelphiMethodImplementation
p2697
(dp2698
g352
g295
sg83
g297
sg196
(lp2699
sg354
(lp2700
sg356
(lp2701
sg358
(lp2702
g360
asg361
(dp2703
sg207
S'KfMatrix'
p2704
sg208
(i__main__
DelphiPrimitiveType
p2705
(dp2706
g21
g293
sbsg366
(lp2707
sg209
I0
sg210
g280
sg368
(i__main__
DelphiBlock
p2708
(dp2709
g371
(idelphi
DelphiCompoundStatement
p2710
(dp2711
g374
(lp2712
(idelphi
DelphiTryExceptStatement
p2713
(dp2714
g378
(lp2715
(i__main__
DelphiAssignStatement
p2716
(dp2717
g382
(idelphi
DelphiIntegerValue
p2718
(dp2719
g14
S'0'
sbsg385
(i__main__
DelphiIdentAccess
p2720
(dp2721
g16
S'result'
p2722
sg78
(lp2723
sbsba(i__main__
DelphiAssignStatement
p2724
(dp2725
g382
(idelphi
DelphiRealValue
p2726
(dp2727
g14
S'0.0'
p2728
sbsg385
(i__main__
DelphiIdentAccess
p2729
(dp2730
g16
S'temp'
p2731
sg78
(lp2732
sbsba(i__main__
DelphiAssignStatement
p2733
(dp2734
g382
(idelphi
DelphiAddOp
p2735
(dp2736
g70
S'+'
sg71
(idelphi
DelphiNestedExpressionListAccess
p2737
(dp2738
g78
(lp2739
sg406
(lp2740
(idelphi
DelphiMulOp
p2741
(dp2742
g410
(i__main__
DelphiIdentAccess
p2743
(dp2744
g16
S'c2'
p2745
sg78
(lp2746
sbsg415
S'*'
sg416
(i__main__
DelphiIdentAccess
p2747
(dp2748
g16
S'c2'
p2749
sg78
(lp2750
sbsbasbsg74
(idelphi
DelphiNestedExpressionListAccess
p2751
(dp2752
g78
(lp2753
sg406
(lp2754
(idelphi
DelphiMulOp
p2755
(dp2756
g410
(i__main__
DelphiIdentAccess
p2757
(dp2758
g16
S'a2'
p2759
sg78
(lp2760
sbsg415
S'*'
sg416
(i__main__
DelphiIdentAccess
p2761
(dp2762
g16
S'a2'
p2763
sg78
(lp2764
sbsbasbsbsg385
(i__main__
DelphiIdentAccess
p2765
(dp2766
g16
S'temp'
p2767
sg78
(lp2768
sbsba(idelphi
DelphiIfStatement
p2769
(dp2770
g441
(idelphi
DelphiNestedExpressionListAccess
p2771
(dp2772
g78
(lp2773
sg406
(lp2774
(idelphi
DelphiRelOp
p2775
(dp2776
g448
(i__main__
DelphiIdentAccess
p2777
(dp2778
g16
S'temp'
p2779
sg78
(lp2780
sbsg453
(idelphi
DelphiRealValue
p2781
(dp2782
g14
S'0.0'
p2783
sbsg457
S'<'
sbasbsg458
Nsg459
(i__main__
DelphiAssignStatement
p2784
(dp2785
g382
(idelphi
DelphiRealValue
p2786
(dp2787
g14
S'0.0'
p2788
sbsg385
(i__main__
DelphiIdentAccess
p2789
(dp2790
g16
S'temp'
p2791
sg78
(lp2792
sbsbsba(i__main__
DelphiAssignStatement
p2793
(dp2794
g382
(i__main__
DelphiIdentAccess
p2795
(dp2796
g16
S'sqrt'
p2797
sg78
(lp2798
(idelphi
DelphiFunctionEndAccess
p2799
(dp2800
g406
(lp2801
(i__main__
DelphiIdentAccess
p2802
(dp2803
g16
S'temp'
p2804
sg78
(lp2805
sbasbasbsg385
(i__main__
DelphiIdentAccess
p2806
(dp2807
g16
S'temp'
p2808
sg78
(lp2809
sbsba(idelphi
DelphiIfStatement
p2810
(dp2811
g441
(idelphi
DelphiNestedExpressionListAccess
p2812
(dp2813
g78
(lp2814
sg406
(lp2815
(idelphi
DelphiRelOp
p2816
(dp2817
g448
(i__main__
DelphiIdentAccess
p2818
(dp2819
g16
S'temp'
p2820
sg78
(lp2821
sbsg453
(idelphi
DelphiRealValue
p2822
(dp2823
g14
S'0.0'
p2824
sbsg457
S'='
sbasbsg458
(idelphi
DelphiCompoundStatement
p2825
(dp2826
g374
(lp2827
(i__main__
DelphiAssignStatement
p2828
(dp2829
g382
(idelphi
DelphiMulOp
p2830
(dp2831
g410
(i__main__
DelphiIdentAccess
p2832
(dp2833
g16
S'temp'
p2834
sg78
(lp2835
sbsg415
S'/'
sg416
(i__main__
DelphiIdentAccess
p2836
(dp2837
g16
S'b2'
p2838
sg78
(lp2839
sbsbsg385
(i__main__
DelphiIdentAccess
p2840
(dp2841
g16
S'temp'
p2842
sg78
(lp2843
sbsba(i__main__
DelphiAssignStatement
p2844
(dp2845
g382
(i__main__
DelphiIdentAccess
p2846
(dp2847
g16
S'arcTan'
p2848
sg78
(lp2849
(idelphi
DelphiFunctionEndAccess
p2850
(dp2851
g406
(lp2852
(i__main__
DelphiIdentAccess
p2853
(dp2854
g16
S'temp'
p2855
sg78
(lp2856
sbasbasbsg385
(i__main__
DelphiIdentAccess
p2857
(dp2858
g16
S'temp'
p2859
sg78
(lp2860
sbsba(i__main__
DelphiAssignStatement
p2861
(dp2862
g382
(i__main__
DelphiValueTypecastAccess
p2863
(dp2864
g541
(i__main__
DelphiValueTypecast
p2865
(dp2866
g441
(i__main__
DelphiIdentAccess
p2867
(dp2868
g16
S'round'
p2869
sg78
(lp2870
(idelphi
DelphiFunctionEndAccess
p2871
(dp2872
g406
(lp2873
(idelphi
DelphiMulOp
p2874
(dp2875
g410
(idelphi
DelphiNestedExpressionListAccess
p2876
(dp2877
g78
(lp2878
sg406
(lp2879
(idelphi
DelphiMulOp
p2880
(dp2881
g410
(idelphi
DelphiRealValue
p2882
(dp2883
g14
S'3.1415926'
p2884
sbsg415
S'*'
sg416
(idelphi
DelphiIntegerValue
p2885
(dp2886
g14
S'2'
sbsbasbsg415
S'/'
sg416
(idelphi
DelphiMulOp
p2887
(dp2888
g410
(idelphi
DelphiIntegerValue
p2889
(dp2890
g14
S'256'
p2891
sbsg415
S'*'
sg416
(idelphi
DelphiSign
p2892
(dp2893
g571
(i__main__
DelphiIdentAccess
p2894
(dp2895
g16
S'temp'
p2896
sg78
(lp2897
sbsg37
S'-'
sbsbsbasbasbsg576
(i__main__
DelphiPrimitiveType
p2898
(dp2899
g21
g293
sbsbsg78
(lp2900
sbsg385
(i__main__
DelphiIdentAccess
p2901
(dp2902
g16
S'result'
p2903
sg78
(lp2904
sbsbasbsg459
(idelphi
DelphiCompoundStatement
p2905
(dp2906
g374
(lp2907
(idelphi
DelphiIfStatement
p2908
(dp2909
g441
(idelphi
DelphiNestedExpressionListAccess
p2910
(dp2911
g78
(lp2912
sg406
(lp2913
(idelphi
DelphiRelOp
p2914
(dp2915
g448
(i__main__
DelphiIdentAccess
p2916
(dp2917
g16
S'b2'
p2918
sg78
(lp2919
sbsg453
(idelphi
DelphiIntegerValue
p2920
(dp2921
g14
S'0'
sbsg457
S'<'
sbasbsg458
(i__main__
DelphiAssignStatement
p2922
(dp2923
g382
(idelphi
DelphiAddOp
p2924
(dp2925
g70
S'-'
sg71
(idelphi
DelphiIntegerValue
p2926
(dp2927
g14
S'64'
p2928
sbsg74
(idelphi
DelphiIntegerValue
p2929
(dp2930
g14
S'256'
p2931
sbsbsg385
(i__main__
DelphiIdentAccess
p2932
(dp2933
g16
S'result'
p2934
sg78
(lp2935
sbsbsg459
(i__main__
DelphiAssignStatement
p2936
(dp2937
g382
(idelphi
DelphiIntegerValue
p2938
(dp2939
g14
S'64'
p2940
sbsg385
(i__main__
DelphiIdentAccess
p2941
(dp2942
g16
S'result'
p2943
sg78
(lp2944
sbsbsbasbsbasg624
(idelphi
DelphiExceptionHandlers
p2945
(dp2946
g627
Nsg628
(lp2947
(i__main__
DelphiAssignStatement
p2948
(dp2949
g382
(idelphi
DelphiIntegerValue
p2950
(dp2951
g14
S'0'
sbsg385
(i__main__
DelphiIdentAccess
p2952
(dp2953
g16
S'result'
p2954
sg78
(lp2955
sbsbasbsbasbsg638
(lp2956
(i__main__
DelphiVarSection
p2957
(dp2958
g48
I0
sg51
(lp2959
(idelphi
DelphiVarDecl
p2960
(dp2961
g11
Nsg55
(lp2962
S'temp'
p2963
asg18
(i__main__
DelphiPrimitiveType
p2964
(dp2965
g21
g62
sbsbasbasbsg119
g301
sbsS'anglez'
p2966
(i__main__
DelphiMethodImplementation
p2967
(dp2968
g352
g307
sg83
g309
sg196
(lp2969
sg354
(lp2970
sg356
(lp2971
sg358
(lp2972
g360
asg361
(dp2973
sg207
S'KfMatrix'
p2974
sg208
(i__main__
DelphiPrimitiveType
p2975
(dp2976
g21
g293
sbsg366
(lp2977
sg209
I0
sg210
g280
sg368
(i__main__
DelphiBlock
p2978
(dp2979
g371
(idelphi
DelphiCompoundStatement
p2980
(dp2981
g374
(lp2982
(idelphi
DelphiTryExceptStatement
p2983
(dp2984
g378
(lp2985
(i__main__
DelphiAssignStatement
p2986
(dp2987
g382
(idelphi
DelphiIntegerValue
p2988
(dp2989
g14
S'0'
sbsg385
(i__main__
DelphiIdentAccess
p2990
(dp2991
g16
S'result'
p2992
sg78
(lp2993
sbsba(i__main__
DelphiAssignStatement
p2994
(dp2995
g382
(idelphi
DelphiRealValue
p2996
(dp2997
g14
S'0.0'
p2998
sbsg385
(i__main__
DelphiIdentAccess
p2999
(dp3000
g16
S'temp'
p3001
sg78
(lp3002
sbsba(i__main__
DelphiAssignStatement
p3003
(dp3004
g382
(idelphi
DelphiAddOp
p3005
(dp3006
g70
S'+'
sg71
(idelphi
DelphiNestedExpressionListAccess
p3007
(dp3008
g78
(lp3009
sg406
(lp3010
(idelphi
DelphiMulOp
p3011
(dp3012
g410
(i__main__
DelphiIdentAccess
p3013
(dp3014
g16
S'c1'
p3015
sg78
(lp3016
sbsg415
S'*'
sg416
(i__main__
DelphiIdentAccess
p3017
(dp3018
g16
S'c1'
p3019
sg78
(lp3020
sbsbasbsg74
(idelphi
DelphiNestedExpressionListAccess
p3021
(dp3022
g78
(lp3023
sg406
(lp3024
(idelphi
DelphiMulOp
p3025
(dp3026
g410
(i__main__
DelphiIdentAccess
p3027
(dp3028
g16
S'a1'
p3029
sg78
(lp3030
sbsg415
S'*'
sg416
(i__main__
DelphiIdentAccess
p3031
(dp3032
g16
S'a1'
p3033
sg78
(lp3034
sbsbasbsbsg385
(i__main__
DelphiIdentAccess
p3035
(dp3036
g16
S'temp'
p3037
sg78
(lp3038
sbsba(idelphi
DelphiIfStatement
p3039
(dp3040
g441
(idelphi
DelphiNestedExpressionListAccess
p3041
(dp3042
g78
(lp3043
sg406
(lp3044
(idelphi
DelphiRelOp
p3045
(dp3046
g448
(i__main__
DelphiIdentAccess
p3047
(dp3048
g16
S'temp'
p3049
sg78
(lp3050
sbsg453
(idelphi
DelphiRealValue
p3051
(dp3052
g14
S'0.0'
p3053
sbsg457
S'<'
sbasbsg458
Nsg459
(i__main__
DelphiAssignStatement
p3054
(dp3055
g382
(idelphi
DelphiRealValue
p3056
(dp3057
g14
S'0.0'
p3058
sbsg385
(i__main__
DelphiIdentAccess
p3059
(dp3060
g16
S'temp'
p3061
sg78
(lp3062
sbsbsba(i__main__
DelphiAssignStatement
p3063
(dp3064
g382
(i__main__
DelphiIdentAccess
p3065
(dp3066
g16
S'sqrt'
p3067
sg78
(lp3068
(idelphi
DelphiFunctionEndAccess
p3069
(dp3070
g406
(lp3071
(i__main__
DelphiIdentAccess
p3072
(dp3073
g16
S'temp'
p3074
sg78
(lp3075
sbasbasbsg385
(i__main__
DelphiIdentAccess
p3076
(dp3077
g16
S'temp'
p3078
sg78
(lp3079
sbsba(idelphi
DelphiIfStatement
p3080
(dp3081
g441
(idelphi
DelphiNestedExpressionListAccess
p3082
(dp3083
g78
(lp3084
sg406
(lp3085
(idelphi
DelphiRelOp
p3086
(dp3087
g448
(i__main__
DelphiIdentAccess
p3088
(dp3089
g16
S'temp'
p3090
sg78
(lp3091
sbsg453
(idelphi
DelphiRealValue
p3092
(dp3093
g14
S'0.0'
p3094
sbsg457
S'='
sbasbsg458
(idelphi
DelphiCompoundStatement
p3095
(dp3096
g374
(lp3097
(i__main__
DelphiAssignStatement
p3098
(dp3099
g382
(idelphi
DelphiMulOp
p3100
(dp3101
g410
(i__main__
DelphiIdentAccess
p3102
(dp3103
g16
S'temp'
p3104
sg78
(lp3105
sbsg415
S'/'
sg416
(i__main__
DelphiIdentAccess
p3106
(dp3107
g16
S'b1'
p3108
sg78
(lp3109
sbsbsg385
(i__main__
DelphiIdentAccess
p3110
(dp3111
g16
S'temp'
p3112
sg78
(lp3113
sbsba(i__main__
DelphiAssignStatement
p3114
(dp3115
g382
(i__main__
DelphiIdentAccess
p3116
(dp3117
g16
S'arcTan'
p3118
sg78
(lp3119
(idelphi
DelphiFunctionEndAccess
p3120
(dp3121
g406
(lp3122
(i__main__
DelphiIdentAccess
p3123
(dp3124
g16
S'temp'
p3125
sg78
(lp3126
sbasbasbsg385
(i__main__
DelphiIdentAccess
p3127
(dp3128
g16
S'temp'
p3129
sg78
(lp3130
sbsba(i__main__
DelphiAssignStatement
p3131
(dp3132
g382
(i__main__
DelphiValueTypecastAccess
p3133
(dp3134
g541
(i__main__
DelphiValueTypecast
p3135
(dp3136
g441
(i__main__
DelphiIdentAccess
p3137
(dp3138
g16
S'round'
p3139
sg78
(lp3140
(idelphi
DelphiFunctionEndAccess
p3141
(dp3142
g406
(lp3143
(idelphi
DelphiMulOp
p3144
(dp3145
g410
(idelphi
DelphiNestedExpressionListAccess
p3146
(dp3147
g78
(lp3148
sg406
(lp3149
(idelphi
DelphiMulOp
p3150
(dp3151
g410
(idelphi
DelphiRealValue
p3152
(dp3153
g14
S'3.1415926'
p3154
sbsg415
S'*'
sg416
(idelphi
DelphiIntegerValue
p3155
(dp3156
g14
S'2'
sbsbasbsg415
S'/'
sg416
(idelphi
DelphiMulOp
p3157
(dp3158
g410
(idelphi
DelphiIntegerValue
p3159
(dp3160
g14
S'256'
p3161
sbsg415
S'*'
sg416
(idelphi
DelphiSign
p3162
(dp3163
g571
(i__main__
DelphiIdentAccess
p3164
(dp3165
g16
S'temp'
p3166
sg78
(lp3167
sbsg37
S'-'
sbsbsbasbasbsg576
(i__main__
DelphiPrimitiveType
p3168
(dp3169
g21
g293
sbsbsg78
(lp3170
sbsg385
(i__main__
DelphiIdentAccess
p3171
(dp3172
g16
S'result'
p3173
sg78
(lp3174
sbsbasbsg459
(idelphi
DelphiCompoundStatement
p3175
(dp3176
g374
(lp3177
(idelphi
DelphiIfStatement
p3178
(dp3179
g441
(idelphi
DelphiNestedExpressionListAccess
p3180
(dp3181
g78
(lp3182
sg406
(lp3183
(idelphi
DelphiRelOp
p3184
(dp3185
g448
(i__main__
DelphiIdentAccess
p3186
(dp3187
g16
S'b1'
p3188
sg78
(lp3189
sbsg453
(idelphi
DelphiIntegerValue
p3190
(dp3191
g14
S'0'
sbsg457
S'<'
sbasbsg458
(i__main__
DelphiAssignStatement
p3192
(dp3193
g382
(idelphi
DelphiAddOp
p3194
(dp3195
g70
S'-'
sg71
(idelphi
DelphiIntegerValue
p3196
(dp3197
g14
S'64'
p3198
sbsg74
(idelphi
DelphiIntegerValue
p3199
(dp3200
g14
S'256'
p3201
sbsbsg385
(i__main__
DelphiIdentAccess
p3202
(dp3203
g16
S'result'
p3204
sg78
(lp3205
sbsbsg459
(i__main__
DelphiAssignStatement
p3206
(dp3207
g382
(idelphi
DelphiIntegerValue
p3208
(dp3209
g14
S'64'
p3210
sbsg385
(i__main__
DelphiIdentAccess
p3211
(dp3212
g16
S'result'
p3213
sg78
(lp3214
sbsbsbasbsbasg624
(idelphi
DelphiExceptionHandlers
p3215
(dp3216
g627
Nsg628
(lp3217
(i__main__
DelphiAssignStatement
p3218
(dp3219
g382
(idelphi
DelphiIntegerValue
p3220
(dp3221
g14
S'0'
sbsg385
(i__main__
DelphiIdentAccess
p3222
(dp3223
g16
S'result'
p3224
sg78
(lp3225
sbsbasbsbasbsg638
(lp3226
(i__main__
DelphiVarSection
p3227
(dp3228
g48
I0
sg51
(lp3229
(idelphi
DelphiVarDecl
p3230
(dp3231
g11
Nsg55
(lp3232
S'temp'
p3233
asg18
(i__main__
DelphiPrimitiveType
p3234
(dp3235
g21
g62
sbsbasbasbsbssS'propertyDeclarations'
p3236
(dp3237
sg107
(lp3238
g172
ag170
ag174
ag176
ag178
ag180
ag188
ag186
ag184
ag182
asba(i__main__
DelphiClass
p3239
(dp3240
g113
(dp3241
S'tdo'
p3242
S'tdo'
p3243
sS'zforsorting'
p3244
S'zForSorting'
p3245
sS'isline'
p3246
S'isLine'
p3247
sS'forecolor'
p3248
S'foreColor'
p3249
sS'points'
p3250
S'points'
p3251
sS'linecolor'
p3252
S'lineColor'
p3253
sS'backcolor'
p3254
S'backColor'
p3255
sS'plantpartid'
p3256
S'plantPartID'
p3257
sS'linewidth'
p3258
S'lineWidth'
p3259
sS'backfacing'
p3260
S'backFacing'
p3261
ssg83
S'KfTriangle'
p3262
sg190
(dp3263
S'updategeometry'
p3264
(i__main__
DelphiMethodDeclaration
p3265
(dp3266
g83
S'updateGeometry'
p3267
sg196
(lp3268
sg207
g3262
sg208
Nsg209
I0
sg210
g211
sbsS'computebackfacing'
p3269
(i__main__
DelphiMethodDeclaration
p3270
(dp3271
g83
S'computeBackFacing'
p3272
sg196
(lp3273
sg207
g3262
sg208
Nsg209
I0
sg210
g211
sbsS'invisiblesurfacecolor'
p3274
(i__main__
DelphiMethodDeclaration
p3275
(dp3276
g83
S'invisibleSurfaceColor'
p3277
sg196
(lp3278
sg207
g3262
sg208
(i__main__
DelphiNamedType
p3279
(dp3280
g21
S'TColor'
p3281
sg224
g1
sg225
Nsbsg209
I0
sg210
g280
sbsS'drawlinescolor'
p3282
(i__main__
DelphiMethodDeclaration
p3283
(dp3284
g83
S'drawLinesColor'
p3285
sg196
(lp3286
(i__main__
DelphiFormalParameter
p3287
(dp3288
g200
Nsg201
(lp3289
S'lineContrastIndex'
p3290
asg18
(i__main__
DelphiPrimitiveType
p3291
(dp3292
g21
S'smallint'
p3293
sbsg206
Nsbasg207
g3262
sg208
(i__main__
DelphiNamedType
p3294
(dp3295
g21
S'TColor'
p3296
sg224
g1
sg225
Nsbsg209
I0
sg210
g280
sbsS'computez'
p3297
(i__main__
DelphiMethodDeclaration
p3298
(dp3299
g83
S'computeZ'
p3300
sg196
(lp3301
sg207
g3262
sg208
Nsg209
I0
sg210
g211
sbsS'visiblesurfacecolor'
p3302
(i__main__
DelphiMethodDeclaration
p3303
(dp3304
g83
S'visibleSurfaceColor'
p3305
sg196
(lp3306
sg207
g3262
sg208
(i__main__
DelphiNamedType
p3307
(dp3308
g21
S'TColor'
p3309
sg224
g1
sg225
Nsbsg209
I0
sg210
g280
sbssg313
(lp3310
(i__main__
DelphiNamedType
p3311
(dp3312
g21
S'TObject'
p3313
sg224
g1
sg225
Nsbasg123
(dp3314
S'tdo'
p3315
(i__main__
DelphiNamedType
p3316
(dp3317
g21
S'KfObject3D'
p3318
sg224
g1
sg225
NsbsS'zforsorting'
p3319
(i__main__
DelphiPrimitiveType
p3320
(dp3321
g21
g62
sbsS'isline'
p3322
(i__main__
DelphiPrimitiveType
p3323
(dp3324
g21
S'boolean'
p3325
sbsS'forecolor'
p3326
(i__main__
DelphiNamedType
p3327
(dp3328
g21
S'TColor'
p3329
sg224
g1
sg225
NsbsS'points'
p3330
(i__main__
DelphiArrayType
p3331
(dp3332
g18
(i__main__
DelphiNamedType
p3333
(dp3334
g21
S'KfPoint3D'
p3335
sg224
g1
sg225
Nsbsg63
(lp3336
(idelphi
DelphiSubrange
p3337
(dp3338
g67
(idelphi
DelphiIntegerValue
p3339
(dp3340
g14
S'2'
sbsg80
(idelphi
DelphiIntegerValue
p3341
(dp3342
g14
S'0'
sbsg83
S''
sbasbsS'linecolor'
p3343
(i__main__
DelphiNamedType
p3344
(dp3345
g21
S'TColor'
p3346
sg224
g1
sg225
NsbsS'backcolor'
p3347
(i__main__
DelphiNamedType
p3348
(dp3349
g21
S'TColor'
p3350
sg224
g1
sg225
NsbsS'plantpartid'
p3351
(i__main__
DelphiPrimitiveType
p3352
(dp3353
g21
S'longint'
p3354
sbsS'linewidth'
p3355
(i__main__
DelphiPrimitiveType
p3356
(dp3357
g21
g62
sbsS'backfacing'
p3358
(i__main__
DelphiPrimitiveType
p3359
(dp3360
g21
g3325
sbssg334
(lp3361
S'updategeometry'
p3362
aS'computebackfacing'
p3363
aS'computez'
p3364
aS'visiblesurfacecolor'
p3365
aS'invisiblesurfacecolor'
p3366
aS'drawlinescolor'
p3367
asg347
(dp3368
S'updategeometry'
p3369
(i__main__
DelphiMethodImplementation
p3370
(dp3371
g352
g3265
sg83
g3267
sg196
(lp3372
sg354
(lp3373
sg356
(lp3374
sg358
(lp3375
g360
asg361
(dp3376
sg207
S'KfTriangle'
p3377
sg208
Nsg366
(lp3378
sg209
I0
sg210
g211
sg368
(i__main__
DelphiBlock
p3379
(dp3380
g371
(idelphi
DelphiCompoundStatement
p3381
(dp3382
g374
(lp3383
(i__main__
DelphiAssignStatement
p3384
(dp3385
g382
Nsg385
(i__main__
DelphiIdentAccess
p3386
(dp3387
g16
S'self'
p3388
sg78
(lp3389
(idelphi
DelphiFieldEndAccess
p3390
(dp3391
g690
S'computeBackFacing'
p3392
sbasbsba(i__main__
DelphiAssignStatement
p3393
(dp3394
g382
Nsg385
(i__main__
DelphiIdentAccess
p3395
(dp3396
g16
S'self'
p3397
sg78
(lp3398
(idelphi
DelphiFieldEndAccess
p3399
(dp3400
g690
S'computeZ'
p3401
sbasbsbasbsg638
(lp3402
sbsg119
(lp3403
S' ---------------------------------------------------------------------------------- KfTriangle updating '
p3404
asbsS'computebackfacing'
p3405
(i__main__
DelphiMethodImplementation
p3406
(dp3407
g352
g3270
sg83
g3272
sg196
(lp3408
sg354
(lp3409
sg356
(lp3410
sg358
(lp3411
g360
asg361
(dp3412
sg207
S'KfTriangle'
p3413
sg208
Nsg366
(lp3414
sg209
I0
sg210
g211
sg368
(i__main__
DelphiBlock
p3415
(dp3416
g371
(idelphi
DelphiCompoundStatement
p3417
(dp3418
g374
(lp3419
(i__main__
DelphiAssignStatement
p3420
(dp3421
g382
(i__main__
DelphiIdentAccess
p3422
(dp3423
g16
S'false'
p3424
sg78
(lp3425
sbsg385
(i__main__
DelphiIdentAccess
p3426
(dp3427
g16
S'self'
p3428
sg78
(lp3429
(idelphi
DelphiFieldEndAccess
p3430
(dp3431
g690
S'backFacing'
p3432
sbasbsba(idelphi
DelphiIfStatement
p3433
(dp3434
g441
(i__main__
DelphiIdentAccess
p3435
(dp3436
g16
S'self'
p3437
sg78
(lp3438
(idelphi
DelphiFieldEndAccess
p3439
(dp3440
g690
S'isLine'
p3441
sbasbsg458
Nsg459
(i__main__
DelphiExitStatement
p3442
(dp3443
S'proceduralOrMethodImplementation'
p3444
g3406
sbsba(i__main__
DelphiAssignStatement
p3445
(dp3446
g382
(i__main__
DelphiIdentAccess
p3447
(dp3448
g16
S'self'
p3449
sg78
(lp3450
(idelphi
DelphiFieldEndAccess
p3451
(dp3452
g690
S'points'
p3453
sba(idelphi
DelphiArrayEndAccess
p3454
(dp3455
g406
(lp3456
(idelphi
DelphiIntegerValue
p3457
(dp3458
g14
S'0'
sbasbasbsg385
(i__main__
DelphiIdentAccess
p3459
(dp3460
g16
S'point0'
p3461
sg78
(lp3462
sbsba(i__main__
DelphiAssignStatement
p3463
(dp3464
g382
(i__main__
DelphiIdentAccess
p3465
(dp3466
g16
S'self'
p3467
sg78
(lp3468
(idelphi
DelphiFieldEndAccess
p3469
(dp3470
g690
S'points'
p3471
sba(idelphi
DelphiArrayEndAccess
p3472
(dp3473
g406
(lp3474
(idelphi
DelphiIntegerValue
p3475
(dp3476
g14
S'1'
sbasbasbsg385
(i__main__
DelphiIdentAccess
p3477
(dp3478
g16
S'point1'
p3479
sg78
(lp3480
sbsba(i__main__
DelphiAssignStatement
p3481
(dp3482
g382
(i__main__
DelphiIdentAccess
p3483
(dp3484
g16
S'self'
p3485
sg78
(lp3486
(idelphi
DelphiFieldEndAccess
p3487
(dp3488
g690
S'points'
p3489
sba(idelphi
DelphiArrayEndAccess
p3490
(dp3491
g406
(lp3492
(idelphi
DelphiIntegerValue
p3493
(dp3494
g14
S'2'
sbasbasbsg385
(i__main__
DelphiIdentAccess
p3495
(dp3496
g16
S'point2'
p3497
sg78
(lp3498
sbsba(i__main__
DelphiAssignStatement
p3499
(dp3500
g382
(idelphi
DelphiAddOp
p3501
(dp3502
g70
S'-'
sg71
(idelphi
DelphiNestedExpressionListAccess
p3503
(dp3504
g78
(lp3505
sg406
(lp3506
(idelphi
DelphiMulOp
p3507
(dp3508
g410
(idelphi
DelphiNestedExpressionListAccess
p3509
(dp3510
g78
(lp3511
sg406
(lp3512
(idelphi
DelphiAddOp
p3513
(dp3514
g70
S'-'
sg71
(i__main__
DelphiIdentAccess
p3515
(dp3516
g16
S'point0'
p3517
sg78
(lp3518
(idelphi
DelphiFieldEndAccess
p3519
(dp3520
g690
S'x'
sbasbsg74
(i__main__
DelphiIdentAccess
p3521
(dp3522
g16
S'point2'
p3523
sg78
(lp3524
(idelphi
DelphiFieldEndAccess
p3525
(dp3526
g690
S'x'
sbasbsbasbsg415
S'*'
sg416
(idelphi
DelphiNestedExpressionListAccess
p3527
(dp3528
g78
(lp3529
sg406
(lp3530
(idelphi
DelphiAddOp
p3531
(dp3532
g70
S'-'
sg71
(i__main__
DelphiIdentAccess
p3533
(dp3534
g16
S'point0'
p3535
sg78
(lp3536
(idelphi
DelphiFieldEndAccess
p3537
(dp3538
g690
S'y'
sbasbsg74
(i__main__
DelphiIdentAccess
p3539
(dp3540
g16
S'point1'
p3541
sg78
(lp3542
(idelphi
DelphiFieldEndAccess
p3543
(dp3544
g690
S'y'
sbasbsbasbsbasbsg74
(idelphi
DelphiNestedExpressionListAccess
p3545
(dp3546
g78
(lp3547
sg406
(lp3548
(idelphi
DelphiMulOp
p3549
(dp3550
g410
(idelphi
DelphiNestedExpressionListAccess
p3551
(dp3552
g78
(lp3553
sg406
(lp3554
(idelphi
DelphiAddOp
p3555
(dp3556
g70
S'-'
sg71
(i__main__
DelphiIdentAccess
p3557
(dp3558
g16
S'point0'
p3559
sg78
(lp3560
(idelphi
DelphiFieldEndAccess
p3561
(dp3562
g690
S'y'
sbasbsg74
(i__main__
DelphiIdentAccess
p3563
(dp3564
g16
S'point2'
p3565
sg78
(lp3566
(idelphi
DelphiFieldEndAccess
p3567
(dp3568
g690
S'y'
sbasbsbasbsg415
S'*'
sg416
(idelphi
DelphiNestedExpressionListAccess
p3569
(dp3570
g78
(lp3571
sg406
(lp3572
(idelphi
DelphiAddOp
p3573
(dp3574
g70
S'-'
sg71
(i__main__
DelphiIdentAccess
p3575
(dp3576
g16
S'point0'
p3577
sg78
(lp3578
(idelphi
DelphiFieldEndAccess
p3579
(dp3580
g690
S'x'
sbasbsg74
(i__main__
DelphiIdentAccess
p3581
(dp3582
g16
S'point1'
p3583
sg78
(lp3584
(idelphi
DelphiFieldEndAccess
p3585
(dp3586
g690
S'x'
sbasbsbasbsbasbsbsg385
(i__main__
DelphiIdentAccess
p3587
(dp3588
g16
S'backfacingResult'
p3589
sg78
(lp3590
sbsba(i__main__
DelphiAssignStatement
p3591
(dp3592
g382
(idelphi
DelphiNestedExpressionListAccess
p3593
(dp3594
g78
(lp3595
sg406
(lp3596
(idelphi
DelphiRelOp
p3597
(dp3598
g448
(i__main__
DelphiIdentAccess
p3599
(dp3600
g16
S'backfacingResult'
p3601
sg78
(lp3602
sbsg453
(idelphi
DelphiIntegerValue
p3603
(dp3604
g14
S'0'
sbsg457
S'<'
sbasbsg385
(i__main__
DelphiIdentAccess
p3605
(dp3606
g16
S'self'
p3607
sg78
(lp3608
(idelphi
DelphiFieldEndAccess
p3609
(dp3610
g690
S'backFacing'
p3611
sbasbsbasbsg638
(lp3612
(i__main__
DelphiVarSection
p3613
(dp3614
g48
I0
sg51
(lp3615
(idelphi
DelphiVarDecl
p3616
(dp3617
g11
Nsg55
(lp3618
S'point0'
p3619
aS'point1'
p3620
aS'point2'
p3621
asg18
(i__main__
DelphiNamedType
p3622
(dp3623
g21
S'KfPoint3d'
p3624
sg224
g1
sg225
Nsbsba(idelphi
DelphiVarDecl
p3625
(dp3626
g11
Nsg55
(lp3627
S'backfacingResult'
p3628
asg18
(i__main__
DelphiPrimitiveType
p3629
(dp3630
g21
g62
sbsbasbasbsbsS'invisiblesurfacecolor'
p3631
(i__main__
DelphiMethodImplementation
p3632
(dp3633
g352
g3275
sg83
g3277
sg196
(lp3634
sg354
(lp3635
sg356
(lp3636
sg358
(lp3637
g360
asg361
(dp3638
sg207
S'KfTriangle'
p3639
sg208
(i__main__
DelphiNamedType
p3640
(dp3641
g21
S'TColor'
p3642
sg224
g1
sg225
Nsbsg366
(lp3643
sg209
I0
sg210
g280
sg368
(i__main__
DelphiBlock
p3644
(dp3645
g371
(idelphi
DelphiCompoundStatement
p3646
(dp3647
g374
(lp3648
(idelphi
DelphiIfStatement
p3649
(dp3650
g441
(i__main__
DelphiIdentAccess
p3651
(dp3652
g16
S'backFacing'
p3653
sg78
(lp3654
sbsg458
(i__main__
DelphiAssignStatement
p3655
(dp3656
g382
(i__main__
DelphiIdentAccess
p3657
(dp3658
g16
S'backColor'
p3659
sg78
(lp3660
sbsg385
(i__main__
DelphiIdentAccess
p3661
(dp3662
g16
S'result'
p3663
sg78
(lp3664
sbsbsg459
(i__main__
DelphiAssignStatement
p3665
(dp3666
g382
(i__main__
DelphiIdentAccess
p3667
(dp3668
g16
S'foreColor'
p3669
sg78
(lp3670
sbsg385
(i__main__
DelphiIdentAccess
p3671
(dp3672
g16
S'result'
p3673
sg78
(lp3674
sbsbsbasbsg638
(lp3675
sbsbsS'drawlinescolor'
p3676
(i__main__
DelphiMethodImplementation
p3677
(dp3678
g352
g3283
sg83
g3285
sg196
(lp3679
(i__main__
DelphiFormalParameter
p3680
(dp3681
g200
Nsg201
(lp3682
S'lineContrastIndex'
p3683
asg18
(i__main__
DelphiPrimitiveType
p3684
(dp3685
g21
g3293
sbsg206
Nsbasg354
(lp3686
sg356
(lp3687
sg358
(lp3688
g360
ag3683
asg361
(dp3689
g3683
g3684
ssg207
S'KfTriangle'
p3690
sg208
(i__main__
DelphiNamedType
p3691
(dp3692
g21
S'TColor'
p3693
sg224
g1
sg225
Nsbsg366
(lp3694
sg209
I0
sg210
g280
sg368
(i__main__
DelphiBlock
p3695
(dp3696
g371
(idelphi
DelphiCompoundStatement
p3697
(dp3698
g374
(lp3699
(idelphi
DelphiIfStatement
p3700
(dp3701
g441
(i__main__
DelphiIdentAccess
p3702
(dp3703
g16
S'backFacing'
p3704
sg78
(lp3705
sbsg458
(i__main__
DelphiAssignStatement
p3706
(dp3707
g382
(i__main__
DelphiIdentAccess
p3708
(dp3709
g16
S'foreColor'
p3710
sg78
(lp3711
sbsg385
(i__main__
DelphiIdentAccess
p3712
(dp3713
g16
S'result'
p3714
sg78
(lp3715
sbsbsg459
(i__main__
DelphiAssignStatement
p3716
(dp3717
g382
(i__main__
DelphiIdentAccess
p3718
(dp3719
g16
S'backColor'
p3720
sg78
(lp3721
sbsg385
(i__main__
DelphiIdentAccess
p3722
(dp3723
g16
S'result'
p3724
sg78
(lp3725
sbsbsba(idelphi
DelphiIfStatement
p3726
(dp3727
g441
(idelphi
DelphiRelOp
p3728
(dp3729
g448
(i__main__
DelphiIdentAccess
p3730
(dp3731
g16
S'lineContrastIndex'
p3732
sg78
(lp3733
sbsg453
(idelphi
DelphiIntegerValue
p3734
(dp3735
g14
S'0'
sbsg457
S'>'
sbsg458
Nsg459
(i__main__
DelphiAssignStatement
p3736
(dp3737
g382
(i__main__
DelphiIdentAccess
p3738
(dp3739
g16
S'darkerColorWithSubtraction'
p3740
sg78
(lp3741
(idelphi
DelphiFunctionEndAccess
p3742
(dp3743
g406
(lp3744
(i__main__
DelphiIdentAccess
p3745
(dp3746
g16
S'result'
p3747
sg78
(lp3748
sba(idelphi
DelphiMulOp
p3749
(dp3750
g410
(i__main__
DelphiIdentAccess
p3751
(dp3752
g16
S'lineContrastIndex'
p3753
sg78
(lp3754
sbsg415
S'*'
sg416
(idelphi
DelphiIntegerValue
p3755
(dp3756
g14
S'10'
p3757
sbsbasbasbsg385
(i__main__
DelphiIdentAccess
p3758
(dp3759
g16
S'result'
p3760
sg78
(lp3761
sbsbsbasbsg638
(lp3762
sbsbsS'computez'
p3763
(i__main__
DelphiMethodImplementation
p3764
(dp3765
g352
g3298
sg83
g3300
sg196
(lp3766
sg354
(lp3767
sg356
(lp3768
sg358
(lp3769
g360
asg361
(dp3770
sg207
S'KfTriangle'
p3771
sg208
Nsg366
(lp3772
sg209
I0
sg210
g211
sg368
(i__main__
DelphiBlock
p3773
(dp3774
g371
(idelphi
DelphiCompoundStatement
p3775
(dp3776
g374
(lp3777
(idelphi
DelphiIfStatement
p3778
(dp3779
g441
(i__main__
DelphiIdentAccess
p3780
(dp3781
g16
S'self'
p3782
sg78
(lp3783
(idelphi
DelphiFieldEndAccess
p3784
(dp3785
g690
S'isLine'
p3786
sbasbsg458
(idelphi
DelphiCompoundStatement
p3787
(dp3788
g374
(lp3789
(i__main__
DelphiAssignStatement
p3790
(dp3791
g382
(i__main__
DelphiIdentAccess
p3792
(dp3793
g16
S'points'
p3794
sg78
(lp3795
(idelphi
DelphiArrayEndAccess
p3796
(dp3797
g406
(lp3798
(idelphi
DelphiIntegerValue
p3799
(dp3800
g14
S'0'
sbasba(idelphi
DelphiFieldEndAccess
p3801
(dp3802
g690
S'z'
sbasbsg385
(i__main__
DelphiIdentAccess
p3803
(dp3804
g16
S'minZ'
p3805
sg78
(lp3806
sbsba(idelphi
DelphiIfStatement
p3807
(dp3808
g441
(idelphi
DelphiRelOp
p3809
(dp3810
g448
(i__main__
DelphiIdentAccess
p3811
(dp3812
g16
S'points'
p3813
sg78
(lp3814
(idelphi
DelphiArrayEndAccess
p3815
(dp3816
g406
(lp3817
(idelphi
DelphiIntegerValue
p3818
(dp3819
g14
S'1'
sbasba(idelphi
DelphiFieldEndAccess
p3820
(dp3821
g690
S'z'
sbasbsg453
(i__main__
DelphiIdentAccess
p3822
(dp3823
g16
S'minZ'
p3824
sg78
(lp3825
sbsg457
S'<'
sbsg458
Nsg459
(i__main__
DelphiAssignStatement
p3826
(dp3827
g382
(i__main__
DelphiIdentAccess
p3828
(dp3829
g16
S'points'
p3830
sg78
(lp3831
(idelphi
DelphiArrayEndAccess
p3832
(dp3833
g406
(lp3834
(idelphi
DelphiIntegerValue
p3835
(dp3836
g14
S'1'
sbasba(idelphi
DelphiFieldEndAccess
p3837
(dp3838
g690
S'z'
sbasbsg385
(i__main__
DelphiIdentAccess
p3839
(dp3840
g16
S'minZ'
p3841
sg78
(lp3842
sbsbsba(idelphi
DelphiIfStatement
p3843
(dp3844
g441
(idelphi
DelphiRelOp
p3845
(dp3846
g448
(i__main__
DelphiIdentAccess
p3847
(dp3848
g16
S'points'
p3849
sg78
(lp3850
(idelphi
DelphiArrayEndAccess
p3851
(dp3852
g406
(lp3853
(idelphi
DelphiIntegerValue
p3854
(dp3855
g14
S'2'
sbasba(idelphi
DelphiFieldEndAccess
p3856
(dp3857
g690
S'z'
sbasbsg453
(i__main__
DelphiIdentAccess
p3858
(dp3859
g16
S'minZ'
p3860
sg78
(lp3861
sbsg457
S'<'
sbsg458
Nsg459
(i__main__
DelphiAssignStatement
p3862
(dp3863
g382
(i__main__
DelphiIdentAccess
p3864
(dp3865
g16
S'points'
p3866
sg78
(lp3867
(idelphi
DelphiArrayEndAccess
p3868
(dp3869
g406
(lp3870
(idelphi
DelphiIntegerValue
p3871
(dp3872
g14
S'2'
sbasba(idelphi
DelphiFieldEndAccess
p3873
(dp3874
g690
S'z'
sbasbsg385
(i__main__
DelphiIdentAccess
p3875
(dp3876
g16
S'minZ'
p3877
sg78
(lp3878
sbsbsbasbsg459
(idelphi
DelphiCompoundStatement
p3879
(dp3880
g374
(lp3881
(i__main__
DelphiAssignStatement
p3882
(dp3883
g382
(i__main__
DelphiIdentAccess
p3884
(dp3885
g16
S'points'
p3886
sg78
(lp3887
(idelphi
DelphiArrayEndAccess
p3888
(dp3889
g406
(lp3890
(idelphi
DelphiIntegerValue
p3891
(dp3892
g14
S'0'
sbasba(idelphi
DelphiFieldEndAccess
p3893
(dp3894
g690
S'z'
sbasbsg385
(i__main__
DelphiIdentAccess
p3895
(dp3896
g16
S'minZ'
p3897
sg78
(lp3898
sbsba(idelphi
DelphiIfStatement
p3899
(dp3900
g441
(idelphi
DelphiRelOp
p3901
(dp3902
g448
(i__main__
DelphiIdentAccess
p3903
(dp3904
g16
S'points'
p3905
sg78
(lp3906
(idelphi
DelphiArrayEndAccess
p3907
(dp3908
g406
(lp3909
(idelphi
DelphiIntegerValue
p3910
(dp3911
g14
S'1'
sbasba(idelphi
DelphiFieldEndAccess
p3912
(dp3913
g690
S'z'
sbasbsg453
(i__main__
DelphiIdentAccess
p3914
(dp3915
g16
S'minZ'
p3916
sg78
(lp3917
sbsg457
S'<'
sbsg458
Nsg459
(i__main__
DelphiAssignStatement
p3918
(dp3919
g382
(i__main__
DelphiIdentAccess
p3920
(dp3921
g16
S'points'
p3922
sg78
(lp3923
(idelphi
DelphiArrayEndAccess
p3924
(dp3925
g406
(lp3926
(idelphi
DelphiIntegerValue
p3927
(dp3928
g14
S'1'
sbasba(idelphi
DelphiFieldEndAccess
p3929
(dp3930
g690
S'z'
sbasbsg385
(i__main__
DelphiIdentAccess
p3931
(dp3932
g16
S'minZ'
p3933
sg78
(lp3934
sbsbsbasbsba(i__main__
DelphiAssignStatement
p3935
(dp3936
g382
(i__main__
DelphiIdentAccess
p3937
(dp3938
g16
S'minZ'
p3939
sg78
(lp3940
sbsg385
(i__main__
DelphiIdentAccess
p3941
(dp3942
g16
S'self'
p3943
sg78
(lp3944
(idelphi
DelphiFieldEndAccess
p3945
(dp3946
g690
S'zForSorting'
p3947
sbasbsbasbsg638
(lp3948
(i__main__
DelphiVarSection
p3949
(dp3950
g48
I0
sg51
(lp3951
(idelphi
DelphiVarDecl
p3952
(dp3953
g11
Nsg55
(lp3954
S'minZ'
p3955
asg18
(i__main__
DelphiPrimitiveType
p3956
(dp3957
g21
g62
sbsbasbasbsbsS'visiblesurfacecolor'
p3958
(i__main__
DelphiMethodImplementation
p3959
(dp3960
g352
g3303
sg83
g3305
sg196
(lp3961
sg354
(lp3962
sg356
(lp3963
sg358
(lp3964
g360
asg361
(dp3965
sg207
S'KfTriangle'
p3966
sg208
(i__main__
DelphiNamedType
p3967
(dp3968
g21
S'TColor'
p3969
sg224
g1
sg225
Nsbsg366
(lp3970
sg209
I0
sg210
g280
sg368
(i__main__
DelphiBlock
p3971
(dp3972
g371
(idelphi
DelphiCompoundStatement
p3973
(dp3974
g374
(lp3975
(idelphi
DelphiIfStatement
p3976
(dp3977
g441
(i__main__
DelphiIdentAccess
p3978
(dp3979
g16
S'backFacing'
p3980
sg78
(lp3981
sbsg458
(i__main__
DelphiAssignStatement
p3982
(dp3983
g382
(i__main__
DelphiIdentAccess
p3984
(dp3985
g16
S'foreColor'
p3986
sg78
(lp3987
sbsg385
(i__main__
DelphiIdentAccess
p3988
(dp3989
g16
S'result'
p3990
sg78
(lp3991
sbsbsg459
(i__main__
DelphiAssignStatement
p3992
(dp3993
g382
(i__main__
DelphiIdentAccess
p3994
(dp3995
g16
S'backColor'
p3996
sg78
(lp3997
sbsg385
(i__main__
DelphiIdentAccess
p3998
(dp3999
g16
S'result'
p4000
sg78
(lp4001
sbsbsbasbsg638
(lp4002
sbsbssg3236
(dp4003
sg107
(lp4004
g3249
ag3255
ag3253
ag3245
ag3261
ag3259
ag3247
ag3251
ag3243
ag3257
asg119
(lp4005
S'these can only be triangular'
p4006
asba(i__main__
DelphiProceduralImplementation
p4007
(dp4008
g352
(i__main__
DelphiProceduralDeclaration
p4009
(dp4010
g196
(lp4011
sg83
S'fastTrigInitialize'
p4012
sg208
Nsbsg83
g4012
sg208
Nsg354
(lp4013
sg356
(lp4014
sg358
(lp4015
sg361
(dp4016
sg196
(lp4017
sg366
(lp4018
sg368
(i__main__
DelphiBlock
p4019
(dp4020
g371
(idelphi
DelphiCompoundStatement
p4021
(dp4022
g374
(lp4023
(idelphi
DelphiForStatement
p4024
(dp4025
S'variable'
p4026
S'i'
sS'finalValue'
p4027
(idelphi
DelphiAddOp
p4028
(dp4029
g70
S'-'
sg71
(idelphi
DelphiIntegerValue
p4030
(dp4031
g14
S'1'
sbsg74
(i__main__
DelphiIdentAccess
p4032
(dp4033
g16
S'kFastTrigArraySize'
p4034
sg78
(lp4035
sbsbsS'direction'
p4036
S'to'
p4037
sg200
(idelphi
DelphiIntegerValue
p4038
(dp4039
g14
S'0'
sbsS'statement'
p4040
(idelphi
DelphiCompoundStatement
p4041
(dp4042
g374
(lp4043
(i__main__
DelphiAssignStatement
p4044
(dp4045
g382
(i__main__
DelphiIdentAccess
p4046
(dp4047
g16
S'sin'
p4048
sg78
(lp4049
(idelphi
DelphiFunctionEndAccess
p4050
(dp4051
g406
(lp4052
(idelphi
DelphiMulOp
p4053
(dp4054
g410
(i__main__
DelphiIdentAccess
p4055
(dp4056
g16
S'kFastTrigArraySize'
p4057
sg78
(lp4058
sbsg415
S'/'
sg416
(idelphi
DelphiMulOp
p4059
(dp4060
g410
(idelphi
DelphiRealValue
p4061
(dp4062
g14
S'3.141592654'
p4063
sbsg415
S'*'
sg416
(idelphi
DelphiMulOp
p4064
(dp4065
g410
(idelphi
DelphiIntegerValue
p4066
(dp4067
g14
S'2'
sbsg415
S'*'
sg416
(i__main__
DelphiIdentAccess
p4068
(dp4069
g16
S'i'
sg78
(lp4070
sbsbsbsbasbasbsg385
(i__main__
DelphiIdentAccess
p4071
(dp4072
g16
S'SinCache'
p4073
sg78
(lp4074
(idelphi
DelphiArrayEndAccess
p4075
(dp4076
g406
(lp4077
(i__main__
DelphiIdentAccess
p4078
(dp4079
g16
S'i'
sg78
(lp4080
sbasbasbsg119
(lp4081
S'Approach: sine and cosine arrays are used for speed. Angles are 0 - 255 instead of 0 to 359'
p4082
aS'PDF - maybe want to expand this to 0 - 1023? - would impact rotate callers'
p4083
asba(i__main__
DelphiAssignStatement
p4084
(dp4085
g382
(i__main__
DelphiIdentAccess
p4086
(dp4087
g16
S'cos'
p4088
sg78
(lp4089
(idelphi
DelphiFunctionEndAccess
p4090
(dp4091
g406
(lp4092
(idelphi
DelphiMulOp
p4093
(dp4094
g410
(i__main__
DelphiIdentAccess
p4095
(dp4096
g16
S'kFastTrigArraySize'
p4097
sg78
(lp4098
sbsg415
S'/'
sg416
(idelphi
DelphiMulOp
p4099
(dp4100
g410
(idelphi
DelphiRealValue
p4101
(dp4102
g14
S'3.141592654'
p4103
sbsg415
S'*'
sg416
(idelphi
DelphiMulOp
p4104
(dp4105
g410
(idelphi
DelphiIntegerValue
p4106
(dp4107
g14
S'2'
sbsg415
S'*'
sg416
(i__main__
DelphiIdentAccess
p4108
(dp4109
g16
S'i'
sg78
(lp4110
sbsbsbsbasbasbsg385
(i__main__
DelphiIdentAccess
p4111
(dp4112
g16
S'CosCache'
p4113
sg78
(lp4114
(idelphi
DelphiArrayEndAccess
p4115
(dp4116
g406
(lp4117
(i__main__
DelphiIdentAccess
p4118
(dp4119
g16
S'i'
sg78
(lp4120
sbasbasbsbasbsbasbsg638
(lp4121
(i__main__
DelphiVarSection
p4122
(dp4123
g48
I0
sg51
(lp4124
(idelphi
DelphiVarDecl
p4125
(dp4126
g11
Nsg55
(lp4127
S'i'
asg18
(i__main__
DelphiPrimitiveType
p4128
(dp4129
g21
g159
sbsbasbasbsg119
(lp4130
S' ------------------------------------------------------------------- global functions '
p4131
asba(i__main__
DelphiProceduralImplementation
p4132
(dp4133
g352
(i__main__
DelphiProceduralDeclaration
p4134
(dp4135
g196
(lp4136
(i__main__
DelphiFormalParameter
p4137
(dp4138
g200
Nsg201
(lp4139
S'angle'
p4140
asg18
(i__main__
DelphiPrimitiveType
p4141
(dp4142
g21
g62
sbsg206
Nsbasg119
(lp4143
S'these functions are no longer called here but are available for other uses'
p4144
aS'they were bundled directly into rotate'
p4145
aS'moved bounding angle into cache range into functions to decrease function overhead'
p4146
aS'copied these functions into rotate to decrease overhead there - both of function call and of bounding angle twice'
p4147
asg83
S'fastTrigCos'
p4148
sg208
(i__main__
DelphiPrimitiveType
p4149
(dp4150
g21
g62
sbsbsg83
g4148
sg208
(i__main__
DelphiPrimitiveType
p4151
(dp4152
g21
g62
sbsg354
(lp4153
sg356
(lp4154
sg358
(lp4155
S'angle'
p4156
asg361
(dp4157
g4156
(i__main__
DelphiPrimitiveType
p4158
(dp4159
g21
g62
sbssg196
(lp4160
(i__main__
DelphiFormalParameter
p4161
(dp4162
g200
Nsg201
(lp4163
g4156
asg18
g4158
sg206
Nsbasg366
(lp4164
sg368
(i__main__
DelphiBlock
p4165
(dp4166
g371
(idelphi
DelphiCompoundStatement
p4167
(dp4168
g374
(lp4169
(idelphi
DelphiTryExceptStatement
p4170
(dp4171
g378
(lp4172
(i__main__
DelphiAssignStatement
p4173
(dp4174
g382
(idelphi
DelphiMulOp
p4175
(dp4176
g410
(i__main__
DelphiIdentAccess
p4177
(dp4178
g16
S'kFastTrigArraySize'
p4179
sg78
(lp4180
sbsg415
g1028
sg416
(i__main__
DelphiIdentAccess
p4181
(dp4182
g16
S'round'
p4183
sg78
(lp4184
(idelphi
DelphiFunctionEndAccess
p4185
(dp4186
g406
(lp4187
(i__main__
DelphiIdentAccess
p4188
(dp4189
g16
S'angle'
p4190
sg78
(lp4191
sbasbasbsbsg385
(i__main__
DelphiIdentAccess
p4192
(dp4193
g16
S'boundedAngle'
p4194
sg78
(lp4195
sbsbasg624
(idelphi
DelphiExceptionHandlers
p4196
(dp4197
g627
Nsg628
(lp4198
(i__main__
DelphiAssignStatement
p4199
(dp4200
g382
(idelphi
DelphiIntegerValue
p4201
(dp4202
g14
S'0'
sbsg385
(i__main__
DelphiIdentAccess
p4203
(dp4204
g16
S'boundedAngle'
p4205
sg78
(lp4206
sbsbasbsba(idelphi
DelphiIfStatement
p4207
(dp4208
g441
(idelphi
DelphiNestedExpressionListAccess
p4209
(dp4210
g78
(lp4211
sg406
(lp4212
(idelphi
DelphiRelOp
p4213
(dp4214
g448
(i__main__
DelphiIdentAccess
p4215
(dp4216
g16
S'boundedAngle'
p4217
sg78
(lp4218
sbsg453
(idelphi
DelphiIntegerValue
p4219
(dp4220
g14
S'0'
sbsg457
S'<'
sbasbsg458
Nsg459
(i__main__
DelphiAssignStatement
p4221
(dp4222
g382
(idelphi
DelphiAddOp
p4223
(dp4224
g70
S'+'
sg71
(i__main__
DelphiIdentAccess
p4225
(dp4226
g16
S'boundedAngle'
p4227
sg78
(lp4228
sbsg74
(i__main__
DelphiIdentAccess
p4229
(dp4230
g16
S'kFastTrigArraySize'
p4231
sg78
(lp4232
sbsbsg385
(i__main__
DelphiIdentAccess
p4233
(dp4234
g16
S'boundedAngle'
p4235
sg78
(lp4236
sbsbsba(i__main__
DelphiAssignStatement
p4237
(dp4238
g382
(i__main__
DelphiIdentAccess
p4239
(dp4240
g16
S'CosCache'
p4241
sg78
(lp4242
(idelphi
DelphiArrayEndAccess
p4243
(dp4244
g406
(lp4245
(i__main__
DelphiIdentAccess
p4246
(dp4247
g16
S'boundedAngle'
p4248
sg78
(lp4249
sbasbasbsg385
(i__main__
DelphiIdentAccess
p4250
(dp4251
g16
S'result'
p4252
sg78
(lp4253
sbsbasbsg638
(lp4254
(i__main__
DelphiVarSection
p4255
(dp4256
g48
I0
sg51
(lp4257
(idelphi
DelphiVarDecl
p4258
(dp4259
g11
Nsg55
(lp4260
S'boundedAngle'
p4261
asg18
(i__main__
DelphiPrimitiveType
p4262
(dp4263
g21
g159
sbsbasbasbsg119
g4143
sba(i__main__
DelphiProceduralImplementation
p4264
(dp4265
g352
(i__main__
DelphiProceduralDeclaration
p4266
(dp4267
g196
(lp4268
(i__main__
DelphiFormalParameter
p4269
(dp4270
g200
Nsg201
(lp4271
S'angle'
p4272
asg18
(i__main__
DelphiPrimitiveType
p4273
(dp4274
g21
g62
sbsg206
Nsbasg83
S'fastTrigSin'
p4275
sg208
(i__main__
DelphiPrimitiveType
p4276
(dp4277
g21
g62
sbsbsg83
g4275
sg208
(i__main__
DelphiPrimitiveType
p4278
(dp4279
g21
g62
sbsg354
(lp4280
sg356
(lp4281
sg358
(lp4282
S'angle'
p4283
asg361
(dp4284
g4283
(i__main__
DelphiPrimitiveType
p4285
(dp4286
g21
g62
sbssg196
(lp4287
(i__main__
DelphiFormalParameter
p4288
(dp4289
g200
Nsg201
(lp4290
g4283
asg18
g4285
sg206
Nsbasg366
(lp4291
sg368
(i__main__
DelphiBlock
p4292
(dp4293
g371
(idelphi
DelphiCompoundStatement
p4294
(dp4295
g374
(lp4296
(idelphi
DelphiTryExceptStatement
p4297
(dp4298
g378
(lp4299
(i__main__
DelphiAssignStatement
p4300
(dp4301
g382
(idelphi
DelphiMulOp
p4302
(dp4303
g410
(i__main__
DelphiIdentAccess
p4304
(dp4305
g16
S'kFastTrigArraySize'
p4306
sg78
(lp4307
sbsg415
g1028
sg416
(i__main__
DelphiIdentAccess
p4308
(dp4309
g16
S'round'
p4310
sg78
(lp4311
(idelphi
DelphiFunctionEndAccess
p4312
(dp4313
g406
(lp4314
(i__main__
DelphiIdentAccess
p4315
(dp4316
g16
S'angle'
p4317
sg78
(lp4318
sbasbasbsbsg385
(i__main__
DelphiIdentAccess
p4319
(dp4320
g16
S'boundedAngle'
p4321
sg78
(lp4322
sbsbasg624
(idelphi
DelphiExceptionHandlers
p4323
(dp4324
g627
Nsg628
(lp4325
(i__main__
DelphiAssignStatement
p4326
(dp4327
g382
(idelphi
DelphiIntegerValue
p4328
(dp4329
g14
S'0'
sbsg385
(i__main__
DelphiIdentAccess
p4330
(dp4331
g16
S'boundedAngle'
p4332
sg78
(lp4333
sbsbasbsba(idelphi
DelphiIfStatement
p4334
(dp4335
g441
(idelphi
DelphiNestedExpressionListAccess
p4336
(dp4337
g78
(lp4338
sg406
(lp4339
(idelphi
DelphiRelOp
p4340
(dp4341
g448
(i__main__
DelphiIdentAccess
p4342
(dp4343
g16
S'boundedAngle'
p4344
sg78
(lp4345
sbsg453
(idelphi
DelphiIntegerValue
p4346
(dp4347
g14
S'0'
sbsg457
S'<'
sbasbsg458
Nsg459
(i__main__
DelphiAssignStatement
p4348
(dp4349
g382
(idelphi
DelphiAddOp
p4350
(dp4351
g70
S'+'
sg71
(i__main__
DelphiIdentAccess
p4352
(dp4353
g16
S'boundedAngle'
p4354
sg78
(lp4355
sbsg74
(i__main__
DelphiIdentAccess
p4356
(dp4357
g16
S'kFastTrigArraySize'
p4358
sg78
(lp4359
sbsbsg385
(i__main__
DelphiIdentAccess
p4360
(dp4361
g16
S'boundedAngle'
p4362
sg78
(lp4363
sbsbsba(i__main__
DelphiAssignStatement
p4364
(dp4365
g382
(i__main__
DelphiIdentAccess
p4366
(dp4367
g16
S'SinCache'
p4368
sg78
(lp4369
(idelphi
DelphiArrayEndAccess
p4370
(dp4371
g406
(lp4372
(i__main__
DelphiIdentAccess
p4373
(dp4374
g16
S'boundedAngle'
p4375
sg78
(lp4376
sbasbasbsg385
(i__main__
DelphiIdentAccess
p4377
(dp4378
g16
S'result'
p4379
sg78
(lp4380
sbsbasbsg638
(lp4381
(i__main__
DelphiVarSection
p4382
(dp4383
g48
I0
sg51
(lp4384
(idelphi
DelphiVarDecl
p4385
(dp4386
g11
Nsg55
(lp4387
S'boundedAngle'
p4388
asg18
(i__main__
DelphiPrimitiveType
p4389
(dp4390
g21
g159
sbsbasbasbsba(i__main__
DelphiProceduralImplementation
p4391
(dp4392
g352
(i__main__
DelphiProceduralDeclaration
p4393
(dp4394
g196
(lp4395
(i__main__
DelphiFormalParameter
p4396
(dp4397
g200
Nsg201
(lp4398
S'point0'
p4399
asg18
(i__main__
DelphiNamedType
p4400
(dp4401
g21
S'TPoint'
p4402
sg224
g1
sg225
Nsbsg206
S'const'
p4403
sba(i__main__
DelphiFormalParameter
p4404
(dp4405
g200
Nsg201
(lp4406
S'point1'
p4407
asg18
(i__main__
DelphiNamedType
p4408
(dp4409
g21
S'TPoint'
p4410
sg224
g1
sg225
Nsbsg206
g4403
sba(i__main__
DelphiFormalParameter
p4411
(dp4412
g200
Nsg201
(lp4413
S'point2'
p4414
asg18
(i__main__
DelphiNamedType
p4415
(dp4416
g21
S'TPoint'
p4417
sg224
g1
sg225
Nsbsg206
g4403
sbasg83
S'clockwise'
p4418
sg208
(i__main__
DelphiPrimitiveType
p4419
(dp4420
g21
g159
sbsbsg83
g4418
sg208
(i__main__
DelphiPrimitiveType
p4421
(dp4422
g21
g159
sbsg354
(lp4423
sg356
(lp4424
sg358
(lp4425
S'point0'
p4426
aS'point1'
p4427
aS'point2'
p4428
asg361
(dp4429
g4426
(i__main__
DelphiNamedType
p4430
(dp4431
g21
S'TPoint'
p4432
sg224
g1
sg225
Nsbsg4427
(i__main__
DelphiNamedType
p4433
(dp4434
g21
S'TPoint'
p4435
sg224
g1
sg225
Nsbsg4428
(i__main__
DelphiNamedType
p4436
(dp4437
g21
S'TPoint'
p4438
sg224
g1
sg225
Nsbssg196
(lp4439
(i__main__
DelphiFormalParameter
p4440
(dp4441
g200
Nsg201
(lp4442
g4426
asg18
g4430
sg206
g4403
sba(i__main__
DelphiFormalParameter
p4443
(dp4444
g200
Nsg201
(lp4445
g4427
asg18
g4433
sg206
g4403
sba(i__main__
DelphiFormalParameter
p4446
(dp4447
g200
Nsg201
(lp4448
g4428
asg18
g4436
sg206
g4403
sbasg366
(lp4449
sg368
(i__main__
DelphiBlock
p4450
(dp4451
g371
(idelphi
DelphiCompoundStatement
p4452
(dp4453
g374
(lp4454
(i__main__
DelphiAssignStatement
p4455
(dp4456
g382
(idelphi
DelphiAddOp
p4457
(dp4458
g70
S'-'
sg71
(i__main__
DelphiIdentAccess
p4459
(dp4460
g16
S'point0'
p4461
sg78
(lp4462
(idelphi
DelphiFieldEndAccess
p4463
(dp4464
g690
S'x'
sbasbsg74
(i__main__
DelphiIdentAccess
p4465
(dp4466
g16
S'point1'
p4467
sg78
(lp4468
(idelphi
DelphiFieldEndAccess
p4469
(dp4470
g690
S'x'
sbasbsbsg385
(i__main__
DelphiIdentAccess
p4471
(dp4472
g16
S'dx1'
p4473
sg78
(lp4474
sbsba(i__main__
DelphiAssignStatement
p4475
(dp4476
g382
(idelphi
DelphiAddOp
p4477
(dp4478
g70
S'-'
sg71
(i__main__
DelphiIdentAccess
p4479
(dp4480
g16
S'point0'
p4481
sg78
(lp4482
(idelphi
DelphiFieldEndAccess
p4483
(dp4484
g690
S'y'
sbasbsg74
(i__main__
DelphiIdentAccess
p4485
(dp4486
g16
S'point1'
p4487
sg78
(lp4488
(idelphi
DelphiFieldEndAccess
p4489
(dp4490
g690
S'y'
sbasbsbsg385
(i__main__
DelphiIdentAccess
p4491
(dp4492
g16
S'dy1'
p4493
sg78
(lp4494
sbsba(i__main__
DelphiAssignStatement
p4495
(dp4496
g382
(idelphi
DelphiAddOp
p4497
(dp4498
g70
S'-'
sg71
(i__main__
DelphiIdentAccess
p4499
(dp4500
g16
S'point0'
p4501
sg78
(lp4502
(idelphi
DelphiFieldEndAccess
p4503
(dp4504
g690
S'x'
sbasbsg74
(i__main__
DelphiIdentAccess
p4505
(dp4506
g16
S'point2'
p4507
sg78
(lp4508
(idelphi
DelphiFieldEndAccess
p4509
(dp4510
g690
S'x'
sbasbsbsg385
(i__main__
DelphiIdentAccess
p4511
(dp4512
g16
S'dx2'
p4513
sg78
(lp4514
sbsba(i__main__
DelphiAssignStatement
p4515
(dp4516
g382
(idelphi
DelphiAddOp
p4517
(dp4518
g70
S'-'
sg71
(i__main__
DelphiIdentAccess
p4519
(dp4520
g16
S'point0'
p4521
sg78
(lp4522
(idelphi
DelphiFieldEndAccess
p4523
(dp4524
g690
S'y'
sbasbsg74
(i__main__
DelphiIdentAccess
p4525
(dp4526
g16
S'point2'
p4527
sg78
(lp4528
(idelphi
DelphiFieldEndAccess
p4529
(dp4530
g690
S'y'
sbasbsbsg385
(i__main__
DelphiIdentAccess
p4531
(dp4532
g16
S'dy2'
p4533
sg78
(lp4534
sbsba(idelphi
DelphiIfStatement
p4535
(dp4536
g441
(idelphi
DelphiRelOp
p4537
(dp4538
g448
(idelphi
DelphiNestedExpressionListAccess
p4539
(dp4540
g78
(lp4541
sg406
(lp4542
(idelphi
DelphiMulOp
p4543
(dp4544
g410
(i__main__
DelphiIdentAccess
p4545
(dp4546
g16
S'dy2'
p4547
sg78
(lp4548
sbsg415
S'*'
sg416
(i__main__
DelphiIdentAccess
p4549
(dp4550
g16
S'dx1'
p4551
sg78
(lp4552
sbsbasbsg453
(idelphi
DelphiNestedExpressionListAccess
p4553
(dp4554
g78
(lp4555
sg406
(lp4556
(idelphi
DelphiMulOp
p4557
(dp4558
g410
(i__main__
DelphiIdentAccess
p4559
(dp4560
g16
S'dx2'
p4561
sg78
(lp4562
sbsg415
S'*'
sg416
(i__main__
DelphiIdentAccess
p4563
(dp4564
g16
S'dy1'
p4565
sg78
(lp4566
sbsbasbsg457
S'>'
sbsg458
(idelphi
DelphiIfStatement
p4567
(dp4568
g441
(idelphi
DelphiRelOp
p4569
(dp4570
g448
(idelphi
DelphiNestedExpressionListAccess
p4571
(dp4572
g78
(lp4573
sg406
(lp4574
(idelphi
DelphiMulOp
p4575
(dp4576
g410
(i__main__
DelphiIdentAccess
p4577
(dp4578
g16
S'dy2'
p4579
sg78
(lp4580
sbsg415
S'*'
sg416
(i__main__
DelphiIdentAccess
p4581
(dp4582
g16
S'dx1'
p4583
sg78
(lp4584
sbsbasbsg453
(idelphi
DelphiNestedExpressionListAccess
p4585
(dp4586
g78
(lp4587
sg406
(lp4588
(idelphi
DelphiMulOp
p4589
(dp4590
g410
(i__main__
DelphiIdentAccess
p4591
(dp4592
g16
S'dx2'
p4593
sg78
(lp4594
sbsg415
S'*'
sg416
(i__main__
DelphiIdentAccess
p4595
(dp4596
g16
S'dy1'
p4597
sg78
(lp4598
sbsbasbsg457
S'<'
sbsg458
(idelphi
DelphiIfStatement
p4599
(dp4600
g441
(idelphi
DelphiAddOp
p4601
(dp4602
g70
S'or'
p4603
sg71
(idelphi
DelphiNestedExpressionListAccess
p4604
(dp4605
g78
(lp4606
sg406
(lp4607
(idelphi
DelphiRelOp
p4608
(dp4609
g448
(idelphi
DelphiNestedExpressionListAccess
p4610
(dp4611
g78
(lp4612
sg406
(lp4613
(idelphi
DelphiMulOp
p4614
(dp4615
g410
(i__main__
DelphiIdentAccess
p4616
(dp4617
g16
S'dy2'
p4618
sg78
(lp4619
sbsg415
S'*'
sg416
(i__main__
DelphiIdentAccess
p4620
(dp4621
g16
S'dy1'
p4622
sg78
(lp4623
sbsbasbsg453
(idelphi
DelphiIntegerValue
p4624
(dp4625
g14
S'0'
sbsg457
S'<'
sbasbsg74
(idelphi
DelphiNestedExpressionListAccess
p4626
(dp4627
g78
(lp4628
sg406
(lp4629
(idelphi
DelphiRelOp
p4630
(dp4631
g448
(idelphi
DelphiNestedExpressionListAccess
p4632
(dp4633
g78
(lp4634
sg406
(lp4635
(idelphi
DelphiMulOp
p4636
(dp4637
g410
(i__main__
DelphiIdentAccess
p4638
(dp4639
g16
S'dx2'
p4640
sg78
(lp4641
sbsg415
S'*'
sg416
(i__main__
DelphiIdentAccess
p4642
(dp4643
g16
S'dx1'
p4644
sg78
(lp4645
sbsbasbsg453
(idelphi
DelphiIntegerValue
p4646
(dp4647
g14
S'0'
sbsg457
S'<'
sbasbsbsg458
(idelphi
DelphiIfStatement
p4648
(dp4649
g441
(idelphi
DelphiRelOp
p4650
(dp4651
g448
(idelphi
DelphiNestedExpressionListAccess
p4652
(dp4653
g78
(lp4654
sg406
(lp4655
(idelphi
DelphiAddOp
p4656
(dp4657
g70
S'+'
sg71
(idelphi
DelphiNestedExpressionListAccess
p4658
(dp4659
g78
(lp4660
sg406
(lp4661
(idelphi
DelphiMulOp
p4662
(dp4663
g410
(i__main__
DelphiIdentAccess
p4664
(dp4665
g16
S'dy1'
p4666
sg78
(lp4667
sbsg415
S'*'
sg416
(i__main__
DelphiIdentAccess
p4668
(dp4669
g16
S'dy1'
p4670
sg78
(lp4671
sbsbasbsg74
(idelphi
DelphiNestedExpressionListAccess
p4672
(dp4673
g78
(lp4674
sg406
(lp4675
(idelphi
DelphiMulOp
p4676
(dp4677
g410
(i__main__
DelphiIdentAccess
p4678
(dp4679
g16
S'dx1'
p4680
sg78
(lp4681
sbsg415
S'*'
sg416
(i__main__
DelphiIdentAccess
p4682
(dp4683
g16
S'dx1'
p4684
sg78
(lp4685
sbsbasbsbasbsg453
(idelphi
DelphiNestedExpressionListAccess
p4686
(dp4687
g78
(lp4688
sg406
(lp4689
(idelphi
DelphiAddOp
p4690
(dp4691
g70
S'+'
sg71
(idelphi
DelphiNestedExpressionListAccess
p4692
(dp4693
g78
(lp4694
sg406
(lp4695
(idelphi
DelphiMulOp
p4696
(dp4697
g410
(i__main__
DelphiIdentAccess
p4698
(dp4699
g16
S'dy2'
p4700
sg78
(lp4701
sbsg415
S'*'
sg416
(i__main__
DelphiIdentAccess
p4702
(dp4703
g16
S'dy2'
p4704
sg78
(lp4705
sbsbasbsg74
(idelphi
DelphiNestedExpressionListAccess
p4706
(dp4707
g78
(lp4708
sg406
(lp4709
(idelphi
DelphiMulOp
p4710
(dp4711
g410
(i__main__
DelphiIdentAccess
p4712
(dp4713
g16
S'dx2'
p4714
sg78
(lp4715
sbsg415
S'*'
sg416
(i__main__
DelphiIdentAccess
p4716
(dp4717
g16
S'dx2'
p4718
sg78
(lp4719
sbsbasbsbasbsg457
S'<'
sbsg458
(i__main__
DelphiAssignStatement
p4720
(dp4721
g382
(i__main__
DelphiIdentAccess
p4722
(dp4723
g16
S'kDirectionUnknown'
p4724
sg78
(lp4725
sbsg385
(i__main__
DelphiIdentAccess
p4726
(dp4727
g16
S'result'
p4728
sg78
(lp4729
sbsbsg459
(i__main__
DelphiAssignStatement
p4730
(dp4731
g382
(i__main__
DelphiIdentAccess
p4732
(dp4733
g16
S'kDirectionClockwise'
p4734
sg78
(lp4735
sbsg385
(i__main__
DelphiIdentAccess
p4736
(dp4737
g16
S'result'
p4738
sg78
(lp4739
sbsbsbsg459
(i__main__
DelphiAssignStatement
p4740
(dp4741
g382
(i__main__
DelphiIdentAccess
p4742
(dp4743
g16
S'kDirectionCounterClockwise'
p4744
sg78
(lp4745
sbsg385
(i__main__
DelphiIdentAccess
p4746
(dp4747
g16
S'result'
p4748
sg78
(lp4749
sbsbsbsg459
(i__main__
DelphiAssignStatement
p4750
(dp4751
g382
(i__main__
DelphiIdentAccess
p4752
(dp4753
g16
S'kDirectionCounterClockwise'
p4754
sg78
(lp4755
sbsg385
(i__main__
DelphiIdentAccess
p4756
(dp4757
g16
S'result'
p4758
sg78
(lp4759
sbsbsbsg459
(i__main__
DelphiAssignStatement
p4760
(dp4761
g382
(i__main__
DelphiIdentAccess
p4762
(dp4763
g16
S'kDirectionClockwise'
p4764
sg78
(lp4765
sbsg385
(i__main__
DelphiIdentAccess
p4766
(dp4767
g16
S'result'
p4768
sg78
(lp4769
sbsbsbasbsg638
(lp4770
(i__main__
DelphiVarSection
p4771
(dp4772
g48
I0
sg51
(lp4773
(idelphi
DelphiVarDecl
p4774
(dp4775
g11
Nsg55
(lp4776
S'dx1'
p4777
aS'dy1'
p4778
aS'dx2'
p4779
aS'dy2'
p4780
asg18
(i__main__
DelphiPrimitiveType
p4781
(dp4782
g21
g62
sbsbasbasbsba(i__main__
DelphiProceduralImplementation
p4783
(dp4784
g352
(i__main__
DelphiProceduralDeclaration
p4785
(dp4786
g196
(lp4787
(i__main__
DelphiFormalParameter
p4788
(dp4789
g200
Nsg201
(lp4790
S'point'
p4791
asg18
(i__main__
DelphiNamedType
p4792
(dp4793
g21
S'TPoint'
p4794
sg224
g1
sg225
Nsbsg206
g4403
sba(i__main__
DelphiFormalParameter
p4795
(dp4796
g200
Nsg201
(lp4797
S'triangle'
p4798
asg18
(i__main__
DelphiArrayType
p4799
(dp4800
g18
(i__main__
DelphiNamedType
p4801
(dp4802
g21
S'TPoint'
p4803
sg224
g1
sg225
Nsbsg63
(lp4804
sbsg206
g4403
sbasg83
S'pointInTriangle'
p4805
sg208
(i__main__
DelphiPrimitiveType
p4806
(dp4807
g21
g3325
sbsbsg83
g4805
sg208
(i__main__
DelphiPrimitiveType
p4808
(dp4809
g21
g3325
sbsg354
(lp4810
sg356
(lp4811
sg358
(lp4812
S'point'
p4813
aS'triangle'
p4814
asg361
(dp4815
g4814
(i__main__
DelphiArrayType
p4816
(dp4817
g18
(i__main__
DelphiNamedType
p4818
(dp4819
g21
S'TPoint'
p4820
sg224
g1
sg225
Nsbsg63
(lp4821
sbsg4813
(i__main__
DelphiNamedType
p4822
(dp4823
g21
S'TPoint'
p4824
sg224
g1
sg225
Nsbssg196
(lp4825
(i__main__
DelphiFormalParameter
p4826
(dp4827
g200
Nsg201
(lp4828
g4813
asg18
g4822
sg206
g4403
sba(i__main__
DelphiFormalParameter
p4829
(dp4830
g200
Nsg201
(lp4831
g4814
asg18
g4816
sg206
g4403
sbasg366
(lp4832
sg368
(i__main__
DelphiBlock
p4833
(dp4834
g371
(idelphi
DelphiCompoundStatement
p4835
(dp4836
g374
(lp4837
(i__main__
DelphiAssignStatement
p4838
(dp4839
g382
(i__main__
DelphiIdentAccess
p4840
(dp4841
g16
S'false'
p4842
sg78
(lp4843
sbsg385
(i__main__
DelphiIdentAccess
p4844
(dp4845
g16
S'result'
p4846
sg78
(lp4847
sbsba(idelphi
DelphiIfStatement
p4848
(dp4849
g441
(idelphi
DelphiMulOp
p4850
(dp4851
g410
(idelphi
DelphiNestedExpressionListAccess
p4852
(dp4853
g78
(lp4854
sg406
(lp4855
(idelphi
DelphiRelOp
p4856
(dp4857
g448
(i__main__
DelphiIdentAccess
p4858
(dp4859
g16
S'triangle'
p4860
sg78
(lp4861
(idelphi
DelphiArrayEndAccess
p4862
(dp4863
g406
(lp4864
(idelphi
DelphiIntegerValue
p4865
(dp4866
g14
S'1'
sbasba(idelphi
DelphiFieldEndAccess
p4867
(dp4868
g690
S'y'
sbasbsg453
(i__main__
DelphiIdentAccess
p4869
(dp4870
g16
S'triangle'
p4871
sg78
(lp4872
(idelphi
DelphiArrayEndAccess
p4873
(dp4874
g406
(lp4875
(idelphi
DelphiIntegerValue
p4876
(dp4877
g14
S'2'
sbasba(idelphi
DelphiFieldEndAccess
p4878
(dp4879
g690
S'y'
sbasbsg457
S'='
sbasbsg415
S'and'
p4880
sg416
(idelphi
DelphiMulOp
p4881
(dp4882
g410
(idelphi
DelphiNestedExpressionListAccess
p4883
(dp4884
g78
(lp4885
sg406
(lp4886
(idelphi
DelphiRelOp
p4887
(dp4888
g448
(i__main__
DelphiIdentAccess
p4889
(dp4890
g16
S'triangle'
p4891
sg78
(lp4892
(idelphi
DelphiArrayEndAccess
p4893
(dp4894
g406
(lp4895
(idelphi
DelphiIntegerValue
p4896
(dp4897
g14
S'0'
sbasba(idelphi
DelphiFieldEndAccess
p4898
(dp4899
g690
S'y'
sbasbsg453
(i__main__
DelphiIdentAccess
p4900
(dp4901
g16
S'triangle'
p4902
sg78
(lp4903
(idelphi
DelphiArrayEndAccess
p4904
(dp4905
g406
(lp4906
(idelphi
DelphiIntegerValue
p4907
(dp4908
g14
S'1'
sbasba(idelphi
DelphiFieldEndAccess
p4909
(dp4910
g690
S'y'
sbasbsg457
S'='
sbasbsg415
g4880
sg416
(idelphi
DelphiMulOp
p4911
(dp4912
g410
(idelphi
DelphiNestedExpressionListAccess
p4913
(dp4914
g78
(lp4915
sg406
(lp4916
(idelphi
DelphiRelOp
p4917
(dp4918
g448
(i__main__
DelphiIdentAccess
p4919
(dp4920
g16
S'triangle'
p4921
sg78
(lp4922
(idelphi
DelphiArrayEndAccess
p4923
(dp4924
g406
(lp4925
(idelphi
DelphiIntegerValue
p4926
(dp4927
g14
S'1'
sbasba(idelphi
DelphiFieldEndAccess
p4928
(dp4929
g690
S'x'
sbasbsg453
(i__main__
DelphiIdentAccess
p4930
(dp4931
g16
S'triangle'
p4932
sg78
(lp4933
(idelphi
DelphiArrayEndAccess
p4934
(dp4935
g406
(lp4936
(idelphi
DelphiIntegerValue
p4937
(dp4938
g14
S'2'
sbasba(idelphi
DelphiFieldEndAccess
p4939
(dp4940
g690
S'x'
sbasbsg457
S'='
sbasbsg415
g4880
sg416
(idelphi
DelphiNestedExpressionListAccess
p4941
(dp4942
g78
(lp4943
sg406
(lp4944
(idelphi
DelphiRelOp
p4945
(dp4946
g448
(i__main__
DelphiIdentAccess
p4947
(dp4948
g16
S'triangle'
p4949
sg78
(lp4950
(idelphi
DelphiArrayEndAccess
p4951
(dp4952
g406
(lp4953
(idelphi
DelphiIntegerValue
p4954
(dp4955
g14
S'0'
sbasba(idelphi
DelphiFieldEndAccess
p4956
(dp4957
g690
S'x'
sbasbsg453
(i__main__
DelphiIdentAccess
p4958
(dp4959
g16
S'triangle'
p4960
sg78
(lp4961
(idelphi
DelphiArrayEndAccess
p4962
(dp4963
g406
(lp4964
(idelphi
DelphiIntegerValue
p4965
(dp4966
g14
S'1'
sbasba(idelphi
DelphiFieldEndAccess
p4967
(dp4968
g690
S'x'
sbasbsg457
S'='
sbasbsbsbsbsg458
Nsg459
(i__main__
DelphiExitStatement
p4969
(dp4970
g3444
g4783
sbsba(i__main__
DelphiAssignStatement
p4971
(dp4972
g382
(i__main__
DelphiIdentAccess
p4973
(dp4974
g16
S'clockwise'
p4975
sg78
(lp4976
(idelphi
DelphiFunctionEndAccess
p4977
(dp4978
g406
(lp4979
(i__main__
DelphiIdentAccess
p4980
(dp4981
g16
S'point'
p4982
sg78
(lp4983
sba(i__main__
DelphiIdentAccess
p4984
(dp4985
g16
S'triangle'
p4986
sg78
(lp4987
(idelphi
DelphiArrayEndAccess
p4988
(dp4989
g406
(lp4990
(idelphi
DelphiIntegerValue
p4991
(dp4992
g14
S'0'
sbasbasba(i__main__
DelphiIdentAccess
p4993
(dp4994
g16
S'triangle'
p4995
sg78
(lp4996
(idelphi
DelphiArrayEndAccess
p4997
(dp4998
g406
(lp4999
(idelphi
DelphiIntegerValue
p5000
(dp5001
g14
S'1'
sbasbasbasbasbsg385
(i__main__
DelphiIdentAccess
p5002
(dp5003
g16
S'first'
p5004
sg78
(lp5005
sbsba(i__main__
DelphiAssignStatement
p5006
(dp5007
g382
(i__main__
DelphiIdentAccess
p5008
(dp5009
g16
S'clockwise'
p5010
sg78
(lp5011
(idelphi
DelphiFunctionEndAccess
p5012
(dp5013
g406
(lp5014
(i__main__
DelphiIdentAccess
p5015
(dp5016
g16
S'point'
p5017
sg78
(lp5018
sba(i__main__
DelphiIdentAccess
p5019
(dp5020
g16
S'triangle'
p5021
sg78
(lp5022
(idelphi
DelphiArrayEndAccess
p5023
(dp5024
g406
(lp5025
(idelphi
DelphiIntegerValue
p5026
(dp5027
g14
S'1'
sbasbasba(i__main__
DelphiIdentAccess
p5028
(dp5029
g16
S'triangle'
p5030
sg78
(lp5031
(idelphi
DelphiArrayEndAccess
p5032
(dp5033
g406
(lp5034
(idelphi
DelphiIntegerValue
p5035
(dp5036
g14
S'2'
sbasbasbasbasbsg385
(i__main__
DelphiIdentAccess
p5037
(dp5038
g16
S'second'
p5039
sg78
(lp5040
sbsba(i__main__
DelphiAssignStatement
p5041
(dp5042
g382
(i__main__
DelphiIdentAccess
p5043
(dp5044
g16
S'clockwise'
p5045
sg78
(lp5046
(idelphi
DelphiFunctionEndAccess
p5047
(dp5048
g406
(lp5049
(i__main__
DelphiIdentAccess
p5050
(dp5051
g16
S'point'
p5052
sg78
(lp5053
sba(i__main__
DelphiIdentAccess
p5054
(dp5055
g16
S'triangle'
p5056
sg78
(lp5057
(idelphi
DelphiArrayEndAccess
p5058
(dp5059
g406
(lp5060
(idelphi
DelphiIntegerValue
p5061
(dp5062
g14
S'2'
sbasbasba(i__main__
DelphiIdentAccess
p5063
(dp5064
g16
S'triangle'
p5065
sg78
(lp5066
(idelphi
DelphiArrayEndAccess
p5067
(dp5068
g406
(lp5069
(idelphi
DelphiIntegerValue
p5070
(dp5071
g14
S'0'
sbasbasbasbasbsg385
(i__main__
DelphiIdentAccess
p5072
(dp5073
g16
S'third'
p5074
sg78
(lp5075
sbsba(i__main__
DelphiAssignStatement
p5076
(dp5077
g382
(idelphi
DelphiMulOp
p5078
(dp5079
g410
(idelphi
DelphiNestedExpressionListAccess
p5080
(dp5081
g78
(lp5082
sg406
(lp5083
(idelphi
DelphiRelOp
p5084
(dp5085
g448
(i__main__
DelphiIdentAccess
p5086
(dp5087
g16
S'second'
p5088
sg78
(lp5089
sbsg453
(i__main__
DelphiIdentAccess
p5090
(dp5091
g16
S'third'
p5092
sg78
(lp5093
sbsg457
S'='
sbasbsg415
g4880
sg416
(idelphi
DelphiNestedExpressionListAccess
p5094
(dp5095
g78
(lp5096
sg406
(lp5097
(idelphi
DelphiRelOp
p5098
(dp5099
g448
(i__main__
DelphiIdentAccess
p5100
(dp5101
g16
S'first'
p5102
sg78
(lp5103
sbsg453
(i__main__
DelphiIdentAccess
p5104
(dp5105
g16
S'second'
p5106
sg78
(lp5107
sbsg457
S'='
sbasbsbsg385
(i__main__
DelphiIdentAccess
p5108
(dp5109
g16
S'result'
p5110
sg78
(lp5111
sbsbasbsg638
(lp5112
(i__main__
DelphiVarSection
p5113
(dp5114
g48
I0
sg51
(lp5115
(idelphi
DelphiVarDecl
p5116
(dp5117
g11
Nsg55
(lp5118
S'first'
p5119
aS'second'
p5120
aS'third'
p5121
asg18
(i__main__
DelphiPrimitiveType
p5122
(dp5123
g21
g159
sbsbasbasbsbasS'includedUnits'
p5124
NsS'implementationUses'
p5125
Nsg83
S'U3dsupport'
p5126
sS'constSections'
p5127
(lp5128
g5
asS'globalsInProperCase'
p5129
NsS'interfaceUses'
p5130
(lp5131
S'delphi_compatability'
p5132
aS'Windows'
p5133
aS'Graphics'
p5134
aS'utdo'
p5135
aS'usupport'
p5136
asS'finalCommentToken'
p5137
(i__main__
PassStatement
p5138
(dp5139
g638
(lp5140
sbsS'varSections'
p5141
(lp5142
g49
asS'globals'
p5143
NsS'originalFileName'
p5144
S'../../PlantStudioInPython/converted_source/used/U3dsupport.pas'
p5145
sS'proceduralImplementations'
p5146
(dp5147
S'fasttriginitialize'
p5148
g4007
sS'fasttrigcos'
p5149
g4132
sS'clockwise'
p5150
g4391
sS'pointintriangle'
p5151
g4783
sS'fasttrigsin'
p5152
g4264
ssS'fileName'
p5153
S'/Users/pdf/Documents/workspace/PlantStudioInPython/converted_source/used/U3dsupport.pas'
p5154
sS'proceduralDeclarations'
p5155
(dp5156
S'fasttriginitialize'
p5157
g4009
sS'fasttrigcos'
p5158
g4134
sS'clockwise'
p5159
g4393
sS'pointintriangle'
p5160
g4785
sS'fasttrigsin'
p5161
g4266
ssS'types'
p5162
(dp5163
S'vertextriangle'
p5164
g144
sS'kfmatrix'
p5165
g166
sS'trealrect'
p5166
g105
sS'vertex'
p5167
g131
sS'kftriangle'
p5168
g3239
ssb.