(i__main__
DelphiUnit
p1
(dp2
S'sectionsInOrderDefined'
p3
(lp4
(i__main__
DelphiClass
p5
(dp6
S'variableNamesInProperCase'
p7
(dp8
S'widthmultiplier_pct'
p9
S'widthMultiplier_pct'
p10
sS'addrotations'
p11
S'addRotations'
p12
sS'xrotation'
p13
S'xRotation'
p14
sS'hide'
p15
S'hide'
p16
sS'facecolor'
p17
S'faceColor'
p18
sS'partid'
p19
S'partID'
p20
sS'typeofpart'
p21
S'typeOfPart'
p22
sS'scalemultiplier_pct'
p23
S'scaleMultiplier_pct'
p24
sS'lengthmultiplier_pct'
p25
S'lengthMultiplier_pct'
p26
sS'yrotation'
p27
S'yRotation'
p28
sS'changecolors'
p29
S'changeColors'
p30
sS'propagatescale'
p31
S'propagateScale'
p32
sS'applyatage'
p33
S'applyAtAge'
p34
sS'linecolor'
p35
S'lineColor'
p36
sS'propagatecolors'
p37
S'propagateColors'
p38
sS'multiplyscale'
p39
S'multiplyScale'
p40
sS'backfacecolor'
p41
S'backfaceColor'
p42
sS'zrotation'
p43
S'zRotation'
p44
ssS'name'
p45
S'PdPlantDrawingAmendment'
p46
sS'methodDeclarations'
p47
(dp48
S'readfromtextfile'
p49
(i__main__
DelphiMethodDeclaration
p50
(dp51
g45
S'readFromTextFile'
p52
sS'formalParameters'
p53
(lp54
(i__main__
DelphiFormalParameter
p55
(dp56
S'initialValue'
p57
NsS'names'
p58
(lp59
S'inputFile'
p60
asS'theType'
p61
(i__main__
DelphiNamedType
p62
(dp63
S'typeName'
p64
S'TextFile'
p65
sS'unitDefinedIn'
p66
g1
sS'unitName'
p67
NsbsS'parameterVariety'
p68
S'var'
p69
sbasS'className'
p70
g46
sS'resultType'
p71
NsS'isClassMethod'
p72
I0
sS'methodType'
p73
S'procedure'
p74
sbsS'create'
p75
(i__main__
DelphiMethodDeclaration
p76
(dp77
g45
S'create'
p78
sg53
(lp79
sg70
g46
sg71
Nsg72
I0
sg73
S'constructor'
p80
sbsS'streamdatawithfiler'
p81
(i__main__
DelphiMethodDeclaration
p82
(dp83
g45
S'streamDataWithFiler'
p84
sg53
(lp85
(i__main__
DelphiFormalParameter
p86
(dp87
g57
Nsg58
(lp88
S'filer'
p89
asg61
(i__main__
DelphiNamedType
p90
(dp91
g64
S'PdFiler'
p92
sg66
g1
sg67
Nsbsg68
Nsba(i__main__
DelphiFormalParameter
p93
(dp94
g57
Nsg58
(lp95
S'cvir'
p96
asg61
(i__main__
DelphiNamedType
p97
(dp98
g64
S'PdClassAndVersionInformationRecord'
p99
sg66
g1
sg67
Nsbsg68
S'const'
p100
sbasg70
g46
sg71
Nsg72
I0
sg73
g74
sbsS'readfrommemo'
p101
(i__main__
DelphiMethodDeclaration
p102
(dp103
g45
S'readFromMemo'
p104
sg53
(lp105
(i__main__
DelphiFormalParameter
p106
(dp107
g57
Nsg58
(lp108
S'aMemo'
p109
asg61
(i__main__
DelphiNamedType
p110
(dp111
g64
S'TMemo'
p112
sg66
g1
sg67
Nsbsg68
Nsba(i__main__
DelphiFormalParameter
p113
(dp114
g57
Nsg58
(lp115
S'readingMemoLine'
p116
asg61
(i__main__
DelphiPrimitiveType
p117
(dp118
g64
S'longint'
p119
sbsg68
g69
sbasg70
g46
sg71
Nsg72
I0
sg73
g74
sbsS'classandversioninformation'
p120
(i__main__
DelphiMethodDeclaration
p121
(dp122
g45
S'classAndVersionInformation'
p123
sg53
(lp124
(i__main__
DelphiFormalParameter
p125
(dp126
g57
Nsg58
(lp127
S'cvir'
p128
asg61
(i__main__
DelphiNamedType
p129
(dp130
g64
S'PdClassAndVersionInformationRecord'
p131
sg66
g1
sg67
Nsbsg68
g69
sbasg70
g46
sg71
Nsg72
I0
sg73
g74
sbsS'writetotextfile'
p132
(i__main__
DelphiMethodDeclaration
p133
(dp134
g45
S'writeToTextFile'
p135
sg53
(lp136
(i__main__
DelphiFormalParameter
p137
(dp138
g57
Nsg58
(lp139
S'outputFile'
p140
asg61
(i__main__
DelphiNamedType
p141
(dp142
g64
S'TextFile'
p143
sg66
g1
sg67
Nsbsg68
g69
sbasg70
g46
sg71
Nsg72
I0
sg73
g74
sbsS'writetomemo'
p144
(i__main__
DelphiMethodDeclaration
p145
(dp146
g45
S'writeToMemo'
p147
sg53
(lp148
(i__main__
DelphiFormalParameter
p149
(dp150
g57
Nsg58
(lp151
S'aMemo'
p152
asg61
(i__main__
DelphiNamedType
p153
(dp154
g64
S'TMemo'
p155
sg66
g1
sg67
Nsbsg68
Nsbasg70
g46
sg71
Nsg72
I0
sg73
g74
sbsS'getfullname'
p156
(i__main__
DelphiMethodDeclaration
p157
(dp158
g45
S'getFullName'
p159
sg53
(lp160
sg70
g46
sg71
(i__main__
DelphiPrimitiveType
p161
(dp162
g64
S'string'
p163
sbsg72
I0
sg73
S'function'
p164
sbsS'setfield'
p165
(i__main__
DelphiMethodDeclaration
p166
(dp167
g45
S'setField'
p168
sg53
(lp169
(i__main__
DelphiFormalParameter
p170
(dp171
g57
Nsg58
(lp172
S'varName'
p173
aS'varValue'
p174
asg61
(i__main__
DelphiPrimitiveType
p175
(dp176
g64
g163
sbsg68
Nsbasg70
g46
sg71
(i__main__
DelphiPrimitiveType
p177
(dp178
g64
S'boolean'
p179
sbsg72
I0
sg73
g164
sbssS'superclassNamedTypes'
p180
(lp181
(i__main__
DelphiNamedType
p182
(dp183
g64
S'PdStreamableObject'
p184
sg66
g1
sg67
NsbasS'variableNames'
p185
(dp186
S'widthmultiplier_pct'
p187
(i__main__
DelphiPrimitiveType
p188
(dp189
g64
S'smallint'
p190
sbsS'addrotations'
p191
(i__main__
DelphiPrimitiveType
p192
(dp193
g64
g179
sbsS'xrotation'
p194
(i__main__
DelphiPrimitiveType
p195
(dp196
g64
S'single'
p197
sbsS'hide'
p198
(i__main__
DelphiPrimitiveType
p199
(dp200
g64
g179
sbsS'facecolor'
p201
(i__main__
DelphiNamedType
p202
(dp203
g64
S'TColorRef'
p204
sg66
g1
sg67
NsbsS'partid'
p205
(i__main__
DelphiPrimitiveType
p206
(dp207
g64
g119
sbsS'typeofpart'
p208
(i__main__
DelphiPrimitiveType
p209
(dp210
g64
g163
sbsS'scalemultiplier_pct'
p211
g188
sS'lengthmultiplier_pct'
p212
g188
sS'yrotation'
p213
g195
sS'changecolors'
p214
(i__main__
DelphiPrimitiveType
p215
(dp216
g64
g179
sbsS'propagatescale'
p217
(i__main__
DelphiPrimitiveType
p218
(dp219
g64
g179
sbsS'applyatage'
p220
(i__main__
DelphiPrimitiveType
p221
(dp222
g64
g190
sbsS'linecolor'
p223
g202
sS'propagatecolors'
p224
(i__main__
DelphiPrimitiveType
p225
(dp226
g64
g179
sbsS'multiplyscale'
p227
(i__main__
DelphiPrimitiveType
p228
(dp229
g64
g179
sbsS'backfacecolor'
p230
g202
sS'zrotation'
p231
g195
ssS'methodNamesInDefinedOrder'
p232
(lp233
S'create'
p234
aS'readfromtextfile'
p235
aS'readfrommemo'
p236
aS'setfield'
p237
aS'writetotextfile'
p238
aS'writetomemo'
p239
aS'getfullname'
p240
aS'streamdatawithfiler'
p241
aS'classandversioninformation'
p242
asS'methodImplementations'
p243
(dp244
S'readfromtextfile'
p245
(i__main__
DelphiMethodImplementation
p246
(dp247
S'originalDeclaration'
p248
g50
sg45
g52
sg53
(lp249
(i__main__
DelphiFormalParameter
p250
(dp251
g57
Nsg58
(lp252
S'inputFile'
p253
asg61
(i__main__
DelphiNamedType
p254
(dp255
g64
S'TextFile'
p256
sg66
g1
sg67
Nsbsg68
g69
sbasS'varParamIndexes'
p257
(lp258
sS'varParamsSkipped'
p259
(lp260
g253
asS'argNames'
p261
(lp262
S'self'
p263
ag253
asS'argTypes'
p264
(dp265
g253
g254
ssg70
S'PdPlantDrawingAmendment'
p266
sg71
NsS'varParamNames'
p267
(lp268
sg72
I0
sg73
g74
sS'block'
p269
(i__main__
DelphiBlock
p270
(dp271
S'compoundStatement'
p272
(idelphi
DelphiCompoundStatement
p273
(dp274
S'statements'
p275
(lp276
(idelphi
DelphiWhileStatement
p277
(dp278
S'statement'
p279
(idelphi
DelphiCompoundStatement
p280
(dp281
g275
(lp282
(i__main__
DelphiAssignStatement
p283
(dp284
S'newValueExpression'
p285
NsS'destinationExpression'
p286
(i__main__
DelphiIdentAccess
p287
(dp288
S'ident'
p289
S'readln'
p290
sS'endAccessList'
p291
(lp292
(idelphi
DelphiFunctionEndAccess
p293
(dp294
S'expressionList'
p295
(lp296
(i__main__
DelphiIdentAccess
p297
(dp298
g289
S'inputFile'
p299
sg291
(lp300
sba(i__main__
DelphiIdentAccess
p301
(dp302
g289
S'inputLine'
p303
sg291
(lp304
sbasbasbsS'commentLinesBefore'
p305
(lp306
S' plant reads start line; just continue from there\r'
p307
asba(idelphi
DelphiIfStatement
p308
(dp309
S'expression'
p310
(idelphi
DelphiNestedExpressionListAccess
p311
(dp312
g291
(lp313
sg295
(lp314
(idelphi
DelphiRelOp
p315
(dp316
S'simpleExpression1'
p317
(i__main__
DelphiIdentAccess
p318
(dp319
g289
S'trim'
p320
sg291
(lp321
(idelphi
DelphiFunctionEndAccess
p322
(dp323
g295
(lp324
(i__main__
DelphiIdentAccess
p325
(dp326
g289
S'inputLine'
p327
sg291
(lp328
sbasbasbsS'simpleExpression2'
p329
(idelphi
DelphiStringAccess
p330
(dp331
g291
(lp332
sg163
(idelphi
DelphiStringValue
p333
(dp334
g163
S''
sbsbsS'relOp'
p335
S'='
sbasbsS'ifFalseStatement'
p336
NsS'ifTrueStatement'
p337
(idelphi
DelphiContinueStatement
p338
(dp339
bsba(i__main__
DelphiAssignStatement
p340
(dp341
g285
(i__main__
DelphiIdentAccess
p342
(dp343
g289
S'stringUpTo'
p344
sg291
(lp345
(idelphi
DelphiFunctionEndAccess
p346
(dp347
g295
(lp348
(i__main__
DelphiIdentAccess
p349
(dp350
g289
S'inputLine'
p351
sg291
(lp352
sba(idelphi
DelphiStringAccess
p353
(dp354
g291
(lp355
sg163
(idelphi
DelphiStringValue
p356
(dp357
g163
S'='
sbsbasbasbsg286
(i__main__
DelphiIdentAccess
p358
(dp359
g289
S'varName'
p360
sg291
(lp361
sbsba(i__main__
DelphiAssignStatement
p362
(dp363
g285
(i__main__
DelphiIdentAccess
p364
(dp365
g289
S'stringBeyond'
p366
sg291
(lp367
(idelphi
DelphiFunctionEndAccess
p368
(dp369
g295
(lp370
(i__main__
DelphiIdentAccess
p371
(dp372
g289
S'inputLine'
p373
sg291
(lp374
sba(idelphi
DelphiStringAccess
p375
(dp376
g291
(lp377
sg163
(idelphi
DelphiStringValue
p378
(dp379
g163
S'='
sbsbasbasbsg286
(i__main__
DelphiIdentAccess
p380
(dp381
g289
S'varValue'
p382
sg291
(lp383
sbsba(idelphi
DelphiIfStatement
p384
(dp385
g310
(idelphi
DelphiNot
p386
(dp387
S'factor'
p388
(i__main__
DelphiIdentAccess
p389
(dp390
g289
S'setField'
p391
sg291
(lp392
(idelphi
DelphiFunctionEndAccess
p393
(dp394
g295
(lp395
(i__main__
DelphiIdentAccess
p396
(dp397
g289
S'varName'
p398
sg291
(lp399
sba(i__main__
DelphiIdentAccess
p400
(dp401
g289
S'varValue'
p402
sg291
(lp403
sbasbasbsbsg336
Nsg337
(idelphi
DelphiBreakStatement
p404
(dp405
bsbasbsS'whileExpression'
p406
(idelphi
DelphiNot
p407
(dp408
g388
(i__main__
DelphiIdentAccess
p409
(dp410
g289
S'eof'
p411
sg291
(lp412
(idelphi
DelphiFunctionEndAccess
p413
(dp414
g295
(lp415
(i__main__
DelphiIdentAccess
p416
(dp417
g289
S'inputFile'
p418
sg291
(lp419
sbasbasbsbsba(idelphi
DelphiIfStatement
p420
(dp421
g310
(idelphi
DelphiRelOp
p422
(dp423
g317
(i__main__
DelphiIdentAccess
p424
(dp425
g289
S'pos'
p426
sg291
(lp427
(idelphi
DelphiFunctionEndAccess
p428
(dp429
g295
(lp430
(i__main__
DelphiIdentAccess
p431
(dp432
g289
S'upperCase'
p433
sg291
(lp434
(idelphi
DelphiFunctionEndAccess
p435
(dp436
g295
(lp437
(i__main__
DelphiIdentAccess
p438
(dp439
g289
S'kEndAmendmentString'
p440
sg291
(lp441
sbasbasba(i__main__
DelphiIdentAccess
p442
(dp443
g289
S'upperCase'
p444
sg291
(lp445
(idelphi
DelphiFunctionEndAccess
p446
(dp447
g295
(lp448
(i__main__
DelphiIdentAccess
p449
(dp450
g289
S'inputLine'
p451
sg291
(lp452
sbasbasbasbasbsg329
(idelphi
DelphiIntegerValue
p453
(dp454
g163
S'0'
sbsg335
S'<='
p455
sbsg336
Nsg337
(idelphi
DelphiRaiseStatement
p456
(dp457
g310
(i__main__
DelphiIdentAccess
p458
(dp459
g289
S'Exception'
p460
sg291
(lp461
(idelphi
DelphiFieldEndAccess
p462
(dp463
S'field'
p464
S'create'
p465
sba(idelphi
DelphiFunctionEndAccess
p466
(dp467
g295
(lp468
(idelphi
DelphiStringAccess
p469
(dp470
g291
(lp471
sg163
(idelphi
DelphiStringValue
p472
(dp473
g163
S'Problem: Expected end of posing change.'
p474
sbsbasbasbsbsbasbsS'limitedDeclSectionList'
p475
(lp476
(i__main__
DelphiVarSection
p477
(dp478
S'atTopLevel'
p479
I0
sS'varDeclList'
p480
(lp481
(idelphi
DelphiVarDecl
p482
(dp483
S'constExpression'
p484
NsS'identList'
p485
(lp486
S'inputLine'
p487
aS'varName'
p488
aS'varValue'
p489
asg61
(i__main__
DelphiPrimitiveType
p490
(dp491
g64
g163
sbsbasbasbsbsS'create'
p492
(i__main__
DelphiMethodImplementation
p493
(dp494
g248
g76
sg45
g78
sg53
(lp495
sg257
(lp496
sg259
(lp497
sg261
(lp498
g263
asg264
(dp499
sg70
S'PdPlantDrawingAmendment'
p500
sg71
Nsg267
(lp501
sg72
I0
sg73
g80
sg269
(i__main__
DelphiBlock
p502
(dp503
g272
(idelphi
DelphiCompoundStatement
p504
(dp505
g275
(lp506
(i__main__
DelphiAssignStatement
p507
(dp508
g285
(idelphi
DelphiIntegerValue
p509
(dp510
g163
S'100'
p511
sbsg286
(i__main__
DelphiIdentAccess
p512
(dp513
g289
S'scaleMultiplier_pct'
p514
sg291
(lp515
sbsba(i__main__
DelphiAssignStatement
p516
(dp517
g285
(idelphi
DelphiIntegerValue
p518
(dp519
g163
S'100'
p520
sbsg286
(i__main__
DelphiIdentAccess
p521
(dp522
g289
S'lengthMultiplier_pct'
p523
sg291
(lp524
sbsba(i__main__
DelphiAssignStatement
p525
(dp526
g285
(idelphi
DelphiIntegerValue
p527
(dp528
g163
S'100'
p529
sbsg286
(i__main__
DelphiIdentAccess
p530
(dp531
g289
S'widthMultiplier_pct'
p532
sg291
(lp533
sbsba(i__main__
DelphiAssignStatement
p534
(dp535
g285
(idelphi
DelphiIntegerValue
p536
(dp537
g163
S'0'
sbsg286
(i__main__
DelphiIdentAccess
p538
(dp539
g289
S'xRotation'
p540
sg291
(lp541
sbsba(i__main__
DelphiAssignStatement
p542
(dp543
g285
(idelphi
DelphiIntegerValue
p544
(dp545
g163
S'0'
sbsg286
(i__main__
DelphiIdentAccess
p546
(dp547
g289
S'yRotation'
p548
sg291
(lp549
sbsba(i__main__
DelphiAssignStatement
p550
(dp551
g285
(idelphi
DelphiIntegerValue
p552
(dp553
g163
S'0'
sbsg286
(i__main__
DelphiIdentAccess
p554
(dp555
g289
S'zRotation'
p556
sg291
(lp557
sbsba(i__main__
DelphiAssignStatement
p558
(dp559
g285
(i__main__
DelphiIdentAccess
p560
(dp561
g289
S'support_rgb'
p562
sg291
(lp563
(idelphi
DelphiFunctionEndAccess
p564
(dp565
g295
(lp566
(idelphi
DelphiIntegerValue
p567
(dp568
g163
S'50'
p569
sba(idelphi
DelphiIntegerValue
p570
(dp571
g163
S'200'
p572
sba(idelphi
DelphiIntegerValue
p573
(dp574
g163
S'50'
p575
sbasbasbsg286
(i__main__
DelphiIdentAccess
p576
(dp577
g289
S'faceColor'
p578
sg291
(lp579
sbsba(i__main__
DelphiAssignStatement
p580
(dp581
g285
(i__main__
DelphiIdentAccess
p582
(dp583
g289
S'support_rgb'
p584
sg291
(lp585
(idelphi
DelphiFunctionEndAccess
p586
(dp587
g295
(lp588
(idelphi
DelphiIntegerValue
p589
(dp590
g163
S'20'
p591
sba(idelphi
DelphiIntegerValue
p592
(dp593
g163
S'150'
p594
sba(idelphi
DelphiIntegerValue
p595
(dp596
g163
S'20'
p597
sbasbasbsg286
(i__main__
DelphiIdentAccess
p598
(dp599
g289
S'backfaceColor'
p600
sg291
(lp601
sbsba(i__main__
DelphiAssignStatement
p602
(dp603
g285
(i__main__
DelphiIdentAccess
p604
(dp605
g289
S'support_rgb'
p606
sg291
(lp607
(idelphi
DelphiFunctionEndAccess
p608
(dp609
g295
(lp610
(idelphi
DelphiIntegerValue
p611
(dp612
g163
S'40'
p613
sba(idelphi
DelphiIntegerValue
p614
(dp615
g163
S'100'
p616
sba(idelphi
DelphiIntegerValue
p617
(dp618
g163
S'40'
p619
sbasbasbsg286
(i__main__
DelphiIdentAccess
p620
(dp621
g289
S'lineColor'
p622
sg291
(lp623
sbsbasbsg475
(lp624
sbsbsS'streamdatawithfiler'
p625
(i__main__
DelphiMethodImplementation
p626
(dp627
g248
g82
sg45
g84
sg53
(lp628
(i__main__
DelphiFormalParameter
p629
(dp630
g57
Nsg58
(lp631
S'filer'
p632
asg61
(i__main__
DelphiNamedType
p633
(dp634
g64
S'PdFiler'
p635
sg66
g1
sg67
Nsbsg68
Nsba(i__main__
DelphiFormalParameter
p636
(dp637
g57
Nsg58
(lp638
S'cvir'
p639
asg61
(i__main__
DelphiNamedType
p640
(dp641
g64
S'PdClassAndVersionInformationRecord'
p642
sg66
g1
sg67
Nsbsg68
g100
sbasg257
(lp643
sg259
(lp644
sg261
(lp645
g263
ag632
ag639
asg264
(dp646
g632
g633
sg639
g640
ssg70
S'PdPlantDrawingAmendment'
p647
sg71
Nsg267
(lp648
sg72
I0
sg73
g74
sg269
(i__main__
DelphiBlock
p649
(dp650
g272
(idelphi
DelphiCompoundStatement
p651
(dp652
g275
(lp653
(i__main__
DelphiAssignStatement
p654
(dp655
g285
Nsg286
(idelphi
DelphiInheritedCall
p656
(dp657
g289
S'streamDataWithFiler'
p658
sg295
(lp659
(i__main__
DelphiIdentAccess
p660
(dp661
g289
S'filer'
p662
sg291
(lp663
sba(i__main__
DelphiIdentAccess
p664
(dp665
g289
S'cvir'
p666
sg291
(lp667
sbasbsba(idelphi
DelphiWithStatement
p668
(dp669
g279
(idelphi
DelphiCompoundStatement
p670
(dp671
g275
(lp672
(i__main__
DelphiAssignStatement
p673
(dp674
g285
Nsg286
(i__main__
DelphiIdentAccess
p675
(dp676
g289
S'streamLongint'
p677
sg291
(lp678
(idelphi
DelphiFunctionEndAccess
p679
(dp680
g295
(lp681
(i__main__
DelphiIdentAccess
p682
(dp683
g289
S'partID'
p684
sg291
(lp685
sbasbasbsba(i__main__
DelphiAssignStatement
p686
(dp687
g285
Nsg286
(i__main__
DelphiIdentAccess
p688
(dp689
g289
S'streamShortString'
p690
sg291
(lp691
(idelphi
DelphiFunctionEndAccess
p692
(dp693
g295
(lp694
(i__main__
DelphiIdentAccess
p695
(dp696
g289
S'typeOfPart'
p697
sg291
(lp698
sbasbasbsba(i__main__
DelphiAssignStatement
p699
(dp700
g285
Nsg286
(i__main__
DelphiIdentAccess
p701
(dp702
g289
S'streamBoolean'
p703
sg291
(lp704
(idelphi
DelphiFunctionEndAccess
p705
(dp706
g295
(lp707
(i__main__
DelphiIdentAccess
p708
(dp709
g289
S'hide'
p710
sg291
(lp711
sbasbasbsba(i__main__
DelphiAssignStatement
p712
(dp713
g285
Nsg286
(i__main__
DelphiIdentAccess
p714
(dp715
g289
S'streamBoolean'
p716
sg291
(lp717
(idelphi
DelphiFunctionEndAccess
p718
(dp719
g295
(lp720
(i__main__
DelphiIdentAccess
p721
(dp722
g289
S'changeColors'
p723
sg291
(lp724
sbasbasbsba(i__main__
DelphiAssignStatement
p725
(dp726
g285
Nsg286
(i__main__
DelphiIdentAccess
p727
(dp728
g289
S'streamBoolean'
p729
sg291
(lp730
(idelphi
DelphiFunctionEndAccess
p731
(dp732
g295
(lp733
(i__main__
DelphiIdentAccess
p734
(dp735
g289
S'propagateColors'
p736
sg291
(lp737
sbasbasbsba(i__main__
DelphiAssignStatement
p738
(dp739
g285
Nsg286
(i__main__
DelphiIdentAccess
p740
(dp741
g289
S'streamColorRef'
p742
sg291
(lp743
(idelphi
DelphiFunctionEndAccess
p744
(dp745
g295
(lp746
(i__main__
DelphiIdentAccess
p747
(dp748
g289
S'faceColor'
p749
sg291
(lp750
sbasbasbsba(i__main__
DelphiAssignStatement
p751
(dp752
g285
Nsg286
(i__main__
DelphiIdentAccess
p753
(dp754
g289
S'streamColorRef'
p755
sg291
(lp756
(idelphi
DelphiFunctionEndAccess
p757
(dp758
g295
(lp759
(i__main__
DelphiIdentAccess
p760
(dp761
g289
S'backfaceColor'
p762
sg291
(lp763
sbasbasbsba(i__main__
DelphiAssignStatement
p764
(dp765
g285
Nsg286
(i__main__
DelphiIdentAccess
p766
(dp767
g289
S'streamColorRef'
p768
sg291
(lp769
(idelphi
DelphiFunctionEndAccess
p770
(dp771
g295
(lp772
(i__main__
DelphiIdentAccess
p773
(dp774
g289
S'lineColor'
p775
sg291
(lp776
sbasbasbsba(i__main__
DelphiAssignStatement
p777
(dp778
g285
Nsg286
(i__main__
DelphiIdentAccess
p779
(dp780
g289
S'streamBoolean'
p781
sg291
(lp782
(idelphi
DelphiFunctionEndAccess
p783
(dp784
g295
(lp785
(i__main__
DelphiIdentAccess
p786
(dp787
g289
S'addRotations'
p788
sg291
(lp789
sbasbasbsba(i__main__
DelphiAssignStatement
p790
(dp791
g285
Nsg286
(i__main__
DelphiIdentAccess
p792
(dp793
g289
S'streamSingle'
p794
sg291
(lp795
(idelphi
DelphiFunctionEndAccess
p796
(dp797
g295
(lp798
(i__main__
DelphiIdentAccess
p799
(dp800
g289
S'xRotation'
p801
sg291
(lp802
sbasbasbsba(i__main__
DelphiAssignStatement
p803
(dp804
g285
Nsg286
(i__main__
DelphiIdentAccess
p805
(dp806
g289
S'streamSingle'
p807
sg291
(lp808
(idelphi
DelphiFunctionEndAccess
p809
(dp810
g295
(lp811
(i__main__
DelphiIdentAccess
p812
(dp813
g289
S'yRotation'
p814
sg291
(lp815
sbasbasbsba(i__main__
DelphiAssignStatement
p816
(dp817
g285
Nsg286
(i__main__
DelphiIdentAccess
p818
(dp819
g289
S'streamSingle'
p820
sg291
(lp821
(idelphi
DelphiFunctionEndAccess
p822
(dp823
g295
(lp824
(i__main__
DelphiIdentAccess
p825
(dp826
g289
S'zRotation'
p827
sg291
(lp828
sbasbasbsba(i__main__
DelphiAssignStatement
p829
(dp830
g285
Nsg286
(i__main__
DelphiIdentAccess
p831
(dp832
g289
S'streamBoolean'
p833
sg291
(lp834
(idelphi
DelphiFunctionEndAccess
p835
(dp836
g295
(lp837
(i__main__
DelphiIdentAccess
p838
(dp839
g289
S'multiplyScale'
p840
sg291
(lp841
sbasbasbsba(i__main__
DelphiAssignStatement
p842
(dp843
g285
Nsg286
(i__main__
DelphiIdentAccess
p844
(dp845
g289
S'streamBoolean'
p846
sg291
(lp847
(idelphi
DelphiFunctionEndAccess
p848
(dp849
g295
(lp850
(i__main__
DelphiIdentAccess
p851
(dp852
g289
S'propagateScale'
p853
sg291
(lp854
sbasbasbsba(i__main__
DelphiAssignStatement
p855
(dp856
g285
Nsg286
(i__main__
DelphiIdentAccess
p857
(dp858
g289
S'streamSmallint'
p859
sg291
(lp860
(idelphi
DelphiFunctionEndAccess
p861
(dp862
g295
(lp863
(i__main__
DelphiIdentAccess
p864
(dp865
g289
S'scaleMultiplier_pct'
p866
sg291
(lp867
sbasbasbsba(i__main__
DelphiAssignStatement
p868
(dp869
g285
Nsg286
(i__main__
DelphiIdentAccess
p870
(dp871
g289
S'streamSmallint'
p872
sg291
(lp873
(idelphi
DelphiFunctionEndAccess
p874
(dp875
g295
(lp876
(i__main__
DelphiIdentAccess
p877
(dp878
g289
S'lengthMultiplier_pct'
p879
sg291
(lp880
sbasbasbsba(i__main__
DelphiAssignStatement
p881
(dp882
g285
Nsg286
(i__main__
DelphiIdentAccess
p883
(dp884
g289
S'streamSmallint'
p885
sg291
(lp886
(idelphi
DelphiFunctionEndAccess
p887
(dp888
g295
(lp889
(i__main__
DelphiIdentAccess
p890
(dp891
g289
S'widthMultiplier_pct'
p892
sg291
(lp893
sbasbasbsba(i__main__
DelphiAssignStatement
p894
(dp895
g285
Nsg286
(i__main__
DelphiIdentAccess
p896
(dp897
g289
S'streamSmallint'
p898
sg291
(lp899
(idelphi
DelphiFunctionEndAccess
p900
(dp901
g295
(lp902
(i__main__
DelphiIdentAccess
p903
(dp904
g289
S'applyAtAge'
p905
sg291
(lp906
sbasbasbsbasbsS'variableReferenceList'
p907
(lp908
(i__main__
DelphiIdentAccess
p909
(dp910
g289
S'filer'
p911
sg291
(lp912
sbasbasbsg475
(lp913
sbsbsS'readfrommemo'
p914
(i__main__
DelphiMethodImplementation
p915
(dp916
g248
g102
sg45
g104
sg53
(lp917
(i__main__
DelphiFormalParameter
p918
(dp919
g57
Nsg58
(lp920
S'aMemo'
p921
asg61
(i__main__
DelphiNamedType
p922
(dp923
g64
S'TMemo'
p924
sg66
g1
sg67
Nsbsg68
Nsba(i__main__
DelphiFormalParameter
p925
(dp926
g57
Nsg58
(lp927
S'readingMemoLine'
p928
asg61
(i__main__
DelphiPrimitiveType
p929
(dp930
g64
g119
sbsg68
g69
sbasg257
(lp931
I1
asg259
(lp932
sg261
(lp933
g263
ag921
ag928
asg264
(dp934
g921
g922
sg928
g929
ssg70
S'PdPlantDrawingAmendment'
p935
sg71
Nsg267
(lp936
g928
asg72
I0
sg73
g74
sg269
(i__main__
DelphiBlock
p937
(dp938
g272
(idelphi
DelphiCompoundStatement
p939
(dp940
g275
(lp941
(idelphi
DelphiWhileStatement
p942
(dp943
g279
(idelphi
DelphiCompoundStatement
p944
(dp945
g275
(lp946
(i__main__
DelphiAssignStatement
p947
(dp948
g285
(i__main__
DelphiIdentAccess
p949
(dp950
g289
S'aMemo'
p951
sg291
(lp952
(idelphi
DelphiFieldEndAccess
p953
(dp954
g464
S'lines'
p955
sba(idelphi
DelphiFieldEndAccess
p956
(dp957
g464
S'strings'
p958
sba(idelphi
DelphiArrayEndAccess
p959
(dp960
g295
(lp961
(i__main__
DelphiIdentAccess
p962
(dp963
g289
S'readingMemoLine'
p964
sg291
(lp965
sbasbasbsg286
(i__main__
DelphiIdentAccess
p966
(dp967
g289
S'inputLine'
p968
sg291
(lp969
sbsg305
(lp970
S' plant reads start line; just continue from there\r'
p971
asba(idelphi
DelphiIfStatement
p972
(dp973
g310
(idelphi
DelphiNestedExpressionListAccess
p974
(dp975
g291
(lp976
sg295
(lp977
(idelphi
DelphiRelOp
p978
(dp979
g317
(i__main__
DelphiIdentAccess
p980
(dp981
g289
S'trim'
p982
sg291
(lp983
(idelphi
DelphiFunctionEndAccess
p984
(dp985
g295
(lp986
(i__main__
DelphiIdentAccess
p987
(dp988
g289
S'inputLine'
p989
sg291
(lp990
sbasbasbsg329
(idelphi
DelphiStringAccess
p991
(dp992
g291
(lp993
sg163
(idelphi
DelphiStringValue
p994
(dp995
g163
S''
sbsbsg335
S'='
sbasbsg336
Nsg337
(idelphi
DelphiContinueStatement
p996
(dp997
bsba(i__main__
DelphiAssignStatement
p998
(dp999
g285
(i__main__
DelphiIdentAccess
p1000
(dp1001
g289
S'stringUpTo'
p1002
sg291
(lp1003
(idelphi
DelphiFunctionEndAccess
p1004
(dp1005
g295
(lp1006
(i__main__
DelphiIdentAccess
p1007
(dp1008
g289
S'inputLine'
p1009
sg291
(lp1010
sba(idelphi
DelphiStringAccess
p1011
(dp1012
g291
(lp1013
sg163
(idelphi
DelphiStringValue
p1014
(dp1015
g163
S'='
sbsbasbasbsg286
(i__main__
DelphiIdentAccess
p1016
(dp1017
g289
S'varName'
p1018
sg291
(lp1019
sbsba(i__main__
DelphiAssignStatement
p1020
(dp1021
g285
(i__main__
DelphiIdentAccess
p1022
(dp1023
g289
S'stringBeyond'
p1024
sg291
(lp1025
(idelphi
DelphiFunctionEndAccess
p1026
(dp1027
g295
(lp1028
(i__main__
DelphiIdentAccess
p1029
(dp1030
g289
S'inputLine'
p1031
sg291
(lp1032
sba(idelphi
DelphiStringAccess
p1033
(dp1034
g291
(lp1035
sg163
(idelphi
DelphiStringValue
p1036
(dp1037
g163
S'='
sbsbasbasbsg286
(i__main__
DelphiIdentAccess
p1038
(dp1039
g289
S'varValue'
p1040
sg291
(lp1041
sbsba(idelphi
DelphiIfStatement
p1042
(dp1043
g310
(idelphi
DelphiNot
p1044
(dp1045
g388
(i__main__
DelphiIdentAccess
p1046
(dp1047
g289
S'setField'
p1048
sg291
(lp1049
(idelphi
DelphiFunctionEndAccess
p1050
(dp1051
g295
(lp1052
(i__main__
DelphiIdentAccess
p1053
(dp1054
g289
S'varName'
p1055
sg291
(lp1056
sba(i__main__
DelphiIdentAccess
p1057
(dp1058
g289
S'varValue'
p1059
sg291
(lp1060
sbasbasbsbsg336
Nsg337
(idelphi
DelphiBreakStatement
p1061
(dp1062
bsba(i__main__
DelphiIncOrDecStatement
p1063
(dp1064
S'incOrDecString'
p1065
S'inc'
p1066
sS'incrementExpression'
p1067
Nsg286
(i__main__
DelphiIdentAccess
p1068
(dp1069
g289
S'readingMemoLine'
p1070
sg291
(lp1071
sbsbasbsg406
(idelphi
DelphiRelOp
p1072
(dp1073
g317
(i__main__
DelphiIdentAccess
p1074
(dp1075
g289
S'readingMemoLine'
p1076
sg291
(lp1077
sbsg329
(idelphi
DelphiAddOp
p1078
(dp1079
S'addOp'
p1080
S'-'
sS'term2'
p1081
(idelphi
DelphiIntegerValue
p1082
(dp1083
g163
S'1'
sbsS'term1'
p1084
(i__main__
DelphiIdentAccess
p1085
(dp1086
g289
S'aMemo'
p1087
sg291
(lp1088
(idelphi
DelphiFieldEndAccess
p1089
(dp1090
g464
S'lines'
p1091
sba(idelphi
DelphiFieldEndAccess
p1092
(dp1093
g464
S'count'
p1094
sbasbsbsg335
g455
sbsba(idelphi
DelphiIfStatement
p1095
(dp1096
g310
(idelphi
DelphiRelOp
p1097
(dp1098
g317
(i__main__
DelphiIdentAccess
p1099
(dp1100
g289
S'pos'
p1101
sg291
(lp1102
(idelphi
DelphiFunctionEndAccess
p1103
(dp1104
g295
(lp1105
(i__main__
DelphiIdentAccess
p1106
(dp1107
g289
S'upperCase'
p1108
sg291
(lp1109
(idelphi
DelphiFunctionEndAccess
p1110
(dp1111
g295
(lp1112
(i__main__
DelphiIdentAccess
p1113
(dp1114
g289
S'kEndAmendmentString'
p1115
sg291
(lp1116
sbasbasba(i__main__
DelphiIdentAccess
p1117
(dp1118
g289
S'upperCase'
p1119
sg291
(lp1120
(idelphi
DelphiFunctionEndAccess
p1121
(dp1122
g295
(lp1123
(i__main__
DelphiIdentAccess
p1124
(dp1125
g289
S'inputLine'
p1126
sg291
(lp1127
sbasbasbasbasbsg329
(idelphi
DelphiIntegerValue
p1128
(dp1129
g163
S'0'
sbsg335
g455
sbsg336
Nsg337
(idelphi
DelphiRaiseStatement
p1130
(dp1131
g310
(i__main__
DelphiIdentAccess
p1132
(dp1133
g289
S'Exception'
p1134
sg291
(lp1135
(idelphi
DelphiFieldEndAccess
p1136
(dp1137
g464
S'create'
p1138
sba(idelphi
DelphiFunctionEndAccess
p1139
(dp1140
g295
(lp1141
(idelphi
DelphiStringAccess
p1142
(dp1143
g291
(lp1144
sg163
(idelphi
DelphiStringValue
p1145
(dp1146
g163
S'Problem: Expected end of posing change.'
p1147
sbsbasbasbsbsbasbsg475
(lp1148
(i__main__
DelphiVarSection
p1149
(dp1150
g479
I0
sg480
(lp1151
(idelphi
DelphiVarDecl
p1152
(dp1153
g484
Nsg485
(lp1154
S'inputLine'
p1155
aS'varName'
p1156
aS'varValue'
p1157
asg61
(i__main__
DelphiPrimitiveType
p1158
(dp1159
g64
g163
sbsbasbasbsbsS'classandversioninformation'
p1160
(i__main__
DelphiMethodImplementation
p1161
(dp1162
g248
g121
sg45
g123
sg53
(lp1163
(i__main__
DelphiFormalParameter
p1164
(dp1165
g57
Nsg58
(lp1166
S'cvir'
p1167
asg61
(i__main__
DelphiNamedType
p1168
(dp1169
g64
S'PdClassAndVersionInformationRecord'
p1170
sg66
g1
sg67
Nsbsg68
g69
sbasg257
(lp1171
sg259
(lp1172
g1167
asg261
(lp1173
g263
ag1167
asg264
(dp1174
g1167
g1168
ssg70
S'PdPlantDrawingAmendment'
p1175
sg71
Nsg267
(lp1176
sg72
I0
sg73
g74
sg269
(i__main__
DelphiBlock
p1177
(dp1178
g272
(idelphi
DelphiCompoundStatement
p1179
(dp1180
g275
(lp1181
(i__main__
DelphiAssignStatement
p1182
(dp1183
g285
(i__main__
DelphiIdentAccess
p1184
(dp1185
g289
S'kPdPlantDrawingAmendment'
p1186
sg291
(lp1187
sbsg286
(i__main__
DelphiIdentAccess
p1188
(dp1189
g289
S'cvir'
p1190
sg291
(lp1191
(idelphi
DelphiFieldEndAccess
p1192
(dp1193
g464
S'classNumber'
p1194
sbasbsba(i__main__
DelphiAssignStatement
p1195
(dp1196
g285
(idelphi
DelphiIntegerValue
p1197
(dp1198
g163
S'0'
sbsg286
(i__main__
DelphiIdentAccess
p1199
(dp1200
g289
S'cvir'
p1201
sg291
(lp1202
(idelphi
DelphiFieldEndAccess
p1203
(dp1204
g464
S'versionNumber'
p1205
sbasbsba(i__main__
DelphiAssignStatement
p1206
(dp1207
g285
(idelphi
DelphiIntegerValue
p1208
(dp1209
g163
S'0'
sbsg286
(i__main__
DelphiIdentAccess
p1210
(dp1211
g289
S'cvir'
p1212
sg291
(lp1213
(idelphi
DelphiFieldEndAccess
p1214
(dp1215
g464
S'additionNumber'
p1216
sbasbsbasbsg475
(lp1217
sbsbsS'writetotextfile'
p1218
(i__main__
DelphiMethodImplementation
p1219
(dp1220
g248
g133
sg45
g135
sg53
(lp1221
(i__main__
DelphiFormalParameter
p1222
(dp1223
g57
Nsg58
(lp1224
S'outputFile'
p1225
asg61
(i__main__
DelphiNamedType
p1226
(dp1227
g64
S'TextFile'
p1228
sg66
g1
sg67
Nsbsg68
g69
sbasg257
(lp1229
sg259
(lp1230
g1225
asg261
(lp1231
g263
ag1225
asg264
(dp1232
g1225
g1226
ssg70
S'PdPlantDrawingAmendment'
p1233
sg71
Nsg267
(lp1234
sg72
I0
sg73
g74
sg269
(i__main__
DelphiBlock
p1235
(dp1236
g272
(idelphi
DelphiCompoundStatement
p1237
(dp1238
g275
(lp1239
(i__main__
DelphiAssignStatement
p1240
(dp1241
g285
Nsg286
(i__main__
DelphiIdentAccess
p1242
(dp1243
g289
S'writeln'
p1244
sg291
(lp1245
(idelphi
DelphiFunctionEndAccess
p1246
(dp1247
g295
(lp1248
(i__main__
DelphiIdentAccess
p1249
(dp1250
g289
S'outputFile'
p1251
sg291
(lp1252
sba(i__main__
DelphiIdentAccess
p1253
(dp1254
g289
S'kStartAmendmentString'
p1255
sg291
(lp1256
sbasbasbsba(i__main__
DelphiAssignStatement
p1257
(dp1258
g285
Nsg286
(i__main__
DelphiIdentAccess
p1259
(dp1260
g289
S'writeln'
p1261
sg291
(lp1262
(idelphi
DelphiFunctionEndAccess
p1263
(dp1264
g295
(lp1265
(i__main__
DelphiIdentAccess
p1266
(dp1267
g289
S'outputFile'
p1268
sg291
(lp1269
sba(idelphi
DelphiAddOp
p1270
(dp1271
g1080
S'+'
sg1081
(i__main__
DelphiIdentAccess
p1272
(dp1273
g289
S'intToStr'
p1274
sg291
(lp1275
(idelphi
DelphiFunctionEndAccess
p1276
(dp1277
g295
(lp1278
(i__main__
DelphiIdentAccess
p1279
(dp1280
g289
S'partID'
p1281
sg291
(lp1282
sbasbasbsg1084
(idelphi
DelphiStringAccess
p1283
(dp1284
g291
(lp1285
sg163
(idelphi
DelphiStringValue
p1286
(dp1287
g163
S'  part number ='
p1288
sbsbsbasbasbsba(i__main__
DelphiAssignStatement
p1289
(dp1290
g285
Nsg286
(i__main__
DelphiIdentAccess
p1291
(dp1292
g289
S'writeln'
p1293
sg291
(lp1294
(idelphi
DelphiFunctionEndAccess
p1295
(dp1296
g295
(lp1297
(i__main__
DelphiIdentAccess
p1298
(dp1299
g289
S'outputFile'
p1300
sg291
(lp1301
sba(idelphi
DelphiAddOp
p1302
(dp1303
g1080
S'+'
sg1081
(i__main__
DelphiIdentAccess
p1304
(dp1305
g289
S'typeOfPart'
p1306
sg291
(lp1307
sbsg1084
(idelphi
DelphiStringAccess
p1308
(dp1309
g291
(lp1310
sg163
(idelphi
DelphiStringValue
p1311
(dp1312
g163
S'  part type ='
p1313
sbsbsbasbasbsba(i__main__
DelphiAssignStatement
p1314
(dp1315
g285
Nsg286
(i__main__
DelphiIdentAccess
p1316
(dp1317
g289
S'writeln'
p1318
sg291
(lp1319
(idelphi
DelphiFunctionEndAccess
p1320
(dp1321
g295
(lp1322
(i__main__
DelphiIdentAccess
p1323
(dp1324
g289
S'outputFile'
p1325
sg291
(lp1326
sba(idelphi
DelphiAddOp
p1327
(dp1328
g1080
S'+'
sg1081
(i__main__
DelphiIdentAccess
p1329
(dp1330
g289
S'boolToStr'
p1331
sg291
(lp1332
(idelphi
DelphiFunctionEndAccess
p1333
(dp1334
g295
(lp1335
(i__main__
DelphiIdentAccess
p1336
(dp1337
g289
S'hide'
p1338
sg291
(lp1339
sbasbasbsg1084
(idelphi
DelphiStringAccess
p1340
(dp1341
g291
(lp1342
sg163
(idelphi
DelphiStringValue
p1343
(dp1344
g163
S'  hide ='
p1345
sbsbsbasbasbsba(i__main__
DelphiAssignStatement
p1346
(dp1347
g285
Nsg286
(i__main__
DelphiIdentAccess
p1348
(dp1349
g289
S'writeln'
p1350
sg291
(lp1351
(idelphi
DelphiFunctionEndAccess
p1352
(dp1353
g295
(lp1354
(i__main__
DelphiIdentAccess
p1355
(dp1356
g289
S'outputFile'
p1357
sg291
(lp1358
sba(idelphi
DelphiAddOp
p1359
(dp1360
g1080
S'+'
sg1081
(i__main__
DelphiIdentAccess
p1361
(dp1362
g289
S'boolToStr'
p1363
sg291
(lp1364
(idelphi
DelphiFunctionEndAccess
p1365
(dp1366
g295
(lp1367
(i__main__
DelphiIdentAccess
p1368
(dp1369
g289
S'addRotations'
p1370
sg291
(lp1371
sbasbasbsg1084
(idelphi
DelphiStringAccess
p1372
(dp1373
g291
(lp1374
sg163
(idelphi
DelphiStringValue
p1375
(dp1376
g163
S'  rotate ='
p1377
sbsbsbasbasbsg305
(lp1378
S'\r'
aS"  writeln(outputFile, '  change colors =' + boolToStr(changeColors));\r"
p1379
aS"  writeln(outputFile, '  propagate colors up stem =' + boolToStr(propagateColors));\r"
p1380
aS"  writeln(outputFile, '  front face color =' + intToStr(faceColor));\r"
p1381
aS"  writeln(outputFile, '  back face color =' + intToStr(backfaceColor));\r"
p1382
aS"  writeln(outputFile, '  line color =' + intToStr(lineColor));\r"
p1383
aS'  '
p1384
asba(i__main__
DelphiAssignStatement
p1385
(dp1386
g285
Nsg286
(i__main__
DelphiIdentAccess
p1387
(dp1388
g289
S'writeln'
p1389
sg291
(lp1390
(idelphi
DelphiFunctionEndAccess
p1391
(dp1392
g295
(lp1393
(i__main__
DelphiIdentAccess
p1394
(dp1395
g289
S'outputFile'
p1396
sg291
(lp1397
sba(idelphi
DelphiAddOp
p1398
(dp1399
g1080
S'+'
sg1081
(i__main__
DelphiIdentAccess
p1400
(dp1401
g289
S'intToStr'
p1402
sg291
(lp1403
(idelphi
DelphiFunctionEndAccess
p1404
(dp1405
g295
(lp1406
(i__main__
DelphiIdentAccess
p1407
(dp1408
g289
S'round'
p1409
sg291
(lp1410
(idelphi
DelphiFunctionEndAccess
p1411
(dp1412
g295
(lp1413
(i__main__
DelphiIdentAccess
p1414
(dp1415
g289
S'xRotation'
p1416
sg291
(lp1417
sbasbasbasbasbsg1084
(idelphi
DelphiStringAccess
p1418
(dp1419
g291
(lp1420
sg163
(idelphi
DelphiStringValue
p1421
(dp1422
g163
S'  x rotation ='
p1423
sbsbsbasbasbsba(i__main__
DelphiAssignStatement
p1424
(dp1425
g285
Nsg286
(i__main__
DelphiIdentAccess
p1426
(dp1427
g289
S'writeln'
p1428
sg291
(lp1429
(idelphi
DelphiFunctionEndAccess
p1430
(dp1431
g295
(lp1432
(i__main__
DelphiIdentAccess
p1433
(dp1434
g289
S'outputFile'
p1435
sg291
(lp1436
sba(idelphi
DelphiAddOp
p1437
(dp1438
g1080
S'+'
sg1081
(i__main__
DelphiIdentAccess
p1439
(dp1440
g289
S'intToStr'
p1441
sg291
(lp1442
(idelphi
DelphiFunctionEndAccess
p1443
(dp1444
g295
(lp1445
(i__main__
DelphiIdentAccess
p1446
(dp1447
g289
S'round'
p1448
sg291
(lp1449
(idelphi
DelphiFunctionEndAccess
p1450
(dp1451
g295
(lp1452
(i__main__
DelphiIdentAccess
p1453
(dp1454
g289
S'yRotation'
p1455
sg291
(lp1456
sbasbasbasbasbsg1084
(idelphi
DelphiStringAccess
p1457
(dp1458
g291
(lp1459
sg163
(idelphi
DelphiStringValue
p1460
(dp1461
g163
S'  y rotation ='
p1462
sbsbsbasbasbsba(i__main__
DelphiAssignStatement
p1463
(dp1464
g285
Nsg286
(i__main__
DelphiIdentAccess
p1465
(dp1466
g289
S'writeln'
p1467
sg291
(lp1468
(idelphi
DelphiFunctionEndAccess
p1469
(dp1470
g295
(lp1471
(i__main__
DelphiIdentAccess
p1472
(dp1473
g289
S'outputFile'
p1474
sg291
(lp1475
sba(idelphi
DelphiAddOp
p1476
(dp1477
g1080
S'+'
sg1081
(i__main__
DelphiIdentAccess
p1478
(dp1479
g289
S'intToStr'
p1480
sg291
(lp1481
(idelphi
DelphiFunctionEndAccess
p1482
(dp1483
g295
(lp1484
(i__main__
DelphiIdentAccess
p1485
(dp1486
g289
S'round'
p1487
sg291
(lp1488
(idelphi
DelphiFunctionEndAccess
p1489
(dp1490
g295
(lp1491
(i__main__
DelphiIdentAccess
p1492
(dp1493
g289
S'zRotation'
p1494
sg291
(lp1495
sbasbasbasbasbsg1084
(idelphi
DelphiStringAccess
p1496
(dp1497
g291
(lp1498
sg163
(idelphi
DelphiStringValue
p1499
(dp1500
g163
S'  z rotation ='
p1501
sbsbsbasbasbsba(i__main__
DelphiAssignStatement
p1502
(dp1503
g285
Nsg286
(i__main__
DelphiIdentAccess
p1504
(dp1505
g289
S'writeln'
p1506
sg291
(lp1507
(idelphi
DelphiFunctionEndAccess
p1508
(dp1509
g295
(lp1510
(i__main__
DelphiIdentAccess
p1511
(dp1512
g289
S'outputFile'
p1513
sg291
(lp1514
sba(idelphi
DelphiAddOp
p1515
(dp1516
g1080
S'+'
sg1081
(i__main__
DelphiIdentAccess
p1517
(dp1518
g289
S'boolToStr'
p1519
sg291
(lp1520
(idelphi
DelphiFunctionEndAccess
p1521
(dp1522
g295
(lp1523
(i__main__
DelphiIdentAccess
p1524
(dp1525
g289
S'multiplyScale'
p1526
sg291
(lp1527
sbasbasbsg1084
(idelphi
DelphiStringAccess
p1528
(dp1529
g291
(lp1530
sg163
(idelphi
DelphiStringValue
p1531
(dp1532
g163
S'  change scale ='
p1533
sbsbsbasbasbsba(i__main__
DelphiAssignStatement
p1534
(dp1535
g285
Nsg286
(i__main__
DelphiIdentAccess
p1536
(dp1537
g289
S'writeln'
p1538
sg291
(lp1539
(idelphi
DelphiFunctionEndAccess
p1540
(dp1541
g295
(lp1542
(i__main__
DelphiIdentAccess
p1543
(dp1544
g289
S'outputFile'
p1545
sg291
(lp1546
sba(idelphi
DelphiAddOp
p1547
(dp1548
g1080
S'+'
sg1081
(i__main__
DelphiIdentAccess
p1549
(dp1550
g289
S'boolToStr'
p1551
sg291
(lp1552
(idelphi
DelphiFunctionEndAccess
p1553
(dp1554
g295
(lp1555
(i__main__
DelphiIdentAccess
p1556
(dp1557
g289
S'propagateScale'
p1558
sg291
(lp1559
sbasbasbsg1084
(idelphi
DelphiStringAccess
p1560
(dp1561
g291
(lp1562
sg163
(idelphi
DelphiStringValue
p1563
(dp1564
g163
S'  propagate scale change up stem ='
p1565
sbsbsbasbasbsba(i__main__
DelphiAssignStatement
p1566
(dp1567
g285
Nsg286
(i__main__
DelphiIdentAccess
p1568
(dp1569
g289
S'writeln'
p1570
sg291
(lp1571
(idelphi
DelphiFunctionEndAccess
p1572
(dp1573
g295
(lp1574
(i__main__
DelphiIdentAccess
p1575
(dp1576
g289
S'outputFile'
p1577
sg291
(lp1578
sba(idelphi
DelphiAddOp
p1579
(dp1580
g1080
S'+'
sg1081
(i__main__
DelphiIdentAccess
p1581
(dp1582
g289
S'intToStr'
p1583
sg291
(lp1584
(idelphi
DelphiFunctionEndAccess
p1585
(dp1586
g295
(lp1587
(i__main__
DelphiIdentAccess
p1588
(dp1589
g289
S'scaleMultiplier_pct'
p1590
sg291
(lp1591
sbasbasbsg1084
(idelphi
DelphiStringAccess
p1592
(dp1593
g291
(lp1594
sg163
(idelphi
DelphiStringValue
p1595
(dp1596
g163
S'  3d object scale multiplier ='
p1597
sbsbsbasbasbsba(i__main__
DelphiAssignStatement
p1598
(dp1599
g285
Nsg286
(i__main__
DelphiIdentAccess
p1600
(dp1601
g289
S'writeln'
p1602
sg291
(lp1603
(idelphi
DelphiFunctionEndAccess
p1604
(dp1605
g295
(lp1606
(i__main__
DelphiIdentAccess
p1607
(dp1608
g289
S'outputFile'
p1609
sg291
(lp1610
sba(idelphi
DelphiAddOp
p1611
(dp1612
g1080
S'+'
sg1081
(i__main__
DelphiIdentAccess
p1613
(dp1614
g289
S'intToStr'
p1615
sg291
(lp1616
(idelphi
DelphiFunctionEndAccess
p1617
(dp1618
g295
(lp1619
(i__main__
DelphiIdentAccess
p1620
(dp1621
g289
S'lengthMultiplier_pct'
p1622
sg291
(lp1623
sbasbasbsg1084
(idelphi
DelphiStringAccess
p1624
(dp1625
g291
(lp1626
sg163
(idelphi
DelphiStringValue
p1627
(dp1628
g163
S'  line length multiplier ='
p1629
sbsbsbasbasbsba(i__main__
DelphiAssignStatement
p1630
(dp1631
g285
Nsg286
(i__main__
DelphiIdentAccess
p1632
(dp1633
g289
S'writeln'
p1634
sg291
(lp1635
(idelphi
DelphiFunctionEndAccess
p1636
(dp1637
g295
(lp1638
(i__main__
DelphiIdentAccess
p1639
(dp1640
g289
S'outputFile'
p1641
sg291
(lp1642
sba(idelphi
DelphiAddOp
p1643
(dp1644
g1080
S'+'
sg1081
(i__main__
DelphiIdentAccess
p1645
(dp1646
g289
S'intToStr'
p1647
sg291
(lp1648
(idelphi
DelphiFunctionEndAccess
p1649
(dp1650
g295
(lp1651
(i__main__
DelphiIdentAccess
p1652
(dp1653
g289
S'widthMultiplier_pct'
p1654
sg291
(lp1655
sbasbasbsg1084
(idelphi
DelphiStringAccess
p1656
(dp1657
g291
(lp1658
sg163
(idelphi
DelphiStringValue
p1659
(dp1660
g163
S'  line width multiplier ='
p1661
sbsbsbasbasbsba(i__main__
DelphiAssignStatement
p1662
(dp1663
g285
Nsg286
(i__main__
DelphiIdentAccess
p1664
(dp1665
g289
S'writeln'
p1666
sg291
(lp1667
(idelphi
DelphiFunctionEndAccess
p1668
(dp1669
g295
(lp1670
(i__main__
DelphiIdentAccess
p1671
(dp1672
g289
S'outputFile'
p1673
sg291
(lp1674
sba(i__main__
DelphiIdentAccess
p1675
(dp1676
g289
S'kEndAmendmentString'
p1677
sg291
(lp1678
sbasbasbsg305
(lp1679
S'\r'
aS"  writeln(outputFile, '  apply at age =' + intToStr(applyAtAge));\r"
p1680
aS'  '
p1681
asbasbsg475
(lp1682
sbsbsS'writetomemo'
p1683
(i__main__
DelphiMethodImplementation
p1684
(dp1685
g248
g145
sg45
g147
sg53
(lp1686
(i__main__
DelphiFormalParameter
p1687
(dp1688
g57
Nsg58
(lp1689
S'aMemo'
p1690
asg61
(i__main__
DelphiNamedType
p1691
(dp1692
g64
S'TMemo'
p1693
sg66
g1
sg67
Nsbsg68
Nsbasg257
(lp1694
sg259
(lp1695
sg261
(lp1696
g263
ag1690
asg264
(dp1697
g1690
g1691
ssg70
S'PdPlantDrawingAmendment'
p1698
sg71
Nsg267
(lp1699
sg72
I0
sg73
g74
sg269
(i__main__
DelphiBlock
p1700
(dp1701
g272
(idelphi
DelphiCompoundStatement
p1702
(dp1703
g275
(lp1704
(i__main__
DelphiAssignStatement
p1705
(dp1706
g285
Nsg286
(i__main__
DelphiIdentAccess
p1707
(dp1708
g289
S'aMemo'
p1709
sg291
(lp1710
(idelphi
DelphiFieldEndAccess
p1711
(dp1712
g464
S'lines'
p1713
sba(idelphi
DelphiFieldEndAccess
p1714
(dp1715
g464
S'add'
p1716
sba(idelphi
DelphiFunctionEndAccess
p1717
(dp1718
g295
(lp1719
(i__main__
DelphiIdentAccess
p1720
(dp1721
g289
S'kStartAmendmentString'
p1722
sg291
(lp1723
sbasbasbsba(i__main__
DelphiAssignStatement
p1724
(dp1725
g285
Nsg286
(i__main__
DelphiIdentAccess
p1726
(dp1727
g289
S'aMemo'
p1728
sg291
(lp1729
(idelphi
DelphiFieldEndAccess
p1730
(dp1731
g464
S'lines'
p1732
sba(idelphi
DelphiFieldEndAccess
p1733
(dp1734
g464
S'add'
p1735
sba(idelphi
DelphiFunctionEndAccess
p1736
(dp1737
g295
(lp1738
(idelphi
DelphiAddOp
p1739
(dp1740
g1080
S'+'
sg1081
(i__main__
DelphiIdentAccess
p1741
(dp1742
g289
S'intToStr'
p1743
sg291
(lp1744
(idelphi
DelphiFunctionEndAccess
p1745
(dp1746
g295
(lp1747
(i__main__
DelphiIdentAccess
p1748
(dp1749
g289
S'partID'
p1750
sg291
(lp1751
sbasbasbsg1084
(idelphi
DelphiStringAccess
p1752
(dp1753
g291
(lp1754
sg163
(idelphi
DelphiStringValue
p1755
(dp1756
g163
S'  part number ='
p1757
sbsbsbasbasbsba(i__main__
DelphiAssignStatement
p1758
(dp1759
g285
Nsg286
(i__main__
DelphiIdentAccess
p1760
(dp1761
g289
S'aMemo'
p1762
sg291
(lp1763
(idelphi
DelphiFieldEndAccess
p1764
(dp1765
g464
S'lines'
p1766
sba(idelphi
DelphiFieldEndAccess
p1767
(dp1768
g464
S'add'
p1769
sba(idelphi
DelphiFunctionEndAccess
p1770
(dp1771
g295
(lp1772
(idelphi
DelphiAddOp
p1773
(dp1774
g1080
S'+'
sg1081
(i__main__
DelphiIdentAccess
p1775
(dp1776
g289
S'typeOfPart'
p1777
sg291
(lp1778
sbsg1084
(idelphi
DelphiStringAccess
p1779
(dp1780
g291
(lp1781
sg163
(idelphi
DelphiStringValue
p1782
(dp1783
g163
S'  part type ='
p1784
sbsbsbasbasbsba(i__main__
DelphiAssignStatement
p1785
(dp1786
g285
Nsg286
(i__main__
DelphiIdentAccess
p1787
(dp1788
g289
S'aMemo'
p1789
sg291
(lp1790
(idelphi
DelphiFieldEndAccess
p1791
(dp1792
g464
S'lines'
p1793
sba(idelphi
DelphiFieldEndAccess
p1794
(dp1795
g464
S'add'
p1796
sba(idelphi
DelphiFunctionEndAccess
p1797
(dp1798
g295
(lp1799
(idelphi
DelphiAddOp
p1800
(dp1801
g1080
S'+'
sg1081
(i__main__
DelphiIdentAccess
p1802
(dp1803
g289
S'boolToStr'
p1804
sg291
(lp1805
(idelphi
DelphiFunctionEndAccess
p1806
(dp1807
g295
(lp1808
(i__main__
DelphiIdentAccess
p1809
(dp1810
g289
S'hide'
p1811
sg291
(lp1812
sbasbasbsg1084
(idelphi
DelphiStringAccess
p1813
(dp1814
g291
(lp1815
sg163
(idelphi
DelphiStringValue
p1816
(dp1817
g163
S'  hide ='
p1818
sbsbsbasbasbsba(i__main__
DelphiAssignStatement
p1819
(dp1820
g285
Nsg286
(i__main__
DelphiIdentAccess
p1821
(dp1822
g289
S'aMemo'
p1823
sg291
(lp1824
(idelphi
DelphiFieldEndAccess
p1825
(dp1826
g464
S'lines'
p1827
sba(idelphi
DelphiFieldEndAccess
p1828
(dp1829
g464
S'add'
p1830
sba(idelphi
DelphiFunctionEndAccess
p1831
(dp1832
g295
(lp1833
(idelphi
DelphiAddOp
p1834
(dp1835
g1080
S'+'
sg1081
(i__main__
DelphiIdentAccess
p1836
(dp1837
g289
S'boolToStr'
p1838
sg291
(lp1839
(idelphi
DelphiFunctionEndAccess
p1840
(dp1841
g295
(lp1842
(i__main__
DelphiIdentAccess
p1843
(dp1844
g289
S'addRotations'
p1845
sg291
(lp1846
sbasbasbsg1084
(idelphi
DelphiStringAccess
p1847
(dp1848
g291
(lp1849
sg163
(idelphi
DelphiStringValue
p1850
(dp1851
g163
S'  rotate ='
p1852
sbsbsbasbasbsg305
(lp1853
S'\r'
aS"  aMemo.lines.add('  change colors =' + boolToStr(changeColors));\r"
p1854
aS"  aMemo.lines.add('  propagate colors up stem =' + boolToStr(propagateColors));\r"
p1855
aS"  aMemo.lines.add('  front face color =' + intToStr(faceColor));\r"
p1856
aS"  aMemo.lines.add('  back face color =' + intToStr(backfaceColor));\r"
p1857
aS"  aMemo.lines.add('  line color =' + intToStr(lineColor));\r"
p1858
aS'  '
p1859
asba(i__main__
DelphiAssignStatement
p1860
(dp1861
g285
Nsg286
(i__main__
DelphiIdentAccess
p1862
(dp1863
g289
S'aMemo'
p1864
sg291
(lp1865
(idelphi
DelphiFieldEndAccess
p1866
(dp1867
g464
S'lines'
p1868
sba(idelphi
DelphiFieldEndAccess
p1869
(dp1870
g464
S'add'
p1871
sba(idelphi
DelphiFunctionEndAccess
p1872
(dp1873
g295
(lp1874
(idelphi
DelphiAddOp
p1875
(dp1876
g1080
S'+'
sg1081
(i__main__
DelphiIdentAccess
p1877
(dp1878
g289
S'intToStr'
p1879
sg291
(lp1880
(idelphi
DelphiFunctionEndAccess
p1881
(dp1882
g295
(lp1883
(i__main__
DelphiIdentAccess
p1884
(dp1885
g289
S'round'
p1886
sg291
(lp1887
(idelphi
DelphiFunctionEndAccess
p1888
(dp1889
g295
(lp1890
(i__main__
DelphiIdentAccess
p1891
(dp1892
g289
S'xRotation'
p1893
sg291
(lp1894
sbasbasbasbasbsg1084
(idelphi
DelphiStringAccess
p1895
(dp1896
g291
(lp1897
sg163
(idelphi
DelphiStringValue
p1898
(dp1899
g163
S'  x rotation ='
p1900
sbsbsbasbasbsba(i__main__
DelphiAssignStatement
p1901
(dp1902
g285
Nsg286
(i__main__
DelphiIdentAccess
p1903
(dp1904
g289
S'aMemo'
p1905
sg291
(lp1906
(idelphi
DelphiFieldEndAccess
p1907
(dp1908
g464
S'lines'
p1909
sba(idelphi
DelphiFieldEndAccess
p1910
(dp1911
g464
S'add'
p1912
sba(idelphi
DelphiFunctionEndAccess
p1913
(dp1914
g295
(lp1915
(idelphi
DelphiAddOp
p1916
(dp1917
g1080
S'+'
sg1081
(i__main__
DelphiIdentAccess
p1918
(dp1919
g289
S'intToStr'
p1920
sg291
(lp1921
(idelphi
DelphiFunctionEndAccess
p1922
(dp1923
g295
(lp1924
(i__main__
DelphiIdentAccess
p1925
(dp1926
g289
S'round'
p1927
sg291
(lp1928
(idelphi
DelphiFunctionEndAccess
p1929
(dp1930
g295
(lp1931
(i__main__
DelphiIdentAccess
p1932
(dp1933
g289
S'yRotation'
p1934
sg291
(lp1935
sbasbasbasbasbsg1084
(idelphi
DelphiStringAccess
p1936
(dp1937
g291
(lp1938
sg163
(idelphi
DelphiStringValue
p1939
(dp1940
g163
S'  y rotation ='
p1941
sbsbsbasbasbsba(i__main__
DelphiAssignStatement
p1942
(dp1943
g285
Nsg286
(i__main__
DelphiIdentAccess
p1944
(dp1945
g289
S'aMemo'
p1946
sg291
(lp1947
(idelphi
DelphiFieldEndAccess
p1948
(dp1949
g464
S'lines'
p1950
sba(idelphi
DelphiFieldEndAccess
p1951
(dp1952
g464
S'add'
p1953
sba(idelphi
DelphiFunctionEndAccess
p1954
(dp1955
g295
(lp1956
(idelphi
DelphiAddOp
p1957
(dp1958
g1080
S'+'
sg1081
(i__main__
DelphiIdentAccess
p1959
(dp1960
g289
S'intToStr'
p1961
sg291
(lp1962
(idelphi
DelphiFunctionEndAccess
p1963
(dp1964
g295
(lp1965
(i__main__
DelphiIdentAccess
p1966
(dp1967
g289
S'round'
p1968
sg291
(lp1969
(idelphi
DelphiFunctionEndAccess
p1970
(dp1971
g295
(lp1972
(i__main__
DelphiIdentAccess
p1973
(dp1974
g289
S'zRotation'
p1975
sg291
(lp1976
sbasbasbasbasbsg1084
(idelphi
DelphiStringAccess
p1977
(dp1978
g291
(lp1979
sg163
(idelphi
DelphiStringValue
p1980
(dp1981
g163
S'  z rotation ='
p1982
sbsbsbasbasbsba(i__main__
DelphiAssignStatement
p1983
(dp1984
g285
Nsg286
(i__main__
DelphiIdentAccess
p1985
(dp1986
g289
S'aMemo'
p1987
sg291
(lp1988
(idelphi
DelphiFieldEndAccess
p1989
(dp1990
g464
S'lines'
p1991
sba(idelphi
DelphiFieldEndAccess
p1992
(dp1993
g464
S'add'
p1994
sba(idelphi
DelphiFunctionEndAccess
p1995
(dp1996
g295
(lp1997
(idelphi
DelphiAddOp
p1998
(dp1999
g1080
S'+'
sg1081
(i__main__
DelphiIdentAccess
p2000
(dp2001
g289
S'boolToStr'
p2002
sg291
(lp2003
(idelphi
DelphiFunctionEndAccess
p2004
(dp2005
g295
(lp2006
(i__main__
DelphiIdentAccess
p2007
(dp2008
g289
S'multiplyScale'
p2009
sg291
(lp2010
sbasbasbsg1084
(idelphi
DelphiStringAccess
p2011
(dp2012
g291
(lp2013
sg163
(idelphi
DelphiStringValue
p2014
(dp2015
g163
S'  change scale ='
p2016
sbsbsbasbasbsba(i__main__
DelphiAssignStatement
p2017
(dp2018
g285
Nsg286
(i__main__
DelphiIdentAccess
p2019
(dp2020
g289
S'aMemo'
p2021
sg291
(lp2022
(idelphi
DelphiFieldEndAccess
p2023
(dp2024
g464
S'lines'
p2025
sba(idelphi
DelphiFieldEndAccess
p2026
(dp2027
g464
S'add'
p2028
sba(idelphi
DelphiFunctionEndAccess
p2029
(dp2030
g295
(lp2031
(idelphi
DelphiAddOp
p2032
(dp2033
g1080
S'+'
sg1081
(i__main__
DelphiIdentAccess
p2034
(dp2035
g289
S'boolToStr'
p2036
sg291
(lp2037
(idelphi
DelphiFunctionEndAccess
p2038
(dp2039
g295
(lp2040
(i__main__
DelphiIdentAccess
p2041
(dp2042
g289
S'propagateScale'
p2043
sg291
(lp2044
sbasbasbsg1084
(idelphi
DelphiStringAccess
p2045
(dp2046
g291
(lp2047
sg163
(idelphi
DelphiStringValue
p2048
(dp2049
g163
S'  propagate scale change up stem ='
p2050
sbsbsbasbasbsba(i__main__
DelphiAssignStatement
p2051
(dp2052
g285
Nsg286
(i__main__
DelphiIdentAccess
p2053
(dp2054
g289
S'aMemo'
p2055
sg291
(lp2056
(idelphi
DelphiFieldEndAccess
p2057
(dp2058
g464
S'lines'
p2059
sba(idelphi
DelphiFieldEndAccess
p2060
(dp2061
g464
S'add'
p2062
sba(idelphi
DelphiFunctionEndAccess
p2063
(dp2064
g295
(lp2065
(idelphi
DelphiAddOp
p2066
(dp2067
g1080
S'+'
sg1081
(i__main__
DelphiIdentAccess
p2068
(dp2069
g289
S'intToStr'
p2070
sg291
(lp2071
(idelphi
DelphiFunctionEndAccess
p2072
(dp2073
g295
(lp2074
(i__main__
DelphiIdentAccess
p2075
(dp2076
g289
S'scaleMultiplier_pct'
p2077
sg291
(lp2078
sbasbasbsg1084
(idelphi
DelphiStringAccess
p2079
(dp2080
g291
(lp2081
sg163
(idelphi
DelphiStringValue
p2082
(dp2083
g163
S'  3d object scale multiplier ='
p2084
sbsbsbasbasbsba(i__main__
DelphiAssignStatement
p2085
(dp2086
g285
Nsg286
(i__main__
DelphiIdentAccess
p2087
(dp2088
g289
S'aMemo'
p2089
sg291
(lp2090
(idelphi
DelphiFieldEndAccess
p2091
(dp2092
g464
S'lines'
p2093
sba(idelphi
DelphiFieldEndAccess
p2094
(dp2095
g464
S'add'
p2096
sba(idelphi
DelphiFunctionEndAccess
p2097
(dp2098
g295
(lp2099
(idelphi
DelphiAddOp
p2100
(dp2101
g1080
S'+'
sg1081
(i__main__
DelphiIdentAccess
p2102
(dp2103
g289
S'intToStr'
p2104
sg291
(lp2105
(idelphi
DelphiFunctionEndAccess
p2106
(dp2107
g295
(lp2108
(i__main__
DelphiIdentAccess
p2109
(dp2110
g289
S'lengthMultiplier_pct'
p2111
sg291
(lp2112
sbasbasbsg1084
(idelphi
DelphiStringAccess
p2113
(dp2114
g291
(lp2115
sg163
(idelphi
DelphiStringValue
p2116
(dp2117
g163
S'  line length multiplier ='
p2118
sbsbsbasbasbsba(i__main__
DelphiAssignStatement
p2119
(dp2120
g285
Nsg286
(i__main__
DelphiIdentAccess
p2121
(dp2122
g289
S'aMemo'
p2123
sg291
(lp2124
(idelphi
DelphiFieldEndAccess
p2125
(dp2126
g464
S'lines'
p2127
sba(idelphi
DelphiFieldEndAccess
p2128
(dp2129
g464
S'add'
p2130
sba(idelphi
DelphiFunctionEndAccess
p2131
(dp2132
g295
(lp2133
(idelphi
DelphiAddOp
p2134
(dp2135
g1080
S'+'
sg1081
(i__main__
DelphiIdentAccess
p2136
(dp2137
g289
S'intToStr'
p2138
sg291
(lp2139
(idelphi
DelphiFunctionEndAccess
p2140
(dp2141
g295
(lp2142
(i__main__
DelphiIdentAccess
p2143
(dp2144
g289
S'widthMultiplier_pct'
p2145
sg291
(lp2146
sbasbasbsg1084
(idelphi
DelphiStringAccess
p2147
(dp2148
g291
(lp2149
sg163
(idelphi
DelphiStringValue
p2150
(dp2151
g163
S'  line width multiplier ='
p2152
sbsbsbasbasbsba(i__main__
DelphiAssignStatement
p2153
(dp2154
g285
Nsg286
(i__main__
DelphiIdentAccess
p2155
(dp2156
g289
S'aMemo'
p2157
sg291
(lp2158
(idelphi
DelphiFieldEndAccess
p2159
(dp2160
g464
S'lines'
p2161
sba(idelphi
DelphiFieldEndAccess
p2162
(dp2163
g464
S'add'
p2164
sba(idelphi
DelphiFunctionEndAccess
p2165
(dp2166
g295
(lp2167
(i__main__
DelphiIdentAccess
p2168
(dp2169
g289
S'kEndAmendmentString'
p2170
sg291
(lp2171
sbasbasbsg305
(lp2172
S'\r'
aS"  aMemo.lines.add('  apply at age =' + intToStr(applyAtAge));\r"
p2173
aS'  '
p2174
asbasbsg475
(lp2175
sbsbsS'getfullname'
p2176
(i__main__
DelphiMethodImplementation
p2177
(dp2178
g248
g157
sg45
g159
sg53
(lp2179
sg257
(lp2180
sg259
(lp2181
sg261
(lp2182
g263
asg264
(dp2183
sg70
S'PdPlantDrawingAmendment'
p2184
sg71
(i__main__
DelphiPrimitiveType
p2185
(dp2186
g64
g163
sbsg267
(lp2187
sg72
I0
sg73
g164
sg269
(i__main__
DelphiBlock
p2188
(dp2189
g272
(idelphi
DelphiCompoundStatement
p2190
(dp2191
g275
(lp2192
(i__main__
DelphiAssignStatement
p2193
(dp2194
g285
(idelphi
DelphiAddOp
p2195
(dp2196
g1080
S'+'
sg1081
(idelphi
DelphiStringAccess
p2197
(dp2198
g291
(lp2199
sg163
(idelphi
DelphiStringValue
p2200
(dp2201
g163
S')'
sbsbsg1084
(idelphi
DelphiAddOp
p2202
(dp2203
g1080
S'+'
sg1081
(i__main__
DelphiIdentAccess
p2204
(dp2205
g289
S'self'
p2206
sg291
(lp2207
(idelphi
DelphiFieldEndAccess
p2208
(dp2209
g464
S'typeOfPart'
p2210
sbasbsg1084
(idelphi
DelphiAddOp
p2211
(dp2212
g1080
S'+'
sg1081
(idelphi
DelphiStringAccess
p2213
(dp2214
g291
(lp2215
sg163
(idelphi
DelphiStringValue
p2216
(dp2217
g163
S' ('
p2218
sbsbsg1084
(i__main__
DelphiIdentAccess
p2219
(dp2220
g289
S'intToStr'
p2221
sg291
(lp2222
(idelphi
DelphiFunctionEndAccess
p2223
(dp2224
g295
(lp2225
(i__main__
DelphiIdentAccess
p2226
(dp2227
g289
S'self'
p2228
sg291
(lp2229
(idelphi
DelphiFieldEndAccess
p2230
(dp2231
g464
S'partID'
p2232
sbasbasbasbsbsbsbsg286
(i__main__
DelphiIdentAccess
p2233
(dp2234
g289
S'result'
p2235
sg291
(lp2236
sbsba(idelphi
DelphiIfStatement
p2237
(dp2238
g310
(i__main__
DelphiIdentAccess
p2239
(dp2240
g289
S'hide'
p2241
sg291
(lp2242
sbsg336
Nsg337
(i__main__
DelphiAssignStatement
p2243
(dp2244
g285
(idelphi
DelphiAddOp
p2245
(dp2246
g1080
S'+'
sg1081
(idelphi
DelphiStringAccess
p2247
(dp2248
g291
(lp2249
sg163
(idelphi
DelphiStringValue
p2250
(dp2251
g163
S', hidden'
p2252
sbsbsg1084
(i__main__
DelphiIdentAccess
p2253
(dp2254
g289
S'result'
p2255
sg291
(lp2256
sbsbsg286
(i__main__
DelphiIdentAccess
p2257
(dp2258
g289
S'result'
p2259
sg291
(lp2260
sbsbsba(idelphi
DelphiIfStatement
p2261
(dp2262
g310
(i__main__
DelphiIdentAccess
p2263
(dp2264
g289
S'changeColors'
p2265
sg291
(lp2266
sbsg336
Nsg337
(i__main__
DelphiAssignStatement
p2267
(dp2268
g285
(idelphi
DelphiAddOp
p2269
(dp2270
g1080
S'+'
sg1081
(idelphi
DelphiStringAccess
p2271
(dp2272
g291
(lp2273
sg163
(idelphi
DelphiStringValue
p2274
(dp2275
g163
S', colored'
p2276
sbsbsg1084
(i__main__
DelphiIdentAccess
p2277
(dp2278
g289
S'result'
p2279
sg291
(lp2280
sbsbsg286
(i__main__
DelphiIdentAccess
p2281
(dp2282
g289
S'result'
p2283
sg291
(lp2284
sbsbsba(idelphi
DelphiIfStatement
p2285
(dp2286
g310
(i__main__
DelphiIdentAccess
p2287
(dp2288
g289
S'addRotations'
p2289
sg291
(lp2290
sbsg336
Nsg337
(i__main__
DelphiAssignStatement
p2291
(dp2292
g285
(idelphi
DelphiAddOp
p2293
(dp2294
g1080
S'+'
sg1081
(idelphi
DelphiStringAccess
p2295
(dp2296
g291
(lp2297
sg163
(idelphi
DelphiStringValue
p2298
(dp2299
g163
S', rotated'
p2300
sbsbsg1084
(i__main__
DelphiIdentAccess
p2301
(dp2302
g289
S'result'
p2303
sg291
(lp2304
sbsbsg286
(i__main__
DelphiIdentAccess
p2305
(dp2306
g289
S'result'
p2307
sg291
(lp2308
sbsbsba(idelphi
DelphiIfStatement
p2309
(dp2310
g310
(i__main__
DelphiIdentAccess
p2311
(dp2312
g289
S'multiplyScale'
p2313
sg291
(lp2314
sbsg336
Nsg337
(i__main__
DelphiAssignStatement
p2315
(dp2316
g285
(idelphi
DelphiAddOp
p2317
(dp2318
g1080
S'+'
sg1081
(idelphi
DelphiStringAccess
p2319
(dp2320
g291
(lp2321
sg163
(idelphi
DelphiStringValue
p2322
(dp2323
g163
S', scaled'
p2324
sbsbsg1084
(i__main__
DelphiIdentAccess
p2325
(dp2326
g289
S'result'
p2327
sg291
(lp2328
sbsbsg286
(i__main__
DelphiIdentAccess
p2329
(dp2330
g289
S'result'
p2331
sg291
(lp2332
sbsbsba(idelphi
DelphiIfStatement
p2333
(dp2334
g310
(idelphi
DelphiRelOp
p2335
(dp2336
g317
(i__main__
DelphiIdentAccess
p2337
(dp2338
g289
S'applyAtAge'
p2339
sg291
(lp2340
sbsg329
(idelphi
DelphiIntegerValue
p2341
(dp2342
g163
S'0'
sbsg335
S'<>'
p2343
sbsg336
Nsg337
(i__main__
DelphiAssignStatement
p2344
(dp2345
g285
(idelphi
DelphiAddOp
p2346
(dp2347
g1080
S'+'
sg1081
(i__main__
DelphiIdentAccess
p2348
(dp2349
g289
S'intToStr'
p2350
sg291
(lp2351
(idelphi
DelphiFunctionEndAccess
p2352
(dp2353
g295
(lp2354
(i__main__
DelphiIdentAccess
p2355
(dp2356
g289
S'applyAtAge'
p2357
sg291
(lp2358
sbasbasbsg1084
(idelphi
DelphiAddOp
p2359
(dp2360
g1080
S'+'
sg1081
(idelphi
DelphiStringAccess
p2361
(dp2362
g291
(lp2363
sg163
(idelphi
DelphiStringValue
p2364
(dp2365
g163
S' at age '
p2366
sbsbsg1084
(i__main__
DelphiIdentAccess
p2367
(dp2368
g289
S'result'
p2369
sg291
(lp2370
sbsbsbsg286
(i__main__
DelphiIdentAccess
p2371
(dp2372
g289
S'result'
p2373
sg291
(lp2374
sbsbsbasbsg475
(lp2375
sbsbsS'setfield'
p2376
(i__main__
DelphiMethodImplementation
p2377
(dp2378
g248
g166
sg45
g168
sg53
(lp2379
(i__main__
DelphiFormalParameter
p2380
(dp2381
g57
Nsg58
(lp2382
S'varName'
p2383
aS'varValue'
p2384
asg61
(i__main__
DelphiPrimitiveType
p2385
(dp2386
g64
g163
sbsg68
Nsbasg257
(lp2387
sg259
(lp2388
sg261
(lp2389
g263
ag2383
ag2384
asg264
(dp2390
g2383
g2385
sg2384
g2385
ssg70
S'PdPlantDrawingAmendment'
p2391
sg71
(i__main__
DelphiPrimitiveType
p2392
(dp2393
g64
g179
sbsg267
(lp2394
sg72
I0
sg73
g164
sg269
(i__main__
DelphiBlock
p2395
(dp2396
g272
(idelphi
DelphiCompoundStatement
p2397
(dp2398
g275
(lp2399
(i__main__
DelphiAssignStatement
p2400
(dp2401
g285
(i__main__
DelphiIdentAccess
p2402
(dp2403
g289
S'true'
p2404
sg291
(lp2405
sbsg286
(i__main__
DelphiIdentAccess
p2406
(dp2407
g289
S'result'
p2408
sg291
(lp2409
sbsba(idelphi
DelphiIfStatement
p2410
(dp2411
g310
(idelphi
DelphiRelOp
p2412
(dp2413
g317
(i__main__
DelphiIdentAccess
p2414
(dp2415
g289
S'pos'
p2416
sg291
(lp2417
(idelphi
DelphiFunctionEndAccess
p2418
(dp2419
g295
(lp2420
(idelphi
DelphiStringAccess
p2421
(dp2422
g291
(lp2423
sg163
(idelphi
DelphiStringValue
p2424
(dp2425
g163
S'part number'
p2426
sbsba(i__main__
DelphiIdentAccess
p2427
(dp2428
g289
S'varName'
p2429
sg291
(lp2430
sbasbasbsg329
(idelphi
DelphiIntegerValue
p2431
(dp2432
g163
S'0'
sbsg335
S'>'
sbsg336
(idelphi
DelphiIfStatement
p2433
(dp2434
g310
(idelphi
DelphiRelOp
p2435
(dp2436
g317
(i__main__
DelphiIdentAccess
p2437
(dp2438
g289
S'pos'
p2439
sg291
(lp2440
(idelphi
DelphiFunctionEndAccess
p2441
(dp2442
g295
(lp2443
(idelphi
DelphiStringAccess
p2444
(dp2445
g291
(lp2446
sg163
(idelphi
DelphiStringValue
p2447
(dp2448
g163
S'part type'
p2449
sbsba(i__main__
DelphiIdentAccess
p2450
(dp2451
g289
S'varName'
p2452
sg291
(lp2453
sbasbasbsg329
(idelphi
DelphiIntegerValue
p2454
(dp2455
g163
S'0'
sbsg335
S'>'
sbsg336
(idelphi
DelphiIfStatement
p2456
(dp2457
g310
(idelphi
DelphiRelOp
p2458
(dp2459
g317
(i__main__
DelphiIdentAccess
p2460
(dp2461
g289
S'pos'
p2462
sg291
(lp2463
(idelphi
DelphiFunctionEndAccess
p2464
(dp2465
g295
(lp2466
(idelphi
DelphiStringAccess
p2467
(dp2468
g291
(lp2469
sg163
(idelphi
DelphiStringValue
p2470
(dp2471
g163
S'hide'
p2472
sbsba(i__main__
DelphiIdentAccess
p2473
(dp2474
g289
S'varName'
p2475
sg291
(lp2476
sbasbasbsg329
(idelphi
DelphiIntegerValue
p2477
(dp2478
g163
S'0'
sbsg335
S'>'
sbsg336
(idelphi
DelphiIfStatement
p2479
(dp2480
g310
(idelphi
DelphiRelOp
p2481
(dp2482
g317
(i__main__
DelphiIdentAccess
p2483
(dp2484
g289
S'pos'
p2485
sg291
(lp2486
(idelphi
DelphiFunctionEndAccess
p2487
(dp2488
g295
(lp2489
(idelphi
DelphiStringAccess
p2490
(dp2491
g291
(lp2492
sg163
(idelphi
DelphiStringValue
p2493
(dp2494
g163
S'change colors'
p2495
sbsba(i__main__
DelphiIdentAccess
p2496
(dp2497
g289
S'varName'
p2498
sg291
(lp2499
sbasbasbsg329
(idelphi
DelphiIntegerValue
p2500
(dp2501
g163
S'0'
sbsg335
S'>'
sbsg336
(idelphi
DelphiIfStatement
p2502
(dp2503
g310
(idelphi
DelphiRelOp
p2504
(dp2505
g317
(i__main__
DelphiIdentAccess
p2506
(dp2507
g289
S'pos'
p2508
sg291
(lp2509
(idelphi
DelphiFunctionEndAccess
p2510
(dp2511
g295
(lp2512
(idelphi
DelphiStringAccess
p2513
(dp2514
g291
(lp2515
sg163
(idelphi
DelphiStringValue
p2516
(dp2517
g163
S'propagate colors up stem'
p2518
sbsba(i__main__
DelphiIdentAccess
p2519
(dp2520
g289
S'varName'
p2521
sg291
(lp2522
sbasbasbsg329
(idelphi
DelphiIntegerValue
p2523
(dp2524
g163
S'0'
sbsg335
S'>'
sbsg336
(idelphi
DelphiIfStatement
p2525
(dp2526
g310
(idelphi
DelphiRelOp
p2527
(dp2528
g317
(i__main__
DelphiIdentAccess
p2529
(dp2530
g289
S'pos'
p2531
sg291
(lp2532
(idelphi
DelphiFunctionEndAccess
p2533
(dp2534
g295
(lp2535
(idelphi
DelphiStringAccess
p2536
(dp2537
g291
(lp2538
sg163
(idelphi
DelphiStringValue
p2539
(dp2540
g163
S'front face color'
p2541
sbsba(i__main__
DelphiIdentAccess
p2542
(dp2543
g289
S'varName'
p2544
sg291
(lp2545
sbasbasbsg329
(idelphi
DelphiIntegerValue
p2546
(dp2547
g163
S'0'
sbsg335
S'>'
sbsg336
(idelphi
DelphiIfStatement
p2548
(dp2549
g310
(idelphi
DelphiRelOp
p2550
(dp2551
g317
(i__main__
DelphiIdentAccess
p2552
(dp2553
g289
S'pos'
p2554
sg291
(lp2555
(idelphi
DelphiFunctionEndAccess
p2556
(dp2557
g295
(lp2558
(idelphi
DelphiStringAccess
p2559
(dp2560
g291
(lp2561
sg163
(idelphi
DelphiStringValue
p2562
(dp2563
g163
S'back face color'
p2564
sbsba(i__main__
DelphiIdentAccess
p2565
(dp2566
g289
S'varName'
p2567
sg291
(lp2568
sbasbasbsg329
(idelphi
DelphiIntegerValue
p2569
(dp2570
g163
S'0'
sbsg335
S'>'
sbsg336
(idelphi
DelphiIfStatement
p2571
(dp2572
g310
(idelphi
DelphiRelOp
p2573
(dp2574
g317
(i__main__
DelphiIdentAccess
p2575
(dp2576
g289
S'pos'
p2577
sg291
(lp2578
(idelphi
DelphiFunctionEndAccess
p2579
(dp2580
g295
(lp2581
(idelphi
DelphiStringAccess
p2582
(dp2583
g291
(lp2584
sg163
(idelphi
DelphiStringValue
p2585
(dp2586
g163
S'line color'
p2587
sbsba(i__main__
DelphiIdentAccess
p2588
(dp2589
g289
S'varName'
p2590
sg291
(lp2591
sbasbasbsg329
(idelphi
DelphiIntegerValue
p2592
(dp2593
g163
S'0'
sbsg335
S'>'
sbsg336
(idelphi
DelphiIfStatement
p2594
(dp2595
g310
(idelphi
DelphiRelOp
p2596
(dp2597
g317
(i__main__
DelphiIdentAccess
p2598
(dp2599
g289
S'pos'
p2600
sg291
(lp2601
(idelphi
DelphiFunctionEndAccess
p2602
(dp2603
g295
(lp2604
(idelphi
DelphiStringAccess
p2605
(dp2606
g291
(lp2607
sg163
(idelphi
DelphiStringValue
p2608
(dp2609
g163
S'rotate'
p2610
sbsba(i__main__
DelphiIdentAccess
p2611
(dp2612
g289
S'varName'
p2613
sg291
(lp2614
sbasbasbsg329
(idelphi
DelphiIntegerValue
p2615
(dp2616
g163
S'0'
sbsg335
S'>'
sbsg336
(idelphi
DelphiIfStatement
p2617
(dp2618
g310
(idelphi
DelphiRelOp
p2619
(dp2620
g317
(i__main__
DelphiIdentAccess
p2621
(dp2622
g289
S'pos'
p2623
sg291
(lp2624
(idelphi
DelphiFunctionEndAccess
p2625
(dp2626
g295
(lp2627
(idelphi
DelphiStringAccess
p2628
(dp2629
g291
(lp2630
sg163
(idelphi
DelphiStringValue
p2631
(dp2632
g163
S'x rotation'
p2633
sbsba(i__main__
DelphiIdentAccess
p2634
(dp2635
g289
S'varName'
p2636
sg291
(lp2637
sbasbasbsg329
(idelphi
DelphiIntegerValue
p2638
(dp2639
g163
S'0'
sbsg335
S'>'
sbsg336
(idelphi
DelphiIfStatement
p2640
(dp2641
g310
(idelphi
DelphiRelOp
p2642
(dp2643
g317
(i__main__
DelphiIdentAccess
p2644
(dp2645
g289
S'pos'
p2646
sg291
(lp2647
(idelphi
DelphiFunctionEndAccess
p2648
(dp2649
g295
(lp2650
(idelphi
DelphiStringAccess
p2651
(dp2652
g291
(lp2653
sg163
(idelphi
DelphiStringValue
p2654
(dp2655
g163
S'y rotation'
p2656
sbsba(i__main__
DelphiIdentAccess
p2657
(dp2658
g289
S'varName'
p2659
sg291
(lp2660
sbasbasbsg329
(idelphi
DelphiIntegerValue
p2661
(dp2662
g163
S'0'
sbsg335
S'>'
sbsg336
(idelphi
DelphiIfStatement
p2663
(dp2664
g310
(idelphi
DelphiRelOp
p2665
(dp2666
g317
(i__main__
DelphiIdentAccess
p2667
(dp2668
g289
S'pos'
p2669
sg291
(lp2670
(idelphi
DelphiFunctionEndAccess
p2671
(dp2672
g295
(lp2673
(idelphi
DelphiStringAccess
p2674
(dp2675
g291
(lp2676
sg163
(idelphi
DelphiStringValue
p2677
(dp2678
g163
S'z rotation'
p2679
sbsba(i__main__
DelphiIdentAccess
p2680
(dp2681
g289
S'varName'
p2682
sg291
(lp2683
sbasbasbsg329
(idelphi
DelphiIntegerValue
p2684
(dp2685
g163
S'0'
sbsg335
S'>'
sbsg336
(idelphi
DelphiIfStatement
p2686
(dp2687
g310
(idelphi
DelphiRelOp
p2688
(dp2689
g317
(i__main__
DelphiIdentAccess
p2690
(dp2691
g289
S'pos'
p2692
sg291
(lp2693
(idelphi
DelphiFunctionEndAccess
p2694
(dp2695
g295
(lp2696
(idelphi
DelphiStringAccess
p2697
(dp2698
g291
(lp2699
sg163
(idelphi
DelphiStringValue
p2700
(dp2701
g163
S'change scale'
p2702
sbsba(i__main__
DelphiIdentAccess
p2703
(dp2704
g289
S'varName'
p2705
sg291
(lp2706
sbasbasbsg329
(idelphi
DelphiIntegerValue
p2707
(dp2708
g163
S'0'
sbsg335
S'>'
sbsg336
(idelphi
DelphiIfStatement
p2709
(dp2710
g310
(idelphi
DelphiRelOp
p2711
(dp2712
g317
(i__main__
DelphiIdentAccess
p2713
(dp2714
g289
S'pos'
p2715
sg291
(lp2716
(idelphi
DelphiFunctionEndAccess
p2717
(dp2718
g295
(lp2719
(idelphi
DelphiStringAccess
p2720
(dp2721
g291
(lp2722
sg163
(idelphi
DelphiStringValue
p2723
(dp2724
g163
S'propagate scale change up stem'
p2725
sbsba(i__main__
DelphiIdentAccess
p2726
(dp2727
g289
S'varName'
p2728
sg291
(lp2729
sbasbasbsg329
(idelphi
DelphiIntegerValue
p2730
(dp2731
g163
S'0'
sbsg335
S'>'
sbsg336
(idelphi
DelphiIfStatement
p2732
(dp2733
g310
(idelphi
DelphiRelOp
p2734
(dp2735
g317
(i__main__
DelphiIdentAccess
p2736
(dp2737
g289
S'pos'
p2738
sg291
(lp2739
(idelphi
DelphiFunctionEndAccess
p2740
(dp2741
g295
(lp2742
(idelphi
DelphiStringAccess
p2743
(dp2744
g291
(lp2745
sg163
(idelphi
DelphiStringValue
p2746
(dp2747
g163
S'3d object scale multiplier'
p2748
sbsba(i__main__
DelphiIdentAccess
p2749
(dp2750
g289
S'varName'
p2751
sg291
(lp2752
sbasbasbsg329
(idelphi
DelphiIntegerValue
p2753
(dp2754
g163
S'0'
sbsg335
S'>'
sbsg336
(idelphi
DelphiIfStatement
p2755
(dp2756
g310
(idelphi
DelphiRelOp
p2757
(dp2758
g317
(i__main__
DelphiIdentAccess
p2759
(dp2760
g289
S'pos'
p2761
sg291
(lp2762
(idelphi
DelphiFunctionEndAccess
p2763
(dp2764
g295
(lp2765
(idelphi
DelphiStringAccess
p2766
(dp2767
g291
(lp2768
sg163
(idelphi
DelphiStringValue
p2769
(dp2770
g163
S'line length multiplier'
p2771
sbsba(i__main__
DelphiIdentAccess
p2772
(dp2773
g289
S'varName'
p2774
sg291
(lp2775
sbasbasbsg329
(idelphi
DelphiIntegerValue
p2776
(dp2777
g163
S'0'
sbsg335
S'>'
sbsg336
(idelphi
DelphiIfStatement
p2778
(dp2779
g310
(idelphi
DelphiRelOp
p2780
(dp2781
g317
(i__main__
DelphiIdentAccess
p2782
(dp2783
g289
S'pos'
p2784
sg291
(lp2785
(idelphi
DelphiFunctionEndAccess
p2786
(dp2787
g295
(lp2788
(idelphi
DelphiStringAccess
p2789
(dp2790
g291
(lp2791
sg163
(idelphi
DelphiStringValue
p2792
(dp2793
g163
S'line width multiplier'
p2794
sbsba(i__main__
DelphiIdentAccess
p2795
(dp2796
g289
S'varName'
p2797
sg291
(lp2798
sbasbasbsg329
(idelphi
DelphiIntegerValue
p2799
(dp2800
g163
S'0'
sbsg335
S'>'
sbsg336
(idelphi
DelphiIfStatement
p2801
(dp2802
g310
(idelphi
DelphiRelOp
p2803
(dp2804
g317
(i__main__
DelphiIdentAccess
p2805
(dp2806
g289
S'pos'
p2807
sg291
(lp2808
(idelphi
DelphiFunctionEndAccess
p2809
(dp2810
g295
(lp2811
(idelphi
DelphiStringAccess
p2812
(dp2813
g291
(lp2814
sg163
(idelphi
DelphiStringValue
p2815
(dp2816
g163
S'apply at age'
p2817
sbsba(i__main__
DelphiIdentAccess
p2818
(dp2819
g289
S'varName'
p2820
sg291
(lp2821
sbasbasbsg329
(idelphi
DelphiIntegerValue
p2822
(dp2823
g163
S'0'
sbsg335
S'>'
sbsg336
(i__main__
DelphiAssignStatement
p2824
(dp2825
g285
(i__main__
DelphiIdentAccess
p2826
(dp2827
g289
S'false'
p2828
sg291
(lp2829
sbsg286
(i__main__
DelphiIdentAccess
p2830
(dp2831
g289
S'result'
p2832
sg291
(lp2833
sbsbsg337
(i__main__
DelphiAssignStatement
p2834
(dp2835
g285
(i__main__
DelphiIdentAccess
p2836
(dp2837
g289
S'true'
p2838
sg291
(lp2839
sbsg286
(i__main__
DelphiIdentAccess
p2840
(dp2841
g289
S'result'
p2842
sg291
(lp2843
sbsg305
(lp2844
S" read these for possible backward compatibility later, but don't do anything with them\r"
p2845
aS' self.applyAtAge := strToIntDef(varValue, 0)\r'
p2846
asbsbsg337
(i__main__
DelphiAssignStatement
p2847
(dp2848
g285
(i__main__
DelphiIdentAccess
p2849
(dp2850
g289
S'strToIntDef'
p2851
sg291
(lp2852
(idelphi
DelphiFunctionEndAccess
p2853
(dp2854
g295
(lp2855
(i__main__
DelphiIdentAccess
p2856
(dp2857
g289
S'varValue'
p2858
sg291
(lp2859
sba(idelphi
DelphiIntegerValue
p2860
(dp2861
g163
S'100'
p2862
sbasbasbsg286
(i__main__
DelphiIdentAccess
p2863
(dp2864
g289
S'self'
p2865
sg291
(lp2866
(idelphi
DelphiFieldEndAccess
p2867
(dp2868
g464
S'widthMultiplier_pct'
p2869
sbasbsbsbsg337
(i__main__
DelphiAssignStatement
p2870
(dp2871
g285
(i__main__
DelphiIdentAccess
p2872
(dp2873
g289
S'strToIntDef'
p2874
sg291
(lp2875
(idelphi
DelphiFunctionEndAccess
p2876
(dp2877
g295
(lp2878
(i__main__
DelphiIdentAccess
p2879
(dp2880
g289
S'varValue'
p2881
sg291
(lp2882
sba(idelphi
DelphiIntegerValue
p2883
(dp2884
g163
S'100'
p2885
sbasbasbsg286
(i__main__
DelphiIdentAccess
p2886
(dp2887
g289
S'self'
p2888
sg291
(lp2889
(idelphi
DelphiFieldEndAccess
p2890
(dp2891
g464
S'lengthMultiplier_pct'
p2892
sbasbsbsbsg337
(i__main__
DelphiAssignStatement
p2893
(dp2894
g285
(i__main__
DelphiIdentAccess
p2895
(dp2896
g289
S'strToIntDef'
p2897
sg291
(lp2898
(idelphi
DelphiFunctionEndAccess
p2899
(dp2900
g295
(lp2901
(i__main__
DelphiIdentAccess
p2902
(dp2903
g289
S'varValue'
p2904
sg291
(lp2905
sba(idelphi
DelphiIntegerValue
p2906
(dp2907
g163
S'100'
p2908
sbasbasbsg286
(i__main__
DelphiIdentAccess
p2909
(dp2910
g289
S'self'
p2911
sg291
(lp2912
(idelphi
DelphiFieldEndAccess
p2913
(dp2914
g464
S'scaleMultiplier_pct'
p2915
sbasbsbsbsg337
(i__main__
DelphiAssignStatement
p2916
(dp2917
g285
(i__main__
DelphiIdentAccess
p2918
(dp2919
g289
S'strToBool'
p2920
sg291
(lp2921
(idelphi
DelphiFunctionEndAccess
p2922
(dp2923
g295
(lp2924
(i__main__
DelphiIdentAccess
p2925
(dp2926
g289
S'varValue'
p2927
sg291
(lp2928
sbasbasbsg286
(i__main__
DelphiIdentAccess
p2929
(dp2930
g289
S'self'
p2931
sg291
(lp2932
(idelphi
DelphiFieldEndAccess
p2933
(dp2934
g464
S'propagateScale'
p2935
sbasbsbsbsg337
(i__main__
DelphiAssignStatement
p2936
(dp2937
g285
(i__main__
DelphiIdentAccess
p2938
(dp2939
g289
S'strToBool'
p2940
sg291
(lp2941
(idelphi
DelphiFunctionEndAccess
p2942
(dp2943
g295
(lp2944
(i__main__
DelphiIdentAccess
p2945
(dp2946
g289
S'varValue'
p2947
sg291
(lp2948
sbasbasbsg286
(i__main__
DelphiIdentAccess
p2949
(dp2950
g289
S'self'
p2951
sg291
(lp2952
(idelphi
DelphiFieldEndAccess
p2953
(dp2954
g464
S'multiplyScale'
p2955
sbasbsbsbsg337
(i__main__
DelphiAssignStatement
p2956
(dp2957
g285
(idelphi
DelphiMulOp
p2958
(dp2959
S'signedFactor2'
p2960
(idelphi
DelphiRealValue
p2961
(dp2962
g163
S'1.0'
p2963
sbsS'mulOp'
p2964
S'*'
sS'signedFactor1'
p2965
(i__main__
DelphiIdentAccess
p2966
(dp2967
g289
S'strToInt'
p2968
sg291
(lp2969
(idelphi
DelphiFunctionEndAccess
p2970
(dp2971
g295
(lp2972
(i__main__
DelphiIdentAccess
p2973
(dp2974
g289
S'varValue'
p2975
sg291
(lp2976
sbasbasbsbsg286
(i__main__
DelphiIdentAccess
p2977
(dp2978
g289
S'self'
p2979
sg291
(lp2980
(idelphi
DelphiFieldEndAccess
p2981
(dp2982
g464
S'zRotation'
p2983
sbasbsbsbsg337
(i__main__
DelphiAssignStatement
p2984
(dp2985
g285
(idelphi
DelphiMulOp
p2986
(dp2987
g2960
(idelphi
DelphiRealValue
p2988
(dp2989
g163
S'1.0'
p2990
sbsg2964
S'*'
sg2965
(i__main__
DelphiIdentAccess
p2991
(dp2992
g289
S'strToInt'
p2993
sg291
(lp2994
(idelphi
DelphiFunctionEndAccess
p2995
(dp2996
g295
(lp2997
(i__main__
DelphiIdentAccess
p2998
(dp2999
g289
S'varValue'
p3000
sg291
(lp3001
sbasbasbsbsg286
(i__main__
DelphiIdentAccess
p3002
(dp3003
g289
S'self'
p3004
sg291
(lp3005
(idelphi
DelphiFieldEndAccess
p3006
(dp3007
g464
S'yRotation'
p3008
sbasbsbsbsg337
(i__main__
DelphiAssignStatement
p3009
(dp3010
g285
(idelphi
DelphiMulOp
p3011
(dp3012
g2960
(idelphi
DelphiRealValue
p3013
(dp3014
g163
S'1.0'
p3015
sbsg2964
S'*'
sg2965
(i__main__
DelphiIdentAccess
p3016
(dp3017
g289
S'strToInt'
p3018
sg291
(lp3019
(idelphi
DelphiFunctionEndAccess
p3020
(dp3021
g295
(lp3022
(i__main__
DelphiIdentAccess
p3023
(dp3024
g289
S'varValue'
p3025
sg291
(lp3026
sbasbasbsbsg286
(i__main__
DelphiIdentAccess
p3027
(dp3028
g289
S'self'
p3029
sg291
(lp3030
(idelphi
DelphiFieldEndAccess
p3031
(dp3032
g464
S'xRotation'
p3033
sbasbsbsbsg337
(i__main__
DelphiAssignStatement
p3034
(dp3035
g285
(i__main__
DelphiIdentAccess
p3036
(dp3037
g289
S'strToBool'
p3038
sg291
(lp3039
(idelphi
DelphiFunctionEndAccess
p3040
(dp3041
g295
(lp3042
(i__main__
DelphiIdentAccess
p3043
(dp3044
g289
S'varValue'
p3045
sg291
(lp3046
sbasbasbsg286
(i__main__
DelphiIdentAccess
p3047
(dp3048
g289
S'self'
p3049
sg291
(lp3050
(idelphi
DelphiFieldEndAccess
p3051
(dp3052
g464
S'addRotations'
p3053
sbasbsbsbsg337
(i__main__
DelphiAssignStatement
p3054
(dp3055
g285
(i__main__
DelphiIdentAccess
p3056
(dp3057
g289
S'true'
p3058
sg291
(lp3059
sbsg286
(i__main__
DelphiIdentAccess
p3060
(dp3061
g289
S'result'
p3062
sg291
(lp3063
sbsg305
(lp3064
S' self.lineColor := strToIntDef(varValue, 0)\r'
p3065
asbsbsg337
(i__main__
DelphiAssignStatement
p3066
(dp3067
g285
(i__main__
DelphiIdentAccess
p3068
(dp3069
g289
S'true'
p3070
sg291
(lp3071
sbsg286
(i__main__
DelphiIdentAccess
p3072
(dp3073
g289
S'result'
p3074
sg291
(lp3075
sbsg305
(lp3076
S' self.backfaceColor := strToIntDef(varValue, 0)\r'
p3077
asbsbsg337
(i__main__
DelphiAssignStatement
p3078
(dp3079
g285
(i__main__
DelphiIdentAccess
p3080
(dp3081
g289
S'true'
p3082
sg291
(lp3083
sbsg286
(i__main__
DelphiIdentAccess
p3084
(dp3085
g289
S'result'
p3086
sg291
(lp3087
sbsg305
(lp3088
S' self.faceColor := strToIntDef(varValue, 0)\r'
p3089
asbsbsg337
(i__main__
DelphiAssignStatement
p3090
(dp3091
g285
(i__main__
DelphiIdentAccess
p3092
(dp3093
g289
S'true'
p3094
sg291
(lp3095
sbsg286
(i__main__
DelphiIdentAccess
p3096
(dp3097
g289
S'result'
p3098
sg291
(lp3099
sbsg305
(lp3100
S' self.propagateColors := strToBool(varValue)\r'
p3101
asbsbsg337
(i__main__
DelphiAssignStatement
p3102
(dp3103
g285
(i__main__
DelphiIdentAccess
p3104
(dp3105
g289
S'true'
p3106
sg291
(lp3107
sbsg286
(i__main__
DelphiIdentAccess
p3108
(dp3109
g289
S'result'
p3110
sg291
(lp3111
sbsg305
(lp3112
S" read these for possible backward compatibility later, but don't do anything with them\r"
p3113
aS' self.changeColors := strToBool(varValue)\r'
p3114
asbsbsg337
(i__main__
DelphiAssignStatement
p3115
(dp3116
g285
(i__main__
DelphiIdentAccess
p3117
(dp3118
g289
S'strToBool'
p3119
sg291
(lp3120
(idelphi
DelphiFunctionEndAccess
p3121
(dp3122
g295
(lp3123
(i__main__
DelphiIdentAccess
p3124
(dp3125
g289
S'varValue'
p3126
sg291
(lp3127
sbasbasbsg286
(i__main__
DelphiIdentAccess
p3128
(dp3129
g289
S'self'
p3130
sg291
(lp3131
(idelphi
DelphiFieldEndAccess
p3132
(dp3133
g464
S'hide'
p3134
sbasbsbsbsg337
(i__main__
DelphiAssignStatement
p3135
(dp3136
g285
(i__main__
DelphiIdentAccess
p3137
(dp3138
g289
S'varValue'
p3139
sg291
(lp3140
sbsg286
(i__main__
DelphiIdentAccess
p3141
(dp3142
g289
S'self'
p3143
sg291
(lp3144
(idelphi
DelphiFieldEndAccess
p3145
(dp3146
g464
S'typeOfPart'
p3147
sbasbsbsbsg337
(i__main__
DelphiAssignStatement
p3148
(dp3149
g285
(i__main__
DelphiIdentAccess
p3150
(dp3151
g289
S'strToIntDef'
p3152
sg291
(lp3153
(idelphi
DelphiFunctionEndAccess
p3154
(dp3155
g295
(lp3156
(i__main__
DelphiIdentAccess
p3157
(dp3158
g289
S'varValue'
p3159
sg291
(lp3160
sba(idelphi
DelphiIntegerValue
p3161
(dp3162
g163
S'0'
sbasbasbsg286
(i__main__
DelphiIdentAccess
p3163
(dp3164
g289
S'self'
p3165
sg291
(lp3166
(idelphi
DelphiFieldEndAccess
p3167
(dp3168
g464
S'partID'
p3169
sbasbsg305
(lp3170
S' how deal with problem?\r'
p3171
asbsbasbsg475
(lp3172
sbsbssS'propertyDeclarations'
p3173
(dp3174
sS'variableNamesInDeclaredOrder'
p3175
(lp3176
g20
ag22
ag16
ag30
ag38
ag18
ag42
ag36
ag12
ag14
ag28
ag44
ag40
ag32
ag24
ag26
ag10
ag34
asba(i__main__
DelphiConstSection
p3177
(dp3178
S'constDeclList'
p3179
(lp3180
(idelphi
DelphiConstDeclaration
p3181
(dp3182
g484
(idelphi
DelphiStringAccess
p3183
(dp3184
g291
(lp3185
sg163
(idelphi
DelphiStringValue
p3186
(dp3187
g163
S'start posing change'
p3188
sbsbsg289
S'kStartAmendmentString'
p3189
sg61
(idelphi
DelphiPrimitiveType
p3190
(dp3191
g64
S'UNDEFINED_NEEDS_CALCULATION'
p3192
sbsba(idelphi
DelphiConstDeclaration
p3193
(dp3194
g484
(idelphi
DelphiStringAccess
p3195
(dp3196
g291
(lp3197
sg163
(idelphi
DelphiStringValue
p3198
(dp3199
g163
S'end posing change'
p3200
sbsbsg289
S'kEndAmendmentString'
p3201
sg61
(idelphi
DelphiPrimitiveType
p3202
(dp3203
g64
g3192
sbsbasg479
I1
sbasS'includedUnits'
p3204
NsS'implementationUses'
p3205
(lp3206
S'SysUtils'
p3207
aS'uplant'
p3208
aS'usupport'
p3209
aS'uclasses'
p3210
asg45
S'uamendmt'
p3211
sS'constSections'
p3212
(lp3213
g3177
asS'globalsInProperCase'
p3214
NsS'interfaceUses'
p3215
(lp3216
S'delphi_compatability'
p3217
aS'WinTypes'
p3218
aS'StdCtrls'
p3219
aS'ufiler'
p3220
asS'finalCommentToken'
p3221
(i__main__
PassStatement
p3222
(dp3223
g475
(lp3224
sbsS'varSections'
p3225
(lp3226
sS'globals'
p3227
NsS'originalFileName'
p3228
S'../../PlantStudioInPython/converted_source/used/uamendmt.pas'
p3229
sS'proceduralImplementations'
p3230
(dp3231
sS'fileName'
p3232
S'/Users/pdf/Documents/workspace/PlantStudioInPython/converted_source/used/uamendmt.pas'
p3233
sS'proceduralDeclarations'
p3234
(dp3235
sS'types'
p3236
(dp3237
S'pdplantdrawingamendment'
p3238
g5
ssb.