(i__main__
DelphiUnit
p1
(dp2
S'sectionsInOrderDefined'
p3
(lp4
(i__main__
DelphiClass
p5
(dp6
S'variableNamesInProperCase'
p7
(dp8
sS'name'
p9
S'PdBitmap'
p10
sS'methodDeclarations'
p11
(dp12
S'streamusingfiler'
p13
(i__main__
DelphiMethodDeclaration
p14
(dp15
g9
S'streamUsingFiler'
p16
sS'formalParameters'
p17
(lp18
(i__main__
DelphiFormalParameter
p19
(dp20
S'initialValue'
p21
NsS'names'
p22
(lp23
S'filer'
p24
asS'theType'
p25
(i__main__
DelphiNamedType
p26
(dp27
S'typeName'
p28
S'PdFiler'
p29
sS'unitDefinedIn'
p30
g1
sS'unitName'
p31
NsbsS'parameterVariety'
p32
NsbasS'className'
p33
g10
sS'resultType'
p34
NsS'isClassMethod'
p35
I0
sS'methodType'
p36
S'procedure'
p37
sS'commentLinesBefore'
p38
(lp39
S'not overriden because not based on streamable object'
p40
aS'subclassed to get at protected streaming functions!'
p41
asbssS'superclassNamedTypes'
p42
(lp43
(i__main__
DelphiNamedType
p44
(dp45
g28
S'TBitmap'
p46
sg30
g1
sg31
NsbasS'variableNames'
p47
(dp48
sS'methodNamesInDefinedOrder'
p49
(lp50
S'streamusingfiler'
p51
asS'methodImplementations'
p52
(dp53
S'streamusingfiler'
p54
(i__main__
DelphiMethodImplementation
p55
(dp56
S'originalDeclaration'
p57
g14
sg9
g16
sg17
(lp58
(i__main__
DelphiFormalParameter
p59
(dp60
g21
Nsg22
(lp61
S'filer'
p62
asg25
(i__main__
DelphiNamedType
p63
(dp64
g28
S'PdFiler'
p65
sg30
g1
sg31
Nsbsg32
NsbasS'varParamIndexes'
p66
(lp67
sS'varParamsSkipped'
p68
(lp69
sS'argNames'
p70
(lp71
S'self'
p72
ag62
asS'argTypes'
p73
(dp74
g62
g63
ssg33
S'PdBitmap'
p75
sg34
NsS'varParamNames'
p76
(lp77
sg35
I0
sg36
g37
sS'block'
p78
(i__main__
DelphiBlock
p79
(dp80
S'compoundStatement'
p81
(idelphi
DelphiCompoundStatement
p82
(dp83
S'statements'
p84
(lp85
(idelphi
DelphiIfStatement
p86
(dp87
S'expression'
p88
(i__main__
DelphiIdentAccess
p89
(dp90
S'ident'
p91
S'filer'
p92
sS'endAccessList'
p93
(lp94
(idelphi
DelphiFieldEndAccess
p95
(dp96
S'field'
p97
S'isReading'
p98
sbasbsS'ifFalseStatement'
p99
(idelphi
DelphiIfStatement
p100
(dp101
g88
(i__main__
DelphiIdentAccess
p102
(dp103
g91
S'filer'
p104
sg93
(lp105
(idelphi
DelphiFieldEndAccess
p106
(dp107
g97
S'isWriting'
p108
sbasbsg99
NsS'ifTrueStatement'
p109
(i__main__
DelphiAssignStatement
p110
(dp111
S'newValueExpression'
p112
NsS'destinationExpression'
p113
(i__main__
DelphiIdentAccess
p114
(dp115
g91
S'self'
p116
sg93
(lp117
(idelphi
DelphiFieldEndAccess
p118
(dp119
g97
S'writeData'
p120
sba(idelphi
DelphiFunctionEndAccess
p121
(dp122
S'expressionList'
p123
(lp124
(i__main__
DelphiIdentAccess
p125
(dp126
g91
S'filer'
p127
sg93
(lp128
(idelphi
DelphiFieldEndAccess
p129
(dp130
g97
S'stream'
p131
sbasbasbasbsbsbsg109
(i__main__
DelphiAssignStatement
p132
(dp133
g112
Nsg113
(i__main__
DelphiIdentAccess
p134
(dp135
g91
S'self'
p136
sg93
(lp137
(idelphi
DelphiFieldEndAccess
p138
(dp139
g97
S'readData'
p140
sba(idelphi
DelphiFunctionEndAccess
p141
(dp142
g123
(lp143
(i__main__
DelphiIdentAccess
p144
(dp145
g91
S'filer'
p146
sg93
(lp147
(idelphi
DelphiFieldEndAccess
p148
(dp149
g97
S'stream'
p150
sbasbasbasbsbsbasbsS'limitedDeclSectionList'
p151
(lp152
sbsg38
g39
sbssS'propertyDeclarations'
p153
(dp154
sS'variableNamesInDeclaredOrder'
p155
(lp156
sba(i__main__
DelphiClass
p157
(dp158
g7
(dp159
sg9
S'PdPaintBoxWithPalette'
p160
sg11
(dp161
S'getpalette'
p162
(i__main__
DelphiMethodDeclaration
p163
(dp164
g9
S'GetPalette'
p165
sg17
(lp166
sg33
g160
sg34
(i__main__
DelphiNamedType
p167
(dp168
g28
S'HPALETTE'
p169
sg30
g1
sg31
Nsbsg35
I0
sg36
S'function'
p170
sbssg42
(lp171
(i__main__
DelphiNamedType
p172
(dp173
g28
S'TPaintBox'
p174
sg30
g1
sg31
Nsbasg47
(dp175
sg49
(lp176
S'getpalette'
p177
asg52
(dp178
S'getpalette'
p179
(i__main__
DelphiMethodImplementation
p180
(dp181
g57
g163
sg9
g165
sg17
(lp182
sg66
(lp183
sg68
(lp184
sg70
(lp185
g72
asg73
(dp186
sg33
S'PdPaintBoxWithPalette'
p187
sg34
(i__main__
DelphiNamedType
p188
(dp189
g28
S'HPALETTE'
p190
sg30
g1
sg31
Nsbsg76
(lp191
sg35
I0
sg36
g170
sg78
(i__main__
DelphiBlock
p192
(dp193
g81
(idelphi
DelphiCompoundStatement
p194
(dp195
g84
(lp196
(i__main__
DelphiAssignStatement
p197
(dp198
g112
(i__main__
DelphiIdentAccess
p199
(dp200
g91
S'MainForm'
p201
sg93
(lp202
(idelphi
DelphiFieldEndAccess
p203
(dp204
g97
S'paletteImage'
p205
sba(idelphi
DelphiFieldEndAccess
p206
(dp207
g97
S'picture'
p208
sba(idelphi
DelphiFieldEndAccess
p209
(dp210
g97
S'bitmap'
p211
sba(idelphi
DelphiFieldEndAccess
p212
(dp213
g97
S'palette'
p214
sbasbsg113
(i__main__
DelphiIdentAccess
p215
(dp216
g91
S'result'
p217
sg93
(lp218
sbsbasbsg151
(lp219
sbsbssg153
(dp220
sg155
(lp221
sba(i__main__
DelphiProceduralImplementation
p222
(dp223
g57
(i__main__
DelphiProceduralDeclaration
p224
(dp225
g17
(lp226
(i__main__
DelphiFormalParameter
p227
(dp228
g21
Nsg22
(lp229
S'bitmap'
p230
asg25
(i__main__
DelphiNamedType
p231
(dp232
g28
S'TBitmap'
p233
sg30
g1
sg31
Nsbsg32
Nsbasg9
S'RequiresPalette'
p234
sg34
(i__main__
DelphiPrimitiveType
p235
(dp236
g28
S'boolean'
p237
sbsbsg9
g234
sg34
(i__main__
DelphiPrimitiveType
p238
(dp239
g28
g237
sbsg66
(lp240
sg68
(lp241
sg70
(lp242
S'bitmap'
p243
asg73
(dp244
g243
(i__main__
DelphiNamedType
p245
(dp246
g28
S'TBitmap'
p247
sg30
g1
sg31
Nsbssg17
(lp248
(i__main__
DelphiFormalParameter
p249
(dp250
g21
Nsg22
(lp251
g243
asg25
g245
sg32
Nsbasg76
(lp252
sg78
(i__main__
DelphiBlock
p253
(dp254
g81
(idelphi
DelphiCompoundStatement
p255
(dp256
g84
(lp257
(i__main__
DelphiAssignStatement
p258
(dp259
g112
(i__main__
DelphiIdentAccess
p260
(dp261
g91
S'false'
p262
sg93
(lp263
sbsg113
(i__main__
DelphiIdentAccess
p264
(dp265
g91
S'result'
p266
sg93
(lp267
sbsba(idelphi
DelphiCaseStatement
p268
(dp269
S'elseStatement'
p270
Nsg88
(i__main__
DelphiIdentAccess
p271
(dp272
g91
S'bitmap'
p273
sg93
(lp274
(idelphi
DelphiFieldEndAccess
p275
(dp276
g97
S'pixelFormat'
p277
sbasbsS'caseSelectorList'
p278
(lp279
(idelphi
DelphiCaseSelector
p280
(dp281
S'statement'
p282
(i__main__
DelphiAssignStatement
p283
(dp284
g112
(i__main__
DelphiIdentAccess
p285
(dp286
g91
S'true'
p287
sg93
(lp288
sbsg113
(i__main__
DelphiIdentAccess
p289
(dp290
g91
S'result'
p291
sg93
(lp292
sbsbsS'caseLabelList'
p293
(lp294
(i__main__
DelphiIdentAccess
p295
(dp296
g91
S'pf1bit'
p297
sg93
(lp298
sba(i__main__
DelphiIdentAccess
p299
(dp300
g91
S'pf4bit'
p301
sg93
(lp302
sba(i__main__
DelphiIdentAccess
p303
(dp304
g91
S'pf8bit'
p305
sg93
(lp306
sbasbasbasbsg151
(lp307
sbsba(i__main__
DelphiProceduralImplementation
p308
(dp309
g57
(i__main__
DelphiProceduralDeclaration
p310
(dp311
g17
(lp312
(i__main__
DelphiFormalParameter
p313
(dp314
g21
Nsg22
(lp315
S'bitmap'
p316
asg25
(i__main__
DelphiNamedType
p317
(dp318
g28
S'TBitmap'
p319
sg30
g1
sg31
Nsbsg32
Nsbasg9
S'CopyBitmapToClipboard'
p320
sg34
Nsbsg9
g320
sg34
Nsg66
(lp321
sg68
(lp322
sg70
(lp323
S'bitmap'
p324
asg73
(dp325
g324
(i__main__
DelphiNamedType
p326
(dp327
g28
S'TBitmap'
p328
sg30
g1
sg31
Nsbssg17
(lp329
(i__main__
DelphiFormalParameter
p330
(dp331
g21
Nsg22
(lp332
g324
asg25
g326
sg32
Nsbasg76
(lp333
sg78
(i__main__
DelphiBlock
p334
(dp335
g81
(idelphi
DelphiCompoundStatement
p336
(dp337
g84
(lp338
(i__main__
DelphiAssignStatement
p339
(dp340
g112
(idelphi
DelphiNilValue
p341
(dp342
bsg113
(i__main__
DelphiIdentAccess
p343
(dp344
g91
S'header'
p345
sg93
(lp346
sbsba(i__main__
DelphiAssignStatement
p347
(dp348
g112
(idelphi
DelphiNilValue
p349
(dp350
bsg113
(i__main__
DelphiIdentAccess
p351
(dp352
g91
S'image'
p353
sg93
(lp354
sbsba(i__main__
DelphiAssignStatement
p355
(dp356
g112
(idelphi
DelphiIntegerValue
p357
(dp358
S'string'
p359
S'0'
sbsg113
(i__main__
DelphiIdentAccess
p360
(dp361
g91
S'imageHandle'
p362
sg93
(lp363
sbsba(i__main__
DelphiAssignStatement
p364
(dp365
g112
(i__main__
DelphiIdentAccess
p366
(dp367
g91
S'false'
p368
sg93
(lp369
sbsg113
(i__main__
DelphiIdentAccess
p370
(dp371
g91
S'clipboardOpen'
p372
sg93
(lp373
sbsba(i__main__
DelphiAssignStatement
p374
(dp375
g112
(idelphi
DelphiIntegerValue
p376
(dp377
g359
S'0'
sbsg113
(i__main__
DelphiIdentAccess
p378
(dp379
g91
S'handleSet'
p380
sg93
(lp381
sbsba(i__main__
DelphiAssignStatement
p382
(dp383
g112
Nsg113
(i__main__
DelphiIdentAccess
p384
(dp385
g91
S'GetDIBSizes'
p386
sg93
(lp387
(idelphi
DelphiFunctionEndAccess
p388
(dp389
g123
(lp390
(i__main__
DelphiIdentAccess
p391
(dp392
g91
S'bitmap'
p393
sg93
(lp394
(idelphi
DelphiFieldEndAccess
p395
(dp396
g97
S'handle'
p397
sbasba(i__main__
DelphiIdentAccess
p398
(dp399
g91
S'headerSize'
p400
sg93
(lp401
sba(i__main__
DelphiIdentAccess
p402
(dp403
g91
S'imageSize'
p404
sg93
(lp405
sbasbasbsba(idelphi
DelphiTryExceptStatement
p406
(dp407
S'tryStatements'
p408
(lp409
(i__main__
DelphiAssignStatement
p410
(dp411
g112
(i__main__
DelphiIdentAccess
p412
(dp413
g91
S'GlobalAlloc'
p414
sg93
(lp415
(idelphi
DelphiFunctionEndAccess
p416
(dp417
g123
(lp418
(idelphi
DelphiAddOp
p419
(dp420
S'addOp'
p421
S'or'
p422
sS'term2'
p423
(i__main__
DelphiIdentAccess
p424
(dp425
g91
S'GMEM_DDESHARE'
p426
sg93
(lp427
sbsS'term1'
p428
(i__main__
DelphiIdentAccess
p429
(dp430
g91
S'GMEM_MOVEABLE'
p431
sg93
(lp432
sbsba(idelphi
DelphiAddOp
p433
(dp434
g421
S'+'
sg423
(i__main__
DelphiIdentAccess
p435
(dp436
g91
S'imageSize'
p437
sg93
(lp438
sbsg428
(i__main__
DelphiIdentAccess
p439
(dp440
g91
S'headerSize'
p441
sg93
(lp442
sbsbasbasbsg113
(i__main__
DelphiIdentAccess
p443
(dp444
g91
S'imageHandle'
p445
sg93
(lp446
sbsba(idelphi
DelphiTryFinallyStatement
p447
(dp448
g408
(lp449
(i__main__
DelphiAssignStatement
p450
(dp451
g112
(i__main__
DelphiIdentAccess
p452
(dp453
g91
S'GlobalLock'
p454
sg93
(lp455
(idelphi
DelphiFunctionEndAccess
p456
(dp457
g123
(lp458
(i__main__
DelphiIdentAccess
p459
(dp460
g91
S'imageHandle'
p461
sg93
(lp462
sbasbasbsg113
(i__main__
DelphiIdentAccess
p463
(dp464
g91
S'header'
p465
sg93
(lp466
sbsba(i__main__
DelphiAssignStatement
p467
(dp468
g112
(i__main__
DelphiIdentAccess
p469
(dp470
g91
S'Pointer'
p471
sg93
(lp472
(idelphi
DelphiFunctionEndAccess
p473
(dp474
g123
(lp475
(idelphi
DelphiAddOp
p476
(dp477
g421
S'+'
sg423
(i__main__
DelphiIdentAccess
p478
(dp479
g91
S'headerSize'
p480
sg93
(lp481
sbsg428
(i__main__
DelphiValueTypecastAccess
p482
(dp483
S'valueTypecast'
p484
(i__main__
DelphiValueTypecast
p485
(dp486
g88
(i__main__
DelphiIdentAccess
p487
(dp488
g91
S'header'
p489
sg93
(lp490
sbsS'typeIdentPredefined'
p491
(i__main__
DelphiPrimitiveType
p492
(dp493
g28
S'longint'
p494
sbsbsg93
(lp495
sbsbasbasbsg113
(i__main__
DelphiIdentAccess
p496
(dp497
g91
S'image'
p498
sg93
(lp499
sbsba(idelphi
DelphiIfStatement
p500
(dp501
g88
(idelphi
DelphiNot
p502
(dp503
S'factor'
p504
(i__main__
DelphiIdentAccess
p505
(dp506
g91
S'GetDIB'
p507
sg93
(lp508
(idelphi
DelphiFunctionEndAccess
p509
(dp510
g123
(lp511
(i__main__
DelphiIdentAccess
p512
(dp513
g91
S'bitmap'
p514
sg93
(lp515
(idelphi
DelphiFieldEndAccess
p516
(dp517
g97
S'handle'
p518
sbasba(i__main__
DelphiIdentAccess
p519
(dp520
g91
S'bitmap'
p521
sg93
(lp522
(idelphi
DelphiFieldEndAccess
p523
(dp524
g97
S'palette'
p525
sbasba(i__main__
DelphiIdentAccess
p526
(dp527
g91
S'header'
p528
sg93
(lp529
(idelphi
DelphiPointerEndAccess
p530
(dp531
basba(i__main__
DelphiIdentAccess
p532
(dp533
g91
S'image'
p534
sg93
(lp535
(idelphi
DelphiPointerEndAccess
p536
(dp537
basbasbasbsbsg99
Nsg109
(idelphi
DelphiRaiseStatement
p538
(dp539
g88
(i__main__
DelphiIdentAccess
p540
(dp541
g91
S'Exception'
p542
sg93
(lp543
(idelphi
DelphiFieldEndAccess
p544
(dp545
g97
S'create'
p546
sba(idelphi
DelphiFunctionEndAccess
p547
(dp548
g123
(lp549
(idelphi
DelphiAddOp
p550
(dp551
g421
S'+'
sg423
(i__main__
DelphiIdentAccess
p552
(dp553
g91
S'SysErrorMessage'
p554
sg93
(lp555
(idelphi
DelphiFunctionEndAccess
p556
(dp557
g123
(lp558
(i__main__
DelphiIdentAccess
p559
(dp560
g91
S'GetLastError'
p561
sg93
(lp562
sbasbasbsg428
(idelphi
DelphiStringAccess
p563
(dp564
g93
(lp565
sg359
(idelphi
DelphiStringValue
p566
(dp567
g359
S'Problem creating picture for clipboard: '
p568
sbsbsbasbasbsbsba(i__main__
DelphiAssignStatement
p569
(dp570
g112
(i__main__
DelphiIdentAccess
p571
(dp572
g91
S'OpenClipboard'
p573
sg93
(lp574
(idelphi
DelphiFunctionEndAccess
p575
(dp576
g123
(lp577
(i__main__
DelphiIdentAccess
p578
(dp579
g91
S'Application'
p580
sg93
(lp581
(idelphi
DelphiFieldEndAccess
p582
(dp583
g97
S'mainForm'
p584
sba(idelphi
DelphiFieldEndAccess
p585
(dp586
g97
S'handle'
p587
sbasbasbasbsg113
(i__main__
DelphiIdentAccess
p588
(dp589
g91
S'clipboardOpen'
p590
sg93
(lp591
sbsba(idelphi
DelphiIfStatement
p592
(dp593
g88
(i__main__
DelphiIdentAccess
p594
(dp595
g91
S'clipboardOpen'
p596
sg93
(lp597
sbsg99
Nsg109
(idelphi
DelphiCompoundStatement
p598
(dp599
g84
(lp600
(i__main__
DelphiAssignStatement
p601
(dp602
g112
Nsg113
(i__main__
DelphiIdentAccess
p603
(dp604
g91
S'EmptyClipboard'
p605
sg93
(lp606
sbsba(i__main__
DelphiAssignStatement
p607
(dp608
g112
(i__main__
DelphiIdentAccess
p609
(dp610
g91
S'SetClipboardData'
p611
sg93
(lp612
(idelphi
DelphiFunctionEndAccess
p613
(dp614
g123
(lp615
(i__main__
DelphiIdentAccess
p616
(dp617
g91
S'CF_DIB'
p618
sg93
(lp619
sba(i__main__
DelphiIdentAccess
p620
(dp621
g91
S'imageHandle'
p622
sg93
(lp623
sbasbasbsg113
(i__main__
DelphiIdentAccess
p624
(dp625
g91
S'handleSet'
p626
sg93
(lp627
sbsba(idelphi
DelphiIfStatement
p628
(dp629
g88
(idelphi
DelphiRelOp
p630
(dp631
S'simpleExpression1'
p632
(i__main__
DelphiIdentAccess
p633
(dp634
g91
S'handleSet'
p635
sg93
(lp636
sbsS'simpleExpression2'
p637
(idelphi
DelphiIntegerValue
p638
(dp639
g359
S'0'
sbsS'relOp'
p640
S'='
sbsg99
Nsg109
(idelphi
DelphiRaiseStatement
p641
(dp642
g88
(i__main__
DelphiIdentAccess
p643
(dp644
g91
S'Exception'
p645
sg93
(lp646
(idelphi
DelphiFieldEndAccess
p647
(dp648
g97
S'create'
p649
sba(idelphi
DelphiFunctionEndAccess
p650
(dp651
g123
(lp652
(idelphi
DelphiAddOp
p653
(dp654
g421
S'+'
sg423
(i__main__
DelphiIdentAccess
p655
(dp656
g91
S'SysErrorMessage'
p657
sg93
(lp658
(idelphi
DelphiFunctionEndAccess
p659
(dp660
g123
(lp661
(i__main__
DelphiIdentAccess
p662
(dp663
g91
S'GetLastError'
p664
sg93
(lp665
sbasbasbsg428
(idelphi
DelphiStringAccess
p666
(dp667
g93
(lp668
sg359
(idelphi
DelphiStringValue
p669
(dp670
g359
S'Problem copying picture to clipboard: '
p671
sbsbsbasbasbsbsba(i__main__
DelphiAssignStatement
p672
(dp673
g112
Nsg113
(i__main__
DelphiIdentAccess
p674
(dp675
g91
S'CloseClipboard'
p676
sg93
(lp677
sbsbasbsbasS'finallyStatements'
p678
(lp679
(i__main__
DelphiAssignStatement
p680
(dp681
g112
Nsg113
(i__main__
DelphiIdentAccess
p682
(dp683
g91
S'GlobalUnlock'
p684
sg93
(lp685
(idelphi
DelphiFunctionEndAccess
p686
(dp687
g123
(lp688
(i__main__
DelphiIdentAccess
p689
(dp690
g91
S'imageHandle'
p691
sg93
(lp692
sbasbasbsg38
(lp693
S' the clipboard wants the handle to be unlocked\r'
p694
asbasbasS'exceptionHandlers'
p695
(idelphi
DelphiExceptionHandlers
p696
(dp697
S'exceptionHandlerList'
p698
NsS'statementList'
p699
(lp700
(i__main__
DelphiAssignStatement
p701
(dp702
g112
Nsg113
(i__main__
DelphiIdentAccess
p703
(dp704
g91
S'GlobalFree'
p705
sg93
(lp706
(idelphi
DelphiFunctionEndAccess
p707
(dp708
g123
(lp709
(i__main__
DelphiIdentAccess
p710
(dp711
g91
S'imageHandle'
p712
sg93
(lp713
sbasbasbsg38
(lp714
S' we are not supposed to free this handle unless there is a problem, because\r'
p715
aS' the clipboard takes ownership of it\r'
p716
asba(idelphi
DelphiRaiseStatement
p717
(dp718
g88
Nsbasbsbasbsg151
(lp719
(i__main__
DelphiVarSection
p720
(dp721
S'atTopLevel'
p722
I0
sS'varDeclList'
p723
(lp724
(idelphi
DelphiVarDecl
p725
(dp726
S'constExpression'
p727
NsS'identList'
p728
(lp729
S'image'
p730
aS'header'
p731
asg25
(i__main__
DelphiNamedType
p732
(dp733
g28
S'pointer'
p734
sg30
g1
sg31
Nsbsba(idelphi
DelphiVarDecl
p735
(dp736
g727
Nsg728
(lp737
S'imageHandle'
p738
aS'handleSet'
p739
asg25
(i__main__
DelphiNamedType
p740
(dp741
g28
S'THandle'
p742
sg30
g1
sg31
Nsbsba(idelphi
DelphiVarDecl
p743
(dp744
g727
Nsg728
(lp745
S'headerSize'
p746
asg25
(i__main__
DelphiPrimitiveType
p747
(dp748
g28
S'integer'
p749
sbsba(idelphi
DelphiVarDecl
p750
(dp751
g727
Nsg728
(lp752
S'imageSize'
p753
asg25
(i__main__
DelphiNamedType
p754
(dp755
g28
S'dword'
p756
sg30
g1
sg31
Nsbsba(idelphi
DelphiVarDecl
p757
(dp758
g727
Nsg728
(lp759
S'clipboardOpen'
p760
asg25
(i__main__
DelphiPrimitiveType
p761
(dp762
g28
g237
sbsbasbasbsba(i__main__
DelphiProceduralImplementation
p763
(dp764
g57
(i__main__
DelphiProceduralDeclaration
p765
(dp766
g17
(lp767
(i__main__
DelphiFormalParameter
p768
(dp769
g21
Nsg22
(lp770
S'bitmap'
p771
asg25
(i__main__
DelphiNamedType
p772
(dp773
g28
S'TBitmap'
p774
sg30
g1
sg31
Nsbsg32
Nsbasg9
S'BitmapMemorySize'
p775
sg34
(i__main__
DelphiPrimitiveType
p776
(dp777
g28
g494
sbsbsg9
g775
sg34
(i__main__
DelphiPrimitiveType
p778
(dp779
g28
g494
sbsg66
(lp780
sg68
(lp781
sg70
(lp782
S'bitmap'
p783
asg73
(dp784
g783
(i__main__
DelphiNamedType
p785
(dp786
g28
S'TBitmap'
p787
sg30
g1
sg31
Nsbssg17
(lp788
(i__main__
DelphiFormalParameter
p789
(dp790
g21
Nsg22
(lp791
g783
asg25
g785
sg32
Nsbasg76
(lp792
sg78
(i__main__
DelphiBlock
p793
(dp794
g81
(idelphi
DelphiCompoundStatement
p795
(dp796
g84
(lp797
(i__main__
DelphiAssignStatement
p798
(dp799
g112
Nsg113
(i__main__
DelphiIdentAccess
p800
(dp801
g91
S'GetDIBSizes'
p802
sg93
(lp803
(idelphi
DelphiFunctionEndAccess
p804
(dp805
g123
(lp806
(i__main__
DelphiIdentAccess
p807
(dp808
g91
S'bitmap'
p809
sg93
(lp810
(idelphi
DelphiFieldEndAccess
p811
(dp812
g97
S'handle'
p813
sbasba(i__main__
DelphiIdentAccess
p814
(dp815
g91
S'headerSize'
p816
sg93
(lp817
sba(i__main__
DelphiIdentAccess
p818
(dp819
g91
S'imageSize'
p820
sg93
(lp821
sbasbasbsba(i__main__
DelphiAssignStatement
p822
(dp823
g112
(idelphi
DelphiAddOp
p824
(dp825
g421
S'+'
sg423
(i__main__
DelphiIdentAccess
p826
(dp827
g91
S'imageSize'
p828
sg93
(lp829
sbsg428
(idelphi
DelphiAddOp
p830
(dp831
g421
S'+'
sg423
(i__main__
DelphiIdentAccess
p832
(dp833
g91
S'headerSize'
p834
sg93
(lp835
sbsg428
(i__main__
DelphiIdentAccess
p836
(dp837
g91
S'bitmap'
p838
sg93
(lp839
(idelphi
DelphiFieldEndAccess
p840
(dp841
g97
S'instanceSize'
p842
sbasbsbsbsg113
(i__main__
DelphiIdentAccess
p843
(dp844
g91
S'result'
p845
sg93
(lp846
sbsbasbsg151
(lp847
(i__main__
DelphiVarSection
p848
(dp849
g722
I0
sg723
(lp850
(idelphi
DelphiVarDecl
p851
(dp852
g727
Nsg728
(lp853
S'headerSize'
p854
asg25
(i__main__
DelphiPrimitiveType
p855
(dp856
g28
g749
sbsba(idelphi
DelphiVarDecl
p857
(dp858
g727
Nsg728
(lp859
S'imageSize'
p860
asg25
(i__main__
DelphiNamedType
p861
(dp862
g28
S'dword'
p863
sg30
g1
sg31
Nsbsbasbasbsba(i__main__
DelphiProceduralImplementation
p864
(dp865
g57
(i__main__
DelphiProceduralDeclaration
p866
(dp867
g17
(lp868
(i__main__
DelphiFormalParameter
p869
(dp870
g21
Nsg22
(lp871
S'bitmap'
p872
asg25
(i__main__
DelphiNamedType
p873
(dp874
g28
S'TBitmap'
p875
sg30
g1
sg31
Nsbsg32
Nsba(i__main__
DelphiFormalParameter
p876
(dp877
g21
Nsg22
(lp878
S'drawRect'
p879
asg25
(i__main__
DelphiNamedType
p880
(dp881
g28
S'TRect'
p882
sg30
g1
sg31
Nsbsg32
Nsbasg9
S'PrintBitmap'
p883
sg34
Nsbsg9
g883
sg34
Nsg66
(lp884
sg68
(lp885
sg70
(lp886
S'bitmap'
p887
aS'drawRect'
p888
asg73
(dp889
g888
(i__main__
DelphiNamedType
p890
(dp891
g28
S'TRect'
p892
sg30
g1
sg31
Nsbsg887
(i__main__
DelphiNamedType
p893
(dp894
g28
S'TBitmap'
p895
sg30
g1
sg31
Nsbssg17
(lp896
(i__main__
DelphiFormalParameter
p897
(dp898
g21
Nsg22
(lp899
g887
asg25
g893
sg32
Nsba(i__main__
DelphiFormalParameter
p900
(dp901
g21
Nsg22
(lp902
g888
asg25
g890
sg32
Nsbasg76
(lp903
sg78
(i__main__
DelphiBlock
p904
(dp905
g81
(idelphi
DelphiCompoundStatement
p906
(dp907
g84
(lp908
(i__main__
DelphiAssignStatement
p909
(dp910
g112
(idelphi
DelphiNilValue
p911
(dp912
bsg113
(i__main__
DelphiIdentAccess
p913
(dp914
g91
S'header'
p915
sg93
(lp916
sbsba(i__main__
DelphiAssignStatement
p917
(dp918
g112
(idelphi
DelphiNilValue
p919
(dp920
bsg113
(i__main__
DelphiIdentAccess
p921
(dp922
g91
S'image'
p923
sg93
(lp924
sbsba(i__main__
DelphiAssignStatement
p925
(dp926
g112
(idelphi
DelphiIntegerValue
p927
(dp928
g359
S'0'
sbsg113
(i__main__
DelphiIdentAccess
p929
(dp930
g91
S'imageHandle'
p931
sg93
(lp932
sbsba(i__main__
DelphiAssignStatement
p933
(dp934
g112
(i__main__
DelphiIdentAccess
p935
(dp936
g91
S'false'
p937
sg93
(lp938
sbsg113
(i__main__
DelphiIdentAccess
p939
(dp940
g91
S'clipboardOpen'
p941
sg93
(lp942
sbsba(i__main__
DelphiAssignStatement
p943
(dp944
g112
(idelphi
DelphiIntegerValue
p945
(dp946
g359
S'0'
sbsg113
(i__main__
DelphiIdentAccess
p947
(dp948
g91
S'handleSet'
p949
sg93
(lp950
sbsba(i__main__
DelphiAssignStatement
p951
(dp952
g112
Nsg113
(i__main__
DelphiIdentAccess
p953
(dp954
g91
S'GetDIBSizes'
p955
sg93
(lp956
(idelphi
DelphiFunctionEndAccess
p957
(dp958
g123
(lp959
(i__main__
DelphiIdentAccess
p960
(dp961
g91
S'bitmap'
p962
sg93
(lp963
(idelphi
DelphiFieldEndAccess
p964
(dp965
g97
S'handle'
p966
sbasba(i__main__
DelphiIdentAccess
p967
(dp968
g91
S'headerSize'
p969
sg93
(lp970
sba(i__main__
DelphiIdentAccess
p971
(dp972
g91
S'imageSize'
p973
sg93
(lp974
sbasbasbsba(idelphi
DelphiTryFinallyStatement
p975
(dp976
g408
(lp977
(i__main__
DelphiAssignStatement
p978
(dp979
g112
(i__main__
DelphiIdentAccess
p980
(dp981
g91
S'GlobalAlloc'
p982
sg93
(lp983
(idelphi
DelphiFunctionEndAccess
p984
(dp985
g123
(lp986
(idelphi
DelphiAddOp
p987
(dp988
g421
g422
sg423
(i__main__
DelphiIdentAccess
p989
(dp990
g91
S'GMEM_DDESHARE'
p991
sg93
(lp992
sbsg428
(i__main__
DelphiIdentAccess
p993
(dp994
g91
S'GMEM_MOVEABLE'
p995
sg93
(lp996
sbsba(idelphi
DelphiAddOp
p997
(dp998
g421
S'+'
sg423
(i__main__
DelphiIdentAccess
p999
(dp1000
g91
S'imageSize'
p1001
sg93
(lp1002
sbsg428
(i__main__
DelphiIdentAccess
p1003
(dp1004
g91
S'headerSize'
p1005
sg93
(lp1006
sbsbasbasbsg113
(i__main__
DelphiIdentAccess
p1007
(dp1008
g91
S'imageHandle'
p1009
sg93
(lp1010
sbsba(idelphi
DelphiTryFinallyStatement
p1011
(dp1012
g408
(lp1013
(i__main__
DelphiAssignStatement
p1014
(dp1015
g112
(i__main__
DelphiIdentAccess
p1016
(dp1017
g91
S'GlobalLock'
p1018
sg93
(lp1019
(idelphi
DelphiFunctionEndAccess
p1020
(dp1021
g123
(lp1022
(i__main__
DelphiIdentAccess
p1023
(dp1024
g91
S'imageHandle'
p1025
sg93
(lp1026
sbasbasbsg113
(i__main__
DelphiIdentAccess
p1027
(dp1028
g91
S'header'
p1029
sg93
(lp1030
sbsba(i__main__
DelphiAssignStatement
p1031
(dp1032
g112
(i__main__
DelphiIdentAccess
p1033
(dp1034
g91
S'Pointer'
p1035
sg93
(lp1036
(idelphi
DelphiFunctionEndAccess
p1037
(dp1038
g123
(lp1039
(idelphi
DelphiAddOp
p1040
(dp1041
g421
S'+'
sg423
(i__main__
DelphiIdentAccess
p1042
(dp1043
g91
S'headerSize'
p1044
sg93
(lp1045
sbsg428
(i__main__
DelphiValueTypecastAccess
p1046
(dp1047
g484
(i__main__
DelphiValueTypecast
p1048
(dp1049
g88
(i__main__
DelphiIdentAccess
p1050
(dp1051
g91
S'header'
p1052
sg93
(lp1053
sbsg491
(i__main__
DelphiPrimitiveType
p1054
(dp1055
g28
g494
sbsbsg93
(lp1056
sbsbasbasbsg113
(i__main__
DelphiIdentAccess
p1057
(dp1058
g91
S'image'
p1059
sg93
(lp1060
sbsba(idelphi
DelphiIfStatement
p1061
(dp1062
g88
(idelphi
DelphiNot
p1063
(dp1064
g504
(i__main__
DelphiIdentAccess
p1065
(dp1066
g91
S'GetDIB'
p1067
sg93
(lp1068
(idelphi
DelphiFunctionEndAccess
p1069
(dp1070
g123
(lp1071
(i__main__
DelphiIdentAccess
p1072
(dp1073
g91
S'bitmap'
p1074
sg93
(lp1075
(idelphi
DelphiFieldEndAccess
p1076
(dp1077
g97
S'handle'
p1078
sbasba(i__main__
DelphiIdentAccess
p1079
(dp1080
g91
S'bitmap'
p1081
sg93
(lp1082
(idelphi
DelphiFieldEndAccess
p1083
(dp1084
g97
S'palette'
p1085
sbasba(i__main__
DelphiIdentAccess
p1086
(dp1087
g91
S'header'
p1088
sg93
(lp1089
(idelphi
DelphiPointerEndAccess
p1090
(dp1091
basba(i__main__
DelphiIdentAccess
p1092
(dp1093
g91
S'image'
p1094
sg93
(lp1095
(idelphi
DelphiPointerEndAccess
p1096
(dp1097
basbasbasbsbsg99
Nsg109
(idelphi
DelphiRaiseStatement
p1098
(dp1099
g88
(i__main__
DelphiIdentAccess
p1100
(dp1101
g91
S'Exception'
p1102
sg93
(lp1103
(idelphi
DelphiFieldEndAccess
p1104
(dp1105
g97
S'create'
p1106
sba(idelphi
DelphiFunctionEndAccess
p1107
(dp1108
g123
(lp1109
(idelphi
DelphiAddOp
p1110
(dp1111
g421
S'+'
sg423
(i__main__
DelphiIdentAccess
p1112
(dp1113
g91
S'SysErrorMessage'
p1114
sg93
(lp1115
(idelphi
DelphiFunctionEndAccess
p1116
(dp1117
g123
(lp1118
(i__main__
DelphiIdentAccess
p1119
(dp1120
g91
S'GetLastError'
p1121
sg93
(lp1122
sbasbasbsg428
(idelphi
DelphiStringAccess
p1123
(dp1124
g93
(lp1125
sg359
(idelphi
DelphiStringValue
p1126
(dp1127
g359
S'Problem creating picture for printing: '
p1128
sbsbsbasbasbsbsba(idelphi
DelphiWithStatement
p1129
(dp1130
g282
(i__main__
DelphiAssignStatement
p1131
(dp1132
g112
(i__main__
DelphiIdentAccess
p1133
(dp1134
g91
S'StretchDIBits'
p1135
sg93
(lp1136
(idelphi
DelphiFunctionEndAccess
p1137
(dp1138
g123
(lp1139
(i__main__
DelphiIdentAccess
p1140
(dp1141
g91
S'Printer'
p1142
sg93
(lp1143
(idelphi
DelphiFieldEndAccess
p1144
(dp1145
g97
S'canvas'
p1146
sba(idelphi
DelphiFieldEndAccess
p1147
(dp1148
g97
S'handle'
p1149
sbasba(i__main__
DelphiIdentAccess
p1150
(dp1151
g91
S'left'
p1152
sg93
(lp1153
sba(i__main__
DelphiIdentAccess
p1154
(dp1155
g91
S'top'
p1156
sg93
(lp1157
sba(idelphi
DelphiAddOp
p1158
(dp1159
g421
S'-'
sg423
(i__main__
DelphiIdentAccess
p1160
(dp1161
g91
S'left'
p1162
sg93
(lp1163
sbsg428
(i__main__
DelphiIdentAccess
p1164
(dp1165
g91
S'right'
p1166
sg93
(lp1167
sbsba(idelphi
DelphiAddOp
p1168
(dp1169
g421
S'-'
sg423
(i__main__
DelphiIdentAccess
p1170
(dp1171
g91
S'top'
p1172
sg93
(lp1173
sbsg428
(i__main__
DelphiIdentAccess
p1174
(dp1175
g91
S'bottom'
p1176
sg93
(lp1177
sbsba(idelphi
DelphiIntegerValue
p1178
(dp1179
g359
S'0'
sba(idelphi
DelphiIntegerValue
p1180
(dp1181
g359
S'0'
sba(i__main__
DelphiIdentAccess
p1182
(dp1183
g91
S'bitmap'
p1184
sg93
(lp1185
(idelphi
DelphiFieldEndAccess
p1186
(dp1187
g97
S'width'
p1188
sbasba(i__main__
DelphiIdentAccess
p1189
(dp1190
g91
S'bitmap'
p1191
sg93
(lp1192
(idelphi
DelphiFieldEndAccess
p1193
(dp1194
g97
S'height'
p1195
sbasba(i__main__
DelphiIdentAccess
p1196
(dp1197
g91
S'image'
p1198
sg93
(lp1199
sba(i__main__
DelphiIdentAccess
p1200
(dp1201
g91
S'TBitmapInfo'
p1202
sg93
(lp1203
(idelphi
DelphiFunctionEndAccess
p1204
(dp1205
g123
(lp1206
(i__main__
DelphiIdentAccess
p1207
(dp1208
g91
S'header'
p1209
sg93
(lp1210
(idelphi
DelphiPointerEndAccess
p1211
(dp1212
basbasbasba(i__main__
DelphiIdentAccess
p1213
(dp1214
g91
S'DIB_RGB_COLORS'
p1215
sg93
(lp1216
sba(i__main__
DelphiIdentAccess
p1217
(dp1218
g91
S'SRCCOPY'
p1219
sg93
(lp1220
sbasbasbsg113
(i__main__
DelphiIdentAccess
p1221
(dp1222
g91
S'printResult'
p1223
sg93
(lp1224
sbsbsS'variableReferenceList'
p1225
(lp1226
(i__main__
DelphiIdentAccess
p1227
(dp1228
g91
S'drawRect'
p1229
sg93
(lp1230
sbasba(idelphi
DelphiIfStatement
p1231
(dp1232
g88
(idelphi
DelphiRelOp
p1233
(dp1234
g632
(i__main__
DelphiIdentAccess
p1235
(dp1236
g91
S'printResult'
p1237
sg93
(lp1238
sbsg637
(i__main__
DelphiIdentAccess
p1239
(dp1240
g91
S'GDI_ERROR'
p1241
sg93
(lp1242
sbsg640
S'='
sbsg99
Nsg109
(idelphi
DelphiRaiseStatement
p1243
(dp1244
g88
(i__main__
DelphiIdentAccess
p1245
(dp1246
g91
S'Exception'
p1247
sg93
(lp1248
(idelphi
DelphiFieldEndAccess
p1249
(dp1250
g97
S'create'
p1251
sba(idelphi
DelphiFunctionEndAccess
p1252
(dp1253
g123
(lp1254
(idelphi
DelphiAddOp
p1255
(dp1256
g421
S'+'
sg423
(i__main__
DelphiIdentAccess
p1257
(dp1258
g91
S'SysErrorMessage'
p1259
sg93
(lp1260
(idelphi
DelphiFunctionEndAccess
p1261
(dp1262
g123
(lp1263
(i__main__
DelphiIdentAccess
p1264
(dp1265
g91
S'GetLastError'
p1266
sg93
(lp1267
sbasbasbsg428
(idelphi
DelphiStringAccess
p1268
(dp1269
g93
(lp1270
sg359
(idelphi
DelphiStringValue
p1271
(dp1272
g359
S'Problem printing picture: '
p1273
sbsbsbasbasbsbsbasg678
(lp1274
(i__main__
DelphiAssignStatement
p1275
(dp1276
g112
Nsg113
(i__main__
DelphiIdentAccess
p1277
(dp1278
g91
S'GlobalUnlock'
p1279
sg93
(lp1280
(idelphi
DelphiFunctionEndAccess
p1281
(dp1282
g123
(lp1283
(i__main__
DelphiIdentAccess
p1284
(dp1285
g91
S'imageHandle'
p1286
sg93
(lp1287
sbasbasbsbasbasg678
(lp1288
(i__main__
DelphiAssignStatement
p1289
(dp1290
g112
Nsg113
(i__main__
DelphiIdentAccess
p1291
(dp1292
g91
S'GlobalFree'
p1293
sg93
(lp1294
(idelphi
DelphiFunctionEndAccess
p1295
(dp1296
g123
(lp1297
(i__main__
DelphiIdentAccess
p1298
(dp1299
g91
S'imageHandle'
p1300
sg93
(lp1301
sbasbasbsbasbasbsg151
(lp1302
(i__main__
DelphiVarSection
p1303
(dp1304
g722
I0
sg723
(lp1305
(idelphi
DelphiVarDecl
p1306
(dp1307
g727
Nsg728
(lp1308
S'image'
p1309
aS'header'
p1310
asg25
(i__main__
DelphiNamedType
p1311
(dp1312
g28
S'pointer'
p1313
sg30
g1
sg31
Nsbsba(idelphi
DelphiVarDecl
p1314
(dp1315
g727
Nsg728
(lp1316
S'imageHandle'
p1317
aS'handleSet'
p1318
asg25
(i__main__
DelphiNamedType
p1319
(dp1320
g28
S'THandle'
p1321
sg30
g1
sg31
Nsbsba(idelphi
DelphiVarDecl
p1322
(dp1323
g727
Nsg728
(lp1324
S'headerSize'
p1325
aS'printResult'
p1326
asg25
(i__main__
DelphiPrimitiveType
p1327
(dp1328
g28
g749
sbsba(idelphi
DelphiVarDecl
p1329
(dp1330
g727
Nsg728
(lp1331
S'imageSize'
p1332
asg25
(i__main__
DelphiNamedType
p1333
(dp1334
g28
S'dword'
p1335
sg30
g1
sg31
Nsbsba(idelphi
DelphiVarDecl
p1336
(dp1337
g727
Nsg728
(lp1338
S'clipboardOpen'
p1339
asg25
(i__main__
DelphiPrimitiveType
p1340
(dp1341
g28
g237
sbsbasbasbsbasS'includedUnits'
p1342
NsS'implementationUses'
p1343
(lp1344
S'Forms'
p1345
aS'Dialogs'
p1346
aS'Printers'
p1347
aS'umain'
p1348
asg9
S'Ubitmap'
p1349
sS'constSections'
p1350
(lp1351
sS'globalsInProperCase'
p1352
NsS'interfaceUses'
p1353
(lp1354
S'delphi_compatability'
p1355
aS'WinProcs'
p1356
aS'WinTypes'
p1357
aS'SysUtils'
p1358
aS'Graphics'
p1359
aS'Classes'
p1360
aS'ExtCtrls'
p1361
aS'ufiler'
p1362
asS'finalCommentToken'
p1363
(i__main__
PassStatement
p1364
(dp1365
g151
(lp1366
sbsS'varSections'
p1367
(lp1368
sS'globals'
p1369
NsS'originalFileName'
p1370
S'../../PlantStudioInPython/converted_source/used/ubitmap.pas'
p1371
sS'proceduralImplementations'
p1372
(dp1373
S'printbitmap'
p1374
g864
sS'copybitmaptoclipboard'
p1375
g308
sS'requirespalette'
p1376
g222
sS'bitmapmemorysize'
p1377
g763
ssS'fileName'
p1378
S'/Users/pdf/Documents/workspace/PlantStudioInPython/converted_source/used/ubitmap.pas'
p1379
sS'proceduralDeclarations'
p1380
(dp1381
S'printbitmap'
p1382
g866
sS'copybitmaptoclipboard'
p1383
g310
sS'requirespalette'
p1384
g224
sS'bitmapmemorysize'
p1385
g765
ssS'types'
p1386
(dp1387
S'pdbitmap'
p1388
g5
sS'pdpaintboxwithpalette'
p1389
g157
ssg38
(lp1390
S'$R-'
p1391
aS'for MemFree which has incorrect second param when long size'
p1392
asb.