(i__main__
DelphiUnit
p1
(dp2
S'sectionsInOrderDefined'
p3
(lp4
(i__main__
DelphiClass
p5
(dp6
S'variableNamesInProperCase'
p7
(dp8
sS'name'
p9
S'TListCollection'
p10
sS'methodDeclarations'
p11
(dp12
S'streamusingfiler'
p13
(i__main__
DelphiMethodDeclaration
p14
(dp15
g9
S'streamUsingFiler'
p16
sS'formalParameters'
p17
(lp18
(i__main__
DelphiFormalParameter
p19
(dp20
S'initialValue'
p21
NsS'names'
p22
(lp23
S'filer'
p24
asS'theType'
p25
(i__main__
DelphiNamedType
p26
(dp27
S'typeName'
p28
S'PdFiler'
p29
sS'unitDefinedIn'
p30
g1
sS'unitName'
p31
NsbsS'parameterVariety'
p32
Nsba(i__main__
DelphiFormalParameter
p33
(dp34
g21
Nsg22
(lp35
S'classForCreating'
p36
asg25
(i__main__
DelphiNamedType
p37
(dp38
g28
S'PdStreamableObjectClass'
p39
sg30
g1
sg31
Nsbsg32
NsbasS'className'
p40
g10
sS'resultType'
p41
NsS'isClassMethod'
p42
I0
sS'methodType'
p43
S'procedure'
p44
sbsS'firstthat'
p45
(i__main__
DelphiMethodDeclaration
p46
(dp47
g9
S'FirstThat'
p48
sg17
(lp49
(i__main__
DelphiFormalParameter
p50
(dp51
g21
Nsg22
(lp52
S'TestFunc'
p53
asg25
(i__main__
DelphiNamedType
p54
(dp55
g28
S'TFirstLastFunc'
p56
sg30
g1
sg31
Nsbsg32
Nsba(i__main__
DelphiFormalParameter
p57
(dp58
g21
Nsg22
(lp59
S'data'
p60
asg25
(i__main__
DelphiNamedType
p61
(dp62
g28
S'TObject'
p63
sg30
g1
sg31
Nsbsg32
Nsbasg40
g10
sg41
(i__main__
DelphiNamedType
p64
(dp65
g28
S'TObject'
p66
sg30
g1
sg31
Nsbsg42
I0
sg43
S'function'
p67
sbsS'clear'
p68
(i__main__
DelphiMethodDeclaration
p69
(dp70
g9
S'clear'
p71
sg17
(lp72
sg40
g10
sg41
Nsg42
I0
sg43
g44
sS'commentLinesBefore'
p73
(lp74
S"note this should be virtual in TList but it isn't"
p75
asbsS'lastthat'
p76
(i__main__
DelphiMethodDeclaration
p77
(dp78
g9
S'LastThat'
p79
sg17
(lp80
(i__main__
DelphiFormalParameter
p81
(dp82
g21
Nsg22
(lp83
S'TestFunc'
p84
asg25
(i__main__
DelphiNamedType
p85
(dp86
g28
S'TFirstLastFunc'
p87
sg30
g1
sg31
Nsbsg32
Nsba(i__main__
DelphiFormalParameter
p88
(dp89
g21
Nsg22
(lp90
S'data'
p91
asg25
(i__main__
DelphiNamedType
p92
(dp93
g28
S'TObject'
p94
sg30
g1
sg31
Nsbsg32
Nsbasg40
g10
sg41
(i__main__
DelphiNamedType
p95
(dp96
g28
S'TObject'
p97
sg30
g1
sg31
Nsbsg42
I0
sg43
g67
sbsS'foreach'
p98
(i__main__
DelphiMethodDeclaration
p99
(dp100
g9
S'ForEach'
p101
sg17
(lp102
(i__main__
DelphiFormalParameter
p103
(dp104
g21
Nsg22
(lp105
S'Proc'
p106
asg25
(i__main__
DelphiNamedType
p107
(dp108
g28
S'TForEachProc'
p109
sg30
g1
sg31
Nsbsg32
Nsba(i__main__
DelphiFormalParameter
p110
(dp111
g21
Nsg22
(lp112
S'data'
p113
asg25
(i__main__
DelphiNamedType
p114
(dp115
g28
S'TObject'
p116
sg30
g1
sg31
Nsbsg32
Nsbasg40
g10
sg41
Nsg42
I0
sg43
g44
sbsS'destroy'
p117
(i__main__
DelphiMethodDeclaration
p118
(dp119
g9
S'Destroy'
p120
sg17
(lp121
sg40
g10
sg41
Nsg42
I0
sg43
S'destructor'
p122
sbsS'clearpointerswithoutdeletingobjects'
p123
(i__main__
DelphiMethodDeclaration
p124
(dp125
g9
S'clearPointersWithoutDeletingObjects'
p126
sg17
(lp127
sg40
g10
sg41
Nsg42
I0
sg43
g44
sbssS'superclassNamedTypes'
p128
(lp129
(i__main__
DelphiNamedType
p130
(dp131
g28
S'TList'
p132
sg30
g1
sg31
NsbasS'variableNames'
p133
(dp134
sS'methodNamesInDefinedOrder'
p135
(lp136
S'clear'
p137
aS'clearpointerswithoutdeletingobjects'
p138
aS'destroy'
p139
aS'foreach'
p140
aS'firstthat'
p141
aS'lastthat'
p142
aS'streamusingfiler'
p143
asS'methodImplementations'
p144
(dp145
S'streamusingfiler'
p146
(i__main__
DelphiMethodImplementation
p147
(dp148
S'originalDeclaration'
p149
g14
sg9
g16
sg17
(lp150
(i__main__
DelphiFormalParameter
p151
(dp152
g21
Nsg22
(lp153
S'filer'
p154
asg25
(i__main__
DelphiNamedType
p155
(dp156
g28
S'PdFiler'
p157
sg30
g1
sg31
Nsbsg32
Nsba(i__main__
DelphiFormalParameter
p158
(dp159
g21
Nsg22
(lp160
S'classForCreating'
p161
asg25
(i__main__
DelphiNamedType
p162
(dp163
g28
S'PdStreamableObjectClass'
p164
sg30
g1
sg31
Nsbsg32
NsbasS'varParamIndexes'
p165
(lp166
sS'varParamsSkipped'
p167
(lp168
sS'argNames'
p169
(lp170
S'self'
p171
ag154
ag161
asS'argTypes'
p172
(dp173
g161
g162
sg154
g155
ssg40
S'TListCollection'
p174
sg41
NsS'varParamNames'
p175
(lp176
sg42
I0
sg43
g44
sS'block'
p177
(i__main__
DelphiBlock
p178
(dp179
S'compoundStatement'
p180
(idelphi
DelphiCompoundStatement
p181
(dp182
S'statements'
p183
(lp184
(idelphi
DelphiIfStatement
p185
(dp186
S'expression'
p187
(i__main__
DelphiIdentAccess
p188
(dp189
S'ident'
p190
S'filer'
p191
sS'endAccessList'
p192
(lp193
(idelphi
DelphiFieldEndAccess
p194
(dp195
S'field'
p196
S'isReading'
p197
sbasbsS'ifFalseStatement'
p198
(idelphi
DelphiCompoundStatement
p199
(dp200
g183
(lp201
(i__main__
DelphiAssignStatement
p202
(dp203
S'newValueExpression'
p204
(i__main__
DelphiIdentAccess
p205
(dp206
g190
S'count'
p207
sg192
(lp208
sbsS'destinationExpression'
p209
(i__main__
DelphiIdentAccess
p210
(dp211
g190
S'countOnStream'
p212
sg192
(lp213
sbsba(i__main__
DelphiAssignStatement
p214
(dp215
g204
Nsg209
(i__main__
DelphiIdentAccess
p216
(dp217
g190
S'filer'
p218
sg192
(lp219
(idelphi
DelphiFieldEndAccess
p220
(dp221
g196
S'streamLongint'
p222
sba(idelphi
DelphiFunctionEndAccess
p223
(dp224
S'expressionList'
p225
(lp226
(i__main__
DelphiIdentAccess
p227
(dp228
g190
S'countOnStream'
p229
sg192
(lp230
sbasbasbsba(idelphi
DelphiIfStatement
p231
(dp232
g187
(idelphi
DelphiRelOp
p233
(dp234
S'simpleExpression1'
p235
(i__main__
DelphiIdentAccess
p236
(dp237
g190
S'countOnStream'
p238
sg192
(lp239
sbsS'simpleExpression2'
p240
(idelphi
DelphiIntegerValue
p241
(dp242
S'string'
p243
S'0'
sbsS'relOp'
p244
S'>'
sbsg198
NsS'ifTrueStatement'
p245
(idelphi
DelphiForStatement
p246
(dp247
S'variable'
p248
S'i'
sS'finalValue'
p249
(idelphi
DelphiAddOp
p250
(dp251
S'addOp'
p252
S'-'
sS'term2'
p253
(idelphi
DelphiIntegerValue
p254
(dp255
g243
S'1'
sbsS'term1'
p256
(i__main__
DelphiIdentAccess
p257
(dp258
g190
S'countOnStream'
p259
sg192
(lp260
sbsbsS'direction'
p261
S'to'
p262
sg21
(idelphi
DelphiIntegerValue
p263
(dp264
g243
S'0'
sbsS'statement'
p265
(idelphi
DelphiCompoundStatement
p266
(dp267
g183
(lp268
(i__main__
DelphiAssignStatement
p269
(dp270
g204
(i__main__
DelphiIdentAccess
p271
(dp272
g190
S'PdStreamableObject'
p273
sg192
(lp274
(idelphi
DelphiFunctionEndAccess
p275
(dp276
g225
(lp277
(i__main__
DelphiIdentAccess
p278
(dp279
g190
S'self'
p280
sg192
(lp281
(idelphi
DelphiFieldEndAccess
p282
(dp283
g196
S'items'
p284
sba(idelphi
DelphiArrayEndAccess
p285
(dp286
g225
(lp287
(i__main__
DelphiIdentAccess
p288
(dp289
g190
S'i'
sg192
(lp290
sbasbasbasbasbsg209
(i__main__
DelphiIdentAccess
p291
(dp292
g190
S'streamableObject'
p293
sg192
(lp294
sbsba(i__main__
DelphiAssignStatement
p295
(dp296
g204
Nsg209
(i__main__
DelphiIdentAccess
p297
(dp298
g190
S'streamableObject'
p299
sg192
(lp300
(idelphi
DelphiFieldEndAccess
p301
(dp302
g196
S'streamUsingFiler'
p303
sba(idelphi
DelphiFunctionEndAccess
p304
(dp305
g225
(lp306
(i__main__
DelphiIdentAccess
p307
(dp308
g190
S'filer'
p309
sg192
(lp310
sbasbasbsbasbsbsbasbsg245
(idelphi
DelphiCompoundStatement
p311
(dp312
g183
(lp313
(i__main__
DelphiAssignStatement
p314
(dp315
g204
Nsg209
(i__main__
DelphiIdentAccess
p316
(dp317
g190
S'self'
p318
sg192
(lp319
(idelphi
DelphiFieldEndAccess
p320
(dp321
g196
S'clear'
p322
sbasbsba(i__main__
DelphiAssignStatement
p323
(dp324
g204
Nsg209
(i__main__
DelphiIdentAccess
p325
(dp326
g190
S'filer'
p327
sg192
(lp328
(idelphi
DelphiFieldEndAccess
p329
(dp330
g196
S'streamLongint'
p331
sba(idelphi
DelphiFunctionEndAccess
p332
(dp333
g225
(lp334
(i__main__
DelphiIdentAccess
p335
(dp336
g190
S'countOnStream'
p337
sg192
(lp338
sbasbasbsba(idelphi
DelphiIfStatement
p339
(dp340
g187
(idelphi
DelphiRelOp
p341
(dp342
g235
(i__main__
DelphiIdentAccess
p343
(dp344
g190
S'countOnStream'
p345
sg192
(lp346
sbsg240
(idelphi
DelphiIntegerValue
p347
(dp348
g243
S'0'
sbsg244
S'>'
sbsg198
Nsg245
(idelphi
DelphiCompoundStatement
p349
(dp350
g183
(lp351
(i__main__
DelphiAssignStatement
p352
(dp353
g204
Nsg209
(i__main__
DelphiIdentAccess
p354
(dp355
g190
S'self'
p356
sg192
(lp357
(idelphi
DelphiFieldEndAccess
p358
(dp359
g196
S'setCapacity'
p360
sba(idelphi
DelphiFunctionEndAccess
p361
(dp362
g225
(lp363
(i__main__
DelphiIdentAccess
p364
(dp365
g190
S'countOnStream'
p366
sg192
(lp367
sbasbasbsba(idelphi
DelphiForStatement
p368
(dp369
g248
S'i'
sg249
(idelphi
DelphiAddOp
p370
(dp371
g252
S'-'
sg253
(idelphi
DelphiIntegerValue
p372
(dp373
g243
S'1'
sbsg256
(i__main__
DelphiIdentAccess
p374
(dp375
g190
S'countOnStream'
p376
sg192
(lp377
sbsbsg261
g262
sg21
(idelphi
DelphiIntegerValue
p378
(dp379
g243
S'0'
sbsg265
(idelphi
DelphiCompoundStatement
p380
(dp381
g183
(lp382
(i__main__
DelphiAssignStatement
p383
(dp384
g204
(i__main__
DelphiIdentAccess
p385
(dp386
g190
S'classForCreating'
p387
sg192
(lp388
(idelphi
DelphiFieldEndAccess
p389
(dp390
g196
S'create'
p391
sbasbsg209
(i__main__
DelphiIdentAccess
p392
(dp393
g190
S'streamableObject'
p394
sg192
(lp395
sbsba(i__main__
DelphiAssignStatement
p396
(dp397
g204
Nsg209
(i__main__
DelphiIdentAccess
p398
(dp399
g190
S'streamableObject'
p400
sg192
(lp401
(idelphi
DelphiFieldEndAccess
p402
(dp403
g196
S'streamUsingFiler'
p404
sba(idelphi
DelphiFunctionEndAccess
p405
(dp406
g225
(lp407
(i__main__
DelphiIdentAccess
p408
(dp409
g190
S'filer'
p410
sg192
(lp411
sbasbasbsba(i__main__
DelphiAssignStatement
p412
(dp413
g204
Nsg209
(i__main__
DelphiIdentAccess
p414
(dp415
g190
S'self'
p416
sg192
(lp417
(idelphi
DelphiFieldEndAccess
p418
(dp419
g196
S'add'
p420
sba(idelphi
DelphiFunctionEndAccess
p421
(dp422
g225
(lp423
(i__main__
DelphiIdentAccess
p424
(dp425
g190
S'streamableObject'
p426
sg192
(lp427
sbasbasbsbasbsbasbsbasg73
(lp428
S'filer is writing or counting'
p429
asbsbasbsS'limitedDeclSectionList'
p430
(lp431
(i__main__
DelphiVarSection
p432
(dp433
S'atTopLevel'
p434
I0
sS'varDeclList'
p435
(lp436
(idelphi
DelphiVarDecl
p437
(dp438
S'constExpression'
p439
NsS'identList'
p440
(lp441
S'countOnStream'
p442
asg25
(i__main__
DelphiPrimitiveType
p443
(dp444
g28
S'longint'
p445
sbsba(idelphi
DelphiVarDecl
p446
(dp447
g439
Nsg440
(lp448
S'i'
asg25
(i__main__
DelphiPrimitiveType
p449
(dp450
g28
g445
sbsba(idelphi
DelphiVarDecl
p451
(dp452
g439
Nsg440
(lp453
S'streamableObject'
p454
asg25
(i__main__
DelphiNamedType
p455
(dp456
g28
S'PdStreamableObject'
p457
sg30
g1
sg31
NsbsbasbasbsbsS'firstthat'
p458
(i__main__
DelphiMethodImplementation
p459
(dp460
g149
g46
sg9
g48
sg17
(lp461
(i__main__
DelphiFormalParameter
p462
(dp463
g21
Nsg22
(lp464
S'testFunc'
p465
asg25
(i__main__
DelphiNamedType
p466
(dp467
g28
S'TFirstLastFunc'
p468
sg30
g1
sg31
Nsbsg32
Nsba(i__main__
DelphiFormalParameter
p469
(dp470
g21
Nsg22
(lp471
S'data'
p472
asg25
(i__main__
DelphiNamedType
p473
(dp474
g28
S'TObject'
p475
sg30
g1
sg31
Nsbsg32
Nsbasg165
(lp476
sg167
(lp477
sg169
(lp478
g171
ag465
ag472
asg172
(dp479
g472
g473
sg465
g466
ssg40
S'TListCollection'
p480
sg41
(i__main__
DelphiNamedType
p481
(dp482
g28
S'TObject'
p483
sg30
g1
sg31
Nsbsg175
(lp484
sg42
I0
sg43
g67
sg177
(i__main__
DelphiBlock
p485
(dp486
g180
(idelphi
DelphiCompoundStatement
p487
(dp488
g183
(lp489
(i__main__
DelphiAssignStatement
p490
(dp491
g204
(idelphi
DelphiNilValue
p492
(dp493
bsg209
(i__main__
DelphiIdentAccess
p494
(dp495
g190
S'result'
p496
sg192
(lp497
sbsba(idelphi
DelphiIfStatement
p498
(dp499
g187
(idelphi
DelphiRelOp
p500
(dp501
g235
(i__main__
DelphiIdentAccess
p502
(dp503
g190
S'count'
p504
sg192
(lp505
sbsg240
(idelphi
DelphiIntegerValue
p506
(dp507
g243
S'0'
sbsg244
S'>'
sbsg198
Nsg245
(idelphi
DelphiForStatement
p508
(dp509
g248
S'i'
sg249
(idelphi
DelphiAddOp
p510
(dp511
g252
S'-'
sg253
(idelphi
DelphiIntegerValue
p512
(dp513
g243
S'1'
sbsg256
(i__main__
DelphiIdentAccess
p514
(dp515
g190
S'count'
p516
sg192
(lp517
sbsbsg261
g262
sg21
(idelphi
DelphiIntegerValue
p518
(dp519
g243
S'0'
sbsg265
(idelphi
DelphiIfStatement
p520
(dp521
g187
(i__main__
DelphiIdentAccess
p522
(dp523
g190
S'testFunc'
p524
sg192
(lp525
(idelphi
DelphiFunctionEndAccess
p526
(dp527
g225
(lp528
(i__main__
DelphiIdentAccess
p529
(dp530
g190
S'items'
p531
sg192
(lp532
(idelphi
DelphiArrayEndAccess
p533
(dp534
g225
(lp535
(i__main__
DelphiIdentAccess
p536
(dp537
g190
S'i'
sg192
(lp538
sbasbasba(i__main__
DelphiIdentAccess
p539
(dp540
g190
S'data'
p541
sg192
(lp542
sbasbasbsg198
Nsg245
(idelphi
DelphiCompoundStatement
p543
(dp544
g183
(lp545
(i__main__
DelphiAssignStatement
p546
(dp547
g204
(i__main__
DelphiIdentAccess
p548
(dp549
g190
S'items'
p550
sg192
(lp551
(idelphi
DelphiArrayEndAccess
p552
(dp553
g225
(lp554
(i__main__
DelphiIdentAccess
p555
(dp556
g190
S'i'
sg192
(lp557
sbasbasbsg209
(i__main__
DelphiIdentAccess
p558
(dp559
g190
S'result'
p560
sg192
(lp561
sbsba(idelphi
DelphiBreakStatement
p562
(dp563
basbsbsbsbasbsg430
(lp564
(i__main__
DelphiVarSection
p565
(dp566
g434
I0
sg435
(lp567
(idelphi
DelphiVarDecl
p568
(dp569
g439
Nsg440
(lp570
S'i'
asg25
(i__main__
DelphiPrimitiveType
p571
(dp572
g28
S'integer'
p573
sbsbasbasbsbsS'clear'
p574
(i__main__
DelphiMethodImplementation
p575
(dp576
g149
g69
sg9
g71
sg17
(lp577
sg165
(lp578
sg167
(lp579
sg169
(lp580
g171
asg172
(dp581
sg40
S'TListCollection'
p582
sg41
Nsg175
(lp583
sg42
I0
sg43
g44
sg177
(i__main__
DelphiBlock
p584
(dp585
g180
(idelphi
DelphiCompoundStatement
p586
(dp587
g183
(lp588
(idelphi
DelphiIfStatement
p589
(dp590
g187
(idelphi
DelphiRelOp
p591
(dp592
g235
(i__main__
DelphiIdentAccess
p593
(dp594
g190
S'count'
p595
sg192
(lp596
sbsg240
(idelphi
DelphiIntegerValue
p597
(dp598
g243
S'0'
sbsg244
S'>'
sbsg198
Nsg245
(idelphi
DelphiForStatement
p599
(dp600
g248
S'i'
sg249
(idelphi
DelphiAddOp
p601
(dp602
g252
S'-'
sg253
(idelphi
DelphiIntegerValue
p603
(dp604
g243
S'1'
sbsg256
(i__main__
DelphiIdentAccess
p605
(dp606
g190
S'count'
p607
sg192
(lp608
sbsbsg261
g262
sg21
(idelphi
DelphiIntegerValue
p609
(dp610
g243
S'0'
sbsg265
(idelphi
DelphiCompoundStatement
p611
(dp612
g183
(lp613
(i__main__
DelphiAssignStatement
p614
(dp615
g204
(i__main__
DelphiIdentAccess
p616
(dp617
g190
S'items'
p618
sg192
(lp619
(idelphi
DelphiArrayEndAccess
p620
(dp621
g225
(lp622
(i__main__
DelphiIdentAccess
p623
(dp624
g190
S'i'
sg192
(lp625
sbasbasbsg209
(i__main__
DelphiIdentAccess
p626
(dp627
g190
S'temp'
p628
sg192
(lp629
sbsba(i__main__
DelphiAssignStatement
p630
(dp631
g204
(idelphi
DelphiNilValue
p632
(dp633
bsg209
(i__main__
DelphiIdentAccess
p634
(dp635
g190
S'items'
p636
sg192
(lp637
(idelphi
DelphiArrayEndAccess
p638
(dp639
g225
(lp640
(i__main__
DelphiIdentAccess
p641
(dp642
g190
S'i'
sg192
(lp643
sbasbasbsba(i__main__
DelphiAssignStatement
p644
(dp645
g204
Nsg209
(i__main__
DelphiIdentAccess
p646
(dp647
g190
S'temp'
p648
sg192
(lp649
(idelphi
DelphiFieldEndAccess
p650
(dp651
g196
S'free'
p652
sbasbsbasbsbsba(i__main__
DelphiAssignStatement
p653
(dp654
g204
Nsg209
(idelphi
DelphiInheritedCall
p655
(dp656
g190
S'clear'
p657
sg225
Nsbsbasbsg430
(lp658
(i__main__
DelphiVarSection
p659
(dp660
g434
I0
sg435
(lp661
(idelphi
DelphiVarDecl
p662
(dp663
g439
Nsg440
(lp664
S'i'
asg25
(i__main__
DelphiPrimitiveType
p665
(dp666
g28
g573
sbsba(idelphi
DelphiVarDecl
p667
(dp668
g439
Nsg440
(lp669
S'temp'
p670
asg25
(i__main__
DelphiNamedType
p671
(dp672
g28
S'TObject'
p673
sg30
g1
sg31
Nsbsbasbasbsg73
g74
sbsS'lastthat'
p674
(i__main__
DelphiMethodImplementation
p675
(dp676
g149
g77
sg9
g79
sg17
(lp677
(i__main__
DelphiFormalParameter
p678
(dp679
g21
Nsg22
(lp680
S'testFunc'
p681
asg25
(i__main__
DelphiNamedType
p682
(dp683
g28
S'TFirstLastFunc'
p684
sg30
g1
sg31
Nsbsg32
Nsba(i__main__
DelphiFormalParameter
p685
(dp686
g21
Nsg22
(lp687
S'data'
p688
asg25
(i__main__
DelphiNamedType
p689
(dp690
g28
S'TObject'
p691
sg30
g1
sg31
Nsbsg32
Nsbasg165
(lp692
sg167
(lp693
sg169
(lp694
g171
ag681
ag688
asg172
(dp695
g688
g689
sg681
g682
ssg40
S'TListCollection'
p696
sg41
(i__main__
DelphiNamedType
p697
(dp698
g28
S'TObject'
p699
sg30
g1
sg31
Nsbsg175
(lp700
sg42
I0
sg43
g67
sg177
(i__main__
DelphiBlock
p701
(dp702
g180
(idelphi
DelphiCompoundStatement
p703
(dp704
g183
(lp705
(i__main__
DelphiAssignStatement
p706
(dp707
g204
(idelphi
DelphiNilValue
p708
(dp709
bsg209
(i__main__
DelphiIdentAccess
p710
(dp711
g190
S'result'
p712
sg192
(lp713
sbsba(idelphi
DelphiIfStatement
p714
(dp715
g187
(idelphi
DelphiRelOp
p716
(dp717
g235
(i__main__
DelphiIdentAccess
p718
(dp719
g190
S'count'
p720
sg192
(lp721
sbsg240
(idelphi
DelphiIntegerValue
p722
(dp723
g243
S'0'
sbsg244
S'>'
sbsg198
Nsg245
(idelphi
DelphiForStatement
p724
(dp725
g248
S'i'
sg249
(idelphi
DelphiIntegerValue
p726
(dp727
g243
S'0'
sbsg261
S'downto'
p728
sg21
(idelphi
DelphiAddOp
p729
(dp730
g252
S'-'
sg253
(idelphi
DelphiIntegerValue
p731
(dp732
g243
S'1'
sbsg256
(i__main__
DelphiIdentAccess
p733
(dp734
g190
S'count'
p735
sg192
(lp736
sbsbsg265
(idelphi
DelphiIfStatement
p737
(dp738
g187
(i__main__
DelphiIdentAccess
p739
(dp740
g190
S'testFunc'
p741
sg192
(lp742
(idelphi
DelphiFunctionEndAccess
p743
(dp744
g225
(lp745
(i__main__
DelphiIdentAccess
p746
(dp747
g190
S'Items'
p748
sg192
(lp749
(idelphi
DelphiArrayEndAccess
p750
(dp751
g225
(lp752
(i__main__
DelphiIdentAccess
p753
(dp754
g190
S'i'
sg192
(lp755
sbasbasba(i__main__
DelphiIdentAccess
p756
(dp757
g190
S'data'
p758
sg192
(lp759
sbasbasbsg198
Nsg245
(idelphi
DelphiCompoundStatement
p760
(dp761
g183
(lp762
(i__main__
DelphiAssignStatement
p763
(dp764
g204
(i__main__
DelphiIdentAccess
p765
(dp766
g190
S'items'
p767
sg192
(lp768
(idelphi
DelphiArrayEndAccess
p769
(dp770
g225
(lp771
(i__main__
DelphiIdentAccess
p772
(dp773
g190
S'i'
sg192
(lp774
sbasbasbsg209
(i__main__
DelphiIdentAccess
p775
(dp776
g190
S'result'
p777
sg192
(lp778
sbsba(idelphi
DelphiBreakStatement
p779
(dp780
basbsbsbsbasbsg430
(lp781
(i__main__
DelphiVarSection
p782
(dp783
g434
I0
sg435
(lp784
(idelphi
DelphiVarDecl
p785
(dp786
g439
Nsg440
(lp787
S'i'
asg25
(i__main__
DelphiPrimitiveType
p788
(dp789
g28
g573
sbsbasbasbsbsS'foreach'
p790
(i__main__
DelphiMethodImplementation
p791
(dp792
g149
g99
sg9
g101
sg17
(lp793
(i__main__
DelphiFormalParameter
p794
(dp795
g21
Nsg22
(lp796
S'proc'
p797
asg25
(i__main__
DelphiNamedType
p798
(dp799
g28
S'TForEachProc'
p800
sg30
g1
sg31
Nsbsg32
Nsba(i__main__
DelphiFormalParameter
p801
(dp802
g21
Nsg22
(lp803
S'data'
p804
asg25
(i__main__
DelphiNamedType
p805
(dp806
g28
S'TObject'
p807
sg30
g1
sg31
Nsbsg32
Nsbasg165
(lp808
sg167
(lp809
sg169
(lp810
g171
ag797
ag804
asg172
(dp811
g804
g805
sg797
g798
ssg40
S'TListCollection'
p812
sg41
Nsg175
(lp813
sg42
I0
sg43
g44
sg177
(i__main__
DelphiBlock
p814
(dp815
g180
(idelphi
DelphiCompoundStatement
p816
(dp817
g183
(lp818
(idelphi
DelphiIfStatement
p819
(dp820
g187
(idelphi
DelphiRelOp
p821
(dp822
g235
(i__main__
DelphiIdentAccess
p823
(dp824
g190
S'count'
p825
sg192
(lp826
sbsg240
(idelphi
DelphiIntegerValue
p827
(dp828
g243
S'0'
sbsg244
S'>'
sbsg198
Nsg245
(idelphi
DelphiForStatement
p829
(dp830
g248
S'i'
sg249
(idelphi
DelphiAddOp
p831
(dp832
g252
S'-'
sg253
(idelphi
DelphiIntegerValue
p833
(dp834
g243
S'1'
sbsg256
(i__main__
DelphiIdentAccess
p835
(dp836
g190
S'count'
p837
sg192
(lp838
sbsbsg261
g262
sg21
(idelphi
DelphiIntegerValue
p839
(dp840
g243
S'0'
sbsg265
(i__main__
DelphiAssignStatement
p841
(dp842
g204
Nsg209
(i__main__
DelphiIdentAccess
p843
(dp844
g190
S'proc'
p845
sg192
(lp846
(idelphi
DelphiFunctionEndAccess
p847
(dp848
g225
(lp849
(i__main__
DelphiIdentAccess
p850
(dp851
g190
S'items'
p852
sg192
(lp853
(idelphi
DelphiArrayEndAccess
p854
(dp855
g225
(lp856
(i__main__
DelphiIdentAccess
p857
(dp858
g190
S'i'
sg192
(lp859
sbasbasba(i__main__
DelphiIdentAccess
p860
(dp861
g190
S'data'
p862
sg192
(lp863
sbasbasbsbsbsbasbsg430
(lp864
(i__main__
DelphiVarSection
p865
(dp866
g434
I0
sg435
(lp867
(idelphi
DelphiVarDecl
p868
(dp869
g439
Nsg440
(lp870
S'i'
asg25
(i__main__
DelphiPrimitiveType
p871
(dp872
g28
g573
sbsbasbasbsbsS'destroy'
p873
(i__main__
DelphiMethodImplementation
p874
(dp875
g149
g118
sg9
g120
sg17
(lp876
sg165
(lp877
sg167
(lp878
sg169
(lp879
g171
asg172
(dp880
sg40
S'TListCollection'
p881
sg41
Nsg175
(lp882
sg42
I0
sg43
g122
sg177
(i__main__
DelphiBlock
p883
(dp884
g180
(idelphi
DelphiCompoundStatement
p885
(dp886
g183
(lp887
(i__main__
DelphiAssignStatement
p888
(dp889
g204
Nsg209
(i__main__
DelphiIdentAccess
p890
(dp891
g190
S'self'
p892
sg192
(lp893
(idelphi
DelphiFieldEndAccess
p894
(dp895
g196
S'clear'
p896
sbasbsg73
(lp897
S'pdf - clear will be called twice since inherited destroy also clears - but minor problem'
p898
asba(i__main__
DelphiAssignStatement
p899
(dp900
g204
Nsg209
(idelphi
DelphiInheritedCall
p901
(dp902
g190
S'Destroy'
p903
sg225
Nsbsbasbsg430
(lp904
sbsbsS'clearpointerswithoutdeletingobjects'
p905
(i__main__
DelphiMethodImplementation
p906
(dp907
g149
g124
sg9
g126
sg17
(lp908
sg165
(lp909
sg167
(lp910
sg169
(lp911
g171
asg172
(dp912
sg40
S'TListCollection'
p913
sg41
Nsg175
(lp914
sg42
I0
sg43
g44
sg177
(i__main__
DelphiBlock
p915
(dp916
g180
(idelphi
DelphiCompoundStatement
p917
(dp918
g183
(lp919
(idelphi
DelphiIfStatement
p920
(dp921
g187
(idelphi
DelphiRelOp
p922
(dp923
g235
(i__main__
DelphiIdentAccess
p924
(dp925
g190
S'count'
p926
sg192
(lp927
sbsg240
(idelphi
DelphiIntegerValue
p928
(dp929
g243
S'0'
sbsg244
S'>'
sbsg198
Nsg245
(idelphi
DelphiForStatement
p930
(dp931
g248
S'i'
sg249
(idelphi
DelphiAddOp
p932
(dp933
g252
S'-'
sg253
(idelphi
DelphiIntegerValue
p934
(dp935
g243
S'1'
sbsg256
(i__main__
DelphiIdentAccess
p936
(dp937
g190
S'count'
p938
sg192
(lp939
sbsbsg261
g262
sg21
(idelphi
DelphiIntegerValue
p940
(dp941
g243
S'0'
sbsg265
(i__main__
DelphiAssignStatement
p942
(dp943
g204
(idelphi
DelphiNilValue
p944
(dp945
bsg209
(i__main__
DelphiIdentAccess
p946
(dp947
g190
S'items'
p948
sg192
(lp949
(idelphi
DelphiArrayEndAccess
p950
(dp951
g225
(lp952
(i__main__
DelphiIdentAccess
p953
(dp954
g190
S'i'
sg192
(lp955
sbasbasbsbsbsba(i__main__
DelphiAssignStatement
p956
(dp957
g204
Nsg209
(idelphi
DelphiInheritedCall
p958
(dp959
g190
S'clear'
p960
sg225
Nsbsbasbsg430
(lp961
(i__main__
DelphiVarSection
p962
(dp963
g434
I0
sg435
(lp964
(idelphi
DelphiVarDecl
p965
(dp966
g439
Nsg440
(lp967
S'i'
asg25
(i__main__
DelphiPrimitiveType
p968
(dp969
g28
g573
sbsbasbasbsbssS'propertyDeclarations'
p970
(dp971
sS'variableNamesInDeclaredOrder'
p972
(lp973
sba(i__main__
DelphiProceduralImplementation
p974
(dp975
g149
(i__main__
DelphiProceduralDeclaration
p976
(dp977
g17
(lp978
(i__main__
DelphiFormalParameter
p979
(dp980
g21
Nsg22
(lp981
S'list'
p982
asg25
(i__main__
DelphiNamedType
p983
(dp984
g28
S'TList'
p985
sg30
g1
sg31
Nsbsg32
Nsba(i__main__
DelphiFormalParameter
p986
(dp987
g21
Nsg22
(lp988
S'item'
p989
asg25
(i__main__
DelphiNamedType
p990
(dp991
g28
S'TObject'
p992
sg30
g1
sg31
Nsbsg32
Nsbasg9
S'addToListIfAbsent'
p993
sg41
Nsbsg9
g993
sg41
Nsg165
(lp994
sg167
(lp995
sg169
(lp996
S'list'
p997
aS'item'
p998
asg172
(dp999
g998
(i__main__
DelphiNamedType
p1000
(dp1001
g28
S'TObject'
p1002
sg30
g1
sg31
Nsbsg997
(i__main__
DelphiNamedType
p1003
(dp1004
g28
S'TList'
p1005
sg30
g1
sg31
Nsbssg17
(lp1006
(i__main__
DelphiFormalParameter
p1007
(dp1008
g21
Nsg22
(lp1009
g997
asg25
g1003
sg32
Nsba(i__main__
DelphiFormalParameter
p1010
(dp1011
g21
Nsg22
(lp1012
g998
asg25
g1000
sg32
Nsbasg175
(lp1013
sg177
(i__main__
DelphiBlock
p1014
(dp1015
g180
(idelphi
DelphiCompoundStatement
p1016
(dp1017
g183
(lp1018
(idelphi
DelphiIfStatement
p1019
(dp1020
g187
(idelphi
DelphiRelOp
p1021
(dp1022
g235
(i__main__
DelphiIdentAccess
p1023
(dp1024
g190
S'item'
p1025
sg192
(lp1026
sbsg240
(idelphi
DelphiNilValue
p1027
(dp1028
bsg244
S'='
sbsg198
Nsg245
(i__main__
DelphiExitStatement
p1029
(dp1030
S'proceduralOrMethodImplementation'
p1031
g974
sbsba(idelphi
DelphiIfStatement
p1032
(dp1033
g187
(idelphi
DelphiRelOp
p1034
(dp1035
g235
(i__main__
DelphiIdentAccess
p1036
(dp1037
g190
S'list'
p1038
sg192
(lp1039
(idelphi
DelphiFieldEndAccess
p1040
(dp1041
g196
S'indexOf'
p1042
sba(idelphi
DelphiFunctionEndAccess
p1043
(dp1044
g225
(lp1045
(i__main__
DelphiIdentAccess
p1046
(dp1047
g190
S'item'
p1048
sg192
(lp1049
sbasbasbsg240
(idelphi
DelphiIntegerValue
p1050
(dp1051
g243
S'0'
sbsg244
S'<'
sbsg198
Nsg245
(i__main__
DelphiAssignStatement
p1052
(dp1053
g204
Nsg209
(i__main__
DelphiIdentAccess
p1054
(dp1055
g190
S'list'
p1056
sg192
(lp1057
(idelphi
DelphiFieldEndAccess
p1058
(dp1059
g196
S'add'
p1060
sba(idelphi
DelphiFunctionEndAccess
p1061
(dp1062
g225
(lp1063
(i__main__
DelphiIdentAccess
p1064
(dp1065
g190
S'item'
p1066
sg192
(lp1067
sbasbasbsbsbasbsg430
(lp1068
sbsbasS'includedUnits'
p1069
NsS'implementationUses'
p1070
(lp1071
S'ClipBrd'
p1072
aS'WinTypes'
p1073
aS'WinProcs'
p1074
asg9
S'Ucollect'
p1075
sS'constSections'
p1076
(lp1077
sS'globalsInProperCase'
p1078
NsS'interfaceUses'
p1079
(lp1080
S'delphi_compatability'
p1081
aS'Classes'
p1082
aS'ufiler'
p1083
asS'finalCommentToken'
p1084
(i__main__
PassStatement
p1085
(dp1086
g430
(lp1087
sg73
(lp1088
S' functions for global clipboard transfer, not using\r'
p1089
aS'    procedure copyToClipboard(classForCreating: PdStreamableObjectClass; format: word);\r'
p1090
aS'    procedure getFromClipboard(classForCreating: PdStreamableObjectClass; format: word);\r'
p1091
aS'\r'
aS'procedure TListCollection.copyToClipboard(classForCreating: PdStreamableObjectClass; format: word);\r'
p1092
aS'  var\r'
p1093
aS'    memoryStream: TMemoryStream;\r'
p1094
aS'    filer: PdFiler;\r'
p1095
aS'    handleToBuffer: THandle;\r'
p1096
aS'    pointerToBuffer: Pointer;\r'
p1097
aS'  begin\r'
p1098
aS'  memoryStream := TMemoryStream.create;\r'
p1099
aS'  filer := PdFiler.createWithStream(memoryStream);\r'
p1100
aS'  try\r'
p1101
aS'    filer.setToWritingMode;\r'
p1102
aS'    self.streamUsingFiler(filer, classForCreating);\r'
p1103
aS'    handleToBuffer := GlobalAlloc(GMEM_MOVEABLE, memoryStream.size);\r'
p1104
aS'    try\r'
p1105
aS'      pointerToBuffer := GlobalLock(handleToBuffer);\r'
p1106
aS'      try\r'
p1107
aS'        System.Move(memoryStream.memory^, pointerToBuffer^, memoryStream.size);\r'
p1108
aS'        Clipboard.setAsHandle(format, handleToBuffer);\r'
p1109
aS'      finally\r'
p1110
aS'        GlobalUnlock(handleToBuffer);\r'
p1111
aS'      end;\r'
p1112
aS'    except\r'
p1113
aS'      GlobalFree(handleToBuffer);\r'
p1114
aS'      raise;\r'
p1115
aS'    end;\r'
p1116
aS'  finally\r'
p1117
aS'    memoryStream.free;\r'
p1118
aS'    filer.free;\r'
p1119
aS'  end;\r'
p1120
aS'end;\r'
p1121
aS'\r'
aS'procedure TListCollection.getFromClipboard(classForCreating: PdStreamableObjectClass; format: word);\r'
p1122
aS'  var\r'
p1123
aS'    memoryStream : TMemoryStream;\r'
p1124
aS'    filer: PdFiler;\r'
p1125
aS'    handleToBuffer: THandle;\r'
p1126
aS'    pointerToBuffer: Pointer;\r'
p1127
aS'  begin\r'
p1128
aS'  handleToBuffer := Clipboard.GetAsHandle(format);\r'
p1129
aS'  if handleToBuffer <> 0 then begin\r'
p1130
aS'    pointerToBuffer := GlobalLock(handleToBuffer);\r'
p1131
aS'    if pointerToBuffer <> nil then begin\r'
p1132
aS'      try\r'
p1133
aS'        memoryStream := TMemoryStream.Create;\r'
p1134
aS'        try\r'
p1135
aS'          memoryStream.writeBuffer(pointerToBuffer^, GlobalSize(handleToBuffer));\r'
p1136
aS'          memoryStream.position := 0;\r'
p1137
aS'          filer := PdFiler.createWithStream(memoryStream);\r'
p1138
aS'          filer.setToReadingMode;\r'
p1139
aS'          self.streamUsingFiler(filer, classForCreating);\r'
p1140
aS'        finally\r'
p1141
aS'          memoryStream.free;\r'
p1142
aS'          filer.free;\r'
p1143
aS'        end;\r'
p1144
aS'      finally\r'
p1145
aS'        GlobalUnlock(handleToBuffer);\r'
p1146
aS'      end;\r'
p1147
aS'    end;\r'
p1148
aS'  end;\r'
p1149
aS'end;\r'
p1150
aS''
asbsS'varSections'
p1151
(lp1152
sS'globals'
p1153
NsS'originalFileName'
p1154
S'../../PlantStudioInPython/converted_source/used/ucollect.pas'
p1155
sS'proceduralImplementations'
p1156
(dp1157
S'addtolistifabsent'
p1158
g974
ssS'fileName'
p1159
S'/Users/pdf/Documents/workspace/PlantStudioInPython/converted_source/used/ucollect.pas'
p1160
sS'proceduralDeclarations'
p1161
(dp1162
S'addtolistifabsent'
p1163
g976
ssS'types'
p1164
(dp1165
S'tfirstlastfunc'
p1166
(i__main__
DelphiProceduralType
p1167
(dp1168
g17
(lp1169
(i__main__
DelphiFormalParameter
p1170
(dp1171
g21
Nsg22
(lp1172
S'each'
p1173
asg25
(i__main__
DelphiNamedType
p1174
(dp1175
g28
S'TObject'
p1176
sg30
g1
sg31
Nsbsg32
Nsba(i__main__
DelphiFormalParameter
p1177
(dp1178
g21
Nsg22
(lp1179
S'data'
p1180
asg25
(i__main__
DelphiNamedType
p1181
(dp1182
g28
S'TObject'
p1183
sg30
g1
sg31
Nsbsg32
Nsbasg9
S'TFirstLastFunc'
p1184
sg41
(i__main__
DelphiPrimitiveType
p1185
(dp1186
g28
S'boolean'
p1187
sbsbsS'tforeachproc'
p1188
(i__main__
DelphiProceduralType
p1189
(dp1190
g17
(lp1191
(i__main__
DelphiFormalParameter
p1192
(dp1193
g21
Nsg22
(lp1194
S'each'
p1195
asg25
(i__main__
DelphiNamedType
p1196
(dp1197
g28
S'TObject'
p1198
sg30
g1
sg31
Nsbsg32
Nsba(i__main__
DelphiFormalParameter
p1199
(dp1200
g21
Nsg22
(lp1201
S'data'
p1202
asg25
(i__main__
DelphiNamedType
p1203
(dp1204
g28
S'TObject'
p1205
sg30
g1
sg31
Nsbsg32
Nsbasg9
S'TForEachProc'
p1206
sg41
NsbsS'tlistcollection'
p1207
g5
ssb.