(i__main__
DelphiUnit
p1
(dp2
S'sectionsInOrderDefined'
p3
(lp4
(i__main__
DelphiEnumeratedType
p5
(dp6
S'typeName'
p7
S'TrackPhase'
p8
sS'names'
p9
(lp10
S'trackPress'
p11
aS'trackMove'
p12
aS'trackRelease'
p13
asS'name'
p14
g8
sba(i__main__
DelphiClass
p15
(dp16
S'variableNamesInProperCase'
p17
(dp18
S'commandchangesplantfile'
p19
S'commandChangesPlantFile'
p20
sS'plantfilechangedbeforecommand'
p21
S'plantFileChangedBeforeCommand'
p22
sS'done'
p23
S'done'
p24
sS'canundo'
p25
S'canUndo'
p26
ssg14
S'PdCommand'
p27
sS'methodDeclarations'
p28
(dp29
S'numberofstoredlargeobjects'
p30
(i__main__
DelphiMethodDeclaration
p31
(dp32
g14
S'numberOfStoredLargeObjects'
p33
sS'formalParameters'
p34
(lp35
sS'className'
p36
g27
sS'resultType'
p37
(i__main__
DelphiPrimitiveType
p38
(dp39
g7
S'longint'
p40
sbsS'isClassMethod'
p41
I0
sS'methodType'
p42
S'function'
p43
sbsS'description'
p44
(i__main__
DelphiMethodDeclaration
p45
(dp46
g14
S'description'
p47
sg34
(lp48
sg36
g27
sg37
(i__main__
DelphiPrimitiveType
p49
(dp50
g7
S'string'
p51
sbsg41
I0
sg42
g43
sbsS'create'
p52
(i__main__
DelphiMethodDeclaration
p53
(dp54
g14
S'create'
p55
sg34
(lp56
sg36
g27
sg37
Nsg41
I0
sg42
S'constructor'
p57
sbsS'docommand'
p58
(i__main__
DelphiMethodDeclaration
p59
(dp60
g14
S'doCommand'
p61
sg34
(lp62
sg36
g27
sg37
Nsg41
I0
sg42
S'procedure'
p63
sbsS'trackmouse'
p64
(i__main__
DelphiMethodDeclaration
p65
(dp66
g14
S'TrackMouse'
p67
sg34
(lp68
(i__main__
DelphiFormalParameter
p69
(dp70
S'initialValue'
p71
Nsg9
(lp72
S'aTrackPhase'
p73
asS'theType'
p74
(i__main__
DelphiNamedType
p75
(dp76
g7
S'TrackPhase'
p77
sS'unitDefinedIn'
p78
g1
sS'unitName'
p79
NsbsS'parameterVariety'
p80
Nsba(i__main__
DelphiFormalParameter
p81
(dp82
g71
Nsg9
(lp83
S'anchorPoint'
p84
aS'previousPoint'
p85
aS'nextPoint'
p86
asg74
(i__main__
DelphiNamedType
p87
(dp88
g7
S'TPoint'
p89
sg78
g1
sg79
Nsbsg80
S'var'
p90
sba(i__main__
DelphiFormalParameter
p91
(dp92
g71
Nsg9
(lp93
S'mouseDidMove'
p94
aS'rightButtonDown'
p95
asg74
(i__main__
DelphiPrimitiveType
p96
(dp97
g7
S'boolean'
p98
sbsg80
Nsbasg36
g27
sg37
(i__main__
DelphiNamedType
p99
(dp100
g7
S'PdCommand'
p101
sg78
g1
sg79
Nsbsg41
I0
sg42
g43
sbsS'redocommand'
p102
(i__main__
DelphiMethodDeclaration
p103
(dp104
g14
S'redoCommand'
p105
sg34
(lp106
sg36
g27
sg37
Nsg41
I0
sg42
g63
sbsS'destroy'
p107
(i__main__
DelphiMethodDeclaration
p108
(dp109
g14
S'destroy'
p110
sg34
(lp111
sg36
g27
sg37
Nsg41
I0
sg42
S'destructor'
p112
sbsS'undocommand'
p113
(i__main__
DelphiMethodDeclaration
p114
(dp115
g14
S'undoCommand'
p116
sg34
(lp117
sg36
g27
sg37
Nsg41
I0
sg42
g63
sbssS'superclassNamedTypes'
p118
(lp119
(i__main__
DelphiNamedType
p120
(dp121
g7
S'TObject'
p122
sg78
g1
sg79
NsbasS'variableNames'
p123
(dp124
S'commandchangesplantfile'
p125
(i__main__
DelphiPrimitiveType
p126
(dp127
g7
g98
sbsS'plantfilechangedbeforecommand'
p128
(i__main__
DelphiPrimitiveType
p129
(dp130
g7
g98
sbsS'done'
p131
(i__main__
DelphiPrimitiveType
p132
(dp133
g7
g98
sbsS'canundo'
p134
(i__main__
DelphiPrimitiveType
p135
(dp136
g7
g98
sbssS'methodNamesInDefinedOrder'
p137
(lp138
S'create'
p139
aS'destroy'
p140
aS'docommand'
p141
aS'undocommand'
p142
aS'redocommand'
p143
aS'description'
p144
aS'numberofstoredlargeobjects'
p145
aS'trackmouse'
p146
asS'methodImplementations'
p147
(dp148
S'numberofstoredlargeobjects'
p149
(i__main__
DelphiMethodImplementation
p150
(dp151
S'originalDeclaration'
p152
g31
sg14
g33
sg34
(lp153
sS'varParamIndexes'
p154
(lp155
sS'varParamsSkipped'
p156
(lp157
sS'argNames'
p158
(lp159
S'self'
p160
asS'argTypes'
p161
(dp162
sg36
S'PdCommand'
p163
sg37
(i__main__
DelphiPrimitiveType
p164
(dp165
g7
g40
sbsS'varParamNames'
p166
(lp167
sg41
I0
sg42
g43
sS'block'
p168
(i__main__
DelphiBlock
p169
(dp170
S'compoundStatement'
p171
(idelphi
DelphiCompoundStatement
p172
(dp173
S'statements'
p174
(lp175
(i__main__
DelphiAssignStatement
p176
(dp177
S'newValueExpression'
p178
(idelphi
DelphiIntegerValue
p179
(dp180
g51
S'0'
sbsS'destinationExpression'
p181
(i__main__
DelphiIdentAccess
p182
(dp183
S'ident'
p184
S'result'
p185
sS'endAccessList'
p186
(lp187
sbsbasS'commentLinesBefore'
p188
(lp189
S'subclasses may override but only if they keep copies of large objects'
p190
asbsS'limitedDeclSectionList'
p191
(lp192
sbsbsS'description'
p193
(i__main__
DelphiMethodImplementation
p194
(dp195
g152
g45
sg14
g47
sg34
(lp196
sg154
(lp197
sg156
(lp198
sg158
(lp199
g160
asg161
(dp200
sg36
S'PdCommand'
p201
sg37
(i__main__
DelphiPrimitiveType
p202
(dp203
g7
g51
sbsg166
(lp204
sg41
I0
sg42
g43
sg168
(i__main__
DelphiBlock
p205
(dp206
g171
(idelphi
DelphiCompoundStatement
p207
(dp208
g174
(lp209
(i__main__
DelphiAssignStatement
p210
(dp211
g178
(idelphi
DelphiStringAccess
p212
(dp213
g186
(lp214
sg51
(idelphi
DelphiStringValue
p215
(dp216
g51
S'*command description*'
p217
sbsbsg181
(i__main__
DelphiIdentAccess
p218
(dp219
g184
S'result'
p220
sg186
(lp221
sbsbasbsg191
(lp222
sbsbsS'create'
p223
(i__main__
DelphiMethodImplementation
p224
(dp225
g152
g53
sg14
g55
sg34
(lp226
sg154
(lp227
sg156
(lp228
sg158
(lp229
g160
asg161
(dp230
sg36
S'PdCommand'
p231
sg37
Nsg166
(lp232
sg41
I0
sg42
g57
sg168
(i__main__
DelphiBlock
p233
(dp234
g171
(idelphi
DelphiCompoundStatement
p235
(dp236
g174
(lp237
(i__main__
DelphiAssignStatement
p238
(dp239
g178
Nsg181
(idelphi
DelphiInheritedCall
p240
(dp241
g184
S'create'
p242
sS'expressionList'
p243
Nsbsba(i__main__
DelphiAssignStatement
p244
(dp245
g178
(i__main__
DelphiIdentAccess
p246
(dp247
g184
S'true'
p248
sg186
(lp249
sbsg181
(i__main__
DelphiIdentAccess
p250
(dp251
g184
S'canUndo'
p252
sg186
(lp253
sbsba(i__main__
DelphiAssignStatement
p254
(dp255
g178
(i__main__
DelphiIdentAccess
p256
(dp257
g184
S'false'
p258
sg186
(lp259
sbsg181
(i__main__
DelphiIdentAccess
p260
(dp261
g184
S'done'
p262
sg186
(lp263
sbsba(i__main__
DelphiAssignStatement
p264
(dp265
g178
(i__main__
DelphiIdentAccess
p266
(dp267
g184
S'true'
p268
sg186
(lp269
sbsg181
(i__main__
DelphiIdentAccess
p270
(dp271
g184
S'commandChangesPlantFile'
p272
sg186
(lp273
sbsg188
(lp274
S' default commandChangesPlantFile to true, since most commands change file,\r'
p275
aS'    if command does not change file, set to false after call to inherited create '
p276
asba(i__main__
DelphiAssignStatement
p277
(dp278
g178
(i__main__
DelphiIdentAccess
p279
(dp280
g184
S'false'
p281
sg186
(lp282
sbsg181
(i__main__
DelphiIdentAccess
p283
(dp284
g184
S'plantFileChangedBeforeCommand'
p285
sg186
(lp286
sbsbasbsg191
(lp287
sbsbsS'docommand'
p288
(i__main__
DelphiMethodImplementation
p289
(dp290
g152
g59
sg14
g61
sg34
(lp291
sg154
(lp292
sg156
(lp293
sg158
(lp294
g160
asg161
(dp295
sg36
S'PdCommand'
p296
sg37
Nsg166
(lp297
sg41
I0
sg42
g63
sg168
(i__main__
DelphiBlock
p298
(dp299
g171
(idelphi
DelphiCompoundStatement
p300
(dp301
g174
(lp302
(i__main__
DelphiAssignStatement
p303
(dp304
g178
(i__main__
DelphiIdentAccess
p305
(dp306
g184
S'true'
p307
sg186
(lp308
sbsg181
(i__main__
DelphiIdentAccess
p309
(dp310
g184
S'self'
p311
sg186
(lp312
(idelphi
DelphiFieldEndAccess
p313
(dp314
S'field'
p315
S'done'
p316
sbasbsba(idelphi
DelphiIfStatement
p317
(dp318
S'expression'
p319
(i__main__
DelphiIdentAccess
p320
(dp321
g184
S'commandChangesPlantFile'
p322
sg186
(lp323
sbsS'ifFalseStatement'
p324
NsS'ifTrueStatement'
p325
(idelphi
DelphiCompoundStatement
p326
(dp327
g174
(lp328
(i__main__
DelphiAssignStatement
p329
(dp330
g178
(i__main__
DelphiIdentAccess
p331
(dp332
g184
S'plantFileChanged'
p333
sg186
(lp334
sbsg181
(i__main__
DelphiIdentAccess
p335
(dp336
g184
S'plantFileChangedBeforeCommand'
p337
sg186
(lp338
sbsba(idelphi
DelphiIfStatement
p339
(dp340
g319
(idelphi
DelphiRelOp
p341
(dp342
S'simpleExpression1'
p343
(i__main__
DelphiIdentAccess
p344
(dp345
g184
S'MainForm'
p346
sg186
(lp347
sbsS'simpleExpression2'
p348
(idelphi
DelphiNilValue
p349
(dp350
bsS'relOp'
p351
S'<>'
p352
sbsg324
Nsg325
(i__main__
DelphiAssignStatement
p353
(dp354
g178
Nsg181
(i__main__
DelphiIdentAccess
p355
(dp356
g184
S'MainForm'
p357
sg186
(lp358
(idelphi
DelphiFieldEndAccess
p359
(dp360
g315
S'setPlantFileChanged'
p361
sba(idelphi
DelphiFunctionEndAccess
p362
(dp363
g243
(lp364
(i__main__
DelphiIdentAccess
p365
(dp366
g184
S'true'
p367
sg186
(lp368
sbasbasbsbsbasbsbasg188
(lp369
S'subclass should override and call inherited'
p370
asbsg191
(lp371
sbsbsS'trackmouse'
p372
(i__main__
DelphiMethodImplementation
p373
(dp374
g152
g65
sg14
g67
sg34
(lp375
(i__main__
DelphiFormalParameter
p376
(dp377
g71
Nsg9
(lp378
S'aTrackPhase'
p379
asg74
(i__main__
DelphiNamedType
p380
(dp381
g7
S'TrackPhase'
p382
sg78
g1
sg79
Nsbsg80
Nsba(i__main__
DelphiFormalParameter
p383
(dp384
g71
Nsg9
(lp385
S'anchorPoint'
p386
aS'previousPoint'
p387
aS'nextPoint'
p388
asg74
(i__main__
DelphiNamedType
p389
(dp390
g7
S'TPoint'
p391
sg78
g1
sg79
Nsbsg80
g90
sba(i__main__
DelphiFormalParameter
p392
(dp393
g71
Nsg9
(lp394
S'mouseDidMove'
p395
aS'rightButtonDown'
p396
asg74
(i__main__
DelphiPrimitiveType
p397
(dp398
g7
g98
sbsg80
Nsbasg154
(lp399
sg156
(lp400
g386
ag387
ag388
asg158
(lp401
g160
ag379
ag386
ag387
ag388
ag395
ag396
asg161
(dp402
g386
g389
sg387
g389
sg396
g397
sg388
g389
sg379
g380
sg395
g397
ssg36
S'PdCommand'
p403
sg37
(i__main__
DelphiNamedType
p404
(dp405
g7
S'PdCommand'
p406
sg78
g1
sg79
Nsbsg166
(lp407
sg41
I0
sg42
g43
sg168
(i__main__
DelphiBlock
p408
(dp409
g171
(idelphi
DelphiCompoundStatement
p410
(dp411
g174
(lp412
(i__main__
DelphiAssignStatement
p413
(dp414
g178
(i__main__
DelphiIdentAccess
p415
(dp416
g184
S'self'
p417
sg186
(lp418
sbsg181
(i__main__
DelphiIdentAccess
p419
(dp420
g184
S'result'
p421
sg186
(lp422
sbsg188
(lp423
S'sublasses should override if needed'
p424
asbasbsg191
(lp425
sbsbsS'redocommand'
p426
(i__main__
DelphiMethodImplementation
p427
(dp428
g152
g103
sg14
g105
sg34
(lp429
sg154
(lp430
sg156
(lp431
sg158
(lp432
g160
asg161
(dp433
sg36
S'PdCommand'
p434
sg37
Nsg166
(lp435
sg41
I0
sg42
g63
sg168
(i__main__
DelphiBlock
p436
(dp437
g171
(idelphi
DelphiCompoundStatement
p438
(dp439
g174
(lp440
(i__main__
DelphiAssignStatement
p441
(dp442
g178
Nsg181
(i__main__
DelphiIdentAccess
p443
(dp444
g184
S'self'
p445
sg186
(lp446
(idelphi
DelphiFieldEndAccess
p447
(dp448
g315
S'doCommand'
p449
sbasbsbasg188
(lp450
S'sublass may override and call inherited doCommand'
p451
asbsg191
(lp452
sbsbsS'destroy'
p453
(i__main__
DelphiMethodImplementation
p454
(dp455
g152
g108
sg14
g110
sg34
(lp456
sg154
(lp457
sg156
(lp458
sg158
(lp459
g160
asg161
(dp460
sg36
S'PdCommand'
p461
sg37
Nsg166
(lp462
sg41
I0
sg42
g112
sg168
(i__main__
DelphiBlock
p463
(dp464
g171
(idelphi
DelphiCompoundStatement
p465
(dp466
g174
(lp467
(i__main__
DelphiAssignStatement
p468
(dp469
g178
Nsg181
(idelphi
DelphiInheritedCall
p470
(dp471
g184
S'destroy'
p472
sg243
Nsbsg188
(lp473
S'sublass could override'
p474
asbasbsg191
(lp475
sbsbsS'undocommand'
p476
(i__main__
DelphiMethodImplementation
p477
(dp478
g152
g114
sg14
g116
sg34
(lp479
sg154
(lp480
sg156
(lp481
sg158
(lp482
g160
asg161
(dp483
sg36
S'PdCommand'
p484
sg37
Nsg166
(lp485
sg41
I0
sg42
g63
sg168
(i__main__
DelphiBlock
p486
(dp487
g171
(idelphi
DelphiCompoundStatement
p488
(dp489
g174
(lp490
(i__main__
DelphiAssignStatement
p491
(dp492
g178
(i__main__
DelphiIdentAccess
p493
(dp494
g184
S'false'
p495
sg186
(lp496
sbsg181
(i__main__
DelphiIdentAccess
p497
(dp498
g184
S'self'
p499
sg186
(lp500
(idelphi
DelphiFieldEndAccess
p501
(dp502
g315
S'done'
p503
sbasbsba(idelphi
DelphiIfStatement
p504
(dp505
g319
(i__main__
DelphiIdentAccess
p506
(dp507
g184
S'commandChangesPlantFile'
p508
sg186
(lp509
sbsg324
Nsg325
(idelphi
DelphiIfStatement
p510
(dp511
g319
(idelphi
DelphiRelOp
p512
(dp513
g343
(i__main__
DelphiIdentAccess
p514
(dp515
g184
S'MainForm'
p516
sg186
(lp517
sbsg348
(idelphi
DelphiNilValue
p518
(dp519
bsg351
g352
sbsg324
Nsg325
(i__main__
DelphiAssignStatement
p520
(dp521
g178
Nsg181
(i__main__
DelphiIdentAccess
p522
(dp523
g184
S'MainForm'
p524
sg186
(lp525
(idelphi
DelphiFieldEndAccess
p526
(dp527
g315
S'setPlantFileChanged'
p528
sba(idelphi
DelphiFunctionEndAccess
p529
(dp530
g243
(lp531
(i__main__
DelphiIdentAccess
p532
(dp533
g184
S'plantFileChangedBeforeCommand'
p534
sg186
(lp535
sbasbasbsbsbsbasg188
(lp536
S'sublass should override and call inherited'
p537
asbsg191
(lp538
sbsbssS'propertyDeclarations'
p539
(dp540
sS'variableNamesInDeclaredOrder'
p541
(lp542
g26
ag24
ag20
ag22
asba(i__main__
DelphiClass
p543
(dp544
g17
(dp545
S'lastdonecommandindex'
p546
S'lastDoneCommandIndex'
p547
sS'commands'
p548
S'commands'
p549
sS'anchorpoint'
p550
S'anchorPoint'
p551
sS'previouspoint'
p552
S'previousPoint'
p553
sS'rightbuttondown'
p554
S'rightButtonDown'
p555
sS'objectundolimit'
p556
S'objectUndoLimit'
p557
sS'mousecommand'
p558
S'mouseCommand'
p559
sS'undolimit'
p560
S'undoLimit'
p561
ssg14
S'PdCommandList'
p562
sg28
(dp563
S'removecommand'
p564
(i__main__
DelphiMethodDeclaration
p565
(dp566
g14
S'removeCommand'
p567
sg34
(lp568
(i__main__
DelphiFormalParameter
p569
(dp570
g71
Nsg9
(lp571
S'aCommand'
p572
asg74
(i__main__
DelphiNamedType
p573
(dp574
g7
S'PdCommand'
p575
sg78
g1
sg79
Nsbsg80
Nsbasg36
g562
sg37
Nsg41
I0
sg42
g63
sbsS'docommand'
p576
(i__main__
DelphiMethodDeclaration
p577
(dp578
g14
S'doCommand'
p579
sg34
(lp580
(i__main__
DelphiFormalParameter
p581
(dp582
g71
Nsg9
(lp583
S'newCommand'
p584
asg74
(i__main__
DelphiNamedType
p585
(dp586
g7
S'PdCommand'
p587
sg78
g1
sg79
Nsbsg80
Nsbasg36
g562
sg37
Nsg41
I0
sg42
g63
sbsS'mouseup'
p588
(i__main__
DelphiMethodDeclaration
p589
(dp590
g14
S'mouseUp'
p591
sg34
(lp592
(i__main__
DelphiFormalParameter
p593
(dp594
g71
Nsg9
(lp595
S'point'
p596
asg74
(i__main__
DelphiNamedType
p597
(dp598
g7
S'TPoint'
p599
sg78
g1
sg79
Nsbsg80
Nsbasg36
g562
sg37
Nsg41
I0
sg42
g63
sbsS'destroy'
p600
(i__main__
DelphiMethodDeclaration
p601
(dp602
g14
S'destroy'
p603
sg34
(lp604
sg36
g562
sg37
Nsg41
I0
sg42
g112
sbsS'objectcountincommandlist'
p605
(i__main__
DelphiMethodDeclaration
p606
(dp607
g14
S'objectCountInCommandList'
p608
sg34
(lp609
sg36
g562
sg37
(i__main__
DelphiPrimitiveType
p610
(dp611
g7
g40
sbsg41
I0
sg42
g43
sbsS'filllistwithredoablestrings'
p612
(i__main__
DelphiMethodDeclaration
p613
(dp614
g14
S'fillListWithRedoableStrings'
p615
sg34
(lp616
(i__main__
DelphiFormalParameter
p617
(dp618
g71
Nsg9
(lp619
S'aList'
p620
asg74
(i__main__
DelphiNamedType
p621
(dp622
g7
S'TStringList'
p623
sg78
g1
sg79
Nsbsg80
Nsbasg36
g562
sg37
Nsg41
I0
sg42
g63
sbsS'create'
p624
(i__main__
DelphiMethodDeclaration
p625
(dp626
g14
S'create'
p627
sg34
(lp628
sg36
g562
sg37
Nsg41
I0
sg42
g57
sbsS'isredoenabled'
p629
(i__main__
DelphiMethodDeclaration
p630
(dp631
g14
S'isRedoEnabled'
p632
sg34
(lp633
sg36
g562
sg37
(i__main__
DelphiPrimitiveType
p634
(dp635
g7
g98
sbsg41
I0
sg42
g43
sbsS'lastcommanddone'
p636
(i__main__
DelphiMethodDeclaration
p637
(dp638
g14
S'lastCommandDone'
p639
sg34
(lp640
sg36
g562
sg37
(i__main__
DelphiNamedType
p641
(dp642
g7
S'PdCommand'
p643
sg78
g1
sg79
Nsbsg41
I0
sg42
g43
sbsS'redodescription'
p644
(i__main__
DelphiMethodDeclaration
p645
(dp646
g14
S'redoDescription'
p647
sg34
(lp648
sg36
g562
sg37
(i__main__
DelphiPrimitiveType
p649
(dp650
g7
g51
sbsg41
I0
sg42
g43
sbsS'redolast'
p651
(i__main__
DelphiMethodDeclaration
p652
(dp653
g14
S'redoLast'
p654
sg34
(lp655
sg36
g562
sg37
Nsg41
I0
sg42
g63
sbsS'mousemove'
p656
(i__main__
DelphiMethodDeclaration
p657
(dp658
g14
S'mouseMove'
p659
sg34
(lp660
(i__main__
DelphiFormalParameter
p661
(dp662
g71
Nsg9
(lp663
S'point'
p664
asg74
(i__main__
DelphiNamedType
p665
(dp666
g7
S'TPoint'
p667
sg78
g1
sg79
Nsbsg80
Nsbasg36
g562
sg37
Nsg41
I0
sg42
g63
sbsS'setnewobjectundolimit'
p668
(i__main__
DelphiMethodDeclaration
p669
(dp670
g14
S'setNewObjectUndoLimit'
p671
sg34
(lp672
(i__main__
DelphiFormalParameter
p673
(dp674
g71
Nsg9
(lp675
S'newObjectLimit'
p676
asg74
(i__main__
DelphiPrimitiveType
p677
(dp678
g7
g40
sbsg80
Nsbasg36
g562
sg37
Nsg41
I0
sg42
g63
sbsS'mousedown'
p679
(i__main__
DelphiMethodDeclaration
p680
(dp681
g14
S'mouseDown'
p682
sg34
(lp683
(i__main__
DelphiFormalParameter
p684
(dp685
g71
Nsg9
(lp686
S'newCommand'
p687
asg74
(i__main__
DelphiNamedType
p688
(dp689
g7
S'PdCommand'
p690
sg78
g1
sg79
Nsbsg80
Nsba(i__main__
DelphiFormalParameter
p691
(dp692
g71
Nsg9
(lp693
S'point'
p694
asg74
(i__main__
DelphiNamedType
p695
(dp696
g7
S'TPoint'
p697
sg78
g1
sg79
Nsbsg80
Nsbasg36
g562
sg37
(i__main__
DelphiPrimitiveType
p698
(dp699
g7
g98
sbsg41
I0
sg42
g43
sbsS'freecommandsaboveobjectlimit'
p700
(i__main__
DelphiMethodDeclaration
p701
(dp702
g14
S'freeCommandsAboveObjectLimit'
p703
sg34
(lp704
(i__main__
DelphiFormalParameter
p705
(dp706
g71
Nsg9
(lp707
S'objectLimit'
p708
asg74
(i__main__
DelphiPrimitiveType
p709
(dp710
g7
g40
sbsg80
Nsbasg36
g562
sg37
Nsg41
I0
sg42
g63
sbsS'undodescription'
p711
(i__main__
DelphiMethodDeclaration
p712
(dp713
g14
S'undoDescription'
p714
sg34
(lp715
sg36
g562
sg37
(i__main__
DelphiPrimitiveType
p716
(dp717
g7
g51
sbsg41
I0
sg42
g43
sbsS'filllistwithundoablestrings'
p718
(i__main__
DelphiMethodDeclaration
p719
(dp720
g14
S'fillListWithUndoableStrings'
p721
sg34
(lp722
(i__main__
DelphiFormalParameter
p723
(dp724
g71
Nsg9
(lp725
S'aList'
p726
asg74
(i__main__
DelphiNamedType
p727
(dp728
g7
S'TStringList'
p729
sg78
g1
sg79
Nsbsg80
Nsbasg36
g562
sg37
Nsg41
I0
sg42
g63
sbsS'isundoenabled'
p730
(i__main__
DelphiMethodDeclaration
p731
(dp732
g14
S'isUndoEnabled'
p733
sg34
(lp734
sg36
g562
sg37
(i__main__
DelphiPrimitiveType
p735
(dp736
g7
g98
sbsg41
I0
sg42
g43
sbsS'freecommandsabovelimit'
p737
(i__main__
DelphiMethodDeclaration
p738
(dp739
g14
S'freeCommandsAboveLimit'
p740
sg34
(lp741
(i__main__
DelphiFormalParameter
p742
(dp743
g71
Nsg9
(lp744
S'theLimit'
p745
asg74
(i__main__
DelphiPrimitiveType
p746
(dp747
g7
g40
sbsg80
Nsbasg36
g562
sg37
Nsg41
I0
sg42
g63
sbsS'command'
p748
(i__main__
DelphiMethodDeclaration
p749
(dp750
g14
S'command'
p751
sg34
(lp752
(i__main__
DelphiFormalParameter
p753
(dp754
g71
Nsg9
(lp755
S'index'
p756
asg74
(i__main__
DelphiPrimitiveType
p757
(dp758
g7
g40
sbsg80
Nsbasg36
g562
sg37
(i__main__
DelphiNamedType
p759
(dp760
g7
S'PdCommand'
p761
sg78
g1
sg79
Nsbsg41
I0
sg42
g43
sbsS'setnewundolimit'
p762
(i__main__
DelphiMethodDeclaration
p763
(dp764
g14
S'setNewUndoLimit'
p765
sg34
(lp766
(i__main__
DelphiFormalParameter
p767
(dp768
g71
Nsg9
(lp769
S'newLimit'
p770
asg74
(i__main__
DelphiPrimitiveType
p771
(dp772
g7
g40
sbsg80
Nsbasg36
g562
sg37
Nsg41
I0
sg42
g63
sbsS'didmousemove'
p773
(i__main__
DelphiMethodDeclaration
p774
(dp775
g14
S'didMouseMove'
p776
sg34
(lp777
(i__main__
DelphiFormalParameter
p778
(dp779
g71
Nsg9
(lp780
S'point'
p781
asg74
(i__main__
DelphiNamedType
p782
(dp783
g7
S'TPoint'
p784
sg78
g1
sg79
Nsbsg80
Nsbasg36
g562
sg37
(i__main__
DelphiPrimitiveType
p785
(dp786
g7
g98
sbsg41
I0
sg42
g43
sbsS'undolast'
p787
(i__main__
DelphiMethodDeclaration
p788
(dp789
g14
S'undoLast'
p790
sg34
(lp791
sg36
g562
sg37
Nsg41
I0
sg42
g63
sbssg118
(lp792
(i__main__
DelphiNamedType
p793
(dp794
g7
S'TObject'
p795
sg78
g1
sg79
Nsbasg123
(dp796
S'lastdonecommandindex'
p797
(i__main__
DelphiPrimitiveType
p798
(dp799
g7
g40
sbsS'commands'
p800
(i__main__
DelphiNamedType
p801
(dp802
g7
S'TListCollection'
p803
sg78
g1
sg79
NsbsS'anchorpoint'
p804
(i__main__
DelphiNamedType
p805
(dp806
g7
S'TPoint'
p807
sg78
g1
sg79
NsbsS'previouspoint'
p808
(i__main__
DelphiNamedType
p809
(dp810
g7
S'TPoint'
p811
sg78
g1
sg79
NsbsS'rightbuttondown'
p812
(i__main__
DelphiPrimitiveType
p813
(dp814
g7
g98
sbsS'objectundolimit'
p815
(i__main__
DelphiPrimitiveType
p816
(dp817
g7
g40
sbsS'mousecommand'
p818
(i__main__
DelphiNamedType
p819
(dp820
g7
S'PdCommand'
p821
sg78
g1
sg79
NsbsS'undolimit'
p822
g816
ssg137
(lp823
S'create'
p824
aS'destroy'
p825
aS'command'
p826
aS'setnewundolimit'
p827
aS'setnewobjectundolimit'
p828
aS'freecommandsabovelimit'
p829
aS'freecommandsaboveobjectlimit'
p830
aS'objectcountincommandlist'
p831
aS'docommand'
p832
aS'mousedown'
p833
aS'mousemove'
p834
aS'mouseup'
p835
aS'didmousemove'
p836
aS'isundoenabled'
p837
aS'isredoenabled'
p838
aS'undodescription'
p839
aS'redodescription'
p840
aS'undolast'
p841
aS'redolast'
p842
aS'filllistwithundoablestrings'
p843
aS'filllistwithredoablestrings'
p844
aS'lastcommanddone'
p845
aS'removecommand'
p846
asg147
(dp847
S'objectcountincommandlist'
p848
(i__main__
DelphiMethodImplementation
p849
(dp850
g152
g606
sg14
g608
sg34
(lp851
sg154
(lp852
sg156
(lp853
sg158
(lp854
g160
asg161
(dp855
sg36
S'PdCommandList'
p856
sg37
(i__main__
DelphiPrimitiveType
p857
(dp858
g7
g40
sbsg166
(lp859
sg41
I0
sg42
g43
sg168
(i__main__
DelphiBlock
p860
(dp861
g171
(idelphi
DelphiCompoundStatement
p862
(dp863
g174
(lp864
(i__main__
DelphiAssignStatement
p865
(dp866
g178
(idelphi
DelphiIntegerValue
p867
(dp868
g51
S'0'
sbsg181
(i__main__
DelphiIdentAccess
p869
(dp870
g184
S'result'
p871
sg186
(lp872
sbsba(idelphi
DelphiIfStatement
p873
(dp874
g319
(idelphi
DelphiRelOp
p875
(dp876
g343
(i__main__
DelphiIdentAccess
p877
(dp878
g184
S'commands'
p879
sg186
(lp880
(idelphi
DelphiFieldEndAccess
p881
(dp882
g315
S'count'
p883
sbasbsg348
(idelphi
DelphiIntegerValue
p884
(dp885
g51
S'0'
sbsg351
S'<='
p886
sbsg324
Nsg325
(i__main__
DelphiExitStatement
p887
(dp888
S'proceduralOrMethodImplementation'
p889
g849
sbsba(idelphi
DelphiForStatement
p890
(dp891
S'variable'
p892
S'i'
sS'finalValue'
p893
(idelphi
DelphiAddOp
p894
(dp895
S'addOp'
p896
S'-'
sS'term2'
p897
(idelphi
DelphiIntegerValue
p898
(dp899
g51
S'1'
sbsS'term1'
p900
(i__main__
DelphiIdentAccess
p901
(dp902
g184
S'commands'
p903
sg186
(lp904
(idelphi
DelphiFieldEndAccess
p905
(dp906
g315
S'count'
p907
sbasbsbsS'direction'
p908
S'to'
p909
sg71
(idelphi
DelphiIntegerValue
p910
(dp911
g51
S'0'
sbsS'statement'
p912
(i__main__
DelphiAssignStatement
p913
(dp914
g178
(idelphi
DelphiAddOp
p915
(dp916
g896
S'+'
sg897
(i__main__
DelphiIdentAccess
p917
(dp918
g184
S'command'
p919
sg186
(lp920
(idelphi
DelphiFunctionEndAccess
p921
(dp922
g243
(lp923
(i__main__
DelphiIdentAccess
p924
(dp925
g184
S'i'
sg186
(lp926
sbasba(idelphi
DelphiFieldEndAccess
p927
(dp928
g315
S'numberOfStoredLargeObjects'
p929
sbasbsg900
(i__main__
DelphiIdentAccess
p930
(dp931
g184
S'result'
p932
sg186
(lp933
sbsbsg181
(i__main__
DelphiIdentAccess
p934
(dp935
g184
S'result'
p936
sg186
(lp937
sbsbsbasbsg191
(lp938
(i__main__
DelphiVarSection
p939
(dp940
S'atTopLevel'
p941
I0
sS'varDeclList'
p942
(lp943
(idelphi
DelphiVarDecl
p944
(dp945
S'constExpression'
p946
NsS'identList'
p947
(lp948
S'i'
asg74
(i__main__
DelphiPrimitiveType
p949
(dp950
g7
g40
sbsbasbasbsbsS'docommand'
p951
(i__main__
DelphiMethodImplementation
p952
(dp953
g152
g577
sg14
g579
sg34
(lp954
(i__main__
DelphiFormalParameter
p955
(dp956
g71
Nsg9
(lp957
S'newCommand'
p958
asg74
(i__main__
DelphiNamedType
p959
(dp960
g7
S'PdCommand'
p961
sg78
g1
sg79
Nsbsg80
Nsbasg154
(lp962
sg156
(lp963
sg158
(lp964
g160
ag958
asg161
(dp965
g958
g959
ssg36
S'PdCommandList'
p966
sg37
Nsg166
(lp967
sg41
I0
sg42
g63
sg168
(i__main__
DelphiBlock
p968
(dp969
g171
(idelphi
DelphiCompoundStatement
p970
(dp971
g174
(lp972
(idelphi
DelphiIfStatement
p973
(dp974
g319
(i__main__
DelphiIdentAccess
p975
(dp976
g184
S'isRedoEnabled'
p977
sg186
(lp978
sbsg324
Nsg325
(idelphi
DelphiForStatement
p979
(dp980
g892
S'i'
sg893
(idelphi
DelphiAddOp
p981
(dp982
g896
S'+'
sg897
(idelphi
DelphiIntegerValue
p983
(dp984
g51
S'1'
sbsg900
(i__main__
DelphiIdentAccess
p985
(dp986
g184
S'lastDoneCommandIndex'
p987
sg186
(lp988
sbsbsg908
S'downto'
p989
sg71
(idelphi
DelphiAddOp
p990
(dp991
g896
S'-'
sg897
(idelphi
DelphiIntegerValue
p992
(dp993
g51
S'1'
sbsg900
(i__main__
DelphiIdentAccess
p994
(dp995
g184
S'commands'
p996
sg186
(lp997
(idelphi
DelphiFieldEndAccess
p998
(dp999
g315
S'count'
p1000
sbasbsbsg912
(idelphi
DelphiCompoundStatement
p1001
(dp1002
g174
(lp1003
(i__main__
DelphiAssignStatement
p1004
(dp1005
g178
(i__main__
DelphiIdentAccess
p1006
(dp1007
g184
S'command'
p1008
sg186
(lp1009
(idelphi
DelphiFunctionEndAccess
p1010
(dp1011
g243
(lp1012
(i__main__
DelphiIdentAccess
p1013
(dp1014
g184
S'i'
sg186
(lp1015
sbasbasbsg181
(i__main__
DelphiIdentAccess
p1016
(dp1017
g184
S'theCommand'
p1018
sg186
(lp1019
sbsg188
(lp1020
S'remove any extra commands after the current'
p1021
aS'do this first to free memory for command'
p1022
asba(i__main__
DelphiAssignStatement
p1023
(dp1024
g178
Nsg181
(i__main__
DelphiIdentAccess
p1025
(dp1026
g184
S'commands'
p1027
sg186
(lp1028
(idelphi
DelphiFieldEndAccess
p1029
(dp1030
g315
S'delete'
p1031
sba(idelphi
DelphiFunctionEndAccess
p1032
(dp1033
g243
(lp1034
(i__main__
DelphiIdentAccess
p1035
(dp1036
g184
S'i'
sg186
(lp1037
sbasbasbsba(i__main__
DelphiAssignStatement
p1038
(dp1039
g178
Nsg181
(i__main__
DelphiIdentAccess
p1040
(dp1041
g184
S'theCommand'
p1042
sg186
(lp1043
(idelphi
DelphiFieldEndAccess
p1044
(dp1045
g315
S'free'
p1046
sbasbsbasbsbsba(i__main__
DelphiAssignStatement
p1047
(dp1048
g178
Nsg181
(i__main__
DelphiIdentAccess
p1049
(dp1050
g184
S'self'
p1051
sg186
(lp1052
(idelphi
DelphiFieldEndAccess
p1053
(dp1054
g315
S'freeCommandsAboveObjectLimit'
p1055
sba(idelphi
DelphiFunctionEndAccess
p1056
(dp1057
g243
(lp1058
(idelphi
DelphiAddOp
p1059
(dp1060
g896
S'-'
sg897
(idelphi
DelphiIntegerValue
p1061
(dp1062
g51
S'1'
sbsg900
(i__main__
DelphiIdentAccess
p1063
(dp1064
g184
S'objectUndoLimit'
p1065
sg186
(lp1066
sbsbasbasbsg188
(lp1067
S' first see if there are too many objects and if so, scroll them '
p1068
asba(i__main__
DelphiAssignStatement
p1069
(dp1070
g178
Nsg181
(i__main__
DelphiIdentAccess
p1071
(dp1072
g184
S'self'
p1073
sg186
(lp1074
(idelphi
DelphiFieldEndAccess
p1075
(dp1076
g315
S'freeCommandsAboveLimit'
p1077
sba(idelphi
DelphiFunctionEndAccess
p1078
(dp1079
g243
(lp1080
(idelphi
DelphiAddOp
p1081
(dp1082
g896
S'-'
sg897
(idelphi
DelphiIntegerValue
p1083
(dp1084
g51
S'1'
sbsg900
(i__main__
DelphiIdentAccess
p1085
(dp1086
g184
S'undoLimit'
p1087
sg186
(lp1088
sbsbasbasbsg188
(lp1089
S'see if too many commands are stored and if so, scroll them'
p1090
asba(i__main__
DelphiAssignStatement
p1091
(dp1092
g178
Nsg181
(i__main__
DelphiIdentAccess
p1093
(dp1094
g184
S'newCommand'
p1095
sg186
(lp1096
(idelphi
DelphiFieldEndAccess
p1097
(dp1098
g315
S'doCommand'
p1099
sbasbsg188
(lp1100
S'now do this command'
p1101
aS"may fail in which case won't add"
p1102
asba(i__main__
DelphiAssignStatement
p1103
(dp1104
g178
Nsg181
(i__main__
DelphiIdentAccess
p1105
(dp1106
g184
S'commands'
p1107
sg186
(lp1108
(idelphi
DelphiFieldEndAccess
p1109
(dp1110
g315
S'add'
p1111
sba(idelphi
DelphiFunctionEndAccess
p1112
(dp1113
g243
(lp1114
(i__main__
DelphiIdentAccess
p1115
(dp1116
g184
S'newCommand'
p1117
sg186
(lp1118
sbasbasbsba(i__main__
DelphiIncOrDecStatement
p1119
(dp1120
S'incOrDecString'
p1121
S'inc'
p1122
sS'incrementExpression'
p1123
Nsg181
(i__main__
DelphiIdentAccess
p1124
(dp1125
g184
S'lastDoneCommandIndex'
p1126
sg186
(lp1127
sbsbasbsg191
(lp1128
(i__main__
DelphiVarSection
p1129
(dp1130
g941
I0
sg942
(lp1131
(idelphi
DelphiVarDecl
p1132
(dp1133
g946
Nsg947
(lp1134
S'i'
asg74
(i__main__
DelphiPrimitiveType
p1135
(dp1136
g7
g40
sbsba(idelphi
DelphiVarDecl
p1137
(dp1138
g946
Nsg947
(lp1139
S'theCommand'
p1140
asg74
(i__main__
DelphiNamedType
p1141
(dp1142
g7
S'PdCommand'
p1143
sg78
g1
sg79
NsbsbasbasbsbsS'mouseup'
p1144
(i__main__
DelphiMethodImplementation
p1145
(dp1146
g152
g589
sg14
g591
sg34
(lp1147
(i__main__
DelphiFormalParameter
p1148
(dp1149
g71
Nsg9
(lp1150
S'point'
p1151
asg74
(i__main__
DelphiNamedType
p1152
(dp1153
g7
S'TPoint'
p1154
sg78
g1
sg79
Nsbsg80
Nsbasg154
(lp1155
sg156
(lp1156
sg158
(lp1157
g160
ag1151
asg161
(dp1158
g1151
g1152
ssg36
S'PdCommandList'
p1159
sg37
Nsg166
(lp1160
sg41
I0
sg42
g63
sg168
(i__main__
DelphiBlock
p1161
(dp1162
g171
(idelphi
DelphiCompoundStatement
p1163
(dp1164
g174
(lp1165
(i__main__
DelphiAssignStatement
p1166
(dp1167
g178
(i__main__
DelphiIdentAccess
p1168
(dp1169
g184
S'mouseCommand'
p1170
sg186
(lp1171
sbsg181
(i__main__
DelphiIdentAccess
p1172
(dp1173
g184
S'nextMouseCommand'
p1174
sg186
(lp1175
sbsba(i__main__
DelphiAssignStatement
p1176
(dp1177
g178
(idelphi
DelphiNilValue
p1178
(dp1179
bsg181
(i__main__
DelphiIdentAccess
p1180
(dp1181
g184
S'mouseCommand'
p1182
sg186
(lp1183
sbsba(idelphi
DelphiIfStatement
p1184
(dp1185
g319
(idelphi
DelphiRelOp
p1186
(dp1187
g343
(i__main__
DelphiIdentAccess
p1188
(dp1189
g184
S'nextMouseCommand'
p1190
sg186
(lp1191
sbsg348
(idelphi
DelphiNilValue
p1192
(dp1193
bsg351
g352
sbsg324
Nsg325
(idelphi
DelphiCompoundStatement
p1194
(dp1195
g174
(lp1196
(i__main__
DelphiAssignStatement
p1197
(dp1198
g178
(i__main__
DelphiIdentAccess
p1199
(dp1200
g184
S'nextMouseCommand'
p1201
sg186
(lp1202
(idelphi
DelphiFieldEndAccess
p1203
(dp1204
g315
S'trackMouse'
p1205
sba(idelphi
DelphiFunctionEndAccess
p1206
(dp1207
g243
(lp1208
(i__main__
DelphiIdentAccess
p1209
(dp1210
g184
S'trackRelease'
p1211
sg186
(lp1212
sba(i__main__
DelphiIdentAccess
p1213
(dp1214
g184
S'anchorPoint'
p1215
sg186
(lp1216
sba(i__main__
DelphiIdentAccess
p1217
(dp1218
g184
S'previousPoint'
p1219
sg186
(lp1220
sba(i__main__
DelphiIdentAccess
p1221
(dp1222
g184
S'point'
p1223
sg186
(lp1224
sba(i__main__
DelphiIdentAccess
p1225
(dp1226
g184
S'self'
p1227
sg186
(lp1228
(idelphi
DelphiFieldEndAccess
p1229
(dp1230
g315
S'didMouseMove'
p1231
sba(idelphi
DelphiFunctionEndAccess
p1232
(dp1233
g243
(lp1234
(i__main__
DelphiIdentAccess
p1235
(dp1236
g184
S'point'
p1237
sg186
(lp1238
sbasbasba(i__main__
DelphiIdentAccess
p1239
(dp1240
g184
S'rightButtonDown'
p1241
sg186
(lp1242
sbasbasbsg181
(i__main__
DelphiIdentAccess
p1243
(dp1244
g184
S'nextMouseCommand'
p1245
sg186
(lp1246
sbsba(idelphi
DelphiIfStatement
p1247
(dp1248
g319
(idelphi
DelphiRelOp
p1249
(dp1250
g343
(i__main__
DelphiIdentAccess
p1251
(dp1252
g184
S'nextMouseCommand'
p1253
sg186
(lp1254
sbsg348
(idelphi
DelphiNilValue
p1255
(dp1256
bsg351
g352
sbsg324
Nsg325
(i__main__
DelphiAssignStatement
p1257
(dp1258
g178
Nsg181
(i__main__
DelphiIdentAccess
p1259
(dp1260
g184
S'doCommand'
p1261
sg186
(lp1262
(idelphi
DelphiFunctionEndAccess
p1263
(dp1264
g243
(lp1265
(i__main__
DelphiIdentAccess
p1266
(dp1267
g184
S'nextMouseCommand'
p1268
sg186
(lp1269
sbasbasbsbsbasbsbasbsg191
(lp1270
(i__main__
DelphiVarSection
p1271
(dp1272
g941
I0
sg942
(lp1273
(idelphi
DelphiVarDecl
p1274
(dp1275
g946
Nsg947
(lp1276
S'nextMouseCommand'
p1277
asg74
(i__main__
DelphiNamedType
p1278
(dp1279
g7
S'PdCommand'
p1280
sg78
g1
sg79
NsbsbasbasbsbsS'destroy'
p1281
(i__main__
DelphiMethodImplementation
p1282
(dp1283
g152
g601
sg14
g603
sg34
(lp1284
sg154
(lp1285
sg156
(lp1286
sg158
(lp1287
g160
asg161
(dp1288
sg36
S'PdCommandList'
p1289
sg37
Nsg166
(lp1290
sg41
I0
sg42
g112
sg168
(i__main__
DelphiBlock
p1291
(dp1292
g171
(idelphi
DelphiCompoundStatement
p1293
(dp1294
g174
(lp1295
(i__main__
DelphiAssignStatement
p1296
(dp1297
g178
Nsg181
(i__main__
DelphiIdentAccess
p1298
(dp1299
g184
S'commands'
p1300
sg186
(lp1301
(idelphi
DelphiFieldEndAccess
p1302
(dp1303
g315
S'free'
p1304
sbasbsba(i__main__
DelphiAssignStatement
p1305
(dp1306
g178
(idelphi
DelphiNilValue
p1307
(dp1308
bsg181
(i__main__
DelphiIdentAccess
p1309
(dp1310
g184
S'commands'
p1311
sg186
(lp1312
sbsba(i__main__
DelphiAssignStatement
p1313
(dp1314
g178
Nsg181
(idelphi
DelphiInheritedCall
p1315
(dp1316
g184
S'destroy'
p1317
sg243
Nsbsg188
(lp1318
S'if mouseCoOmmand <> nil then error condition - ignoring for now - not released'
p1319
aS'could only happend if quitting somehow in middle of action'
p1320
asbasbsg191
(lp1321
sbsbsS'removecommand'
p1322
(i__main__
DelphiMethodImplementation
p1323
(dp1324
g152
g565
sg14
g567
sg34
(lp1325
(i__main__
DelphiFormalParameter
p1326
(dp1327
g71
Nsg9
(lp1328
S'aCommand'
p1329
asg74
(i__main__
DelphiNamedType
p1330
(dp1331
g7
S'PdCommand'
p1332
sg78
g1
sg79
Nsbsg80
Nsbasg154
(lp1333
sg156
(lp1334
sg158
(lp1335
g160
ag1329
asg161
(dp1336
g1329
g1330
ssg36
S'PdCommandList'
p1337
sg37
Nsg166
(lp1338
sg41
I0
sg42
g63
sg168
(i__main__
DelphiBlock
p1339
(dp1340
g171
(idelphi
DelphiCompoundStatement
p1341
(dp1342
g174
(lp1343
(idelphi
DelphiIfStatement
p1344
(dp1345
g319
(i__main__
DelphiIdentAccess
p1346
(dp1347
g184
S'aCommand'
p1348
sg186
(lp1349
(idelphi
DelphiFieldEndAccess
p1350
(dp1351
g315
S'done'
p1352
sbasbsg324
Nsg325
(idelphi
DelphiRaiseStatement
p1353
(dp1354
g319
(i__main__
DelphiIdentAccess
p1355
(dp1356
g184
S'Exception'
p1357
sg186
(lp1358
(idelphi
DelphiFieldEndAccess
p1359
(dp1360
g315
S'create'
p1361
sba(idelphi
DelphiFunctionEndAccess
p1362
(dp1363
g243
(lp1364
(idelphi
DelphiStringAccess
p1365
(dp1366
g186
(lp1367
sg51
(idelphi
DelphiStringValue
p1368
(dp1369
g51
S'Problem: Command not undone; in PdCommandList.removeCommand.'
p1370
sbsbasbasbsg188
(lp1371
S' assume this command has been undone previously '
p1372
asbsba(i__main__
DelphiAssignStatement
p1373
(dp1374
g178
Nsg181
(i__main__
DelphiIdentAccess
p1375
(dp1376
g184
S'commands'
p1377
sg186
(lp1378
(idelphi
DelphiFieldEndAccess
p1379
(dp1380
g315
S'remove'
p1381
sba(idelphi
DelphiFunctionEndAccess
p1382
(dp1383
g243
(lp1384
(i__main__
DelphiIdentAccess
p1385
(dp1386
g184
S'aCommand'
p1387
sg186
(lp1388
sbasbasbsbasbsg191
(lp1389
sbsbsS'filllistwithredoablestrings'
p1390
(i__main__
DelphiMethodImplementation
p1391
(dp1392
g152
g613
sg14
g615
sg34
(lp1393
(i__main__
DelphiFormalParameter
p1394
(dp1395
g71
Nsg9
(lp1396
S'aList'
p1397
asg74
(i__main__
DelphiNamedType
p1398
(dp1399
g7
S'TStringList'
p1400
sg78
g1
sg79
Nsbsg80
Nsbasg154
(lp1401
sg156
(lp1402
sg158
(lp1403
g160
ag1397
asg161
(dp1404
g1397
g1398
ssg36
S'PdCommandList'
p1405
sg37
Nsg166
(lp1406
sg41
I0
sg42
g63
sg168
(i__main__
DelphiBlock
p1407
(dp1408
g171
(idelphi
DelphiCompoundStatement
p1409
(dp1410
g174
(lp1411
(idelphi
DelphiIfStatement
p1412
(dp1413
g319
(idelphi
DelphiRelOp
p1414
(dp1415
g343
(i__main__
DelphiIdentAccess
p1416
(dp1417
g184
S'aList'
p1418
sg186
(lp1419
sbsg348
(idelphi
DelphiNilValue
p1420
(dp1421
bsg351
S'='
sbsg324
Nsg325
(i__main__
DelphiExitStatement
p1422
(dp1423
g889
g1391
sbsba(idelphi
DelphiIfStatement
p1424
(dp1425
g319
(idelphi
DelphiRelOp
p1426
(dp1427
g343
(i__main__
DelphiIdentAccess
p1428
(dp1429
g184
S'lastDoneCommandIndex'
p1430
sg186
(lp1431
sbsg348
(idelphi
DelphiNestedExpressionListAccess
p1432
(dp1433
g186
(lp1434
sg243
(lp1435
(idelphi
DelphiAddOp
p1436
(dp1437
g896
S'-'
sg897
(idelphi
DelphiIntegerValue
p1438
(dp1439
g51
S'1'
sbsg900
(i__main__
DelphiIdentAccess
p1440
(dp1441
g184
S'commands'
p1442
sg186
(lp1443
(idelphi
DelphiFieldEndAccess
p1444
(dp1445
g315
S'count'
p1446
sbasbsbasbsg351
S'<'
sbsg324
Nsg325
(idelphi
DelphiForStatement
p1447
(dp1448
g892
S'i'
sg893
(idelphi
DelphiAddOp
p1449
(dp1450
g896
S'-'
sg897
(idelphi
DelphiIntegerValue
p1451
(dp1452
g51
S'1'
sbsg900
(i__main__
DelphiIdentAccess
p1453
(dp1454
g184
S'commands'
p1455
sg186
(lp1456
(idelphi
DelphiFieldEndAccess
p1457
(dp1458
g315
S'count'
p1459
sbasbsbsg908
g909
sg71
(idelphi
DelphiAddOp
p1460
(dp1461
g896
S'+'
sg897
(idelphi
DelphiIntegerValue
p1462
(dp1463
g51
S'1'
sbsg900
(i__main__
DelphiIdentAccess
p1464
(dp1465
g184
S'lastDoneCommandIndex'
p1466
sg186
(lp1467
sbsbsg912
(i__main__
DelphiAssignStatement
p1468
(dp1469
g178
Nsg181
(i__main__
DelphiIdentAccess
p1470
(dp1471
g184
S'aList'
p1472
sg186
(lp1473
(idelphi
DelphiFieldEndAccess
p1474
(dp1475
g315
S'add'
p1476
sba(idelphi
DelphiFunctionEndAccess
p1477
(dp1478
g243
(lp1479
(i__main__
DelphiIdentAccess
p1480
(dp1481
g184
S'capitalize'
p1482
sg186
(lp1483
(idelphi
DelphiFunctionEndAccess
p1484
(dp1485
g243
(lp1486
(i__main__
DelphiIdentAccess
p1487
(dp1488
g184
S'command'
p1489
sg186
(lp1490
(idelphi
DelphiFunctionEndAccess
p1491
(dp1492
g243
(lp1493
(i__main__
DelphiIdentAccess
p1494
(dp1495
g184
S'i'
sg186
(lp1496
sbasba(idelphi
DelphiFieldEndAccess
p1497
(dp1498
g315
S'description'
p1499
sbasbasbasbasbasbsbsbsbasbsg191
(lp1500
(i__main__
DelphiVarSection
p1501
(dp1502
g941
I0
sg942
(lp1503
(idelphi
DelphiVarDecl
p1504
(dp1505
g946
Nsg947
(lp1506
S'i'
asg74
(i__main__
DelphiPrimitiveType
p1507
(dp1508
g7
S'integer'
p1509
sbsbasbasbsbsS'create'
p1510
(i__main__
DelphiMethodImplementation
p1511
(dp1512
g152
g625
sg14
g627
sg34
(lp1513
sg154
(lp1514
sg156
(lp1515
sg158
(lp1516
g160
asg161
(dp1517
sg36
S'PdCommandList'
p1518
sg37
Nsg166
(lp1519
sg41
I0
sg42
g57
sg168
(i__main__
DelphiBlock
p1520
(dp1521
g171
(idelphi
DelphiCompoundStatement
p1522
(dp1523
g174
(lp1524
(i__main__
DelphiAssignStatement
p1525
(dp1526
g178
Nsg181
(idelphi
DelphiInheritedCall
p1527
(dp1528
g184
S'create'
p1529
sg243
Nsbsba(i__main__
DelphiAssignStatement
p1530
(dp1531
g178
(i__main__
DelphiIdentAccess
p1532
(dp1533
g184
S'TListCollection'
p1534
sg186
(lp1535
(idelphi
DelphiFieldEndAccess
p1536
(dp1537
g315
S'create'
p1538
sbasbsg181
(i__main__
DelphiIdentAccess
p1539
(dp1540
g184
S'commands'
p1541
sg186
(lp1542
sbsba(i__main__
DelphiAssignStatement
p1543
(dp1544
g178
(idelphi
DelphiSign
p1545
(dp1546
S'factor'
p1547
(idelphi
DelphiIntegerValue
p1548
(dp1549
g51
S'1'
sbsS'sign'
p1550
S'-'
sbsg181
(i__main__
DelphiIdentAccess
p1551
(dp1552
g184
S'lastDoneCommandIndex'
p1553
sg186
(lp1554
sbsba(i__main__
DelphiAssignStatement
p1555
(dp1556
g178
(idelphi
DelphiIntegerValue
p1557
(dp1558
g51
S'50'
p1559
sbsg181
(i__main__
DelphiIdentAccess
p1560
(dp1561
g184
S'undoLimit'
p1562
sg186
(lp1563
sbsba(i__main__
DelphiAssignStatement
p1564
(dp1565
g178
(idelphi
DelphiIntegerValue
p1566
(dp1567
g51
S'10'
p1568
sbsg181
(i__main__
DelphiIdentAccess
p1569
(dp1570
g184
S'objectUndoLimit'
p1571
sg186
(lp1572
sbsbasbsg191
(lp1573
sbsg188
(lp1574
S'PdCommandList'
p1575
asbsS'isredoenabled'
p1576
(i__main__
DelphiMethodImplementation
p1577
(dp1578
g152
g630
sg14
g632
sg34
(lp1579
sg154
(lp1580
sg156
(lp1581
sg158
(lp1582
g160
asg161
(dp1583
sg36
S'PdCommandList'
p1584
sg37
(i__main__
DelphiPrimitiveType
p1585
(dp1586
g7
g98
sbsg166
(lp1587
sg41
I0
sg42
g43
sg168
(i__main__
DelphiBlock
p1588
(dp1589
g171
(idelphi
DelphiCompoundStatement
p1590
(dp1591
g174
(lp1592
(i__main__
DelphiAssignStatement
p1593
(dp1594
g178
(idelphi
DelphiRelOp
p1595
(dp1596
g343
(i__main__
DelphiIdentAccess
p1597
(dp1598
g184
S'lastDoneCommandIndex'
p1599
sg186
(lp1600
sbsg348
(idelphi
DelphiNestedExpressionListAccess
p1601
(dp1602
g186
(lp1603
sg243
(lp1604
(idelphi
DelphiAddOp
p1605
(dp1606
g896
S'-'
sg897
(idelphi
DelphiIntegerValue
p1607
(dp1608
g51
S'1'
sbsg900
(i__main__
DelphiIdentAccess
p1609
(dp1610
g184
S'commands'
p1611
sg186
(lp1612
(idelphi
DelphiFieldEndAccess
p1613
(dp1614
g315
S'count'
p1615
sbasbsbasbsg351
S'<'
sbsg181
(i__main__
DelphiIdentAccess
p1616
(dp1617
g184
S'result'
p1618
sg186
(lp1619
sbsbasbsg191
(lp1620
sbsbsS'lastcommanddone'
p1621
(i__main__
DelphiMethodImplementation
p1622
(dp1623
g152
g637
sg14
g639
sg34
(lp1624
sg154
(lp1625
sg156
(lp1626
sg158
(lp1627
g160
asg161
(dp1628
sg36
S'PdCommandList'
p1629
sg37
(i__main__
DelphiNamedType
p1630
(dp1631
g7
S'PdCommand'
p1632
sg78
g1
sg79
Nsbsg166
(lp1633
sg41
I0
sg42
g43
sg168
(i__main__
DelphiBlock
p1634
(dp1635
g171
(idelphi
DelphiCompoundStatement
p1636
(dp1637
g174
(lp1638
(i__main__
DelphiAssignStatement
p1639
(dp1640
g178
(idelphi
DelphiNilValue
p1641
(dp1642
bsg181
(i__main__
DelphiIdentAccess
p1643
(dp1644
g184
S'result'
p1645
sg186
(lp1646
sbsba(idelphi
DelphiIfStatement
p1647
(dp1648
g319
(idelphi
DelphiRelOp
p1649
(dp1650
g343
(i__main__
DelphiIdentAccess
p1651
(dp1652
g184
S'lastDoneCommandIndex'
p1653
sg186
(lp1654
sbsg348
(idelphi
DelphiNestedExpressionListAccess
p1655
(dp1656
g186
(lp1657
sg243
(lp1658
(idelphi
DelphiAddOp
p1659
(dp1660
g896
S'-'
sg897
(idelphi
DelphiIntegerValue
p1661
(dp1662
g51
S'1'
sbsg900
(i__main__
DelphiIdentAccess
p1663
(dp1664
g184
S'commands'
p1665
sg186
(lp1666
(idelphi
DelphiFieldEndAccess
p1667
(dp1668
g315
S'count'
p1669
sbasbsbasbsg351
S'<'
sbsg324
Nsg325
(i__main__
DelphiAssignStatement
p1670
(dp1671
g178
(i__main__
DelphiIdentAccess
p1672
(dp1673
g184
S'command'
p1674
sg186
(lp1675
(idelphi
DelphiFunctionEndAccess
p1676
(dp1677
g243
(lp1678
(idelphi
DelphiAddOp
p1679
(dp1680
g896
S'+'
sg897
(idelphi
DelphiIntegerValue
p1681
(dp1682
g51
S'1'
sbsg900
(i__main__
DelphiIdentAccess
p1683
(dp1684
g184
S'lastDoneCommandIndex'
p1685
sg186
(lp1686
sbsbasbasbsg181
(i__main__
DelphiIdentAccess
p1687
(dp1688
g184
S'result'
p1689
sg186
(lp1690
sbsbsbasbsg191
(lp1691
sbsbsS'redodescription'
p1692
(i__main__
DelphiMethodImplementation
p1693
(dp1694
g152
g645
sg14
g647
sg34
(lp1695
sg154
(lp1696
sg156
(lp1697
sg158
(lp1698
g160
asg161
(dp1699
sg36
S'PdCommandList'
p1700
sg37
(i__main__
DelphiPrimitiveType
p1701
(dp1702
g7
g51
sbsg166
(lp1703
sg41
I0
sg42
g43
sg168
(i__main__
DelphiBlock
p1704
(dp1705
g171
(idelphi
DelphiCompoundStatement
p1706
(dp1707
g174
(lp1708
(idelphi
DelphiIfStatement
p1709
(dp1710
g319
(idelphi
DelphiRelOp
p1711
(dp1712
g343
(i__main__
DelphiIdentAccess
p1713
(dp1714
g184
S'lastDoneCommandIndex'
p1715
sg186
(lp1716
sbsg348
(idelphi
DelphiNestedExpressionListAccess
p1717
(dp1718
g186
(lp1719
sg243
(lp1720
(idelphi
DelphiAddOp
p1721
(dp1722
g896
S'-'
sg897
(idelphi
DelphiIntegerValue
p1723
(dp1724
g51
S'1'
sbsg900
(i__main__
DelphiIdentAccess
p1725
(dp1726
g184
S'commands'
p1727
sg186
(lp1728
(idelphi
DelphiFieldEndAccess
p1729
(dp1730
g315
S'count'
p1731
sbasbsbasbsg351
S'<'
sbsg324
(i__main__
DelphiAssignStatement
p1732
(dp1733
g178
(idelphi
DelphiStringAccess
p1734
(dp1735
g186
(lp1736
sg51
(idelphi
DelphiStringValue
p1737
(dp1738
g51
S''
sbsbsg181
(i__main__
DelphiIdentAccess
p1739
(dp1740
g184
S'result'
p1741
sg186
(lp1742
sbsbsg325
(idelphi
DelphiCompoundStatement
p1743
(dp1744
g174
(lp1745
(i__main__
DelphiAssignStatement
p1746
(dp1747
g178
(i__main__
DelphiIdentAccess
p1748
(dp1749
g184
S'command'
p1750
sg186
(lp1751
(idelphi
DelphiFunctionEndAccess
p1752
(dp1753
g243
(lp1754
(idelphi
DelphiAddOp
p1755
(dp1756
g896
S'+'
sg897
(idelphi
DelphiIntegerValue
p1757
(dp1758
g51
S'1'
sbsg900
(i__main__
DelphiIdentAccess
p1759
(dp1760
g184
S'lastDoneCommandIndex'
p1761
sg186
(lp1762
sbsbasba(idelphi
DelphiFieldEndAccess
p1763
(dp1764
g315
S'description'
p1765
sbasbsg181
(i__main__
DelphiIdentAccess
p1766
(dp1767
g184
S'result'
p1768
sg186
(lp1769
sbsba(i__main__
DelphiAssignStatement
p1770
(dp1771
g178
(i__main__
DelphiIdentAccess
p1772
(dp1773
g184
S'limitDescription'
p1774
sg186
(lp1775
(idelphi
DelphiFunctionEndAccess
p1776
(dp1777
g243
(lp1778
(i__main__
DelphiIdentAccess
p1779
(dp1780
g184
S'result'
p1781
sg186
(lp1782
sbasbasbsg181
(i__main__
DelphiIdentAccess
p1783
(dp1784
g184
S'result'
p1785
sg186
(lp1786
sbsbasbsbasbsg191
(lp1787
sbsbsS'redolast'
p1788
(i__main__
DelphiMethodImplementation
p1789
(dp1790
g152
g652
sg14
g654
sg34
(lp1791
sg154
(lp1792
sg156
(lp1793
sg158
(lp1794
g160
asg161
(dp1795
sg36
S'PdCommandList'
p1796
sg37
Nsg166
(lp1797
sg41
I0
sg42
g63
sg168
(i__main__
DelphiBlock
p1798
(dp1799
g171
(idelphi
DelphiCompoundStatement
p1800
(dp1801
g174
(lp1802
(idelphi
DelphiIfStatement
p1803
(dp1804
g319
(idelphi
DelphiRelOp
p1805
(dp1806
g343
(i__main__
DelphiIdentAccess
p1807
(dp1808
g184
S'lastDoneCommandIndex'
p1809
sg186
(lp1810
sbsg348
(idelphi
DelphiNestedExpressionListAccess
p1811
(dp1812
g186
(lp1813
sg243
(lp1814
(idelphi
DelphiAddOp
p1815
(dp1816
g896
S'-'
sg897
(idelphi
DelphiIntegerValue
p1817
(dp1818
g51
S'1'
sbsg900
(i__main__
DelphiIdentAccess
p1819
(dp1820
g184
S'commands'
p1821
sg186
(lp1822
(idelphi
DelphiFieldEndAccess
p1823
(dp1824
g315
S'count'
p1825
sbasbsbasbsg351
S'<'
sbsg324
Nsg325
(idelphi
DelphiCompoundStatement
p1826
(dp1827
g174
(lp1828
(i__main__
DelphiAssignStatement
p1829
(dp1830
g178
Nsg181
(i__main__
DelphiIdentAccess
p1831
(dp1832
g184
S'command'
p1833
sg186
(lp1834
(idelphi
DelphiFunctionEndAccess
p1835
(dp1836
g243
(lp1837
(idelphi
DelphiAddOp
p1838
(dp1839
g896
S'+'
sg897
(idelphi
DelphiIntegerValue
p1840
(dp1841
g51
S'1'
sbsg900
(i__main__
DelphiIdentAccess
p1842
(dp1843
g184
S'lastDoneCommandIndex'
p1844
sg186
(lp1845
sbsbasba(idelphi
DelphiFieldEndAccess
p1846
(dp1847
g315
S'redoCommand'
p1848
sbasbsba(i__main__
DelphiIncOrDecStatement
p1849
(dp1850
g1121
g1122
sg1123
Nsg181
(i__main__
DelphiIdentAccess
p1851
(dp1852
g184
S'lastDoneCommandIndex'
p1853
sg186
(lp1854
sbsbasbsbasbsg191
(lp1855
sbsbsS'undodescription'
p1856
(i__main__
DelphiMethodImplementation
p1857
(dp1858
g152
g712
sg14
g714
sg34
(lp1859
sg154
(lp1860
sg156
(lp1861
sg158
(lp1862
g160
asg161
(dp1863
sg36
S'PdCommandList'
p1864
sg37
(i__main__
DelphiPrimitiveType
p1865
(dp1866
g7
g51
sbsg166
(lp1867
sg41
I0
sg42
g43
sg168
(i__main__
DelphiBlock
p1868
(dp1869
g171
(idelphi
DelphiCompoundStatement
p1870
(dp1871
g174
(lp1872
(idelphi
DelphiIfStatement
p1873
(dp1874
g319
(idelphi
DelphiRelOp
p1875
(dp1876
g343
(i__main__
DelphiIdentAccess
p1877
(dp1878
g184
S'lastDoneCommandIndex'
p1879
sg186
(lp1880
sbsg348
(idelphi
DelphiIntegerValue
p1881
(dp1882
g51
S'0'
sbsg351
S'>='
p1883
sbsg324
(i__main__
DelphiAssignStatement
p1884
(dp1885
g178
(idelphi
DelphiStringAccess
p1886
(dp1887
g186
(lp1888
sg51
(idelphi
DelphiStringValue
p1889
(dp1890
g51
S''
sbsbsg181
(i__main__
DelphiIdentAccess
p1891
(dp1892
g184
S'result'
p1893
sg186
(lp1894
sbsbsg325
(idelphi
DelphiCompoundStatement
p1895
(dp1896
g174
(lp1897
(i__main__
DelphiAssignStatement
p1898
(dp1899
g178
(i__main__
DelphiIdentAccess
p1900
(dp1901
g184
S'command'
p1902
sg186
(lp1903
(idelphi
DelphiFunctionEndAccess
p1904
(dp1905
g243
(lp1906
(i__main__
DelphiIdentAccess
p1907
(dp1908
g184
S'lastDoneCommandIndex'
p1909
sg186
(lp1910
sbasba(idelphi
DelphiFieldEndAccess
p1911
(dp1912
g315
S'description'
p1913
sbasbsg181
(i__main__
DelphiIdentAccess
p1914
(dp1915
g184
S'result'
p1916
sg186
(lp1917
sbsba(i__main__
DelphiAssignStatement
p1918
(dp1919
g178
(i__main__
DelphiIdentAccess
p1920
(dp1921
g184
S'limitDescription'
p1922
sg186
(lp1923
(idelphi
DelphiFunctionEndAccess
p1924
(dp1925
g243
(lp1926
(i__main__
DelphiIdentAccess
p1927
(dp1928
g184
S'result'
p1929
sg186
(lp1930
sbasbasbsg181
(i__main__
DelphiIdentAccess
p1931
(dp1932
g184
S'result'
p1933
sg186
(lp1934
sbsbasbsbasbsg191
(lp1935
sbsbsS'setnewobjectundolimit'
p1936
(i__main__
DelphiMethodImplementation
p1937
(dp1938
g152
g669
sg14
g671
sg34
(lp1939
(i__main__
DelphiFormalParameter
p1940
(dp1941
g71
Nsg9
(lp1942
S'newObjectLimit'
p1943
asg74
(i__main__
DelphiPrimitiveType
p1944
(dp1945
g7
g40
sbsg80
Nsbasg154
(lp1946
sg156
(lp1947
sg158
(lp1948
g160
ag1943
asg161
(dp1949
g1943
g1944
ssg36
S'PdCommandList'
p1950
sg37
Nsg166
(lp1951
sg41
I0
sg42
g63
sg168
(i__main__
DelphiBlock
p1952
(dp1953
g171
(idelphi
DelphiCompoundStatement
p1954
(dp1955
g174
(lp1956
(idelphi
DelphiIfStatement
p1957
(dp1958
g319
(idelphi
DelphiRelOp
p1959
(dp1960
g343
(i__main__
DelphiIdentAccess
p1961
(dp1962
g184
S'newObjectLimit'
p1963
sg186
(lp1964
sbsg348
(i__main__
DelphiIdentAccess
p1965
(dp1966
g184
S'objectUndoLimit'
p1967
sg186
(lp1968
sbsg351
g352
sbsg324
Nsg325
(idelphi
DelphiCompoundStatement
p1969
(dp1970
g174
(lp1971
(i__main__
DelphiAssignStatement
p1972
(dp1973
g178
(i__main__
DelphiIdentAccess
p1974
(dp1975
g184
S'newObjectLimit'
p1976
sg186
(lp1977
sbsg181
(i__main__
DelphiIdentAccess
p1978
(dp1979
g184
S'objectUndoLimit'
p1980
sg186
(lp1981
sbsba(i__main__
DelphiAssignStatement
p1982
(dp1983
g178
Nsg181
(i__main__
DelphiIdentAccess
p1984
(dp1985
g184
S'self'
p1986
sg186
(lp1987
(idelphi
DelphiFieldEndAccess
p1988
(dp1989
g315
S'freeCommandsAboveObjectLimit'
p1990
sba(idelphi
DelphiFunctionEndAccess
p1991
(dp1992
g243
(lp1993
(i__main__
DelphiIdentAccess
p1994
(dp1995
g184
S'objectUndoLimit'
p1996
sg186
(lp1997
sbasbasbsbasbsbasbsg191
(lp1998
sbsbsS'mousedown'
p1999
(i__main__
DelphiMethodImplementation
p2000
(dp2001
g152
g680
sg14
g682
sg34
(lp2002
(i__main__
DelphiFormalParameter
p2003
(dp2004
g71
Nsg9
(lp2005
S'newCommand'
p2006
asg74
(i__main__
DelphiNamedType
p2007
(dp2008
g7
S'PdCommand'
p2009
sg78
g1
sg79
Nsbsg80
Nsba(i__main__
DelphiFormalParameter
p2010
(dp2011
g71
Nsg9
(lp2012
S'point'
p2013
asg74
(i__main__
DelphiNamedType
p2014
(dp2015
g7
S'Tpoint'
p2016
sg78
g1
sg79
Nsbsg80
Nsbasg154
(lp2017
sg156
(lp2018
sg158
(lp2019
g160
ag2006
ag2013
asg161
(dp2020
g2013
g2014
sg2006
g2007
ssg36
S'PdCommandList'
p2021
sg37
(i__main__
DelphiPrimitiveType
p2022
(dp2023
g7
g98
sbsg166
(lp2024
sg41
I0
sg42
g43
sg168
(i__main__
DelphiBlock
p2025
(dp2026
g171
(idelphi
DelphiCompoundStatement
p2027
(dp2028
g174
(lp2029
(i__main__
DelphiAssignStatement
p2030
(dp2031
g178
(i__main__
DelphiIdentAccess
p2032
(dp2033
g184
S'false'
p2034
sg186
(lp2035
sbsg181
(i__main__
DelphiIdentAccess
p2036
(dp2037
g184
S'result'
p2038
sg186
(lp2039
sbsba(idelphi
DelphiIfStatement
p2040
(dp2041
g319
(idelphi
DelphiRelOp
p2042
(dp2043
g343
(i__main__
DelphiIdentAccess
p2044
(dp2045
g184
S'mouseCommand'
p2046
sg186
(lp2047
sbsg348
(idelphi
DelphiNilValue
p2048
(dp2049
bsg351
g352
sbsg324
Nsg325
(i__main__
DelphiAssignStatement
p2050
(dp2051
g178
Nsg181
(i__main__
DelphiIdentAccess
p2052
(dp2053
g184
S'self'
p2054
sg186
(lp2055
(idelphi
DelphiFieldEndAccess
p2056
(dp2057
g315
S'mouseUp'
p2058
sba(idelphi
DelphiFunctionEndAccess
p2059
(dp2060
g243
(lp2061
(i__main__
DelphiIdentAccess
p2062
(dp2063
g184
S'point'
p2064
sg186
(lp2065
sbasbasbsg188
(lp2066
S'check if need to clear mouse command'
p2067
asbsba(i__main__
DelphiAssignStatement
p2068
(dp2069
g178
(idelphi
DelphiNilValue
p2070
(dp2071
bsg181
(i__main__
DelphiIdentAccess
p2072
(dp2073
g184
S'mouseCommand'
p2074
sg186
(lp2075
sbsba(idelphi
DelphiIfStatement
p2076
(dp2077
g319
(idelphi
DelphiRelOp
p2078
(dp2079
g343
(i__main__
DelphiIdentAccess
p2080
(dp2081
g184
S'newCommand'
p2082
sg186
(lp2083
sbsg348
(idelphi
DelphiNilValue
p2084
(dp2085
bsg351
g352
sbsg324
Nsg325
(idelphi
DelphiCompoundStatement
p2086
(dp2087
g174
(lp2088
(i__main__
DelphiAssignStatement
p2089
(dp2090
g178
(i__main__
DelphiIdentAccess
p2091
(dp2092
g184
S'point'
p2093
sg186
(lp2094
sbsg181
(i__main__
DelphiIdentAccess
p2095
(dp2096
g184
S'anchorPoint'
p2097
sg186
(lp2098
sbsg188
(lp2099
S'save mouse command and start it'
p2100
asba(i__main__
DelphiAssignStatement
p2101
(dp2102
g178
(i__main__
DelphiIdentAccess
p2103
(dp2104
g184
S'point'
p2105
sg186
(lp2106
sbsg181
(i__main__
DelphiIdentAccess
p2107
(dp2108
g184
S'previousPoint'
p2109
sg186
(lp2110
sbsba(i__main__
DelphiAssignStatement
p2111
(dp2112
g178
(i__main__
DelphiIdentAccess
p2113
(dp2114
g184
S'newCommand'
p2115
sg186
(lp2116
sbsg181
(i__main__
DelphiIdentAccess
p2117
(dp2118
g184
S'nextMouseCommand'
p2119
sg186
(lp2120
sbsba(i__main__
DelphiAssignStatement
p2121
(dp2122
g178
(i__main__
DelphiIdentAccess
p2123
(dp2124
g184
S'nextMouseCommand'
p2125
sg186
(lp2126
(idelphi
DelphiFieldEndAccess
p2127
(dp2128
g315
S'trackMouse'
p2129
sba(idelphi
DelphiFunctionEndAccess
p2130
(dp2131
g243
(lp2132
(i__main__
DelphiIdentAccess
p2133
(dp2134
g184
S'TrackPress'
p2135
sg186
(lp2136
sba(i__main__
DelphiIdentAccess
p2137
(dp2138
g184
S'anchorPoint'
p2139
sg186
(lp2140
sba(i__main__
DelphiIdentAccess
p2141
(dp2142
g184
S'previousPoint'
p2143
sg186
(lp2144
sba(i__main__
DelphiIdentAccess
p2145
(dp2146
g184
S'point'
p2147
sg186
(lp2148
sba(i__main__
DelphiIdentAccess
p2149
(dp2150
g184
S'false'
p2151
sg186
(lp2152
sba(i__main__
DelphiIdentAccess
p2153
(dp2154
g184
S'rightButtonDown'
p2155
sg186
(lp2156
sbasbasbsg181
(i__main__
DelphiIdentAccess
p2157
(dp2158
g184
S'mouseCommand'
p2159
sg186
(lp2160
sbsba(i__main__
DelphiAssignStatement
p2161
(dp2162
g178
(idelphi
DelphiNestedExpressionListAccess
p2163
(dp2164
g186
(lp2165
sg243
(lp2166
(idelphi
DelphiRelOp
p2167
(dp2168
g343
(i__main__
DelphiIdentAccess
p2169
(dp2170
g184
S'mouseCommand'
p2171
sg186
(lp2172
sbsg348
(idelphi
DelphiNilValue
p2173
(dp2174
bsg351
g352
sbasbsg181
(i__main__
DelphiIdentAccess
p2175
(dp2176
g184
S'result'
p2177
sg186
(lp2178
sbsbasbsbasbsg191
(lp2179
(i__main__
DelphiVarSection
p2180
(dp2181
g941
I0
sg942
(lp2182
(idelphi
DelphiVarDecl
p2183
(dp2184
g946
Nsg947
(lp2185
S'nextMouseCommand'
p2186
asg74
(i__main__
DelphiNamedType
p2187
(dp2188
g7
S'PdCommand'
p2189
sg78
g1
sg79
Nsbsbasbasbsg188
(lp2190
S'added nextMouseCommand in these three functions to deal with unhandled exceptions occurring\r'
p2191
aS'during mouse commands.  This way, the command will not be further processed.\r'
p2192
aS'This may occasionally leak - the mouse command should be the one responsible for freeing\r'
p2193
aS'itself and returning nil if a problem occurs'
p2194
aS'returns whether the command finished tracking without freeing itself'
p2195
asbsS'freecommandsaboveobjectlimit'
p2196
(i__main__
DelphiMethodImplementation
p2197
(dp2198
g152
g701
sg14
g703
sg34
(lp2199
(i__main__
DelphiFormalParameter
p2200
(dp2201
g71
Nsg9
(lp2202
S'objectLimit'
p2203
asg74
(i__main__
DelphiPrimitiveType
p2204
(dp2205
g7
g40
sbsg80
Nsbasg154
(lp2206
sg156
(lp2207
sg158
(lp2208
g160
ag2203
asg161
(dp2209
g2203
g2204
ssg36
S'PdCommandList'
p2210
sg37
Nsg166
(lp2211
sg41
I0
sg42
g63
sg168
(i__main__
DelphiBlock
p2212
(dp2213
g171
(idelphi
DelphiCompoundStatement
p2214
(dp2215
g174
(lp2216
(i__main__
DelphiAssignStatement
p2217
(dp2218
g178
(i__main__
DelphiIdentAccess
p2219
(dp2220
g184
S'self'
p2221
sg186
(lp2222
(idelphi
DelphiFieldEndAccess
p2223
(dp2224
g315
S'objectCountInCommandList'
p2225
sbasbsg181
(i__main__
DelphiIdentAccess
p2226
(dp2227
g184
S'objectCount'
p2228
sg186
(lp2229
sbsba(idelphi
DelphiWhileStatement
p2230
(dp2231
g912
(idelphi
DelphiCompoundStatement
p2232
(dp2233
g174
(lp2234
(i__main__
DelphiAssignStatement
p2235
(dp2236
g178
(i__main__
DelphiIdentAccess
p2237
(dp2238
g184
S'self'
p2239
sg186
(lp2240
(idelphi
DelphiFieldEndAccess
p2241
(dp2242
g315
S'command'
p2243
sba(idelphi
DelphiFunctionEndAccess
p2244
(dp2245
g243
(lp2246
(idelphi
DelphiIntegerValue
p2247
(dp2248
g51
S'0'
sbasbasbsg181
(i__main__
DelphiIdentAccess
p2249
(dp2250
g184
S'theCommand'
p2251
sg186
(lp2252
sbsba(i__main__
DelphiAssignStatement
p2253
(dp2254
g178
Nsg181
(i__main__
DelphiIdentAccess
p2255
(dp2256
g184
S'commands'
p2257
sg186
(lp2258
(idelphi
DelphiFieldEndAccess
p2259
(dp2260
g315
S'delete'
p2261
sba(idelphi
DelphiFunctionEndAccess
p2262
(dp2263
g243
(lp2264
(idelphi
DelphiIntegerValue
p2265
(dp2266
g51
S'0'
sbasbasbsba(i__main__
DelphiAssignStatement
p2267
(dp2268
g178
Nsg181
(i__main__
DelphiIdentAccess
p2269
(dp2270
g184
S'theCommand'
p2271
sg186
(lp2272
(idelphi
DelphiFieldEndAccess
p2273
(dp2274
g315
S'free'
p2275
sbasbsba(i__main__
DelphiIncOrDecStatement
p2276
(dp2277
g1121
S'dec'
p2278
sg1123
Nsg181
(i__main__
DelphiIdentAccess
p2279
(dp2280
g184
S'lastDoneCommandIndex'
p2281
sg186
(lp2282
sbsba(idelphi
DelphiIfStatement
p2283
(dp2284
g319
(idelphi
DelphiRelOp
p2285
(dp2286
g343
(i__main__
DelphiIdentAccess
p2287
(dp2288
g184
S'lastDoneCommandIndex'
p2289
sg186
(lp2290
sbsg348
(idelphi
DelphiSign
p2291
(dp2292
g1547
(idelphi
DelphiIntegerValue
p2293
(dp2294
g51
S'1'
sbsg1550
S'-'
sbsg351
S'<'
sbsg324
Nsg325
(i__main__
DelphiAssignStatement
p2295
(dp2296
g178
(idelphi
DelphiSign
p2297
(dp2298
g1547
(idelphi
DelphiIntegerValue
p2299
(dp2300
g51
S'1'
sbsg1550
S'-'
sbsg181
(i__main__
DelphiIdentAccess
p2301
(dp2302
g184
S'lastDoneCommandIndex'
p2303
sg186
(lp2304
sbsbsba(i__main__
DelphiAssignStatement
p2305
(dp2306
g178
(i__main__
DelphiIdentAccess
p2307
(dp2308
g184
S'self'
p2309
sg186
(lp2310
(idelphi
DelphiFieldEndAccess
p2311
(dp2312
g315
S'objectCountInCommandList'
p2313
sbasbsg181
(i__main__
DelphiIdentAccess
p2314
(dp2315
g184
S'objectCount'
p2316
sg186
(lp2317
sbsbasbsS'whileExpression'
p2318
(idelphi
DelphiMulOp
p2319
(dp2320
S'signedFactor2'
p2321
(idelphi
DelphiNestedExpressionListAccess
p2322
(dp2323
g186
(lp2324
sg243
(lp2325
(idelphi
DelphiRelOp
p2326
(dp2327
g343
(i__main__
DelphiIdentAccess
p2328
(dp2329
g184
S'commands'
p2330
sg186
(lp2331
(idelphi
DelphiFieldEndAccess
p2332
(dp2333
g315
S'count'
p2334
sbasbsg348
(idelphi
DelphiIntegerValue
p2335
(dp2336
g51
S'0'
sbsg351
S'>'
sbasbsS'mulOp'
p2337
S'and'
p2338
sS'signedFactor1'
p2339
(idelphi
DelphiNestedExpressionListAccess
p2340
(dp2341
g186
(lp2342
sg243
(lp2343
(idelphi
DelphiRelOp
p2344
(dp2345
g343
(i__main__
DelphiIdentAccess
p2346
(dp2347
g184
S'objectCount'
p2348
sg186
(lp2349
sbsg348
(i__main__
DelphiIdentAccess
p2350
(dp2351
g184
S'objectLimit'
p2352
sg186
(lp2353
sbsg351
S'>'
sbasbsbsbasbsg191
(lp2354
(i__main__
DelphiVarSection
p2355
(dp2356
g941
I0
sg942
(lp2357
(idelphi
DelphiVarDecl
p2358
(dp2359
g946
Nsg947
(lp2360
S'theCommand'
p2361
asg74
(i__main__
DelphiNamedType
p2362
(dp2363
g7
S'PdCommand'
p2364
sg78
g1
sg79
Nsbsba(idelphi
DelphiVarDecl
p2365
(dp2366
g946
Nsg947
(lp2367
S'objectCount'
p2368
asg74
(i__main__
DelphiPrimitiveType
p2369
(dp2370
g7
g40
sbsbasbasbsbsS'mousemove'
p2371
(i__main__
DelphiMethodImplementation
p2372
(dp2373
g152
g657
sg14
g659
sg34
(lp2374
(i__main__
DelphiFormalParameter
p2375
(dp2376
g71
Nsg9
(lp2377
S'point'
p2378
asg74
(i__main__
DelphiNamedType
p2379
(dp2380
g7
S'TPoint'
p2381
sg78
g1
sg79
Nsbsg80
Nsbasg154
(lp2382
sg156
(lp2383
sg158
(lp2384
g160
ag2378
asg161
(dp2385
g2378
g2379
ssg36
S'PdCommandList'
p2386
sg37
Nsg166
(lp2387
sg41
I0
sg42
g63
sg168
(i__main__
DelphiBlock
p2388
(dp2389
g171
(idelphi
DelphiCompoundStatement
p2390
(dp2391
g174
(lp2392
(i__main__
DelphiAssignStatement
p2393
(dp2394
g178
(i__main__
DelphiIdentAccess
p2395
(dp2396
g184
S'mouseCommand'
p2397
sg186
(lp2398
sbsg181
(i__main__
DelphiIdentAccess
p2399
(dp2400
g184
S'nextMouseCommand'
p2401
sg186
(lp2402
sbsba(i__main__
DelphiAssignStatement
p2403
(dp2404
g178
(idelphi
DelphiNilValue
p2405
(dp2406
bsg181
(i__main__
DelphiIdentAccess
p2407
(dp2408
g184
S'mouseCommand'
p2409
sg186
(lp2410
sbsba(idelphi
DelphiIfStatement
p2411
(dp2412
g319
(idelphi
DelphiRelOp
p2413
(dp2414
g343
(i__main__
DelphiIdentAccess
p2415
(dp2416
g184
S'nextMouseCommand'
p2417
sg186
(lp2418
sbsg348
(idelphi
DelphiNilValue
p2419
(dp2420
bsg351
g352
sbsg324
Nsg325
(i__main__
DelphiAssignStatement
p2421
(dp2422
g178
(i__main__
DelphiIdentAccess
p2423
(dp2424
g184
S'nextMouseCommand'
p2425
sg186
(lp2426
(idelphi
DelphiFieldEndAccess
p2427
(dp2428
g315
S'trackMouse'
p2429
sba(idelphi
DelphiFunctionEndAccess
p2430
(dp2431
g243
(lp2432
(i__main__
DelphiIdentAccess
p2433
(dp2434
g184
S'trackMove'
p2435
sg186
(lp2436
sba(i__main__
DelphiIdentAccess
p2437
(dp2438
g184
S'anchorPoint'
p2439
sg186
(lp2440
sba(i__main__
DelphiIdentAccess
p2441
(dp2442
g184
S'previousPoint'
p2443
sg186
(lp2444
sba(i__main__
DelphiIdentAccess
p2445
(dp2446
g184
S'point'
p2447
sg186
(lp2448
sba(i__main__
DelphiIdentAccess
p2449
(dp2450
g184
S'self'
p2451
sg186
(lp2452
(idelphi
DelphiFieldEndAccess
p2453
(dp2454
g315
S'didMouseMove'
p2455
sba(idelphi
DelphiFunctionEndAccess
p2456
(dp2457
g243
(lp2458
(i__main__
DelphiIdentAccess
p2459
(dp2460
g184
S'point'
p2461
sg186
(lp2462
sbasbasba(i__main__
DelphiIdentAccess
p2463
(dp2464
g184
S'rightButtonDown'
p2465
sg186
(lp2466
sbasbasbsg181
(i__main__
DelphiIdentAccess
p2467
(dp2468
g184
S'mouseCommand'
p2469
sg186
(lp2470
sbsbsba(i__main__
DelphiAssignStatement
p2471
(dp2472
g178
(i__main__
DelphiIdentAccess
p2473
(dp2474
g184
S'point'
p2475
sg186
(lp2476
sbsg181
(i__main__
DelphiIdentAccess
p2477
(dp2478
g184
S'previousPoint'
p2479
sg186
(lp2480
sbsbasbsg191
(lp2481
(i__main__
DelphiVarSection
p2482
(dp2483
g941
I0
sg942
(lp2484
(idelphi
DelphiVarDecl
p2485
(dp2486
g946
Nsg947
(lp2487
S'nextMouseCommand'
p2488
asg74
(i__main__
DelphiNamedType
p2489
(dp2490
g7
S'PdCommand'
p2491
sg78
g1
sg79
NsbsbasbasbsbsS'filllistwithundoablestrings'
p2492
(i__main__
DelphiMethodImplementation
p2493
(dp2494
g152
g719
sg14
g721
sg34
(lp2495
(i__main__
DelphiFormalParameter
p2496
(dp2497
g71
Nsg9
(lp2498
S'aList'
p2499
asg74
(i__main__
DelphiNamedType
p2500
(dp2501
g7
S'TStringList'
p2502
sg78
g1
sg79
Nsbsg80
Nsbasg154
(lp2503
sg156
(lp2504
sg158
(lp2505
g160
ag2499
asg161
(dp2506
g2499
g2500
ssg36
S'PdCommandList'
p2507
sg37
Nsg166
(lp2508
sg41
I0
sg42
g63
sg168
(i__main__
DelphiBlock
p2509
(dp2510
g171
(idelphi
DelphiCompoundStatement
p2511
(dp2512
g174
(lp2513
(idelphi
DelphiIfStatement
p2514
(dp2515
g319
(idelphi
DelphiRelOp
p2516
(dp2517
g343
(i__main__
DelphiIdentAccess
p2518
(dp2519
g184
S'aList'
p2520
sg186
(lp2521
sbsg348
(idelphi
DelphiNilValue
p2522
(dp2523
bsg351
S'='
sbsg324
Nsg325
(i__main__
DelphiExitStatement
p2524
(dp2525
g889
g2493
sbsba(idelphi
DelphiIfStatement
p2526
(dp2527
g319
(idelphi
DelphiRelOp
p2528
(dp2529
g343
(i__main__
DelphiIdentAccess
p2530
(dp2531
g184
S'lastDoneCommandIndex'
p2532
sg186
(lp2533
sbsg348
(idelphi
DelphiIntegerValue
p2534
(dp2535
g51
S'0'
sbsg351
g1883
sbsg324
Nsg325
(idelphi
DelphiForStatement
p2536
(dp2537
g892
S'i'
sg893
(idelphi
DelphiIntegerValue
p2538
(dp2539
g51
S'0'
sbsg908
g989
sg71
(i__main__
DelphiIdentAccess
p2540
(dp2541
g184
S'lastDoneCommandIndex'
p2542
sg186
(lp2543
sbsg912
(i__main__
DelphiAssignStatement
p2544
(dp2545
g178
Nsg181
(i__main__
DelphiIdentAccess
p2546
(dp2547
g184
S'aList'
p2548
sg186
(lp2549
(idelphi
DelphiFieldEndAccess
p2550
(dp2551
g315
S'add'
p2552
sba(idelphi
DelphiFunctionEndAccess
p2553
(dp2554
g243
(lp2555
(i__main__
DelphiIdentAccess
p2556
(dp2557
g184
S'capitalize'
p2558
sg186
(lp2559
(idelphi
DelphiFunctionEndAccess
p2560
(dp2561
g243
(lp2562
(i__main__
DelphiIdentAccess
p2563
(dp2564
g184
S'command'
p2565
sg186
(lp2566
(idelphi
DelphiFunctionEndAccess
p2567
(dp2568
g243
(lp2569
(i__main__
DelphiIdentAccess
p2570
(dp2571
g184
S'i'
sg186
(lp2572
sbasba(idelphi
DelphiFieldEndAccess
p2573
(dp2574
g315
S'description'
p2575
sbasbasbasbasbasbsbsbsbasbsg191
(lp2576
(i__main__
DelphiVarSection
p2577
(dp2578
g941
I0
sg942
(lp2579
(idelphi
DelphiVarDecl
p2580
(dp2581
g946
Nsg947
(lp2582
S'i'
asg74
(i__main__
DelphiPrimitiveType
p2583
(dp2584
g7
g1509
sbsbasbasbsbsS'isundoenabled'
p2585
(i__main__
DelphiMethodImplementation
p2586
(dp2587
g152
g731
sg14
g733
sg34
(lp2588
sg154
(lp2589
sg156
(lp2590
sg158
(lp2591
g160
asg161
(dp2592
sg36
S'PdCommandList'
p2593
sg37
(i__main__
DelphiPrimitiveType
p2594
(dp2595
g7
g98
sbsg166
(lp2596
sg41
I0
sg42
g43
sg168
(i__main__
DelphiBlock
p2597
(dp2598
g171
(idelphi
DelphiCompoundStatement
p2599
(dp2600
g174
(lp2601
(i__main__
DelphiAssignStatement
p2602
(dp2603
g178
(idelphi
DelphiRelOp
p2604
(dp2605
g343
(i__main__
DelphiIdentAccess
p2606
(dp2607
g184
S'lastDoneCommandIndex'
p2608
sg186
(lp2609
sbsg348
(idelphi
DelphiIntegerValue
p2610
(dp2611
g51
S'0'
sbsg351
g1883
sbsg181
(i__main__
DelphiIdentAccess
p2612
(dp2613
g184
S'result'
p2614
sg186
(lp2615
sbsbasbsg191
(lp2616
sbsbsS'freecommandsabovelimit'
p2617
(i__main__
DelphiMethodImplementation
p2618
(dp2619
g152
g738
sg14
g740
sg34
(lp2620
(i__main__
DelphiFormalParameter
p2621
(dp2622
g71
Nsg9
(lp2623
S'theLimit'
p2624
asg74
(i__main__
DelphiPrimitiveType
p2625
(dp2626
g7
g40
sbsg80
Nsbasg154
(lp2627
sg156
(lp2628
sg158
(lp2629
g160
ag2624
asg161
(dp2630
g2624
g2625
ssg36
S'PdCommandList'
p2631
sg37
Nsg166
(lp2632
sg41
I0
sg42
g63
sg168
(i__main__
DelphiBlock
p2633
(dp2634
g171
(idelphi
DelphiCompoundStatement
p2635
(dp2636
g174
(lp2637
(idelphi
DelphiWhileStatement
p2638
(dp2639
g912
(idelphi
DelphiCompoundStatement
p2640
(dp2641
g174
(lp2642
(i__main__
DelphiAssignStatement
p2643
(dp2644
g178
(i__main__
DelphiIdentAccess
p2645
(dp2646
g184
S'self'
p2647
sg186
(lp2648
(idelphi
DelphiFieldEndAccess
p2649
(dp2650
g315
S'command'
p2651
sba(idelphi
DelphiFunctionEndAccess
p2652
(dp2653
g243
(lp2654
(idelphi
DelphiIntegerValue
p2655
(dp2656
g51
S'0'
sbasbasbsg181
(i__main__
DelphiIdentAccess
p2657
(dp2658
g184
S'theCommand'
p2659
sg186
(lp2660
sbsba(i__main__
DelphiAssignStatement
p2661
(dp2662
g178
Nsg181
(i__main__
DelphiIdentAccess
p2663
(dp2664
g184
S'commands'
p2665
sg186
(lp2666
(idelphi
DelphiFieldEndAccess
p2667
(dp2668
g315
S'delete'
p2669
sba(idelphi
DelphiFunctionEndAccess
p2670
(dp2671
g243
(lp2672
(idelphi
DelphiIntegerValue
p2673
(dp2674
g51
S'0'
sbasbasbsba(i__main__
DelphiAssignStatement
p2675
(dp2676
g178
Nsg181
(i__main__
DelphiIdentAccess
p2677
(dp2678
g184
S'theCommand'
p2679
sg186
(lp2680
(idelphi
DelphiFieldEndAccess
p2681
(dp2682
g315
S'free'
p2683
sbasbsba(i__main__
DelphiIncOrDecStatement
p2684
(dp2685
g1121
g2278
sg1123
Nsg181
(i__main__
DelphiIdentAccess
p2686
(dp2687
g184
S'lastDoneCommandIndex'
p2688
sg186
(lp2689
sbsba(idelphi
DelphiIfStatement
p2690
(dp2691
g319
(idelphi
DelphiRelOp
p2692
(dp2693
g343
(i__main__
DelphiIdentAccess
p2694
(dp2695
g184
S'lastDoneCommandIndex'
p2696
sg186
(lp2697
sbsg348
(idelphi
DelphiSign
p2698
(dp2699
g1547
(idelphi
DelphiIntegerValue
p2700
(dp2701
g51
S'1'
sbsg1550
S'-'
sbsg351
S'<'
sbsg324
Nsg325
(i__main__
DelphiAssignStatement
p2702
(dp2703
g178
(idelphi
DelphiSign
p2704
(dp2705
g1547
(idelphi
DelphiIntegerValue
p2706
(dp2707
g51
S'1'
sbsg1550
S'-'
sbsg181
(i__main__
DelphiIdentAccess
p2708
(dp2709
g184
S'lastDoneCommandIndex'
p2710
sg186
(lp2711
sbsbsbasbsg2318
(idelphi
DelphiMulOp
p2712
(dp2713
g2321
(idelphi
DelphiNestedExpressionListAccess
p2714
(dp2715
g186
(lp2716
sg243
(lp2717
(idelphi
DelphiRelOp
p2718
(dp2719
g343
(i__main__
DelphiIdentAccess
p2720
(dp2721
g184
S'commands'
p2722
sg186
(lp2723
(idelphi
DelphiFieldEndAccess
p2724
(dp2725
g315
S'count'
p2726
sbasbsg348
(idelphi
DelphiIntegerValue
p2727
(dp2728
g51
S'0'
sbsg351
S'>'
sbasbsg2337
g2338
sg2339
(idelphi
DelphiNestedExpressionListAccess
p2729
(dp2730
g186
(lp2731
sg243
(lp2732
(idelphi
DelphiRelOp
p2733
(dp2734
g343
(i__main__
DelphiIdentAccess
p2735
(dp2736
g184
S'commands'
p2737
sg186
(lp2738
(idelphi
DelphiFieldEndAccess
p2739
(dp2740
g315
S'count'
p2741
sbasbsg348
(i__main__
DelphiIdentAccess
p2742
(dp2743
g184
S'theLimit'
p2744
sg186
(lp2745
sbsg351
S'>'
sbasbsbsbasbsg191
(lp2746
(i__main__
DelphiVarSection
p2747
(dp2748
g941
I0
sg942
(lp2749
(idelphi
DelphiVarDecl
p2750
(dp2751
g946
Nsg947
(lp2752
S'theCommand'
p2753
asg74
(i__main__
DelphiNamedType
p2754
(dp2755
g7
S'PdCommand'
p2756
sg78
g1
sg79
Nsbsbasbasbsg188
(lp2757
S'free any command more than the number passed in'
p2758
asbsS'command'
p2759
(i__main__
DelphiMethodImplementation
p2760
(dp2761
g152
g749
sg14
g751
sg34
(lp2762
(i__main__
DelphiFormalParameter
p2763
(dp2764
g71
Nsg9
(lp2765
g756
asg74
(i__main__
DelphiPrimitiveType
p2766
(dp2767
g7
g40
sbsg80
Nsbasg154
(lp2768
sg156
(lp2769
sg158
(lp2770
g160
ag756
asg161
(dp2771
g756
g2766
ssg36
S'PdCommandList'
p2772
sg37
(i__main__
DelphiNamedType
p2773
(dp2774
g7
S'PdCommand'
p2775
sg78
g1
sg79
Nsbsg166
(lp2776
sg41
I0
sg42
g43
sg168
(i__main__
DelphiBlock
p2777
(dp2778
g171
(idelphi
DelphiCompoundStatement
p2779
(dp2780
g174
(lp2781
(i__main__
DelphiAssignStatement
p2782
(dp2783
g178
(i__main__
DelphiIdentAccess
p2784
(dp2785
g184
S'PdCommand'
p2786
sg186
(lp2787
(idelphi
DelphiFunctionEndAccess
p2788
(dp2789
g243
(lp2790
(i__main__
DelphiIdentAccess
p2791
(dp2792
g184
S'commands'
p2793
sg186
(lp2794
(idelphi
DelphiFieldEndAccess
p2795
(dp2796
g315
S'items'
p2797
sba(idelphi
DelphiArrayEndAccess
p2798
(dp2799
g243
(lp2800
(i__main__
DelphiIdentAccess
p2801
(dp2802
g184
g756
sg186
(lp2803
sbasbasbasbasbsg181
(i__main__
DelphiIdentAccess
p2804
(dp2805
g184
S'result'
p2806
sg186
(lp2807
sbsbasbsg191
(lp2808
sbsbsS'setnewundolimit'
p2809
(i__main__
DelphiMethodImplementation
p2810
(dp2811
g152
g763
sg14
g765
sg34
(lp2812
(i__main__
DelphiFormalParameter
p2813
(dp2814
g71
Nsg9
(lp2815
S'newLimit'
p2816
asg74
(i__main__
DelphiPrimitiveType
p2817
(dp2818
g7
g40
sbsg80
Nsbasg154
(lp2819
sg156
(lp2820
sg158
(lp2821
g160
ag2816
asg161
(dp2822
g2816
g2817
ssg36
S'PdCommandList'
p2823
sg37
Nsg166
(lp2824
sg41
I0
sg42
g63
sg168
(i__main__
DelphiBlock
p2825
(dp2826
g171
(idelphi
DelphiCompoundStatement
p2827
(dp2828
g174
(lp2829
(idelphi
DelphiIfStatement
p2830
(dp2831
g319
(idelphi
DelphiRelOp
p2832
(dp2833
g343
(i__main__
DelphiIdentAccess
p2834
(dp2835
g184
S'newLimit'
p2836
sg186
(lp2837
sbsg348
(i__main__
DelphiIdentAccess
p2838
(dp2839
g184
S'undoLimit'
p2840
sg186
(lp2841
sbsg351
g352
sbsg324
Nsg325
(idelphi
DelphiCompoundStatement
p2842
(dp2843
g174
(lp2844
(i__main__
DelphiAssignStatement
p2845
(dp2846
g178
(i__main__
DelphiIdentAccess
p2847
(dp2848
g184
S'newLimit'
p2849
sg186
(lp2850
sbsg181
(i__main__
DelphiIdentAccess
p2851
(dp2852
g184
S'undoLimit'
p2853
sg186
(lp2854
sbsba(i__main__
DelphiAssignStatement
p2855
(dp2856
g178
Nsg181
(i__main__
DelphiIdentAccess
p2857
(dp2858
g184
S'self'
p2859
sg186
(lp2860
(idelphi
DelphiFieldEndAccess
p2861
(dp2862
g315
S'freeCommandsAboveLimit'
p2863
sba(idelphi
DelphiFunctionEndAccess
p2864
(dp2865
g243
(lp2866
(i__main__
DelphiIdentAccess
p2867
(dp2868
g184
S'undoLimit'
p2869
sg186
(lp2870
sbasbasbsbasbsbasbsg191
(lp2871
sbsbsS'didmousemove'
p2872
(i__main__
DelphiMethodImplementation
p2873
(dp2874
g152
g774
sg14
g776
sg34
(lp2875
(i__main__
DelphiFormalParameter
p2876
(dp2877
g71
Nsg9
(lp2878
S'point'
p2879
asg74
(i__main__
DelphiNamedType
p2880
(dp2881
g7
S'TPoint'
p2882
sg78
g1
sg79
Nsbsg80
Nsbasg154
(lp2883
sg156
(lp2884
sg158
(lp2885
g160
ag2879
asg161
(dp2886
g2879
g2880
ssg36
S'PdCommandList'
p2887
sg37
(i__main__
DelphiPrimitiveType
p2888
(dp2889
g7
g98
sbsg166
(lp2890
sg41
I0
sg42
g43
sg168
(i__main__
DelphiBlock
p2891
(dp2892
g171
(idelphi
DelphiCompoundStatement
p2893
(dp2894
g174
(lp2895
(i__main__
DelphiAssignStatement
p2896
(dp2897
g178
(idelphi
DelphiAddOp
p2898
(dp2899
g896
S'or'
p2900
sg897
(idelphi
DelphiNestedExpressionListAccess
p2901
(dp2902
g186
(lp2903
sg243
(lp2904
(idelphi
DelphiRelOp
p2905
(dp2906
g343
(i__main__
DelphiIdentAccess
p2907
(dp2908
g184
S'abs'
p2909
sg186
(lp2910
(idelphi
DelphiFunctionEndAccess
p2911
(dp2912
g243
(lp2913
(idelphi
DelphiAddOp
p2914
(dp2915
g896
S'-'
sg897
(i__main__
DelphiIdentAccess
p2916
(dp2917
g184
S'anchorPoint'
p2918
sg186
(lp2919
(idelphi
DelphiFieldEndAccess
p2920
(dp2921
g315
S'y'
sbasbsg900
(i__main__
DelphiIdentAccess
p2922
(dp2923
g184
S'point'
p2924
sg186
(lp2925
(idelphi
DelphiFieldEndAccess
p2926
(dp2927
g315
S'y'
sbasbsbasbasbsg348
(i__main__
DelphiIdentAccess
p2928
(dp2929
g184
S'kMinMoveDistance'
p2930
sg186
(lp2931
sbsg351
S'>'
sbasbsg900
(idelphi
DelphiNestedExpressionListAccess
p2932
(dp2933
g186
(lp2934
sg243
(lp2935
(idelphi
DelphiRelOp
p2936
(dp2937
g343
(i__main__
DelphiIdentAccess
p2938
(dp2939
g184
S'abs'
p2940
sg186
(lp2941
(idelphi
DelphiFunctionEndAccess
p2942
(dp2943
g243
(lp2944
(idelphi
DelphiAddOp
p2945
(dp2946
g896
S'-'
sg897
(i__main__
DelphiIdentAccess
p2947
(dp2948
g184
S'anchorPoint'
p2949
sg186
(lp2950
(idelphi
DelphiFieldEndAccess
p2951
(dp2952
g315
S'x'
sbasbsg900
(i__main__
DelphiIdentAccess
p2953
(dp2954
g184
S'point'
p2955
sg186
(lp2956
(idelphi
DelphiFieldEndAccess
p2957
(dp2958
g315
S'x'
sbasbsbasbasbsg348
(i__main__
DelphiIdentAccess
p2959
(dp2960
g184
S'kMinMoveDistance'
p2961
sg186
(lp2962
sbsg351
S'>'
sbasbsbsg181
(i__main__
DelphiIdentAccess
p2963
(dp2964
g184
S'result'
p2965
sg186
(lp2966
sbsbasbsg191
(lp2967
sbsbsS'undolast'
p2968
(i__main__
DelphiMethodImplementation
p2969
(dp2970
g152
g788
sg14
g790
sg34
(lp2971
sg154
(lp2972
sg156
(lp2973
sg158
(lp2974
g160
asg161
(dp2975
sg36
S'PdCommandList'
p2976
sg37
Nsg166
(lp2977
sg41
I0
sg42
g63
sg168
(i__main__
DelphiBlock
p2978
(dp2979
g171
(idelphi
DelphiCompoundStatement
p2980
(dp2981
g174
(lp2982
(idelphi
DelphiIfStatement
p2983
(dp2984
g319
(idelphi
DelphiRelOp
p2985
(dp2986
g343
(i__main__
DelphiIdentAccess
p2987
(dp2988
g184
S'lastDoneCommandIndex'
p2989
sg186
(lp2990
sbsg348
(idelphi
DelphiIntegerValue
p2991
(dp2992
g51
S'0'
sbsg351
g1883
sbsg324
Nsg325
(idelphi
DelphiCompoundStatement
p2993
(dp2994
g174
(lp2995
(i__main__
DelphiAssignStatement
p2996
(dp2997
g178
Nsg181
(i__main__
DelphiIdentAccess
p2998
(dp2999
g184
S'command'
p3000
sg186
(lp3001
(idelphi
DelphiFunctionEndAccess
p3002
(dp3003
g243
(lp3004
(i__main__
DelphiIdentAccess
p3005
(dp3006
g184
S'lastDoneCommandIndex'
p3007
sg186
(lp3008
sbasba(idelphi
DelphiFieldEndAccess
p3009
(dp3010
g315
S'undoCommand'
p3011
sbasbsba(i__main__
DelphiIncOrDecStatement
p3012
(dp3013
g1121
g2278
sg1123
Nsg181
(i__main__
DelphiIdentAccess
p3014
(dp3015
g184
S'lastDoneCommandIndex'
p3016
sg186
(lp3017
sbsbasbsbasbsg191
(lp3018
sbsbssg539
(dp3019
sg541
(lp3020
g549
ag547
ag561
ag557
ag559
ag551
ag553
ag555
asba(i__main__
DelphiConstSection
p3021
(dp3022
S'constDeclList'
p3023
(lp3024
(idelphi
DelphiConstDeclaration
p3025
(dp3026
g946
(idelphi
DelphiIntegerValue
p3027
(dp3028
g51
S'40'
p3029
sbsg184
S'kMaxDescriptionLength'
p3030
sg74
(idelphi
DelphiPrimitiveType
p3031
(dp3032
g7
S'UNDEFINED_NEEDS_CALCULATION'
p3033
sbsbasg941
I1
sba(i__main__
DelphiProceduralImplementation
p3034
(dp3035
g152
g3034
sg14
S'limitDescription'
p3036
sg37
(i__main__
DelphiPrimitiveType
p3037
(dp3038
g7
g51
sbsg154
(lp3039
sg156
(lp3040
sg158
(lp3041
S'description'
p3042
asg161
(dp3043
g3042
(i__main__
DelphiPrimitiveType
p3044
(dp3045
g7
g51
sbssg34
(lp3046
(i__main__
DelphiFormalParameter
p3047
(dp3048
g71
Nsg9
(lp3049
g3042
asg74
g3044
sg80
Nsbasg166
(lp3050
sg168
(i__main__
DelphiBlock
p3051
(dp3052
g171
(idelphi
DelphiCompoundStatement
p3053
(dp3054
g174
(lp3055
(i__main__
DelphiAssignStatement
p3056
(dp3057
g178
(i__main__
DelphiIdentAccess
p3058
(dp3059
g184
S'description'
p3060
sg186
(lp3061
sbsg181
(i__main__
DelphiIdentAccess
p3062
(dp3063
g184
S'result'
p3064
sg186
(lp3065
sbsba(idelphi
DelphiIfStatement
p3066
(dp3067
g319
(idelphi
DelphiRelOp
p3068
(dp3069
g343
(i__main__
DelphiIdentAccess
p3070
(dp3071
g184
S'length'
p3072
sg186
(lp3073
(idelphi
DelphiFunctionEndAccess
p3074
(dp3075
g243
(lp3076
(i__main__
DelphiIdentAccess
p3077
(dp3078
g184
S'description'
p3079
sg186
(lp3080
sbasbasbsg348
(i__main__
DelphiIdentAccess
p3081
(dp3082
g184
S'kMaxDescriptionLength'
p3083
sg186
(lp3084
sbsg351
S'>'
sbsg324
Nsg325
(i__main__
DelphiAssignStatement
p3085
(dp3086
g178
(idelphi
DelphiAddOp
p3087
(dp3088
g896
S'+'
sg897
(idelphi
DelphiStringAccess
p3089
(dp3090
g186
(lp3091
sg51
(idelphi
DelphiStringValue
p3092
(dp3093
g51
S' ...'
p3094
sbsbsg900
(i__main__
DelphiIdentAccess
p3095
(dp3096
g184
S'copy'
p3097
sg186
(lp3098
(idelphi
DelphiFunctionEndAccess
p3099
(dp3100
g243
(lp3101
(i__main__
DelphiIdentAccess
p3102
(dp3103
g184
S'description'
p3104
sg186
(lp3105
sba(idelphi
DelphiIntegerValue
p3106
(dp3107
g51
S'1'
sba(idelphi
DelphiAddOp
p3108
(dp3109
g896
S'-'
sg897
(idelphi
DelphiIntegerValue
p3110
(dp3111
g51
S'4'
sbsg900
(i__main__
DelphiIdentAccess
p3112
(dp3113
g184
S'kMaxDescriptionLength'
p3114
sg186
(lp3115
sbsbasbasbsbsg181
(i__main__
DelphiIdentAccess
p3116
(dp3117
g184
S'result'
p3118
sg186
(lp3119
sbsbsbasbsg191
(lp3120
sbsba(i__main__
DelphiConstSection
p3121
(dp3122
g3023
(lp3123
(idelphi
DelphiConstDeclaration
p3124
(dp3125
g946
(idelphi
DelphiIntegerValue
p3126
(dp3127
g51
S'2'
sbsg184
S'kMinMoveDistance'
p3128
sg74
(idelphi
DelphiPrimitiveType
p3129
(dp3130
g7
g3033
sbsbasg941
I1
sbasS'includedUnits'
p3131
NsS'implementationUses'
p3132
(lp3133
S'SysUtils'
p3134
aS'usupport'
p3135
aS'umain'
p3136
aS'updcom'
p3137
asg14
S'Ucommand'
p3138
sS'constSections'
p3139
(lp3140
g3021
ag3121
asS'globalsInProperCase'
p3141
NsS'interfaceUses'
p3142
(lp3143
S'delphi_compatability'
p3144
aS'Classes'
p3145
aS'WinTypes'
p3146
aS'ucollect'
p3147
asS'finalCommentToken'
p3148
(i__main__
PassStatement
p3149
(dp3150
g191
(lp3151
sbsS'varSections'
p3152
(lp3153
sS'globals'
p3154
NsS'originalFileName'
p3155
S'../../PlantStudioInPython/converted_source/used/ucommand.pas'
p3156
sS'proceduralImplementations'
p3157
(dp3158
S'limitdescription'
p3159
g3034
ssS'fileName'
p3160
S'/Users/pdf/Documents/workspace/PlantStudioInPython/converted_source/used/ucommand.pas'
p3161
sS'proceduralDeclarations'
p3162
(dp3163
sS'types'
p3164
(dp3165
S'trackphase'
p3166
g5
sS'pdcommandlist'
p3167
g543
sS'pdcommand'
p3168
g15
ssb.