(i__main__
DelphiUnit
p1
(dp2
S'sectionsInOrderDefined'
p3
(lp4
(i__main__
DelphiConstSection
p5
(dp6
S'constDeclList'
p7
(lp8
(idelphi
DelphiConstDeclaration
p9
(dp10
S'constExpression'
p11
(idelphi
DelphiIntegerValue
p12
(dp13
S'string'
p14
S'1000'
p15
sbsS'ident'
p16
S'kInitialDrawingSurfaceTriangles'
p17
sS'theType'
p18
(idelphi
DelphiPrimitiveType
p19
(dp20
S'typeName'
p21
S'UNDEFINED_NEEDS_CALCULATION'
p22
sbsbasS'atTopLevel'
p23
I1
sba(i__main__
DelphiClass
p24
(dp25
S'variableNamesInProperCase'
p26
(dp27
S'numtrianglesused'
p28
S'numTrianglesUsed'
p29
sS'recording'
p30
S'recording'
p31
sS'linewidth'
p32
S'lineWidth'
p33
sS'linecolor'
p34
S'lineColor'
p35
sS'circlepointradius'
p36
S'circlePointRadius'
p37
sS'forecolor'
p38
S'foreColor'
p39
sS'fillingtriangles'
p40
S'fillingTriangles'
p41
sS'circlingpoints'
p42
S'circlingPoints'
p43
sS'circlecolor'
p44
S'circleColor'
p45
sS'pane'
p46
S'pane'
p47
sS'backcolor'
p48
S'backColor'
p49
sS'sorttdosasoneitem'
p50
S'sortTdosAsOneItem'
p51
sS'drawinglines'
p52
S'drawingLines'
p53
sS'linecontrastindex'
p54
S'lineContrastIndex'
p55
sS'triangles'
p56
S'triangles'
p57
ssS'name'
p58
S'KfDrawingSurface'
p59
sS'methodDeclarations'
p60
(dp61
S'basicdrawlinefromto'
p62
(i__main__
DelphiMethodDeclaration
p63
(dp64
g58
S'basicDrawLineFromTo'
p65
sS'formalParameters'
p66
(lp67
(i__main__
DelphiFormalParameter
p68
(dp69
S'initialValue'
p70
NsS'names'
p71
(lp72
S'startPoint'
p73
asg18
(i__main__
DelphiNamedType
p74
(dp75
g21
S'KfPoint3D'
p76
sS'unitDefinedIn'
p77
g1
sS'unitName'
p78
NsbsS'parameterVariety'
p79
S'const'
p80
sba(i__main__
DelphiFormalParameter
p81
(dp82
g70
Nsg71
(lp83
S'endPoint'
p84
asg18
(i__main__
DelphiNamedType
p85
(dp86
g21
S'KfPoint3D'
p87
sg77
g1
sg78
Nsbsg79
g80
sbasS'className'
p88
g59
sS'resultType'
p89
NsS'isClassMethod'
p90
I0
sS'methodType'
p91
S'procedure'
p92
sbsS'drawlasttriangle'
p93
(i__main__
DelphiMethodDeclaration
p94
(dp95
g58
S'drawLastTriangle'
p96
sg66
(lp97
sg88
g59
sg89
Nsg90
I0
sg91
g92
sbsS'trianglesdraw'
p98
(i__main__
DelphiMethodDeclaration
p99
(dp100
g58
S'trianglesDraw'
p101
sg66
(lp102
sg88
g59
sg89
Nsg90
I0
sg91
g92
sbsS'create'
p103
(i__main__
DelphiMethodDeclaration
p104
(dp105
g58
S'create'
p106
sg66
(lp107
sg88
g59
sg89
Nsg90
I0
sg91
S'constructor'
p108
sbsS'recordingstop'
p109
(i__main__
DelphiMethodDeclaration
p110
(dp111
g58
S'recordingStop'
p112
sg66
(lp113
sg88
g59
sg89
Nsg90
I0
sg91
g92
sbsS'basicdrawtriangle'
p114
(i__main__
DelphiMethodDeclaration
p115
(dp116
g58
S'basicDrawTriangle'
p117
sg66
(lp118
(i__main__
DelphiFormalParameter
p119
(dp120
g70
Nsg71
(lp121
S'triangle'
p122
asg18
(i__main__
DelphiNamedType
p123
(dp124
g21
S'KfTriangle'
p125
sg77
g1
sg78
Nsbsg79
Nsbasg88
g59
sg89
Nsg90
I0
sg91
g92
sbsS'draw3dface'
p126
(i__main__
DelphiMethodDeclaration
p127
(dp128
g58
S'draw3DFace'
p129
sg66
(lp130
(i__main__
DelphiFormalParameter
p131
(dp132
g70
Nsg71
(lp133
S'point1'
p134
aS'point2'
p135
aS'point3'
p136
aS'point4'
p137
asg18
(i__main__
DelphiNamedType
p138
(dp139
g21
S'KfPoint3D'
p140
sg77
g1
sg78
Nsbsg79
Nsbasg88
g59
sg89
Nsg90
I0
sg91
g92
sbsS'drawlinefromto'
p141
(i__main__
DelphiMethodDeclaration
p142
(dp143
g58
S'drawLineFromTo'
p144
sg66
(lp145
(i__main__
DelphiFormalParameter
p146
(dp147
g70
Nsg71
(lp148
S'startPoint'
p149
asg18
(i__main__
DelphiNamedType
p150
(dp151
g21
S'KfPoint3D'
p152
sg77
g1
sg78
Nsbsg79
g80
sba(i__main__
DelphiFormalParameter
p153
(dp154
g70
Nsg71
(lp155
S'endPoint'
p156
asg18
(i__main__
DelphiNamedType
p157
(dp158
g21
S'KfPoint3D'
p159
sg77
g1
sg78
Nsbsg79
g80
sbasg88
g59
sg89
(i__main__
DelphiNamedType
p160
(dp161
g21
S'KfTriangle'
p162
sg77
g1
sg78
Nsbsg90
I0
sg91
S'function'
p163
sbsS'cleartriangles'
p164
(i__main__
DelphiMethodDeclaration
p165
(dp166
g58
S'clearTriangles'
p167
sg66
(lp168
sg88
g59
sg89
Nsg90
I0
sg91
g92
sbsS'recordingdraw'
p169
(i__main__
DelphiMethodDeclaration
p170
(dp171
g58
S'recordingDraw'
p172
sg66
(lp173
sg88
g59
sg89
Nsg90
I0
sg91
g92
sbsS'sorttriangles'
p174
(i__main__
DelphiMethodDeclaration
p175
(dp176
g58
S'sortTriangles'
p177
sg66
(lp178
(i__main__
DelphiFormalParameter
p179
(dp180
g70
Nsg71
(lp181
S'left'
p182
asg18
(i__main__
DelphiPrimitiveType
p183
(dp184
g21
S'integer'
p185
sbsg79
Nsba(i__main__
DelphiFormalParameter
p186
(dp187
g70
Nsg71
(lp188
S'right'
p189
asg18
(i__main__
DelphiPrimitiveType
p190
(dp191
g21
g185
sbsg79
Nsbasg88
g59
sg89
Nsg90
I0
sg91
g92
sbsS'allocatetriangle'
p192
(i__main__
DelphiMethodDeclaration
p193
(dp194
g58
S'allocateTriangle'
p195
sg66
(lp196
sg88
g59
sg89
(i__main__
DelphiNamedType
p197
(dp198
g21
S'KfTriangle'
p199
sg77
g1
sg78
Nsbsg90
I0
sg91
g163
sbsS'initialize'
p200
(i__main__
DelphiMethodDeclaration
p201
(dp202
g58
S'initialize'
p203
sg66
(lp204
sg88
g59
sg89
Nsg90
I0
sg91
g92
sbsS'destroy'
p205
(i__main__
DelphiMethodDeclaration
p206
(dp207
g58
S'destroy'
p208
sg66
(lp209
sg88
g59
sg89
Nsg90
I0
sg91
S'destructor'
p210
sbsS'sorttrianglesconsideringtdos'
p211
(i__main__
DelphiMethodDeclaration
p212
(dp213
g58
S'sortTrianglesConsideringTdos'
p214
sg66
(lp215
sg88
g59
sg89
Nsg90
I0
sg91
g92
sbsS'recordingstart'
p216
(i__main__
DelphiMethodDeclaration
p217
(dp218
g58
S'recordingStart'
p219
sg66
(lp220
sg88
g59
sg89
Nsg90
I0
sg91
g92
sbsS'plantpartidforpoint'
p221
(i__main__
DelphiMethodDeclaration
p222
(dp223
g58
S'plantPartIDForPoint'
p224
sg66
(lp225
(i__main__
DelphiFormalParameter
p226
(dp227
g70
Nsg71
(lp228
S'point'
p229
asg18
(i__main__
DelphiNamedType
p230
(dp231
g21
S'TPoint'
p232
sg77
g1
sg78
Nsbsg79
Nsbasg88
g59
sg89
(i__main__
DelphiPrimitiveType
p233
(dp234
g21
S'longint'
p235
sbsg90
I0
sg91
g163
sbssS'superclassNamedTypes'
p236
(lp237
(i__main__
DelphiNamedType
p238
(dp239
g21
S'TObject'
p240
sg77
g1
sg78
NsbasS'variableNames'
p241
(dp242
S'numtrianglesused'
p243
(i__main__
DelphiPrimitiveType
p244
(dp245
g21
g235
sbsS'recording'
p246
(i__main__
DelphiPrimitiveType
p247
(dp248
g21
S'boolean'
p249
sbsS'linewidth'
p250
(i__main__
DelphiPrimitiveType
p251
(dp252
g21
S'single'
p253
sbsS'linecolor'
p254
(i__main__
DelphiNamedType
p255
(dp256
g21
S'TColor'
p257
sg77
g1
sg78
NsbsS'circlepointradius'
p258
(i__main__
DelphiPrimitiveType
p259
(dp260
g21
S'smallint'
p261
sbsS'forecolor'
p262
g255
sS'fillingtriangles'
p263
(i__main__
DelphiPrimitiveType
p264
(dp265
g21
g249
sbsS'circlingpoints'
p266
g264
sS'circlecolor'
p267
g255
sS'pane'
p268
(i__main__
DelphiNamedType
p269
(dp270
g21
S'TCanvas'
p271
sg77
g1
sg78
NsbsS'backcolor'
p272
g255
sS'sorttdosasoneitem'
p273
(i__main__
DelphiPrimitiveType
p274
(dp275
g21
g249
sbsS'drawinglines'
p276
g264
sS'linecontrastindex'
p277
(i__main__
DelphiPrimitiveType
p278
(dp279
g21
g261
sbsS'triangles'
p280
(i__main__
DelphiNamedType
p281
(dp282
g21
S'TListCollection'
p283
sg77
g1
sg78
NsbssS'methodNamesInDefinedOrder'
p284
(lp285
S'create'
p286
aS'destroy'
p287
aS'initialize'
p288
aS'cleartriangles'
p289
aS'plantpartidforpoint'
p290
aS'allocatetriangle'
p291
aS'sorttrianglesconsideringtdos'
p292
aS'sorttriangles'
p293
aS'trianglesdraw'
p294
aS'drawlinefromto'
p295
aS'basicdrawlinefromto'
p296
aS'draw3dface'
p297
aS'drawlasttriangle'
p298
aS'basicdrawtriangle'
p299
aS'recordingstart'
p300
aS'recordingstop'
p301
aS'recordingdraw'
p302
asS'methodImplementations'
p303
(dp304
S'basicdrawlinefromto'
p305
(i__main__
DelphiMethodImplementation
p306
(dp307
S'originalDeclaration'
p308
g63
sg58
g65
sg66
(lp309
(i__main__
DelphiFormalParameter
p310
(dp311
g70
Nsg71
(lp312
S'startPoint'
p313
asg18
(i__main__
DelphiNamedType
p314
(dp315
g21
S'KfPoint3D'
p316
sg77
g1
sg78
Nsbsg79
g80
sba(i__main__
DelphiFormalParameter
p317
(dp318
g70
Nsg71
(lp319
S'endPoint'
p320
asg18
(i__main__
DelphiNamedType
p321
(dp322
g21
S'KfPoint3D'
p323
sg77
g1
sg78
Nsbsg79
g80
sbasS'varParamIndexes'
p324
(lp325
sS'varParamsSkipped'
p326
(lp327
sS'argNames'
p328
(lp329
S'self'
p330
ag313
ag320
asS'argTypes'
p331
(dp332
g320
g321
sg313
g314
ssg88
S'KfDrawingSurface'
p333
sg89
NsS'varParamNames'
p334
(lp335
sg90
I0
sg91
g92
sS'block'
p336
(i__main__
DelphiBlock
p337
(dp338
S'compoundStatement'
p339
(idelphi
DelphiCompoundStatement
p340
(dp341
S'statements'
p342
(lp343
(idelphi
DelphiIfStatement
p344
(dp345
S'expression'
p346
(idelphi
DelphiRelOp
p347
(dp348
S'simpleExpression1'
p349
(i__main__
DelphiIdentAccess
p350
(dp351
g16
S'self'
p352
sS'endAccessList'
p353
(lp354
(idelphi
DelphiFieldEndAccess
p355
(dp356
S'field'
p357
S'pane'
p358
sbasbsS'simpleExpression2'
p359
(idelphi
DelphiNilValue
p360
(dp361
bsS'relOp'
p362
S'='
sbsS'ifFalseStatement'
p363
NsS'ifTrueStatement'
p364
(i__main__
DelphiExitStatement
p365
(dp366
S'proceduralOrMethodImplementation'
p367
g306
sS'commentLinesBefore'
p368
(lp369
S'assuming pen color and width is saved and restored elsewhere'
p370
asbsba(idelphi
DelphiTryExceptStatement
p371
(dp372
S'tryStatements'
p373
(lp374
(i__main__
DelphiAssignStatement
p375
(dp376
S'newValueExpression'
p377
(idelphi
DelphiMulOp
p378
(dp379
S'signedFactor2'
p380
(idelphi
DelphiIntegerValue
p381
(dp382
g14
S'1000'
p383
sbsS'mulOp'
p384
S'mod'
p385
sS'signedFactor1'
p386
(i__main__
DelphiIdentAccess
p387
(dp388
g16
S'round'
p389
sg353
(lp390
(idelphi
DelphiFunctionEndAccess
p391
(dp392
S'expressionList'
p393
(lp394
(i__main__
DelphiIdentAccess
p395
(dp396
g16
S'self'
p397
sg353
(lp398
(idelphi
DelphiFieldEndAccess
p399
(dp400
g357
S'lineWidth'
p401
sbasbasbasbsbsS'destinationExpression'
p402
(i__main__
DelphiIdentAccess
p403
(dp404
g16
S'self'
p405
sg353
(lp406
(idelphi
DelphiFieldEndAccess
p407
(dp408
g357
S'pane'
p409
sba(idelphi
DelphiFieldEndAccess
p410
(dp411
g357
S'pen'
p412
sba(idelphi
DelphiFieldEndAccess
p413
(dp414
g357
S'width'
p415
sbasbsba(i__main__
DelphiAssignStatement
p416
(dp417
g377
(i__main__
DelphiIdentAccess
p418
(dp419
g16
S'self'
p420
sg353
(lp421
(idelphi
DelphiFieldEndAccess
p422
(dp423
g357
S'lineColor'
p424
sbasbsg402
(i__main__
DelphiIdentAccess
p425
(dp426
g16
S'self'
p427
sg353
(lp428
(idelphi
DelphiFieldEndAccess
p429
(dp430
g357
S'pane'
p431
sba(idelphi
DelphiFieldEndAccess
p432
(dp433
g357
S'pen'
p434
sba(idelphi
DelphiFieldEndAccess
p435
(dp436
g357
S'color'
p437
sbasbsba(i__main__
DelphiAssignStatement
p438
(dp439
g377
(i__main__
DelphiIdentAccess
p440
(dp441
g16
S'psSolid'
p442
sg353
(lp443
sbsg402
(i__main__
DelphiIdentAccess
p444
(dp445
g16
S'self'
p446
sg353
(lp447
(idelphi
DelphiFieldEndAccess
p448
(dp449
g357
S'pane'
p450
sba(idelphi
DelphiFieldEndAccess
p451
(dp452
g357
S'pen'
p453
sba(idelphi
DelphiFieldEndAccess
p454
(dp455
g357
S'style'
p456
sbasbsba(i__main__
DelphiAssignStatement
p457
(dp458
g377
Nsg402
(i__main__
DelphiIdentAccess
p459
(dp460
g16
S'self'
p461
sg353
(lp462
(idelphi
DelphiFieldEndAccess
p463
(dp464
g357
S'pane'
p465
sba(idelphi
DelphiFieldEndAccess
p466
(dp467
g357
S'moveTo'
p468
sba(idelphi
DelphiFunctionEndAccess
p469
(dp470
g393
(lp471
(idelphi
DelphiMulOp
p472
(dp473
g380
(idelphi
DelphiIntegerValue
p474
(dp475
g14
S'32767'
p476
sbsg384
g385
sg386
(i__main__
DelphiIdentAccess
p477
(dp478
g16
S'round'
p479
sg353
(lp480
(idelphi
DelphiFunctionEndAccess
p481
(dp482
g393
(lp483
(i__main__
DelphiIdentAccess
p484
(dp485
g16
S'startPoint'
p486
sg353
(lp487
(idelphi
DelphiFieldEndAccess
p488
(dp489
g357
S'x'
sbasbasbasbsba(idelphi
DelphiMulOp
p490
(dp491
g380
(idelphi
DelphiIntegerValue
p492
(dp493
g14
S'32767'
p494
sbsg384
g385
sg386
(i__main__
DelphiIdentAccess
p495
(dp496
g16
S'round'
p497
sg353
(lp498
(idelphi
DelphiFunctionEndAccess
p499
(dp500
g393
(lp501
(i__main__
DelphiIdentAccess
p502
(dp503
g16
S'startPoint'
p504
sg353
(lp505
(idelphi
DelphiFieldEndAccess
p506
(dp507
g357
S'y'
sbasbasbasbsbasbasbsba(i__main__
DelphiAssignStatement
p508
(dp509
g377
Nsg402
(i__main__
DelphiIdentAccess
p510
(dp511
g16
S'self'
p512
sg353
(lp513
(idelphi
DelphiFieldEndAccess
p514
(dp515
g357
S'pane'
p516
sba(idelphi
DelphiFieldEndAccess
p517
(dp518
g357
S'lineTo'
p519
sba(idelphi
DelphiFunctionEndAccess
p520
(dp521
g393
(lp522
(idelphi
DelphiMulOp
p523
(dp524
g380
(idelphi
DelphiIntegerValue
p525
(dp526
g14
S'32767'
p527
sbsg384
g385
sg386
(i__main__
DelphiIdentAccess
p528
(dp529
g16
S'round'
p530
sg353
(lp531
(idelphi
DelphiFunctionEndAccess
p532
(dp533
g393
(lp534
(i__main__
DelphiIdentAccess
p535
(dp536
g16
S'endPoint'
p537
sg353
(lp538
(idelphi
DelphiFieldEndAccess
p539
(dp540
g357
S'x'
sbasbasbasbsba(idelphi
DelphiMulOp
p541
(dp542
g380
(idelphi
DelphiIntegerValue
p543
(dp544
g14
S'32767'
p545
sbsg384
g385
sg386
(i__main__
DelphiIdentAccess
p546
(dp547
g16
S'round'
p548
sg353
(lp549
(idelphi
DelphiFunctionEndAccess
p550
(dp551
g393
(lp552
(i__main__
DelphiIdentAccess
p553
(dp554
g16
S'endPoint'
p555
sg353
(lp556
(idelphi
DelphiFieldEndAccess
p557
(dp558
g357
S'y'
sbasbasbasbsbasbasbsbasS'exceptionHandlers'
p559
(idelphi
DelphiExceptionHandlers
p560
(dp561
S'exceptionHandlerList'
p562
NsS'statementList'
p563
(lp564
sbsg368
(lp565
S'do nothing if rounding fails'
p566
asbasbsS'limitedDeclSectionList'
p567
(lp568
sbsbsS'recordingstop'
p569
(i__main__
DelphiMethodImplementation
p570
(dp571
g308
g110
sg58
g112
sg66
(lp572
sg324
(lp573
sg326
(lp574
sg328
(lp575
g330
asg331
(dp576
sg88
S'KfDrawingSurface'
p577
sg89
Nsg334
(lp578
sg90
I0
sg91
g92
sg336
(i__main__
DelphiBlock
p579
(dp580
g339
(idelphi
DelphiCompoundStatement
p581
(dp582
g342
(lp583
(i__main__
DelphiAssignStatement
p584
(dp585
g377
(i__main__
DelphiIdentAccess
p586
(dp587
g16
S'false'
p588
sg353
(lp589
sbsg402
(i__main__
DelphiIdentAccess
p590
(dp591
g16
S'recording'
p592
sg353
(lp593
sbsbasbsg567
(lp594
sbsbsS'create'
p595
(i__main__
DelphiMethodImplementation
p596
(dp597
g308
g104
sg58
g106
sg66
(lp598
sg324
(lp599
sg326
(lp600
sg328
(lp601
g330
asg331
(dp602
sg88
S'KfDrawingSurface'
p603
sg89
Nsg334
(lp604
sg90
I0
sg91
g108
sg336
(i__main__
DelphiBlock
p605
(dp606
g339
(idelphi
DelphiCompoundStatement
p607
(dp608
g342
(lp609
(i__main__
DelphiAssignStatement
p610
(dp611
g377
Nsg402
(idelphi
DelphiInheritedCall
p612
(dp613
g16
S'create'
p614
sg393
Nsbsba(i__main__
DelphiAssignStatement
p615
(dp616
g377
(i__main__
DelphiIdentAccess
p617
(dp618
g16
S'TListCollection'
p619
sg353
(lp620
(idelphi
DelphiFieldEndAccess
p621
(dp622
g357
S'create'
p623
sbasbsg402
(i__main__
DelphiIdentAccess
p624
(dp625
g16
S'triangles'
p626
sg353
(lp627
sbsba(i__main__
DelphiAssignStatement
p628
(dp629
g377
(idelphi
DelphiIntegerValue
p630
(dp631
g14
S'0'
sbsg402
(i__main__
DelphiIdentAccess
p632
(dp633
g16
S'numTrianglesUsed'
p634
sg353
(lp635
sbsba(i__main__
DelphiAssignStatement
p636
(dp637
g377
(i__main__
DelphiIdentAccess
p638
(dp639
g16
S'true'
p640
sg353
(lp641
sbsg402
(i__main__
DelphiIdentAccess
p642
(dp643
g16
S'fillingTriangles'
p644
sg353
(lp645
sbsba(i__main__
DelphiAssignStatement
p646
(dp647
g377
Nsg402
(i__main__
DelphiIdentAccess
p648
(dp649
g16
S'self'
p650
sg353
(lp651
(idelphi
DelphiFieldEndAccess
p652
(dp653
g357
S'initialize'
p654
sbasbsba(idelphi
DelphiForStatement
p655
(dp656
S'variable'
p657
S'i'
sS'finalValue'
p658
(i__main__
DelphiIdentAccess
p659
(dp660
g16
S'kInitialDrawingSurfaceTriangles'
p661
sg353
(lp662
sbsS'direction'
p663
S'to'
p664
sg70
(idelphi
DelphiIntegerValue
p665
(dp666
g14
S'0'
sbsS'statement'
p667
(i__main__
DelphiAssignStatement
p668
(dp669
g377
Nsg402
(i__main__
DelphiIdentAccess
p670
(dp671
g16
S'triangles'
p672
sg353
(lp673
(idelphi
DelphiFieldEndAccess
p674
(dp675
g357
S'add'
p676
sba(idelphi
DelphiFunctionEndAccess
p677
(dp678
g393
(lp679
(i__main__
DelphiIdentAccess
p680
(dp681
g16
S'KfTriangle'
p682
sg353
(lp683
(idelphi
DelphiFieldEndAccess
p684
(dp685
g357
S'create'
p686
sbasbasbasbsg368
(lp687
S' start with a bunch of triangles '
p688
asbsbasbsg567
(lp689
(i__main__
DelphiVarSection
p690
(dp691
g23
I0
sS'varDeclList'
p692
(lp693
(idelphi
DelphiVarDecl
p694
(dp695
g11
NsS'identList'
p696
(lp697
S'i'
asg18
(i__main__
DelphiPrimitiveType
p698
(dp699
g21
g235
sbsbasbasbsg368
(lp700
S' ----------------------------------------------------------------------------- *KfDrawingSurface creating/destroying '
p701
asbsS'trianglesdraw'
p702
(i__main__
DelphiMethodImplementation
p703
(dp704
g308
g99
sg58
g101
sg66
(lp705
sg324
(lp706
sg326
(lp707
sg328
(lp708
g330
asg331
(dp709
sg88
S'KfDrawingSurface'
p710
sg89
Nsg334
(lp711
sg90
I0
sg91
g92
sg336
(i__main__
DelphiBlock
p712
(dp713
g339
(idelphi
DelphiCompoundStatement
p714
(dp715
g342
(lp716
(idelphi
DelphiIfStatement
p717
(dp718
g346
(idelphi
DelphiRelOp
p719
(dp720
g349
(i__main__
DelphiIdentAccess
p721
(dp722
g16
S'numTrianglesUsed'
p723
sg353
(lp724
sbsg359
(idelphi
DelphiIntegerValue
p725
(dp726
g14
S'0'
sbsg362
S'>'
sbsg363
Nsg364
(idelphi
DelphiForStatement
p727
(dp728
g657
S'i'
sg658
(idelphi
DelphiAddOp
p729
(dp730
S'addOp'
p731
S'-'
sS'term2'
p732
(idelphi
DelphiIntegerValue
p733
(dp734
g14
S'1'
sbsS'term1'
p735
(i__main__
DelphiIdentAccess
p736
(dp737
g16
S'numTrianglesUsed'
p738
sg353
(lp739
sbsbsg663
g664
sg70
(idelphi
DelphiIntegerValue
p740
(dp741
g14
S'0'
sbsg667
(i__main__
DelphiAssignStatement
p742
(dp743
g377
Nsg402
(i__main__
DelphiIdentAccess
p744
(dp745
g16
S'self'
p746
sg353
(lp747
(idelphi
DelphiFieldEndAccess
p748
(dp749
g357
S'basicDrawTriangle'
p750
sba(idelphi
DelphiFunctionEndAccess
p751
(dp752
g393
(lp753
(i__main__
DelphiIdentAccess
p754
(dp755
g16
S'triangles'
p756
sg353
(lp757
(idelphi
DelphiFieldEndAccess
p758
(dp759
g357
S'items'
p760
sba(idelphi
DelphiArrayEndAccess
p761
(dp762
g393
(lp763
(i__main__
DelphiIdentAccess
p764
(dp765
g16
S'i'
sg353
(lp766
sbasbasbasbasbsbsbsbasbsg567
(lp767
(i__main__
DelphiVarSection
p768
(dp769
g23
I0
sg692
(lp770
(idelphi
DelphiVarDecl
p771
(dp772
g11
Nsg696
(lp773
S'i'
asg18
(i__main__
DelphiPrimitiveType
p774
(dp775
g21
g185
sbsbasbasbsg368
(lp776
S' ----------------------------------------------------------------------------- KfDrawingSurface drawing '
p777
asbsS'drawlasttriangle'
p778
(i__main__
DelphiMethodImplementation
p779
(dp780
g308
g94
sg58
g96
sg66
(lp781
sg324
(lp782
sg326
(lp783
sg328
(lp784
g330
asg331
(dp785
sg88
S'KfDrawingSurface'
p786
sg89
Nsg334
(lp787
sg90
I0
sg91
g92
sg336
(i__main__
DelphiBlock
p788
(dp789
g339
(idelphi
DelphiCompoundStatement
p790
(dp791
g342
(lp792
(i__main__
DelphiAssignStatement
p793
(dp794
g377
(i__main__
DelphiIdentAccess
p795
(dp796
g16
S'triangles'
p797
sg353
(lp798
(idelphi
DelphiFieldEndAccess
p799
(dp800
g357
S'items'
p801
sba(idelphi
DelphiArrayEndAccess
p802
(dp803
g393
(lp804
(idelphi
DelphiAddOp
p805
(dp806
g731
S'-'
sg732
(idelphi
DelphiIntegerValue
p807
(dp808
g14
S'1'
sbsg735
(i__main__
DelphiIdentAccess
p809
(dp810
g16
S'numTrianglesUsed'
p811
sg353
(lp812
sbsbasbasbsg402
(i__main__
DelphiIdentAccess
p813
(dp814
g16
S'triangle'
p815
sg353
(lp816
sbsg368
(lp817
S'last allocated triangle'
p818
asba(i__main__
DelphiAssignStatement
p819
(dp820
g377
(i__main__
DelphiIdentAccess
p821
(dp822
g16
S'false'
p823
sg353
(lp824
sbsg402
(i__main__
DelphiIdentAccess
p825
(dp826
g16
S'triangle'
p827
sg353
(lp828
(idelphi
DelphiFieldEndAccess
p829
(dp830
g357
S'isLine'
p831
sbasbsba(i__main__
DelphiAssignStatement
p832
(dp833
g377
Nsg402
(i__main__
DelphiIdentAccess
p834
(dp835
g16
S'triangle'
p836
sg353
(lp837
(idelphi
DelphiFieldEndAccess
p838
(dp839
g357
S'updateGeometry'
p840
sbasbsba(i__main__
DelphiAssignStatement
p841
(dp842
g377
(i__main__
DelphiIdentAccess
p843
(dp844
g16
S'lineWidth'
p845
sg353
(lp846
sbsg402
(i__main__
DelphiIdentAccess
p847
(dp848
g16
S'triangle'
p849
sg353
(lp850
(idelphi
DelphiFieldEndAccess
p851
(dp852
g357
S'lineWidth'
p853
sbasbsg368
(lp854
S'PDF FIX - maybe should scale this?'
p855
asba(i__main__
DelphiAssignStatement
p856
(dp857
g377
(i__main__
DelphiIdentAccess
p858
(dp859
g16
S'lineColor'
p860
sg353
(lp861
sbsg402
(i__main__
DelphiIdentAccess
p862
(dp863
g16
S'triangle'
p864
sg353
(lp865
(idelphi
DelphiFieldEndAccess
p866
(dp867
g357
S'lineColor'
p868
sbasbsba(i__main__
DelphiAssignStatement
p869
(dp870
g377
(i__main__
DelphiIdentAccess
p871
(dp872
g16
S'foreColor'
p873
sg353
(lp874
sbsg402
(i__main__
DelphiIdentAccess
p875
(dp876
g16
S'triangle'
p877
sg353
(lp878
(idelphi
DelphiFieldEndAccess
p879
(dp880
g357
S'foreColor'
p881
sbasbsba(i__main__
DelphiAssignStatement
p882
(dp883
g377
(i__main__
DelphiIdentAccess
p884
(dp885
g16
S'backColor'
p886
sg353
(lp887
sbsg402
(i__main__
DelphiIdentAccess
p888
(dp889
g16
S'triangle'
p890
sg353
(lp891
(idelphi
DelphiFieldEndAccess
p892
(dp893
g357
S'backColor'
p894
sbasbsba(idelphi
DelphiIfStatement
p895
(dp896
g346
(i__main__
DelphiIdentAccess
p897
(dp898
g16
S'self'
p899
sg353
(lp900
(idelphi
DelphiFieldEndAccess
p901
(dp902
g357
S'recording'
p903
sbasbsg363
(idelphi
DelphiCompoundStatement
p904
(dp905
g342
(lp906
(i__main__
DelphiAssignStatement
p907
(dp908
g377
Nsg402
(i__main__
DelphiIdentAccess
p909
(dp910
g16
S'self'
p911
sg353
(lp912
(idelphi
DelphiFieldEndAccess
p913
(dp914
g357
S'basicDrawTriangle'
p915
sba(idelphi
DelphiFunctionEndAccess
p916
(dp917
g393
(lp918
(i__main__
DelphiIdentAccess
p919
(dp920
g16
S'triangle'
p921
sg353
(lp922
sbasbasbsba(i__main__
DelphiIncOrDecStatement
p923
(dp924
S'incOrDecString'
p925
S'dec'
p926
sS'incrementExpression'
p927
Nsg402
(i__main__
DelphiIdentAccess
p928
(dp929
g16
S'numTrianglesUsed'
p930
sg353
(lp931
sbsg368
(lp932
S'deallocate it'
p933
asbasbsg364
(idelphi
DelphiCompoundStatement
p934
(dp935
g342
Nsg368
(lp936
S'"store triangle"'
p937
aS'do nothing as already stored'
p938
asbsbasbsg567
(lp939
(i__main__
DelphiVarSection
p940
(dp941
g23
I0
sg692
(lp942
(idelphi
DelphiVarDecl
p943
(dp944
g11
Nsg696
(lp945
S'triangle'
p946
asg18
(i__main__
DelphiNamedType
p947
(dp948
g21
S'KfTriangle'
p949
sg77
g1
sg78
Nsbsbasbasbsg368
(lp950
S'terminology is different: drawing surface frontColor is pen line color '
p951
aS' and drawing surface backColor (which should be back-facing triangle) is fill color'
p952
aS'drawing surface draws the last triangle allocated - and deallocates it if needed'
p953
asbsS'draw3dface'
p954
(i__main__
DelphiMethodImplementation
p955
(dp956
g308
g127
sg58
g129
sg66
(lp957
(i__main__
DelphiFormalParameter
p958
(dp959
g70
Nsg71
(lp960
S'point1'
p961
aS'point2'
p962
aS'point3'
p963
aS'point4'
p964
asg18
(i__main__
DelphiNamedType
p965
(dp966
g21
S'KfPoint3D'
p967
sg77
g1
sg78
Nsbsg79
Nsbasg324
(lp968
sg326
(lp969
sg328
(lp970
g330
ag961
ag962
ag963
ag964
asg331
(dp971
g961
g965
sg962
g965
sg963
g965
sg964
g965
ssg88
S'KfDrawingSurface'
p972
sg89
Nsg334
(lp973
sg90
I0
sg91
g92
sg336
(i__main__
DelphiBlock
p974
(dp975
g339
(idelphi
DelphiCompoundStatement
p976
(dp977
g342
(lp978
(idelphi
DelphiRaiseStatement
p979
(dp980
g346
(i__main__
DelphiIdentAccess
p981
(dp982
g16
S'exception'
p983
sg353
(lp984
(idelphi
DelphiFieldEndAccess
p985
(dp986
g357
S'create'
p987
sba(idelphi
DelphiFunctionEndAccess
p988
(dp989
g393
(lp990
(idelphi
DelphiStringAccess
p991
(dp992
g353
(lp993
sg14
(idelphi
DelphiStringValue
p994
(dp995
g14
S'Problem: draw3DFace method not supported in base class; in method KfDrawingSurface.draw3DFace.'
p996
sbsbasbasbsg368
(lp997
S' subclasses must override\r'
p998
asbasbsg567
(lp999
sbsbsS'basicdrawtriangle'
p1000
(i__main__
DelphiMethodImplementation
p1001
(dp1002
g308
g115
sg58
g117
sg66
(lp1003
(i__main__
DelphiFormalParameter
p1004
(dp1005
g70
Nsg71
(lp1006
S'triangle'
p1007
asg18
(i__main__
DelphiNamedType
p1008
(dp1009
g21
S'KfTriangle'
p1010
sg77
g1
sg78
Nsbsg79
Nsbasg324
(lp1011
sg326
(lp1012
sg328
(lp1013
g330
ag1007
asg331
(dp1014
g1007
g1008
ssg88
S'KfDrawingSurface'
p1015
sg89
Nsg334
(lp1016
sg90
I0
sg91
g92
sg336
(i__main__
DelphiBlock
p1017
(dp1018
g339
(idelphi
DelphiCompoundStatement
p1019
(dp1020
g342
(lp1021
(idelphi
DelphiIfStatement
p1022
(dp1023
g346
(idelphi
DelphiRelOp
p1024
(dp1025
g349
(i__main__
DelphiIdentAccess
p1026
(dp1027
g16
S'self'
p1028
sg353
(lp1029
(idelphi
DelphiFieldEndAccess
p1030
(dp1031
g357
S'pane'
p1032
sbasbsg359
(idelphi
DelphiNilValue
p1033
(dp1034
bsg362
S'='
sbsg363
Nsg364
(i__main__
DelphiExitStatement
p1035
(dp1036
g367
g1001
sbsba(idelphi
DelphiIfStatement
p1037
(dp1038
g346
(idelphi
DelphiNestedExpressionListAccess
p1039
(dp1040
g353
(lp1041
sg393
(lp1042
(i__main__
DelphiIdentAccess
p1043
(dp1044
g16
S'triangle'
p1045
sg353
(lp1046
(idelphi
DelphiFieldEndAccess
p1047
(dp1048
g357
S'isLine'
p1049
sbasbasbsg363
Nsg364
(idelphi
DelphiCompoundStatement
p1050
(dp1051
g342
(lp1052
(idelphi
DelphiTryExceptStatement
p1053
(dp1054
g373
(lp1055
(i__main__
DelphiAssignStatement
p1056
(dp1057
g377
(i__main__
DelphiIdentAccess
p1058
(dp1059
g16
S'round'
p1060
sg353
(lp1061
(idelphi
DelphiFunctionEndAccess
p1062
(dp1063
g393
(lp1064
(i__main__
DelphiIdentAccess
p1065
(dp1066
g16
S'triangle'
p1067
sg353
(lp1068
(idelphi
DelphiFieldEndAccess
p1069
(dp1070
g357
S'lineWidth'
p1071
sbasbasbasbsg402
(i__main__
DelphiIdentAccess
p1072
(dp1073
g16
S'self'
p1074
sg353
(lp1075
(idelphi
DelphiFieldEndAccess
p1076
(dp1077
g357
S'pane'
p1078
sba(idelphi
DelphiFieldEndAccess
p1079
(dp1080
g357
S'pen'
p1081
sba(idelphi
DelphiFieldEndAccess
p1082
(dp1083
g357
S'width'
p1084
sbasbsg368
(lp1085
S'draw line'
p1086
asba(i__main__
DelphiAssignStatement
p1087
(dp1088
g377
(i__main__
DelphiIdentAccess
p1089
(dp1090
g16
S'triangle'
p1091
sg353
(lp1092
(idelphi
DelphiFieldEndAccess
p1093
(dp1094
g357
S'lineColor'
p1095
sbasbsg402
(i__main__
DelphiIdentAccess
p1096
(dp1097
g16
S'self'
p1098
sg353
(lp1099
(idelphi
DelphiFieldEndAccess
p1100
(dp1101
g357
S'pane'
p1102
sba(idelphi
DelphiFieldEndAccess
p1103
(dp1104
g357
S'pen'
p1105
sba(idelphi
DelphiFieldEndAccess
p1106
(dp1107
g357
S'color'
p1108
sbasbsba(i__main__
DelphiAssignStatement
p1109
(dp1110
g377
(i__main__
DelphiIdentAccess
p1111
(dp1112
g16
S'psSolid'
p1113
sg353
(lp1114
sbsg402
(i__main__
DelphiIdentAccess
p1115
(dp1116
g16
S'self'
p1117
sg353
(lp1118
(idelphi
DelphiFieldEndAccess
p1119
(dp1120
g357
S'pane'
p1121
sba(idelphi
DelphiFieldEndAccess
p1122
(dp1123
g357
S'pen'
p1124
sba(idelphi
DelphiFieldEndAccess
p1125
(dp1126
g357
S'style'
p1127
sbasbsba(i__main__
DelphiAssignStatement
p1128
(dp1129
g377
(i__main__
DelphiIdentAccess
p1130
(dp1131
g16
S'triangle'
p1132
sg353
(lp1133
(idelphi
DelphiFieldEndAccess
p1134
(dp1135
g357
S'points'
p1136
sba(idelphi
DelphiArrayEndAccess
p1137
(dp1138
g393
(lp1139
(idelphi
DelphiIntegerValue
p1140
(dp1141
g14
S'0'
sbasbasbsg402
(i__main__
DelphiIdentAccess
p1142
(dp1143
g16
S'startPoint'
p1144
sg353
(lp1145
sbsba(i__main__
DelphiAssignStatement
p1146
(dp1147
g377
(i__main__
DelphiIdentAccess
p1148
(dp1149
g16
S'triangle'
p1150
sg353
(lp1151
(idelphi
DelphiFieldEndAccess
p1152
(dp1153
g357
S'points'
p1154
sba(idelphi
DelphiArrayEndAccess
p1155
(dp1156
g393
(lp1157
(idelphi
DelphiIntegerValue
p1158
(dp1159
g14
S'1'
sbasbasbsg402
(i__main__
DelphiIdentAccess
p1160
(dp1161
g16
S'endPoint'
p1162
sg353
(lp1163
sbsba(i__main__
DelphiAssignStatement
p1164
(dp1165
g377
Nsg402
(i__main__
DelphiIdentAccess
p1166
(dp1167
g16
S'self'
p1168
sg353
(lp1169
(idelphi
DelphiFieldEndAccess
p1170
(dp1171
g357
S'pane'
p1172
sba(idelphi
DelphiFieldEndAccess
p1173
(dp1174
g357
S'moveTo'
p1175
sba(idelphi
DelphiFunctionEndAccess
p1176
(dp1177
g393
(lp1178
(idelphi
DelphiMulOp
p1179
(dp1180
g380
(idelphi
DelphiIntegerValue
p1181
(dp1182
g14
S'32767'
p1183
sbsg384
g385
sg386
(i__main__
DelphiIdentAccess
p1184
(dp1185
g16
S'round'
p1186
sg353
(lp1187
(idelphi
DelphiFunctionEndAccess
p1188
(dp1189
g393
(lp1190
(i__main__
DelphiIdentAccess
p1191
(dp1192
g16
S'startPoint'
p1193
sg353
(lp1194
(idelphi
DelphiFieldEndAccess
p1195
(dp1196
g357
S'x'
sbasbasbasbsba(idelphi
DelphiMulOp
p1197
(dp1198
g380
(idelphi
DelphiIntegerValue
p1199
(dp1200
g14
S'32767'
p1201
sbsg384
g385
sg386
(i__main__
DelphiIdentAccess
p1202
(dp1203
g16
S'round'
p1204
sg353
(lp1205
(idelphi
DelphiFunctionEndAccess
p1206
(dp1207
g393
(lp1208
(i__main__
DelphiIdentAccess
p1209
(dp1210
g16
S'startPoint'
p1211
sg353
(lp1212
(idelphi
DelphiFieldEndAccess
p1213
(dp1214
g357
S'y'
sbasbasbasbsbasbasbsba(i__main__
DelphiAssignStatement
p1215
(dp1216
g377
Nsg402
(i__main__
DelphiIdentAccess
p1217
(dp1218
g16
S'self'
p1219
sg353
(lp1220
(idelphi
DelphiFieldEndAccess
p1221
(dp1222
g357
S'pane'
p1223
sba(idelphi
DelphiFieldEndAccess
p1224
(dp1225
g357
S'lineTo'
p1226
sba(idelphi
DelphiFunctionEndAccess
p1227
(dp1228
g393
(lp1229
(idelphi
DelphiMulOp
p1230
(dp1231
g380
(idelphi
DelphiIntegerValue
p1232
(dp1233
g14
S'32767'
p1234
sbsg384
g385
sg386
(i__main__
DelphiIdentAccess
p1235
(dp1236
g16
S'round'
p1237
sg353
(lp1238
(idelphi
DelphiFunctionEndAccess
p1239
(dp1240
g393
(lp1241
(i__main__
DelphiIdentAccess
p1242
(dp1243
g16
S'endPoint'
p1244
sg353
(lp1245
(idelphi
DelphiFieldEndAccess
p1246
(dp1247
g357
S'x'
sbasbasbasbsba(idelphi
DelphiMulOp
p1248
(dp1249
g380
(idelphi
DelphiIntegerValue
p1250
(dp1251
g14
S'32767'
p1252
sbsg384
g385
sg386
(i__main__
DelphiIdentAccess
p1253
(dp1254
g16
S'round'
p1255
sg353
(lp1256
(idelphi
DelphiFunctionEndAccess
p1257
(dp1258
g393
(lp1259
(i__main__
DelphiIdentAccess
p1260
(dp1261
g16
S'endPoint'
p1262
sg353
(lp1263
(idelphi
DelphiFieldEndAccess
p1264
(dp1265
g357
S'y'
sbasbasbasbsbasbasbsbasg559
(idelphi
DelphiExceptionHandlers
p1266
(dp1267
g562
Nsg563
(lp1268
sbsg368
(lp1269
S'do nothing if round fails or assign to integer fails'
p1270
asba(i__main__
DelphiExitStatement
p1271
(dp1272
g367
g1001
sbasbsba(idelphi
DelphiForStatement
p1273
(dp1274
g657
S'i'
sg658
(idelphi
DelphiIntegerValue
p1275
(dp1276
g14
S'3'
sbsg663
g664
sg70
(idelphi
DelphiIntegerValue
p1277
(dp1278
g14
S'0'
sbsg667
(idelphi
DelphiCompoundStatement
p1279
(dp1280
g342
(lp1281
(idelphi
DelphiIfStatement
p1282
(dp1283
g346
(idelphi
DelphiRelOp
p1284
(dp1285
g349
(i__main__
DelphiIdentAccess
p1286
(dp1287
g16
S'i'
sg353
(lp1288
sbsg359
(idelphi
DelphiIntegerValue
p1289
(dp1290
g14
S'3'
sbsg362
S'<'
sbsg363
(i__main__
DelphiAssignStatement
p1291
(dp1292
g377
(i__main__
DelphiIdentAccess
p1293
(dp1294
g16
S'triangle'
p1295
sg353
(lp1296
(idelphi
DelphiFieldEndAccess
p1297
(dp1298
g357
S'points'
p1299
sba(idelphi
DelphiArrayEndAccess
p1300
(dp1301
g393
(lp1302
(idelphi
DelphiIntegerValue
p1303
(dp1304
g14
S'0'
sbasbasbsg402
(i__main__
DelphiIdentAccess
p1305
(dp1306
g16
S'aPoint'
p1307
sg353
(lp1308
sbsbsg364
(i__main__
DelphiAssignStatement
p1309
(dp1310
g377
(i__main__
DelphiIdentAccess
p1311
(dp1312
g16
S'triangle'
p1313
sg353
(lp1314
(idelphi
DelphiFieldEndAccess
p1315
(dp1316
g357
S'points'
p1317
sba(idelphi
DelphiArrayEndAccess
p1318
(dp1319
g393
(lp1320
(i__main__
DelphiIdentAccess
p1321
(dp1322
g16
S'i'
sg353
(lp1323
sbasbasbsg402
(i__main__
DelphiIdentAccess
p1324
(dp1325
g16
S'aPoint'
p1326
sg353
(lp1327
sbsg368
(lp1328
S' make last point same as first for drawing lines around whole polygon\r'
p1329
asbsba(idelphi
DelphiTryExceptStatement
p1330
(dp1331
g373
(lp1332
(i__main__
DelphiAssignStatement
p1333
(dp1334
g377
(idelphi
DelphiMulOp
p1335
(dp1336
g380
(idelphi
DelphiIntegerValue
p1337
(dp1338
g14
S'32767'
p1339
sbsg384
g385
sg386
(i__main__
DelphiIdentAccess
p1340
(dp1341
g16
S'round'
p1342
sg353
(lp1343
(idelphi
DelphiFunctionEndAccess
p1344
(dp1345
g393
(lp1346
(i__main__
DelphiIdentAccess
p1347
(dp1348
g16
S'aPoint'
p1349
sg353
(lp1350
(idelphi
DelphiFieldEndAccess
p1351
(dp1352
g357
S'x'
sbasbasbasbsbsg402
(i__main__
DelphiIdentAccess
p1353
(dp1354
g16
S'pointArray'
p1355
sg353
(lp1356
(idelphi
DelphiArrayEndAccess
p1357
(dp1358
g393
(lp1359
(i__main__
DelphiIdentAccess
p1360
(dp1361
g16
S'i'
sg353
(lp1362
sbasba(idelphi
DelphiFieldEndAccess
p1363
(dp1364
g357
S'x'
sbasbsba(i__main__
DelphiAssignStatement
p1365
(dp1366
g377
(idelphi
DelphiMulOp
p1367
(dp1368
g380
(idelphi
DelphiIntegerValue
p1369
(dp1370
g14
S'32767'
p1371
sbsg384
g385
sg386
(i__main__
DelphiIdentAccess
p1372
(dp1373
g16
S'round'
p1374
sg353
(lp1375
(idelphi
DelphiFunctionEndAccess
p1376
(dp1377
g393
(lp1378
(i__main__
DelphiIdentAccess
p1379
(dp1380
g16
S'aPoint'
p1381
sg353
(lp1382
(idelphi
DelphiFieldEndAccess
p1383
(dp1384
g357
S'y'
sbasbasbasbsbsg402
(i__main__
DelphiIdentAccess
p1385
(dp1386
g16
S'pointArray'
p1387
sg353
(lp1388
(idelphi
DelphiArrayEndAccess
p1389
(dp1390
g393
(lp1391
(i__main__
DelphiIdentAccess
p1392
(dp1393
g16
S'i'
sg353
(lp1394
sbasba(idelphi
DelphiFieldEndAccess
p1395
(dp1396
g357
S'y'
sbasbsbasg559
(idelphi
DelphiExceptionHandlers
p1397
(dp1398
g562
Nsg563
(lp1399
(i__main__
DelphiAssignStatement
p1400
(dp1401
g377
(idelphi
DelphiIntegerValue
p1402
(dp1403
g14
S'32767'
p1404
sbsg402
(i__main__
DelphiIdentAccess
p1405
(dp1406
g16
S'pointArray'
p1407
sg353
(lp1408
(idelphi
DelphiArrayEndAccess
p1409
(dp1410
g393
(lp1411
(i__main__
DelphiIdentAccess
p1412
(dp1413
g16
S'i'
sg353
(lp1414
sbasba(idelphi
DelphiFieldEndAccess
p1415
(dp1416
g357
S'x'
sbasbsg368
(lp1417
S'maybe could test sign to put in negative big numbers? watch out for NaNs!'
p1418
asba(i__main__
DelphiAssignStatement
p1419
(dp1420
g377
(idelphi
DelphiIntegerValue
p1421
(dp1422
g14
S'32767'
p1423
sbsg402
(i__main__
DelphiIdentAccess
p1424
(dp1425
g16
S'pointArray'
p1426
sg353
(lp1427
(idelphi
DelphiArrayEndAccess
p1428
(dp1429
g393
(lp1430
(i__main__
DelphiIdentAccess
p1431
(dp1432
g16
S'i'
sg353
(lp1433
sbasba(idelphi
DelphiFieldEndAccess
p1434
(dp1435
g357
S'y'
sbasbsbasbsbasbsba(i__main__
DelphiAssignStatement
p1436
(dp1437
g377
(i__main__
DelphiIdentAccess
p1438
(dp1439
g16
S'psSolid'
p1440
sg353
(lp1441
sbsg402
(i__main__
DelphiIdentAccess
p1442
(dp1443
g16
S'self'
p1444
sg353
(lp1445
(idelphi
DelphiFieldEndAccess
p1446
(dp1447
g357
S'pane'
p1448
sba(idelphi
DelphiFieldEndAccess
p1449
(dp1450
g357
S'pen'
p1451
sba(idelphi
DelphiFieldEndAccess
p1452
(dp1453
g357
S'style'
p1454
sbasbsba(i__main__
DelphiAssignStatement
p1455
(dp1456
g377
(i__main__
DelphiIdentAccess
p1457
(dp1458
g16
S'triangle'
p1459
sg353
(lp1460
(idelphi
DelphiFieldEndAccess
p1461
(dp1462
g357
S'visibleSurfaceColor'
p1463
sbasbsg402
(i__main__
DelphiIdentAccess
p1464
(dp1465
g16
S'self'
p1466
sg353
(lp1467
(idelphi
DelphiFieldEndAccess
p1468
(dp1469
g357
S'pane'
p1470
sba(idelphi
DelphiFieldEndAccess
p1471
(dp1472
g357
S'brush'
p1473
sba(idelphi
DelphiFieldEndAccess
p1474
(dp1475
g357
S'color'
p1476
sbasbsba(idelphi
DelphiIfStatement
p1477
(dp1478
g346
(i__main__
DelphiIdentAccess
p1479
(dp1480
g16
S'self'
p1481
sg353
(lp1482
(idelphi
DelphiFieldEndAccess
p1483
(dp1484
g357
S'drawingLines'
p1485
sbasbsg363
(i__main__
DelphiAssignStatement
p1486
(dp1487
g377
(i__main__
DelphiIdentAccess
p1488
(dp1489
g16
S'triangle'
p1490
sg353
(lp1491
(idelphi
DelphiFieldEndAccess
p1492
(dp1493
g357
S'visibleSurfaceColor'
p1494
sbasbsg402
(i__main__
DelphiIdentAccess
p1495
(dp1496
g16
S'self'
p1497
sg353
(lp1498
(idelphi
DelphiFieldEndAccess
p1499
(dp1500
g357
S'pane'
p1501
sba(idelphi
DelphiFieldEndAccess
p1502
(dp1503
g357
S'pen'
p1504
sba(idelphi
DelphiFieldEndAccess
p1505
(dp1506
g357
S'color'
p1507
sbasbsbsg364
(idelphi
DelphiCompoundStatement
p1508
(dp1509
g342
(lp1510
(idelphi
DelphiIfStatement
p1511
(dp1512
g346
(i__main__
DelphiIdentAccess
p1513
(dp1514
g16
S'fillingTriangles'
p1515
sg353
(lp1516
sbsg363
(i__main__
DelphiAssignStatement
p1517
(dp1518
g377
(i__main__
DelphiIdentAccess
p1519
(dp1520
g16
S'triangle'
p1521
sg353
(lp1522
(idelphi
DelphiFieldEndAccess
p1523
(dp1524
g357
S'visibleSurfaceColor'
p1525
sbasbsg402
(i__main__
DelphiIdentAccess
p1526
(dp1527
g16
S'self'
p1528
sg353
(lp1529
(idelphi
DelphiFieldEndAccess
p1530
(dp1531
g357
S'pane'
p1532
sba(idelphi
DelphiFieldEndAccess
p1533
(dp1534
g357
S'pen'
p1535
sba(idelphi
DelphiFieldEndAccess
p1536
(dp1537
g357
S'color'
p1538
sbasbsbsg364
(i__main__
DelphiAssignStatement
p1539
(dp1540
g377
(i__main__
DelphiIdentAccess
p1541
(dp1542
g16
S'triangle'
p1543
sg353
(lp1544
(idelphi
DelphiFieldEndAccess
p1545
(dp1546
g357
S'drawLinesColor'
p1547
sba(idelphi
DelphiFunctionEndAccess
p1548
(dp1549
g393
(lp1550
(i__main__
DelphiIdentAccess
p1551
(dp1552
g16
S'lineContrastIndex'
p1553
sg353
(lp1554
sbasbasbsg402
(i__main__
DelphiIdentAccess
p1555
(dp1556
g16
S'self'
p1557
sg353
(lp1558
(idelphi
DelphiFieldEndAccess
p1559
(dp1560
g357
S'pane'
p1561
sba(idelphi
DelphiFieldEndAccess
p1562
(dp1563
g357
S'pen'
p1564
sba(idelphi
DelphiFieldEndAccess
p1565
(dp1566
g357
S'color'
p1567
sbasbsbsbasbsba(i__main__
DelphiAssignStatement
p1568
(dp1569
g377
(idelphi
DelphiIntegerValue
p1570
(dp1571
g14
S'1'
sbsg402
(i__main__
DelphiIdentAccess
p1572
(dp1573
g16
S'self'
p1574
sg353
(lp1575
(idelphi
DelphiFieldEndAccess
p1576
(dp1577
g357
S'pane'
p1578
sba(idelphi
DelphiFieldEndAccess
p1579
(dp1580
g357
S'pen'
p1581
sba(idelphi
DelphiFieldEndAccess
p1582
(dp1583
g357
S'width'
p1584
sbasbsba(idelphi
DelphiIfStatement
p1585
(dp1586
g346
(i__main__
DelphiIdentAccess
p1587
(dp1588
g16
S'fillingTriangles'
p1589
sg353
(lp1590
sbsg363
(i__main__
DelphiAssignStatement
p1591
(dp1592
g377
Nsg402
(i__main__
DelphiIdentAccess
p1593
(dp1594
g16
S'self'
p1595
sg353
(lp1596
(idelphi
DelphiFieldEndAccess
p1597
(dp1598
g357
S'pane'
p1599
sba(idelphi
DelphiFieldEndAccess
p1600
(dp1601
g357
S'polyLine'
p1602
sba(idelphi
DelphiFunctionEndAccess
p1603
(dp1604
g393
(lp1605
(i__main__
DelphiIdentAccess
p1606
(dp1607
g16
S'pointArray'
p1608
sg353
(lp1609
sbasbasbsbsg364
(i__main__
DelphiAssignStatement
p1610
(dp1611
g377
Nsg402
(i__main__
DelphiIdentAccess
p1612
(dp1613
g16
S'self'
p1614
sg353
(lp1615
(idelphi
DelphiFieldEndAccess
p1616
(dp1617
g357
S'pane'
p1618
sba(idelphi
DelphiFieldEndAccess
p1619
(dp1620
g357
S'polygon'
p1621
sba(idelphi
DelphiFunctionEndAccess
p1622
(dp1623
g393
(lp1624
(i__main__
DelphiIdentAccess
p1625
(dp1626
g16
S'pointArray'
p1627
sg353
(lp1628
sbasbasbsbsba(idelphi
DelphiIfStatement
p1629
(dp1630
g346
(i__main__
DelphiIdentAccess
p1631
(dp1632
g16
S'self'
p1633
sg353
(lp1634
(idelphi
DelphiFieldEndAccess
p1635
(dp1636
g357
S'circlingPoints'
p1637
sbasbsg363
Nsg364
(idelphi
DelphiCompoundStatement
p1638
(dp1639
g342
(lp1640
(i__main__
DelphiAssignStatement
p1641
(dp1642
g377
(i__main__
DelphiIdentAccess
p1643
(dp1644
g16
S'circleColor'
p1645
sg353
(lp1646
sbsg402
(i__main__
DelphiIdentAccess
p1647
(dp1648
g16
S'self'
p1649
sg353
(lp1650
(idelphi
DelphiFieldEndAccess
p1651
(dp1652
g357
S'pane'
p1653
sba(idelphi
DelphiFieldEndAccess
p1654
(dp1655
g357
S'pen'
p1656
sba(idelphi
DelphiFieldEndAccess
p1657
(dp1658
g357
S'color'
p1659
sbasbsba(i__main__
DelphiAssignStatement
p1660
(dp1661
g377
(i__main__
DelphiIdentAccess
p1662
(dp1663
g16
S'circleColor'
p1664
sg353
(lp1665
sbsg402
(i__main__
DelphiIdentAccess
p1666
(dp1667
g16
S'self'
p1668
sg353
(lp1669
(idelphi
DelphiFieldEndAccess
p1670
(dp1671
g357
S'pane'
p1672
sba(idelphi
DelphiFieldEndAccess
p1673
(dp1674
g357
S'brush'
p1675
sba(idelphi
DelphiFieldEndAccess
p1676
(dp1677
g357
S'color'
p1678
sbasbsba(idelphi
DelphiForStatement
p1679
(dp1680
g657
S'i'
sg658
(idelphi
DelphiIntegerValue
p1681
(dp1682
g14
S'2'
sbsg663
g664
sg70
(idelphi
DelphiIntegerValue
p1683
(dp1684
g14
S'0'
sbsg667
(i__main__
DelphiAssignStatement
p1685
(dp1686
g377
Nsg402
(i__main__
DelphiIdentAccess
p1687
(dp1688
g16
S'self'
p1689
sg353
(lp1690
(idelphi
DelphiFieldEndAccess
p1691
(dp1692
g357
S'pane'
p1693
sba(idelphi
DelphiFieldEndAccess
p1694
(dp1695
g357
S'ellipse'
p1696
sba(idelphi
DelphiFunctionEndAccess
p1697
(dp1698
g393
(lp1699
(idelphi
DelphiAddOp
p1700
(dp1701
g731
S'-'
sg732
(i__main__
DelphiIdentAccess
p1702
(dp1703
g16
S'circlePointRadius'
p1704
sg353
(lp1705
sbsg735
(i__main__
DelphiIdentAccess
p1706
(dp1707
g16
S'pointArray'
p1708
sg353
(lp1709
(idelphi
DelphiArrayEndAccess
p1710
(dp1711
g393
(lp1712
(i__main__
DelphiIdentAccess
p1713
(dp1714
g16
S'i'
sg353
(lp1715
sbasba(idelphi
DelphiFieldEndAccess
p1716
(dp1717
g357
S'x'
sbasbsba(idelphi
DelphiAddOp
p1718
(dp1719
g731
S'-'
sg732
(i__main__
DelphiIdentAccess
p1720
(dp1721
g16
S'circlePointRadius'
p1722
sg353
(lp1723
sbsg735
(i__main__
DelphiIdentAccess
p1724
(dp1725
g16
S'pointArray'
p1726
sg353
(lp1727
(idelphi
DelphiArrayEndAccess
p1728
(dp1729
g393
(lp1730
(i__main__
DelphiIdentAccess
p1731
(dp1732
g16
S'i'
sg353
(lp1733
sbasba(idelphi
DelphiFieldEndAccess
p1734
(dp1735
g357
S'y'
sbasbsba(idelphi
DelphiAddOp
p1736
(dp1737
g731
S'+'
sg732
(i__main__
DelphiIdentAccess
p1738
(dp1739
g16
S'circlePointRadius'
p1740
sg353
(lp1741
sbsg735
(i__main__
DelphiIdentAccess
p1742
(dp1743
g16
S'pointArray'
p1744
sg353
(lp1745
(idelphi
DelphiArrayEndAccess
p1746
(dp1747
g393
(lp1748
(i__main__
DelphiIdentAccess
p1749
(dp1750
g16
S'i'
sg353
(lp1751
sbasba(idelphi
DelphiFieldEndAccess
p1752
(dp1753
g357
S'x'
sbasbsba(idelphi
DelphiAddOp
p1754
(dp1755
g731
S'+'
sg732
(i__main__
DelphiIdentAccess
p1756
(dp1757
g16
S'circlePointRadius'
p1758
sg353
(lp1759
sbsg735
(i__main__
DelphiIdentAccess
p1760
(dp1761
g16
S'pointArray'
p1762
sg353
(lp1763
(idelphi
DelphiArrayEndAccess
p1764
(dp1765
g393
(lp1766
(i__main__
DelphiIdentAccess
p1767
(dp1768
g16
S'i'
sg353
(lp1769
sbasba(idelphi
DelphiFieldEndAccess
p1770
(dp1771
g357
S'y'
sbasbsbasbasbsbsbasbsbasbsg567
(lp1772
(i__main__
DelphiVarSection
p1773
(dp1774
g23
I0
sg692
(lp1775
(idelphi
DelphiVarDecl
p1776
(dp1777
g11
Nsg696
(lp1778
S'startPoint'
p1779
asg18
(i__main__
DelphiNamedType
p1780
(dp1781
g21
S'KfPoint3D'
p1782
sg77
g1
sg78
Nsbsba(idelphi
DelphiVarDecl
p1783
(dp1784
g11
Nsg696
(lp1785
S'endPoint'
p1786
asg18
(i__main__
DelphiNamedType
p1787
(dp1788
g21
S'KfPoint3D'
p1789
sg77
g1
sg78
Nsbsba(idelphi
DelphiVarDecl
p1790
(dp1791
g11
Nsg696
(lp1792
S'aPoint'
p1793
asg18
(i__main__
DelphiNamedType
p1794
(dp1795
g21
S'KfPoint3D'
p1796
sg77
g1
sg78
Nsbsba(idelphi
DelphiVarDecl
p1797
(dp1798
g11
Nsg696
(lp1799
S'pointArray'
p1800
asg18
(i__main__
DelphiArrayType
p1801
(dp1802
g18
(i__main__
DelphiNamedType
p1803
(dp1804
g21
S'TPoint'
p1805
sg77
g1
sg78
NsbsS'sizes'
p1806
(lp1807
(idelphi
DelphiSubrange
p1808
(dp1809
S'high'
p1810
(idelphi
DelphiIntegerValue
p1811
(dp1812
g14
S'3'
sbsS'low'
p1813
(idelphi
DelphiIntegerValue
p1814
(dp1815
g14
S'0'
sbsg58
S''
sbasbsba(idelphi
DelphiVarDecl
p1816
(dp1817
g11
Nsg696
(lp1818
S'i'
asg18
(i__main__
DelphiPrimitiveType
p1819
(dp1820
g21
g185
sbsbasbasbsg368
(lp1821
S'pdf - draw the triangle object - assume it is reasonably flat"\r'
p1822
aS'{can only draw triangles for now'
p1823
aS'needs fixed size for array - would need to allocate for variable sizes'
p1824
aS'or could use direct windows triangle call and larger array but pass number of points'
p1825
aS'terminology is different: drawing surface frontColor is pen line color'
p1826
aS'and drawing surface backColor (which should be back-facing triangle) is fill color"'
p1827
aS'restricting range of coordingates to 32767 to prevent possible out of range errors when drawing'
p1828
asbsS'cleartriangles'
p1829
(i__main__
DelphiMethodImplementation
p1830
(dp1831
g308
g165
sg58
g167
sg66
(lp1832
sg324
(lp1833
sg326
(lp1834
sg328
(lp1835
g330
asg331
(dp1836
sg88
S'KfDrawingSurface'
p1837
sg89
Nsg334
(lp1838
sg90
I0
sg91
g92
sg336
(i__main__
DelphiBlock
p1839
(dp1840
g339
(idelphi
DelphiCompoundStatement
p1841
(dp1842
g342
(lp1843
(idelphi
DelphiForStatement
p1844
(dp1845
g657
S'i'
sg658
(idelphi
DelphiAddOp
p1846
(dp1847
g731
S'-'
sg732
(idelphi
DelphiIntegerValue
p1848
(dp1849
g14
S'1'
sbsg735
(i__main__
DelphiIdentAccess
p1850
(dp1851
g16
S'numTrianglesUsed'
p1852
sg353
(lp1853
sbsbsg663
g664
sg70
(idelphi
DelphiIntegerValue
p1854
(dp1855
g14
S'0'
sbsg667
(i__main__
DelphiAssignStatement
p1856
(dp1857
g377
(idelphi
DelphiNilValue
p1858
(dp1859
bsg402
(i__main__
DelphiIdentAccess
p1860
(dp1861
g16
S'KfTriangle'
p1862
sg353
(lp1863
(idelphi
DelphiFunctionEndAccess
p1864
(dp1865
g393
(lp1866
(i__main__
DelphiIdentAccess
p1867
(dp1868
g16
S'triangles'
p1869
sg353
(lp1870
(idelphi
DelphiFieldEndAccess
p1871
(dp1872
g357
S'items'
p1873
sba(idelphi
DelphiArrayEndAccess
p1874
(dp1875
g393
(lp1876
(i__main__
DelphiIdentAccess
p1877
(dp1878
g16
S'i'
sg353
(lp1879
sbasbasbasba(idelphi
DelphiFieldEndAccess
p1880
(dp1881
g357
S'tdo'
p1882
sbasbsbsba(i__main__
DelphiAssignStatement
p1883
(dp1884
g377
(idelphi
DelphiIntegerValue
p1885
(dp1886
g14
S'0'
sbsg402
(i__main__
DelphiIdentAccess
p1887
(dp1888
g16
S'numTrianglesUsed'
p1889
sg353
(lp1890
sbsbasbsg567
(lp1891
(i__main__
DelphiVarSection
p1892
(dp1893
g23
I0
sg692
(lp1894
(idelphi
DelphiVarDecl
p1895
(dp1896
g11
Nsg696
(lp1897
S'i'
asg18
(i__main__
DelphiPrimitiveType
p1898
(dp1899
g21
g235
sbsbasbasbsg368
(lp1900
S' ----------------------------------------------------------------------------- KfDrawingSurface managing triangles '
p1901
asbsS'recordingstart'
p1902
(i__main__
DelphiMethodImplementation
p1903
(dp1904
g308
g217
sg58
g219
sg66
(lp1905
sg324
(lp1906
sg326
(lp1907
sg328
(lp1908
g330
asg331
(dp1909
sg88
S'KfDrawingSurface'
p1910
sg89
Nsg334
(lp1911
sg90
I0
sg91
g92
sg336
(i__main__
DelphiBlock
p1912
(dp1913
g339
(idelphi
DelphiCompoundStatement
p1914
(dp1915
g342
(lp1916
(i__main__
DelphiAssignStatement
p1917
(dp1918
g377
Nsg402
(i__main__
DelphiIdentAccess
p1919
(dp1920
g16
S'self'
p1921
sg353
(lp1922
(idelphi
DelphiFieldEndAccess
p1923
(dp1924
g357
S'clearTriangles'
p1925
sbasbsba(i__main__
DelphiAssignStatement
p1926
(dp1927
g377
(i__main__
DelphiIdentAccess
p1928
(dp1929
g16
S'true'
p1930
sg353
(lp1931
sbsg402
(i__main__
DelphiIdentAccess
p1932
(dp1933
g16
S'recording'
p1934
sg353
(lp1935
sbsbasbsg567
(lp1936
sbsg368
(lp1937
S' ----------------------------------------------------------------------------- KfDrawingSurface recording '
p1938
asbsS'recordingdraw'
p1939
(i__main__
DelphiMethodImplementation
p1940
(dp1941
g308
g170
sg58
g172
sg66
(lp1942
sg324
(lp1943
sg326
(lp1944
sg328
(lp1945
g330
asg331
(dp1946
sg88
S'KfDrawingSurface'
p1947
sg89
Nsg334
(lp1948
sg90
I0
sg91
g92
sg336
(i__main__
DelphiBlock
p1949
(dp1950
g339
(idelphi
DelphiCompoundStatement
p1951
(dp1952
g342
(lp1953
(i__main__
DelphiAssignStatement
p1954
(dp1955
g377
Nsg402
(i__main__
DelphiIdentAccess
p1956
(dp1957
g16
S'self'
p1958
sg353
(lp1959
(idelphi
DelphiFieldEndAccess
p1960
(dp1961
g357
S'sortTrianglesConsideringTdos'
p1962
sbasbsba(i__main__
DelphiAssignStatement
p1963
(dp1964
g377
Nsg402
(i__main__
DelphiIdentAccess
p1965
(dp1966
g16
S'self'
p1967
sg353
(lp1968
(idelphi
DelphiFieldEndAccess
p1969
(dp1970
g357
S'trianglesDraw'
p1971
sbasbsbasbsg567
(lp1972
sbsbsS'plantpartidforpoint'
p1973
(i__main__
DelphiMethodImplementation
p1974
(dp1975
g308
g222
sg58
g224
sg66
(lp1976
(i__main__
DelphiFormalParameter
p1977
(dp1978
g70
Nsg71
(lp1979
S'point'
p1980
asg18
(i__main__
DelphiNamedType
p1981
(dp1982
g21
S'TPoint'
p1983
sg77
g1
sg78
Nsbsg79
Nsbasg324
(lp1984
sg326
(lp1985
sg328
(lp1986
g330
ag1980
asg331
(dp1987
g1980
g1981
ssg88
S'KfDrawingSurface'
p1988
sg89
(i__main__
DelphiPrimitiveType
p1989
(dp1990
g21
g235
sbsg334
(lp1991
sg90
I0
sg91
g163
sg336
(i__main__
DelphiBlock
p1992
(dp1993
g339
(idelphi
DelphiCompoundStatement
p1994
(dp1995
g342
(lp1996
(i__main__
DelphiAssignStatement
p1997
(dp1998
g377
(i__main__
DelphiIdentAccess
p1999
(dp2000
g16
S'point'
p2001
sg353
(lp2002
(idelphi
DelphiFieldEndAccess
p2003
(dp2004
g357
S'x'
sbasbsg402
(i__main__
DelphiIdentAccess
p2005
(dp2006
g16
S'x'
sg353
(lp2007
sbsba(i__main__
DelphiAssignStatement
p2008
(dp2009
g377
(i__main__
DelphiIdentAccess
p2010
(dp2011
g16
S'point'
p2012
sg353
(lp2013
(idelphi
DelphiFieldEndAccess
p2014
(dp2015
g357
S'y'
sbasbsg402
(i__main__
DelphiIdentAccess
p2016
(dp2017
g16
S'y'
sg353
(lp2018
sbsba(i__main__
DelphiAssignStatement
p2019
(dp2020
g377
(idelphi
DelphiSign
p2021
(dp2022
S'factor'
p2023
(idelphi
DelphiIntegerValue
p2024
(dp2025
g14
S'1'
sbsS'sign'
p2026
S'-'
sbsg402
(i__main__
DelphiIdentAccess
p2027
(dp2028
g16
S'result'
p2029
sg353
(lp2030
sbsba(i__main__
DelphiAssignStatement
p2031
(dp2032
g377
(idelphi
DelphiIntegerValue
p2033
(dp2034
g14
S'0'
sbsg402
(i__main__
DelphiIdentAccess
p2035
(dp2036
g16
S'closestDistanceSoFar'
p2037
sg353
(lp2038
sbsba(i__main__
DelphiAssignStatement
p2039
(dp2040
g377
(idelphi
DelphiSign
p2041
(dp2042
g2023
(idelphi
DelphiIntegerValue
p2043
(dp2044
g14
S'1'
sbsg2026
S'-'
sbsg402
(i__main__
DelphiIdentAccess
p2045
(dp2046
g16
S'closestPartID'
p2047
sg353
(lp2048
sbsba(idelphi
DelphiForStatement
p2049
(dp2050
g657
S'i'
sg658
(idelphi
DelphiAddOp
p2051
(dp2052
g731
S'-'
sg732
(idelphi
DelphiIntegerValue
p2053
(dp2054
g14
S'1'
sbsg735
(i__main__
DelphiIdentAccess
p2055
(dp2056
g16
S'triangles'
p2057
sg353
(lp2058
(idelphi
DelphiFieldEndAccess
p2059
(dp2060
g357
S'count'
p2061
sbasbsbsg663
g664
sg70
(idelphi
DelphiIntegerValue
p2062
(dp2063
g14
S'0'
sbsg667
(idelphi
DelphiCompoundStatement
p2064
(dp2065
g342
(lp2066
(i__main__
DelphiAssignStatement
p2067
(dp2068
g377
(i__main__
DelphiIdentAccess
p2069
(dp2070
g16
S'KfTriangle'
p2071
sg353
(lp2072
(idelphi
DelphiFunctionEndAccess
p2073
(dp2074
g393
(lp2075
(i__main__
DelphiIdentAccess
p2076
(dp2077
g16
S'triangles'
p2078
sg353
(lp2079
(idelphi
DelphiFieldEndAccess
p2080
(dp2081
g357
S'items'
p2082
sba(idelphi
DelphiArrayEndAccess
p2083
(dp2084
g393
(lp2085
(i__main__
DelphiIdentAccess
p2086
(dp2087
g16
S'i'
sg353
(lp2088
sbasbasbasbasbsg402
(i__main__
DelphiIdentAccess
p2089
(dp2090
g16
S'triangle'
p2091
sg353
(lp2092
sbsba(idelphi
DelphiIfStatement
p2093
(dp2094
g346
(i__main__
DelphiIdentAccess
p2095
(dp2096
g16
S'triangle'
p2097
sg353
(lp2098
(idelphi
DelphiFieldEndAccess
p2099
(dp2100
g357
S'isLine'
p2101
sbasbsg363
(idelphi
DelphiCompoundStatement
p2102
(dp2103
g342
(lp2104
(i__main__
DelphiAssignStatement
p2105
(dp2106
g377
(i__main__
DelphiIdentAccess
p2107
(dp2108
g16
S'round'
p2109
sg353
(lp2110
(idelphi
DelphiFunctionEndAccess
p2111
(dp2112
g393
(lp2113
(i__main__
DelphiIdentAccess
p2114
(dp2115
g16
S'triangle'
p2116
sg353
(lp2117
(idelphi
DelphiFieldEndAccess
p2118
(dp2119
g357
S'points'
p2120
sba(idelphi
DelphiArrayEndAccess
p2121
(dp2122
g393
(lp2123
(idelphi
DelphiIntegerValue
p2124
(dp2125
g14
S'0'
sbasba(idelphi
DelphiFieldEndAccess
p2126
(dp2127
g357
S'x'
sbasbasbasbsg402
(i__main__
DelphiIdentAccess
p2128
(dp2129
g16
S'points'
p2130
sg353
(lp2131
(idelphi
DelphiArrayEndAccess
p2132
(dp2133
g393
(lp2134
(idelphi
DelphiIntegerValue
p2135
(dp2136
g14
S'0'
sbasba(idelphi
DelphiFieldEndAccess
p2137
(dp2138
g357
S'x'
sbasbsba(i__main__
DelphiAssignStatement
p2139
(dp2140
g377
(i__main__
DelphiIdentAccess
p2141
(dp2142
g16
S'round'
p2143
sg353
(lp2144
(idelphi
DelphiFunctionEndAccess
p2145
(dp2146
g393
(lp2147
(i__main__
DelphiIdentAccess
p2148
(dp2149
g16
S'triangle'
p2150
sg353
(lp2151
(idelphi
DelphiFieldEndAccess
p2152
(dp2153
g357
S'points'
p2154
sba(idelphi
DelphiArrayEndAccess
p2155
(dp2156
g393
(lp2157
(idelphi
DelphiIntegerValue
p2158
(dp2159
g14
S'0'
sbasba(idelphi
DelphiFieldEndAccess
p2160
(dp2161
g357
S'y'
sbasbasbasbsg402
(i__main__
DelphiIdentAccess
p2162
(dp2163
g16
S'points'
p2164
sg353
(lp2165
(idelphi
DelphiArrayEndAccess
p2166
(dp2167
g393
(lp2168
(idelphi
DelphiIntegerValue
p2169
(dp2170
g14
S'0'
sbasba(idelphi
DelphiFieldEndAccess
p2171
(dp2172
g357
S'y'
sbasbsba(i__main__
DelphiAssignStatement
p2173
(dp2174
g377
(i__main__
DelphiIdentAccess
p2175
(dp2176
g16
S'round'
p2177
sg353
(lp2178
(idelphi
DelphiFunctionEndAccess
p2179
(dp2180
g393
(lp2181
(i__main__
DelphiIdentAccess
p2182
(dp2183
g16
S'triangle'
p2184
sg353
(lp2185
(idelphi
DelphiFieldEndAccess
p2186
(dp2187
g357
S'points'
p2188
sba(idelphi
DelphiArrayEndAccess
p2189
(dp2190
g393
(lp2191
(idelphi
DelphiIntegerValue
p2192
(dp2193
g14
S'1'
sbasba(idelphi
DelphiFieldEndAccess
p2194
(dp2195
g357
S'x'
sbasbasbasbsg402
(i__main__
DelphiIdentAccess
p2196
(dp2197
g16
S'points'
p2198
sg353
(lp2199
(idelphi
DelphiArrayEndAccess
p2200
(dp2201
g393
(lp2202
(idelphi
DelphiIntegerValue
p2203
(dp2204
g14
S'1'
sbasba(idelphi
DelphiFieldEndAccess
p2205
(dp2206
g357
S'x'
sbasbsba(i__main__
DelphiAssignStatement
p2207
(dp2208
g377
(i__main__
DelphiIdentAccess
p2209
(dp2210
g16
S'round'
p2211
sg353
(lp2212
(idelphi
DelphiFunctionEndAccess
p2213
(dp2214
g393
(lp2215
(i__main__
DelphiIdentAccess
p2216
(dp2217
g16
S'triangle'
p2218
sg353
(lp2219
(idelphi
DelphiFieldEndAccess
p2220
(dp2221
g357
S'points'
p2222
sba(idelphi
DelphiArrayEndAccess
p2223
(dp2224
g393
(lp2225
(idelphi
DelphiIntegerValue
p2226
(dp2227
g14
S'1'
sbasba(idelphi
DelphiFieldEndAccess
p2228
(dp2229
g357
S'y'
sbasbasbasbsg402
(i__main__
DelphiIdentAccess
p2230
(dp2231
g16
S'points'
p2232
sg353
(lp2233
(idelphi
DelphiArrayEndAccess
p2234
(dp2235
g393
(lp2236
(idelphi
DelphiIntegerValue
p2237
(dp2238
g14
S'1'
sbasba(idelphi
DelphiFieldEndAccess
p2239
(dp2240
g357
S'y'
sbasbsba(i__main__
DelphiAssignStatement
p2241
(dp2242
g377
(i__main__
DelphiIdentAccess
p2243
(dp2244
g16
S'round'
p2245
sg353
(lp2246
(idelphi
DelphiFunctionEndAccess
p2247
(dp2248
g393
(lp2249
(i__main__
DelphiIdentAccess
p2250
(dp2251
g16
S'triangle'
p2252
sg353
(lp2253
(idelphi
DelphiFieldEndAccess
p2254
(dp2255
g357
S'points'
p2256
sba(idelphi
DelphiArrayEndAccess
p2257
(dp2258
g393
(lp2259
(idelphi
DelphiIntegerValue
p2260
(dp2261
g14
S'2'
sbasba(idelphi
DelphiFieldEndAccess
p2262
(dp2263
g357
S'x'
sbasbasbasbsg402
(i__main__
DelphiIdentAccess
p2264
(dp2265
g16
S'points'
p2266
sg353
(lp2267
(idelphi
DelphiArrayEndAccess
p2268
(dp2269
g393
(lp2270
(idelphi
DelphiIntegerValue
p2271
(dp2272
g14
S'2'
sbasba(idelphi
DelphiFieldEndAccess
p2273
(dp2274
g357
S'x'
sbasbsba(i__main__
DelphiAssignStatement
p2275
(dp2276
g377
(i__main__
DelphiIdentAccess
p2277
(dp2278
g16
S'round'
p2279
sg353
(lp2280
(idelphi
DelphiFunctionEndAccess
p2281
(dp2282
g393
(lp2283
(i__main__
DelphiIdentAccess
p2284
(dp2285
g16
S'triangle'
p2286
sg353
(lp2287
(idelphi
DelphiFieldEndAccess
p2288
(dp2289
g357
S'points'
p2290
sba(idelphi
DelphiArrayEndAccess
p2291
(dp2292
g393
(lp2293
(idelphi
DelphiIntegerValue
p2294
(dp2295
g14
S'2'
sbasba(idelphi
DelphiFieldEndAccess
p2296
(dp2297
g357
S'y'
sbasbasbasbsg402
(i__main__
DelphiIdentAccess
p2298
(dp2299
g16
S'points'
p2300
sg353
(lp2301
(idelphi
DelphiArrayEndAccess
p2302
(dp2303
g393
(lp2304
(idelphi
DelphiIntegerValue
p2305
(dp2306
g14
S'2'
sbasba(idelphi
DelphiFieldEndAccess
p2307
(dp2308
g357
S'y'
sbasbsba(idelphi
DelphiIfStatement
p2309
(dp2310
g346
(i__main__
DelphiIdentAccess
p2311
(dp2312
g16
S'pointInTriangle'
p2313
sg353
(lp2314
(idelphi
DelphiFunctionEndAccess
p2315
(dp2316
g393
(lp2317
(i__main__
DelphiIdentAccess
p2318
(dp2319
g16
S'point'
p2320
sg353
(lp2321
sba(i__main__
DelphiIdentAccess
p2322
(dp2323
g16
S'points'
p2324
sg353
(lp2325
sbasbasbsg363
Nsg364
(idelphi
DelphiCompoundStatement
p2326
(dp2327
g342
(lp2328
(i__main__
DelphiAssignStatement
p2329
(dp2330
g377
(i__main__
DelphiIdentAccess
p2331
(dp2332
g16
S'triangle'
p2333
sg353
(lp2334
(idelphi
DelphiFieldEndAccess
p2335
(dp2336
g357
S'plantPartID'
p2337
sbasbsg402
(i__main__
DelphiIdentAccess
p2338
(dp2339
g16
S'result'
p2340
sg353
(lp2341
sbsba(i__main__
DelphiExitStatement
p2342
(dp2343
g367
g1974
sbasbsbasbsg364
(idelphi
DelphiCompoundStatement
p2344
(dp2345
g342
(lp2346
(i__main__
DelphiAssignStatement
p2347
(dp2348
g377
(idelphi
DelphiMulOp
p2349
(dp2350
g380
(idelphi
DelphiRealValue
p2351
(dp2352
g14
S'2.0'
p2353
sbsg384
S'/'
sg386
(idelphi
DelphiNestedExpressionListAccess
p2354
(dp2355
g353
(lp2356
sg393
(lp2357
(idelphi
DelphiAddOp
p2358
(dp2359
g731
S'+'
sg732
(i__main__
DelphiIdentAccess
p2360
(dp2361
g16
S'triangle'
p2362
sg353
(lp2363
(idelphi
DelphiFieldEndAccess
p2364
(dp2365
g357
S'points'
p2366
sba(idelphi
DelphiArrayEndAccess
p2367
(dp2368
g393
(lp2369
(idelphi
DelphiIntegerValue
p2370
(dp2371
g14
S'1'
sbasba(idelphi
DelphiFieldEndAccess
p2372
(dp2373
g357
S'x'
sbasbsg735
(i__main__
DelphiIdentAccess
p2374
(dp2375
g16
S'triangle'
p2376
sg353
(lp2377
(idelphi
DelphiFieldEndAccess
p2378
(dp2379
g357
S'points'
p2380
sba(idelphi
DelphiArrayEndAccess
p2381
(dp2382
g393
(lp2383
(idelphi
DelphiIntegerValue
p2384
(dp2385
g14
S'0'
sbasba(idelphi
DelphiFieldEndAccess
p2386
(dp2387
g357
S'x'
sbasbsbasbsbsg402
(i__main__
DelphiIdentAccess
p2388
(dp2389
g16
S'centerX'
p2390
sg353
(lp2391
sbsba(i__main__
DelphiAssignStatement
p2392
(dp2393
g377
(idelphi
DelphiMulOp
p2394
(dp2395
g380
(idelphi
DelphiRealValue
p2396
(dp2397
g14
S'2.0'
p2398
sbsg384
S'/'
sg386
(idelphi
DelphiNestedExpressionListAccess
p2399
(dp2400
g353
(lp2401
sg393
(lp2402
(idelphi
DelphiAddOp
p2403
(dp2404
g731
S'+'
sg732
(i__main__
DelphiIdentAccess
p2405
(dp2406
g16
S'triangle'
p2407
sg353
(lp2408
(idelphi
DelphiFieldEndAccess
p2409
(dp2410
g357
S'points'
p2411
sba(idelphi
DelphiArrayEndAccess
p2412
(dp2413
g393
(lp2414
(idelphi
DelphiIntegerValue
p2415
(dp2416
g14
S'1'
sbasba(idelphi
DelphiFieldEndAccess
p2417
(dp2418
g357
S'y'
sbasbsg735
(i__main__
DelphiIdentAccess
p2419
(dp2420
g16
S'triangle'
p2421
sg353
(lp2422
(idelphi
DelphiFieldEndAccess
p2423
(dp2424
g357
S'points'
p2425
sba(idelphi
DelphiArrayEndAccess
p2426
(dp2427
g393
(lp2428
(idelphi
DelphiIntegerValue
p2429
(dp2430
g14
S'0'
sbasba(idelphi
DelphiFieldEndAccess
p2431
(dp2432
g357
S'y'
sbasbsbasbsbsg402
(i__main__
DelphiIdentAccess
p2433
(dp2434
g16
S'centerY'
p2435
sg353
(lp2436
sbsba(i__main__
DelphiAssignStatement
p2437
(dp2438
g377
(idelphi
DelphiAddOp
p2439
(dp2440
g731
S'+'
sg732
(idelphi
DelphiMulOp
p2441
(dp2442
g380
(idelphi
DelphiNestedExpressionListAccess
p2443
(dp2444
g353
(lp2445
sg393
(lp2446
(idelphi
DelphiAddOp
p2447
(dp2448
g731
S'-'
sg732
(i__main__
DelphiIdentAccess
p2449
(dp2450
g16
S'y'
sg353
(lp2451
sbsg735
(i__main__
DelphiIdentAccess
p2452
(dp2453
g16
S'centerY'
p2454
sg353
(lp2455
sbsbasbsg384
S'*'
sg386
(idelphi
DelphiNestedExpressionListAccess
p2456
(dp2457
g353
(lp2458
sg393
(lp2459
(idelphi
DelphiAddOp
p2460
(dp2461
g731
S'-'
sg732
(i__main__
DelphiIdentAccess
p2462
(dp2463
g16
S'y'
sg353
(lp2464
sbsg735
(i__main__
DelphiIdentAccess
p2465
(dp2466
g16
S'centerY'
p2467
sg353
(lp2468
sbsbasbsbsg735
(idelphi
DelphiMulOp
p2469
(dp2470
g380
(idelphi
DelphiNestedExpressionListAccess
p2471
(dp2472
g353
(lp2473
sg393
(lp2474
(idelphi
DelphiAddOp
p2475
(dp2476
g731
S'-'
sg732
(i__main__
DelphiIdentAccess
p2477
(dp2478
g16
S'x'
sg353
(lp2479
sbsg735
(i__main__
DelphiIdentAccess
p2480
(dp2481
g16
S'centerX'
p2482
sg353
(lp2483
sbsbasbsg384
S'*'
sg386
(idelphi
DelphiNestedExpressionListAccess
p2484
(dp2485
g353
(lp2486
sg393
(lp2487
(idelphi
DelphiAddOp
p2488
(dp2489
g731
S'-'
sg732
(i__main__
DelphiIdentAccess
p2490
(dp2491
g16
S'x'
sg353
(lp2492
sbsg735
(i__main__
DelphiIdentAccess
p2493
(dp2494
g16
S'centerX'
p2495
sg353
(lp2496
sbsbasbsbsbsg402
(i__main__
DelphiIdentAccess
p2497
(dp2498
g16
S'thisDistance'
p2499
sg353
(lp2500
sbsba(idelphi
DelphiIfStatement
p2501
(dp2502
g346
(idelphi
DelphiAddOp
p2503
(dp2504
g731
S'or'
p2505
sg732
(idelphi
DelphiNestedExpressionListAccess
p2506
(dp2507
g353
(lp2508
sg393
(lp2509
(idelphi
DelphiRelOp
p2510
(dp2511
g349
(i__main__
DelphiIdentAccess
p2512
(dp2513
g16
S'thisDistance'
p2514
sg353
(lp2515
sbsg359
(i__main__
DelphiIdentAccess
p2516
(dp2517
g16
S'closestDistanceSoFar'
p2518
sg353
(lp2519
sbsg362
S'<'
sbasbsg735
(idelphi
DelphiNestedExpressionListAccess
p2520
(dp2521
g353
(lp2522
sg393
(lp2523
(idelphi
DelphiRelOp
p2524
(dp2525
g349
(i__main__
DelphiIdentAccess
p2526
(dp2527
g16
S'closestPartID'
p2528
sg353
(lp2529
sbsg359
(idelphi
DelphiSign
p2530
(dp2531
g2023
(idelphi
DelphiIntegerValue
p2532
(dp2533
g14
S'1'
sbsg2026
S'-'
sbsg362
S'='
sbasbsbsg363
Nsg364
(idelphi
DelphiCompoundStatement
p2534
(dp2535
g342
(lp2536
(i__main__
DelphiAssignStatement
p2537
(dp2538
g377
(i__main__
DelphiIdentAccess
p2539
(dp2540
g16
S'thisDistance'
p2541
sg353
(lp2542
sbsg402
(i__main__
DelphiIdentAccess
p2543
(dp2544
g16
S'closestDistanceSoFar'
p2545
sg353
(lp2546
sbsba(i__main__
DelphiAssignStatement
p2547
(dp2548
g377
(i__main__
DelphiIdentAccess
p2549
(dp2550
g16
S'triangle'
p2551
sg353
(lp2552
(idelphi
DelphiFieldEndAccess
p2553
(dp2554
g357
S'plantPartID'
p2555
sbasbsg402
(i__main__
DelphiIdentAccess
p2556
(dp2557
g16
S'closestPartID'
p2558
sg353
(lp2559
sbsbasbsbasbsbasbsba(i__main__
DelphiAssignStatement
p2560
(dp2561
g377
(i__main__
DelphiIdentAccess
p2562
(dp2563
g16
S'closestPartID'
p2564
sg353
(lp2565
sbsg402
(i__main__
DelphiIdentAccess
p2566
(dp2567
g16
S'result'
p2568
sg353
(lp2569
sbsbasbsg567
(lp2570
(i__main__
DelphiVarSection
p2571
(dp2572
g23
I0
sg692
(lp2573
(idelphi
DelphiVarDecl
p2574
(dp2575
g11
Nsg696
(lp2576
S'i'
asg18
(i__main__
DelphiPrimitiveType
p2577
(dp2578
g21
g235
sbsba(idelphi
DelphiVarDecl
p2579
(dp2580
g11
Nsg696
(lp2581
S'triangle'
p2582
asg18
(i__main__
DelphiNamedType
p2583
(dp2584
g21
S'KfTriangle'
p2585
sg77
g1
sg78
Nsbsba(idelphi
DelphiVarDecl
p2586
(dp2587
g11
Nsg696
(lp2588
S'points'
p2589
asg18
(i__main__
DelphiArrayType
p2590
(dp2591
g18
(i__main__
DelphiNamedType
p2592
(dp2593
g21
S'TPoint'
p2594
sg77
g1
sg78
Nsbsg1806
(lp2595
(idelphi
DelphiSubrange
p2596
(dp2597
g1810
(idelphi
DelphiIntegerValue
p2598
(dp2599
g14
S'2'
sbsg1813
(idelphi
DelphiIntegerValue
p2600
(dp2601
g14
S'0'
sbsg58
S''
sbasbsba(idelphi
DelphiVarDecl
p2602
(dp2603
g11
Nsg696
(lp2604
S'widenedPoints'
p2605
asg18
(i__main__
DelphiArrayType
p2606
(dp2607
g18
(i__main__
DelphiNamedType
p2608
(dp2609
g21
S'TPoint'
p2610
sg77
g1
sg78
Nsbsg1806
(lp2611
(idelphi
DelphiSubrange
p2612
(dp2613
g1810
(idelphi
DelphiIntegerValue
p2614
(dp2615
g14
S'2'
sbsg1813
(idelphi
DelphiIntegerValue
p2616
(dp2617
g14
S'0'
sbsg58
S''
sbasbsba(idelphi
DelphiVarDecl
p2618
(dp2619
g11
Nsg696
(lp2620
S'width'
p2621
asg18
(i__main__
DelphiPrimitiveType
p2622
(dp2623
g21
g185
sbsba(idelphi
DelphiVarDecl
p2624
(dp2625
g11
Nsg696
(lp2626
S'thisDistance'
p2627
aS'closestDistanceSoFar'
p2628
asg18
(i__main__
DelphiPrimitiveType
p2629
(dp2630
g21
g253
sbsba(idelphi
DelphiVarDecl
p2631
(dp2632
g11
Nsg696
(lp2633
S'closestPartID'
p2634
asg18
(i__main__
DelphiPrimitiveType
p2635
(dp2636
g21
g235
sbsba(idelphi
DelphiVarDecl
p2637
(dp2638
g11
Nsg696
(lp2639
S'centerX'
p2640
aS'centerY'
p2641
aS'x'
aS'y'
asg18
(i__main__
DelphiPrimitiveType
p2642
(dp2643
g21
g253
sbsbasbasbsbsS'sorttriangles'
p2644
(i__main__
DelphiMethodImplementation
p2645
(dp2646
g308
g175
sg58
g177
sg66
(lp2647
(i__main__
DelphiFormalParameter
p2648
(dp2649
g70
Nsg71
(lp2650
S'left'
p2651
asg18
(i__main__
DelphiPrimitiveType
p2652
(dp2653
g21
g185
sbsg79
Nsba(i__main__
DelphiFormalParameter
p2654
(dp2655
g70
Nsg71
(lp2656
S'right'
p2657
asg18
(i__main__
DelphiPrimitiveType
p2658
(dp2659
g21
g185
sbsg79
Nsbasg324
(lp2660
sg326
(lp2661
sg328
(lp2662
g330
ag2651
ag2657
asg331
(dp2663
g2657
g2658
sg2651
g2652
ssg88
S'KfDrawingSurface'
p2664
sg89
Nsg334
(lp2665
sg90
I0
sg91
g92
sg336
(i__main__
DelphiBlock
p2666
(dp2667
g339
(idelphi
DelphiCompoundStatement
p2668
(dp2669
g342
(lp2670
(idelphi
DelphiIfStatement
p2671
(dp2672
g346
(idelphi
DelphiRelOp
p2673
(dp2674
g349
(i__main__
DelphiIdentAccess
p2675
(dp2676
g16
S'right'
p2677
sg353
(lp2678
sbsg359
(i__main__
DelphiIdentAccess
p2679
(dp2680
g16
S'left'
p2681
sg353
(lp2682
sbsg362
S'>'
sbsg363
Nsg364
(idelphi
DelphiCompoundStatement
p2683
(dp2684
g342
(lp2685
(i__main__
DelphiAssignStatement
p2686
(dp2687
g377
(i__main__
DelphiIdentAccess
p2688
(dp2689
g16
S'KfTriangle'
p2690
sg353
(lp2691
(idelphi
DelphiFunctionEndAccess
p2692
(dp2693
g393
(lp2694
(i__main__
DelphiIdentAccess
p2695
(dp2696
g16
S'triangles'
p2697
sg353
(lp2698
(idelphi
DelphiFieldEndAccess
p2699
(dp2700
g357
S'items'
p2701
sba(idelphi
DelphiArrayEndAccess
p2702
(dp2703
g393
(lp2704
(i__main__
DelphiIdentAccess
p2705
(dp2706
g16
S'right'
p2707
sg353
(lp2708
sbasbasbasba(idelphi
DelphiFieldEndAccess
p2709
(dp2710
g357
S'zForSorting'
p2711
sbasbsg402
(i__main__
DelphiIdentAccess
p2712
(dp2713
g16
S'z'
sg353
(lp2714
sbsba(i__main__
DelphiAssignStatement
p2715
(dp2716
g377
(idelphi
DelphiAddOp
p2717
(dp2718
g731
S'-'
sg732
(idelphi
DelphiIntegerValue
p2719
(dp2720
g14
S'1'
sbsg735
(i__main__
DelphiIdentAccess
p2721
(dp2722
g16
S'left'
p2723
sg353
(lp2724
sbsbsg402
(i__main__
DelphiIdentAccess
p2725
(dp2726
g16
S'i'
sg353
(lp2727
sbsba(i__main__
DelphiAssignStatement
p2728
(dp2729
g377
(i__main__
DelphiIdentAccess
p2730
(dp2731
g16
S'right'
p2732
sg353
(lp2733
sbsg402
(i__main__
DelphiIdentAccess
p2734
(dp2735
g16
S'j'
sg353
(lp2736
sbsba(idelphi
DelphiWhileStatement
p2737
(dp2738
g667
(idelphi
DelphiCompoundStatement
p2739
(dp2740
g342
(lp2741
(idelphi
DelphiRepeatStatement
p2742
(dp2743
S'untilExpression'
p2744
(idelphi
DelphiNot
p2745
(dp2746
g2023
(idelphi
DelphiNestedExpressionListAccess
p2747
(dp2748
g353
(lp2749
sg393
(lp2750
(idelphi
DelphiRelOp
p2751
(dp2752
g349
(i__main__
DelphiIdentAccess
p2753
(dp2754
g16
S'KfTriangle'
p2755
sg353
(lp2756
(idelphi
DelphiFunctionEndAccess
p2757
(dp2758
g393
(lp2759
(i__main__
DelphiIdentAccess
p2760
(dp2761
g16
S'triangles'
p2762
sg353
(lp2763
(idelphi
DelphiFieldEndAccess
p2764
(dp2765
g357
S'items'
p2766
sba(idelphi
DelphiArrayEndAccess
p2767
(dp2768
g393
(lp2769
(i__main__
DelphiIdentAccess
p2770
(dp2771
g16
S'i'
sg353
(lp2772
sbasbasbasba(idelphi
DelphiFieldEndAccess
p2773
(dp2774
g357
S'zForSorting'
p2775
sbasbsg359
(i__main__
DelphiIdentAccess
p2776
(dp2777
g16
S'z'
sg353
(lp2778
sbsg362
S'<'
sbasbsbsg667
(i__main__
DelphiAssignStatement
p2779
(dp2780
g377
(idelphi
DelphiAddOp
p2781
(dp2782
g731
S'+'
sg732
(idelphi
DelphiIntegerValue
p2783
(dp2784
g14
S'1'
sbsg735
(i__main__
DelphiIdentAccess
p2785
(dp2786
g16
S'i'
sg353
(lp2787
sbsbsg402
(i__main__
DelphiIdentAccess
p2788
(dp2789
g16
S'i'
sg353
(lp2790
sbsbsba(idelphi
DelphiRepeatStatement
p2791
(dp2792
g2744
(idelphi
DelphiAddOp
p2793
(dp2794
g731
g2505
sg732
(idelphi
DelphiNestedExpressionListAccess
p2795
(dp2796
g353
(lp2797
sg393
(lp2798
(idelphi
DelphiNot
p2799
(dp2800
g2023
(idelphi
DelphiNestedExpressionListAccess
p2801
(dp2802
g353
(lp2803
sg393
(lp2804
(idelphi
DelphiRelOp
p2805
(dp2806
g349
(i__main__
DelphiIdentAccess
p2807
(dp2808
g16
S'KfTriangle'
p2809
sg353
(lp2810
(idelphi
DelphiFunctionEndAccess
p2811
(dp2812
g393
(lp2813
(i__main__
DelphiIdentAccess
p2814
(dp2815
g16
S'triangles'
p2816
sg353
(lp2817
(idelphi
DelphiFieldEndAccess
p2818
(dp2819
g357
S'items'
p2820
sba(idelphi
DelphiArrayEndAccess
p2821
(dp2822
g393
(lp2823
(i__main__
DelphiIdentAccess
p2824
(dp2825
g16
S'j'
sg353
(lp2826
sbasbasbasba(idelphi
DelphiFieldEndAccess
p2827
(dp2828
g357
S'zForSorting'
p2829
sbasbsg359
(i__main__
DelphiIdentAccess
p2830
(dp2831
g16
S'z'
sg353
(lp2832
sbsg362
S'>'
sbasbsbasbsg735
(idelphi
DelphiNestedExpressionListAccess
p2833
(dp2834
g353
(lp2835
sg393
(lp2836
(idelphi
DelphiRelOp
p2837
(dp2838
g349
(i__main__
DelphiIdentAccess
p2839
(dp2840
g16
S'j'
sg353
(lp2841
sbsg359
(i__main__
DelphiIdentAccess
p2842
(dp2843
g16
S'i'
sg353
(lp2844
sbsg362
S'<'
sbasbsbsg667
(i__main__
DelphiAssignStatement
p2845
(dp2846
g377
(idelphi
DelphiAddOp
p2847
(dp2848
g731
S'-'
sg732
(idelphi
DelphiIntegerValue
p2849
(dp2850
g14
S'1'
sbsg735
(i__main__
DelphiIdentAccess
p2851
(dp2852
g16
S'j'
sg353
(lp2853
sbsbsg402
(i__main__
DelphiIdentAccess
p2854
(dp2855
g16
S'j'
sg353
(lp2856
sbsbsba(idelphi
DelphiIfStatement
p2857
(dp2858
g346
(idelphi
DelphiRelOp
p2859
(dp2860
g349
(i__main__
DelphiIdentAccess
p2861
(dp2862
g16
S'i'
sg353
(lp2863
sbsg359
(i__main__
DelphiIdentAccess
p2864
(dp2865
g16
S'j'
sg353
(lp2866
sbsg362
S'>='
p2867
sbsg363
Nsg364
(idelphi
DelphiBreakStatement
p2868
(dp2869
bsba(i__main__
DelphiAssignStatement
p2870
(dp2871
g377
Nsg402
(i__main__
DelphiIdentAccess
p2872
(dp2873
g16
S'triangles'
p2874
sg353
(lp2875
(idelphi
DelphiFieldEndAccess
p2876
(dp2877
g357
S'exchange'
p2878
sba(idelphi
DelphiFunctionEndAccess
p2879
(dp2880
g393
(lp2881
(i__main__
DelphiIdentAccess
p2882
(dp2883
g16
S'i'
sg353
(lp2884
sba(i__main__
DelphiIdentAccess
p2885
(dp2886
g16
S'j'
sg353
(lp2887
sbasbasbsbasbsS'whileExpression'
p2888
(i__main__
DelphiIdentAccess
p2889
(dp2890
g16
S'true'
p2891
sg353
(lp2892
sbsba(i__main__
DelphiAssignStatement
p2893
(dp2894
g377
Nsg402
(i__main__
DelphiIdentAccess
p2895
(dp2896
g16
S'triangles'
p2897
sg353
(lp2898
(idelphi
DelphiFieldEndAccess
p2899
(dp2900
g357
S'exchange'
p2901
sba(idelphi
DelphiFunctionEndAccess
p2902
(dp2903
g393
(lp2904
(i__main__
DelphiIdentAccess
p2905
(dp2906
g16
S'i'
sg353
(lp2907
sba(i__main__
DelphiIdentAccess
p2908
(dp2909
g16
S'right'
p2910
sg353
(lp2911
sbasbasbsba(i__main__
DelphiAssignStatement
p2912
(dp2913
g377
Nsg402
(i__main__
DelphiIdentAccess
p2914
(dp2915
g16
S'sortTriangles'
p2916
sg353
(lp2917
(idelphi
DelphiFunctionEndAccess
p2918
(dp2919
g393
(lp2920
(i__main__
DelphiIdentAccess
p2921
(dp2922
g16
S'left'
p2923
sg353
(lp2924
sba(i__main__
DelphiIdentAccess
p2925
(dp2926
g16
S'j'
sg353
(lp2927
sbasbasbsba(i__main__
DelphiAssignStatement
p2928
(dp2929
g377
Nsg402
(i__main__
DelphiIdentAccess
p2930
(dp2931
g16
S'sortTriangles'
p2932
sg353
(lp2933
(idelphi
DelphiFunctionEndAccess
p2934
(dp2935
g393
(lp2936
(idelphi
DelphiAddOp
p2937
(dp2938
g731
S'+'
sg732
(idelphi
DelphiIntegerValue
p2939
(dp2940
g14
S'1'
sbsg735
(i__main__
DelphiIdentAccess
p2941
(dp2942
g16
S'i'
sg353
(lp2943
sbsba(i__main__
DelphiIdentAccess
p2944
(dp2945
g16
S'right'
p2946
sg353
(lp2947
sbasbasbsbasbsbasbsg567
(lp2948
(i__main__
DelphiVarSection
p2949
(dp2950
g23
I0
sg692
(lp2951
(idelphi
DelphiVarDecl
p2952
(dp2953
g11
Nsg696
(lp2954
S'i'
aS'j'
asg18
(i__main__
DelphiPrimitiveType
p2955
(dp2956
g21
g185
sbsba(idelphi
DelphiVarDecl
p2957
(dp2958
g11
Nsg696
(lp2959
S'z'
asg18
(i__main__
DelphiPrimitiveType
p2960
(dp2961
g21
g253
sbsbasbasbsbsS'allocatetriangle'
p2962
(i__main__
DelphiMethodImplementation
p2963
(dp2964
g308
g193
sg58
g195
sg66
(lp2965
sg324
(lp2966
sg326
(lp2967
sg328
(lp2968
g330
asg331
(dp2969
sg88
S'KfDrawingSurface'
p2970
sg89
(i__main__
DelphiNamedType
p2971
(dp2972
g21
S'KfTriangle'
p2973
sg77
g1
sg78
Nsbsg334
(lp2974
sg90
I0
sg91
g163
sg336
(i__main__
DelphiBlock
p2975
(dp2976
g339
(idelphi
DelphiCompoundStatement
p2977
(dp2978
g342
(lp2979
(i__main__
DelphiAssignStatement
p2980
(dp2981
g377
(idelphi
DelphiNilValue
p2982
(dp2983
bsg402
(i__main__
DelphiIdentAccess
p2984
(dp2985
g16
S'result'
p2986
sg353
(lp2987
sbsba(idelphi
DelphiIfStatement
p2988
(dp2989
g346
(idelphi
DelphiRelOp
p2990
(dp2991
g349
(i__main__
DelphiIdentAccess
p2992
(dp2993
g16
S'numTrianglesUsed'
p2994
sg353
(lp2995
sbsg359
(i__main__
DelphiIdentAccess
p2996
(dp2997
g16
S'triangles'
p2998
sg353
(lp2999
(idelphi
DelphiFieldEndAccess
p3000
(dp3001
g357
S'count'
p3002
sbasbsg362
S'<'
sbsg363
(idelphi
DelphiCompoundStatement
p3003
(dp3004
g342
(lp3005
(i__main__
DelphiAssignStatement
p3006
(dp3007
g377
(i__main__
DelphiIdentAccess
p3008
(dp3009
g16
S'KfTriangle'
p3010
sg353
(lp3011
(idelphi
DelphiFieldEndAccess
p3012
(dp3013
g357
S'create'
p3014
sbasbsg402
(i__main__
DelphiIdentAccess
p3015
(dp3016
g16
S'result'
p3017
sg353
(lp3018
sbsba(i__main__
DelphiAssignStatement
p3019
(dp3020
g377
Nsg402
(i__main__
DelphiIdentAccess
p3021
(dp3022
g16
S'triangles'
p3023
sg353
(lp3024
(idelphi
DelphiFieldEndAccess
p3025
(dp3026
g357
S'add'
p3027
sba(idelphi
DelphiFunctionEndAccess
p3028
(dp3029
g393
(lp3030
(i__main__
DelphiIdentAccess
p3031
(dp3032
g16
S'result'
p3033
sg353
(lp3034
sbasbasbsbasbsg364
(i__main__
DelphiAssignStatement
p3035
(dp3036
g377
(i__main__
DelphiIdentAccess
p3037
(dp3038
g16
S'triangles'
p3039
sg353
(lp3040
(idelphi
DelphiFieldEndAccess
p3041
(dp3042
g357
S'items'
p3043
sba(idelphi
DelphiArrayEndAccess
p3044
(dp3045
g393
(lp3046
(i__main__
DelphiIdentAccess
p3047
(dp3048
g16
S'numTrianglesUsed'
p3049
sg353
(lp3050
sbasbasbsg402
(i__main__
DelphiIdentAccess
p3051
(dp3052
g16
S'result'
p3053
sg353
(lp3054
sbsbsba(i__main__
DelphiIncOrDecStatement
p3055
(dp3056
g925
S'inc'
p3057
sg927
Nsg402
(i__main__
DelphiIdentAccess
p3058
(dp3059
g16
S'numTrianglesUsed'
p3060
sg353
(lp3061
sbsbasbsg567
(lp3062
sbsbsS'initialize'
p3063
(i__main__
DelphiMethodImplementation
p3064
(dp3065
g308
g201
sg58
g203
sg66
(lp3066
sg324
(lp3067
sg326
(lp3068
sg328
(lp3069
g330
asg331
(dp3070
sg88
S'KfDrawingSurface'
p3071
sg89
Nsg334
(lp3072
sg90
I0
sg91
g92
sg336
(i__main__
DelphiBlock
p3073
(dp3074
g339
(idelphi
DelphiCompoundStatement
p3075
(dp3076
g342
(lp3077
(i__main__
DelphiAssignStatement
p3078
(dp3079
g377
(idelphi
DelphiRealValue
p3080
(dp3081
g14
S'1.0'
p3082
sbsg402
(i__main__
DelphiIdentAccess
p3083
(dp3084
g16
S'lineWidth'
p3085
sg353
(lp3086
sbsg368
(lp3087
S'backColor := clLtGray;\r'
p3088
aS'  foreColor := clLtGray;\r'
p3089
aS'  lineColor := clLtGray;'
p3090
asba(i__main__
DelphiAssignStatement
p3091
(dp3092
g377
(i__main__
DelphiIdentAccess
p3093
(dp3094
g16
S'false'
p3095
sg353
(lp3096
sbsg402
(i__main__
DelphiIdentAccess
p3097
(dp3098
g16
S'recording'
p3099
sg353
(lp3100
sbsba(i__main__
DelphiAssignStatement
p3101
(dp3102
g377
Nsg402
(i__main__
DelphiIdentAccess
p3103
(dp3104
g16
S'clearTriangles'
p3105
sg353
(lp3106
sbsba(idelphi
DelphiIfStatement
p3107
(dp3108
g346
(idelphi
DelphiRelOp
p3109
(dp3110
g349
(i__main__
DelphiIdentAccess
p3111
(dp3112
g16
S'self'
p3113
sg353
(lp3114
(idelphi
DelphiFieldEndAccess
p3115
(dp3116
g357
S'pane'
p3117
sbasbsg359
(idelphi
DelphiNilValue
p3118
(dp3119
bsg362
S'<>'
p3120
sbsg363
Nsg364
(idelphi
DelphiCompoundStatement
p3121
(dp3122
g342
(lp3123
(idelphi
DelphiIfStatement
p3124
(dp3125
g346
(i__main__
DelphiIdentAccess
p3126
(dp3127
g16
S'fillingTriangles'
p3128
sg353
(lp3129
sbsg363
(i__main__
DelphiAssignStatement
p3130
(dp3131
g377
(i__main__
DelphiIdentAccess
p3132
(dp3133
g16
S'bsClear'
p3134
sg353
(lp3135
sbsg402
(i__main__
DelphiIdentAccess
p3136
(dp3137
g16
S'self'
p3138
sg353
(lp3139
(idelphi
DelphiFieldEndAccess
p3140
(dp3141
g357
S'pane'
p3142
sba(idelphi
DelphiFieldEndAccess
p3143
(dp3144
g357
S'brush'
p3145
sba(idelphi
DelphiFieldEndAccess
p3146
(dp3147
g357
S'style'
p3148
sbasbsbsg364
(i__main__
DelphiAssignStatement
p3149
(dp3150
g377
(i__main__
DelphiIdentAccess
p3151
(dp3152
g16
S'bsSolid'
p3153
sg353
(lp3154
sbsg402
(i__main__
DelphiIdentAccess
p3155
(dp3156
g16
S'self'
p3157
sg353
(lp3158
(idelphi
DelphiFieldEndAccess
p3159
(dp3160
g357
S'pane'
p3161
sba(idelphi
DelphiFieldEndAccess
p3162
(dp3163
g357
S'brush'
p3164
sba(idelphi
DelphiFieldEndAccess
p3165
(dp3166
g357
S'style'
p3167
sbasbsbsbasbsbasbsg567
(lp3168
sbsbsS'destroy'
p3169
(i__main__
DelphiMethodImplementation
p3170
(dp3171
g308
g206
sg58
g208
sg66
(lp3172
sg324
(lp3173
sg326
(lp3174
sg328
(lp3175
g330
asg331
(dp3176
sg88
S'KfDrawingSurface'
p3177
sg89
Nsg334
(lp3178
sg90
I0
sg91
g210
sg336
(i__main__
DelphiBlock
p3179
(dp3180
g339
(idelphi
DelphiCompoundStatement
p3181
(dp3182
g342
(lp3183
(i__main__
DelphiAssignStatement
p3184
(dp3185
g377
Nsg402
(i__main__
DelphiIdentAccess
p3186
(dp3187
g16
S'triangles'
p3188
sg353
(lp3189
(idelphi
DelphiFieldEndAccess
p3190
(dp3191
g357
S'free'
p3192
sbasbsba(i__main__
DelphiAssignStatement
p3193
(dp3194
g377
Nsg402
(idelphi
DelphiInheritedCall
p3195
(dp3196
g16
S'destroy'
p3197
sg393
Nsbsbasbsg567
(lp3198
sbsbsS'sorttrianglesconsideringtdos'
p3199
(i__main__
DelphiMethodImplementation
p3200
(dp3201
g308
g212
sg58
g214
sg66
(lp3202
sg324
(lp3203
sg326
(lp3204
sg328
(lp3205
g330
asg331
(dp3206
sg88
S'KfDrawingSurface'
p3207
sg89
Nsg334
(lp3208
sg90
I0
sg91
g92
sg336
(i__main__
DelphiBlock
p3209
(dp3210
g339
(idelphi
DelphiCompoundStatement
p3211
(dp3212
g342
(lp3213
(idelphi
DelphiIfStatement
p3214
(dp3215
g346
(idelphi
DelphiRelOp
p3216
(dp3217
g349
(i__main__
DelphiIdentAccess
p3218
(dp3219
g16
S'numTrianglesUsed'
p3220
sg353
(lp3221
sbsg359
(idelphi
DelphiIntegerValue
p3222
(dp3223
g14
S'1'
sbsg362
S'<='
p3224
sbsg363
Nsg364
(i__main__
DelphiExitStatement
p3225
(dp3226
g367
g3200
sbsba(idelphi
DelphiIfStatement
p3227
(dp3228
g346
(i__main__
DelphiIdentAccess
p3229
(dp3230
g16
S'sortTdosAsOneItem'
p3231
sg353
(lp3232
sbsg363
Nsg364
(idelphi
DelphiForStatement
p3233
(dp3234
g657
S'i'
sg658
(idelphi
DelphiAddOp
p3235
(dp3236
g731
S'-'
sg732
(idelphi
DelphiIntegerValue
p3237
(dp3238
g14
S'1'
sbsg735
(i__main__
DelphiIdentAccess
p3239
(dp3240
g16
S'numTrianglesUsed'
p3241
sg353
(lp3242
sbsbsg663
g664
sg70
(idelphi
DelphiIntegerValue
p3243
(dp3244
g14
S'0'
sbsg667
(idelphi
DelphiCompoundStatement
p3245
(dp3246
g342
(lp3247
(i__main__
DelphiAssignStatement
p3248
(dp3249
g377
(i__main__
DelphiIdentAccess
p3250
(dp3251
g16
S'KfTriangle'
p3252
sg353
(lp3253
(idelphi
DelphiFunctionEndAccess
p3254
(dp3255
g393
(lp3256
(i__main__
DelphiIdentAccess
p3257
(dp3258
g16
S'triangles'
p3259
sg353
(lp3260
(idelphi
DelphiFieldEndAccess
p3261
(dp3262
g357
S'items'
p3263
sba(idelphi
DelphiArrayEndAccess
p3264
(dp3265
g393
(lp3266
(i__main__
DelphiIdentAccess
p3267
(dp3268
g16
S'i'
sg353
(lp3269
sbasbasbasbasbsg402
(i__main__
DelphiIdentAccess
p3270
(dp3271
g16
S'triangle'
p3272
sg353
(lp3273
sbsba(idelphi
DelphiIfStatement
p3274
(dp3275
g346
(idelphi
DelphiNot
p3276
(dp3277
g2023
(i__main__
DelphiIdentAccess
p3278
(dp3279
g16
S'triangle'
p3280
sg353
(lp3281
(idelphi
DelphiFieldEndAccess
p3282
(dp3283
g357
S'isLine'
p3284
sbasbsbsg363
Nsg364
(idelphi
DelphiCompoundStatement
p3285
(dp3286
g342
(lp3287
(i__main__
DelphiAssignStatement
p3288
(dp3289
g377
(i__main__
DelphiIdentAccess
p3290
(dp3291
g16
S'triangle'
p3292
sg353
(lp3293
(idelphi
DelphiFieldEndAccess
p3294
(dp3295
g357
S'zForSorting'
p3296
sbasbsg402
(i__main__
DelphiIdentAccess
p3297
(dp3298
g16
S'oldValue'
p3299
sg353
(lp3300
sbsba(idelphi
DelphiIfStatement
p3301
(dp3302
g346
(idelphi
DelphiRelOp
p3303
(dp3304
g349
(i__main__
DelphiIdentAccess
p3305
(dp3306
g16
S'triangle'
p3307
sg353
(lp3308
(idelphi
DelphiFieldEndAccess
p3309
(dp3310
g357
S'tdo'
p3311
sbasbsg359
(idelphi
DelphiNilValue
p3312
(dp3313
bsg362
g3120
sbsg363
Nsg364
(idelphi
DelphiTryExceptStatement
p3314
(dp3315
g373
(lp3316
(i__main__
DelphiAssignStatement
p3317
(dp3318
g377
(idelphi
DelphiAddOp
p3319
(dp3320
g731
S'+'
sg732
(idelphi
DelphiMulOp
p3321
(dp3322
g380
(idelphi
DelphiRealValue
p3323
(dp3324
g14
S'0.01'
p3325
sbsg384
S'*'
sg386
(i__main__
DelphiIdentAccess
p3326
(dp3327
g16
S'triangle'
p3328
sg353
(lp3329
(idelphi
DelphiFieldEndAccess
p3330
(dp3331
g357
S'zForSorting'
p3332
sbasbsbsg735
(i__main__
DelphiIdentAccess
p3333
(dp3334
g16
S'triangle'
p3335
sg353
(lp3336
(idelphi
DelphiFieldEndAccess
p3337
(dp3338
g357
S'tdo'
p3339
sba(idelphi
DelphiFieldEndAccess
p3340
(dp3341
g357
S'zForSorting'
p3342
sbasbsbsg402
(i__main__
DelphiIdentAccess
p3343
(dp3344
g16
S'triangle'
p3345
sg353
(lp3346
(idelphi
DelphiFieldEndAccess
p3347
(dp3348
g357
S'zForSorting'
p3349
sbasbsg368
(lp3350
S' the 0.01 is to keep the polygons inside the tdo in order but still (usually) separate from other tdos\r'
p3351
aS' could produce errors if the z value is really small already\r'
p3352
asbasg559
(idelphi
DelphiExceptionHandlers
p3353
(dp3354
g562
Nsg563
(lp3355
(i__main__
DelphiAssignStatement
p3356
(dp3357
g377
(i__main__
DelphiIdentAccess
p3358
(dp3359
g16
S'oldValue'
p3360
sg353
(lp3361
sbsg402
(i__main__
DelphiIdentAccess
p3362
(dp3363
g16
S'triangle'
p3364
sg353
(lp3365
(idelphi
DelphiFieldEndAccess
p3366
(dp3367
g357
S'zForSorting'
p3368
sbasbsbasbsbsba(i__main__
DelphiAssignStatement
p3369
(dp3370
g377
(idelphi
DelphiNilValue
p3371
(dp3372
bsg402
(i__main__
DelphiIdentAccess
p3373
(dp3374
g16
S'triangle'
p3375
sg353
(lp3376
(idelphi
DelphiFieldEndAccess
p3377
(dp3378
g357
S'tdo'
p3379
sbasbsg368
(lp3380
S' have to clear out tdo pointer afterward because triangles are reused\r'
p3381
asbasbsbasbsbsba(i__main__
DelphiAssignStatement
p3382
(dp3383
g377
Nsg402
(i__main__
DelphiIdentAccess
p3384
(dp3385
g16
S'self'
p3386
sg353
(lp3387
(idelphi
DelphiFieldEndAccess
p3388
(dp3389
g357
S'sortTriangles'
p3390
sba(idelphi
DelphiFunctionEndAccess
p3391
(dp3392
g393
(lp3393
(idelphi
DelphiIntegerValue
p3394
(dp3395
g14
S'0'
sba(idelphi
DelphiAddOp
p3396
(dp3397
g731
S'-'
sg732
(idelphi
DelphiIntegerValue
p3398
(dp3399
g14
S'1'
sbsg735
(i__main__
DelphiIdentAccess
p3400
(dp3401
g16
S'numTrianglesUsed'
p3402
sg353
(lp3403
sbsbasbasbsbasbsg567
(lp3404
(i__main__
DelphiVarSection
p3405
(dp3406
g23
I0
sg692
(lp3407
(idelphi
DelphiVarDecl
p3408
(dp3409
g11
Nsg696
(lp3410
S'i'
asg18
(i__main__
DelphiPrimitiveType
p3411
(dp3412
g21
g235
sbsba(idelphi
DelphiVarDecl
p3413
(dp3414
g11
Nsg696
(lp3415
S'triangle'
p3416
asg18
(i__main__
DelphiNamedType
p3417
(dp3418
g21
S'KfTriangle'
p3419
sg77
g1
sg78
Nsbsba(idelphi
DelphiVarDecl
p3420
(dp3421
g11
Nsg696
(lp3422
S'oldValue'
p3423
asg18
(i__main__
DelphiPrimitiveType
p3424
(dp3425
g21
g253
sbsbasbasbsbsS'drawlinefromto'
p3426
(i__main__
DelphiMethodImplementation
p3427
(dp3428
g308
g142
sg58
g144
sg66
(lp3429
(i__main__
DelphiFormalParameter
p3430
(dp3431
g70
Nsg71
(lp3432
S'startPoint'
p3433
asg18
(i__main__
DelphiNamedType
p3434
(dp3435
g21
S'KfPoint3D'
p3436
sg77
g1
sg78
Nsbsg79
g80
sba(i__main__
DelphiFormalParameter
p3437
(dp3438
g70
Nsg71
(lp3439
S'endPoint'
p3440
asg18
(i__main__
DelphiNamedType
p3441
(dp3442
g21
S'KfPoint3D'
p3443
sg77
g1
sg78
Nsbsg79
g80
sbasg324
(lp3444
sg326
(lp3445
sg328
(lp3446
g330
ag3433
ag3440
asg331
(dp3447
g3440
g3441
sg3433
g3434
ssg88
S'KfDrawingSurface'
p3448
sg89
(i__main__
DelphiNamedType
p3449
(dp3450
g21
S'KfTriangle'
p3451
sg77
g1
sg78
Nsbsg334
(lp3452
sg90
I0
sg91
g163
sg336
(i__main__
DelphiBlock
p3453
(dp3454
g339
(idelphi
DelphiCompoundStatement
p3455
(dp3456
g342
(lp3457
(i__main__
DelphiAssignStatement
p3458
(dp3459
g377
(idelphi
DelphiNilValue
p3460
(dp3461
bsg402
(i__main__
DelphiIdentAccess
p3462
(dp3463
g16
S'result'
p3464
sg353
(lp3465
sbsba(idelphi
DelphiIfStatement
p3466
(dp3467
g346
(i__main__
DelphiIdentAccess
p3468
(dp3469
g16
S'self'
p3470
sg353
(lp3471
(idelphi
DelphiFieldEndAccess
p3472
(dp3473
g357
S'recording'
p3474
sbasbsg363
(i__main__
DelphiAssignStatement
p3475
(dp3476
g377
Nsg402
(i__main__
DelphiIdentAccess
p3477
(dp3478
g16
S'self'
p3479
sg353
(lp3480
(idelphi
DelphiFieldEndAccess
p3481
(dp3482
g357
S'basicDrawLineFromTo'
p3483
sba(idelphi
DelphiFunctionEndAccess
p3484
(dp3485
g393
(lp3486
(i__main__
DelphiIdentAccess
p3487
(dp3488
g16
S'startPoint'
p3489
sg353
(lp3490
sba(i__main__
DelphiIdentAccess
p3491
(dp3492
g16
S'endPoint'
p3493
sg353
(lp3494
sbasbasbsbsg364
(idelphi
DelphiCompoundStatement
p3495
(dp3496
g342
(lp3497
(i__main__
DelphiAssignStatement
p3498
(dp3499
g377
(i__main__
DelphiIdentAccess
p3500
(dp3501
g16
S'self'
p3502
sg353
(lp3503
(idelphi
DelphiFieldEndAccess
p3504
(dp3505
g357
S'allocateTriangle'
p3506
sbasbsg402
(i__main__
DelphiIdentAccess
p3507
(dp3508
g16
S'triangle'
p3509
sg353
(lp3510
sbsg368
(lp3511
S'store triangle'
p3512
asba(i__main__
DelphiAssignStatement
p3513
(dp3514
g377
(i__main__
DelphiIdentAccess
p3515
(dp3516
g16
S'startPoint'
p3517
sg353
(lp3518
sbsg402
(i__main__
DelphiIdentAccess
p3519
(dp3520
g16
S'triangle'
p3521
sg353
(lp3522
(idelphi
DelphiFieldEndAccess
p3523
(dp3524
g357
S'points'
p3525
sba(idelphi
DelphiArrayEndAccess
p3526
(dp3527
g393
(lp3528
(idelphi
DelphiIntegerValue
p3529
(dp3530
g14
S'0'
sbasbasbsba(i__main__
DelphiAssignStatement
p3531
(dp3532
g377
(i__main__
DelphiIdentAccess
p3533
(dp3534
g16
S'endPoint'
p3535
sg353
(lp3536
sbsg402
(i__main__
DelphiIdentAccess
p3537
(dp3538
g16
S'triangle'
p3539
sg353
(lp3540
(idelphi
DelphiFieldEndAccess
p3541
(dp3542
g357
S'points'
p3543
sba(idelphi
DelphiArrayEndAccess
p3544
(dp3545
g393
(lp3546
(idelphi
DelphiIntegerValue
p3547
(dp3548
g14
S'1'
sbasbasbsba(i__main__
DelphiAssignStatement
p3549
(dp3550
g377
(i__main__
DelphiIdentAccess
p3551
(dp3552
g16
S'true'
p3553
sg353
(lp3554
sbsg402
(i__main__
DelphiIdentAccess
p3555
(dp3556
g16
S'triangle'
p3557
sg353
(lp3558
(idelphi
DelphiFieldEndAccess
p3559
(dp3560
g357
S'isLine'
p3561
sbasbsba(i__main__
DelphiAssignStatement
p3562
(dp3563
g377
(i__main__
DelphiIdentAccess
p3564
(dp3565
g16
S'foreColor'
p3566
sg353
(lp3567
sbsg402
(i__main__
DelphiIdentAccess
p3568
(dp3569
g16
S'triangle'
p3570
sg353
(lp3571
(idelphi
DelphiFieldEndAccess
p3572
(dp3573
g357
S'foreColor'
p3574
sbasbsg368
(lp3575
S'need to handle drawing surface colors'
p3576
asba(i__main__
DelphiAssignStatement
p3577
(dp3578
g377
(i__main__
DelphiIdentAccess
p3579
(dp3580
g16
S'backColor'
p3581
sg353
(lp3582
sbsg402
(i__main__
DelphiIdentAccess
p3583
(dp3584
g16
S'triangle'
p3585
sg353
(lp3586
(idelphi
DelphiFieldEndAccess
p3587
(dp3588
g357
S'backColor'
p3589
sbasbsba(i__main__
DelphiAssignStatement
p3590
(dp3591
g377
(i__main__
DelphiIdentAccess
p3592
(dp3593
g16
S'lineColor'
p3594
sg353
(lp3595
sbsg402
(i__main__
DelphiIdentAccess
p3596
(dp3597
g16
S'triangle'
p3598
sg353
(lp3599
(idelphi
DelphiFieldEndAccess
p3600
(dp3601
g357
S'lineColor'
p3602
sbasbsba(i__main__
DelphiAssignStatement
p3603
(dp3604
g377
(i__main__
DelphiIdentAccess
p3605
(dp3606
g16
S'lineWidth'
p3607
sg353
(lp3608
sbsg402
(i__main__
DelphiIdentAccess
p3609
(dp3610
g16
S'triangle'
p3611
sg353
(lp3612
(idelphi
DelphiFieldEndAccess
p3613
(dp3614
g357
S'lineWidth'
p3615
sbasbsba(i__main__
DelphiAssignStatement
p3616
(dp3617
g377
Nsg402
(i__main__
DelphiIdentAccess
p3618
(dp3619
g16
S'triangle'
p3620
sg353
(lp3621
(idelphi
DelphiFieldEndAccess
p3622
(dp3623
g357
S'computeZ'
p3624
sbasbsba(i__main__
DelphiAssignStatement
p3625
(dp3626
g377
(i__main__
DelphiIdentAccess
p3627
(dp3628
g16
S'triangle'
p3629
sg353
(lp3630
sbsg402
(i__main__
DelphiIdentAccess
p3631
(dp3632
g16
S'result'
p3633
sg353
(lp3634
sbsbasbsbasbsg567
(lp3635
(i__main__
DelphiVarSection
p3636
(dp3637
g23
I0
sg692
(lp3638
(idelphi
DelphiVarDecl
p3639
(dp3640
g11
Nsg696
(lp3641
S'triangle'
p3642
asg18
(i__main__
DelphiNamedType
p3643
(dp3644
g21
S'KfTriangle'
p3645
sg77
g1
sg78
NsbsbasbasbsbssS'propertyDeclarations'
p3646
(dp3647
sS'variableNamesInDeclaredOrder'
p3648
(lp3649
g47
ag55
ag53
ag41
ag43
ag39
ag49
ag35
ag45
ag29
ag57
ag31
ag33
ag37
ag51
asbasS'includedUnits'
p3650
NsS'implementationUses'
p3651
Nsg58
S'Udrawingsurface'
p3652
sS'constSections'
p3653
(lp3654
g5
asS'globalsInProperCase'
p3655
NsS'interfaceUses'
p3656
(lp3657
S'delphi_compatability'
p3658
aS'Windows'
p3659
aS'Graphics'
p3660
aS'SysUtils'
p3661
aS'ucollect'
p3662
aS'utdo'
p3663
aS'u3dsupport'
p3664
asS'finalCommentToken'
p3665
(i__main__
PassStatement
p3666
(dp3667
g567
(lp3668
sbsS'varSections'
p3669
(lp3670
sS'globals'
p3671
NsS'originalFileName'
p3672
S'../../PlantStudioInPython/converted_source/used/Udrawingsurface.pas'
p3673
sS'proceduralImplementations'
p3674
(dp3675
sS'fileName'
p3676
S'/Users/pdf/Documents/workspace/PlantStudioInPython/converted_source/used/Udrawingsurface.pas'
p3677
sS'proceduralDeclarations'
p3678
(dp3679
sS'types'
p3680
(dp3681
S'kfdrawingsurface'
p3682
g24
ssb.