(i__main__
DelphiUnit
p1
(dp2
S'sectionsInOrderDefined'
p3
(lp4
(i__main__
DelphiRecord
p5
(dp6
S'variableNamesInDeclaredOrder'
p7
(lp8
S'classNumber'
p9
aS'versionNumber'
p10
aS'additionNumber'
p11
asS'variableNamesInProperCase'
p12
(dp13
S'classnumber'
p14
g9
sS'versionnumber'
p15
g10
sS'additionnumber'
p16
g11
ssS'commentLinesBefore'
p17
(lp18
S'\r'
aS'  For every streamable object,\r'
p19
aS'  \tSet class number to constant from uclasses.\r'
p20
aS'    Increment version number if change streamed structure (watch out for base class streaming changes!).\r'
p21
aS'    Increment addition number if add new field and older program versions can ignore it and you can default it.\r'
p22
aS'      In addition case, check additions number in streamDataWithFiler.\r'
p23
aS'      When create new version, you should usually reset additions to zero and\r'
p24
aS'      \tremove additions testing code in streaming.\r'
p25
aS'  '
p26
asS'name'
p27
S'PdClassAndVersionInformationRecord'
p28
sS'variableNames'
p29
(dp30
S'classnumber'
p31
(i__main__
DelphiPrimitiveType
p32
(dp33
S'typeName'
p34
S'smallint'
p35
sbsS'versionnumber'
p36
(i__main__
DelphiPrimitiveType
p37
(dp38
g34
g35
sbsS'additionnumber'
p39
(i__main__
DelphiPrimitiveType
p40
(dp41
g34
g35
sbssba(i__main__
DelphiEnumeratedType
p42
(dp43
g34
S'PdFilerMode'
p44
sS'names'
p45
(lp46
S'filerModeReading'
p47
aS'filerModeWriting'
p48
aS'filerModeCounting'
p49
asg27
g44
sba(i__main__
DelphiClass
p50
(dp51
g12
(dp52
S'resourceprovider'
p53
S'resourceProvider'
p54
sS'bytesstreamed'
p55
S'bytesStreamed'
p56
sS'mode'
p57
S'mode'
p58
sS'stream'
p59
S'stream'
p60
ssg27
S'PdFiler'
p61
sS'methodDeclarations'
p62
(dp63
S'load'
p64
(i__main__
DelphiMethodDeclaration
p65
(dp66
g27
S'load'
p67
sS'formalParameters'
p68
(lp69
(i__main__
DelphiFormalParameter
p70
(dp71
S'initialValue'
p72
Nsg45
(lp73
S'fileName'
p74
asS'theType'
p75
(i__main__
DelphiPrimitiveType
p76
(dp77
g34
S'string'
p78
sbsS'parameterVariety'
p79
Nsba(i__main__
DelphiFormalParameter
p80
(dp81
g72
Nsg45
(lp82
S'objectToLoad'
p83
asg75
(i__main__
DelphiNamedType
p84
(dp85
g34
S'PdStreamableObject'
p86
sS'unitDefinedIn'
p87
g1
sS'unitName'
p88
Nsbsg79
NsbasS'className'
p89
g61
sS'resultType'
p90
NsS'isClassMethod'
p91
I1
sS'methodType'
p92
S'procedure'
p93
sg17
(lp94
S'class save/load functions'
p95
asbsS'streampenstyle'
p96
(i__main__
DelphiMethodDeclaration
p97
(dp98
g27
S'streamPenStyle'
p99
sg68
(lp100
(i__main__
DelphiFormalParameter
p101
(dp102
g72
Nsg45
(lp103
S'aPenStyle'
p104
asg75
(i__main__
DelphiNamedType
p105
(dp106
g34
S'TPenStyle'
p107
sg87
g1
sg88
Nsbsg79
S'var'
p108
sbasg89
g61
sg90
Nsg91
I0
sg92
g93
sbsS'streamcolor'
p109
(i__main__
DelphiMethodDeclaration
p110
(dp111
g27
S'streamColor'
p112
sg68
(lp113
(i__main__
DelphiFormalParameter
p114
(dp115
g72
Nsg45
(lp116
S'aColor'
p117
asg75
(i__main__
DelphiNamedType
p118
(dp119
g34
S'TColor'
p120
sg87
g1
sg88
Nsbsg79
g108
sbasg89
g61
sg90
Nsg91
I0
sg92
g93
sbsS'streamshortint'
p121
(i__main__
DelphiMethodDeclaration
p122
(dp123
g27
S'streamShortint'
p124
sg68
(lp125
(i__main__
DelphiFormalParameter
p126
(dp127
g72
Nsg45
(lp128
S'aShortint'
p129
asg75
(i__main__
DelphiPrimitiveType
p130
(dp131
g34
S'shortint'
p132
sbsg79
g108
sbasg89
g61
sg90
Nsg91
I0
sg92
g93
sbsS'streampoint'
p133
(i__main__
DelphiMethodDeclaration
p134
(dp135
g27
S'streamPoint'
p136
sg68
(lp137
(i__main__
DelphiFormalParameter
p138
(dp139
g72
Nsg45
(lp140
S'aPoint'
p141
asg75
(i__main__
DelphiNamedType
p142
(dp143
g34
S'TPoint'
p144
sg87
g1
sg88
Nsbsg79
g108
sbasg89
g61
sg90
Nsg91
I0
sg92
g93
sg17
(lp145
S'common types'
p146
aS'common types'
p147
aS'win 32 defines these to be made of longints, so just stream smalls..'
p148
asbsS'streamwindowstate'
p149
(i__main__
DelphiMethodDeclaration
p150
(dp151
g27
S'streamWindowState'
p152
sg68
(lp153
(i__main__
DelphiFormalParameter
p154
(dp155
g72
Nsg45
(lp156
S'aWindowState'
p157
asg75
(i__main__
DelphiNamedType
p158
(dp159
g34
S'TWindowState'
p160
sg87
g1
sg88
Nsbsg79
g108
sbasg89
g61
sg90
Nsg91
I0
sg92
g93
sbsS'createwithstream'
p161
(i__main__
DelphiMethodDeclaration
p162
(dp163
g27
S'createWithStream'
p164
sg68
(lp165
(i__main__
DelphiFormalParameter
p166
(dp167
g72
Nsg45
(lp168
S'aStream'
p169
asg75
(i__main__
DelphiNamedType
p170
(dp171
g34
S'TStream'
p172
sg87
g1
sg88
Nsbsg79
Nsbasg89
g61
sg90
Nsg91
I0
sg92
S'constructor'
p173
sg17
(lp174
S'an object that can be used to look up shared resource references'
p175
asbsS'streambigpoint'
p176
(i__main__
DelphiMethodDeclaration
p177
(dp178
g27
S'streamBigPoint'
p179
sg68
(lp180
(i__main__
DelphiFormalParameter
p181
(dp182
g72
Nsg45
(lp183
S'aPoint'
p184
asg75
(i__main__
DelphiNamedType
p185
(dp186
g34
S'TPoint'
p187
sg87
g1
sg88
Nsbsg79
g108
sbasg89
g61
sg90
Nsg91
I0
sg92
g93
sbsS'settoreadingmode'
p188
(i__main__
DelphiMethodDeclaration
p189
(dp190
g27
S'setToReadingMode'
p191
sg68
(lp192
sg89
g61
sg90
Nsg91
I0
sg92
g93
sbsS'relativize'
p193
(i__main__
DelphiMethodDeclaration
p194
(dp195
g27
S'relativize'
p196
sg68
(lp197
(i__main__
DelphiFormalParameter
p198
(dp199
g72
Nsg45
(lp200
S'fileName'
p201
asg75
(i__main__
DelphiPrimitiveType
p202
(dp203
g34
g78
sbsg79
S'const'
p204
sbasg89
g61
sg90
(i__main__
DelphiPrimitiveType
p205
(dp206
g34
g78
sbsg91
I1
sg92
S'function'
p207
sbsS'streamsingle'
p208
(i__main__
DelphiMethodDeclaration
p209
(dp210
g27
S'streamSingle'
p211
sg68
(lp212
(i__main__
DelphiFormalParameter
p213
(dp214
g72
Nsg45
(lp215
S'aSingle'
p216
asg75
(i__main__
DelphiPrimitiveType
p217
(dp218
g34
S'single'
p219
sbsg79
g108
sbasg89
g61
sg90
Nsg91
I0
sg92
g93
sbsS'streamboolean'
p220
(i__main__
DelphiMethodDeclaration
p221
(dp222
g27
S'streamBoolean'
p223
sg68
(lp224
(i__main__
DelphiFormalParameter
p225
(dp226
g72
Nsg45
(lp227
S'aBoolean'
p228
asg75
(i__main__
DelphiPrimitiveType
p229
(dp230
g34
S'boolean'
p231
sbsg79
g108
sbasg89
g61
sg90
Nsg91
I0
sg92
g93
sbsS'streamwordbool'
p232
(i__main__
DelphiMethodDeclaration
p233
(dp234
g27
S'streamWordBool'
p235
sg68
(lp236
(i__main__
DelphiFormalParameter
p237
(dp238
g72
Nsg45
(lp239
S'aWordBool'
p240
asg75
(i__main__
DelphiNamedType
p241
(dp242
g34
S'wordbool'
p243
sg87
g1
sg88
Nsbsg79
g108
sbasg89
g61
sg90
Nsg91
I0
sg92
g93
sbsS'streamchar'
p244
(i__main__
DelphiMethodDeclaration
p245
(dp246
g27
S'streamChar'
p247
sg68
(lp248
(i__main__
DelphiFormalParameter
p249
(dp250
g72
Nsg45
(lp251
S'aChar'
p252
asg75
(i__main__
DelphiPrimitiveType
p253
(dp254
g34
S'char'
p255
sbsg79
g108
sbasg89
g61
sg90
Nsg91
I0
sg92
g93
sbsS'streamsmallint'
p256
(i__main__
DelphiMethodDeclaration
p257
(dp258
g27
S'streamSmallint'
p259
sg68
(lp260
(i__main__
DelphiFormalParameter
p261
(dp262
g72
Nsg45
(lp263
S'aSmallint'
p264
asg75
(i__main__
DelphiPrimitiveType
p265
(dp266
g34
g35
sbsg79
g108
sbasg89
g61
sg90
Nsg91
I0
sg92
g93
sbsS'streamstringlist'
p267
(i__main__
DelphiMethodDeclaration
p268
(dp269
g27
S'streamStringList'
p270
sg68
(lp271
(i__main__
DelphiFormalParameter
p272
(dp273
g72
Nsg45
(lp274
S'aStringList'
p275
asg75
(i__main__
DelphiNamedType
p276
(dp277
g34
S'TStringList'
p278
sg87
g1
sg88
Nsbsg79
Nsbasg89
g61
sg90
Nsg91
I0
sg92
g93
sbsS'streamsinglepoint'
p279
(i__main__
DelphiMethodDeclaration
p280
(dp281
g27
S'streamSinglePoint'
p282
sg68
(lp283
(i__main__
DelphiFormalParameter
p284
(dp285
g72
Nsg45
(lp286
S'aPoint'
p287
asg75
(i__main__
DelphiNamedType
p288
(dp289
g34
S'SinglePoint'
p290
sg87
g1
sg88
Nsbsg79
g108
sbasg89
g61
sg90
Nsg91
I0
sg92
g93
sbsS'getstreamposition'
p291
(i__main__
DelphiMethodDeclaration
p292
(dp293
g27
S'getStreamPosition'
p294
sg68
(lp295
sg89
g61
sg90
(i__main__
DelphiPrimitiveType
p296
(dp297
g34
S'longint'
p298
sbsg91
I0
sg92
g207
sbsS'streamrgb'
p299
(i__main__
DelphiMethodDeclaration
p300
(dp301
g27
S'streamRGB'
p302
sg68
(lp303
(i__main__
DelphiFormalParameter
p304
(dp305
g72
Nsg45
(lp306
S'aRGB'
p307
asg75
(i__main__
DelphiPrimitiveType
p308
(dp309
g34
g298
sbsg79
g108
sbasg89
g61
sg90
Nsg91
I0
sg92
g93
sbsS'streamclassandversioninformation'
p310
(i__main__
DelphiMethodDeclaration
p311
(dp312
g27
S'streamClassAndVersionInformation'
p313
sg68
(lp314
(i__main__
DelphiFormalParameter
p315
(dp316
g72
Nsg45
(lp317
S'cvir'
p318
asg75
(i__main__
DelphiNamedType
p319
(dp320
g34
S'PdClassAndVersionInformationRecord'
p321
sg87
g1
sg88
Nsbsg79
g108
sbasg89
g61
sg90
Nsg91
I0
sg92
g93
sbsS'streamlongbool'
p322
(i__main__
DelphiMethodDeclaration
p323
(dp324
g27
S'streamLongBool'
p325
sg68
(lp326
(i__main__
DelphiFormalParameter
p327
(dp328
g72
Nsg45
(lp329
S'aLongBool'
p330
asg75
(i__main__
DelphiNamedType
p331
(dp332
g34
S'longbool'
p333
sg87
g1
sg88
Nsbsg79
g108
sbasg89
g61
sg90
Nsg91
I0
sg92
g93
sbsS'save'
p334
(i__main__
DelphiMethodDeclaration
p335
(dp336
g27
S'save'
p337
sg68
(lp338
(i__main__
DelphiFormalParameter
p339
(dp340
g72
Nsg45
(lp341
S'fileName'
p342
asg75
(i__main__
DelphiPrimitiveType
p343
(dp344
g34
g78
sbsg79
Nsba(i__main__
DelphiFormalParameter
p345
(dp346
g72
Nsg45
(lp347
S'objectToSave'
p348
asg75
(i__main__
DelphiNamedType
p349
(dp350
g34
S'PdStreamableObject'
p351
sg87
g1
sg88
Nsbsg79
Nsbasg89
g61
sg90
Nsg91
I1
sg92
g93
sbsS'isreading'
p352
(i__main__
DelphiMethodDeclaration
p353
(dp354
g27
S'isReading'
p355
sg68
(lp356
sg89
g61
sg90
(i__main__
DelphiPrimitiveType
p357
(dp358
g34
g231
sbsg91
I0
sg92
g207
sbsS'streamextended'
p359
(i__main__
DelphiMethodDeclaration
p360
(dp361
g27
S'streamExtended'
p362
sg68
(lp363
(i__main__
DelphiFormalParameter
p364
(dp365
g72
Nsg45
(lp366
S'anExtended'
p367
asg75
(i__main__
DelphiPrimitiveType
p368
(dp369
g34
S'extended'
p370
sbsg79
g108
sbasg89
g61
sg90
Nsg91
I0
sg92
g93
sbsS'streamcomp'
p371
(i__main__
DelphiMethodDeclaration
p372
(dp373
g27
S'streamComp'
p374
sg68
(lp375
(i__main__
DelphiFormalParameter
p376
(dp377
g72
Nsg45
(lp378
S'aComp'
p379
asg75
(i__main__
DelphiPrimitiveType
p380
(dp381
g34
S'comp'
p382
sbsg79
g108
sbasg89
g61
sg90
Nsg91
I0
sg92
g93
sbsS'streamshortstring'
p383
(i__main__
DelphiMethodDeclaration
p384
(dp385
g27
S'streamShortString'
p386
sg68
(lp387
(i__main__
DelphiFormalParameter
p388
(dp389
g72
Nsg45
(lp390
S'aString'
p391
asg75
(i__main__
DelphiPrimitiveType
p392
(dp393
g34
S'shortstring'
p394
sbsg79
g108
sbasg89
g61
sg90
Nsg91
I0
sg92
g93
sbsS'streambooleanarray'
p395
(i__main__
DelphiMethodDeclaration
p396
(dp397
g27
S'streamBooleanArray'
p398
sg68
(lp399
(i__main__
DelphiFormalParameter
p400
(dp401
g72
Nsg45
(lp402
S'anArray'
p403
asg75
(i__main__
DelphiArrayType
p404
(dp405
g75
(i__main__
DelphiPrimitiveType
p406
(dp407
g34
g231
sbsS'sizes'
p408
(lp409
sbsg79
g108
sbasg89
g61
sg90
Nsg91
I0
sg92
g93
sbsS'streamsinglearray'
p410
(i__main__
DelphiMethodDeclaration
p411
(dp412
g27
S'streamSingleArray'
p413
sg68
(lp414
(i__main__
DelphiFormalParameter
p415
(dp416
g72
Nsg45
(lp417
S'anArray'
p418
asg75
(i__main__
DelphiArrayType
p419
(dp420
g75
(i__main__
DelphiPrimitiveType
p421
(dp422
g34
g219
sbsg408
(lp423
sbsg79
g108
sbasg89
g61
sg90
Nsg91
I0
sg92
g93
sbsS'settowritingmode'
p424
(i__main__
DelphiMethodDeclaration
p425
(dp426
g27
S'setToWritingMode'
p427
sg68
(lp428
sg89
g61
sg90
Nsg91
I0
sg92
g93
sbsS'streamreal'
p429
(i__main__
DelphiMethodDeclaration
p430
(dp431
g27
S'streamReal'
p432
sg68
(lp433
(i__main__
DelphiFormalParameter
p434
(dp435
g72
Nsg45
(lp436
S'aReal'
p437
asg75
(i__main__
DelphiPrimitiveType
p438
(dp439
g34
S'real'
p440
sbsg79
g108
sbasg89
g61
sg90
Nsg91
I0
sg92
g93
sbsS'streamlistoflongints'
p441
(i__main__
DelphiMethodDeclaration
p442
(dp443
g27
S'streamListOfLongints'
p444
sg68
(lp445
(i__main__
DelphiFormalParameter
p446
(dp447
g72
Nsg45
(lp448
S'aList'
p449
asg75
(i__main__
DelphiNamedType
p450
(dp451
g34
S'TList'
p452
sg87
g1
sg88
Nsbsg79
Nsbasg89
g61
sg90
Nsg91
I0
sg92
g93
sbsS'streamrect'
p453
(i__main__
DelphiMethodDeclaration
p454
(dp455
g27
S'streamRect'
p456
sg68
(lp457
(i__main__
DelphiFormalParameter
p458
(dp459
g72
Nsg45
(lp460
S'aRect'
p461
asg75
(i__main__
DelphiNamedType
p462
(dp463
g34
S'TRect'
p464
sg87
g1
sg88
Nsbsg79
g108
sbasg89
g61
sg90
Nsg91
I0
sg92
g93
sbsS'iscounting'
p465
(i__main__
DelphiMethodDeclaration
p466
(dp467
g27
S'isCounting'
p468
sg68
(lp469
sg89
g61
sg90
(i__main__
DelphiPrimitiveType
p470
(dp471
g34
g231
sbsg91
I0
sg92
g207
sbsS'streambyte'
p472
(i__main__
DelphiMethodDeclaration
p473
(dp474
g27
S'streamByte'
p475
sg68
(lp476
(i__main__
DelphiFormalParameter
p477
(dp478
g72
Nsg45
(lp479
S'aByte'
p480
asg75
(i__main__
DelphiPrimitiveType
p481
(dp482
g34
S'byte'
p483
sbsg79
g108
sbasg89
g61
sg90
Nsg91
I0
sg92
g93
sbsS'streambytebool'
p484
(i__main__
DelphiMethodDeclaration
p485
(dp486
g27
S'streamByteBool'
p487
sg68
(lp488
(i__main__
DelphiFormalParameter
p489
(dp490
g72
Nsg45
(lp491
S'aByteBool'
p492
asg75
(i__main__
DelphiNamedType
p493
(dp494
g34
S'bytebool'
p495
sg87
g1
sg88
Nsbsg79
g108
sbasg89
g61
sg90
Nsg91
I0
sg92
g93
sbsS'iswriting'
p496
(i__main__
DelphiMethodDeclaration
p497
(dp498
g27
S'isWriting'
p499
sg68
(lp500
sg89
g61
sg90
(i__main__
DelphiPrimitiveType
p501
(dp502
g34
g231
sbsg91
I0
sg92
g207
sbsS'streamansistring'
p503
(i__main__
DelphiMethodDeclaration
p504
(dp505
g27
S'streamAnsiString'
p506
sg68
(lp507
(i__main__
DelphiFormalParameter
p508
(dp509
g72
Nsg45
(lp510
S'aString'
p511
asg75
(i__main__
DelphiNamedType
p512
(dp513
g34
S'ansistring'
p514
sg87
g1
sg88
Nsbsg79
g108
sbasg89
g61
sg90
Nsg91
I0
sg92
g93
sbsS'setstreamposition'
p515
(i__main__
DelphiMethodDeclaration
p516
(dp517
g27
S'setStreamPosition'
p518
sg68
(lp519
(i__main__
DelphiFormalParameter
p520
(dp521
g72
Nsg45
(lp522
S'position'
p523
asg75
(i__main__
DelphiPrimitiveType
p524
(dp525
g34
g298
sbsg79
Nsbasg89
g61
sg90
Nsg91
I0
sg92
g93
sbsS'streambytes'
p526
(i__main__
DelphiMethodDeclaration
p527
(dp528
g27
S'streamBytes'
p529
sg68
(lp530
(i__main__
DelphiFormalParameter
p531
(dp532
g72
Nsg45
(lp533
S'bytes'
p534
asg75
Nsg79
g108
sba(i__main__
DelphiFormalParameter
p535
(dp536
g72
Nsg45
(lp537
S'size'
p538
asg75
(i__main__
DelphiPrimitiveType
p539
(dp540
g34
g298
sbsg79
Nsbasg89
g61
sg90
Nsg91
I0
sg92
g93
sg17
(lp541
S'simple types'
p542
aS'simple types'
p543
asbsS'streamdouble'
p544
(i__main__
DelphiMethodDeclaration
p545
(dp546
g27
S'streamDouble'
p547
sg68
(lp548
(i__main__
DelphiFormalParameter
p549
(dp550
g72
Nsg45
(lp551
S'aDouble'
p552
asg75
(i__main__
DelphiPrimitiveType
p553
(dp554
g34
S'double'
p555
sbsg79
g108
sbasg89
g61
sg90
Nsg91
I0
sg92
g93
sbsS'streamcolorref'
p556
(i__main__
DelphiMethodDeclaration
p557
(dp558
g27
S'streamColorRef'
p559
sg68
(lp560
(i__main__
DelphiFormalParameter
p561
(dp562
g72
Nsg45
(lp563
S'aColorRef'
p564
asg75
(i__main__
DelphiNamedType
p565
(dp566
g34
S'TColorRef'
p567
sg87
g1
sg88
Nsbsg79
g108
sbasg89
g61
sg90
Nsg91
I0
sg92
g93
sbsS'streamicon'
p568
(i__main__
DelphiMethodDeclaration
p569
(dp570
g27
S'streamIcon'
p571
sg68
(lp572
(i__main__
DelphiFormalParameter
p573
(dp574
g72
Nsg45
(lp575
S'anIcon'
p576
asg75
(i__main__
DelphiNamedType
p577
(dp578
g34
S'TIcon'
p579
sg87
g1
sg88
Nsbsg79
Nsbasg89
g61
sg90
Nsg91
I0
sg92
g93
sbsS'settocountingmode'
p580
(i__main__
DelphiMethodDeclaration
p581
(dp582
g27
S'setToCountingMode'
p583
sg68
(lp584
sg89
g61
sg90
Nsg91
I0
sg92
g93
sbsS'streamword'
p585
(i__main__
DelphiMethodDeclaration
p586
(dp587
g27
S'streamWord'
p588
sg68
(lp589
(i__main__
DelphiFormalParameter
p590
(dp591
g72
Nsg45
(lp592
S'aWord'
p593
asg75
(i__main__
DelphiPrimitiveType
p594
(dp595
g34
S'word'
p596
sbsg79
g108
sbasg89
g61
sg90
Nsg91
I0
sg92
g93
sbsS'streampchar'
p597
(i__main__
DelphiMethodDeclaration
p598
(dp599
g27
S'streamPChar'
p600
sg68
(lp601
(i__main__
DelphiFormalParameter
p602
(dp603
g72
Nsg45
(lp604
S'aPChar'
p605
asg75
(i__main__
DelphiPrimitiveType
p606
(dp607
g34
S'pchar'
p608
sbsg79
g108
sbasg89
g61
sg90
Nsg91
I0
sg92
g93
sbsS'streamlongint'
p609
(i__main__
DelphiMethodDeclaration
p610
(dp611
g27
S'streamLongint'
p612
sg68
(lp613
(i__main__
DelphiFormalParameter
p614
(dp615
g72
Nsg45
(lp616
S'aLongint'
p617
asg75
(i__main__
DelphiPrimitiveType
p618
(dp619
g34
g298
sbsg79
g108
sbasg89
g61
sg90
Nsg91
I0
sg92
g93
sbsS'streambigrect'
p620
(i__main__
DelphiMethodDeclaration
p621
(dp622
g27
S'streamBigRect'
p623
sg68
(lp624
(i__main__
DelphiFormalParameter
p625
(dp626
g72
Nsg45
(lp627
S'aRect'
p628
asg75
(i__main__
DelphiNamedType
p629
(dp630
g34
S'TRect'
p631
sg87
g1
sg88
Nsbsg79
g108
sbasg89
g61
sg90
Nsg91
I0
sg92
g93
sbsS'streamcursor'
p632
(i__main__
DelphiMethodDeclaration
p633
(dp634
g27
S'streamCursor'
p635
sg68
(lp636
(i__main__
DelphiFormalParameter
p637
(dp638
g72
Nsg45
(lp639
S'aCursor'
p640
asg75
(i__main__
DelphiNamedType
p641
(dp642
g34
S'TCursor'
p643
sg87
g1
sg88
Nsbsg79
g108
sbasg89
g61
sg90
Nsg91
I0
sg92
g93
sbsS'streamnilobject'
p644
(i__main__
DelphiMethodDeclaration
p645
(dp646
g27
S'streamNilObject'
p647
sg68
(lp648
sg89
g61
sg90
Nsg91
I0
sg92
g93
sbsS'streamorcreateobject'
p649
(i__main__
DelphiMethodDeclaration
p650
(dp651
g27
S'streamOrCreateObject'
p652
sg68
(lp653
(i__main__
DelphiFormalParameter
p654
(dp655
g72
Nsg45
(lp656
S'anObject'
p657
asg75
(i__main__
DelphiNamedType
p658
(dp659
g34
S'PdStreamableObject'
p660
sg87
g1
sg88
Nsbsg79
g108
sbasg89
g61
sg90
Nsg91
I0
sg92
g93
sbssS'superclassNamedTypes'
p661
(lp662
(i__main__
DelphiNamedType
p663
(dp664
g34
S'TObject'
p665
sg87
g1
sg88
Nsbasg29
(dp666
S'resourceprovider'
p667
(i__main__
DelphiNamedType
p668
(dp669
g34
S'TObject'
p670
sg87
g1
sg88
NsbsS'bytesstreamed'
p671
(i__main__
DelphiPrimitiveType
p672
(dp673
g34
g298
sbsS'mode'
p674
(i__main__
DelphiNamedType
p675
(dp676
g34
S'PdFilerMode'
p677
sg87
g1
sg88
NsbsS'stream'
p678
(i__main__
DelphiNamedType
p679
(dp680
g34
S'TStream'
p681
sg87
g1
sg88
NsbssS'methodNamesInDefinedOrder'
p682
(lp683
S'createwithstream'
p684
aS'settoreadingmode'
p685
aS'settowritingmode'
p686
aS'settocountingmode'
p687
aS'isreading'
p688
aS'iswriting'
p689
aS'iscounting'
p690
aS'streambytes'
p691
aS'streamclassandversioninformation'
p692
aS'streamshortstring'
p693
aS'streamansistring'
p694
aS'streampchar'
p695
aS'streamchar'
p696
aS'streamboolean'
p697
aS'streambytebool'
p698
aS'streamwordbool'
p699
aS'streamlongbool'
p700
aS'streamshortint'
p701
aS'streamsmallint'
p702
aS'streamlongint'
p703
aS'streambyte'
p704
aS'streamword'
p705
aS'streamreal'
p706
aS'streamsingle'
p707
aS'streamsinglearray'
p708
aS'streambooleanarray'
p709
aS'streamdouble'
p710
aS'streamextended'
p711
aS'streamcomp'
p712
aS'streampoint'
p713
aS'streamsinglepoint'
p714
aS'streamrect'
p715
aS'streambigpoint'
p716
aS'streambigrect'
p717
aS'streamcolor'
p718
aS'streamcolorref'
p719
aS'streamrgb'
p720
aS'streampenstyle'
p721
aS'streamwindowstate'
p722
aS'streamstringlist'
p723
aS'streamlistoflongints'
p724
aS'streamcursor'
p725
aS'streamicon'
p726
aS'save'
p727
aS'load'
p728
aS'relativize'
p729
aS'streamnilobject'
p730
aS'streamorcreateobject'
p731
aS'getstreamposition'
p732
aS'setstreamposition'
p733
asS'methodImplementations'
p734
(dp735
S'load'
p736
(i__main__
DelphiMethodImplementation
p737
(dp738
S'originalDeclaration'
p739
g65
sg27
g67
sg68
(lp740
(i__main__
DelphiFormalParameter
p741
(dp742
g72
Nsg45
(lp743
S'fileName'
p744
asg75
(i__main__
DelphiPrimitiveType
p745
(dp746
g34
g78
sbsg79
Nsba(i__main__
DelphiFormalParameter
p747
(dp748
g72
Nsg45
(lp749
S'objectToLoad'
p750
asg75
(i__main__
DelphiNamedType
p751
(dp752
g34
S'PdStreamableObject'
p753
sg87
g1
sg88
Nsbsg79
NsbasS'varParamIndexes'
p754
(lp755
sS'varParamsSkipped'
p756
(lp757
sS'argNames'
p758
(lp759
S'self'
p760
ag744
ag750
asS'argTypes'
p761
(dp762
g750
g751
sg744
g745
ssg89
S'PdFiler'
p763
sg90
NsS'varParamNames'
p764
(lp765
sg91
I0
sg92
g93
sS'block'
p766
(i__main__
DelphiBlock
p767
(dp768
S'compoundStatement'
p769
(idelphi
DelphiCompoundStatement
p770
(dp771
S'statements'
p772
(lp773
(i__main__
DelphiAssignStatement
p774
(dp775
S'newValueExpression'
p776
(i__main__
DelphiIdentAccess
p777
(dp778
S'ident'
p779
S'TFileStream'
p780
sS'endAccessList'
p781
(lp782
(idelphi
DelphiFieldEndAccess
p783
(dp784
S'field'
p785
S'create'
p786
sba(idelphi
DelphiFunctionEndAccess
p787
(dp788
S'expressionList'
p789
(lp790
(i__main__
DelphiIdentAccess
p791
(dp792
g779
S'fileName'
p793
sg781
(lp794
sba(i__main__
DelphiIdentAccess
p795
(dp796
g779
S'fmOpenRead'
p797
sg781
(lp798
sbasbasbsS'destinationExpression'
p799
(i__main__
DelphiIdentAccess
p800
(dp801
g779
S'fileStream'
p802
sg781
(lp803
sbsba(idelphi
DelphiTryFinallyStatement
p804
(dp805
S'tryStatements'
p806
(lp807
(i__main__
DelphiAssignStatement
p808
(dp809
g776
(i__main__
DelphiIdentAccess
p810
(dp811
g779
S'PdFiler'
p812
sg781
(lp813
(idelphi
DelphiFieldEndAccess
p814
(dp815
g785
S'createWithStream'
p816
sba(idelphi
DelphiFunctionEndAccess
p817
(dp818
g789
(lp819
(i__main__
DelphiIdentAccess
p820
(dp821
g779
S'fileStream'
p822
sg781
(lp823
sbasbasbsg799
(i__main__
DelphiIdentAccess
p824
(dp825
g779
S'filer'
p826
sg781
(lp827
sbsba(i__main__
DelphiAssignStatement
p828
(dp829
g776
Nsg799
(i__main__
DelphiIdentAccess
p830
(dp831
g779
S'filer'
p832
sg781
(lp833
(idelphi
DelphiFieldEndAccess
p834
(dp835
g785
S'setToReadingMode'
p836
sbasbsba(idelphi
DelphiTryFinallyStatement
p837
(dp838
g806
(lp839
(i__main__
DelphiAssignStatement
p840
(dp841
g776
Nsg799
(i__main__
DelphiIdentAccess
p842
(dp843
g779
S'objectToLoad'
p844
sg781
(lp845
(idelphi
DelphiFieldEndAccess
p846
(dp847
g785
S'streamUsingFiler'
p848
sba(idelphi
DelphiFunctionEndAccess
p849
(dp850
g789
(lp851
(i__main__
DelphiIdentAccess
p852
(dp853
g779
S'filer'
p854
sg781
(lp855
sbasbasbsbasS'finallyStatements'
p856
(lp857
(i__main__
DelphiAssignStatement
p858
(dp859
g776
Nsg799
(i__main__
DelphiIdentAccess
p860
(dp861
g779
S'filer'
p862
sg781
(lp863
(idelphi
DelphiFieldEndAccess
p864
(dp865
g785
S'free'
p866
sbasbsbasbasg856
(lp867
(i__main__
DelphiAssignStatement
p868
(dp869
g776
Nsg799
(i__main__
DelphiIdentAccess
p870
(dp871
g779
S'fileStream'
p872
sg781
(lp873
(idelphi
DelphiFieldEndAccess
p874
(dp875
g785
S'free'
p876
sbasbsbasbasbsS'limitedDeclSectionList'
p877
(lp878
(i__main__
DelphiVarSection
p879
(dp880
S'atTopLevel'
p881
I0
sS'varDeclList'
p882
(lp883
(idelphi
DelphiVarDecl
p884
(dp885
S'constExpression'
p886
NsS'identList'
p887
(lp888
S'fileStream'
p889
asg75
(i__main__
DelphiNamedType
p890
(dp891
g34
S'TFileStream'
p892
sg87
g1
sg88
Nsbsba(idelphi
DelphiVarDecl
p893
(dp894
g886
Nsg887
(lp895
S'filer'
p896
asg75
(i__main__
DelphiNamedType
p897
(dp898
g34
S'PdFiler'
p899
sg87
g1
sg88
Nsbsbasbasbsg17
g94
sbsS'streampenstyle'
p900
(i__main__
DelphiMethodImplementation
p901
(dp902
g739
g97
sg27
g99
sg68
(lp903
(i__main__
DelphiFormalParameter
p904
(dp905
g72
Nsg45
(lp906
S'aPenStyle'
p907
asg75
(i__main__
DelphiNamedType
p908
(dp909
g34
S'TPenStyle'
p910
sg87
g1
sg88
Nsbsg79
g108
sbasg754
(lp911
sg756
(lp912
g907
asg758
(lp913
g760
ag907
asg761
(dp914
g907
g908
ssg89
S'PdFiler'
p915
sg90
Nsg764
(lp916
sg91
I0
sg92
g93
sg766
(i__main__
DelphiBlock
p917
(dp918
g769
(idelphi
DelphiCompoundStatement
p919
(dp920
g772
(lp921
(i__main__
DelphiAssignStatement
p922
(dp923
g776
Nsg799
(i__main__
DelphiIdentAccess
p924
(dp925
g779
S'self'
p926
sg781
(lp927
(idelphi
DelphiFieldEndAccess
p928
(dp929
g785
S'streamBytes'
p930
sba(idelphi
DelphiFunctionEndAccess
p931
(dp932
g789
(lp933
(i__main__
DelphiIdentAccess
p934
(dp935
g779
S'aPenStyle'
p936
sg781
(lp937
sba(idelphi
DelphiSizeof
p938
(dp939
g886
(i__main__
DelphiIdentAccess
p940
(dp941
g779
S'TPenStyle'
p942
sg781
(lp943
sbsbasbasbsbasbsg877
(lp944
sbsbsS'streamcolor'
p945
(i__main__
DelphiMethodImplementation
p946
(dp947
g739
g110
sg27
g112
sg68
(lp948
(i__main__
DelphiFormalParameter
p949
(dp950
g72
Nsg45
(lp951
S'aColor'
p952
asg75
(i__main__
DelphiNamedType
p953
(dp954
g34
S'TColor'
p955
sg87
g1
sg88
Nsbsg79
g108
sbasg754
(lp956
sg756
(lp957
g952
asg758
(lp958
g760
ag952
asg761
(dp959
g952
g953
ssg89
S'PdFiler'
p960
sg90
Nsg764
(lp961
sg91
I0
sg92
g93
sg766
(i__main__
DelphiBlock
p962
(dp963
g769
(idelphi
DelphiCompoundStatement
p964
(dp965
g772
(lp966
(i__main__
DelphiAssignStatement
p967
(dp968
g776
Nsg799
(i__main__
DelphiIdentAccess
p969
(dp970
g779
S'self'
p971
sg781
(lp972
(idelphi
DelphiFieldEndAccess
p973
(dp974
g785
S'streamBytes'
p975
sba(idelphi
DelphiFunctionEndAccess
p976
(dp977
g789
(lp978
(i__main__
DelphiIdentAccess
p979
(dp980
g779
S'aColor'
p981
sg781
(lp982
sba(idelphi
DelphiSizeof
p983
(dp984
g886
(i__main__
DelphiIdentAccess
p985
(dp986
g779
S'TColor'
p987
sg781
(lp988
sbsbasbasbsbasbsg877
(lp989
sbsbsS'streamshortint'
p990
(i__main__
DelphiMethodImplementation
p991
(dp992
g739
g122
sg27
g124
sg68
(lp993
(i__main__
DelphiFormalParameter
p994
(dp995
g72
Nsg45
(lp996
S'aShortint'
p997
asg75
(i__main__
DelphiPrimitiveType
p998
(dp999
g34
g132
sbsg79
g108
sbasg754
(lp1000
I0
asg756
(lp1001
sg758
(lp1002
g760
ag997
asg761
(dp1003
g997
g998
ssg89
S'PdFiler'
p1004
sg90
Nsg764
(lp1005
g997
asg91
I0
sg92
g93
sg766
(i__main__
DelphiBlock
p1006
(dp1007
g769
(idelphi
DelphiCompoundStatement
p1008
(dp1009
g772
(lp1010
(i__main__
DelphiAssignStatement
p1011
(dp1012
g776
Nsg799
(i__main__
DelphiIdentAccess
p1013
(dp1014
g779
S'self'
p1015
sg781
(lp1016
(idelphi
DelphiFieldEndAccess
p1017
(dp1018
g785
S'streamBytes'
p1019
sba(idelphi
DelphiFunctionEndAccess
p1020
(dp1021
g789
(lp1022
(i__main__
DelphiIdentAccess
p1023
(dp1024
g779
S'aShortint'
p1025
sg781
(lp1026
sba(idelphi
DelphiSizeof
p1027
(dp1028
g886
(idelphi
ConstValueTypecastOrJustTypeForSizeOf
p1029
(dp1030
g886
NsS'typeIdentPredefined'
p1031
(i__main__
DelphiPrimitiveType
p1032
(dp1033
g34
g132
sbsbsbasbasbsbasbsg877
(lp1034
sbsbsS'streampoint'
p1035
(i__main__
DelphiMethodImplementation
p1036
(dp1037
g739
g134
sg27
g136
sg68
(lp1038
(i__main__
DelphiFormalParameter
p1039
(dp1040
g72
Nsg45
(lp1041
S'aPoint'
p1042
asg75
(i__main__
DelphiNamedType
p1043
(dp1044
g34
S'TPoint'
p1045
sg87
g1
sg88
Nsbsg79
g108
sbasg754
(lp1046
sg756
(lp1047
g1042
asg758
(lp1048
g760
ag1042
asg761
(dp1049
g1042
g1043
ssg89
S'PdFiler'
p1050
sg90
Nsg764
(lp1051
sg91
I0
sg92
g93
sg766
(i__main__
DelphiBlock
p1052
(dp1053
g769
(idelphi
DelphiCompoundStatement
p1054
(dp1055
g772
(lp1056
(idelphi
DelphiIfStatement
p1057
(dp1058
S'expression'
p1059
(i__main__
DelphiIdentAccess
p1060
(dp1061
g779
S'self'
p1062
sg781
(lp1063
(idelphi
DelphiFieldEndAccess
p1064
(dp1065
g785
S'isReading'
p1066
sbasbsS'ifFalseStatement'
p1067
(idelphi
DelphiCompoundStatement
p1068
(dp1069
g772
(lp1070
(i__main__
DelphiAssignStatement
p1071
(dp1072
g776
(i__main__
DelphiIdentAccess
p1073
(dp1074
g779
S'aPoint'
p1075
sg781
(lp1076
(idelphi
DelphiFieldEndAccess
p1077
(dp1078
g785
S'x'
sbasbsg799
(i__main__
DelphiIdentAccess
p1079
(dp1080
g779
S'x'
sg781
(lp1081
sbsba(i__main__
DelphiAssignStatement
p1082
(dp1083
g776
(i__main__
DelphiIdentAccess
p1084
(dp1085
g779
S'aPoint'
p1086
sg781
(lp1087
(idelphi
DelphiFieldEndAccess
p1088
(dp1089
g785
S'y'
sbasbsg799
(i__main__
DelphiIdentAccess
p1090
(dp1091
g779
S'y'
sg781
(lp1092
sbsba(i__main__
DelphiAssignStatement
p1093
(dp1094
g776
Nsg799
(i__main__
DelphiIdentAccess
p1095
(dp1096
g779
S'self'
p1097
sg781
(lp1098
(idelphi
DelphiFieldEndAccess
p1099
(dp1100
g785
S'streamSmallint'
p1101
sba(idelphi
DelphiFunctionEndAccess
p1102
(dp1103
g789
(lp1104
(i__main__
DelphiIdentAccess
p1105
(dp1106
g779
S'x'
sg781
(lp1107
sbasbasbsba(i__main__
DelphiAssignStatement
p1108
(dp1109
g776
Nsg799
(i__main__
DelphiIdentAccess
p1110
(dp1111
g779
S'self'
p1112
sg781
(lp1113
(idelphi
DelphiFieldEndAccess
p1114
(dp1115
g785
S'streamSmallint'
p1116
sba(idelphi
DelphiFunctionEndAccess
p1117
(dp1118
g789
(lp1119
(i__main__
DelphiIdentAccess
p1120
(dp1121
g779
S'y'
sg781
(lp1122
sbasbasbsbasbsS'ifTrueStatement'
p1123
(idelphi
DelphiCompoundStatement
p1124
(dp1125
g772
(lp1126
(i__main__
DelphiAssignStatement
p1127
(dp1128
g776
Nsg799
(i__main__
DelphiIdentAccess
p1129
(dp1130
g779
S'self'
p1131
sg781
(lp1132
(idelphi
DelphiFieldEndAccess
p1133
(dp1134
g785
S'streamSmallint'
p1135
sba(idelphi
DelphiFunctionEndAccess
p1136
(dp1137
g789
(lp1138
(i__main__
DelphiIdentAccess
p1139
(dp1140
g779
S'x'
sg781
(lp1141
sbasbasbsba(i__main__
DelphiAssignStatement
p1142
(dp1143
g776
Nsg799
(i__main__
DelphiIdentAccess
p1144
(dp1145
g779
S'self'
p1146
sg781
(lp1147
(idelphi
DelphiFieldEndAccess
p1148
(dp1149
g785
S'streamSmallint'
p1150
sba(idelphi
DelphiFunctionEndAccess
p1151
(dp1152
g789
(lp1153
(i__main__
DelphiIdentAccess
p1154
(dp1155
g779
S'y'
sg781
(lp1156
sbasbasbsba(i__main__
DelphiAssignStatement
p1157
(dp1158
g776
(i__main__
DelphiIdentAccess
p1159
(dp1160
g779
S'Point'
p1161
sg781
(lp1162
(idelphi
DelphiFunctionEndAccess
p1163
(dp1164
g789
(lp1165
(i__main__
DelphiIdentAccess
p1166
(dp1167
g779
S'x'
sg781
(lp1168
sba(i__main__
DelphiIdentAccess
p1169
(dp1170
g779
S'y'
sg781
(lp1171
sbasbasbsg799
(i__main__
DelphiIdentAccess
p1172
(dp1173
g779
S'aPoint'
p1174
sg781
(lp1175
sbsbasbsbasbsg877
(lp1176
(i__main__
DelphiVarSection
p1177
(dp1178
g881
I0
sg882
(lp1179
(idelphi
DelphiVarDecl
p1180
(dp1181
g886
Nsg887
(lp1182
S'x'
aS'y'
asg75
(i__main__
DelphiPrimitiveType
p1183
(dp1184
g34
g35
sbsbasbasbsg17
g145
sbsS'streamwindowstate'
p1185
(i__main__
DelphiMethodImplementation
p1186
(dp1187
g739
g150
sg27
g152
sg68
(lp1188
(i__main__
DelphiFormalParameter
p1189
(dp1190
g72
Nsg45
(lp1191
S'aWindowState'
p1192
asg75
(i__main__
DelphiNamedType
p1193
(dp1194
g34
S'TWindowState'
p1195
sg87
g1
sg88
Nsbsg79
g108
sbasg754
(lp1196
sg756
(lp1197
g1192
asg758
(lp1198
g760
ag1192
asg761
(dp1199
g1192
g1193
ssg89
S'PdFiler'
p1200
sg90
Nsg764
(lp1201
sg91
I0
sg92
g93
sg766
(i__main__
DelphiBlock
p1202
(dp1203
g769
(idelphi
DelphiCompoundStatement
p1204
(dp1205
g772
(lp1206
(i__main__
DelphiAssignStatement
p1207
(dp1208
g776
Nsg799
(i__main__
DelphiIdentAccess
p1209
(dp1210
g779
S'self'
p1211
sg781
(lp1212
(idelphi
DelphiFieldEndAccess
p1213
(dp1214
g785
S'streamBytes'
p1215
sba(idelphi
DelphiFunctionEndAccess
p1216
(dp1217
g789
(lp1218
(i__main__
DelphiIdentAccess
p1219
(dp1220
g779
S'aWindowState'
p1221
sg781
(lp1222
sba(idelphi
DelphiSizeof
p1223
(dp1224
g886
(i__main__
DelphiIdentAccess
p1225
(dp1226
g779
S'TWindowState'
p1227
sg781
(lp1228
sbsbasbasbsbasbsg877
(lp1229
sbsbsS'createwithstream'
p1230
(i__main__
DelphiMethodImplementation
p1231
(dp1232
g739
g162
sg27
g164
sg68
(lp1233
(i__main__
DelphiFormalParameter
p1234
(dp1235
g72
Nsg45
(lp1236
S'aStream'
p1237
asg75
(i__main__
DelphiNamedType
p1238
(dp1239
g34
S'TStream'
p1240
sg87
g1
sg88
Nsbsg79
Nsbasg754
(lp1241
sg756
(lp1242
sg758
(lp1243
g760
ag1237
asg761
(dp1244
g1237
g1238
ssg89
S'PdFiler'
p1245
sg90
Nsg764
(lp1246
sg91
I0
sg92
g173
sg766
(i__main__
DelphiBlock
p1247
(dp1248
g769
(idelphi
DelphiCompoundStatement
p1249
(dp1250
g772
(lp1251
(i__main__
DelphiAssignStatement
p1252
(dp1253
g776
(i__main__
DelphiIdentAccess
p1254
(dp1255
g779
S'aStream'
p1256
sg781
(lp1257
sbsg799
(i__main__
DelphiIdentAccess
p1258
(dp1259
g779
S'stream'
p1260
sg781
(lp1261
sbsba(idelphi
DelphiIfStatement
p1262
(dp1263
g1059
(idelphi
DelphiRelOp
p1264
(dp1265
S'simpleExpression1'
p1266
(i__main__
DelphiIdentAccess
p1267
(dp1268
g779
S'stream'
p1269
sg781
(lp1270
sbsS'simpleExpression2'
p1271
(idelphi
DelphiNilValue
p1272
(dp1273
bsS'relOp'
p1274
S'='
sbsg1067
Nsg1123
(i__main__
DelphiAssignStatement
p1275
(dp1276
g776
Nsg799
(i__main__
DelphiIdentAccess
p1277
(dp1278
g779
S'self'
p1279
sg781
(lp1280
(idelphi
DelphiFieldEndAccess
p1281
(dp1282
g785
S'setToCountingMode'
p1283
sbasbsbsbasg17
(lp1284
S'should test type of stream to auomatically set reading or writing mode'
p1285
asbsg877
(lp1286
sbsg17
g174
sbsS'streambigpoint'
p1287
(i__main__
DelphiMethodImplementation
p1288
(dp1289
g739
g177
sg27
g179
sg68
(lp1290
(i__main__
DelphiFormalParameter
p1291
(dp1292
g72
Nsg45
(lp1293
S'aPoint'
p1294
asg75
(i__main__
DelphiNamedType
p1295
(dp1296
g34
S'TPoint'
p1297
sg87
g1
sg88
Nsbsg79
g108
sbasg754
(lp1298
sg756
(lp1299
g1294
asg758
(lp1300
g760
ag1294
asg761
(dp1301
g1294
g1295
ssg89
S'PdFiler'
p1302
sg90
Nsg764
(lp1303
sg91
I0
sg92
g93
sg766
(i__main__
DelphiBlock
p1304
(dp1305
g769
(idelphi
DelphiCompoundStatement
p1306
(dp1307
g772
(lp1308
(i__main__
DelphiAssignStatement
p1309
(dp1310
g776
Nsg799
(i__main__
DelphiIdentAccess
p1311
(dp1312
g779
S'self'
p1313
sg781
(lp1314
(idelphi
DelphiFieldEndAccess
p1315
(dp1316
g785
S'streamBytes'
p1317
sba(idelphi
DelphiFunctionEndAccess
p1318
(dp1319
g789
(lp1320
(i__main__
DelphiIdentAccess
p1321
(dp1322
g779
S'aPoint'
p1323
sg781
(lp1324
sba(idelphi
DelphiSizeof
p1325
(dp1326
g886
(i__main__
DelphiIdentAccess
p1327
(dp1328
g779
S'TPoint'
p1329
sg781
(lp1330
sbsbasbasbsbasbsg877
(lp1331
sbsg17
(lp1332
S'streams 32 bit locations'
p1333
asbsS'settoreadingmode'
p1334
(i__main__
DelphiMethodImplementation
p1335
(dp1336
g739
g189
sg27
g191
sg68
(lp1337
sg754
(lp1338
sg756
(lp1339
sg758
(lp1340
g760
asg761
(dp1341
sg89
S'PdFiler'
p1342
sg90
Nsg764
(lp1343
sg91
I0
sg92
g93
sg766
(i__main__
DelphiBlock
p1344
(dp1345
g769
(idelphi
DelphiCompoundStatement
p1346
(dp1347
g772
(lp1348
(i__main__
DelphiAssignStatement
p1349
(dp1350
g776
(i__main__
DelphiIdentAccess
p1351
(dp1352
g779
S'filerModeReading'
p1353
sg781
(lp1354
sbsg799
(i__main__
DelphiIdentAccess
p1355
(dp1356
g779
S'mode'
p1357
sg781
(lp1358
sbsba(i__main__
DelphiAssignStatement
p1359
(dp1360
g776
(idelphi
DelphiIntegerValue
p1361
(dp1362
g78
S'0'
sbsg799
(i__main__
DelphiIdentAccess
p1363
(dp1364
g779
S'bytesStreamed'
p1365
sg781
(lp1366
sbsba(idelphi
DelphiIfStatement
p1367
(dp1368
g1059
(idelphi
DelphiRelOp
p1369
(dp1370
g1266
(i__main__
DelphiIdentAccess
p1371
(dp1372
g779
S'stream'
p1373
sg781
(lp1374
sbsg1271
(idelphi
DelphiNilValue
p1375
(dp1376
bsg1274
S'='
sbsg1067
Nsg1123
(idelphi
DelphiRaiseStatement
p1377
(dp1378
g1059
(i__main__
DelphiIdentAccess
p1379
(dp1380
g779
S'EReadError'
p1381
sg781
(lp1382
(idelphi
DelphiFieldEndAccess
p1383
(dp1384
g785
S'create'
p1385
sba(idelphi
DelphiFunctionEndAccess
p1386
(dp1387
g789
(lp1388
(i__main__
DelphiIdentAccess
p1389
(dp1390
g779
S'SReadError'
p1391
sg781
(lp1392
sbasbasbsg17
(lp1393
S' was LoadStr( )\r'
p1394
asbsbasbsg877
(lp1395
sbsbsS'relativize'
p1396
(i__main__
DelphiMethodImplementation
p1397
(dp1398
g739
g194
sg27
g196
sg68
(lp1399
(i__main__
DelphiFormalParameter
p1400
(dp1401
g72
Nsg45
(lp1402
S'filename'
p1403
asg75
(i__main__
DelphiPrimitiveType
p1404
(dp1405
g34
g78
sbsg79
g204
sbasg754
(lp1406
sg756
(lp1407
sg758
(lp1408
g760
ag1403
asg761
(dp1409
g1403
g1404
ssg89
S'PdFiler'
p1410
sg90
(i__main__
DelphiPrimitiveType
p1411
(dp1412
g34
g78
sbsg764
(lp1413
sg91
I0
sg92
g207
sg766
(i__main__
DelphiBlock
p1414
(dp1415
g769
(idelphi
DelphiCompoundStatement
p1416
(dp1417
g772
(lp1418
(i__main__
DelphiAssignStatement
p1419
(dp1420
g776
(i__main__
DelphiIdentAccess
p1421
(dp1422
g779
S'filename'
p1423
sg781
(lp1424
sbsg799
(i__main__
DelphiIdentAccess
p1425
(dp1426
g779
S'result'
p1427
sg781
(lp1428
sbsba(i__main__
DelphiAssignStatement
p1429
(dp1430
g776
(i__main__
DelphiIdentAccess
p1431
(dp1432
g779
S'ExtractFilePath'
p1433
sg781
(lp1434
(idelphi
DelphiFunctionEndAccess
p1435
(dp1436
g789
(lp1437
(i__main__
DelphiIdentAccess
p1438
(dp1439
g779
S'filename'
p1440
sg781
(lp1441
sbasbasbsg799
(i__main__
DelphiIdentAccess
p1442
(dp1443
g779
S'path'
p1444
sg781
(lp1445
sbsba(i__main__
DelphiAssignStatement
p1446
(dp1447
g776
(i__main__
DelphiIdentAccess
p1448
(dp1449
g779
S'ExtractFilePath'
p1450
sg781
(lp1451
(idelphi
DelphiFunctionEndAccess
p1452
(dp1453
g789
(lp1454
(i__main__
DelphiIdentAccess
p1455
(dp1456
g779
S'ExpandFileName'
p1457
sg781
(lp1458
(idelphi
DelphiFunctionEndAccess
p1459
(dp1460
g789
(lp1461
(idelphi
DelphiStringAccess
p1462
(dp1463
g781
(lp1464
sg78
(idelphi
DelphiStringValue
p1465
(dp1466
g78
S'junk.tmp'
p1467
sbsbasbasbasbasbsg799
(i__main__
DelphiIdentAccess
p1468
(dp1469
g779
S'currentDirectory'
p1470
sg781
(lp1471
sbsba(i__main__
DelphiAssignStatement
p1472
(dp1473
g776
(i__main__
DelphiIdentAccess
p1474
(dp1475
g779
S'ExtractFilePath'
p1476
sg781
(lp1477
(idelphi
DelphiFunctionEndAccess
p1478
(dp1479
g789
(lp1480
(i__main__
DelphiIdentAccess
p1481
(dp1482
g779
S'Application'
p1483
sg781
(lp1484
(idelphi
DelphiFieldEndAccess
p1485
(dp1486
g785
S'exeName'
p1487
sbasbasbasbsg799
(i__main__
DelphiIdentAccess
p1488
(dp1489
g779
S'exeDirectory'
p1490
sg781
(lp1491
sbsba(idelphi
DelphiIfStatement
p1492
(dp1493
g1059
(idelphi
DelphiNestedExpressionListAccess
p1494
(dp1495
g781
(lp1496
sg789
(lp1497
(idelphi
DelphiRelOp
p1498
(dp1499
g1266
(i__main__
DelphiIdentAccess
p1500
(dp1501
g779
S'CompareText'
p1502
sg781
(lp1503
(idelphi
DelphiFunctionEndAccess
p1504
(dp1505
g789
(lp1506
(i__main__
DelphiIdentAccess
p1507
(dp1508
g779
S'currentDirectory'
p1509
sg781
(lp1510
sba(i__main__
DelphiIdentAccess
p1511
(dp1512
g779
S'copy'
p1513
sg781
(lp1514
(idelphi
DelphiFunctionEndAccess
p1515
(dp1516
g789
(lp1517
(i__main__
DelphiIdentAccess
p1518
(dp1519
g779
S'path'
p1520
sg781
(lp1521
sba(idelphi
DelphiIntegerValue
p1522
(dp1523
g78
S'1'
sba(i__main__
DelphiIdentAccess
p1524
(dp1525
g779
S'length'
p1526
sg781
(lp1527
(idelphi
DelphiFunctionEndAccess
p1528
(dp1529
g789
(lp1530
(i__main__
DelphiIdentAccess
p1531
(dp1532
g779
S'currentDirectory'
p1533
sg781
(lp1534
sbasbasbasbasbasbasbsg1271
(idelphi
DelphiIntegerValue
p1535
(dp1536
g78
S'0'
sbsg1274
S'='
sbasbsg1067
(idelphi
DelphiIfStatement
p1537
(dp1538
g1059
(idelphi
DelphiNestedExpressionListAccess
p1539
(dp1540
g781
(lp1541
sg789
(lp1542
(idelphi
DelphiRelOp
p1543
(dp1544
g1266
(i__main__
DelphiIdentAccess
p1545
(dp1546
g779
S'CompareText'
p1547
sg781
(lp1548
(idelphi
DelphiFunctionEndAccess
p1549
(dp1550
g789
(lp1551
(i__main__
DelphiIdentAccess
p1552
(dp1553
g779
S'exeDirectory'
p1554
sg781
(lp1555
sba(i__main__
DelphiIdentAccess
p1556
(dp1557
g779
S'copy'
p1558
sg781
(lp1559
(idelphi
DelphiFunctionEndAccess
p1560
(dp1561
g789
(lp1562
(i__main__
DelphiIdentAccess
p1563
(dp1564
g779
S'path'
p1565
sg781
(lp1566
sba(idelphi
DelphiIntegerValue
p1567
(dp1568
g78
S'1'
sba(i__main__
DelphiIdentAccess
p1569
(dp1570
g779
S'length'
p1571
sg781
(lp1572
(idelphi
DelphiFunctionEndAccess
p1573
(dp1574
g789
(lp1575
(i__main__
DelphiIdentAccess
p1576
(dp1577
g779
S'exeDirectory'
p1578
sg781
(lp1579
sbasbasbasbasbasbasbsg1271
(idelphi
DelphiIntegerValue
p1580
(dp1581
g78
S'0'
sbsg1274
S'='
sbasbsg1067
Nsg1123
(idelphi
DelphiCompoundStatement
p1582
(dp1583
g772
(lp1584
(i__main__
DelphiAssignStatement
p1585
(dp1586
g776
(i__main__
DelphiIdentAccess
p1587
(dp1588
g779
S'copy'
p1589
sg781
(lp1590
(idelphi
DelphiFunctionEndAccess
p1591
(dp1592
g789
(lp1593
(i__main__
DelphiIdentAccess
p1594
(dp1595
g779
S'filename'
p1596
sg781
(lp1597
sba(idelphi
DelphiAddOp
p1598
(dp1599
S'addOp'
p1600
S'+'
sS'term2'
p1601
(idelphi
DelphiIntegerValue
p1602
(dp1603
g78
S'1'
sbsS'term1'
p1604
(i__main__
DelphiIdentAccess
p1605
(dp1606
g779
S'length'
p1607
sg781
(lp1608
(idelphi
DelphiFunctionEndAccess
p1609
(dp1610
g789
(lp1611
(i__main__
DelphiIdentAccess
p1612
(dp1613
g779
S'exeDirectory'
p1614
sg781
(lp1615
sbasbasbsba(idelphi
DelphiIntegerValue
p1616
(dp1617
g78
S'256'
p1618
sbasbasbsg799
(i__main__
DelphiIdentAccess
p1619
(dp1620
g779
S'result'
p1621
sg781
(lp1622
sbsba(idelphi
DelphiIfStatement
p1623
(dp1624
g1059
(i__main__
DelphiIdentAccess
p1625
(dp1626
g779
S'FileExists'
p1627
sg781
(lp1628
(idelphi
DelphiFunctionEndAccess
p1629
(dp1630
g789
(lp1631
(idelphi
DelphiAddOp
p1632
(dp1633
g1600
S'+'
sg1601
(i__main__
DelphiIdentAccess
p1634
(dp1635
g779
S'result'
p1636
sg781
(lp1637
sbsg1604
(i__main__
DelphiIdentAccess
p1638
(dp1639
g779
S'currentDirectory'
p1640
sg781
(lp1641
sbsbasbasbsg1067
Nsg1123
(i__main__
DelphiAssignStatement
p1642
(dp1643
g776
(i__main__
DelphiIdentAccess
p1644
(dp1645
g779
S'filename'
p1646
sg781
(lp1647
sbsg799
(i__main__
DelphiIdentAccess
p1648
(dp1649
g779
S'result'
p1650
sg781
(lp1651
sbsg17
(lp1652
S"don't relativize if file is also in current directory"
p1653
asbsbasbsbsg1123
(i__main__
DelphiAssignStatement
p1654
(dp1655
g776
(i__main__
DelphiIdentAccess
p1656
(dp1657
g779
S'copy'
p1658
sg781
(lp1659
(idelphi
DelphiFunctionEndAccess
p1660
(dp1661
g789
(lp1662
(i__main__
DelphiIdentAccess
p1663
(dp1664
g779
S'filename'
p1665
sg781
(lp1666
sba(idelphi
DelphiAddOp
p1667
(dp1668
g1600
S'+'
sg1601
(idelphi
DelphiIntegerValue
p1669
(dp1670
g78
S'1'
sbsg1604
(i__main__
DelphiIdentAccess
p1671
(dp1672
g779
S'length'
p1673
sg781
(lp1674
(idelphi
DelphiFunctionEndAccess
p1675
(dp1676
g789
(lp1677
(i__main__
DelphiIdentAccess
p1678
(dp1679
g779
S'currentDirectory'
p1680
sg781
(lp1681
sbasbasbsba(idelphi
DelphiIntegerValue
p1682
(dp1683
g78
S'256'
p1684
sbasbasbsg799
(i__main__
DelphiIdentAccess
p1685
(dp1686
g779
S'result'
p1687
sg781
(lp1688
sbsbsbasbsg877
(lp1689
(i__main__
DelphiVarSection
p1690
(dp1691
g881
I0
sg882
(lp1692
(idelphi
DelphiVarDecl
p1693
(dp1694
g886
Nsg887
(lp1695
S'path'
p1696
asg75
(i__main__
DelphiPrimitiveType
p1697
(dp1698
g34
g78
sbsba(idelphi
DelphiVarDecl
p1699
(dp1700
g886
Nsg887
(lp1701
S'currentDirectory'
p1702
aS'exeDirectory'
p1703
asg75
(i__main__
DelphiPrimitiveType
p1704
(dp1705
g34
g78
sbsbasbasbsbsS'streamsingle'
p1706
(i__main__
DelphiMethodImplementation
p1707
(dp1708
g739
g209
sg27
g211
sg68
(lp1709
(i__main__
DelphiFormalParameter
p1710
(dp1711
g72
Nsg45
(lp1712
S'aSingle'
p1713
asg75
(i__main__
DelphiPrimitiveType
p1714
(dp1715
g34
g219
sbsg79
g108
sbasg754
(lp1716
I0
asg756
(lp1717
sg758
(lp1718
g760
ag1713
asg761
(dp1719
g1713
g1714
ssg89
S'PdFiler'
p1720
sg90
Nsg764
(lp1721
g1713
asg91
I0
sg92
g93
sg766
(i__main__
DelphiBlock
p1722
(dp1723
g769
(idelphi
DelphiCompoundStatement
p1724
(dp1725
g772
(lp1726
(i__main__
DelphiAssignStatement
p1727
(dp1728
g776
Nsg799
(i__main__
DelphiIdentAccess
p1729
(dp1730
g779
S'self'
p1731
sg781
(lp1732
(idelphi
DelphiFieldEndAccess
p1733
(dp1734
g785
S'streamBytes'
p1735
sba(idelphi
DelphiFunctionEndAccess
p1736
(dp1737
g789
(lp1738
(i__main__
DelphiIdentAccess
p1739
(dp1740
g779
S'aSingle'
p1741
sg781
(lp1742
sba(idelphi
DelphiSizeof
p1743
(dp1744
g886
(idelphi
ConstValueTypecastOrJustTypeForSizeOf
p1745
(dp1746
g886
Nsg1031
(i__main__
DelphiPrimitiveType
p1747
(dp1748
g34
g219
sbsbsbasbasbsbasbsg877
(lp1749
sbsbsS'streamboolean'
p1750
(i__main__
DelphiMethodImplementation
p1751
(dp1752
g739
g221
sg27
g223
sg68
(lp1753
(i__main__
DelphiFormalParameter
p1754
(dp1755
g72
Nsg45
(lp1756
S'aBoolean'
p1757
asg75
(i__main__
DelphiPrimitiveType
p1758
(dp1759
g34
g231
sbsg79
g108
sbasg754
(lp1760
I0
asg756
(lp1761
sg758
(lp1762
g760
ag1757
asg761
(dp1763
g1757
g1758
ssg89
S'PdFiler'
p1764
sg90
Nsg764
(lp1765
g1757
asg91
I0
sg92
g93
sg766
(i__main__
DelphiBlock
p1766
(dp1767
g769
(idelphi
DelphiCompoundStatement
p1768
(dp1769
g772
(lp1770
(i__main__
DelphiAssignStatement
p1771
(dp1772
g776
Nsg799
(i__main__
DelphiIdentAccess
p1773
(dp1774
g779
S'self'
p1775
sg781
(lp1776
(idelphi
DelphiFieldEndAccess
p1777
(dp1778
g785
S'streamBytes'
p1779
sba(idelphi
DelphiFunctionEndAccess
p1780
(dp1781
g789
(lp1782
(i__main__
DelphiIdentAccess
p1783
(dp1784
g779
S'aBoolean'
p1785
sg781
(lp1786
sba(idelphi
DelphiSizeof
p1787
(dp1788
g886
(idelphi
ConstValueTypecastOrJustTypeForSizeOf
p1789
(dp1790
g886
Nsg1031
(i__main__
DelphiPrimitiveType
p1791
(dp1792
g34
g231
sbsbsbasbasbsbasbsg877
(lp1793
sbsbsS'streamwordbool'
p1794
(i__main__
DelphiMethodImplementation
p1795
(dp1796
g739
g233
sg27
g235
sg68
(lp1797
(i__main__
DelphiFormalParameter
p1798
(dp1799
g72
Nsg45
(lp1800
S'aWordBool'
p1801
asg75
(i__main__
DelphiNamedType
p1802
(dp1803
g34
S'wordbool'
p1804
sg87
g1
sg88
Nsbsg79
g108
sbasg754
(lp1805
sg756
(lp1806
g1801
asg758
(lp1807
g760
ag1801
asg761
(dp1808
g1801
g1802
ssg89
S'PdFiler'
p1809
sg90
Nsg764
(lp1810
sg91
I0
sg92
g93
sg766
(i__main__
DelphiBlock
p1811
(dp1812
g769
(idelphi
DelphiCompoundStatement
p1813
(dp1814
g772
(lp1815
(i__main__
DelphiAssignStatement
p1816
(dp1817
g776
Nsg799
(i__main__
DelphiIdentAccess
p1818
(dp1819
g779
S'self'
p1820
sg781
(lp1821
(idelphi
DelphiFieldEndAccess
p1822
(dp1823
g785
S'streamBytes'
p1824
sba(idelphi
DelphiFunctionEndAccess
p1825
(dp1826
g789
(lp1827
(i__main__
DelphiIdentAccess
p1828
(dp1829
g779
S'aWordBool'
p1830
sg781
(lp1831
sba(idelphi
DelphiSizeof
p1832
(dp1833
g886
(i__main__
DelphiIdentAccess
p1834
(dp1835
g779
S'wordbool'
p1836
sg781
(lp1837
sbsbasbasbsbasbsg877
(lp1838
sbsbsS'streamchar'
p1839
(i__main__
DelphiMethodImplementation
p1840
(dp1841
g739
g245
sg27
g247
sg68
(lp1842
(i__main__
DelphiFormalParameter
p1843
(dp1844
g72
Nsg45
(lp1845
S'aChar'
p1846
asg75
(i__main__
DelphiPrimitiveType
p1847
(dp1848
g34
g255
sbsg79
g108
sbasg754
(lp1849
I0
asg756
(lp1850
sg758
(lp1851
g760
ag1846
asg761
(dp1852
g1846
g1847
ssg89
S'PdFiler'
p1853
sg90
Nsg764
(lp1854
g1846
asg91
I0
sg92
g93
sg766
(i__main__
DelphiBlock
p1855
(dp1856
g769
(idelphi
DelphiCompoundStatement
p1857
(dp1858
g772
(lp1859
(i__main__
DelphiAssignStatement
p1860
(dp1861
g776
Nsg799
(i__main__
DelphiIdentAccess
p1862
(dp1863
g779
S'self'
p1864
sg781
(lp1865
(idelphi
DelphiFieldEndAccess
p1866
(dp1867
g785
S'streamBytes'
p1868
sba(idelphi
DelphiFunctionEndAccess
p1869
(dp1870
g789
(lp1871
(i__main__
DelphiIdentAccess
p1872
(dp1873
g779
S'aChar'
p1874
sg781
(lp1875
sba(idelphi
DelphiSizeof
p1876
(dp1877
g886
(idelphi
ConstValueTypecastOrJustTypeForSizeOf
p1878
(dp1879
g886
Nsg1031
(i__main__
DelphiPrimitiveType
p1880
(dp1881
g34
g255
sbsbsbasbasbsbasbsg877
(lp1882
sbsbsS'streamsmallint'
p1883
(i__main__
DelphiMethodImplementation
p1884
(dp1885
g739
g257
sg27
g259
sg68
(lp1886
(i__main__
DelphiFormalParameter
p1887
(dp1888
g72
Nsg45
(lp1889
S'aSmallint'
p1890
asg75
(i__main__
DelphiPrimitiveType
p1891
(dp1892
g34
g35
sbsg79
g108
sbasg754
(lp1893
I0
asg756
(lp1894
sg758
(lp1895
g760
ag1890
asg761
(dp1896
g1890
g1891
ssg89
S'PdFiler'
p1897
sg90
Nsg764
(lp1898
g1890
asg91
I0
sg92
g93
sg766
(i__main__
DelphiBlock
p1899
(dp1900
g769
(idelphi
DelphiCompoundStatement
p1901
(dp1902
g772
(lp1903
(i__main__
DelphiAssignStatement
p1904
(dp1905
g776
Nsg799
(i__main__
DelphiIdentAccess
p1906
(dp1907
g779
S'self'
p1908
sg781
(lp1909
(idelphi
DelphiFieldEndAccess
p1910
(dp1911
g785
S'streamBytes'
p1912
sba(idelphi
DelphiFunctionEndAccess
p1913
(dp1914
g789
(lp1915
(i__main__
DelphiIdentAccess
p1916
(dp1917
g779
S'aSmallint'
p1918
sg781
(lp1919
sba(idelphi
DelphiSizeof
p1920
(dp1921
g886
(idelphi
ConstValueTypecastOrJustTypeForSizeOf
p1922
(dp1923
g886
Nsg1031
(i__main__
DelphiPrimitiveType
p1924
(dp1925
g34
g35
sbsbsbasbasbsbasbsg877
(lp1926
sbsbsS'streamstringlist'
p1927
(i__main__
DelphiMethodImplementation
p1928
(dp1929
g739
g268
sg27
g270
sg68
(lp1930
(i__main__
DelphiFormalParameter
p1931
(dp1932
g72
Nsg45
(lp1933
S'aStringList'
p1934
asg75
(i__main__
DelphiNamedType
p1935
(dp1936
g34
S'TStringList'
p1937
sg87
g1
sg88
Nsbsg79
Nsbasg754
(lp1938
sg756
(lp1939
sg758
(lp1940
g760
ag1934
asg761
(dp1941
g1934
g1935
ssg89
S'PdFiler'
p1942
sg90
Nsg764
(lp1943
sg91
I0
sg92
g93
sg766
(i__main__
DelphiBlock
p1944
(dp1945
g769
(idelphi
DelphiCompoundStatement
p1946
(dp1947
g772
(lp1948
(idelphi
DelphiIfStatement
p1949
(dp1950
g1059
(i__main__
DelphiIdentAccess
p1951
(dp1952
g779
S'self'
p1953
sg781
(lp1954
(idelphi
DelphiFieldEndAccess
p1955
(dp1956
g785
S'isWriting'
p1957
sbasbsg1067
(idelphi
DelphiIfStatement
p1958
(dp1959
g1059
(i__main__
DelphiIdentAccess
p1960
(dp1961
g779
S'self'
p1962
sg781
(lp1963
(idelphi
DelphiFieldEndAccess
p1964
(dp1965
g785
S'isReading'
p1966
sbasbsg1067
Nsg1123
(idelphi
DelphiCompoundStatement
p1967
(dp1968
g772
(lp1969
(i__main__
DelphiAssignStatement
p1970
(dp1971
g776
Nsg799
(i__main__
DelphiIdentAccess
p1972
(dp1973
g779
S'aStringList'
p1974
sg781
(lp1975
(idelphi
DelphiFieldEndAccess
p1976
(dp1977
g785
S'clear'
p1978
sbasbsba(i__main__
DelphiAssignStatement
p1979
(dp1980
g776
Nsg799
(i__main__
DelphiIdentAccess
p1981
(dp1982
g779
S'self'
p1983
sg781
(lp1984
(idelphi
DelphiFieldEndAccess
p1985
(dp1986
g785
S'streamLongint'
p1987
sba(idelphi
DelphiFunctionEndAccess
p1988
(dp1989
g789
(lp1990
(i__main__
DelphiIdentAccess
p1991
(dp1992
g779
S'theCount'
p1993
sg781
(lp1994
sbasbasbsba(idelphi
DelphiIfStatement
p1995
(dp1996
g1059
(idelphi
DelphiRelOp
p1997
(dp1998
g1266
(i__main__
DelphiIdentAccess
p1999
(dp2000
g779
S'theCount'
p2001
sg781
(lp2002
sbsg1271
(idelphi
DelphiIntegerValue
p2003
(dp2004
g78
S'0'
sbsg1274
S'>'
sbsg1067
Nsg1123
(idelphi
DelphiForStatement
p2005
(dp2006
S'variable'
p2007
S'i'
sS'finalValue'
p2008
(idelphi
DelphiAddOp
p2009
(dp2010
g1600
S'-'
sg1601
(idelphi
DelphiIntegerValue
p2011
(dp2012
g78
S'1'
sbsg1604
(i__main__
DelphiIdentAccess
p2013
(dp2014
g779
S'theCount'
p2015
sg781
(lp2016
sbsbsS'direction'
p2017
S'to'
p2018
sg72
(idelphi
DelphiIntegerValue
p2019
(dp2020
g78
S'0'
sbsS'statement'
p2021
(idelphi
DelphiCompoundStatement
p2022
(dp2023
g772
(lp2024
(i__main__
DelphiAssignStatement
p2025
(dp2026
g776
Nsg799
(i__main__
DelphiIdentAccess
p2027
(dp2028
g779
S'self'
p2029
sg781
(lp2030
(idelphi
DelphiFieldEndAccess
p2031
(dp2032
g785
S'streamShortString'
p2033
sba(idelphi
DelphiFunctionEndAccess
p2034
(dp2035
g789
(lp2036
(i__main__
DelphiIdentAccess
p2037
(dp2038
g779
S'theString'
p2039
sg781
(lp2040
sbasbasbsg17
(lp2041
S"could stream ansi ? - won't work in gsim"
p2042
asba(i__main__
DelphiAssignStatement
p2043
(dp2044
g776
Nsg799
(i__main__
DelphiIdentAccess
p2045
(dp2046
g779
S'aStringList'
p2047
sg781
(lp2048
(idelphi
DelphiFieldEndAccess
p2049
(dp2050
g785
S'add'
p2051
sba(idelphi
DelphiFunctionEndAccess
p2052
(dp2053
g789
(lp2054
(i__main__
DelphiIdentAccess
p2055
(dp2056
g779
S'theString'
p2057
sg781
(lp2058
sbasbasbsba(i__main__
DelphiAssignStatement
p2059
(dp2060
g776
(idelphi
DelphiNilValue
p2061
(dp2062
bsg799
(i__main__
DelphiIdentAccess
p2063
(dp2064
g779
S'aStreamableObject'
p2065
sg781
(lp2066
sbsg17
(lp2067
S'needs to be nil when passed to next call for a read'
p2068
asba(i__main__
DelphiAssignStatement
p2069
(dp2070
g776
Nsg799
(i__main__
DelphiIdentAccess
p2071
(dp2072
g779
S'streamOrCreateObject'
p2073
sg781
(lp2074
(idelphi
DelphiFunctionEndAccess
p2075
(dp2076
g789
(lp2077
(i__main__
DelphiIdentAccess
p2078
(dp2079
g779
S'aStreamableObject'
p2080
sg781
(lp2081
sbasbasbsba(idelphi
DelphiIfStatement
p2082
(dp2083
g1059
(idelphi
DelphiRelOp
p2084
(dp2085
g1266
(i__main__
DelphiIdentAccess
p2086
(dp2087
g779
S'aStreamableObject'
p2088
sg781
(lp2089
sbsg1271
(idelphi
DelphiNilValue
p2090
(dp2091
bsg1274
S'<>'
p2092
sbsg1067
Nsg1123
(i__main__
DelphiAssignStatement
p2093
(dp2094
g776
(i__main__
DelphiIdentAccess
p2095
(dp2096
g779
S'aStreamableObject'
p2097
sg781
(lp2098
sbsg799
(i__main__
DelphiIdentAccess
p2099
(dp2100
g779
S'aStringList'
p2101
sg781
(lp2102
(idelphi
DelphiFieldEndAccess
p2103
(dp2104
g785
S'objects'
p2105
sba(idelphi
DelphiArrayEndAccess
p2106
(dp2107
g789
(lp2108
(i__main__
DelphiIdentAccess
p2109
(dp2110
g779
S'i'
sg781
(lp2111
sbasbasbsbsbasbsbsbasbsbsg1123
(idelphi
DelphiCompoundStatement
p2112
(dp2113
g772
(lp2114
(i__main__
DelphiAssignStatement
p2115
(dp2116
g776
(i__main__
DelphiIdentAccess
p2117
(dp2118
g779
S'aStringList'
p2119
sg781
(lp2120
(idelphi
DelphiFieldEndAccess
p2121
(dp2122
g785
S'count'
p2123
sbasbsg799
(i__main__
DelphiIdentAccess
p2124
(dp2125
g779
S'theCount'
p2126
sg781
(lp2127
sbsba(i__main__
DelphiAssignStatement
p2128
(dp2129
g776
Nsg799
(i__main__
DelphiIdentAccess
p2130
(dp2131
g779
S'self'
p2132
sg781
(lp2133
(idelphi
DelphiFieldEndAccess
p2134
(dp2135
g785
S'streamLongint'
p2136
sba(idelphi
DelphiFunctionEndAccess
p2137
(dp2138
g789
(lp2139
(i__main__
DelphiIdentAccess
p2140
(dp2141
g779
S'theCount'
p2142
sg781
(lp2143
sbasbasbsba(idelphi
DelphiIfStatement
p2144
(dp2145
g1059
(idelphi
DelphiRelOp
p2146
(dp2147
g1266
(i__main__
DelphiIdentAccess
p2148
(dp2149
g779
S'theCount'
p2150
sg781
(lp2151
sbsg1271
(idelphi
DelphiIntegerValue
p2152
(dp2153
g78
S'0'
sbsg1274
S'>'
sbsg1067
Nsg1123
(idelphi
DelphiForStatement
p2154
(dp2155
g2007
S'i'
sg2008
(idelphi
DelphiAddOp
p2156
(dp2157
g1600
S'-'
sg1601
(idelphi
DelphiIntegerValue
p2158
(dp2159
g78
S'1'
sbsg1604
(i__main__
DelphiIdentAccess
p2160
(dp2161
g779
S'theCount'
p2162
sg781
(lp2163
sbsbsg2017
g2018
sg72
(idelphi
DelphiIntegerValue
p2164
(dp2165
g78
S'0'
sbsg2021
(idelphi
DelphiCompoundStatement
p2166
(dp2167
g772
(lp2168
(i__main__
DelphiAssignStatement
p2169
(dp2170
g776
(i__main__
DelphiIdentAccess
p2171
(dp2172
g779
S'aStringList'
p2173
sg781
(lp2174
(idelphi
DelphiFieldEndAccess
p2175
(dp2176
g785
S'strings'
p2177
sba(idelphi
DelphiArrayEndAccess
p2178
(dp2179
g789
(lp2180
(i__main__
DelphiIdentAccess
p2181
(dp2182
g779
S'i'
sg781
(lp2183
sbasbasbsg799
(i__main__
DelphiIdentAccess
p2184
(dp2185
g779
S'theString'
p2186
sg781
(lp2187
sbsba(i__main__
DelphiAssignStatement
p2188
(dp2189
g776
Nsg799
(i__main__
DelphiIdentAccess
p2190
(dp2191
g779
S'self'
p2192
sg781
(lp2193
(idelphi
DelphiFieldEndAccess
p2194
(dp2195
g785
S'streamShortString'
p2196
sba(idelphi
DelphiFunctionEndAccess
p2197
(dp2198
g789
(lp2199
(i__main__
DelphiIdentAccess
p2200
(dp2201
g779
S'theString'
p2202
sg781
(lp2203
sbasbasbsg17
(lp2204
S"could stream ansi ? - won't work in gsim"
p2205
asba(i__main__
DelphiAssignStatement
p2206
(dp2207
g776
(idelphi
DelphiMulOp
p2208
(dp2209
S'signedFactor2'
p2210
(i__main__
DelphiIdentAccess
p2211
(dp2212
g779
S'PdStreamableObject'
p2213
sg781
(lp2214
sbsS'mulOp'
p2215
S'as'
p2216
sS'signedFactor1'
p2217
(i__main__
DelphiIdentAccess
p2218
(dp2219
g779
S'aStringList'
p2220
sg781
(lp2221
(idelphi
DelphiFieldEndAccess
p2222
(dp2223
g785
S'objects'
p2224
sba(idelphi
DelphiArrayEndAccess
p2225
(dp2226
g789
(lp2227
(i__main__
DelphiIdentAccess
p2228
(dp2229
g779
S'i'
sg781
(lp2230
sbasbasbsbsg799
(i__main__
DelphiIdentAccess
p2231
(dp2232
g779
S'aStreamableObject'
p2233
sg781
(lp2234
sbsba(i__main__
DelphiAssignStatement
p2235
(dp2236
g776
Nsg799
(i__main__
DelphiIdentAccess
p2237
(dp2238
g779
S'self'
p2239
sg781
(lp2240
(idelphi
DelphiFieldEndAccess
p2241
(dp2242
g785
S'streamOrCreateObject'
p2243
sba(idelphi
DelphiFunctionEndAccess
p2244
(dp2245
g789
(lp2246
(i__main__
DelphiIdentAccess
p2247
(dp2248
g779
S'aStreamableObject'
p2249
sg781
(lp2250
sbasbasbsbasbsbsbasbsbasbsg877
(lp2251
(i__main__
DelphiVarSection
p2252
(dp2253
g881
I0
sg882
(lp2254
(idelphi
DelphiVarDecl
p2255
(dp2256
g886
Nsg887
(lp2257
S'theCount'
p2258
asg75
(i__main__
DelphiPrimitiveType
p2259
(dp2260
g34
g298
sbsba(idelphi
DelphiVarDecl
p2261
(dp2262
g886
Nsg887
(lp2263
S'i'
asg75
(i__main__
DelphiPrimitiveType
p2264
(dp2265
g34
g298
sbsba(idelphi
DelphiVarDecl
p2266
(dp2267
g886
Nsg887
(lp2268
S'aStreamableObject'
p2269
asg75
(i__main__
DelphiNamedType
p2270
(dp2271
g34
S'PdStreamableObject'
p2272
sg87
g1
sg88
Nsbsba(idelphi
DelphiVarDecl
p2273
(dp2274
g886
Nsg887
(lp2275
S'theString'
p2276
asg75
(i__main__
DelphiPrimitiveType
p2277
(dp2278
g34
g394
sbsbasbasbsg17
(lp2279
S'this function assumes the objects in the string list are nil or are\r'
p2280
aS'StreamableObject subclasses and are listed in the CreateStreamableObject function'
p2281
asbsS'streamsinglepoint'
p2282
(i__main__
DelphiMethodImplementation
p2283
(dp2284
g739
g280
sg27
g282
sg68
(lp2285
(i__main__
DelphiFormalParameter
p2286
(dp2287
g72
Nsg45
(lp2288
S'aPoint'
p2289
asg75
(i__main__
DelphiNamedType
p2290
(dp2291
g34
S'SinglePoint'
p2292
sg87
g1
sg88
Nsbsg79
g108
sbasg754
(lp2293
sg756
(lp2294
g2289
asg758
(lp2295
g760
ag2289
asg761
(dp2296
g2289
g2290
ssg89
S'PdFiler'
p2297
sg90
Nsg764
(lp2298
sg91
I0
sg92
g93
sg766
(i__main__
DelphiBlock
p2299
(dp2300
g769
(idelphi
DelphiCompoundStatement
p2301
(dp2302
g772
(lp2303
(idelphi
DelphiIfStatement
p2304
(dp2305
g1059
(i__main__
DelphiIdentAccess
p2306
(dp2307
g779
S'self'
p2308
sg781
(lp2309
(idelphi
DelphiFieldEndAccess
p2310
(dp2311
g785
S'isReading'
p2312
sbasbsg1067
(idelphi
DelphiCompoundStatement
p2313
(dp2314
g772
(lp2315
(i__main__
DelphiAssignStatement
p2316
(dp2317
g776
(i__main__
DelphiIdentAccess
p2318
(dp2319
g779
S'aPoint'
p2320
sg781
(lp2321
(idelphi
DelphiFieldEndAccess
p2322
(dp2323
g785
S'x'
sbasbsg799
(i__main__
DelphiIdentAccess
p2324
(dp2325
g779
S'x'
sg781
(lp2326
sbsba(i__main__
DelphiAssignStatement
p2327
(dp2328
g776
(i__main__
DelphiIdentAccess
p2329
(dp2330
g779
S'aPoint'
p2331
sg781
(lp2332
(idelphi
DelphiFieldEndAccess
p2333
(dp2334
g785
S'y'
sbasbsg799
(i__main__
DelphiIdentAccess
p2335
(dp2336
g779
S'y'
sg781
(lp2337
sbsba(i__main__
DelphiAssignStatement
p2338
(dp2339
g776
Nsg799
(i__main__
DelphiIdentAccess
p2340
(dp2341
g779
S'self'
p2342
sg781
(lp2343
(idelphi
DelphiFieldEndAccess
p2344
(dp2345
g785
S'streamSingle'
p2346
sba(idelphi
DelphiFunctionEndAccess
p2347
(dp2348
g789
(lp2349
(i__main__
DelphiIdentAccess
p2350
(dp2351
g779
S'x'
sg781
(lp2352
sbasbasbsba(i__main__
DelphiAssignStatement
p2353
(dp2354
g776
Nsg799
(i__main__
DelphiIdentAccess
p2355
(dp2356
g779
S'self'
p2357
sg781
(lp2358
(idelphi
DelphiFieldEndAccess
p2359
(dp2360
g785
S'streamSingle'
p2361
sba(idelphi
DelphiFunctionEndAccess
p2362
(dp2363
g789
(lp2364
(i__main__
DelphiIdentAccess
p2365
(dp2366
g779
S'y'
sg781
(lp2367
sbasbasbsbasbsg1123
(idelphi
DelphiCompoundStatement
p2368
(dp2369
g772
(lp2370
(i__main__
DelphiAssignStatement
p2371
(dp2372
g776
Nsg799
(i__main__
DelphiIdentAccess
p2373
(dp2374
g779
S'self'
p2375
sg781
(lp2376
(idelphi
DelphiFieldEndAccess
p2377
(dp2378
g785
S'streamSingle'
p2379
sba(idelphi
DelphiFunctionEndAccess
p2380
(dp2381
g789
(lp2382
(i__main__
DelphiIdentAccess
p2383
(dp2384
g779
S'x'
sg781
(lp2385
sbasbasbsba(i__main__
DelphiAssignStatement
p2386
(dp2387
g776
Nsg799
(i__main__
DelphiIdentAccess
p2388
(dp2389
g779
S'self'
p2390
sg781
(lp2391
(idelphi
DelphiFieldEndAccess
p2392
(dp2393
g785
S'streamSingle'
p2394
sba(idelphi
DelphiFunctionEndAccess
p2395
(dp2396
g789
(lp2397
(i__main__
DelphiIdentAccess
p2398
(dp2399
g779
S'y'
sg781
(lp2400
sbasbasbsba(i__main__
DelphiAssignStatement
p2401
(dp2402
g776
(i__main__
DelphiIdentAccess
p2403
(dp2404
g779
S'setSinglePoint'
p2405
sg781
(lp2406
(idelphi
DelphiFunctionEndAccess
p2407
(dp2408
g789
(lp2409
(i__main__
DelphiIdentAccess
p2410
(dp2411
g779
S'x'
sg781
(lp2412
sba(i__main__
DelphiIdentAccess
p2413
(dp2414
g779
S'y'
sg781
(lp2415
sbasbasbsg799
(i__main__
DelphiIdentAccess
p2416
(dp2417
g779
S'aPoint'
p2418
sg781
(lp2419
sbsbasbsbasbsg877
(lp2420
(i__main__
DelphiVarSection
p2421
(dp2422
g881
I0
sg882
(lp2423
(idelphi
DelphiVarDecl
p2424
(dp2425
g886
Nsg887
(lp2426
S'x'
aS'y'
asg75
(i__main__
DelphiPrimitiveType
p2427
(dp2428
g34
g219
sbsbasbasbsbsS'getstreamposition'
p2429
(i__main__
DelphiMethodImplementation
p2430
(dp2431
g739
g292
sg27
g294
sg68
(lp2432
sg754
(lp2433
sg756
(lp2434
sg758
(lp2435
g760
asg761
(dp2436
sg89
S'PdFiler'
p2437
sg90
(i__main__
DelphiPrimitiveType
p2438
(dp2439
g34
g298
sbsg764
(lp2440
sg91
I0
sg92
g207
sg766
(i__main__
DelphiBlock
p2441
(dp2442
g769
(idelphi
DelphiCompoundStatement
p2443
(dp2444
g772
(lp2445
(i__main__
DelphiAssignStatement
p2446
(dp2447
g776
(i__main__
DelphiIdentAccess
p2448
(dp2449
g779
S'self'
p2450
sg781
(lp2451
(idelphi
DelphiFieldEndAccess
p2452
(dp2453
g785
S'stream'
p2454
sba(idelphi
DelphiFieldEndAccess
p2455
(dp2456
g785
S'position'
p2457
sbasbsg799
(i__main__
DelphiIdentAccess
p2458
(dp2459
g779
S'result'
p2460
sg781
(lp2461
sbsbasbsg877
(lp2462
sbsbsS'streamrgb'
p2463
(i__main__
DelphiMethodImplementation
p2464
(dp2465
g739
g300
sg27
g302
sg68
(lp2466
(i__main__
DelphiFormalParameter
p2467
(dp2468
g72
Nsg45
(lp2469
S'aRGB'
p2470
asg75
(i__main__
DelphiPrimitiveType
p2471
(dp2472
g34
g298
sbsg79
g108
sbasg754
(lp2473
I0
asg756
(lp2474
sg758
(lp2475
g760
ag2470
asg761
(dp2476
g2470
g2471
ssg89
S'PdFiler'
p2477
sg90
Nsg764
(lp2478
g2470
asg91
I0
sg92
g93
sg766
(i__main__
DelphiBlock
p2479
(dp2480
g769
(idelphi
DelphiCompoundStatement
p2481
(dp2482
g772
(lp2483
(i__main__
DelphiAssignStatement
p2484
(dp2485
g776
Nsg799
(i__main__
DelphiIdentAccess
p2486
(dp2487
g779
S'self'
p2488
sg781
(lp2489
(idelphi
DelphiFieldEndAccess
p2490
(dp2491
g785
S'streamBytes'
p2492
sba(idelphi
DelphiFunctionEndAccess
p2493
(dp2494
g789
(lp2495
(i__main__
DelphiIdentAccess
p2496
(dp2497
g779
S'aRGB'
p2498
sg781
(lp2499
sba(idelphi
DelphiSizeof
p2500
(dp2501
g886
(idelphi
ConstValueTypecastOrJustTypeForSizeOf
p2502
(dp2503
g886
Nsg1031
(i__main__
DelphiPrimitiveType
p2504
(dp2505
g34
g298
sbsbsbasbasbsbasbsg877
(lp2506
sbsbsS'streamclassandversioninformation'
p2507
(i__main__
DelphiMethodImplementation
p2508
(dp2509
g739
g311
sg27
g313
sg68
(lp2510
(i__main__
DelphiFormalParameter
p2511
(dp2512
g72
Nsg45
(lp2513
S'cvir'
p2514
asg75
(i__main__
DelphiNamedType
p2515
(dp2516
g34
S'PdClassAndVersionInformationRecord'
p2517
sg87
g1
sg88
Nsbsg79
g108
sbasg754
(lp2518
sg756
(lp2519
g2514
asg758
(lp2520
g760
ag2514
asg761
(dp2521
g2514
g2515
ssg89
S'PdFiler'
p2522
sg90
Nsg764
(lp2523
sg91
I0
sg92
g93
sg766
(i__main__
DelphiBlock
p2524
(dp2525
g769
(idelphi
DelphiCompoundStatement
p2526
(dp2527
g772
(lp2528
(idelphi
DelphiCaseStatement
p2529
(dp2530
S'elseStatement'
p2531
Nsg1059
(i__main__
DelphiIdentAccess
p2532
(dp2533
g779
S'mode'
p2534
sg781
(lp2535
sbsS'caseSelectorList'
p2536
(lp2537
(idelphi
DelphiCaseSelector
p2538
(dp2539
g2021
(i__main__
DelphiAssignStatement
p2540
(dp2541
g776
Nsg799
(i__main__
DelphiIdentAccess
p2542
(dp2543
g779
S'stream'
p2544
sg781
(lp2545
(idelphi
DelphiFieldEndAccess
p2546
(dp2547
g785
S'read'
p2548
sba(idelphi
DelphiFunctionEndAccess
p2549
(dp2550
g789
(lp2551
(i__main__
DelphiIdentAccess
p2552
(dp2553
g779
S'cvir'
p2554
sg781
(lp2555
sba(idelphi
DelphiSizeof
p2556
(dp2557
g886
(i__main__
DelphiIdentAccess
p2558
(dp2559
g779
S'PdClassAndVersionInformationRecord'
p2560
sg781
(lp2561
sbsbasbasbsbsS'caseLabelList'
p2562
(lp2563
(i__main__
DelphiIdentAccess
p2564
(dp2565
g779
S'filerModeReading'
p2566
sg781
(lp2567
sbasba(idelphi
DelphiCaseSelector
p2568
(dp2569
g2021
(i__main__
DelphiAssignStatement
p2570
(dp2571
g776
Nsg799
(i__main__
DelphiIdentAccess
p2572
(dp2573
g779
S'stream'
p2574
sg781
(lp2575
(idelphi
DelphiFieldEndAccess
p2576
(dp2577
g785
S'write'
p2578
sba(idelphi
DelphiFunctionEndAccess
p2579
(dp2580
g789
(lp2581
(i__main__
DelphiIdentAccess
p2582
(dp2583
g779
S'cvir'
p2584
sg781
(lp2585
sba(idelphi
DelphiSizeof
p2586
(dp2587
g886
(i__main__
DelphiIdentAccess
p2588
(dp2589
g779
S'PdClassAndVersionInformationRecord'
p2590
sg781
(lp2591
sbsbasbasbsbsg2562
(lp2592
(i__main__
DelphiIdentAccess
p2593
(dp2594
g779
S'filerModeWriting'
p2595
sg781
(lp2596
sbasba(idelphi
DelphiCaseSelector
p2597
(dp2598
g2021
(i__main__
DelphiAssignStatement
p2599
(dp2600
g776
(idelphi
DelphiAddOp
p2601
(dp2602
g1600
S'+'
sg1601
(idelphi
DelphiSizeof
p2603
(dp2604
g886
(i__main__
DelphiIdentAccess
p2605
(dp2606
g779
S'PdClassAndVersionInformationRecord'
p2607
sg781
(lp2608
sbsbsg1604
(i__main__
DelphiIdentAccess
p2609
(dp2610
g779
S'bytesStreamed'
p2611
sg781
(lp2612
sbsbsg799
(i__main__
DelphiIdentAccess
p2613
(dp2614
g779
S'bytesStreamed'
p2615
sg781
(lp2616
sbsbsg2562
(lp2617
(i__main__
DelphiIdentAccess
p2618
(dp2619
g779
S'filerModeCounting'
p2620
sg781
(lp2621
sbasbasbasbsg877
(lp2622
sbsbsS'streambooleanarray'
p2623
(i__main__
DelphiMethodImplementation
p2624
(dp2625
g739
g396
sg27
g398
sg68
(lp2626
(i__main__
DelphiFormalParameter
p2627
(dp2628
g72
Nsg45
(lp2629
S'anArray'
p2630
asg75
(i__main__
DelphiArrayType
p2631
(dp2632
g75
(i__main__
DelphiPrimitiveType
p2633
(dp2634
g34
g231
sbsg408
(lp2635
sbsg79
g108
sbasg754
(lp2636
I0
asg756
(lp2637
sg758
(lp2638
g760
ag2630
asg761
(dp2639
g2630
g2631
ssg89
S'PdFiler'
p2640
sg90
Nsg764
(lp2641
g2630
asg91
I0
sg92
g93
sg766
(i__main__
DelphiBlock
p2642
(dp2643
g769
(idelphi
DelphiCompoundStatement
p2644
(dp2645
g772
(lp2646
(i__main__
DelphiAssignStatement
p2647
(dp2648
g776
Nsg799
(i__main__
DelphiIdentAccess
p2649
(dp2650
g779
S'self'
p2651
sg781
(lp2652
(idelphi
DelphiFieldEndAccess
p2653
(dp2654
g785
S'streamBytes'
p2655
sba(idelphi
DelphiFunctionEndAccess
p2656
(dp2657
g789
(lp2658
(i__main__
DelphiIdentAccess
p2659
(dp2660
g779
S'anArray'
p2661
sg781
(lp2662
sba(idelphi
DelphiSizeof
p2663
(dp2664
g886
(i__main__
DelphiIdentAccess
p2665
(dp2666
g779
S'anArray'
p2667
sg781
(lp2668
sbsbasbasbsbasbsg877
(lp2669
sbsbsS'streamlongbool'
p2670
(i__main__
DelphiMethodImplementation
p2671
(dp2672
g739
g323
sg27
g325
sg68
(lp2673
(i__main__
DelphiFormalParameter
p2674
(dp2675
g72
Nsg45
(lp2676
S'aLongBool'
p2677
asg75
(i__main__
DelphiNamedType
p2678
(dp2679
g34
S'longbool'
p2680
sg87
g1
sg88
Nsbsg79
g108
sbasg754
(lp2681
sg756
(lp2682
g2677
asg758
(lp2683
g760
ag2677
asg761
(dp2684
g2677
g2678
ssg89
S'PdFiler'
p2685
sg90
Nsg764
(lp2686
sg91
I0
sg92
g93
sg766
(i__main__
DelphiBlock
p2687
(dp2688
g769
(idelphi
DelphiCompoundStatement
p2689
(dp2690
g772
(lp2691
(i__main__
DelphiAssignStatement
p2692
(dp2693
g776
Nsg799
(i__main__
DelphiIdentAccess
p2694
(dp2695
g779
S'self'
p2696
sg781
(lp2697
(idelphi
DelphiFieldEndAccess
p2698
(dp2699
g785
S'streamBytes'
p2700
sba(idelphi
DelphiFunctionEndAccess
p2701
(dp2702
g789
(lp2703
(i__main__
DelphiIdentAccess
p2704
(dp2705
g779
S'aLongBool'
p2706
sg781
(lp2707
sba(idelphi
DelphiSizeof
p2708
(dp2709
g886
(i__main__
DelphiIdentAccess
p2710
(dp2711
g779
S'longbool'
p2712
sg781
(lp2713
sbsbasbasbsbasbsg877
(lp2714
sbsbsS'save'
p2715
(i__main__
DelphiMethodImplementation
p2716
(dp2717
g739
g335
sg27
g337
sg68
(lp2718
(i__main__
DelphiFormalParameter
p2719
(dp2720
g72
Nsg45
(lp2721
S'fileName'
p2722
asg75
(i__main__
DelphiPrimitiveType
p2723
(dp2724
g34
g78
sbsg79
Nsba(i__main__
DelphiFormalParameter
p2725
(dp2726
g72
Nsg45
(lp2727
S'objectToSave'
p2728
asg75
(i__main__
DelphiNamedType
p2729
(dp2730
g34
S'PdStreamableObject'
p2731
sg87
g1
sg88
Nsbsg79
Nsbasg754
(lp2732
sg756
(lp2733
sg758
(lp2734
g760
ag2722
ag2728
asg761
(dp2735
g2728
g2729
sg2722
g2723
ssg89
S'PdFiler'
p2736
sg90
Nsg764
(lp2737
sg91
I0
sg92
g93
sg766
(i__main__
DelphiBlock
p2738
(dp2739
g769
(idelphi
DelphiCompoundStatement
p2740
(dp2741
g772
(lp2742
(i__main__
DelphiAssignStatement
p2743
(dp2744
g776
(i__main__
DelphiIdentAccess
p2745
(dp2746
g779
S'TFileStream'
p2747
sg781
(lp2748
(idelphi
DelphiFieldEndAccess
p2749
(dp2750
g785
S'create'
p2751
sba(idelphi
DelphiFunctionEndAccess
p2752
(dp2753
g789
(lp2754
(i__main__
DelphiIdentAccess
p2755
(dp2756
g779
S'fileName'
p2757
sg781
(lp2758
sba(idelphi
DelphiAddOp
p2759
(dp2760
g1600
S'or'
p2761
sg1601
(i__main__
DelphiIdentAccess
p2762
(dp2763
g779
S'fmCreate'
p2764
sg781
(lp2765
sbsg1604
(i__main__
DelphiIdentAccess
p2766
(dp2767
g779
S'fmOpenWrite'
p2768
sg781
(lp2769
sbsbasbasbsg799
(i__main__
DelphiIdentAccess
p2770
(dp2771
g779
S'fileStream'
p2772
sg781
(lp2773
sbsba(idelphi
DelphiTryFinallyStatement
p2774
(dp2775
g806
(lp2776
(i__main__
DelphiAssignStatement
p2777
(dp2778
g776
(i__main__
DelphiIdentAccess
p2779
(dp2780
g779
S'PdFiler'
p2781
sg781
(lp2782
(idelphi
DelphiFieldEndAccess
p2783
(dp2784
g785
S'createWithStream'
p2785
sba(idelphi
DelphiFunctionEndAccess
p2786
(dp2787
g789
(lp2788
(i__main__
DelphiIdentAccess
p2789
(dp2790
g779
S'fileStream'
p2791
sg781
(lp2792
sbasbasbsg799
(i__main__
DelphiIdentAccess
p2793
(dp2794
g779
S'filer'
p2795
sg781
(lp2796
sbsba(i__main__
DelphiAssignStatement
p2797
(dp2798
g776
Nsg799
(i__main__
DelphiIdentAccess
p2799
(dp2800
g779
S'filer'
p2801
sg781
(lp2802
(idelphi
DelphiFieldEndAccess
p2803
(dp2804
g785
S'setToWritingMode'
p2805
sbasbsba(idelphi
DelphiTryFinallyStatement
p2806
(dp2807
g806
(lp2808
(i__main__
DelphiAssignStatement
p2809
(dp2810
g776
Nsg799
(i__main__
DelphiIdentAccess
p2811
(dp2812
g779
S'objectToSave'
p2813
sg781
(lp2814
(idelphi
DelphiFieldEndAccess
p2815
(dp2816
g785
S'streamUsingFiler'
p2817
sba(idelphi
DelphiFunctionEndAccess
p2818
(dp2819
g789
(lp2820
(i__main__
DelphiIdentAccess
p2821
(dp2822
g779
S'filer'
p2823
sg781
(lp2824
sbasbasbsbasg856
(lp2825
(i__main__
DelphiAssignStatement
p2826
(dp2827
g776
Nsg799
(i__main__
DelphiIdentAccess
p2828
(dp2829
g779
S'filer'
p2830
sg781
(lp2831
(idelphi
DelphiFieldEndAccess
p2832
(dp2833
g785
S'free'
p2834
sbasbsbasbasg856
(lp2835
(i__main__
DelphiAssignStatement
p2836
(dp2837
g776
Nsg799
(i__main__
DelphiIdentAccess
p2838
(dp2839
g779
S'fileStream'
p2840
sg781
(lp2841
(idelphi
DelphiFieldEndAccess
p2842
(dp2843
g785
S'free'
p2844
sbasbsbasbasbsg877
(lp2845
(i__main__
DelphiVarSection
p2846
(dp2847
g881
I0
sg882
(lp2848
(idelphi
DelphiVarDecl
p2849
(dp2850
g886
Nsg887
(lp2851
S'fileStream'
p2852
asg75
(i__main__
DelphiNamedType
p2853
(dp2854
g34
S'TFileStream'
p2855
sg87
g1
sg88
Nsbsba(idelphi
DelphiVarDecl
p2856
(dp2857
g886
Nsg887
(lp2858
S'filer'
p2859
asg75
(i__main__
DelphiNamedType
p2860
(dp2861
g34
S'PdFiler'
p2862
sg87
g1
sg88
Nsbsbasbasbsg17
(lp2863
S'class level streaming'
p2864
asbsS'isreading'
p2865
(i__main__
DelphiMethodImplementation
p2866
(dp2867
g739
g353
sg27
g355
sg68
(lp2868
sg754
(lp2869
sg756
(lp2870
sg758
(lp2871
g760
asg761
(dp2872
sg89
S'PdFiler'
p2873
sg90
(i__main__
DelphiPrimitiveType
p2874
(dp2875
g34
g231
sbsg764
(lp2876
sg91
I0
sg92
g207
sg766
(i__main__
DelphiBlock
p2877
(dp2878
g769
(idelphi
DelphiCompoundStatement
p2879
(dp2880
g772
(lp2881
(i__main__
DelphiAssignStatement
p2882
(dp2883
g776
(idelphi
DelphiRelOp
p2884
(dp2885
g1266
(i__main__
DelphiIdentAccess
p2886
(dp2887
g779
S'mode'
p2888
sg781
(lp2889
sbsg1271
(i__main__
DelphiIdentAccess
p2890
(dp2891
g779
S'filerModeReading'
p2892
sg781
(lp2893
sbsg1274
S'='
sbsg799
(i__main__
DelphiIdentAccess
p2894
(dp2895
g779
S'result'
p2896
sg781
(lp2897
sbsbasbsg877
(lp2898
sbsbsS'streamextended'
p2899
(i__main__
DelphiMethodImplementation
p2900
(dp2901
g739
g360
sg27
g362
sg68
(lp2902
(i__main__
DelphiFormalParameter
p2903
(dp2904
g72
Nsg45
(lp2905
S'anExtended'
p2906
asg75
(i__main__
DelphiPrimitiveType
p2907
(dp2908
g34
g370
sbsg79
g108
sbasg754
(lp2909
I0
asg756
(lp2910
sg758
(lp2911
g760
ag2906
asg761
(dp2912
g2906
g2907
ssg89
S'PdFiler'
p2913
sg90
Nsg764
(lp2914
g2906
asg91
I0
sg92
g93
sg766
(i__main__
DelphiBlock
p2915
(dp2916
g769
(idelphi
DelphiCompoundStatement
p2917
(dp2918
g772
(lp2919
(i__main__
DelphiAssignStatement
p2920
(dp2921
g776
Nsg799
(i__main__
DelphiIdentAccess
p2922
(dp2923
g779
S'self'
p2924
sg781
(lp2925
(idelphi
DelphiFieldEndAccess
p2926
(dp2927
g785
S'streamBytes'
p2928
sba(idelphi
DelphiFunctionEndAccess
p2929
(dp2930
g789
(lp2931
(i__main__
DelphiIdentAccess
p2932
(dp2933
g779
S'anExtended'
p2934
sg781
(lp2935
sba(idelphi
DelphiSizeof
p2936
(dp2937
g886
(idelphi
ConstValueTypecastOrJustTypeForSizeOf
p2938
(dp2939
g886
Nsg1031
(i__main__
DelphiPrimitiveType
p2940
(dp2941
g34
g370
sbsbsbasbasbsbasbsg877
(lp2942
sbsbsS'streamcomp'
p2943
(i__main__
DelphiMethodImplementation
p2944
(dp2945
g739
g372
sg27
g374
sg68
(lp2946
(i__main__
DelphiFormalParameter
p2947
(dp2948
g72
Nsg45
(lp2949
S'aComp'
p2950
asg75
(i__main__
DelphiPrimitiveType
p2951
(dp2952
g34
g382
sbsg79
g108
sbasg754
(lp2953
I0
asg756
(lp2954
sg758
(lp2955
g760
ag2950
asg761
(dp2956
g2950
g2951
ssg89
S'PdFiler'
p2957
sg90
Nsg764
(lp2958
g2950
asg91
I0
sg92
g93
sg766
(i__main__
DelphiBlock
p2959
(dp2960
g769
(idelphi
DelphiCompoundStatement
p2961
(dp2962
g772
(lp2963
(i__main__
DelphiAssignStatement
p2964
(dp2965
g776
Nsg799
(i__main__
DelphiIdentAccess
p2966
(dp2967
g779
S'self'
p2968
sg781
(lp2969
(idelphi
DelphiFieldEndAccess
p2970
(dp2971
g785
S'streamBytes'
p2972
sba(idelphi
DelphiFunctionEndAccess
p2973
(dp2974
g789
(lp2975
(i__main__
DelphiIdentAccess
p2976
(dp2977
g779
S'aComp'
p2978
sg781
(lp2979
sba(idelphi
DelphiSizeof
p2980
(dp2981
g886
(idelphi
ConstValueTypecastOrJustTypeForSizeOf
p2982
(dp2983
g886
Nsg1031
(i__main__
DelphiPrimitiveType
p2984
(dp2985
g34
g382
sbsbsbasbasbsbasbsg877
(lp2986
sbsbsS'streamshortstring'
p2987
(i__main__
DelphiMethodImplementation
p2988
(dp2989
g739
g384
sg27
g386
sg68
(lp2990
(i__main__
DelphiFormalParameter
p2991
(dp2992
g72
Nsg45
(lp2993
S'aString'
p2994
asg75
(i__main__
DelphiPrimitiveType
p2995
(dp2996
g34
g394
sbsg79
g108
sbasg754
(lp2997
I0
asg756
(lp2998
sg758
(lp2999
g760
ag2994
asg761
(dp3000
g2994
g2995
ssg89
S'PdFiler'
p3001
sg90
Nsg764
(lp3002
g2994
asg91
I0
sg92
g93
sg766
(i__main__
DelphiBlock
p3003
(dp3004
g769
(idelphi
DelphiCompoundStatement
p3005
(dp3006
g772
(lp3007
(idelphi
DelphiCaseStatement
p3008
(dp3009
g2531
Nsg1059
(i__main__
DelphiIdentAccess
p3010
(dp3011
g779
S'mode'
p3012
sg781
(lp3013
sbsg2536
(lp3014
(idelphi
DelphiCaseSelector
p3015
(dp3016
g2021
(idelphi
DelphiCompoundStatement
p3017
(dp3018
g772
(lp3019
(i__main__
DelphiAssignStatement
p3020
(dp3021
g776
Nsg799
(i__main__
DelphiIdentAccess
p3022
(dp3023
g779
S'self'
p3024
sg781
(lp3025
(idelphi
DelphiFieldEndAccess
p3026
(dp3027
g785
S'streamBytes'
p3028
sba(idelphi
DelphiFunctionEndAccess
p3029
(dp3030
g789
(lp3031
(i__main__
DelphiIdentAccess
p3032
(dp3033
g779
S'aString'
p3034
sg781
(lp3035
(idelphi
DelphiArrayEndAccess
p3036
(dp3037
g789
(lp3038
(idelphi
DelphiIntegerValue
p3039
(dp3040
g78
S'0'
sbasbasba(idelphi
DelphiIntegerValue
p3041
(dp3042
g78
S'1'
sbasbasbsba(i__main__
DelphiAssignStatement
p3043
(dp3044
g776
Nsg799
(i__main__
DelphiIdentAccess
p3045
(dp3046
g779
S'self'
p3047
sg781
(lp3048
(idelphi
DelphiFieldEndAccess
p3049
(dp3050
g785
S'streamBytes'
p3051
sba(idelphi
DelphiFunctionEndAccess
p3052
(dp3053
g789
(lp3054
(i__main__
DelphiIdentAccess
p3055
(dp3056
g779
S'aString'
p3057
sg781
(lp3058
(idelphi
DelphiArrayEndAccess
p3059
(dp3060
g789
(lp3061
(idelphi
DelphiIntegerValue
p3062
(dp3063
g78
S'1'
sbasbasba(i__main__
DelphiIdentAccess
p3064
(dp3065
g779
S'Ord'
p3066
sg781
(lp3067
(idelphi
DelphiFunctionEndAccess
p3068
(dp3069
g789
(lp3070
(i__main__
DelphiIdentAccess
p3071
(dp3072
g779
S'aString'
p3073
sg781
(lp3074
(idelphi
DelphiArrayEndAccess
p3075
(dp3076
g789
(lp3077
(idelphi
DelphiIntegerValue
p3078
(dp3079
g78
S'0'
sbasbasbasbasbasbasbsbasbsg2562
(lp3080
(i__main__
DelphiIdentAccess
p3081
(dp3082
g779
S'filerModeReading'
p3083
sg781
(lp3084
sbasba(idelphi
DelphiCaseSelector
p3085
(dp3086
g2021
(i__main__
DelphiAssignStatement
p3087
(dp3088
g776
Nsg799
(i__main__
DelphiIdentAccess
p3089
(dp3090
g779
S'self'
p3091
sg781
(lp3092
(idelphi
DelphiFieldEndAccess
p3093
(dp3094
g785
S'streamBytes'
p3095
sba(idelphi
DelphiFunctionEndAccess
p3096
(dp3097
g789
(lp3098
(i__main__
DelphiIdentAccess
p3099
(dp3100
g779
S'aString'
p3101
sg781
(lp3102
sba(idelphi
DelphiAddOp
p3103
(dp3104
g1600
S'+'
sg1601
(idelphi
DelphiIntegerValue
p3105
(dp3106
g78
S'1'
sbsg1604
(i__main__
DelphiIdentAccess
p3107
(dp3108
g779
S'length'
p3109
sg781
(lp3110
(idelphi
DelphiFunctionEndAccess
p3111
(dp3112
g789
(lp3113
(i__main__
DelphiIdentAccess
p3114
(dp3115
g779
S'aString'
p3116
sg781
(lp3117
sbasbasbsbasbasbsbsg2562
(lp3118
(i__main__
DelphiIdentAccess
p3119
(dp3120
g779
S'filerModeWriting'
p3121
sg781
(lp3122
sbasba(idelphi
DelphiCaseSelector
p3123
(dp3124
g2021
(i__main__
DelphiAssignStatement
p3125
(dp3126
g776
(idelphi
DelphiAddOp
p3127
(dp3128
g1600
S'+'
sg1601
(idelphi
DelphiIntegerValue
p3129
(dp3130
g78
S'1'
sbsg1604
(idelphi
DelphiAddOp
p3131
(dp3132
g1600
S'+'
sg1601
(i__main__
DelphiIdentAccess
p3133
(dp3134
g779
S'length'
p3135
sg781
(lp3136
(idelphi
DelphiFunctionEndAccess
p3137
(dp3138
g789
(lp3139
(i__main__
DelphiIdentAccess
p3140
(dp3141
g779
S'aString'
p3142
sg781
(lp3143
sbasbasbsg1604
(i__main__
DelphiIdentAccess
p3144
(dp3145
g779
S'bytesStreamed'
p3146
sg781
(lp3147
sbsbsbsg799
(i__main__
DelphiIdentAccess
p3148
(dp3149
g779
S'bytesStreamed'
p3150
sg781
(lp3151
sbsbsg2562
(lp3152
(i__main__
DelphiIdentAccess
p3153
(dp3154
g779
S'filerModeCounting'
p3155
sg781
(lp3156
sbasbasbasbsg877
(lp3157
sbsbsS'streambytebool'
p3158
(i__main__
DelphiMethodImplementation
p3159
(dp3160
g739
g485
sg27
g487
sg68
(lp3161
(i__main__
DelphiFormalParameter
p3162
(dp3163
g72
Nsg45
(lp3164
S'aByteBool'
p3165
asg75
(i__main__
DelphiNamedType
p3166
(dp3167
g34
S'bytebool'
p3168
sg87
g1
sg88
Nsbsg79
g108
sbasg754
(lp3169
sg756
(lp3170
g3165
asg758
(lp3171
g760
ag3165
asg761
(dp3172
g3165
g3166
ssg89
S'PdFiler'
p3173
sg90
Nsg764
(lp3174
sg91
I0
sg92
g93
sg766
(i__main__
DelphiBlock
p3175
(dp3176
g769
(idelphi
DelphiCompoundStatement
p3177
(dp3178
g772
(lp3179
(i__main__
DelphiAssignStatement
p3180
(dp3181
g776
Nsg799
(i__main__
DelphiIdentAccess
p3182
(dp3183
g779
S'self'
p3184
sg781
(lp3185
(idelphi
DelphiFieldEndAccess
p3186
(dp3187
g785
S'streamBytes'
p3188
sba(idelphi
DelphiFunctionEndAccess
p3189
(dp3190
g789
(lp3191
(i__main__
DelphiIdentAccess
p3192
(dp3193
g779
S'aByteBool'
p3194
sg781
(lp3195
sba(idelphi
DelphiSizeof
p3196
(dp3197
g886
(i__main__
DelphiIdentAccess
p3198
(dp3199
g779
S'bytebool'
p3200
sg781
(lp3201
sbsbasbasbsbasbsg877
(lp3202
sbsbsS'streamsinglearray'
p3203
(i__main__
DelphiMethodImplementation
p3204
(dp3205
g739
g411
sg27
g413
sg68
(lp3206
(i__main__
DelphiFormalParameter
p3207
(dp3208
g72
Nsg45
(lp3209
S'anArray'
p3210
asg75
(i__main__
DelphiArrayType
p3211
(dp3212
g75
(i__main__
DelphiPrimitiveType
p3213
(dp3214
g34
g219
sbsg408
(lp3215
sbsg79
g108
sbasg754
(lp3216
I0
asg756
(lp3217
sg758
(lp3218
g760
ag3210
asg761
(dp3219
g3210
g3211
ssg89
S'PdFiler'
p3220
sg90
Nsg764
(lp3221
g3210
asg91
I0
sg92
g93
sg766
(i__main__
DelphiBlock
p3222
(dp3223
g769
(idelphi
DelphiCompoundStatement
p3224
(dp3225
g772
(lp3226
(i__main__
DelphiAssignStatement
p3227
(dp3228
g776
Nsg799
(i__main__
DelphiIdentAccess
p3229
(dp3230
g779
S'self'
p3231
sg781
(lp3232
(idelphi
DelphiFieldEndAccess
p3233
(dp3234
g785
S'streamBytes'
p3235
sba(idelphi
DelphiFunctionEndAccess
p3236
(dp3237
g789
(lp3238
(i__main__
DelphiIdentAccess
p3239
(dp3240
g779
S'anArray'
p3241
sg781
(lp3242
sba(idelphi
DelphiSizeof
p3243
(dp3244
g886
(i__main__
DelphiIdentAccess
p3245
(dp3246
g779
S'anArray'
p3247
sg781
(lp3248
sbsbasbasbsg17
(lp3249
S'var i: integer;'
p3250
asbasg17
(lp3251
S"if this doesn't work, use loop"
p3252
aS'for i := 0 to high(anArray) do self.streamSingle(anArray[i]);'
p3253
asbsg877
(lp3254
sbsbsS'settowritingmode'
p3255
(i__main__
DelphiMethodImplementation
p3256
(dp3257
g739
g425
sg27
g427
sg68
(lp3258
sg754
(lp3259
sg756
(lp3260
sg758
(lp3261
g760
asg761
(dp3262
sg89
S'PdFiler'
p3263
sg90
Nsg764
(lp3264
sg91
I0
sg92
g93
sg766
(i__main__
DelphiBlock
p3265
(dp3266
g769
(idelphi
DelphiCompoundStatement
p3267
(dp3268
g772
(lp3269
(i__main__
DelphiAssignStatement
p3270
(dp3271
g776
(i__main__
DelphiIdentAccess
p3272
(dp3273
g779
S'filerModeWriting'
p3274
sg781
(lp3275
sbsg799
(i__main__
DelphiIdentAccess
p3276
(dp3277
g779
S'mode'
p3278
sg781
(lp3279
sbsba(i__main__
DelphiAssignStatement
p3280
(dp3281
g776
(idelphi
DelphiIntegerValue
p3282
(dp3283
g78
S'0'
sbsg799
(i__main__
DelphiIdentAccess
p3284
(dp3285
g779
S'bytesStreamed'
p3286
sg781
(lp3287
sbsba(idelphi
DelphiIfStatement
p3288
(dp3289
g1059
(idelphi
DelphiRelOp
p3290
(dp3291
g1266
(i__main__
DelphiIdentAccess
p3292
(dp3293
g779
S'stream'
p3294
sg781
(lp3295
sbsg1271
(idelphi
DelphiNilValue
p3296
(dp3297
bsg1274
S'='
sbsg1067
Nsg1123
(idelphi
DelphiRaiseStatement
p3298
(dp3299
g1059
(i__main__
DelphiIdentAccess
p3300
(dp3301
g779
S'EWriteError'
p3302
sg781
(lp3303
(idelphi
DelphiFieldEndAccess
p3304
(dp3305
g785
S'create'
p3306
sba(idelphi
DelphiFunctionEndAccess
p3307
(dp3308
g789
(lp3309
(i__main__
DelphiIdentAccess
p3310
(dp3311
g779
S'SWriteError'
p3312
sg781
(lp3313
sbasbasbsg17
(lp3314
S' was LoadStr( )\r'
p3315
asbsbasbsg877
(lp3316
sbsbsS'streamreal'
p3317
(i__main__
DelphiMethodImplementation
p3318
(dp3319
g739
g430
sg27
g432
sg68
(lp3320
(i__main__
DelphiFormalParameter
p3321
(dp3322
g72
Nsg45
(lp3323
S'aReal'
p3324
asg75
(i__main__
DelphiPrimitiveType
p3325
(dp3326
g34
g440
sbsg79
g108
sbasg754
(lp3327
I0
asg756
(lp3328
sg758
(lp3329
g760
ag3324
asg761
(dp3330
g3324
g3325
ssg89
S'PdFiler'
p3331
sg90
Nsg764
(lp3332
g3324
asg91
I0
sg92
g93
sg766
(i__main__
DelphiBlock
p3333
(dp3334
g769
(idelphi
DelphiCompoundStatement
p3335
(dp3336
g772
(lp3337
(i__main__
DelphiAssignStatement
p3338
(dp3339
g776
Nsg799
(i__main__
DelphiIdentAccess
p3340
(dp3341
g779
S'self'
p3342
sg781
(lp3343
(idelphi
DelphiFieldEndAccess
p3344
(dp3345
g785
S'streamBytes'
p3346
sba(idelphi
DelphiFunctionEndAccess
p3347
(dp3348
g789
(lp3349
(i__main__
DelphiIdentAccess
p3350
(dp3351
g779
S'aReal'
p3352
sg781
(lp3353
sba(idelphi
DelphiSizeof
p3354
(dp3355
g886
(idelphi
ConstValueTypecastOrJustTypeForSizeOf
p3356
(dp3357
g886
Nsg1031
(i__main__
DelphiPrimitiveType
p3358
(dp3359
g34
g440
sbsbsbasbasbsbasbsg877
(lp3360
sbsbsS'streamlistoflongints'
p3361
(i__main__
DelphiMethodImplementation
p3362
(dp3363
g739
g442
sg27
g444
sg68
(lp3364
(i__main__
DelphiFormalParameter
p3365
(dp3366
g72
Nsg45
(lp3367
S'aList'
p3368
asg75
(i__main__
DelphiNamedType
p3369
(dp3370
g34
S'TList'
p3371
sg87
g1
sg88
Nsbsg79
Nsbasg754
(lp3372
sg756
(lp3373
sg758
(lp3374
g760
ag3368
asg761
(dp3375
g3368
g3369
ssg89
S'PdFiler'
p3376
sg90
Nsg764
(lp3377
sg91
I0
sg92
g93
sg766
(i__main__
DelphiBlock
p3378
(dp3379
g769
(idelphi
DelphiCompoundStatement
p3380
(dp3381
g772
(lp3382
(idelphi
DelphiIfStatement
p3383
(dp3384
g1059
(i__main__
DelphiIdentAccess
p3385
(dp3386
g779
S'self'
p3387
sg781
(lp3388
(idelphi
DelphiFieldEndAccess
p3389
(dp3390
g785
S'isWriting'
p3391
sbasbsg1067
(idelphi
DelphiIfStatement
p3392
(dp3393
g1059
(i__main__
DelphiIdentAccess
p3394
(dp3395
g779
S'self'
p3396
sg781
(lp3397
(idelphi
DelphiFieldEndAccess
p3398
(dp3399
g785
S'isReading'
p3400
sbasbsg1067
Nsg1123
(idelphi
DelphiCompoundStatement
p3401
(dp3402
g772
(lp3403
(i__main__
DelphiAssignStatement
p3404
(dp3405
g776
Nsg799
(i__main__
DelphiIdentAccess
p3406
(dp3407
g779
S'aList'
p3408
sg781
(lp3409
(idelphi
DelphiFieldEndAccess
p3410
(dp3411
g785
S'clear'
p3412
sbasbsba(i__main__
DelphiAssignStatement
p3413
(dp3414
g776
Nsg799
(i__main__
DelphiIdentAccess
p3415
(dp3416
g779
S'self'
p3417
sg781
(lp3418
(idelphi
DelphiFieldEndAccess
p3419
(dp3420
g785
S'streamLongint'
p3421
sba(idelphi
DelphiFunctionEndAccess
p3422
(dp3423
g789
(lp3424
(i__main__
DelphiIdentAccess
p3425
(dp3426
g779
S'theCount'
p3427
sg781
(lp3428
sbasbasbsba(idelphi
DelphiIfStatement
p3429
(dp3430
g1059
(idelphi
DelphiRelOp
p3431
(dp3432
g1266
(i__main__
DelphiIdentAccess
p3433
(dp3434
g779
S'theCount'
p3435
sg781
(lp3436
sbsg1271
(idelphi
DelphiIntegerValue
p3437
(dp3438
g78
S'0'
sbsg1274
S'>'
sbsg1067
Nsg1123
(idelphi
DelphiForStatement
p3439
(dp3440
g2007
S'i'
sg2008
(idelphi
DelphiAddOp
p3441
(dp3442
g1600
S'-'
sg1601
(idelphi
DelphiIntegerValue
p3443
(dp3444
g78
S'1'
sbsg1604
(i__main__
DelphiIdentAccess
p3445
(dp3446
g779
S'theCount'
p3447
sg781
(lp3448
sbsbsg2017
g2018
sg72
(idelphi
DelphiIntegerValue
p3449
(dp3450
g78
S'0'
sbsg2021
(idelphi
DelphiCompoundStatement
p3451
(dp3452
g772
(lp3453
(i__main__
DelphiAssignStatement
p3454
(dp3455
g776
Nsg799
(i__main__
DelphiIdentAccess
p3456
(dp3457
g779
S'self'
p3458
sg781
(lp3459
(idelphi
DelphiFieldEndAccess
p3460
(dp3461
g785
S'streamLongint'
p3462
sba(idelphi
DelphiFunctionEndAccess
p3463
(dp3464
g789
(lp3465
(i__main__
DelphiIdentAccess
p3466
(dp3467
g779
S'theValue'
p3468
sg781
(lp3469
sbasbasbsba(i__main__
DelphiAssignStatement
p3470
(dp3471
g776
Nsg799
(i__main__
DelphiIdentAccess
p3472
(dp3473
g779
S'aList'
p3474
sg781
(lp3475
(idelphi
DelphiFieldEndAccess
p3476
(dp3477
g785
S'add'
p3478
sba(idelphi
DelphiFunctionEndAccess
p3479
(dp3480
g789
(lp3481
(i__main__
DelphiIdentAccess
p3482
(dp3483
g779
S'Pointer'
p3484
sg781
(lp3485
(idelphi
DelphiFunctionEndAccess
p3486
(dp3487
g789
(lp3488
(i__main__
DelphiIdentAccess
p3489
(dp3490
g779
S'theValue'
p3491
sg781
(lp3492
sbasbasbasbasbsbasbsbsbasbsbsg1123
(idelphi
DelphiCompoundStatement
p3493
(dp3494
g772
(lp3495
(i__main__
DelphiAssignStatement
p3496
(dp3497
g776
(i__main__
DelphiIdentAccess
p3498
(dp3499
g779
S'aList'
p3500
sg781
(lp3501
(idelphi
DelphiFieldEndAccess
p3502
(dp3503
g785
S'count'
p3504
sbasbsg799
(i__main__
DelphiIdentAccess
p3505
(dp3506
g779
S'theCount'
p3507
sg781
(lp3508
sbsba(i__main__
DelphiAssignStatement
p3509
(dp3510
g776
Nsg799
(i__main__
DelphiIdentAccess
p3511
(dp3512
g779
S'self'
p3513
sg781
(lp3514
(idelphi
DelphiFieldEndAccess
p3515
(dp3516
g785
S'streamLongint'
p3517
sba(idelphi
DelphiFunctionEndAccess
p3518
(dp3519
g789
(lp3520
(i__main__
DelphiIdentAccess
p3521
(dp3522
g779
S'theCount'
p3523
sg781
(lp3524
sbasbasbsba(idelphi
DelphiIfStatement
p3525
(dp3526
g1059
(idelphi
DelphiRelOp
p3527
(dp3528
g1266
(i__main__
DelphiIdentAccess
p3529
(dp3530
g779
S'theCount'
p3531
sg781
(lp3532
sbsg1271
(idelphi
DelphiIntegerValue
p3533
(dp3534
g78
S'0'
sbsg1274
S'>'
sbsg1067
Nsg1123
(idelphi
DelphiForStatement
p3535
(dp3536
g2007
S'i'
sg2008
(idelphi
DelphiAddOp
p3537
(dp3538
g1600
S'-'
sg1601
(idelphi
DelphiIntegerValue
p3539
(dp3540
g78
S'1'
sbsg1604
(i__main__
DelphiIdentAccess
p3541
(dp3542
g779
S'theCount'
p3543
sg781
(lp3544
sbsbsg2017
g2018
sg72
(idelphi
DelphiIntegerValue
p3545
(dp3546
g78
S'0'
sbsg2021
(idelphi
DelphiCompoundStatement
p3547
(dp3548
g772
(lp3549
(i__main__
DelphiAssignStatement
p3550
(dp3551
g776
(i__main__
DelphiValueTypecastAccess
p3552
(dp3553
S'valueTypecast'
p3554
(i__main__
DelphiValueTypecast
p3555
(dp3556
g1059
(i__main__
DelphiIdentAccess
p3557
(dp3558
g779
S'aList'
p3559
sg781
(lp3560
(idelphi
DelphiFieldEndAccess
p3561
(dp3562
g785
S'items'
p3563
sba(idelphi
DelphiArrayEndAccess
p3564
(dp3565
g789
(lp3566
(i__main__
DelphiIdentAccess
p3567
(dp3568
g779
S'i'
sg781
(lp3569
sbasbasbsg1031
(i__main__
DelphiPrimitiveType
p3570
(dp3571
g34
g298
sbsbsg781
(lp3572
sbsg799
(i__main__
DelphiIdentAccess
p3573
(dp3574
g779
S'theValue'
p3575
sg781
(lp3576
sbsba(i__main__
DelphiAssignStatement
p3577
(dp3578
g776
Nsg799
(i__main__
DelphiIdentAccess
p3579
(dp3580
g779
S'self'
p3581
sg781
(lp3582
(idelphi
DelphiFieldEndAccess
p3583
(dp3584
g785
S'streamLongint'
p3585
sba(idelphi
DelphiFunctionEndAccess
p3586
(dp3587
g789
(lp3588
(i__main__
DelphiIdentAccess
p3589
(dp3590
g779
S'theValue'
p3591
sg781
(lp3592
sbasbasbsbasbsbsbasbsbasbsg877
(lp3593
(i__main__
DelphiVarSection
p3594
(dp3595
g881
I0
sg882
(lp3596
(idelphi
DelphiVarDecl
p3597
(dp3598
g886
Nsg887
(lp3599
S'theCount'
p3600
asg75
(i__main__
DelphiPrimitiveType
p3601
(dp3602
g34
g298
sbsba(idelphi
DelphiVarDecl
p3603
(dp3604
g886
Nsg887
(lp3605
S'i'
asg75
(i__main__
DelphiPrimitiveType
p3606
(dp3607
g34
g298
sbsba(idelphi
DelphiVarDecl
p3608
(dp3609
g886
Nsg887
(lp3610
S'theValue'
p3611
asg75
(i__main__
DelphiPrimitiveType
p3612
(dp3613
g34
g298
sbsbasbasbsbsS'streamrect'
p3614
(i__main__
DelphiMethodImplementation
p3615
(dp3616
g739
g454
sg27
g456
sg68
(lp3617
(i__main__
DelphiFormalParameter
p3618
(dp3619
g72
Nsg45
(lp3620
S'aRect'
p3621
asg75
(i__main__
DelphiNamedType
p3622
(dp3623
g34
S'TRect'
p3624
sg87
g1
sg88
Nsbsg79
g108
sbasg754
(lp3625
sg756
(lp3626
g3621
asg758
(lp3627
g760
ag3621
asg761
(dp3628
g3621
g3622
ssg89
S'PdFiler'
p3629
sg90
Nsg764
(lp3630
sg91
I0
sg92
g93
sg766
(i__main__
DelphiBlock
p3631
(dp3632
g769
(idelphi
DelphiCompoundStatement
p3633
(dp3634
g772
(lp3635
(idelphi
DelphiIfStatement
p3636
(dp3637
g1059
(i__main__
DelphiIdentAccess
p3638
(dp3639
g779
S'self'
p3640
sg781
(lp3641
(idelphi
DelphiFieldEndAccess
p3642
(dp3643
g785
S'isReading'
p3644
sbasbsg1067
(idelphi
DelphiCompoundStatement
p3645
(dp3646
g772
(lp3647
(i__main__
DelphiAssignStatement
p3648
(dp3649
g776
(i__main__
DelphiIdentAccess
p3650
(dp3651
g779
S'aRect'
p3652
sg781
(lp3653
(idelphi
DelphiFieldEndAccess
p3654
(dp3655
g785
S'left'
p3656
sbasbsg799
(i__main__
DelphiIdentAccess
p3657
(dp3658
g779
S'left'
p3659
sg781
(lp3660
sbsba(i__main__
DelphiAssignStatement
p3661
(dp3662
g776
(i__main__
DelphiIdentAccess
p3663
(dp3664
g779
S'aRect'
p3665
sg781
(lp3666
(idelphi
DelphiFieldEndAccess
p3667
(dp3668
g785
S'top'
p3669
sbasbsg799
(i__main__
DelphiIdentAccess
p3670
(dp3671
g779
S'top'
p3672
sg781
(lp3673
sbsba(i__main__
DelphiAssignStatement
p3674
(dp3675
g776
(i__main__
DelphiIdentAccess
p3676
(dp3677
g779
S'aRect'
p3678
sg781
(lp3679
(idelphi
DelphiFieldEndAccess
p3680
(dp3681
g785
S'right'
p3682
sbasbsg799
(i__main__
DelphiIdentAccess
p3683
(dp3684
g779
S'right'
p3685
sg781
(lp3686
sbsba(i__main__
DelphiAssignStatement
p3687
(dp3688
g776
(i__main__
DelphiIdentAccess
p3689
(dp3690
g779
S'aRect'
p3691
sg781
(lp3692
(idelphi
DelphiFieldEndAccess
p3693
(dp3694
g785
S'bottom'
p3695
sbasbsg799
(i__main__
DelphiIdentAccess
p3696
(dp3697
g779
S'bottom'
p3698
sg781
(lp3699
sbsba(i__main__
DelphiAssignStatement
p3700
(dp3701
g776
Nsg799
(i__main__
DelphiIdentAccess
p3702
(dp3703
g779
S'self'
p3704
sg781
(lp3705
(idelphi
DelphiFieldEndAccess
p3706
(dp3707
g785
S'streamSmallint'
p3708
sba(idelphi
DelphiFunctionEndAccess
p3709
(dp3710
g789
(lp3711
(i__main__
DelphiIdentAccess
p3712
(dp3713
g779
S'left'
p3714
sg781
(lp3715
sbasbasbsba(i__main__
DelphiAssignStatement
p3716
(dp3717
g776
Nsg799
(i__main__
DelphiIdentAccess
p3718
(dp3719
g779
S'self'
p3720
sg781
(lp3721
(idelphi
DelphiFieldEndAccess
p3722
(dp3723
g785
S'streamSmallint'
p3724
sba(idelphi
DelphiFunctionEndAccess
p3725
(dp3726
g789
(lp3727
(i__main__
DelphiIdentAccess
p3728
(dp3729
g779
S'top'
p3730
sg781
(lp3731
sbasbasbsba(i__main__
DelphiAssignStatement
p3732
(dp3733
g776
Nsg799
(i__main__
DelphiIdentAccess
p3734
(dp3735
g779
S'self'
p3736
sg781
(lp3737
(idelphi
DelphiFieldEndAccess
p3738
(dp3739
g785
S'streamSmallint'
p3740
sba(idelphi
DelphiFunctionEndAccess
p3741
(dp3742
g789
(lp3743
(i__main__
DelphiIdentAccess
p3744
(dp3745
g779
S'right'
p3746
sg781
(lp3747
sbasbasbsba(i__main__
DelphiAssignStatement
p3748
(dp3749
g776
Nsg799
(i__main__
DelphiIdentAccess
p3750
(dp3751
g779
S'self'
p3752
sg781
(lp3753
(idelphi
DelphiFieldEndAccess
p3754
(dp3755
g785
S'streamSmallint'
p3756
sba(idelphi
DelphiFunctionEndAccess
p3757
(dp3758
g789
(lp3759
(i__main__
DelphiIdentAccess
p3760
(dp3761
g779
S'bottom'
p3762
sg781
(lp3763
sbasbasbsbasbsg1123
(idelphi
DelphiCompoundStatement
p3764
(dp3765
g772
(lp3766
(i__main__
DelphiAssignStatement
p3767
(dp3768
g776
Nsg799
(i__main__
DelphiIdentAccess
p3769
(dp3770
g779
S'self'
p3771
sg781
(lp3772
(idelphi
DelphiFieldEndAccess
p3773
(dp3774
g785
S'streamSmallint'
p3775
sba(idelphi
DelphiFunctionEndAccess
p3776
(dp3777
g789
(lp3778
(i__main__
DelphiIdentAccess
p3779
(dp3780
g779
S'left'
p3781
sg781
(lp3782
sbasbasbsba(i__main__
DelphiAssignStatement
p3783
(dp3784
g776
Nsg799
(i__main__
DelphiIdentAccess
p3785
(dp3786
g779
S'self'
p3787
sg781
(lp3788
(idelphi
DelphiFieldEndAccess
p3789
(dp3790
g785
S'streamSmallint'
p3791
sba(idelphi
DelphiFunctionEndAccess
p3792
(dp3793
g789
(lp3794
(i__main__
DelphiIdentAccess
p3795
(dp3796
g779
S'top'
p3797
sg781
(lp3798
sbasbasbsba(i__main__
DelphiAssignStatement
p3799
(dp3800
g776
Nsg799
(i__main__
DelphiIdentAccess
p3801
(dp3802
g779
S'self'
p3803
sg781
(lp3804
(idelphi
DelphiFieldEndAccess
p3805
(dp3806
g785
S'streamSmallint'
p3807
sba(idelphi
DelphiFunctionEndAccess
p3808
(dp3809
g789
(lp3810
(i__main__
DelphiIdentAccess
p3811
(dp3812
g779
S'right'
p3813
sg781
(lp3814
sbasbasbsba(i__main__
DelphiAssignStatement
p3815
(dp3816
g776
Nsg799
(i__main__
DelphiIdentAccess
p3817
(dp3818
g779
S'self'
p3819
sg781
(lp3820
(idelphi
DelphiFieldEndAccess
p3821
(dp3822
g785
S'streamSmallint'
p3823
sba(idelphi
DelphiFunctionEndAccess
p3824
(dp3825
g789
(lp3826
(i__main__
DelphiIdentAccess
p3827
(dp3828
g779
S'bottom'
p3829
sg781
(lp3830
sbasbasbsba(i__main__
DelphiAssignStatement
p3831
(dp3832
g776
(i__main__
DelphiIdentAccess
p3833
(dp3834
g779
S'Rect'
p3835
sg781
(lp3836
(idelphi
DelphiFunctionEndAccess
p3837
(dp3838
g789
(lp3839
(i__main__
DelphiIdentAccess
p3840
(dp3841
g779
S'left'
p3842
sg781
(lp3843
sba(i__main__
DelphiIdentAccess
p3844
(dp3845
g779
S'top'
p3846
sg781
(lp3847
sba(i__main__
DelphiIdentAccess
p3848
(dp3849
g779
S'right'
p3850
sg781
(lp3851
sba(i__main__
DelphiIdentAccess
p3852
(dp3853
g779
S'bottom'
p3854
sg781
(lp3855
sbasbasbsg799
(i__main__
DelphiIdentAccess
p3856
(dp3857
g779
S'aRect'
p3858
sg781
(lp3859
sbsbasbsbasbsg877
(lp3860
(i__main__
DelphiVarSection
p3861
(dp3862
g881
I0
sg882
(lp3863
(idelphi
DelphiVarDecl
p3864
(dp3865
g886
Nsg887
(lp3866
S'top'
p3867
aS'left'
p3868
aS'bottom'
p3869
aS'right'
p3870
asg75
(i__main__
DelphiPrimitiveType
p3871
(dp3872
g34
g35
sbsbasbasbsbsS'iscounting'
p3873
(i__main__
DelphiMethodImplementation
p3874
(dp3875
g739
g466
sg27
g468
sg68
(lp3876
sg754
(lp3877
sg756
(lp3878
sg758
(lp3879
g760
asg761
(dp3880
sg89
S'PdFiler'
p3881
sg90
(i__main__
DelphiPrimitiveType
p3882
(dp3883
g34
g231
sbsg764
(lp3884
sg91
I0
sg92
g207
sg766
(i__main__
DelphiBlock
p3885
(dp3886
g769
(idelphi
DelphiCompoundStatement
p3887
(dp3888
g772
(lp3889
(i__main__
DelphiAssignStatement
p3890
(dp3891
g776
(idelphi
DelphiRelOp
p3892
(dp3893
g1266
(i__main__
DelphiIdentAccess
p3894
(dp3895
g779
S'mode'
p3896
sg781
(lp3897
sbsg1271
(i__main__
DelphiIdentAccess
p3898
(dp3899
g779
S'filerModeCounting'
p3900
sg781
(lp3901
sbsg1274
S'='
sbsg799
(i__main__
DelphiIdentAccess
p3902
(dp3903
g779
S'result'
p3904
sg781
(lp3905
sbsbasbsg877
(lp3906
sbsbsS'streambyte'
p3907
(i__main__
DelphiMethodImplementation
p3908
(dp3909
g739
g473
sg27
g475
sg68
(lp3910
(i__main__
DelphiFormalParameter
p3911
(dp3912
g72
Nsg45
(lp3913
S'aByte'
p3914
asg75
(i__main__
DelphiPrimitiveType
p3915
(dp3916
g34
g483
sbsg79
g108
sbasg754
(lp3917
I0
asg756
(lp3918
sg758
(lp3919
g760
ag3914
asg761
(dp3920
g3914
g3915
ssg89
S'PdFiler'
p3921
sg90
Nsg764
(lp3922
g3914
asg91
I0
sg92
g93
sg766
(i__main__
DelphiBlock
p3923
(dp3924
g769
(idelphi
DelphiCompoundStatement
p3925
(dp3926
g772
(lp3927
(i__main__
DelphiAssignStatement
p3928
(dp3929
g776
Nsg799
(i__main__
DelphiIdentAccess
p3930
(dp3931
g779
S'self'
p3932
sg781
(lp3933
(idelphi
DelphiFieldEndAccess
p3934
(dp3935
g785
S'streamBytes'
p3936
sba(idelphi
DelphiFunctionEndAccess
p3937
(dp3938
g789
(lp3939
(i__main__
DelphiIdentAccess
p3940
(dp3941
g779
S'aByte'
p3942
sg781
(lp3943
sba(idelphi
DelphiSizeof
p3944
(dp3945
g886
(idelphi
ConstValueTypecastOrJustTypeForSizeOf
p3946
(dp3947
g886
Nsg1031
(i__main__
DelphiPrimitiveType
p3948
(dp3949
g34
g483
sbsbsbasbasbsbasbsg877
(lp3950
sbsbsS'iswriting'
p3951
(i__main__
DelphiMethodImplementation
p3952
(dp3953
g739
g497
sg27
g499
sg68
(lp3954
sg754
(lp3955
sg756
(lp3956
sg758
(lp3957
g760
asg761
(dp3958
sg89
S'PdFiler'
p3959
sg90
(i__main__
DelphiPrimitiveType
p3960
(dp3961
g34
g231
sbsg764
(lp3962
sg91
I0
sg92
g207
sg766
(i__main__
DelphiBlock
p3963
(dp3964
g769
(idelphi
DelphiCompoundStatement
p3965
(dp3966
g772
(lp3967
(i__main__
DelphiAssignStatement
p3968
(dp3969
g776
(idelphi
DelphiRelOp
p3970
(dp3971
g1266
(i__main__
DelphiIdentAccess
p3972
(dp3973
g779
S'mode'
p3974
sg781
(lp3975
sbsg1271
(i__main__
DelphiIdentAccess
p3976
(dp3977
g779
S'filerModeWriting'
p3978
sg781
(lp3979
sbsg1274
S'='
sbsg799
(i__main__
DelphiIdentAccess
p3980
(dp3981
g779
S'result'
p3982
sg781
(lp3983
sbsbasbsg877
(lp3984
sbsbsS'streamansistring'
p3985
(i__main__
DelphiMethodImplementation
p3986
(dp3987
g739
g504
sg27
g506
sg68
(lp3988
(i__main__
DelphiFormalParameter
p3989
(dp3990
g72
Nsg45
(lp3991
S'aString'
p3992
asg75
(i__main__
DelphiNamedType
p3993
(dp3994
g34
S'ansistring'
p3995
sg87
g1
sg88
Nsbsg79
g108
sbasg754
(lp3996
sg756
(lp3997
g3992
asg758
(lp3998
g760
ag3992
asg761
(dp3999
g3992
g3993
ssg89
S'PdFiler'
p4000
sg90
Nsg764
(lp4001
sg91
I0
sg92
g93
sg766
(i__main__
DelphiBlock
p4002
(dp4003
g769
(idelphi
DelphiCompoundStatement
p4004
(dp4005
g772
(lp4006
(idelphi
DelphiCaseStatement
p4007
(dp4008
g2531
Nsg1059
(i__main__
DelphiIdentAccess
p4009
(dp4010
g779
S'mode'
p4011
sg781
(lp4012
sbsg2536
(lp4013
(idelphi
DelphiCaseSelector
p4014
(dp4015
g2021
(idelphi
DelphiCompoundStatement
p4016
(dp4017
g772
(lp4018
(i__main__
DelphiAssignStatement
p4019
(dp4020
g776
Nsg799
(i__main__
DelphiIdentAccess
p4021
(dp4022
g779
S'self'
p4023
sg781
(lp4024
(idelphi
DelphiFieldEndAccess
p4025
(dp4026
g785
S'streamLongint'
p4027
sba(idelphi
DelphiFunctionEndAccess
p4028
(dp4029
g789
(lp4030
(i__main__
DelphiIdentAccess
p4031
(dp4032
g779
S'theLength'
p4033
sg781
(lp4034
sbasbasbsg17
(lp4035
S'make sure write out extra zero at end'
p4036
asba(i__main__
DelphiAssignStatement
p4037
(dp4038
g776
Nsg799
(i__main__
DelphiIdentAccess
p4039
(dp4040
g779
S'setlength'
p4041
sg781
(lp4042
(idelphi
DelphiFunctionEndAccess
p4043
(dp4044
g789
(lp4045
(i__main__
DelphiIdentAccess
p4046
(dp4047
g779
S'aString'
p4048
sg781
(lp4049
sba(i__main__
DelphiIdentAccess
p4050
(dp4051
g779
S'theLength'
p4052
sg781
(lp4053
sbasbasbsba(idelphi
DelphiIfStatement
p4054
(dp4055
g1059
(idelphi
DelphiRelOp
p4056
(dp4057
g1266
(i__main__
DelphiIdentAccess
p4058
(dp4059
g779
S'theLength'
p4060
sg781
(lp4061
sbsg1271
(idelphi
DelphiIntegerValue
p4062
(dp4063
g78
S'0'
sbsg1274
S'>'
sbsg1067
Nsg1123
(i__main__
DelphiAssignStatement
p4064
(dp4065
g776
Nsg799
(i__main__
DelphiIdentAccess
p4066
(dp4067
g779
S'self'
p4068
sg781
(lp4069
(idelphi
DelphiFieldEndAccess
p4070
(dp4071
g785
S'streamBytes'
p4072
sba(idelphi
DelphiFunctionEndAccess
p4073
(dp4074
g789
(lp4075
(i__main__
DelphiValueTypecastAccess
p4076
(dp4077
g3554
(i__main__
DelphiValueTypecast
p4078
(dp4079
g1059
(i__main__
DelphiIdentAccess
p4080
(dp4081
g779
S'aString'
p4082
sg781
(lp4083
sbsg1031
(i__main__
DelphiPrimitiveType
p4084
(dp4085
g34
g608
sbsbsg781
(lp4086
(idelphi
DelphiPointerEndAccess
p4087
(dp4088
basba(idelphi
DelphiAddOp
p4089
(dp4090
g1600
S'+'
sg1601
(idelphi
DelphiIntegerValue
p4091
(dp4092
g78
S'1'
sbsg1604
(i__main__
DelphiIdentAccess
p4093
(dp4094
g779
S'theLength'
p4095
sg781
(lp4096
sbsbasbasbsbsbasbsg2562
(lp4097
(i__main__
DelphiIdentAccess
p4098
(dp4099
g779
S'filerModeReading'
p4100
sg781
(lp4101
sbasba(idelphi
DelphiCaseSelector
p4102
(dp4103
g2021
(idelphi
DelphiCompoundStatement
p4104
(dp4105
g772
(lp4106
(i__main__
DelphiAssignStatement
p4107
(dp4108
g776
(i__main__
DelphiIdentAccess
p4109
(dp4110
g779
S'Length'
p4111
sg781
(lp4112
(idelphi
DelphiFunctionEndAccess
p4113
(dp4114
g789
(lp4115
(i__main__
DelphiIdentAccess
p4116
(dp4117
g779
S'aString'
p4118
sg781
(lp4119
sbasbasbsg799
(i__main__
DelphiIdentAccess
p4120
(dp4121
g779
S'theLength'
p4122
sg781
(lp4123
sbsba(i__main__
DelphiAssignStatement
p4124
(dp4125
g776
Nsg799
(i__main__
DelphiIdentAccess
p4126
(dp4127
g779
S'self'
p4128
sg781
(lp4129
(idelphi
DelphiFieldEndAccess
p4130
(dp4131
g785
S'streamLongint'
p4132
sba(idelphi
DelphiFunctionEndAccess
p4133
(dp4134
g789
(lp4135
(i__main__
DelphiIdentAccess
p4136
(dp4137
g779
S'theLength'
p4138
sg781
(lp4139
sbasbasbsba(idelphi
DelphiIfStatement
p4140
(dp4141
g1059
(idelphi
DelphiRelOp
p4142
(dp4143
g1266
(i__main__
DelphiIdentAccess
p4144
(dp4145
g779
S'theLength'
p4146
sg781
(lp4147
sbsg1271
(idelphi
DelphiIntegerValue
p4148
(dp4149
g78
S'0'
sbsg1274
S'>'
sbsg1067
Nsg1123
(i__main__
DelphiAssignStatement
p4150
(dp4151
g776
Nsg799
(i__main__
DelphiIdentAccess
p4152
(dp4153
g779
S'self'
p4154
sg781
(lp4155
(idelphi
DelphiFieldEndAccess
p4156
(dp4157
g785
S'streamBytes'
p4158
sba(idelphi
DelphiFunctionEndAccess
p4159
(dp4160
g789
(lp4161
(i__main__
DelphiValueTypecastAccess
p4162
(dp4163
g3554
(i__main__
DelphiValueTypecast
p4164
(dp4165
g1059
(i__main__
DelphiIdentAccess
p4166
(dp4167
g779
S'aString'
p4168
sg781
(lp4169
sbsg1031
(i__main__
DelphiPrimitiveType
p4170
(dp4171
g34
g608
sbsbsg781
(lp4172
(idelphi
DelphiPointerEndAccess
p4173
(dp4174
basba(idelphi
DelphiAddOp
p4175
(dp4176
g1600
S'+'
sg1601
(idelphi
DelphiIntegerValue
p4177
(dp4178
g78
S'1'
sbsg1604
(i__main__
DelphiIdentAccess
p4179
(dp4180
g779
S'theLength'
p4181
sg781
(lp4182
sbsbasbasbsbsbasbsg2562
(lp4183
(i__main__
DelphiIdentAccess
p4184
(dp4185
g779
S'filerModeWriting'
p4186
sg781
(lp4187
sbasba(idelphi
DelphiCaseSelector
p4188
(dp4189
g2021
(i__main__
DelphiAssignStatement
p4190
(dp4191
g776
(idelphi
DelphiAddOp
p4192
(dp4193
g1600
S'+'
sg1601
(idelphi
DelphiIntegerValue
p4194
(dp4195
g78
S'1'
sbsg1604
(idelphi
DelphiAddOp
p4196
(dp4197
g1600
S'+'
sg1601
(i__main__
DelphiIdentAccess
p4198
(dp4199
g779
S'length'
p4200
sg781
(lp4201
(idelphi
DelphiFunctionEndAccess
p4202
(dp4203
g789
(lp4204
(i__main__
DelphiIdentAccess
p4205
(dp4206
g779
S'aString'
p4207
sg781
(lp4208
sbasbasbsg1604
(i__main__
DelphiIdentAccess
p4209
(dp4210
g779
S'bytesStreamed'
p4211
sg781
(lp4212
sbsbsbsg799
(i__main__
DelphiIdentAccess
p4213
(dp4214
g779
S'bytesStreamed'
p4215
sg781
(lp4216
sbsbsg2562
(lp4217
(i__main__
DelphiIdentAccess
p4218
(dp4219
g779
S'filerModeCounting'
p4220
sg781
(lp4221
sbasbasbasbsg877
(lp4222
(i__main__
DelphiVarSection
p4223
(dp4224
g881
I0
sg882
(lp4225
(idelphi
DelphiVarDecl
p4226
(dp4227
g886
Nsg887
(lp4228
S'theLength'
p4229
asg75
(i__main__
DelphiPrimitiveType
p4230
(dp4231
g34
g298
sbsbasbasbsbsS'setstreamposition'
p4232
(i__main__
DelphiMethodImplementation
p4233
(dp4234
g739
g516
sg27
g518
sg68
(lp4235
(i__main__
DelphiFormalParameter
p4236
(dp4237
g72
Nsg45
(lp4238
S'position'
p4239
asg75
(i__main__
DelphiPrimitiveType
p4240
(dp4241
g34
g298
sbsg79
Nsbasg754
(lp4242
sg756
(lp4243
sg758
(lp4244
g760
ag4239
asg761
(dp4245
g4239
g4240
ssg89
S'PdFiler'
p4246
sg90
Nsg764
(lp4247
sg91
I0
sg92
g93
sg766
(i__main__
DelphiBlock
p4248
(dp4249
g769
(idelphi
DelphiCompoundStatement
p4250
(dp4251
g772
(lp4252
(i__main__
DelphiAssignStatement
p4253
(dp4254
g776
(i__main__
DelphiIdentAccess
p4255
(dp4256
g779
S'position'
p4257
sg781
(lp4258
sbsg799
(i__main__
DelphiIdentAccess
p4259
(dp4260
g779
S'self'
p4261
sg781
(lp4262
(idelphi
DelphiFieldEndAccess
p4263
(dp4264
g785
S'stream'
p4265
sba(idelphi
DelphiFieldEndAccess
p4266
(dp4267
g785
S'position'
p4268
sbasbsbasbsg877
(lp4269
sbsbsS'streambytes'
p4270
(i__main__
DelphiMethodImplementation
p4271
(dp4272
g739
g527
sg27
g529
sg68
(lp4273
(i__main__
DelphiFormalParameter
p4274
(dp4275
g72
Nsg45
(lp4276
S'bytes'
p4277
asg75
Nsg79
g108
sba(i__main__
DelphiFormalParameter
p4278
(dp4279
g72
Nsg45
(lp4280
S'size'
p4281
asg75
(i__main__
DelphiPrimitiveType
p4282
(dp4283
g34
g298
sbsg79
Nsbasg754
(lp4284
I0
asg756
(lp4285
sg758
(lp4286
g760
ag4277
ag4281
asg761
(dp4287
g4277
Nsg4281
g4282
ssg89
S'PdFiler'
p4288
sg90
Nsg764
(lp4289
g4277
asg91
I0
sg92
g93
sg766
(i__main__
DelphiBlock
p4290
(dp4291
g769
(idelphi
DelphiCompoundStatement
p4292
(dp4293
g772
(lp4294
(idelphi
DelphiCaseStatement
p4295
(dp4296
g2531
Nsg1059
(i__main__
DelphiIdentAccess
p4297
(dp4298
g779
S'mode'
p4299
sg781
(lp4300
sbsg2536
(lp4301
(idelphi
DelphiCaseSelector
p4302
(dp4303
g2021
(i__main__
DelphiAssignStatement
p4304
(dp4305
g776
Nsg799
(i__main__
DelphiIdentAccess
p4306
(dp4307
g779
S'stream'
p4308
sg781
(lp4309
(idelphi
DelphiFieldEndAccess
p4310
(dp4311
g785
g2548
sba(idelphi
DelphiFunctionEndAccess
p4312
(dp4313
g789
(lp4314
(i__main__
DelphiIdentAccess
p4315
(dp4316
g779
S'bytes'
p4317
sg781
(lp4318
sba(i__main__
DelphiIdentAccess
p4319
(dp4320
g779
S'size'
p4321
sg781
(lp4322
sbasbasbsbsg2562
(lp4323
(i__main__
DelphiIdentAccess
p4324
(dp4325
g779
S'filerModeReading'
p4326
sg781
(lp4327
sbasba(idelphi
DelphiCaseSelector
p4328
(dp4329
g2021
(i__main__
DelphiAssignStatement
p4330
(dp4331
g776
Nsg799
(i__main__
DelphiIdentAccess
p4332
(dp4333
g779
S'stream'
p4334
sg781
(lp4335
(idelphi
DelphiFieldEndAccess
p4336
(dp4337
g785
g2578
sba(idelphi
DelphiFunctionEndAccess
p4338
(dp4339
g789
(lp4340
(i__main__
DelphiIdentAccess
p4341
(dp4342
g779
S'bytes'
p4343
sg781
(lp4344
sba(i__main__
DelphiIdentAccess
p4345
(dp4346
g779
S'size'
p4347
sg781
(lp4348
sbasbasbsbsg2562
(lp4349
(i__main__
DelphiIdentAccess
p4350
(dp4351
g779
S'filerModeWriting'
p4352
sg781
(lp4353
sbasba(idelphi
DelphiCaseSelector
p4354
(dp4355
g2021
(i__main__
DelphiAssignStatement
p4356
(dp4357
g776
(idelphi
DelphiAddOp
p4358
(dp4359
g1600
S'+'
sg1601
(i__main__
DelphiIdentAccess
p4360
(dp4361
g779
S'size'
p4362
sg781
(lp4363
sbsg1604
(i__main__
DelphiIdentAccess
p4364
(dp4365
g779
S'bytesStreamed'
p4366
sg781
(lp4367
sbsbsg799
(i__main__
DelphiIdentAccess
p4368
(dp4369
g779
S'bytesStreamed'
p4370
sg781
(lp4371
sbsbsg2562
(lp4372
(i__main__
DelphiIdentAccess
p4373
(dp4374
g779
S'filerModeCounting'
p4375
sg781
(lp4376
sbasbasbasbsg877
(lp4377
sbsg17
g541
sbsS'streamdouble'
p4378
(i__main__
DelphiMethodImplementation
p4379
(dp4380
g739
g545
sg27
g547
sg68
(lp4381
(i__main__
DelphiFormalParameter
p4382
(dp4383
g72
Nsg45
(lp4384
S'aDouble'
p4385
asg75
(i__main__
DelphiPrimitiveType
p4386
(dp4387
g34
g555
sbsg79
g108
sbasg754
(lp4388
I0
asg756
(lp4389
sg758
(lp4390
g760
ag4385
asg761
(dp4391
g4385
g4386
ssg89
S'PdFiler'
p4392
sg90
Nsg764
(lp4393
g4385
asg91
I0
sg92
g93
sg766
(i__main__
DelphiBlock
p4394
(dp4395
g769
(idelphi
DelphiCompoundStatement
p4396
(dp4397
g772
(lp4398
(i__main__
DelphiAssignStatement
p4399
(dp4400
g776
Nsg799
(i__main__
DelphiIdentAccess
p4401
(dp4402
g779
S'self'
p4403
sg781
(lp4404
(idelphi
DelphiFieldEndAccess
p4405
(dp4406
g785
S'streamBytes'
p4407
sba(idelphi
DelphiFunctionEndAccess
p4408
(dp4409
g789
(lp4410
(i__main__
DelphiIdentAccess
p4411
(dp4412
g779
S'aDouble'
p4413
sg781
(lp4414
sba(idelphi
DelphiSizeof
p4415
(dp4416
g886
(idelphi
ConstValueTypecastOrJustTypeForSizeOf
p4417
(dp4418
g886
Nsg1031
(i__main__
DelphiPrimitiveType
p4419
(dp4420
g34
g555
sbsbsbasbasbsbasbsg877
(lp4421
sbsbsS'streamcolorref'
p4422
(i__main__
DelphiMethodImplementation
p4423
(dp4424
g739
g557
sg27
g559
sg68
(lp4425
(i__main__
DelphiFormalParameter
p4426
(dp4427
g72
Nsg45
(lp4428
S'aColorRef'
p4429
asg75
(i__main__
DelphiNamedType
p4430
(dp4431
g34
S'TColorRef'
p4432
sg87
g1
sg88
Nsbsg79
g108
sbasg754
(lp4433
sg756
(lp4434
g4429
asg758
(lp4435
g760
ag4429
asg761
(dp4436
g4429
g4430
ssg89
S'PdFiler'
p4437
sg90
Nsg764
(lp4438
sg91
I0
sg92
g93
sg766
(i__main__
DelphiBlock
p4439
(dp4440
g769
(idelphi
DelphiCompoundStatement
p4441
(dp4442
g772
(lp4443
(i__main__
DelphiAssignStatement
p4444
(dp4445
g776
Nsg799
(i__main__
DelphiIdentAccess
p4446
(dp4447
g779
S'self'
p4448
sg781
(lp4449
(idelphi
DelphiFieldEndAccess
p4450
(dp4451
g785
S'streamBytes'
p4452
sba(idelphi
DelphiFunctionEndAccess
p4453
(dp4454
g789
(lp4455
(i__main__
DelphiIdentAccess
p4456
(dp4457
g779
S'aColorRef'
p4458
sg781
(lp4459
sba(idelphi
DelphiSizeof
p4460
(dp4461
g886
(i__main__
DelphiIdentAccess
p4462
(dp4463
g779
S'TColorRef'
p4464
sg781
(lp4465
sbsbasbasbsbasbsg877
(lp4466
sbsbsS'streamicon'
p4467
(i__main__
DelphiMethodImplementation
p4468
(dp4469
g739
g569
sg27
g571
sg68
(lp4470
(i__main__
DelphiFormalParameter
p4471
(dp4472
g72
Nsg45
(lp4473
S'anIcon'
p4474
asg75
(i__main__
DelphiNamedType
p4475
(dp4476
g34
S'TIcon'
p4477
sg87
g1
sg88
Nsbsg79
Nsbasg754
(lp4478
sg756
(lp4479
sg758
(lp4480
g760
ag4474
asg761
(dp4481
g4474
g4475
ssg89
S'PdFiler'
p4482
sg90
Nsg764
(lp4483
sg91
I0
sg92
g93
sg766
(i__main__
DelphiBlock
p4484
(dp4485
g769
(idelphi
DelphiCompoundStatement
p4486
(dp4487
g772
(lp4488
(i__main__
DelphiAssignStatement
p4489
(dp4490
g776
(i__main__
DelphiIdentAccess
p4491
(dp4492
g779
S'TMemoryStream'
p4493
sg781
(lp4494
(idelphi
DelphiFieldEndAccess
p4495
(dp4496
g785
S'create'
p4497
sbasbsg799
(i__main__
DelphiIdentAccess
p4498
(dp4499
g779
S'memoryStream'
p4500
sg781
(lp4501
sbsba(idelphi
DelphiIfStatement
p4502
(dp4503
g1059
(i__main__
DelphiIdentAccess
p4504
(dp4505
g779
S'self'
p4506
sg781
(lp4507
(idelphi
DelphiFieldEndAccess
p4508
(dp4509
g785
S'isReading'
p4510
sbasbsg1067
(idelphi
DelphiIfStatement
p4511
(dp4512
g1059
(i__main__
DelphiIdentAccess
p4513
(dp4514
g779
S'self'
p4515
sg781
(lp4516
(idelphi
DelphiFieldEndAccess
p4517
(dp4518
g785
S'isWriting'
p4519
sbasbsg1067
Nsg1123
(idelphi
DelphiCompoundStatement
p4520
(dp4521
g772
(lp4522
(i__main__
DelphiAssignStatement
p4523
(dp4524
g776
Nsg799
(i__main__
DelphiIdentAccess
p4525
(dp4526
g779
S'anIcon'
p4527
sg781
(lp4528
(idelphi
DelphiFieldEndAccess
p4529
(dp4530
g785
S'SaveToStream'
p4531
sba(idelphi
DelphiFunctionEndAccess
p4532
(dp4533
g789
(lp4534
(i__main__
DelphiIdentAccess
p4535
(dp4536
g779
S'memoryStream'
p4537
sg781
(lp4538
sbasbasbsba(i__main__
DelphiAssignStatement
p4539
(dp4540
g776
(idelphi
DelphiIntegerValue
p4541
(dp4542
g78
S'0'
sbsg799
(i__main__
DelphiIdentAccess
p4543
(dp4544
g779
S'memoryStream'
p4545
sg781
(lp4546
(idelphi
DelphiFieldEndAccess
p4547
(dp4548
g785
S'position'
p4549
sbasbsba(i__main__
DelphiAssignStatement
p4550
(dp4551
g776
(i__main__
DelphiIdentAccess
p4552
(dp4553
g779
S'memoryStream'
p4554
sg781
(lp4555
(idelphi
DelphiFieldEndAccess
p4556
(dp4557
g785
S'size'
p4558
sbasbsg799
(i__main__
DelphiIdentAccess
p4559
(dp4560
g779
S'iconSize'
p4561
sg781
(lp4562
sbsba(i__main__
DelphiAssignStatement
p4563
(dp4564
g776
Nsg799
(i__main__
DelphiIdentAccess
p4565
(dp4566
g779
S'self'
p4567
sg781
(lp4568
(idelphi
DelphiFieldEndAccess
p4569
(dp4570
g785
S'streamLongint'
p4571
sba(idelphi
DelphiFunctionEndAccess
p4572
(dp4573
g789
(lp4574
(i__main__
DelphiIdentAccess
p4575
(dp4576
g779
S'iconSize'
p4577
sg781
(lp4578
sbasbasbsba(i__main__
DelphiAssignStatement
p4579
(dp4580
g776
Nsg799
(i__main__
DelphiIdentAccess
p4581
(dp4582
g779
S'stream'
p4583
sg781
(lp4584
(idelphi
DelphiFieldEndAccess
p4585
(dp4586
g785
S'copyFrom'
p4587
sba(idelphi
DelphiFunctionEndAccess
p4588
(dp4589
g789
(lp4590
(i__main__
DelphiIdentAccess
p4591
(dp4592
g779
S'memoryStream'
p4593
sg781
(lp4594
sba(i__main__
DelphiIdentAccess
p4595
(dp4596
g779
S'iconSize'
p4597
sg781
(lp4598
sbasbasbsg17
(lp4599
S'put memory stream in other stream'
p4600
asbasbsbsg1123
(idelphi
DelphiCompoundStatement
p4601
(dp4602
g772
(lp4603
(i__main__
DelphiAssignStatement
p4604
(dp4605
g776
Nsg799
(i__main__
DelphiIdentAccess
p4606
(dp4607
g779
S'self'
p4608
sg781
(lp4609
(idelphi
DelphiFieldEndAccess
p4610
(dp4611
g785
S'streamLongint'
p4612
sba(idelphi
DelphiFunctionEndAccess
p4613
(dp4614
g789
(lp4615
(i__main__
DelphiIdentAccess
p4616
(dp4617
g779
S'iconSize'
p4618
sg781
(lp4619
sbasbasbsba(i__main__
DelphiAssignStatement
p4620
(dp4621
g776
Nsg799
(i__main__
DelphiIdentAccess
p4622
(dp4623
g779
S'memoryStream'
p4624
sg781
(lp4625
(idelphi
DelphiFieldEndAccess
p4626
(dp4627
g785
S'copyFrom'
p4628
sba(idelphi
DelphiFunctionEndAccess
p4629
(dp4630
g789
(lp4631
(i__main__
DelphiIdentAccess
p4632
(dp4633
g779
S'stream'
p4634
sg781
(lp4635
sba(i__main__
DelphiIdentAccess
p4636
(dp4637
g779
S'iconSize'
p4638
sg781
(lp4639
sbasbasbsg17
(lp4640
S'put icon in memory stream'
p4641
asba(i__main__
DelphiAssignStatement
p4642
(dp4643
g776
(idelphi
DelphiIntegerValue
p4644
(dp4645
g78
S'0'
sbsg799
(i__main__
DelphiIdentAccess
p4646
(dp4647
g779
S'memoryStream'
p4648
sg781
(lp4649
(idelphi
DelphiFieldEndAccess
p4650
(dp4651
g785
S'position'
p4652
sbasbsba(i__main__
DelphiAssignStatement
p4653
(dp4654
g776
Nsg799
(i__main__
DelphiIdentAccess
p4655
(dp4656
g779
S'anIcon'
p4657
sg781
(lp4658
(idelphi
DelphiFieldEndAccess
p4659
(dp4660
g785
S'loadFromStream'
p4661
sba(idelphi
DelphiFunctionEndAccess
p4662
(dp4663
g789
(lp4664
(i__main__
DelphiIdentAccess
p4665
(dp4666
g779
S'memoryStream'
p4667
sg781
(lp4668
sbasbasbsbasbsba(i__main__
DelphiAssignStatement
p4669
(dp4670
g776
Nsg799
(i__main__
DelphiIdentAccess
p4671
(dp4672
g779
S'memoryStream'
p4673
sg781
(lp4674
(idelphi
DelphiFieldEndAccess
p4675
(dp4676
g785
S'free'
p4677
sbasbsbasbsg877
(lp4678
(i__main__
DelphiVarSection
p4679
(dp4680
g881
I0
sg882
(lp4681
(idelphi
DelphiVarDecl
p4682
(dp4683
g886
Nsg887
(lp4684
S'memoryStream'
p4685
asg75
(i__main__
DelphiNamedType
p4686
(dp4687
g34
S'TMemoryStream'
p4688
sg87
g1
sg88
Nsbsba(idelphi
DelphiVarDecl
p4689
(dp4690
g886
Nsg887
(lp4691
S'iconSize'
p4692
asg75
(i__main__
DelphiPrimitiveType
p4693
(dp4694
g34
g298
sbsbasbasbsg17
(lp4695
S'uses memory stream which is somewhat inefficient because\r'
p4696
aS'of the double copying and memory allocation.\r'
p4697
aS'TIcon cannot be written mre easily because of\r'
p4698
aS'private fields which would need to be accessed for size and data.\r'
p4699
aS'Unfortunately TIcon only provides ways to read and write assuming\r'
p4700
aS'the whole stream is made of the icon'
p4701
aS'copy from is also inefficient because it allocates a buffer -\r'
p4702
aS'probably could copy more directly from one stream to another\r'
p4703
aS'since one is a memory stream and is already in memory'
p4704
asbsS'settocountingmode'
p4705
(i__main__
DelphiMethodImplementation
p4706
(dp4707
g739
g581
sg27
g583
sg68
(lp4708
sg754
(lp4709
sg756
(lp4710
sg758
(lp4711
g760
asg761
(dp4712
sg89
S'PdFiler'
p4713
sg90
Nsg764
(lp4714
sg91
I0
sg92
g93
sg766
(i__main__
DelphiBlock
p4715
(dp4716
g769
(idelphi
DelphiCompoundStatement
p4717
(dp4718
g772
(lp4719
(i__main__
DelphiAssignStatement
p4720
(dp4721
g776
(i__main__
DelphiIdentAccess
p4722
(dp4723
g779
S'filerModeCounting'
p4724
sg781
(lp4725
sbsg799
(i__main__
DelphiIdentAccess
p4726
(dp4727
g779
S'mode'
p4728
sg781
(lp4729
sbsba(i__main__
DelphiAssignStatement
p4730
(dp4731
g776
(idelphi
DelphiIntegerValue
p4732
(dp4733
g78
S'0'
sbsg799
(i__main__
DelphiIdentAccess
p4734
(dp4735
g779
S'bytesStreamed'
p4736
sg781
(lp4737
sbsbasbsg877
(lp4738
sbsbsS'streamword'
p4739
(i__main__
DelphiMethodImplementation
p4740
(dp4741
g739
g586
sg27
g588
sg68
(lp4742
(i__main__
DelphiFormalParameter
p4743
(dp4744
g72
Nsg45
(lp4745
S'aWord'
p4746
asg75
(i__main__
DelphiPrimitiveType
p4747
(dp4748
g34
g596
sbsg79
g108
sbasg754
(lp4749
I0
asg756
(lp4750
sg758
(lp4751
g760
ag4746
asg761
(dp4752
g4746
g4747
ssg89
S'PdFiler'
p4753
sg90
Nsg764
(lp4754
g4746
asg91
I0
sg92
g93
sg766
(i__main__
DelphiBlock
p4755
(dp4756
g769
(idelphi
DelphiCompoundStatement
p4757
(dp4758
g772
(lp4759
(i__main__
DelphiAssignStatement
p4760
(dp4761
g776
Nsg799
(i__main__
DelphiIdentAccess
p4762
(dp4763
g779
S'self'
p4764
sg781
(lp4765
(idelphi
DelphiFieldEndAccess
p4766
(dp4767
g785
S'streamBytes'
p4768
sba(idelphi
DelphiFunctionEndAccess
p4769
(dp4770
g789
(lp4771
(i__main__
DelphiIdentAccess
p4772
(dp4773
g779
S'aWord'
p4774
sg781
(lp4775
sba(idelphi
DelphiSizeof
p4776
(dp4777
g886
(idelphi
ConstValueTypecastOrJustTypeForSizeOf
p4778
(dp4779
g886
Nsg1031
(i__main__
DelphiPrimitiveType
p4780
(dp4781
g34
g596
sbsbsbasbasbsbasbsg877
(lp4782
sbsbsS'streampchar'
p4783
(i__main__
DelphiMethodImplementation
p4784
(dp4785
g739
g598
sg27
g600
sg68
(lp4786
(i__main__
DelphiFormalParameter
p4787
(dp4788
g72
Nsg45
(lp4789
S'aPChar'
p4790
asg75
(i__main__
DelphiPrimitiveType
p4791
(dp4792
g34
g608
sbsg79
g108
sbasg754
(lp4793
I0
asg756
(lp4794
sg758
(lp4795
g760
ag4790
asg761
(dp4796
g4790
g4791
ssg89
S'PdFiler'
p4797
sg90
Nsg764
(lp4798
g4790
asg91
I0
sg92
g93
sg766
(i__main__
DelphiBlock
p4799
(dp4800
g769
(idelphi
DelphiCompoundStatement
p4801
(dp4802
g772
(lp4803
(idelphi
DelphiCaseStatement
p4804
(dp4805
g2531
Nsg1059
(i__main__
DelphiIdentAccess
p4806
(dp4807
g779
S'mode'
p4808
sg781
(lp4809
sbsg2536
(lp4810
(idelphi
DelphiCaseSelector
p4811
(dp4812
g2021
(idelphi
DelphiCompoundStatement
p4813
(dp4814
g772
(lp4815
(idelphi
DelphiIfStatement
p4816
(dp4817
g1059
(idelphi
DelphiRelOp
p4818
(dp4819
g1266
(i__main__
DelphiIdentAccess
p4820
(dp4821
g779
S'aPChar'
p4822
sg781
(lp4823
sbsg1271
(idelphi
DelphiNilValue
p4824
(dp4825
bsg1274
g2092
sbsg1067
Nsg1123
(idelphi
DelphiCompoundStatement
p4826
(dp4827
g772
(lp4828
(i__main__
DelphiAssignStatement
p4829
(dp4830
g776
Nsg799
(i__main__
DelphiIdentAccess
p4831
(dp4832
g779
S'StrDispose'
p4833
sg781
(lp4834
(idelphi
DelphiFunctionEndAccess
p4835
(dp4836
g789
(lp4837
(i__main__
DelphiIdentAccess
p4838
(dp4839
g779
S'aPChar'
p4840
sg781
(lp4841
sbasbasbsba(i__main__
DelphiAssignStatement
p4842
(dp4843
g776
(idelphi
DelphiNilValue
p4844
(dp4845
bsg799
(i__main__
DelphiIdentAccess
p4846
(dp4847
g779
S'aPChar'
p4848
sg781
(lp4849
sbsbasbsba(i__main__
DelphiAssignStatement
p4850
(dp4851
g776
Nsg799
(i__main__
DelphiIdentAccess
p4852
(dp4853
g779
S'self'
p4854
sg781
(lp4855
(idelphi
DelphiFieldEndAccess
p4856
(dp4857
g785
S'streamBytes'
p4858
sba(idelphi
DelphiFunctionEndAccess
p4859
(dp4860
g789
(lp4861
(i__main__
DelphiIdentAccess
p4862
(dp4863
g779
S'stringLength'
p4864
sg781
(lp4865
sba(idelphi
DelphiSizeof
p4866
(dp4867
g886
(idelphi
ConstValueTypecastOrJustTypeForSizeOf
p4868
(dp4869
g886
Nsg1031
(i__main__
DelphiPrimitiveType
p4870
(dp4871
g34
g298
sbsbsbasbasbsba(idelphi
DelphiIfStatement
p4872
(dp4873
g1059
(idelphi
DelphiRelOp
p4874
(dp4875
g1266
(i__main__
DelphiIdentAccess
p4876
(dp4877
g779
S'stringLength'
p4878
sg781
(lp4879
sbsg1271
(idelphi
DelphiIntegerValue
p4880
(dp4881
g78
S'0'
sbsg1274
S'>'
sbsg1067
Nsg1123
(idelphi
DelphiCompoundStatement
p4882
(dp4883
g772
(lp4884
(i__main__
DelphiAssignStatement
p4885
(dp4886
g776
(i__main__
DelphiIdentAccess
p4887
(dp4888
g779
S'StrAlloc'
p4889
sg781
(lp4890
(idelphi
DelphiFunctionEndAccess
p4891
(dp4892
g789
(lp4893
(i__main__
DelphiIdentAccess
p4894
(dp4895
g779
S'stringLength'
p4896
sg781
(lp4897
sbasbasbsg799
(i__main__
DelphiIdentAccess
p4898
(dp4899
g779
S'aPChar'
p4900
sg781
(lp4901
sbsba(idelphi
DelphiIfStatement
p4902
(dp4903
g1059
(idelphi
DelphiRelOp
p4904
(dp4905
g1266
(i__main__
DelphiIdentAccess
p4906
(dp4907
g779
S'aPChar'
p4908
sg781
(lp4909
sbsg1271
(idelphi
DelphiNilValue
p4910
(dp4911
bsg1274
S'='
sbsg1067
Nsg1123
(idelphi
DelphiRaiseStatement
p4912
(dp4913
g1059
(i__main__
DelphiIdentAccess
p4914
(dp4915
g779
S'Exception'
p4916
sg781
(lp4917
(idelphi
DelphiFieldEndAccess
p4918
(dp4919
g785
S'create'
p4920
sba(idelphi
DelphiFunctionEndAccess
p4921
(dp4922
g789
(lp4923
(idelphi
DelphiStringAccess
p4924
(dp4925
g781
(lp4926
sg78
(idelphi
DelphiStringValue
p4927
(dp4928
g78
S'Problem: Out of memory.'
p4929
sbsbasbasbsbsba(i__main__
DelphiAssignStatement
p4930
(dp4931
g776
Nsg799
(i__main__
DelphiIdentAccess
p4932
(dp4933
g779
S'self'
p4934
sg781
(lp4935
(idelphi
DelphiFieldEndAccess
p4936
(dp4937
g785
S'streamBytes'
p4938
sba(idelphi
DelphiFunctionEndAccess
p4939
(dp4940
g789
(lp4941
(i__main__
DelphiIdentAccess
p4942
(dp4943
g779
S'aPChar'
p4944
sg781
(lp4945
(idelphi
DelphiPointerEndAccess
p4946
(dp4947
basba(i__main__
DelphiIdentAccess
p4948
(dp4949
g779
S'stringLength'
p4950
sg781
(lp4951
sbasbasbsbasbsbasbsg2562
(lp4952
(i__main__
DelphiIdentAccess
p4953
(dp4954
g779
S'filerModeReading'
p4955
sg781
(lp4956
sbasba(idelphi
DelphiCaseSelector
p4957
(dp4958
g2021
(idelphi
DelphiCompoundStatement
p4959
(dp4960
g772
(lp4961
(idelphi
DelphiIfStatement
p4962
(dp4963
g1059
(idelphi
DelphiRelOp
p4964
(dp4965
g1266
(i__main__
DelphiIdentAccess
p4966
(dp4967
g779
S'aPChar'
p4968
sg781
(lp4969
sbsg1271
(idelphi
DelphiNilValue
p4970
(dp4971
bsg1274
S'='
sbsg1067
(i__main__
DelphiAssignStatement
p4972
(dp4973
g776
(idelphi
DelphiAddOp
p4974
(dp4975
g1600
S'+'
sg1601
(idelphi
DelphiIntegerValue
p4976
(dp4977
g78
S'1'
sbsg1604
(i__main__
DelphiIdentAccess
p4978
(dp4979
g779
S'StrLen'
p4980
sg781
(lp4981
(idelphi
DelphiFunctionEndAccess
p4982
(dp4983
g789
(lp4984
(i__main__
DelphiIdentAccess
p4985
(dp4986
g779
S'aPChar'
p4987
sg781
(lp4988
sbasbasbsbsg799
(i__main__
DelphiIdentAccess
p4989
(dp4990
g779
S'stringLength'
p4991
sg781
(lp4992
sbsbsg1123
(i__main__
DelphiAssignStatement
p4993
(dp4994
g776
(idelphi
DelphiIntegerValue
p4995
(dp4996
g78
S'0'
sbsg799
(i__main__
DelphiIdentAccess
p4997
(dp4998
g779
S'stringLength'
p4999
sg781
(lp5000
sbsbsba(i__main__
DelphiAssignStatement
p5001
(dp5002
g776
Nsg799
(i__main__
DelphiIdentAccess
p5003
(dp5004
g779
S'self'
p5005
sg781
(lp5006
(idelphi
DelphiFieldEndAccess
p5007
(dp5008
g785
S'streamBytes'
p5009
sba(idelphi
DelphiFunctionEndAccess
p5010
(dp5011
g789
(lp5012
(i__main__
DelphiIdentAccess
p5013
(dp5014
g779
S'stringLength'
p5015
sg781
(lp5016
sba(idelphi
DelphiSizeof
p5017
(dp5018
g886
(idelphi
ConstValueTypecastOrJustTypeForSizeOf
p5019
(dp5020
g886
Nsg1031
(i__main__
DelphiPrimitiveType
p5021
(dp5022
g34
g298
sbsbsbasbasbsba(idelphi
DelphiIfStatement
p5023
(dp5024
g1059
(idelphi
DelphiRelOp
p5025
(dp5026
g1266
(i__main__
DelphiIdentAccess
p5027
(dp5028
g779
S'stringLength'
p5029
sg781
(lp5030
sbsg1271
(idelphi
DelphiIntegerValue
p5031
(dp5032
g78
S'0'
sbsg1274
S'>'
sbsg1067
Nsg1123
(i__main__
DelphiAssignStatement
p5033
(dp5034
g776
Nsg799
(i__main__
DelphiIdentAccess
p5035
(dp5036
g779
S'self'
p5037
sg781
(lp5038
(idelphi
DelphiFieldEndAccess
p5039
(dp5040
g785
S'streamBytes'
p5041
sba(idelphi
DelphiFunctionEndAccess
p5042
(dp5043
g789
(lp5044
(i__main__
DelphiIdentAccess
p5045
(dp5046
g779
S'aPChar'
p5047
sg781
(lp5048
(idelphi
DelphiPointerEndAccess
p5049
(dp5050
basba(i__main__
DelphiIdentAccess
p5051
(dp5052
g779
S'stringLength'
p5053
sg781
(lp5054
sbasbasbsbsbasbsg2562
(lp5055
(i__main__
DelphiIdentAccess
p5056
(dp5057
g779
S'filerModeWriting'
p5058
sg781
(lp5059
sbasba(idelphi
DelphiCaseSelector
p5060
(dp5061
g2021
(i__main__
DelphiAssignStatement
p5062
(dp5063
g776
(idelphi
DelphiAddOp
p5064
(dp5065
g1600
S'+'
sg1601
(idelphi
DelphiIntegerValue
p5066
(dp5067
g78
S'1'
sbsg1604
(idelphi
DelphiAddOp
p5068
(dp5069
g1600
S'+'
sg1601
(i__main__
DelphiIdentAccess
p5070
(dp5071
g779
S'StrLen'
p5072
sg781
(lp5073
(idelphi
DelphiFunctionEndAccess
p5074
(dp5075
g789
(lp5076
(i__main__
DelphiIdentAccess
p5077
(dp5078
g779
S'aPChar'
p5079
sg781
(lp5080
sbasbasbsg1604
(idelphi
DelphiAddOp
p5081
(dp5082
g1600
S'+'
sg1601
(idelphi
DelphiSizeof
p5083
(dp5084
g886
(idelphi
ConstValueTypecastOrJustTypeForSizeOf
p5085
(dp5086
g886
Nsg1031
(i__main__
DelphiPrimitiveType
p5087
(dp5088
g34
g298
sbsbsbsg1604
(i__main__
DelphiIdentAccess
p5089
(dp5090
g779
S'bytesStreamed'
p5091
sg781
(lp5092
sbsbsbsbsg799
(i__main__
DelphiIdentAccess
p5093
(dp5094
g779
S'bytesStreamed'
p5095
sg781
(lp5096
sbsbsg2562
(lp5097
(i__main__
DelphiIdentAccess
p5098
(dp5099
g779
S'filerModeCounting'
p5100
sg781
(lp5101
sbasbasbasbsg877
(lp5102
(i__main__
DelphiVarSection
p5103
(dp5104
g881
I0
sg882
(lp5105
(idelphi
DelphiVarDecl
p5106
(dp5107
g886
Nsg887
(lp5108
S'stringLength'
p5109
asg75
(i__main__
DelphiPrimitiveType
p5110
(dp5111
g34
g298
sbsbasbasbsg17
(lp5112
S'maybe problem in 32 bits - depends how big a string string alloc can return'
p5113
aS'need to stream "aPChar^" not just "aPChar".  The first is the array,\r'
p5114
aS'the second is just the space occupied by the pointer - and is a bug'
p5115
asbsS'streamlongint'
p5116
(i__main__
DelphiMethodImplementation
p5117
(dp5118
g739
g610
sg27
g612
sg68
(lp5119
(i__main__
DelphiFormalParameter
p5120
(dp5121
g72
Nsg45
(lp5122
S'aLongint'
p5123
asg75
(i__main__
DelphiPrimitiveType
p5124
(dp5125
g34
g298
sbsg79
g108
sbasg754
(lp5126
I0
asg756
(lp5127
sg758
(lp5128
g760
ag5123
asg761
(dp5129
g5123
g5124
ssg89
S'PdFiler'
p5130
sg90
Nsg764
(lp5131
g5123
asg91
I0
sg92
g93
sg766
(i__main__
DelphiBlock
p5132
(dp5133
g769
(idelphi
DelphiCompoundStatement
p5134
(dp5135
g772
(lp5136
(i__main__
DelphiAssignStatement
p5137
(dp5138
g776
Nsg799
(i__main__
DelphiIdentAccess
p5139
(dp5140
g779
S'self'
p5141
sg781
(lp5142
(idelphi
DelphiFieldEndAccess
p5143
(dp5144
g785
S'streamBytes'
p5145
sba(idelphi
DelphiFunctionEndAccess
p5146
(dp5147
g789
(lp5148
(i__main__
DelphiIdentAccess
p5149
(dp5150
g779
S'aLongint'
p5151
sg781
(lp5152
sba(idelphi
DelphiSizeof
p5153
(dp5154
g886
(idelphi
ConstValueTypecastOrJustTypeForSizeOf
p5155
(dp5156
g886
Nsg1031
(i__main__
DelphiPrimitiveType
p5157
(dp5158
g34
g298
sbsbsbasbasbsbasbsg877
(lp5159
sbsbsS'streambigrect'
p5160
(i__main__
DelphiMethodImplementation
p5161
(dp5162
g739
g621
sg27
g623
sg68
(lp5163
(i__main__
DelphiFormalParameter
p5164
(dp5165
g72
Nsg45
(lp5166
S'aRect'
p5167
asg75
(i__main__
DelphiNamedType
p5168
(dp5169
g34
S'TRect'
p5170
sg87
g1
sg88
Nsbsg79
g108
sbasg754
(lp5171
sg756
(lp5172
g5167
asg758
(lp5173
g760
ag5167
asg761
(dp5174
g5167
g5168
ssg89
S'PdFiler'
p5175
sg90
Nsg764
(lp5176
sg91
I0
sg92
g93
sg766
(i__main__
DelphiBlock
p5177
(dp5178
g769
(idelphi
DelphiCompoundStatement
p5179
(dp5180
g772
(lp5181
(i__main__
DelphiAssignStatement
p5182
(dp5183
g776
Nsg799
(i__main__
DelphiIdentAccess
p5184
(dp5185
g779
S'self'
p5186
sg781
(lp5187
(idelphi
DelphiFieldEndAccess
p5188
(dp5189
g785
S'streamBytes'
p5190
sba(idelphi
DelphiFunctionEndAccess
p5191
(dp5192
g789
(lp5193
(i__main__
DelphiIdentAccess
p5194
(dp5195
g779
S'aRect'
p5196
sg781
(lp5197
sba(idelphi
DelphiSizeof
p5198
(dp5199
g886
(i__main__
DelphiIdentAccess
p5200
(dp5201
g779
S'TRect'
p5202
sg781
(lp5203
sbsbasbasbsbasbsg877
(lp5204
sbsg17
(lp5205
S'streams 32 bit locations'
p5206
asbsS'streamcursor'
p5207
(i__main__
DelphiMethodImplementation
p5208
(dp5209
g739
g633
sg27
g635
sg68
(lp5210
(i__main__
DelphiFormalParameter
p5211
(dp5212
g72
Nsg45
(lp5213
S'aCursor'
p5214
asg75
(i__main__
DelphiNamedType
p5215
(dp5216
g34
S'TCursor'
p5217
sg87
g1
sg88
Nsbsg79
g108
sbasg754
(lp5218
sg756
(lp5219
g5214
asg758
(lp5220
g760
ag5214
asg761
(dp5221
g5214
g5215
ssg89
S'PdFiler'
p5222
sg90
Nsg764
(lp5223
sg91
I0
sg92
g93
sg766
(i__main__
DelphiBlock
p5224
(dp5225
g769
(idelphi
DelphiCompoundStatement
p5226
(dp5227
g772
(lp5228
(i__main__
DelphiAssignStatement
p5229
(dp5230
g776
Nsg799
(i__main__
DelphiIdentAccess
p5231
(dp5232
g779
S'self'
p5233
sg781
(lp5234
(idelphi
DelphiFieldEndAccess
p5235
(dp5236
g785
S'streamBytes'
p5237
sba(idelphi
DelphiFunctionEndAccess
p5238
(dp5239
g789
(lp5240
(i__main__
DelphiIdentAccess
p5241
(dp5242
g779
S'aCursor'
p5243
sg781
(lp5244
sba(idelphi
DelphiSizeof
p5245
(dp5246
g886
(i__main__
DelphiIdentAccess
p5247
(dp5248
g779
S'TCursor'
p5249
sg781
(lp5250
sbsbasbasbsbasbsg877
(lp5251
sbsbsS'streamnilobject'
p5252
(i__main__
DelphiMethodImplementation
p5253
(dp5254
g739
g645
sg27
g647
sg68
(lp5255
sg754
(lp5256
sg756
(lp5257
sg758
(lp5258
g760
asg761
(dp5259
sg89
S'PdFiler'
p5260
sg90
Nsg764
(lp5261
sg91
I0
sg92
g93
sg766
(i__main__
DelphiBlock
p5262
(dp5263
g769
(idelphi
DelphiCompoundStatement
p5264
(dp5265
g772
(lp5266
(i__main__
DelphiAssignStatement
p5267
(dp5268
g776
(i__main__
DelphiIdentAccess
p5269
(dp5270
g779
S'KTNil'
p5271
sg781
(lp5272
sbsg799
(i__main__
DelphiIdentAccess
p5273
(dp5274
g779
S'cvir'
p5275
sg781
(lp5276
(idelphi
DelphiFieldEndAccess
p5277
(dp5278
g785
S'classNumber'
p5279
sbasbsba(i__main__
DelphiAssignStatement
p5280
(dp5281
g776
(idelphi
DelphiIntegerValue
p5282
(dp5283
g78
S'0'
sbsg799
(i__main__
DelphiIdentAccess
p5284
(dp5285
g779
S'cvir'
p5286
sg781
(lp5287
(idelphi
DelphiFieldEndAccess
p5288
(dp5289
g785
S'versionNumber'
p5290
sbasbsba(i__main__
DelphiAssignStatement
p5291
(dp5292
g776
Nsg799
(i__main__
DelphiIdentAccess
p5293
(dp5294
g779
S'self'
p5295
sg781
(lp5296
(idelphi
DelphiFieldEndAccess
p5297
(dp5298
g785
S'streamClassAndVersionInformation'
p5299
sba(idelphi
DelphiFunctionEndAccess
p5300
(dp5301
g789
(lp5302
(i__main__
DelphiIdentAccess
p5303
(dp5304
g779
S'cvir'
p5305
sg781
(lp5306
sbasbasbsbasbsg877
(lp5307
(i__main__
DelphiVarSection
p5308
(dp5309
g881
I0
sg882
(lp5310
(idelphi
DelphiVarDecl
p5311
(dp5312
g886
Nsg887
(lp5313
S'cvir'
p5314
asg75
(i__main__
DelphiNamedType
p5315
(dp5316
g34
S'PdClassAndVersionInformationRecord'
p5317
sg87
g1
sg88
NsbsbasbasbsbsS'streamorcreateobject'
p5318
(i__main__
DelphiMethodImplementation
p5319
(dp5320
g739
g650
sg27
g652
sg68
(lp5321
(i__main__
DelphiFormalParameter
p5322
(dp5323
g72
Nsg45
(lp5324
S'anObject'
p5325
asg75
(i__main__
DelphiNamedType
p5326
(dp5327
g34
S'PdStreamableObject'
p5328
sg87
g1
sg88
Nsbsg79
g108
sbasg754
(lp5329
sg756
(lp5330
g5325
asg758
(lp5331
g760
ag5325
asg761
(dp5332
g5325
g5326
ssg89
S'PdFiler'
p5333
sg90
Nsg764
(lp5334
sg91
I0
sg92
g93
sg766
(i__main__
DelphiBlock
p5335
(dp5336
g769
(idelphi
DelphiCompoundStatement
p5337
(dp5338
g772
(lp5339
(idelphi
DelphiIfStatement
p5340
(dp5341
g1059
(idelphi
DelphiMulOp
p5342
(dp5343
g2210
(idelphi
DelphiNestedExpressionListAccess
p5344
(dp5345
g781
(lp5346
sg789
(lp5347
(idelphi
DelphiRelOp
p5348
(dp5349
g1266
(i__main__
DelphiIdentAccess
p5350
(dp5351
g779
S'anObject'
p5352
sg781
(lp5353
sbsg1271
(idelphi
DelphiNilValue
p5354
(dp5355
bsg1274
g2092
sbasbsg2215
S'and'
p5356
sg2217
(idelphi
DelphiNestedExpressionListAccess
p5357
(dp5358
g781
(lp5359
sg789
(lp5360
(i__main__
DelphiIdentAccess
p5361
(dp5362
g779
S'self'
p5363
sg781
(lp5364
(idelphi
DelphiFieldEndAccess
p5365
(dp5366
g785
S'isReading'
p5367
sbasbasbsbsg1067
Nsg1123
(idelphi
DelphiRaiseStatement
p5368
(dp5369
g1059
(i__main__
DelphiIdentAccess
p5370
(dp5371
g779
S'Exception'
p5372
sg781
(lp5373
(idelphi
DelphiFieldEndAccess
p5374
(dp5375
g785
S'create'
p5376
sba(idelphi
DelphiFunctionEndAccess
p5377
(dp5378
g789
(lp5379
(idelphi
DelphiStringAccess
p5380
(dp5381
g781
(lp5382
sg78
(idelphi
DelphiStringValue
p5383
(dp5384
g78
S'Problem: Argument should be nil if reading; in method PdFiler.streamOrCreateObject.'
p5385
sbsbasbasbsbsba(idelphi
DelphiIfStatement
p5386
(dp5387
g1059
(i__main__
DelphiIdentAccess
p5388
(dp5389
g779
S'self'
p5390
sg781
(lp5391
(idelphi
DelphiFieldEndAccess
p5392
(dp5393
g785
S'isWriting'
p5394
sbasbsg1067
(idelphi
DelphiIfStatement
p5395
(dp5396
g1059
(i__main__
DelphiIdentAccess
p5397
(dp5398
g779
S'self'
p5399
sg781
(lp5400
(idelphi
DelphiFieldEndAccess
p5401
(dp5402
g785
S'isReading'
p5403
sbasbsg1067
Nsg1123
(idelphi
DelphiCompoundStatement
p5404
(dp5405
g772
(lp5406
(i__main__
DelphiAssignStatement
p5407
(dp5408
g776
(i__main__
DelphiIdentAccess
p5409
(dp5410
g779
S'self'
p5411
sg781
(lp5412
(idelphi
DelphiFieldEndAccess
p5413
(dp5414
g785
S'getStreamPosition'
p5415
sbasbsg799
(i__main__
DelphiIdentAccess
p5416
(dp5417
g779
S'oldPosition'
p5418
sg781
(lp5419
sbsba(i__main__
DelphiAssignStatement
p5420
(dp5421
g776
Nsg799
(i__main__
DelphiIdentAccess
p5422
(dp5423
g779
S'self'
p5424
sg781
(lp5425
(idelphi
DelphiFieldEndAccess
p5426
(dp5427
g785
S'streamClassAndVersionInformation'
p5428
sba(idelphi
DelphiFunctionEndAccess
p5429
(dp5430
g789
(lp5431
(i__main__
DelphiIdentAccess
p5432
(dp5433
g779
S'cvir'
p5434
sg781
(lp5435
sbasbasbsba(i__main__
DelphiAssignStatement
p5436
(dp5437
g776
(i__main__
DelphiIdentAccess
p5438
(dp5439
g779
S'CreateStreamableObjectFromClassAndVersionInformation'
p5440
sg781
(lp5441
(idelphi
DelphiFunctionEndAccess
p5442
(dp5443
g789
(lp5444
(i__main__
DelphiIdentAccess
p5445
(dp5446
g779
S'cvir'
p5447
sg781
(lp5448
sbasbasbsg799
(i__main__
DelphiIdentAccess
p5449
(dp5450
g779
S'anObject'
p5451
sg781
(lp5452
sbsba(idelphi
DelphiIfStatement
p5453
(dp5454
g1059
(idelphi
DelphiRelOp
p5455
(dp5456
g1266
(i__main__
DelphiIdentAccess
p5457
(dp5458
g779
S'anObject'
p5459
sg781
(lp5460
sbsg1271
(idelphi
DelphiNilValue
p5461
(dp5462
bsg1274
g2092
sbsg1067
Nsg1123
(idelphi
DelphiCompoundStatement
p5463
(dp5464
g772
(lp5465
(i__main__
DelphiAssignStatement
p5466
(dp5467
g776
Nsg799
(i__main__
DelphiIdentAccess
p5468
(dp5469
g779
S'self'
p5470
sg781
(lp5471
(idelphi
DelphiFieldEndAccess
p5472
(dp5473
g785
S'setStreamPosition'
p5474
sba(idelphi
DelphiFunctionEndAccess
p5475
(dp5476
g789
(lp5477
(i__main__
DelphiIdentAccess
p5478
(dp5479
g779
S'oldPosition'
p5480
sg781
(lp5481
sbasbasbsg17
(lp5482
S'reset the stream because object will reread its information'
p5483
asba(i__main__
DelphiAssignStatement
p5484
(dp5485
g776
Nsg799
(i__main__
DelphiIdentAccess
p5486
(dp5487
g779
S'anObject'
p5488
sg781
(lp5489
(idelphi
DelphiFieldEndAccess
p5490
(dp5491
g785
S'streamUsingFiler'
p5492
sba(idelphi
DelphiFunctionEndAccess
p5493
(dp5494
g789
(lp5495
(i__main__
DelphiIdentAccess
p5496
(dp5497
g779
S'self'
p5498
sg781
(lp5499
sbasbasbsbasbsbasbsbsg1123
(idelphi
DelphiCompoundStatement
p5500
(dp5501
g772
(lp5502
(idelphi
DelphiIfStatement
p5503
(dp5504
g1059
(idelphi
DelphiRelOp
p5505
(dp5506
g1266
(i__main__
DelphiIdentAccess
p5507
(dp5508
g779
S'anObject'
p5509
sg781
(lp5510
sbsg1271
(idelphi
DelphiNilValue
p5511
(dp5512
bsg1274
S'='
sbsg1067
(i__main__
DelphiAssignStatement
p5513
(dp5514
g776
Nsg799
(i__main__
DelphiIdentAccess
p5515
(dp5516
g779
S'anObject'
p5517
sg781
(lp5518
(idelphi
DelphiFieldEndAccess
p5519
(dp5520
g785
S'streamUsingFiler'
p5521
sba(idelphi
DelphiFunctionEndAccess
p5522
(dp5523
g789
(lp5524
(i__main__
DelphiIdentAccess
p5525
(dp5526
g779
S'self'
p5527
sg781
(lp5528
sbasbasbsbsg1123
(i__main__
DelphiAssignStatement
p5529
(dp5530
g776
Nsg799
(i__main__
DelphiIdentAccess
p5531
(dp5532
g779
S'self'
p5533
sg781
(lp5534
(idelphi
DelphiFieldEndAccess
p5535
(dp5536
g785
S'streamNilObject'
p5537
sbasbsbsbasbsbasbsg877
(lp5538
(i__main__
DelphiVarSection
p5539
(dp5540
g881
I0
sg882
(lp5541
(idelphi
DelphiVarDecl
p5542
(dp5543
g886
Nsg887
(lp5544
S'cvir'
p5545
asg75
(i__main__
DelphiNamedType
p5546
(dp5547
g34
S'PdClassAndVersionInformationRecord'
p5548
sg87
g1
sg88
Nsbsba(idelphi
DelphiVarDecl
p5549
(dp5550
g886
Nsg887
(lp5551
S'oldPosition'
p5552
asg75
(i__main__
DelphiPrimitiveType
p5553
(dp5554
g34
g298
sbsbasbasbsbssS'propertyDeclarations'
p5555
(dp5556
sg7
(lp5557
g60
ag58
ag56
ag54
asba(i__main__
DelphiClass
p5558
(dp5559
g12
(dp5560
sg27
S'PdStreamableObject'
p5561
sg62
(dp5562
S'streamusingfiler'
p5563
(i__main__
DelphiMethodDeclaration
p5564
(dp5565
g27
S'streamUsingFiler'
p5566
sg68
(lp5567
(i__main__
DelphiFormalParameter
p5568
(dp5569
g72
Nsg45
(lp5570
S'filer'
p5571
asg75
(i__main__
DelphiNamedType
p5572
(dp5573
g34
S'PdFiler'
p5574
sg87
g1
sg88
Nsbsg79
Nsbasg89
g5561
sg90
Nsg91
I0
sg92
g93
sbsS'streamdatawithfiler'
p5575
(i__main__
DelphiMethodDeclaration
p5576
(dp5577
g27
S'streamDataWithFiler'
p5578
sg68
(lp5579
(i__main__
DelphiFormalParameter
p5580
(dp5581
g72
Nsg45
(lp5582
S'filer'
p5583
asg75
(i__main__
DelphiNamedType
p5584
(dp5585
g34
S'PdFiler'
p5586
sg87
g1
sg88
Nsbsg79
Nsba(i__main__
DelphiFormalParameter
p5587
(dp5588
g72
Nsg45
(lp5589
S'cvir'
p5590
asg75
(i__main__
DelphiNamedType
p5591
(dp5592
g34
S'PdClassAndVersionInformationRecord'
p5593
sg87
g1
sg88
Nsbsg79
g204
sbasg89
g5561
sg90
Nsg91
I0
sg92
g93
sbsS'create'
p5594
(i__main__
DelphiMethodDeclaration
p5595
(dp5596
g27
S'create'
p5597
sg68
(lp5598
sg89
g5561
sg90
Nsg91
I0
sg92
g173
sbsS'countsize'
p5599
(i__main__
DelphiMethodDeclaration
p5600
(dp5601
g27
S'countSize'
p5602
sg68
(lp5603
sg89
g5561
sg90
(i__main__
DelphiPrimitiveType
p5604
(dp5605
g34
g298
sbsg91
I0
sg92
g207
sbsS'verifyclassandversioninformation'
p5606
(i__main__
DelphiMethodDeclaration
p5607
(dp5608
g27
S'verifyClassAndVersionInformation'
p5609
sg68
(lp5610
(i__main__
DelphiFormalParameter
p5611
(dp5612
g72
Nsg45
(lp5613
S'filer'
p5614
asg75
(i__main__
DelphiNamedType
p5615
(dp5616
g34
S'PdFiler'
p5617
sg87
g1
sg88
Nsbsg79
Nsba(i__main__
DelphiFormalParameter
p5618
(dp5619
g72
Nsg45
(lp5620
S'size'
p5621
asg75
(i__main__
DelphiPrimitiveType
p5622
(dp5623
g34
g298
sbsg79
Nsba(i__main__
DelphiFormalParameter
p5624
(dp5625
g72
Nsg45
(lp5626
S'cvirRead'
p5627
aS'cvirClass'
p5628
asg75
(i__main__
DelphiNamedType
p5629
(dp5630
g34
S'PdClassAndVersionInformationRecord'
p5631
sg87
g1
sg88
Nsbsg79
g204
sbasg89
g5561
sg90
(i__main__
DelphiPrimitiveType
p5632
(dp5633
g34
g231
sbsg91
I0
sg92
g207
sbsS'classandversioninformation'
p5634
(i__main__
DelphiMethodDeclaration
p5635
(dp5636
g27
S'classAndVersionInformation'
p5637
sg68
(lp5638
(i__main__
DelphiFormalParameter
p5639
(dp5640
g72
Nsg45
(lp5641
S'cvir'
p5642
asg75
(i__main__
DelphiNamedType
p5643
(dp5644
g34
S'PdClassAndVersionInformationRecord'
p5645
sg87
g1
sg88
Nsbsg79
g108
sbasg89
g5561
sg90
Nsg91
I0
sg92
g93
sbsS'copyto'
p5646
(i__main__
DelphiMethodDeclaration
p5647
(dp5648
g27
S'copyTo'
p5649
sg68
(lp5650
(i__main__
DelphiFormalParameter
p5651
(dp5652
g72
Nsg45
(lp5653
S'newCopy'
p5654
asg75
(i__main__
DelphiNamedType
p5655
(dp5656
g34
S'PdStreamableObject'
p5657
sg87
g1
sg88
Nsbsg79
Nsbasg89
g5561
sg90
Nsg91
I0
sg92
g93
sg17
(lp5658
S"don't forget to use override in subclasses!"
p5659
aS'copy this object to another.  This uses a memory stream rather than\r'
p5660
aS'field by field copies.  This is done because it is easier to maintain\r'
p5661
aS'(especiallyf for complex objects like the drawing plant).  Otherwise\r'
p5662
aS'every change to an objects fields would necessitae maintaining a copy\r'
p5663
aS'function.  This is slightly less efficient than field by field,\r'
p5664
aS"however presumeably copy won't be called that often so the speed difference\r"
p5665
aS'(double the time or more?) will not be noticed.  Note that this can fail\r'
p5666
aS'if there is no memory for the stream or filer or any subobjects in\r'
p5667
aS'the copy'
p5668
aS'when using this for plants, be careful to set the soil patch\r'
p5669
aS'in the copy to something desireable before calling'
p5670
asbssg661
(lp5671
(i__main__
DelphiNamedType
p5672
(dp5673
g34
S'TObject'
p5674
sg87
g1
sg88
Nsbasg29
(dp5675
sg682
(lp5676
S'classandversioninformation'
p5677
aS'streamdatawithfiler'
p5678
aS'verifyclassandversioninformation'
p5679
aS'streamusingfiler'
p5680
aS'create'
p5681
aS'copyto'
p5682
aS'countsize'
p5683
asg734
(dp5684
S'streamusingfiler'
p5685
(i__main__
DelphiMethodImplementation
p5686
(dp5687
g739
g5564
sg27
g5566
sg68
(lp5688
(i__main__
DelphiFormalParameter
p5689
(dp5690
g72
Nsg45
(lp5691
S'filer'
p5692
asg75
(i__main__
DelphiNamedType
p5693
(dp5694
g34
S'PdFiler'
p5695
sg87
g1
sg88
Nsbsg79
Nsbasg754
(lp5696
sg756
(lp5697
sg758
(lp5698
g760
ag5692
asg761
(dp5699
g5692
g5693
ssg89
S'PdStreamableObject'
p5700
sg90
Nsg764
(lp5701
sg91
I0
sg92
g93
sg766
(i__main__
DelphiBlock
p5702
(dp5703
g769
(idelphi
DelphiCompoundStatement
p5704
(dp5705
g772
(lp5706
(i__main__
DelphiAssignStatement
p5707
(dp5708
g776
Nsg799
(i__main__
DelphiIdentAccess
p5709
(dp5710
g779
S'self'
p5711
sg781
(lp5712
(idelphi
DelphiFieldEndAccess
p5713
(dp5714
g785
S'classAndVersionInformation'
p5715
sba(idelphi
DelphiFunctionEndAccess
p5716
(dp5717
g789
(lp5718
(i__main__
DelphiIdentAccess
p5719
(dp5720
g779
S'cvirClass'
p5721
sg781
(lp5722
sbasbasbsba(idelphi
DelphiIfStatement
p5723
(dp5724
g1059
(i__main__
DelphiIdentAccess
p5725
(dp5726
g779
S'filer'
p5727
sg781
(lp5728
(idelphi
DelphiFieldEndAccess
p5729
(dp5730
g785
S'isWriting'
p5731
sbasbsg1067
(idelphi
DelphiIfStatement
p5732
(dp5733
g1059
(i__main__
DelphiIdentAccess
p5734
(dp5735
g779
S'filer'
p5736
sg781
(lp5737
(idelphi
DelphiFieldEndAccess
p5738
(dp5739
g785
S'isReading'
p5740
sbasbsg1067
Nsg1123
(idelphi
DelphiCompoundStatement
p5741
(dp5742
g772
(lp5743
(i__main__
DelphiAssignStatement
p5744
(dp5745
g776
Nsg799
(i__main__
DelphiIdentAccess
p5746
(dp5747
g779
S'filer'
p5748
sg781
(lp5749
(idelphi
DelphiFieldEndAccess
p5750
(dp5751
g785
S'streamClassAndVersionInformation'
p5752
sba(idelphi
DelphiFunctionEndAccess
p5753
(dp5754
g789
(lp5755
(i__main__
DelphiIdentAccess
p5756
(dp5757
g779
S'cvirRead'
p5758
sg781
(lp5759
sbasbasbsba(i__main__
DelphiAssignStatement
p5760
(dp5761
g776
Nsg799
(i__main__
DelphiIdentAccess
p5762
(dp5763
g779
S'filer'
p5764
sg781
(lp5765
(idelphi
DelphiFieldEndAccess
p5766
(dp5767
g785
S'streamLongint'
p5768
sba(idelphi
DelphiFunctionEndAccess
p5769
(dp5770
g789
(lp5771
(i__main__
DelphiIdentAccess
p5772
(dp5773
g779
S'theSize'
p5774
sg781
(lp5775
sbasbasbsba(i__main__
DelphiAssignStatement
p5776
(dp5777
g776
(i__main__
DelphiIdentAccess
p5778
(dp5779
g779
S'filer'
p5780
sg781
(lp5781
(idelphi
DelphiFieldEndAccess
p5782
(dp5783
g785
S'getStreamPosition'
p5784
sbasbsg799
(i__main__
DelphiIdentAccess
p5785
(dp5786
g779
S'startPosition'
p5787
sg781
(lp5788
sbsba(idelphi
DelphiIfStatement
p5789
(dp5790
g1059
(i__main__
DelphiIdentAccess
p5791
(dp5792
g779
S'verifyClassAndVersionInformation'
p5793
sg781
(lp5794
(idelphi
DelphiFunctionEndAccess
p5795
(dp5796
g789
(lp5797
(i__main__
DelphiIdentAccess
p5798
(dp5799
g779
S'filer'
p5800
sg781
(lp5801
sba(i__main__
DelphiIdentAccess
p5802
(dp5803
g779
S'theSize'
p5804
sg781
(lp5805
sba(i__main__
DelphiIdentAccess
p5806
(dp5807
g779
S'cvirRead'
p5808
sg781
(lp5809
sba(i__main__
DelphiIdentAccess
p5810
(dp5811
g779
S'cvirClass'
p5812
sg781
(lp5813
sbasbasbsg1067
Nsg1123
(i__main__
DelphiAssignStatement
p5814
(dp5815
g776
Nsg799
(i__main__
DelphiIdentAccess
p5816
(dp5817
g779
S'self'
p5818
sg781
(lp5819
(idelphi
DelphiFieldEndAccess
p5820
(dp5821
g785
S'streamDataWithFiler'
p5822
sba(idelphi
DelphiFunctionEndAccess
p5823
(dp5824
g789
(lp5825
(i__main__
DelphiIdentAccess
p5826
(dp5827
g779
S'filer'
p5828
sg781
(lp5829
sba(i__main__
DelphiIdentAccess
p5830
(dp5831
g779
S'cvirRead'
p5832
sg781
(lp5833
sbasbasbsbsba(i__main__
DelphiAssignStatement
p5834
(dp5835
g776
(i__main__
DelphiIdentAccess
p5836
(dp5837
g779
S'filer'
p5838
sg781
(lp5839
(idelphi
DelphiFieldEndAccess
p5840
(dp5841
g785
S'getStreamPosition'
p5842
sbasbsg799
(i__main__
DelphiIdentAccess
p5843
(dp5844
g779
S'endPosition'
p5845
sg781
(lp5846
sbsba(idelphi
DelphiIfStatement
p5847
(dp5848
g1059
(idelphi
DelphiRelOp
p5849
(dp5850
g1266
(i__main__
DelphiIdentAccess
p5851
(dp5852
g779
S'endPosition'
p5853
sg781
(lp5854
sbsg1271
(idelphi
DelphiAddOp
p5855
(dp5856
g1600
S'+'
sg1601
(i__main__
DelphiIdentAccess
p5857
(dp5858
g779
S'theSize'
p5859
sg781
(lp5860
sbsg1604
(i__main__
DelphiIdentAccess
p5861
(dp5862
g779
S'startPosition'
p5863
sg781
(lp5864
sbsbsg1274
S'<'
sbsg1067
(idelphi
DelphiIfStatement
p5865
(dp5866
g1059
(idelphi
DelphiRelOp
p5867
(dp5868
g1266
(i__main__
DelphiIdentAccess
p5869
(dp5870
g779
S'endPosition'
p5871
sg781
(lp5872
sbsg1271
(idelphi
DelphiAddOp
p5873
(dp5874
g1600
S'+'
sg1601
(i__main__
DelphiIdentAccess
p5875
(dp5876
g779
S'theSize'
p5877
sg781
(lp5878
sbsg1604
(i__main__
DelphiIdentAccess
p5879
(dp5880
g779
S'startPosition'
p5881
sg781
(lp5882
sbsbsg1274
S'>'
sbsg1067
Nsg1123
(idelphi
DelphiRaiseStatement
p5883
(dp5884
g1059
(i__main__
DelphiIdentAccess
p5885
(dp5886
g779
S'PdExceptionFilerReadPastEndOfObject'
p5887
sg781
(lp5888
(idelphi
DelphiFieldEndAccess
p5889
(dp5890
g785
S'create'
p5891
sba(idelphi
DelphiFunctionEndAccess
p5892
(dp5893
g789
(lp5894
(idelphi
DelphiAddOp
p5895
(dp5896
g1600
S'+'
sg1601
(i__main__
DelphiIdentAccess
p5897
(dp5898
g779
S'IntToStr'
p5899
sg781
(lp5900
(idelphi
DelphiFunctionEndAccess
p5901
(dp5902
g789
(lp5903
(i__main__
DelphiIdentAccess
p5904
(dp5905
g779
S'cvirRead'
p5906
sg781
(lp5907
(idelphi
DelphiFieldEndAccess
p5908
(dp5909
g785
S'additionNumber'
p5910
sbasbasbasbsg1604
(idelphi
DelphiAddOp
p5911
(dp5912
g1600
S'+'
sg1601
(idelphi
DelphiStringAccess
p5913
(dp5914
g781
(lp5915
sg78
(idelphi
DelphiStringValue
p5916
(dp5917
g78
S' add '
p5918
sbsbsg1604
(idelphi
DelphiAddOp
p5919
(dp5920
g1600
S'+'
sg1601
(i__main__
DelphiIdentAccess
p5921
(dp5922
g779
S'IntToStr'
p5923
sg781
(lp5924
(idelphi
DelphiFunctionEndAccess
p5925
(dp5926
g789
(lp5927
(i__main__
DelphiIdentAccess
p5928
(dp5929
g779
S'cvirRead'
p5930
sg781
(lp5931
(idelphi
DelphiFieldEndAccess
p5932
(dp5933
g785
S'versionNumber'
p5934
sbasbasbasbsg1604
(idelphi
DelphiAddOp
p5935
(dp5936
g1600
S'+'
sg1601
(idelphi
DelphiStringAccess
p5937
(dp5938
g781
(lp5939
sg78
(idelphi
DelphiStringValue
p5940
(dp5941
g78
S' ver '
p5942
sbsbsg1604
(idelphi
DelphiAddOp
p5943
(dp5944
g1600
S'+'
sg1601
(i__main__
DelphiIdentAccess
p5945
(dp5946
g779
S'IntToStr'
p5947
sg781
(lp5948
(idelphi
DelphiFunctionEndAccess
p5949
(dp5950
g789
(lp5951
(i__main__
DelphiIdentAccess
p5952
(dp5953
g779
S'cvirRead'
p5954
sg781
(lp5955
(idelphi
DelphiFieldEndAccess
p5956
(dp5957
g785
S'classNumber'
p5958
sbasbasbasbsg1604
(idelphi
DelphiStringAccess
p5959
(dp5960
g781
(lp5961
sg78
(idelphi
DelphiStringValue
p5962
(dp5963
g78
S'Problem reading file: Read past the end of class '
p5964
sbsbsbsbsbsbsbasbasbsbsbsg1123
(i__main__
DelphiAssignStatement
p5965
(dp5966
g776
Nsg799
(i__main__
DelphiIdentAccess
p5967
(dp5968
g779
S'filer'
p5969
sg781
(lp5970
(idelphi
DelphiFieldEndAccess
p5971
(dp5972
g785
S'setStreamPosition'
p5973
sba(idelphi
DelphiFunctionEndAccess
p5974
(dp5975
g789
(lp5976
(idelphi
DelphiAddOp
p5977
(dp5978
g1600
S'+'
sg1601
(i__main__
DelphiIdentAccess
p5979
(dp5980
g779
S'theSize'
p5981
sg781
(lp5982
sbsg1604
(i__main__
DelphiIdentAccess
p5983
(dp5984
g779
S'startPosition'
p5985
sg781
(lp5986
sbsbasbasbsg17
(lp5987
S"handle if haven't read everything due to additions or other version handling..."
p5988
asbsbasbsbsg1123
(idelphi
DelphiCompoundStatement
p5989
(dp5990
g772
(lp5991
(i__main__
DelphiAssignStatement
p5992
(dp5993
g776
Nsg799
(i__main__
DelphiIdentAccess
p5994
(dp5995
g779
S'filer'
p5996
sg781
(lp5997
(idelphi
DelphiFieldEndAccess
p5998
(dp5999
g785
S'streamClassAndVersionInformation'
p6000
sba(idelphi
DelphiFunctionEndAccess
p6001
(dp6002
g789
(lp6003
(i__main__
DelphiIdentAccess
p6004
(dp6005
g779
S'cvirClass'
p6006
sg781
(lp6007
sbasbasbsba(i__main__
DelphiAssignStatement
p6008
(dp6009
g776
(idelphi
DelphiSign
p6010
(dp6011
S'factor'
p6012
(idelphi
DelphiIntegerValue
p6013
(dp6014
g78
S'1'
sbsS'sign'
p6015
S'-'
sbsg799
(i__main__
DelphiIdentAccess
p6016
(dp6017
g779
S'theSize'
p6018
sg781
(lp6019
sbsba(i__main__
DelphiAssignStatement
p6020
(dp6021
g776
(i__main__
DelphiIdentAccess
p6022
(dp6023
g779
S'filer'
p6024
sg781
(lp6025
(idelphi
DelphiFieldEndAccess
p6026
(dp6027
g785
S'getStreamPosition'
p6028
sbasbsg799
(i__main__
DelphiIdentAccess
p6029
(dp6030
g779
S'sizePosition'
p6031
sg781
(lp6032
sbsba(i__main__
DelphiAssignStatement
p6033
(dp6034
g776
Nsg799
(i__main__
DelphiIdentAccess
p6035
(dp6036
g779
S'filer'
p6037
sg781
(lp6038
(idelphi
DelphiFieldEndAccess
p6039
(dp6040
g785
S'streamLongint'
p6041
sba(idelphi
DelphiFunctionEndAccess
p6042
(dp6043
g789
(lp6044
(i__main__
DelphiIdentAccess
p6045
(dp6046
g779
S'theSize'
p6047
sg781
(lp6048
sbasbasbsba(i__main__
DelphiAssignStatement
p6049
(dp6050
g776
(i__main__
DelphiIdentAccess
p6051
(dp6052
g779
S'filer'
p6053
sg781
(lp6054
(idelphi
DelphiFieldEndAccess
p6055
(dp6056
g785
S'getStreamPosition'
p6057
sbasbsg799
(i__main__
DelphiIdentAccess
p6058
(dp6059
g779
S'startPosition'
p6060
sg781
(lp6061
sbsba(i__main__
DelphiAssignStatement
p6062
(dp6063
g776
Nsg799
(i__main__
DelphiIdentAccess
p6064
(dp6065
g779
S'self'
p6066
sg781
(lp6067
(idelphi
DelphiFieldEndAccess
p6068
(dp6069
g785
S'streamDataWithFiler'
p6070
sba(idelphi
DelphiFunctionEndAccess
p6071
(dp6072
g789
(lp6073
(i__main__
DelphiIdentAccess
p6074
(dp6075
g779
S'filer'
p6076
sg781
(lp6077
sba(i__main__
DelphiIdentAccess
p6078
(dp6079
g779
S'cvirClass'
p6080
sg781
(lp6081
sbasbasbsba(i__main__
DelphiAssignStatement
p6082
(dp6083
g776
(i__main__
DelphiIdentAccess
p6084
(dp6085
g779
S'filer'
p6086
sg781
(lp6087
(idelphi
DelphiFieldEndAccess
p6088
(dp6089
g785
S'getStreamPosition'
p6090
sbasbsg799
(i__main__
DelphiIdentAccess
p6091
(dp6092
g779
S'endPosition'
p6093
sg781
(lp6094
sbsba(i__main__
DelphiAssignStatement
p6095
(dp6096
g776
Nsg799
(i__main__
DelphiIdentAccess
p6097
(dp6098
g779
S'filer'
p6099
sg781
(lp6100
(idelphi
DelphiFieldEndAccess
p6101
(dp6102
g785
S'setStreamPosition'
p6103
sba(idelphi
DelphiFunctionEndAccess
p6104
(dp6105
g789
(lp6106
(i__main__
DelphiIdentAccess
p6107
(dp6108
g779
S'sizePosition'
p6109
sg781
(lp6110
sbasbasbsba(i__main__
DelphiAssignStatement
p6111
(dp6112
g776
(idelphi
DelphiAddOp
p6113
(dp6114
g1600
S'-'
sg1601
(i__main__
DelphiIdentAccess
p6115
(dp6116
g779
S'startPosition'
p6117
sg781
(lp6118
sbsg1604
(i__main__
DelphiIdentAccess
p6119
(dp6120
g779
S'endPosition'
p6121
sg781
(lp6122
sbsbsg799
(i__main__
DelphiIdentAccess
p6123
(dp6124
g779
S'theSize'
p6125
sg781
(lp6126
sbsg17
(lp6127
S'size does not include itself or object header'
p6128
asba(i__main__
DelphiAssignStatement
p6129
(dp6130
g776
Nsg799
(i__main__
DelphiIdentAccess
p6131
(dp6132
g779
S'filer'
p6133
sg781
(lp6134
(idelphi
DelphiFieldEndAccess
p6135
(dp6136
g785
S'streamLongint'
p6137
sba(idelphi
DelphiFunctionEndAccess
p6138
(dp6139
g789
(lp6140
(i__main__
DelphiIdentAccess
p6141
(dp6142
g779
S'theSize'
p6143
sg781
(lp6144
sbasbasbsba(i__main__
DelphiAssignStatement
p6145
(dp6146
g776
Nsg799
(i__main__
DelphiIdentAccess
p6147
(dp6148
g779
S'filer'
p6149
sg781
(lp6150
(idelphi
DelphiFieldEndAccess
p6151
(dp6152
g785
S'setStreamPosition'
p6153
sba(idelphi
DelphiFunctionEndAccess
p6154
(dp6155
g789
(lp6156
(i__main__
DelphiIdentAccess
p6157
(dp6158
g779
S'endPosition'
p6159
sg781
(lp6160
sbasbasbsbasbsbasbsg877
(lp6161
(i__main__
DelphiVarSection
p6162
(dp6163
g881
I0
sg882
(lp6164
(idelphi
DelphiVarDecl
p6165
(dp6166
g886
Nsg887
(lp6167
S'theSize'
p6168
asg75
(i__main__
DelphiPrimitiveType
p6169
(dp6170
g34
g298
sbsba(idelphi
DelphiVarDecl
p6171
(dp6172
g886
Nsg887
(lp6173
S'endPosition'
p6174
aS'sizePosition'
p6175
aS'startPosition'
p6176
asg75
(i__main__
DelphiPrimitiveType
p6177
(dp6178
g34
g298
sbsba(idelphi
DelphiVarDecl
p6179
(dp6180
g886
Nsg887
(lp6181
S'cvirClass'
p6182
asg75
(i__main__
DelphiNamedType
p6183
(dp6184
g34
S'PdClassAndVersionInformationRecord'
p6185
sg87
g1
sg88
Nsbsba(idelphi
DelphiVarDecl
p6186
(dp6187
g886
Nsg887
(lp6188
S'cvirRead'
p6189
asg75
(i__main__
DelphiNamedType
p6190
(dp6191
g34
S'PdClassAndVersionInformationRecord'
p6192
sg87
g1
sg88
Nsbsbasbasbsg17
(lp6193
S'stream out class ref num which can be used for loading'
p6194
asbsS'streamdatawithfiler'
p6195
(i__main__
DelphiMethodImplementation
p6196
(dp6197
g739
g5576
sg27
g5578
sg68
(lp6198
(i__main__
DelphiFormalParameter
p6199
(dp6200
g72
Nsg45
(lp6201
S'filer'
p6202
asg75
(i__main__
DelphiNamedType
p6203
(dp6204
g34
S'PdFiler'
p6205
sg87
g1
sg88
Nsbsg79
Nsba(i__main__
DelphiFormalParameter
p6206
(dp6207
g72
Nsg45
(lp6208
S'cvir'
p6209
asg75
(i__main__
DelphiNamedType
p6210
(dp6211
g34
S'PdClassAndVersionInformationRecord'
p6212
sg87
g1
sg88
Nsbsg79
g204
sbasg754
(lp6213
sg756
(lp6214
sg758
(lp6215
g760
ag6202
ag6209
asg761
(dp6216
g6202
g6203
sg6209
g6210
ssg89
S'PdStreamableObject'
p6217
sg90
Nsg764
(lp6218
sg91
I0
sg92
g93
sg766
(i__main__
DelphiBlock
p6219
(dp6220
g769
(idelphi
DelphiCompoundStatement
p6221
(dp6222
g772
Nsg17
(lp6223
S'does nothing for this class - sublcasses should override'
p6224
asbsg877
(lp6225
sbsbsS'create'
p6226
(i__main__
DelphiMethodImplementation
p6227
(dp6228
g739
g5595
sg27
g5597
sg68
(lp6229
sg754
(lp6230
sg756
(lp6231
sg758
(lp6232
g760
asg761
(dp6233
sg89
S'PdStreamableObject'
p6234
sg90
Nsg764
(lp6235
sg91
I0
sg92
g173
sg766
(i__main__
DelphiBlock
p6236
(dp6237
g769
(idelphi
DelphiCompoundStatement
p6238
(dp6239
g772
(lp6240
(i__main__
DelphiAssignStatement
p6241
(dp6242
g776
Nsg799
(idelphi
DelphiInheritedCall
p6243
(dp6244
g779
S'create'
p6245
sg789
Nsbsbasbsg877
(lp6246
sbsg17
(lp6247
S'sublasses that include references to other subcomponent objects should instantiate them in an oveeride of this method'
p6248
aS"don't forget to use override in subclasses!"
p6249
asbsS'countsize'
p6250
(i__main__
DelphiMethodImplementation
p6251
(dp6252
g739
g5600
sg27
g5602
sg68
(lp6253
sg754
(lp6254
sg756
(lp6255
sg758
(lp6256
g760
asg761
(dp6257
sg89
S'PdStreamableObject'
p6258
sg90
(i__main__
DelphiPrimitiveType
p6259
(dp6260
g34
g298
sbsg764
(lp6261
sg91
I0
sg92
g207
sg766
(i__main__
DelphiBlock
p6262
(dp6263
g769
(idelphi
DelphiCompoundStatement
p6264
(dp6265
g772
(lp6266
(i__main__
DelphiAssignStatement
p6267
(dp6268
g776
(i__main__
DelphiIdentAccess
p6269
(dp6270
g779
S'TMemoryStream'
p6271
sg781
(lp6272
(idelphi
DelphiFieldEndAccess
p6273
(dp6274
g785
S'create'
p6275
sbasbsg799
(i__main__
DelphiIdentAccess
p6276
(dp6277
g779
S'memoryStream'
p6278
sg781
(lp6279
sbsba(i__main__
DelphiAssignStatement
p6280
(dp6281
g776
(i__main__
DelphiIdentAccess
p6282
(dp6283
g779
S'PdFiler'
p6284
sg781
(lp6285
(idelphi
DelphiFieldEndAccess
p6286
(dp6287
g785
S'createWithStream'
p6288
sba(idelphi
DelphiFunctionEndAccess
p6289
(dp6290
g789
(lp6291
(i__main__
DelphiIdentAccess
p6292
(dp6293
g779
S'memoryStream'
p6294
sg781
(lp6295
sbasbasbsg799
(i__main__
DelphiIdentAccess
p6296
(dp6297
g779
S'filer'
p6298
sg781
(lp6299
sbsba(i__main__
DelphiAssignStatement
p6300
(dp6301
g776
Nsg799
(i__main__
DelphiIdentAccess
p6302
(dp6303
g779
S'filer'
p6304
sg781
(lp6305
(idelphi
DelphiFieldEndAccess
p6306
(dp6307
g785
S'setToCountingMode'
p6308
sbasbsba(i__main__
DelphiAssignStatement
p6309
(dp6310
g776
Nsg799
(i__main__
DelphiIdentAccess
p6311
(dp6312
g779
S'self'
p6313
sg781
(lp6314
(idelphi
DelphiFieldEndAccess
p6315
(dp6316
g785
S'streamUsingFiler'
p6317
sba(idelphi
DelphiFunctionEndAccess
p6318
(dp6319
g789
(lp6320
(i__main__
DelphiIdentAccess
p6321
(dp6322
g779
S'filer'
p6323
sg781
(lp6324
sbasbasbsba(i__main__
DelphiAssignStatement
p6325
(dp6326
g776
(i__main__
DelphiIdentAccess
p6327
(dp6328
g779
S'filer'
p6329
sg781
(lp6330
(idelphi
DelphiFieldEndAccess
p6331
(dp6332
g785
S'bytesStreamed'
p6333
sbasbsg799
(i__main__
DelphiIdentAccess
p6334
(dp6335
g779
S'result'
p6336
sg781
(lp6337
sbsba(i__main__
DelphiAssignStatement
p6338
(dp6339
g776
Nsg799
(i__main__
DelphiIdentAccess
p6340
(dp6341
g779
S'filer'
p6342
sg781
(lp6343
(idelphi
DelphiFieldEndAccess
p6344
(dp6345
g785
S'free'
p6346
sbasbsba(i__main__
DelphiAssignStatement
p6347
(dp6348
g776
Nsg799
(i__main__
DelphiIdentAccess
p6349
(dp6350
g779
S'memoryStream'
p6351
sg781
(lp6352
(idelphi
DelphiFieldEndAccess
p6353
(dp6354
g785
S'free'
p6355
sbasbsbasbsg877
(lp6356
(i__main__
DelphiVarSection
p6357
(dp6358
g881
I0
sg882
(lp6359
(idelphi
DelphiVarDecl
p6360
(dp6361
g886
Nsg887
(lp6362
S'memoryStream'
p6363
asg75
(i__main__
DelphiNamedType
p6364
(dp6365
g34
S'TMemoryStream'
p6366
sg87
g1
sg88
Nsbsba(idelphi
DelphiVarDecl
p6367
(dp6368
g886
Nsg887
(lp6369
S'filer'
p6370
asg75
(i__main__
DelphiNamedType
p6371
(dp6372
g34
S'PdFiler'
p6373
sg87
g1
sg88
NsbsbasbasbsbsS'verifyclassandversioninformation'
p6374
(i__main__
DelphiMethodImplementation
p6375
(dp6376
g739
g5607
sg27
g5609
sg68
(lp6377
(i__main__
DelphiFormalParameter
p6378
(dp6379
g72
Nsg45
(lp6380
S'filer'
p6381
asg75
(i__main__
DelphiNamedType
p6382
(dp6383
g34
S'PdFiler'
p6384
sg87
g1
sg88
Nsbsg79
Nsba(i__main__
DelphiFormalParameter
p6385
(dp6386
g72
Nsg45
(lp6387
S'size'
p6388
asg75
(i__main__
DelphiPrimitiveType
p6389
(dp6390
g34
g298
sbsg79
Nsba(i__main__
DelphiFormalParameter
p6391
(dp6392
g72
Nsg45
(lp6393
S'cvirRead'
p6394
aS'cvirClass'
p6395
asg75
(i__main__
DelphiNamedType
p6396
(dp6397
g34
S'PdClassAndVersionInformationRecord'
p6398
sg87
g1
sg88
Nsbsg79
g204
sbasg754
(lp6399
sg756
(lp6400
sg758
(lp6401
g760
ag6381
ag6388
ag6394
ag6395
asg761
(dp6402
g6381
g6382
sg6395
g6396
sg6394
g6396
sg6388
g6389
ssg89
S'PdStreamableObject'
p6403
sg90
(i__main__
DelphiPrimitiveType
p6404
(dp6405
g34
g231
sbsg764
(lp6406
sg91
I0
sg92
g207
sg766
(i__main__
DelphiBlock
p6407
(dp6408
g769
(idelphi
DelphiCompoundStatement
p6409
(dp6410
g772
(lp6411
(idelphi
DelphiIfStatement
p6412
(dp6413
g1059
(idelphi
DelphiRelOp
p6414
(dp6415
g1266
(i__main__
DelphiIdentAccess
p6416
(dp6417
g779
S'cvirRead'
p6418
sg781
(lp6419
(idelphi
DelphiFieldEndAccess
p6420
(dp6421
g785
S'classNumber'
p6422
sbasbsg1271
(i__main__
DelphiIdentAccess
p6423
(dp6424
g779
S'cvirClass'
p6425
sg781
(lp6426
(idelphi
DelphiFieldEndAccess
p6427
(dp6428
g785
S'classNumber'
p6429
sbasbsg1274
g2092
sbsg1067
Nsg1123
(idelphi
DelphiCompoundStatement
p6430
(dp6431
g772
(lp6432
(idelphi
DelphiRaiseStatement
p6433
(dp6434
g1059
(i__main__
DelphiIdentAccess
p6435
(dp6436
g779
S'PdExceptionFilerUnexpectedClassNumber'
p6437
sg781
(lp6438
(idelphi
DelphiFieldEndAccess
p6439
(dp6440
g785
S'createWithSizeAndMessage'
p6441
sba(idelphi
DelphiFunctionEndAccess
p6442
(dp6443
g789
(lp6444
(i__main__
DelphiIdentAccess
p6445
(dp6446
g779
S'size'
p6447
sg781
(lp6448
sba(idelphi
DelphiAddOp
p6449
(dp6450
g1600
S'+'
sg1601
(idelphi
DelphiStringAccess
p6451
(dp6452
g781
(lp6453
sg78
(idelphi
DelphiStringValue
p6454
(dp6455
g78
S')'
sbsbsg1604
(idelphi
DelphiAddOp
p6456
(dp6457
g1600
S'+'
sg1601
(i__main__
DelphiIdentAccess
p6458
(dp6459
g779
S'IntToStr'
p6460
sg781
(lp6461
(idelphi
DelphiFunctionEndAccess
p6462
(dp6463
g789
(lp6464
(i__main__
DelphiIdentAccess
p6465
(dp6466
g779
S'cvirRead'
p6467
sg781
(lp6468
(idelphi
DelphiFieldEndAccess
p6469
(dp6470
g785
S'classNumber'
p6471
sbasbasbasbsg1604
(idelphi
DelphiAddOp
p6472
(dp6473
g1600
S'+'
sg1601
(idelphi
DelphiStringAccess
p6474
(dp6475
g781
(lp6476
sg78
(idelphi
DelphiStringValue
p6477
(dp6478
g78
S' read class '
p6479
sbsbsg1604
(idelphi
DelphiAddOp
p6480
(dp6481
g1600
S'+'
sg1601
(i__main__
DelphiIdentAccess
p6482
(dp6483
g779
S'IntToStr'
p6484
sg781
(lp6485
(idelphi
DelphiFunctionEndAccess
p6486
(dp6487
g789
(lp6488
(i__main__
DelphiIdentAccess
p6489
(dp6490
g779
S'cvirClass'
p6491
sg781
(lp6492
(idelphi
DelphiFieldEndAccess
p6493
(dp6494
g785
S'classNumber'
p6495
sbasbasbasbsg1604
(idelphi
DelphiStringAccess
p6496
(dp6497
g781
(lp6498
sg78
(idelphi
DelphiStringValue
p6499
(dp6500
g78
S'Problem reading file.  This file may be corrupt. (Expected class '
p6501
sbsbsbsbsbsbasbasbsbasg17
(lp6502
S'filer.setStreamPosition(filer.getStreamPosition + size);\r'
p6503
aS'  \tresult := false;\r'
p6504
aS'    exit;  '
p6505
asbsba(idelphi
DelphiIfStatement
p6506
(dp6507
g1059
(idelphi
DelphiRelOp
p6508
(dp6509
g1266
(i__main__
DelphiIdentAccess
p6510
(dp6511
g779
S'cvirRead'
p6512
sg781
(lp6513
(idelphi
DelphiFieldEndAccess
p6514
(dp6515
g785
S'versionNumber'
p6516
sbasbsg1271
(i__main__
DelphiIdentAccess
p6517
(dp6518
g779
S'cvirClass'
p6519
sg781
(lp6520
(idelphi
DelphiFieldEndAccess
p6521
(dp6522
g785
S'versionNumber'
p6523
sbasbsg1274
g2092
sbsg1067
Nsg1123
(idelphi
DelphiCompoundStatement
p6524
(dp6525
g772
(lp6526
(idelphi
DelphiRaiseStatement
p6527
(dp6528
g1059
(i__main__
DelphiIdentAccess
p6529
(dp6530
g779
S'PdExceptionFilerUnexpectedVersionNumber'
p6531
sg781
(lp6532
(idelphi
DelphiFieldEndAccess
p6533
(dp6534
g785
S'createWithSizeAndMessage'
p6535
sba(idelphi
DelphiFunctionEndAccess
p6536
(dp6537
g789
(lp6538
(i__main__
DelphiIdentAccess
p6539
(dp6540
g779
S'size'
p6541
sg781
(lp6542
sba(idelphi
DelphiAddOp
p6543
(dp6544
g1600
S'+'
sg1601
(idelphi
DelphiStringAccess
p6545
(dp6546
g781
(lp6547
sg78
(idelphi
DelphiStringValue
p6548
(dp6549
g78
S')'
sbsbsg1604
(idelphi
DelphiAddOp
p6550
(dp6551
g1600
S'+'
sg1601
(i__main__
DelphiIdentAccess
p6552
(dp6553
g779
S'IntToStr'
p6554
sg781
(lp6555
(idelphi
DelphiFunctionEndAccess
p6556
(dp6557
g789
(lp6558
(i__main__
DelphiIdentAccess
p6559
(dp6560
g779
S'cvirRead'
p6561
sg781
(lp6562
(idelphi
DelphiFieldEndAccess
p6563
(dp6564
g785
S'versionNumber'
p6565
sbasbasbasbsg1604
(idelphi
DelphiAddOp
p6566
(dp6567
g1600
S'+'
sg1601
(idelphi
DelphiStringAccess
p6568
(dp6569
g781
(lp6570
sg78
(idelphi
DelphiStringValue
p6571
(dp6572
g78
S' cannot read version '
p6573
sbsbsg1604
(idelphi
DelphiAddOp
p6574
(dp6575
g1600
S'+'
sg1601
(i__main__
DelphiIdentAccess
p6576
(dp6577
g779
S'IntToStr'
p6578
sg781
(lp6579
(idelphi
DelphiFunctionEndAccess
p6580
(dp6581
g789
(lp6582
(i__main__
DelphiIdentAccess
p6583
(dp6584
g779
S'cvirClass'
p6585
sg781
(lp6586
(idelphi
DelphiFieldEndAccess
p6587
(dp6588
g785
S'versionNumber'
p6589
sbasbasbasbsg1604
(idelphi
DelphiAddOp
p6590
(dp6591
g1600
S'+'
sg1601
(idelphi
DelphiStringAccess
p6592
(dp6593
g781
(lp6594
sg78
(idelphi
DelphiStringValue
p6595
(dp6596
g78
S' version '
p6597
sbsbsg1604
(idelphi
DelphiAddOp
p6598
(dp6599
g1600
S'+'
sg1601
(i__main__
DelphiIdentAccess
p6600
(dp6601
g779
S'IntToStr'
p6602
sg781
(lp6603
(idelphi
DelphiFunctionEndAccess
p6604
(dp6605
g789
(lp6606
(i__main__
DelphiIdentAccess
p6607
(dp6608
g779
S'cvirClass'
p6609
sg781
(lp6610
(idelphi
DelphiFieldEndAccess
p6611
(dp6612
g785
S'classNumber'
p6613
sbasbasbasbsg1604
(idelphi
DelphiStringAccess
p6614
(dp6615
g781
(lp6616
sg78
(idelphi
DelphiStringValue
p6617
(dp6618
g78
S'Problem reading file.  This file is of a different version than the program. (Class '
p6619
sbsbsbsbsbsbsbsbasbasbsg17
(lp6620
S'assuming that later can read earlier or will issue error'
p6621
aS'if caller wants to recover - can manually create object and read size bytes'
p6622
asbasg17
(lp6623
S'filer.setStreamPosition(filer.getStreamPosition + size);\r'
p6624
aS'  \tresult := false;\r'
p6625
aS'    exit;'
p6626
asbsba(i__main__
DelphiAssignStatement
p6627
(dp6628
g776
(i__main__
DelphiIdentAccess
p6629
(dp6630
g779
S'true'
p6631
sg781
(lp6632
sbsg799
(i__main__
DelphiIdentAccess
p6633
(dp6634
g779
S'result'
p6635
sg781
(lp6636
sbsbasbsg877
(lp6637
sbsg17
(lp6638
S'return true if should read data - false if this function read it'
p6639
aS'this fuction needs to be overriden if it will read the data instead of raising exception'
p6640
aS'exception handlers need to skip over data if desired'
p6641
aS'skip it code - filer.setStreamPosition(filer.getStreamPosition + size); - note this might fail\r'
p6642
aS'if size is some crazy number outside of stream.  The might not get nic error message...'
p6643
asbsS'classandversioninformation'
p6644
(i__main__
DelphiMethodImplementation
p6645
(dp6646
g739
g5635
sg27
g5637
sg68
(lp6647
(i__main__
DelphiFormalParameter
p6648
(dp6649
g72
Nsg45
(lp6650
S'cvir'
p6651
asg75
(i__main__
DelphiNamedType
p6652
(dp6653
g34
S'PdClassAndVersionInformationRecord'
p6654
sg87
g1
sg88
Nsbsg79
g108
sbasg754
(lp6655
sg756
(lp6656
g6651
asg758
(lp6657
g760
ag6651
asg761
(dp6658
g6651
g6652
ssg89
S'PdStreamableObject'
p6659
sg90
Nsg764
(lp6660
sg91
I0
sg92
g93
sg766
(i__main__
DelphiBlock
p6661
(dp6662
g769
(idelphi
DelphiCompoundStatement
p6663
(dp6664
g772
(lp6665
(i__main__
DelphiAssignStatement
p6666
(dp6667
g776
(i__main__
DelphiIdentAccess
p6668
(dp6669
g779
S'KPdStreamableObject'
p6670
sg781
(lp6671
sbsg799
(i__main__
DelphiIdentAccess
p6672
(dp6673
g779
S'cvir'
p6674
sg781
(lp6675
(idelphi
DelphiFieldEndAccess
p6676
(dp6677
g785
S'classNumber'
p6678
sbasbsba(i__main__
DelphiAssignStatement
p6679
(dp6680
g776
(idelphi
DelphiIntegerValue
p6681
(dp6682
g78
S'0'
sbsg799
(i__main__
DelphiIdentAccess
p6683
(dp6684
g779
S'cvir'
p6685
sg781
(lp6686
(idelphi
DelphiFieldEndAccess
p6687
(dp6688
g785
S'versionNumber'
p6689
sbasbsba(i__main__
DelphiAssignStatement
p6690
(dp6691
g776
(idelphi
DelphiIntegerValue
p6692
(dp6693
g78
S'0'
sbsg799
(i__main__
DelphiIdentAccess
p6694
(dp6695
g779
S'cvir'
p6696
sg781
(lp6697
(idelphi
DelphiFieldEndAccess
p6698
(dp6699
g785
S'additionNumber'
p6700
sbasbsba(idelphi
DelphiRaiseStatement
p6701
(dp6702
g1059
(i__main__
DelphiIdentAccess
p6703
(dp6704
g779
S'Exception'
p6705
sg781
(lp6706
(idelphi
DelphiFieldEndAccess
p6707
(dp6708
g785
S'create'
p6709
sba(idelphi
DelphiFunctionEndAccess
p6710
(dp6711
g789
(lp6712
(idelphi
DelphiStringAccess
p6713
(dp6714
g781
(lp6715
sg78
(idelphi
DelphiStringValue
p6716
(dp6717
g78
S'Problem: Subclass should override; in method PdStreamableObject.classAndVersionInformation.'
p6718
sbsbasbasbsbasbsg877
(lp6719
sbsg17
(lp6720
S'PdStreamableObject'
p6721
aS'use for auto creating classes when type not known'
p6722
aS'use for checking if structure has changed'
p6723
asbsS'copyto'
p6724
(i__main__
DelphiMethodImplementation
p6725
(dp6726
g739
g5647
sg27
g5649
sg68
(lp6727
(i__main__
DelphiFormalParameter
p6728
(dp6729
g72
Nsg45
(lp6730
S'newCopy'
p6731
asg75
(i__main__
DelphiNamedType
p6732
(dp6733
g34
S'PdStreamableObject'
p6734
sg87
g1
sg88
Nsbsg79
Nsbasg754
(lp6735
sg756
(lp6736
sg758
(lp6737
g760
ag6731
asg761
(dp6738
g6731
g6732
ssg89
S'PdStreamableObject'
p6739
sg90
Nsg764
(lp6740
sg91
I0
sg92
g93
sg766
(i__main__
DelphiBlock
p6741
(dp6742
g769
(idelphi
DelphiCompoundStatement
p6743
(dp6744
g772
(lp6745
(idelphi
DelphiIfStatement
p6746
(dp6747
g1059
(idelphi
DelphiRelOp
p6748
(dp6749
g1266
(i__main__
DelphiIdentAccess
p6750
(dp6751
g779
S'self'
p6752
sg781
(lp6753
(idelphi
DelphiFieldEndAccess
p6754
(dp6755
g785
S'classType'
p6756
sbasbsg1271
(i__main__
DelphiIdentAccess
p6757
(dp6758
g779
S'newCopy'
p6759
sg781
(lp6760
(idelphi
DelphiFieldEndAccess
p6761
(dp6762
g785
S'classType'
p6763
sbasbsg1274
g2092
sbsg1067
Nsg1123
(idelphi
DelphiRaiseStatement
p6764
(dp6765
g1059
(i__main__
DelphiIdentAccess
p6766
(dp6767
g779
S'exception'
p6768
sg781
(lp6769
(idelphi
DelphiFieldEndAccess
p6770
(dp6771
g785
S'create'
p6772
sba(idelphi
DelphiFunctionEndAccess
p6773
(dp6774
g789
(lp6775
(idelphi
DelphiStringAccess
p6776
(dp6777
g781
(lp6778
sg78
(idelphi
DelphiStringValue
p6779
(dp6780
g78
S'Problem: copyTo can only be used with objects of identical class types; in method PdStreamableObject.copyTo.'
p6781
sbsbasbasbsbsba(i__main__
DelphiAssignStatement
p6782
(dp6783
g776
(i__main__
DelphiIdentAccess
p6784
(dp6785
g779
S'TMemoryStream'
p6786
sg781
(lp6787
(idelphi
DelphiFieldEndAccess
p6788
(dp6789
g785
S'create'
p6790
sbasbsg799
(i__main__
DelphiIdentAccess
p6791
(dp6792
g779
S'memoryStream'
p6793
sg781
(lp6794
sbsba(i__main__
DelphiAssignStatement
p6795
(dp6796
g776
(i__main__
DelphiIdentAccess
p6797
(dp6798
g779
S'PdFiler'
p6799
sg781
(lp6800
(idelphi
DelphiFieldEndAccess
p6801
(dp6802
g785
S'createWithStream'
p6803
sba(idelphi
DelphiFunctionEndAccess
p6804
(dp6805
g789
(lp6806
(i__main__
DelphiIdentAccess
p6807
(dp6808
g779
S'memoryStream'
p6809
sg781
(lp6810
sbasbasbsg799
(i__main__
DelphiIdentAccess
p6811
(dp6812
g779
S'filer'
p6813
sg781
(lp6814
sbsba(i__main__
DelphiAssignStatement
p6815
(dp6816
g776
Nsg799
(i__main__
DelphiIdentAccess
p6817
(dp6818
g779
S'filer'
p6819
sg781
(lp6820
(idelphi
DelphiFieldEndAccess
p6821
(dp6822
g785
S'setToWritingMode'
p6823
sbasbsba(i__main__
DelphiAssignStatement
p6824
(dp6825
g776
Nsg799
(i__main__
DelphiIdentAccess
p6826
(dp6827
g779
S'self'
p6828
sg781
(lp6829
(idelphi
DelphiFieldEndAccess
p6830
(dp6831
g785
S'streamUsingFiler'
p6832
sba(idelphi
DelphiFunctionEndAccess
p6833
(dp6834
g789
(lp6835
(i__main__
DelphiIdentAccess
p6836
(dp6837
g779
S'filer'
p6838
sg781
(lp6839
sbasbasbsba(i__main__
DelphiAssignStatement
p6840
(dp6841
g776
Nsg799
(i__main__
DelphiIdentAccess
p6842
(dp6843
g779
S'memoryStream'
p6844
sg781
(lp6845
(idelphi
DelphiFieldEndAccess
p6846
(dp6847
g785
S'seek'
p6848
sba(idelphi
DelphiFunctionEndAccess
p6849
(dp6850
g789
(lp6851
(idelphi
DelphiIntegerValue
p6852
(dp6853
g78
S'0'
sba(idelphi
DelphiIntegerValue
p6854
(dp6855
g78
S'0'
sbasbasbsg17
(lp6856
S'move to start of stream'
p6857
asba(i__main__
DelphiAssignStatement
p6858
(dp6859
g776
Nsg799
(i__main__
DelphiIdentAccess
p6860
(dp6861
g779
S'filer'
p6862
sg781
(lp6863
(idelphi
DelphiFieldEndAccess
p6864
(dp6865
g785
S'setToReadingMode'
p6866
sbasbsba(i__main__
DelphiAssignStatement
p6867
(dp6868
g776
Nsg799
(i__main__
DelphiIdentAccess
p6869
(dp6870
g779
S'newCopy'
p6871
sg781
(lp6872
(idelphi
DelphiFieldEndAccess
p6873
(dp6874
g785
S'streamUsingFiler'
p6875
sba(idelphi
DelphiFunctionEndAccess
p6876
(dp6877
g789
(lp6878
(i__main__
DelphiIdentAccess
p6879
(dp6880
g779
S'filer'
p6881
sg781
(lp6882
sbasbasbsba(i__main__
DelphiAssignStatement
p6883
(dp6884
g776
Nsg799
(i__main__
DelphiIdentAccess
p6885
(dp6886
g779
S'filer'
p6887
sg781
(lp6888
(idelphi
DelphiFieldEndAccess
p6889
(dp6890
g785
S'free'
p6891
sbasbsba(i__main__
DelphiAssignStatement
p6892
(dp6893
g776
Nsg799
(i__main__
DelphiIdentAccess
p6894
(dp6895
g779
S'memoryStream'
p6896
sg781
(lp6897
(idelphi
DelphiFieldEndAccess
p6898
(dp6899
g785
S'free'
p6900
sbasbsbasbsg877
(lp6901
(i__main__
DelphiVarSection
p6902
(dp6903
g881
I0
sg882
(lp6904
(idelphi
DelphiVarDecl
p6905
(dp6906
g886
Nsg887
(lp6907
S'memoryStream'
p6908
asg75
(i__main__
DelphiNamedType
p6909
(dp6910
g34
S'TMemoryStream'
p6911
sg87
g1
sg88
Nsbsba(idelphi
DelphiVarDecl
p6912
(dp6913
g886
Nsg887
(lp6914
S'filer'
p6915
asg75
(i__main__
DelphiNamedType
p6916
(dp6917
g34
S'PdFiler'
p6918
sg87
g1
sg88
Nsbsbasbasbsg17
g5658
sbssg5555
(dp6919
sg7
(lp6920
sba(i__main__
DelphiClass
p6921
(dp6922
g12
(dp6923
S'size'
p6924
S'size'
p6925
ssg27
S'PdExceptionFiler'
p6926
sg62
(dp6927
S'createwithsizeandmessage'
p6928
(i__main__
DelphiMethodDeclaration
p6929
(dp6930
g27
S'createWithSizeAndMessage'
p6931
sg68
(lp6932
(i__main__
DelphiFormalParameter
p6933
(dp6934
g72
Nsg45
(lp6935
S'theSize'
p6936
asg75
(i__main__
DelphiPrimitiveType
p6937
(dp6938
g34
g298
sbsg79
Nsba(i__main__
DelphiFormalParameter
p6939
(dp6940
g72
Nsg45
(lp6941
S'theMessage'
p6942
asg75
(i__main__
DelphiPrimitiveType
p6943
(dp6944
g34
g78
sbsg79
g204
sbasg89
g6926
sg90
Nsg91
I0
sg92
g173
sbssg661
(lp6945
(i__main__
DelphiNamedType
p6946
(dp6947
g34
S'Exception'
p6948
sg87
g1
sg88
Nsbasg29
(dp6949
S'size'
p6950
(i__main__
DelphiPrimitiveType
p6951
(dp6952
g34
g298
sbssg682
(lp6953
S'createwithsizeandmessage'
p6954
asg734
(dp6955
S'createwithsizeandmessage'
p6956
(i__main__
DelphiMethodImplementation
p6957
(dp6958
g739
g6929
sg27
g6931
sg68
(lp6959
(i__main__
DelphiFormalParameter
p6960
(dp6961
g72
Nsg45
(lp6962
S'theSize'
p6963
asg75
(i__main__
DelphiPrimitiveType
p6964
(dp6965
g34
g298
sbsg79
Nsba(i__main__
DelphiFormalParameter
p6966
(dp6967
g72
Nsg45
(lp6968
S'theMessage'
p6969
asg75
(i__main__
DelphiPrimitiveType
p6970
(dp6971
g34
g78
sbsg79
g204
sbasg754
(lp6972
sg756
(lp6973
sg758
(lp6974
g760
ag6963
ag6969
asg761
(dp6975
g6963
g6964
sg6969
g6970
ssg89
S'PdExceptionFiler'
p6976
sg90
Nsg764
(lp6977
sg91
I0
sg92
g173
sg766
(i__main__
DelphiBlock
p6978
(dp6979
g769
(idelphi
DelphiCompoundStatement
p6980
(dp6981
g772
(lp6982
(i__main__
DelphiAssignStatement
p6983
(dp6984
g776
Nsg799
(i__main__
DelphiIdentAccess
p6985
(dp6986
g779
S'self'
p6987
sg781
(lp6988
(idelphi
DelphiFieldEndAccess
p6989
(dp6990
g785
S'create'
p6991
sba(idelphi
DelphiFunctionEndAccess
p6992
(dp6993
g789
(lp6994
(i__main__
DelphiIdentAccess
p6995
(dp6996
g779
S'theMessage'
p6997
sg781
(lp6998
sbasbasbsba(i__main__
DelphiAssignStatement
p6999
(dp7000
g776
(i__main__
DelphiIdentAccess
p7001
(dp7002
g779
S'theSize'
p7003
sg781
(lp7004
sbsg799
(i__main__
DelphiIdentAccess
p7005
(dp7006
g779
S'size'
p7007
sg781
(lp7008
sbsbasbsg877
(lp7009
sbsg17
(lp7010
S' PdFiler '
p7011
asbssg5555
(dp7012
sg7
(lp7013
g6925
asba(i__main__
DelphiClass
p7014
(dp7015
g12
(dp7016
sg27
S'PdExceptionFilerUnexpectedClassNumber'
p7017
sg62
(dp7018
sg661
(lp7019
(i__main__
DelphiNamedType
p7020
(dp7021
g34
S'PdExceptionFiler'
p7022
sg87
g1
sg88
Nsbasg29
(dp7023
sg682
(lp7024
sg734
(dp7025
sg5555
(dp7026
sg7
(lp7027
sba(i__main__
DelphiClass
p7028
(dp7029
g12
(dp7030
sg27
S'PdExceptionFilerUnexpectedVersionNumber'
p7031
sg62
(dp7032
sg661
(lp7033
(i__main__
DelphiNamedType
p7034
(dp7035
g34
S'PdExceptionFiler'
p7036
sg87
g1
sg88
Nsbasg29
(dp7037
sg682
(lp7038
sg734
(dp7039
sg5555
(dp7040
sg7
(lp7041
sba(i__main__
DelphiClass
p7042
(dp7043
g12
(dp7044
sg27
S'PdExceptionFilerReadPastEndOfObject'
p7045
sg62
(dp7046
sg661
(lp7047
(i__main__
DelphiNamedType
p7048
(dp7049
g34
S'PdExceptionFiler'
p7050
sg87
g1
sg88
Nsbasg29
(dp7051
sg682
(lp7052
sg734
(dp7053
sg5555
(dp7054
sg7
(lp7055
sba(i__main__
DelphiConstSection
p7056
(dp7057
S'constDeclList'
p7058
(lp7059
(idelphi
DelphiConstDeclaration
p7060
(dp7061
g886
(idelphi
DelphiIntegerValue
p7062
(dp7063
g78
S'40'
p7064
sbsg779
S'kMinWidthOnScreen'
p7065
sg75
(idelphi
DelphiPrimitiveType
p7066
(dp7067
g34
S'UNDEFINED_NEEDS_CALCULATION'
p7068
sbsba(idelphi
DelphiConstDeclaration
p7069
(dp7070
g886
(idelphi
DelphiIntegerValue
p7071
(dp7072
g78
S'20'
p7073
sbsg779
S'kMinHeightOnScreen'
p7074
sg75
(idelphi
DelphiPrimitiveType
p7075
(dp7076
g34
g7068
sbsbasg881
I1
sba(i__main__
DelphiProceduralImplementation
p7077
(dp7078
g739
(i__main__
DelphiProceduralDeclaration
p7079
(dp7080
g68
(lp7081
(i__main__
DelphiFormalParameter
p7082
(dp7083
g72
Nsg45
(lp7084
S'filer'
p7085
asg75
(i__main__
DelphiNamedType
p7086
(dp7087
g34
S'PdFiler'
p7088
sg87
g1
sg88
Nsbsg79
Nsba(i__main__
DelphiFormalParameter
p7089
(dp7090
g72
Nsg45
(lp7091
S'cvir'
p7092
asg75
(i__main__
DelphiNamedType
p7093
(dp7094
g34
S'PdClassAndVersionInformationRecord'
p7095
sg87
g1
sg88
Nsbsg79
g204
sba(i__main__
DelphiFormalParameter
p7096
(dp7097
g72
Nsg45
(lp7098
S'form'
p7099
asg75
(i__main__
DelphiNamedType
p7100
(dp7101
g34
S'TForm'
p7102
sg87
g1
sg88
Nsbsg79
Nsbasg27
S'StreamFormPositionInfoWithFiler'
p7103
sg90
Nsbsg27
g7103
sg90
Nsg754
(lp7104
sg756
(lp7105
sg758
(lp7106
S'filer'
p7107
aS'cvir'
p7108
aS'form'
p7109
asg761
(dp7110
g7107
(i__main__
DelphiNamedType
p7111
(dp7112
g34
S'PdFiler'
p7113
sg87
g1
sg88
Nsbsg7108
(i__main__
DelphiNamedType
p7114
(dp7115
g34
S'PdClassAndVersionInformationRecord'
p7116
sg87
g1
sg88
Nsbsg7109
(i__main__
DelphiNamedType
p7117
(dp7118
g34
S'TForm'
p7119
sg87
g1
sg88
Nsbssg68
(lp7120
(i__main__
DelphiFormalParameter
p7121
(dp7122
g72
Nsg45
(lp7123
g7107
asg75
g7111
sg79
Nsba(i__main__
DelphiFormalParameter
p7124
(dp7125
g72
Nsg45
(lp7126
g7108
asg75
g7114
sg79
g204
sba(i__main__
DelphiFormalParameter
p7127
(dp7128
g72
Nsg45
(lp7129
g7109
asg75
g7117
sg79
Nsbasg764
(lp7130
sg766
(i__main__
DelphiBlock
p7131
(dp7132
g769
(idelphi
DelphiCompoundStatement
p7133
(dp7134
g772
(lp7135
(idelphi
DelphiIfStatement
p7136
(dp7137
g1059
(idelphi
DelphiRelOp
p7138
(dp7139
g1266
(i__main__
DelphiIdentAccess
p7140
(dp7141
g779
S'filer'
p7142
sg781
(lp7143
sbsg1271
(idelphi
DelphiNilValue
p7144
(dp7145
bsg1274
S'='
sbsg1067
Nsg1123
(i__main__
DelphiExitStatement
p7146
(dp7147
S'proceduralOrMethodImplementation'
p7148
g7077
sbsba(idelphi
DelphiIfStatement
p7149
(dp7150
g1059
(idelphi
DelphiRelOp
p7151
(dp7152
g1266
(i__main__
DelphiIdentAccess
p7153
(dp7154
g779
S'form'
p7155
sg781
(lp7156
sbsg1271
(idelphi
DelphiNilValue
p7157
(dp7158
bsg1274
S'='
sbsg1067
Nsg1123
(i__main__
DelphiExitStatement
p7159
(dp7160
g7148
g7077
sbsba(idelphi
DelphiIfStatement
p7161
(dp7162
g1059
(i__main__
DelphiIdentAccess
p7163
(dp7164
g779
S'filer'
p7165
sg781
(lp7166
(idelphi
DelphiFieldEndAccess
p7167
(dp7168
g785
S'isReading'
p7169
sbasbsg1067
Nsg1123
(i__main__
DelphiAssignStatement
p7170
(dp7171
g776
(i__main__
DelphiIdentAccess
p7172
(dp7173
g779
S'false'
p7174
sg781
(lp7175
sbsg799
(i__main__
DelphiIdentAccess
p7176
(dp7177
g779
S'form'
p7178
sg781
(lp7179
(idelphi
DelphiFieldEndAccess
p7180
(dp7181
g785
S'visible'
p7182
sbasbsbsba(idelphi
DelphiIfStatement
p7183
(dp7184
g1059
(i__main__
DelphiIdentAccess
p7185
(dp7186
g779
S'filer'
p7187
sg781
(lp7188
(idelphi
DelphiFieldEndAccess
p7189
(dp7190
g785
S'isReading'
p7191
sbasbsg1067
(idelphi
DelphiCompoundStatement
p7192
(dp7193
g772
(lp7194
(i__main__
DelphiAssignStatement
p7195
(dp7196
g776
(i__main__
DelphiIdentAccess
p7197
(dp7198
g779
S'form'
p7199
sg781
(lp7200
(idelphi
DelphiFieldEndAccess
p7201
(dp7202
g785
S'boundsRect'
p7203
sbasbsg799
(i__main__
DelphiIdentAccess
p7204
(dp7205
g779
S'tempBoundsRect'
p7206
sg781
(lp7207
sbsba(i__main__
DelphiAssignStatement
p7208
(dp7209
g776
Nsg799
(i__main__
DelphiIdentAccess
p7210
(dp7211
g779
S'filer'
p7212
sg781
(lp7213
(idelphi
DelphiFieldEndAccess
p7214
(dp7215
g785
S'streamRect'
p7216
sba(idelphi
DelphiFunctionEndAccess
p7217
(dp7218
g789
(lp7219
(i__main__
DelphiIdentAccess
p7220
(dp7221
g779
S'tempBoundsRect'
p7222
sg781
(lp7223
sbasbasbsbasbsg1123
(idelphi
DelphiCompoundStatement
p7224
(dp7225
g772
(lp7226
(i__main__
DelphiAssignStatement
p7227
(dp7228
g776
Nsg799
(i__main__
DelphiIdentAccess
p7229
(dp7230
g779
S'filer'
p7231
sg781
(lp7232
(idelphi
DelphiFieldEndAccess
p7233
(dp7234
g785
S'streamRect'
p7235
sba(idelphi
DelphiFunctionEndAccess
p7236
(dp7237
g789
(lp7238
(i__main__
DelphiIdentAccess
p7239
(dp7240
g779
S'tempBoundsRect'
p7241
sg781
(lp7242
sbasbasbsba(idelphi
DelphiIfStatement
p7243
(dp7244
g1059
(idelphi
DelphiRelOp
p7245
(dp7246
g1266
(i__main__
DelphiIdentAccess
p7247
(dp7248
g779
S'tempBoundsRect'
p7249
sg781
(lp7250
(idelphi
DelphiFieldEndAccess
p7251
(dp7252
g785
S'left'
p7253
sbasbsg1271
(idelphi
DelphiAddOp
p7254
(dp7255
g1600
S'-'
sg1601
(i__main__
DelphiIdentAccess
p7256
(dp7257
g779
S'kMinWidthOnScreen'
p7258
sg781
(lp7259
sbsg1604
(i__main__
DelphiIdentAccess
p7260
(dp7261
g779
S'Screen'
p7262
sg781
(lp7263
(idelphi
DelphiFieldEndAccess
p7264
(dp7265
g785
S'width'
p7266
sbasbsbsg1274
S'>'
sbsg1067
Nsg1123
(i__main__
DelphiAssignStatement
p7267
(dp7268
g776
(idelphi
DelphiAddOp
p7269
(dp7270
g1600
S'-'
sg1601
(i__main__
DelphiIdentAccess
p7271
(dp7272
g779
S'kMinWidthOnScreen'
p7273
sg781
(lp7274
sbsg1604
(i__main__
DelphiIdentAccess
p7275
(dp7276
g779
S'Screen'
p7277
sg781
(lp7278
(idelphi
DelphiFieldEndAccess
p7279
(dp7280
g785
S'width'
p7281
sbasbsbsg799
(i__main__
DelphiIdentAccess
p7282
(dp7283
g779
S'tempBoundsRect'
p7284
sg781
(lp7285
(idelphi
DelphiFieldEndAccess
p7286
(dp7287
g785
S'left'
p7288
sbasbsg17
(lp7289
S' keep window on screen - left corner of title bar '
p7290
asbsba(idelphi
DelphiIfStatement
p7291
(dp7292
g1059
(idelphi
DelphiRelOp
p7293
(dp7294
g1266
(i__main__
DelphiIdentAccess
p7295
(dp7296
g779
S'tempBoundsRect'
p7297
sg781
(lp7298
(idelphi
DelphiFieldEndAccess
p7299
(dp7300
g785
S'top'
p7301
sbasbsg1271
(idelphi
DelphiAddOp
p7302
(dp7303
g1600
S'-'
sg1601
(i__main__
DelphiIdentAccess
p7304
(dp7305
g779
S'kMinHeightOnScreen'
p7306
sg781
(lp7307
sbsg1604
(i__main__
DelphiIdentAccess
p7308
(dp7309
g779
S'Screen'
p7310
sg781
(lp7311
(idelphi
DelphiFieldEndAccess
p7312
(dp7313
g785
S'height'
p7314
sbasbsbsg1274
S'>'
sbsg1067
Nsg1123
(i__main__
DelphiAssignStatement
p7315
(dp7316
g776
(idelphi
DelphiAddOp
p7317
(dp7318
g1600
S'-'
sg1601
(i__main__
DelphiIdentAccess
p7319
(dp7320
g779
S'kMinHeightOnScreen'
p7321
sg781
(lp7322
sbsg1604
(i__main__
DelphiIdentAccess
p7323
(dp7324
g779
S'Screen'
p7325
sg781
(lp7326
(idelphi
DelphiFieldEndAccess
p7327
(dp7328
g785
S'height'
p7329
sbasbsbsg799
(i__main__
DelphiIdentAccess
p7330
(dp7331
g779
S'tempBoundsRect'
p7332
sg781
(lp7333
(idelphi
DelphiFieldEndAccess
p7334
(dp7335
g785
S'top'
p7336
sbasbsbsba(i__main__
DelphiAssignStatement
p7337
(dp7338
g776
(i__main__
DelphiIdentAccess
p7339
(dp7340
g779
S'poDesigned'
p7341
sg781
(lp7342
sbsg799
(i__main__
DelphiIdentAccess
p7343
(dp7344
g779
S'form'
p7345
sg781
(lp7346
(idelphi
DelphiFieldEndAccess
p7347
(dp7348
g785
S'position'
p7349
sbasbsba(idelphi
DelphiWithStatement
p7350
(dp7351
g2021
(i__main__
DelphiAssignStatement
p7352
(dp7353
g776
Nsg799
(i__main__
DelphiIdentAccess
p7354
(dp7355
g779
S'form'
p7356
sg781
(lp7357
(idelphi
DelphiFieldEndAccess
p7358
(dp7359
g785
S'setBounds'
p7360
sba(idelphi
DelphiFunctionEndAccess
p7361
(dp7362
g789
(lp7363
(i__main__
DelphiIdentAccess
p7364
(dp7365
g779
S'left'
p7366
sg781
(lp7367
sba(i__main__
DelphiIdentAccess
p7368
(dp7369
g779
S'top'
p7370
sg781
(lp7371
sba(idelphi
DelphiAddOp
p7372
(dp7373
g1600
S'-'
sg1601
(i__main__
DelphiIdentAccess
p7374
(dp7375
g779
S'left'
p7376
sg781
(lp7377
sbsg1604
(i__main__
DelphiIdentAccess
p7378
(dp7379
g779
S'right'
p7380
sg781
(lp7381
sbsba(idelphi
DelphiAddOp
p7382
(dp7383
g1600
S'-'
sg1601
(i__main__
DelphiIdentAccess
p7384
(dp7385
g779
S'top'
p7386
sg781
(lp7387
sbsg1604
(i__main__
DelphiIdentAccess
p7388
(dp7389
g779
S'bottom'
p7390
sg781
(lp7391
sbsbasbasbsbsS'variableReferenceList'
p7392
(lp7393
(i__main__
DelphiIdentAccess
p7394
(dp7395
g779
S'tempBoundsRect'
p7396
sg781
(lp7397
sbasbasbsba(idelphi
DelphiIfStatement
p7398
(dp7399
g1059
(i__main__
DelphiIdentAccess
p7400
(dp7401
g779
S'filer'
p7402
sg781
(lp7403
(idelphi
DelphiFieldEndAccess
p7404
(dp7405
g785
S'isReading'
p7406
sbasbsg1067
(idelphi
DelphiCompoundStatement
p7407
(dp7408
g772
(lp7409
(i__main__
DelphiAssignStatement
p7410
(dp7411
g776
(i__main__
DelphiIdentAccess
p7412
(dp7413
g779
S'form'
p7414
sg781
(lp7415
(idelphi
DelphiFieldEndAccess
p7416
(dp7417
g785
S'visible'
p7418
sbasbsg799
(i__main__
DelphiIdentAccess
p7419
(dp7420
g779
S'tempVisible'
p7421
sg781
(lp7422
sbsba(i__main__
DelphiAssignStatement
p7423
(dp7424
g776
Nsg799
(i__main__
DelphiIdentAccess
p7425
(dp7426
g779
S'filer'
p7427
sg781
(lp7428
(idelphi
DelphiFieldEndAccess
p7429
(dp7430
g785
S'streamBoolean'
p7431
sba(idelphi
DelphiFunctionEndAccess
p7432
(dp7433
g789
(lp7434
(i__main__
DelphiIdentAccess
p7435
(dp7436
g779
S'tempVisible'
p7437
sg781
(lp7438
sbasbasbsba(i__main__
DelphiAssignStatement
p7439
(dp7440
g776
(i__main__
DelphiIdentAccess
p7441
(dp7442
g779
S'form'
p7443
sg781
(lp7444
(idelphi
DelphiFieldEndAccess
p7445
(dp7446
g785
S'windowState'
p7447
sbasbsg799
(i__main__
DelphiIdentAccess
p7448
(dp7449
g779
S'tempWindowState'
p7450
sg781
(lp7451
sbsba(i__main__
DelphiAssignStatement
p7452
(dp7453
g776
Nsg799
(i__main__
DelphiIdentAccess
p7454
(dp7455
g779
S'filer'
p7456
sg781
(lp7457
(idelphi
DelphiFieldEndAccess
p7458
(dp7459
g785
S'streamWindowState'
p7460
sba(idelphi
DelphiFunctionEndAccess
p7461
(dp7462
g789
(lp7463
(i__main__
DelphiIdentAccess
p7464
(dp7465
g779
S'tempWindowState'
p7466
sg781
(lp7467
sbasbasbsbasbsg1123
(idelphi
DelphiCompoundStatement
p7468
(dp7469
g772
(lp7470
(i__main__
DelphiAssignStatement
p7471
(dp7472
g776
Nsg799
(i__main__
DelphiIdentAccess
p7473
(dp7474
g779
S'filer'
p7475
sg781
(lp7476
(idelphi
DelphiFieldEndAccess
p7477
(dp7478
g785
S'streamBoolean'
p7479
sba(idelphi
DelphiFunctionEndAccess
p7480
(dp7481
g789
(lp7482
(i__main__
DelphiIdentAccess
p7483
(dp7484
g779
S'tempVisible'
p7485
sg781
(lp7486
sbasbasbsba(i__main__
DelphiAssignStatement
p7487
(dp7488
g776
Nsg799
(i__main__
DelphiIdentAccess
p7489
(dp7490
g779
S'filer'
p7491
sg781
(lp7492
(idelphi
DelphiFieldEndAccess
p7493
(dp7494
g785
S'streamWindowState'
p7495
sba(idelphi
DelphiFunctionEndAccess
p7496
(dp7497
g789
(lp7498
(i__main__
DelphiIdentAccess
p7499
(dp7500
g779
S'tempWindowState'
p7501
sg781
(lp7502
sbasbasbsba(i__main__
DelphiAssignStatement
p7503
(dp7504
g776
(i__main__
DelphiIdentAccess
p7505
(dp7506
g779
S'tempWindowState'
p7507
sg781
(lp7508
sbsg799
(i__main__
DelphiIdentAccess
p7509
(dp7510
g779
S'form'
p7511
sg781
(lp7512
(idelphi
DelphiFieldEndAccess
p7513
(dp7514
g785
S'windowState'
p7515
sbasbsba(i__main__
DelphiAssignStatement
p7516
(dp7517
g776
(i__main__
DelphiIdentAccess
p7518
(dp7519
g779
S'tempVisible'
p7520
sg781
(lp7521
sbsg799
(i__main__
DelphiIdentAccess
p7522
(dp7523
g779
S'form'
p7524
sg781
(lp7525
(idelphi
DelphiFieldEndAccess
p7526
(dp7527
g785
S'visible'
p7528
sbasbsg17
(lp7529
S' make visible last '
p7530
asbasbsbasbsg877
(lp7531
(i__main__
DelphiVarSection
p7532
(dp7533
g881
I0
sg882
(lp7534
(idelphi
DelphiVarDecl
p7535
(dp7536
g886
Nsg887
(lp7537
S'tempBoundsRect'
p7538
asg75
(i__main__
DelphiNamedType
p7539
(dp7540
g34
S'TRect'
p7541
sg87
g1
sg88
Nsbsba(idelphi
DelphiVarDecl
p7542
(dp7543
g886
Nsg887
(lp7544
S'tempVisible'
p7545
asg75
(i__main__
DelphiPrimitiveType
p7546
(dp7547
g34
g231
sbsba(idelphi
DelphiVarDecl
p7548
(dp7549
g886
Nsg887
(lp7550
S'tempWindowState'
p7551
asg75
(i__main__
DelphiNamedType
p7552
(dp7553
g34
S'TWindowState'
p7554
sg87
g1
sg88
Nsbsbasbasbsg17
(lp7555
S' global functions '
p7556
asba(i__main__
DelphiProceduralImplementation
p7557
(dp7558
g739
(i__main__
DelphiProceduralDeclaration
p7559
(dp7560
g68
(lp7561
(i__main__
DelphiFormalParameter
p7562
(dp7563
g72
Nsg45
(lp7564
S'filer'
p7565
asg75
(i__main__
DelphiNamedType
p7566
(dp7567
g34
S'PdFiler'
p7568
sg87
g1
sg88
Nsbsg79
Nsba(i__main__
DelphiFormalParameter
p7569
(dp7570
g72
Nsg45
(lp7571
S'cvir'
p7572
asg75
(i__main__
DelphiNamedType
p7573
(dp7574
g34
S'PdClassAndVersionInformationRecord'
p7575
sg87
g1
sg88
Nsbsg79
g204
sba(i__main__
DelphiFormalParameter
p7576
(dp7577
g72
Nsg45
(lp7578
S'comboBox'
p7579
asg75
(i__main__
DelphiNamedType
p7580
(dp7581
g34
S'TComboBox'
p7582
sg87
g1
sg88
Nsbsg79
Nsbasg27
S'StreamComboBoxItemIndexWithFiler'
p7583
sg90
Nsbsg27
g7583
sg90
Nsg754
(lp7584
sg756
(lp7585
sg758
(lp7586
S'filer'
p7587
aS'cvir'
p7588
aS'comboBox'
p7589
asg761
(dp7590
g7587
(i__main__
DelphiNamedType
p7591
(dp7592
g34
S'PdFiler'
p7593
sg87
g1
sg88
Nsbsg7588
(i__main__
DelphiNamedType
p7594
(dp7595
g34
S'PdClassAndVersionInformationRecord'
p7596
sg87
g1
sg88
Nsbsg7589
(i__main__
DelphiNamedType
p7597
(dp7598
g34
S'TComboBox'
p7599
sg87
g1
sg88
Nsbssg68
(lp7600
(i__main__
DelphiFormalParameter
p7601
(dp7602
g72
Nsg45
(lp7603
g7587
asg75
g7591
sg79
Nsba(i__main__
DelphiFormalParameter
p7604
(dp7605
g72
Nsg45
(lp7606
g7588
asg75
g7594
sg79
g204
sba(i__main__
DelphiFormalParameter
p7607
(dp7608
g72
Nsg45
(lp7609
g7589
asg75
g7597
sg79
Nsbasg764
(lp7610
sg766
(i__main__
DelphiBlock
p7611
(dp7612
g769
(idelphi
DelphiCompoundStatement
p7613
(dp7614
g772
(lp7615
(idelphi
DelphiIfStatement
p7616
(dp7617
g1059
(i__main__
DelphiIdentAccess
p7618
(dp7619
g779
S'filer'
p7620
sg781
(lp7621
(idelphi
DelphiFieldEndAccess
p7622
(dp7623
g785
S'isReading'
p7624
sbasbsg1067
(idelphi
DelphiCompoundStatement
p7625
(dp7626
g772
(lp7627
(i__main__
DelphiAssignStatement
p7628
(dp7629
g776
(i__main__
DelphiIdentAccess
p7630
(dp7631
g779
S'comboBox'
p7632
sg781
(lp7633
(idelphi
DelphiFieldEndAccess
p7634
(dp7635
g785
S'itemIndex'
p7636
sbasbsg799
(i__main__
DelphiIdentAccess
p7637
(dp7638
g779
S'tempItemIndex'
p7639
sg781
(lp7640
sbsba(i__main__
DelphiAssignStatement
p7641
(dp7642
g776
Nsg799
(i__main__
DelphiIdentAccess
p7643
(dp7644
g779
S'filer'
p7645
sg781
(lp7646
(idelphi
DelphiFieldEndAccess
p7647
(dp7648
g785
S'streamLongint'
p7649
sba(idelphi
DelphiFunctionEndAccess
p7650
(dp7651
g789
(lp7652
(i__main__
DelphiIdentAccess
p7653
(dp7654
g779
S'tempItemIndex'
p7655
sg781
(lp7656
sbasbasbsbasbsg1123
(idelphi
DelphiCompoundStatement
p7657
(dp7658
g772
(lp7659
(i__main__
DelphiAssignStatement
p7660
(dp7661
g776
(idelphi
DelphiSign
p7662
(dp7663
g6012
(idelphi
DelphiIntegerValue
p7664
(dp7665
g78
S'1'
sbsg6015
S'-'
sbsg799
(i__main__
DelphiIdentAccess
p7666
(dp7667
g779
S'tempItemIndex'
p7668
sg781
(lp7669
sbsba(i__main__
DelphiAssignStatement
p7670
(dp7671
g776
Nsg799
(i__main__
DelphiIdentAccess
p7672
(dp7673
g779
S'filer'
p7674
sg781
(lp7675
(idelphi
DelphiFieldEndAccess
p7676
(dp7677
g785
S'streamLongint'
p7678
sba(idelphi
DelphiFunctionEndAccess
p7679
(dp7680
g789
(lp7681
(i__main__
DelphiIdentAccess
p7682
(dp7683
g779
S'tempItemIndex'
p7684
sg781
(lp7685
sbasbasbsba(idelphi
DelphiIfStatement
p7686
(dp7687
g1059
(idelphi
DelphiMulOp
p7688
(dp7689
g2210
(idelphi
DelphiNestedExpressionListAccess
p7690
(dp7691
g781
(lp7692
sg789
(lp7693
(idelphi
DelphiRelOp
p7694
(dp7695
g1266
(i__main__
DelphiIdentAccess
p7696
(dp7697
g779
S'tempItemIndex'
p7698
sg781
(lp7699
sbsg1271
(idelphi
DelphiAddOp
p7700
(dp7701
g1600
S'-'
sg1601
(idelphi
DelphiIntegerValue
p7702
(dp7703
g78
S'1'
sbsg1604
(i__main__
DelphiIdentAccess
p7704
(dp7705
g779
S'comboBox'
p7706
sg781
(lp7707
(idelphi
DelphiFieldEndAccess
p7708
(dp7709
g785
S'items'
p7710
sba(idelphi
DelphiFieldEndAccess
p7711
(dp7712
g785
S'count'
p7713
sbasbsbsg1274
S'<='
p7714
sbasbsg2215
g5356
sg2217
(idelphi
DelphiMulOp
p7715
(dp7716
g2210
(idelphi
DelphiNestedExpressionListAccess
p7717
(dp7718
g781
(lp7719
sg789
(lp7720
(idelphi
DelphiRelOp
p7721
(dp7722
g1266
(i__main__
DelphiIdentAccess
p7723
(dp7724
g779
S'tempItemIndex'
p7725
sg781
(lp7726
sbsg1271
(idelphi
DelphiIntegerValue
p7727
(dp7728
g78
S'0'
sbsg1274
S'>='
p7729
sbasbsg2215
g5356
sg2217
(idelphi
DelphiNestedExpressionListAccess
p7730
(dp7731
g781
(lp7732
sg789
(lp7733
(idelphi
DelphiRelOp
p7734
(dp7735
g1266
(i__main__
DelphiIdentAccess
p7736
(dp7737
g779
S'comboBox'
p7738
sg781
(lp7739
(idelphi
DelphiFieldEndAccess
p7740
(dp7741
g785
S'items'
p7742
sba(idelphi
DelphiFieldEndAccess
p7743
(dp7744
g785
S'count'
p7745
sbasbsg1271
(idelphi
DelphiIntegerValue
p7746
(dp7747
g78
S'0'
sbsg1274
S'>'
sbasbsbsbsg1067
Nsg1123
(i__main__
DelphiAssignStatement
p7748
(dp7749
g776
(i__main__
DelphiIdentAccess
p7750
(dp7751
g779
S'tempItemIndex'
p7752
sg781
(lp7753
sbsg799
(i__main__
DelphiIdentAccess
p7754
(dp7755
g779
S'comboBox'
p7756
sg781
(lp7757
(idelphi
DelphiFieldEndAccess
p7758
(dp7759
g785
S'itemIndex'
p7760
sbasbsbsbasbsbasbsg877
(lp7761
(i__main__
DelphiVarSection
p7762
(dp7763
g881
I0
sg882
(lp7764
(idelphi
DelphiVarDecl
p7765
(dp7766
g886
Nsg887
(lp7767
S'tempItemIndex'
p7768
asg75
(i__main__
DelphiPrimitiveType
p7769
(dp7770
g34
g298
sbsbasbasbsba(i__main__
DelphiProceduralImplementation
p7771
(dp7772
g739
(i__main__
DelphiProceduralDeclaration
p7773
(dp7774
g68
(lp7775
(i__main__
DelphiFormalParameter
p7776
(dp7777
g72
Nsg45
(lp7778
S'filer'
p7779
asg75
(i__main__
DelphiNamedType
p7780
(dp7781
g34
S'PdFiler'
p7782
sg87
g1
sg88
Nsbsg79
Nsba(i__main__
DelphiFormalParameter
p7783
(dp7784
g72
Nsg45
(lp7785
S'cvir'
p7786
asg75
(i__main__
DelphiNamedType
p7787
(dp7788
g34
S'PdClassAndVersionInformationRecord'
p7789
sg87
g1
sg88
Nsbsg79
g204
sba(i__main__
DelphiFormalParameter
p7790
(dp7791
g72
Nsg45
(lp7792
S'comboBox'
p7793
asg75
(i__main__
DelphiNamedType
p7794
(dp7795
g34
S'TComboBox'
p7796
sg87
g1
sg88
Nsbsg79
Nsba(i__main__
DelphiFormalParameter
p7797
(dp7798
g72
Nsg45
(lp7799
S'saveIndex'
p7800
asg75
(i__main__
DelphiPrimitiveType
p7801
(dp7802
g34
g298
sbsg79
g108
sbasg27
S'StreamComboBoxItemIndexToTempVarWithFiler'
p7803
sg90
Nsbsg27
g7803
sg90
Nsg754
(lp7804
I3
asg756
(lp7805
sg758
(lp7806
S'filer'
p7807
aS'cvir'
p7808
aS'comboBox'
p7809
aS'saveIndex'
p7810
asg761
(dp7811
g7810
(i__main__
DelphiPrimitiveType
p7812
(dp7813
g34
g298
sbsg7807
(i__main__
DelphiNamedType
p7814
(dp7815
g34
S'PdFiler'
p7816
sg87
g1
sg88
Nsbsg7808
(i__main__
DelphiNamedType
p7817
(dp7818
g34
S'PdClassAndVersionInformationRecord'
p7819
sg87
g1
sg88
Nsbsg7809
(i__main__
DelphiNamedType
p7820
(dp7821
g34
S'TComboBox'
p7822
sg87
g1
sg88
Nsbssg68
(lp7823
(i__main__
DelphiFormalParameter
p7824
(dp7825
g72
Nsg45
(lp7826
g7807
asg75
g7814
sg79
Nsba(i__main__
DelphiFormalParameter
p7827
(dp7828
g72
Nsg45
(lp7829
g7808
asg75
g7817
sg79
g204
sba(i__main__
DelphiFormalParameter
p7830
(dp7831
g72
Nsg45
(lp7832
g7809
asg75
g7820
sg79
Nsba(i__main__
DelphiFormalParameter
p7833
(dp7834
g72
Nsg45
(lp7835
g7810
asg75
g7812
sg79
g108
sbasg764
(lp7836
g7810
asg766
(i__main__
DelphiBlock
p7837
(dp7838
g769
(idelphi
DelphiCompoundStatement
p7839
(dp7840
g772
(lp7841
(idelphi
DelphiIfStatement
p7842
(dp7843
g1059
(i__main__
DelphiIdentAccess
p7844
(dp7845
g779
S'filer'
p7846
sg781
(lp7847
(idelphi
DelphiFieldEndAccess
p7848
(dp7849
g785
S'isReading'
p7850
sbasbsg1067
(idelphi
DelphiCompoundStatement
p7851
(dp7852
g772
(lp7853
(i__main__
DelphiAssignStatement
p7854
(dp7855
g776
(i__main__
DelphiIdentAccess
p7856
(dp7857
g779
S'comboBox'
p7858
sg781
(lp7859
(idelphi
DelphiFieldEndAccess
p7860
(dp7861
g785
S'itemIndex'
p7862
sbasbsg799
(i__main__
DelphiIdentAccess
p7863
(dp7864
g779
S'tempItemIndex'
p7865
sg781
(lp7866
sbsba(i__main__
DelphiAssignStatement
p7867
(dp7868
g776
Nsg799
(i__main__
DelphiIdentAccess
p7869
(dp7870
g779
S'filer'
p7871
sg781
(lp7872
(idelphi
DelphiFieldEndAccess
p7873
(dp7874
g785
S'streamLongint'
p7875
sba(idelphi
DelphiFunctionEndAccess
p7876
(dp7877
g789
(lp7878
(i__main__
DelphiIdentAccess
p7879
(dp7880
g779
S'tempItemIndex'
p7881
sg781
(lp7882
sbasbasbsbasbsg1123
(idelphi
DelphiCompoundStatement
p7883
(dp7884
g772
(lp7885
(i__main__
DelphiAssignStatement
p7886
(dp7887
g776
(idelphi
DelphiSign
p7888
(dp7889
g6012
(idelphi
DelphiIntegerValue
p7890
(dp7891
g78
S'1'
sbsg6015
S'-'
sbsg799
(i__main__
DelphiIdentAccess
p7892
(dp7893
g779
S'tempItemIndex'
p7894
sg781
(lp7895
sbsba(i__main__
DelphiAssignStatement
p7896
(dp7897
g776
Nsg799
(i__main__
DelphiIdentAccess
p7898
(dp7899
g779
S'filer'
p7900
sg781
(lp7901
(idelphi
DelphiFieldEndAccess
p7902
(dp7903
g785
S'streamLongint'
p7904
sba(idelphi
DelphiFunctionEndAccess
p7905
(dp7906
g789
(lp7907
(i__main__
DelphiIdentAccess
p7908
(dp7909
g779
S'tempItemIndex'
p7910
sg781
(lp7911
sbasbasbsba(i__main__
DelphiAssignStatement
p7912
(dp7913
g776
(i__main__
DelphiIdentAccess
p7914
(dp7915
g779
S'tempItemIndex'
p7916
sg781
(lp7917
sbsg799
(i__main__
DelphiIdentAccess
p7918
(dp7919
g779
S'saveIndex'
p7920
sg781
(lp7921
sbsbasbsbasbsg877
(lp7922
(i__main__
DelphiVarSection
p7923
(dp7924
g881
I0
sg882
(lp7925
(idelphi
DelphiVarDecl
p7926
(dp7927
g886
Nsg887
(lp7928
S'tempItemIndex'
p7929
asg75
(i__main__
DelphiPrimitiveType
p7930
(dp7931
g34
g298
sbsbasbasbsbasS'includedUnits'
p7932
NsS'implementationUses'
p7933
(lp7934
S'Consts'
p7935
aS'uclasses'
p7936
asg27
S'Ufiler'
p7937
sS'constSections'
p7938
(lp7939
g7056
asS'globalsInProperCase'
p7940
NsS'interfaceUses'
p7941
(lp7942
S'delphi_compatability'
p7943
aS'StdCtrls'
p7944
aS'Forms'
p7945
aS'Classes'
p7946
aS'SysUtils'
p7947
aS'WinTypes'
p7948
aS'Graphics'
p7949
aS'LZExpand'
p7950
aS'Controls'
p7951
aS'usupport'
p7952
asS'finalCommentToken'
p7953
(i__main__
PassStatement
p7954
(dp7955
g877
(lp7956
sg17
(lp7957
S'\r'
aS'{ when i switched to all 32-bit, i looked at this and it was all commented out and never used. so\r'
p7958
aS'  i am taking it out. }\r'
p7959
aS'    class procedure copyFile(Source, Dest: shortstring);\r'
p7960
aS'class procedure PdFiler.copyFile(Source, Dest: shortstring);\r'
p7961
aS'(*var\r'
p7962
aS'  SourceHand, DestHand: Integer;\r'
p7963
aS'  OpenBuf: TOFStruct;\r'
p7964
aS'begin\r'
p7965
aS'  { Place null-terminators at the end of the strings, so we can emulate a }\r'
p7966
aS'  { PChar.  Note that (for safety) this will truncate a string if it is   }\r'
p7967
aS"  { 255 characters long, but that's beyond the DOS filename limit anyway. }\r"
p7968
aS'  { Open source file, and pass our psuedo-PChar as the filename }\r'
p7969
aS'  SourceHand := LZOpenFile(pchar(Source), OpenBuf, of_Share_Deny_Write or of_Read);\r'
p7970
aS'  { raise an exception on error }\r'
p7971
aS'  if SourceHand = -1 then\r'
p7972
aS"    raise EInOutError.Create('Error opening source file');\r"
p7973
aS'  { Open destination file, and pass our psuedo-PChar as the filename }\r'
p7974
aS'  DestHand := LZOpenFile(pchar(Dest), OpenBuf, of_Share_Exclusive or of_Write\r'
p7975
aS'                         or of_Create);\r'
p7976
aS'  { close source and raise exception on error }\r'
p7977
aS'  if DestHand = -1 then begin\r'
p7978
aS'    LZClose(SourceHand);\r'
p7979
aS"    raise EInOutError.Create('Error opening destination file');\r"
p7980
aS'  end;\r'
p7981
aS'  try\r'
p7982
aS'    { copy source to dest, raise exception on error }\r'
p7983
aS'    if LZCopy(SourceHand, DestHand) < 0 then\r'
p7984
aS"      raise EInOutError.Create('Error copying file');\r"
p7985
aS'  finally\r'
p7986
aS'    { whether or not an exception occurs, we need to close the files }\r'
p7987
aS'    LZClose(SourceHand);\r'
p7988
aS'    LZClose(DestHand);\r'
p7989
aS'  end;\r'
p7990
aS'end; '
p7991
asbsS'varSections'
p7992
(lp7993
sS'globals'
p7994
NsS'originalFileName'
p7995
S'../../PlantStudioInPython/converted_source/used/ufiler.pas'
p7996
sS'proceduralImplementations'
p7997
(dp7998
S'streamcomboboxitemindexwithfiler'
p7999
g7557
sS'streamcomboboxitemindextotempvarwithfiler'
p8000
g7771
sS'streamformpositioninfowithfiler'
p8001
g7077
ssS'fileName'
p8002
S'/Users/pdf/Documents/workspace/PlantStudioInPython/converted_source/used/ufiler.pas'
p8003
sS'proceduralDeclarations'
p8004
(dp8005
S'streamcomboboxitemindexwithfiler'
p8006
g7559
sS'streamcomboboxitemindextotempvarwithfiler'
p8007
g7773
sS'streamformpositioninfowithfiler'
p8008
g7079
ssS'types'
p8009
(dp8010
S'pdfilermode'
p8011
g42
sS'pdexceptionfilerunexpectedclassnumber'
p8012
g7014
sS'pdstreamableobject'
p8013
g5558
sS'pdclassandversioninformationrecord'
p8014
g5
sS'pdexceptionfilerunexpectedversionnumber'
p8015
g7028
sS'pdexceptionfilerreadpastendofobject'
p8016
g7042
sS'pdexceptionfiler'
p8017
g6921
sS'pdfiler'
p8018
g50
ssb.