(i__main__
DelphiUnit
p1
(dp2
S'sectionsInOrderDefined'
p3
(lp4
(i__main__
DelphiClass
p5
(dp6
S'variableNamesInProperCase'
p7
(dp8
S'hasbeendrawn'
p9
S'hasBeenDrawn'
p10
sS'stage'
p11
S'stage'
p12
sS'daysopen'
p13
S'daysOpen'
p14
sS'daysaccumulatingfruitbiomass'
p15
S'daysAccumulatingFruitBiomass'
p16
sS'propfullsize'
p17
S'propFullSize'
p18
ssS'name'
p19
S'PdFlowerFruit'
p20
sS'methodDeclarations'
p21
(dp22
S'draw'
p23
(i__main__
DelphiMethodDeclaration
p24
(dp25
g19
S'draw'
p26
sS'formalParameters'
p27
(lp28
sS'className'
p29
g20
sS'resultType'
p30
NsS'isClassMethod'
p31
I0
sS'methodType'
p32
S'procedure'
p33
sbsS'addfloralpartscountstotraverser'
p34
(i__main__
DelphiMethodDeclaration
p35
(dp36
g19
S'addFloralPartsCountsToTraverser'
p37
sg27
(lp38
(i__main__
DelphiFormalParameter
p39
(dp40
S'initialValue'
p41
NsS'names'
p42
(lp43
S'traverser'
p44
asS'theType'
p45
(i__main__
DelphiNamedType
p46
(dp47
S'typeName'
p48
S'PdTraverser'
p49
sS'unitDefinedIn'
p50
g1
sS'unitName'
p51
NsbsS'parameterVariety'
p52
Nsbasg29
g20
sg30
Nsg31
I0
sg32
g33
sbsS'drawflower'
p53
(i__main__
DelphiMethodDeclaration
p54
(dp55
g19
S'drawFlower'
p56
sg27
(lp57
(i__main__
DelphiFormalParameter
p58
(dp59
g41
Nsg42
(lp60
S'drawAsOpening'
p61
asg45
(i__main__
DelphiPrimitiveType
p62
(dp63
g48
S'boolean'
p64
sbsg52
Nsbasg29
g20
sg30
Nsg31
I0
sg32
g33
sbsS'getname'
p65
(i__main__
DelphiMethodDeclaration
p66
(dp67
g19
S'getName'
p68
sg27
(lp69
sg29
g20
sg30
(i__main__
DelphiPrimitiveType
p70
(dp71
g48
S'string'
p72
sbsg31
I0
sg32
S'function'
p73
sbsS'parttype'
p74
(i__main__
DelphiMethodDeclaration
p75
(dp76
g19
S'partType'
p77
sg27
(lp78
sg29
g20
sg30
(i__main__
DelphiPrimitiveType
p79
(dp80
g48
S'integer'
p81
sbsg31
I0
sg32
g73
sbsS'initializegender'
p82
(i__main__
DelphiMethodDeclaration
p83
(dp84
g19
S'initializeGender'
p85
sg27
(lp86
(i__main__
DelphiFormalParameter
p87
(dp88
g41
Nsg42
(lp89
S'aPlant'
p90
asg45
(i__main__
DelphiNamedType
p91
(dp92
g48
S'PdPlant'
p93
sg50
g1
sg51
Nsbsg52
Nsba(i__main__
DelphiFormalParameter
p94
(dp95
g41
Nsg42
(lp96
S'aGender'
p97
asg45
(i__main__
DelphiPrimitiveType
p98
(dp99
g48
g81
sbsg52
Nsbasg29
g20
sg30
Nsg31
I0
sg32
g33
sbsS'drawcircleoftdos'
p100
(i__main__
DelphiMethodDeclaration
p101
(dp102
g19
S'drawCircleOfTdos'
p103
sg27
(lp104
(i__main__
DelphiFormalParameter
p105
(dp106
g41
Nsg42
(lp107
S'tdo'
p108
asg45
(i__main__
DelphiNamedType
p109
(dp110
g48
S'KfObject3D'
p111
sg50
g1
sg51
Nsbsg52
Nsba(i__main__
DelphiFormalParameter
p112
(dp113
g41
Nsg42
(lp114
S'faceColor'
p115
aS'backfaceColor'
p116
asg45
(i__main__
DelphiNamedType
p117
(dp118
g48
S'TColorRef'
p119
sg50
g1
sg51
Nsbsg52
Nsba(i__main__
DelphiFormalParameter
p120
(dp121
g41
Nsg42
(lp122
S'pullBackAngle'
p123
asg45
(i__main__
DelphiPrimitiveType
p124
(dp125
g48
S'single'
p126
sbsg52
Nsba(i__main__
DelphiFormalParameter
p127
(dp128
g41
Nsg42
(lp129
S'scale'
p130
asg45
(i__main__
DelphiPrimitiveType
p131
(dp132
g48
g126
sbsg52
Nsba(i__main__
DelphiFormalParameter
p133
(dp134
g41
Nsg42
(lp135
S'numParts'
p136
asg45
(i__main__
DelphiPrimitiveType
p137
(dp138
g48
g81
sbsg52
Nsba(i__main__
DelphiFormalParameter
p139
(dp140
g41
Nsg42
(lp141
S'partsArranged'
p142
asg45
(i__main__
DelphiPrimitiveType
p143
(dp144
g48
g64
sbsg52
Nsba(i__main__
DelphiFormalParameter
p145
(dp146
g41
Nsg42
(lp147
S'open'
p148
asg45
(i__main__
DelphiPrimitiveType
p149
(dp150
g48
g64
sbsg52
Nsba(i__main__
DelphiFormalParameter
p151
(dp152
g41
Nsg42
(lp153
S'dxfIndex'
p154
asg45
(i__main__
DelphiPrimitiveType
p155
(dp156
g48
S'smallint'
p157
sbsg52
Nsbasg29
g20
sg30
Nsg31
I0
sg32
g33
sbsS'traverseactivity'
p158
(i__main__
DelphiMethodDeclaration
p159
(dp160
g19
S'traverseActivity'
p161
sg27
(lp162
(i__main__
DelphiFormalParameter
p163
(dp164
g41
Nsg42
(lp165
S'mode'
p166
asg45
(i__main__
DelphiPrimitiveType
p167
(dp168
g48
g81
sbsg52
Nsba(i__main__
DelphiFormalParameter
p169
(dp170
g41
Nsg42
(lp171
S'traverserProxy'
p172
asg45
(i__main__
DelphiNamedType
p173
(dp174
g48
S'TObject'
p175
sg50
g1
sg51
Nsbsg52
Nsbasg29
g20
sg30
Nsg31
I0
sg32
g33
sbsS'tdotosortlineswith'
p176
(i__main__
DelphiMethodDeclaration
p177
(dp178
g19
S'tdoToSortLinesWith'
p179
sg27
(lp180
sg29
g20
sg30
(i__main__
DelphiNamedType
p181
(dp182
g48
S'KfObject3D'
p183
sg50
g1
sg51
Nsbsg31
I0
sg32
g73
sbsS'nextday'
p184
(i__main__
DelphiMethodDeclaration
p185
(dp186
g19
S'nextDay'
p187
sg27
(lp188
sg29
g20
sg30
Nsg31
I0
sg32
g33
sbsS'streamdatawithfiler'
p189
(i__main__
DelphiMethodDeclaration
p190
(dp191
g19
S'streamDataWithFiler'
p192
sg27
(lp193
(i__main__
DelphiFormalParameter
p194
(dp195
g41
Nsg42
(lp196
S'filer'
p197
asg45
(i__main__
DelphiNamedType
p198
(dp199
g48
S'PdFiler'
p200
sg50
g1
sg51
Nsbsg52
Nsba(i__main__
DelphiFormalParameter
p201
(dp202
g41
Nsg42
(lp203
S'cvir'
p204
asg45
(i__main__
DelphiNamedType
p205
(dp206
g48
S'PdClassAndVersionInformationRecord'
p207
sg50
g1
sg51
Nsbsg52
S'const'
p208
sbasg29
g20
sg30
Nsg31
I0
sg32
g33
sbsS'countpointsandtrianglesfor3dexportandaddtotraversertotals'
p209
(i__main__
DelphiMethodDeclaration
p210
(dp211
g19
S'countPointsAndTrianglesFor3DExportAndAddToTraverserTotals'
p212
sg27
(lp213
(i__main__
DelphiFormalParameter
p214
(dp215
g41
Nsg42
(lp216
S'traverser'
p217
asg45
(i__main__
DelphiNamedType
p218
(dp219
g48
S'PdTraverser'
p220
sg50
g1
sg51
Nsbsg52
Nsbasg29
g20
sg30
Nsg31
I0
sg32
g33
sbsS'report'
p221
(i__main__
DelphiMethodDeclaration
p222
(dp223
g19
S'report'
p224
sg27
(lp225
sg29
g20
sg30
Nsg31
I0
sg32
g33
sbsS'drawpistilsandstamens'
p226
(i__main__
DelphiMethodDeclaration
p227
(dp228
g19
S'drawPistilsAndStamens'
p229
sg27
(lp230
(i__main__
DelphiFormalParameter
p231
(dp232
g41
Nsg42
(lp233
S'drawAsOpening'
p234
asg45
(i__main__
DelphiPrimitiveType
p235
(dp236
g48
g64
sbsg52
Nsbasg29
g20
sg30
Nsg31
I0
sg32
g33
sbsS'dxfindexforflorallayertype'
p237
(i__main__
DelphiMethodDeclaration
p238
(dp239
g19
S'dxfIndexForFloralLayerType'
p240
sg27
(lp241
(i__main__
DelphiFormalParameter
p242
(dp243
g41
Nsg42
(lp244
S'aType'
p245
asg45
(i__main__
DelphiPrimitiveType
p246
(dp247
g48
g157
sbsg52
Nsba(i__main__
DelphiFormalParameter
p248
(dp249
g41
Nsg42
(lp250
S'line'
p251
asg45
(i__main__
DelphiPrimitiveType
p252
(dp253
g48
g64
sbsg52
Nsbasg29
g20
sg30
(i__main__
DelphiPrimitiveType
p254
(dp255
g48
g157
sbsg31
I0
sg32
g73
sbsS'classandversioninformation'
p256
(i__main__
DelphiMethodDeclaration
p257
(dp258
g19
S'classAndVersionInformation'
p259
sg27
(lp260
(i__main__
DelphiFormalParameter
p261
(dp262
g41
Nsg42
(lp263
S'cvir'
p264
asg45
(i__main__
DelphiNamedType
p265
(dp266
g48
S'PdClassAndVersionInformationRecord'
p267
sg50
g1
sg51
Nsbsg52
S'var'
p268
sbasg29
g20
sg30
Nsg31
I0
sg32
g33
sbsS'trianglecountinfloralparts'
p269
(i__main__
DelphiMethodDeclaration
p270
(dp271
g19
S'triangleCountInFloralParts'
p272
sg27
(lp273
sg29
g20
sg30
(i__main__
DelphiPrimitiveType
p274
(dp275
g48
g81
sbsg31
I0
sg32
g73
sbssS'superclassNamedTypes'
p276
(lp277
(i__main__
DelphiNamedType
p278
(dp279
g48
S'PdPlantPart'
p280
sg50
g1
sg51
NsbasS'variableNames'
p281
(dp282
S'hasbeendrawn'
p283
(i__main__
DelphiPrimitiveType
p284
(dp285
g48
g64
sbsS'stage'
p286
(i__main__
DelphiPrimitiveType
p287
(dp288
g48
g157
sbsS'daysopen'
p289
(i__main__
DelphiPrimitiveType
p290
(dp291
g48
S'longint'
p292
sbsS'daysaccumulatingfruitbiomass'
p293
g290
sS'propfullsize'
p294
(i__main__
DelphiPrimitiveType
p295
(dp296
g48
g126
sbssS'methodNamesInDefinedOrder'
p297
(lp298
S'initializegender'
p299
aS'getname'
p300
aS'nextday'
p301
aS'traverseactivity'
p302
aS'report'
p303
aS'dxfindexforflorallayertype'
p304
aS'draw'
p305
aS'drawflower'
p306
aS'drawpistilsandstamens'
p307
aS'countpointsandtrianglesfor3dexportandaddtotraversertotals'
p308
aS'addfloralpartscountstotraverser'
p309
aS'trianglecountinfloralparts'
p310
aS'tdotosortlineswith'
p311
aS'drawcircleoftdos'
p312
aS'parttype'
p313
aS'classandversioninformation'
p314
aS'streamdatawithfiler'
p315
asS'methodImplementations'
p316
(dp317
S'draw'
p318
(i__main__
DelphiMethodImplementation
p319
(dp320
S'originalDeclaration'
p321
g24
sg19
g26
sg27
(lp322
sS'varParamIndexes'
p323
(lp324
sS'varParamsSkipped'
p325
(lp326
sS'argNames'
p327
(lp328
S'self'
p329
asS'argTypes'
p330
(dp331
sg29
S'PdFlowerFruit'
p332
sg30
NsS'varParamNames'
p333
(lp334
sg31
I0
sg32
g33
sS'block'
p335
(i__main__
DelphiBlock
p336
(dp337
S'compoundStatement'
p338
(idelphi
DelphiCompoundStatement
p339
(dp340
S'statements'
p341
(lp342
(idelphi
DelphiIfStatement
p343
(dp344
S'expression'
p345
(idelphi
DelphiNestedExpressionListAccess
p346
(dp347
S'endAccessList'
p348
(lp349
sS'expressionList'
p350
(lp351
(idelphi
DelphiRelOp
p352
(dp353
S'simpleExpression1'
p354
(i__main__
DelphiIdentAccess
p355
(dp356
S'ident'
p357
S'plant'
p358
sg348
(lp359
(idelphi
DelphiFieldEndAccess
p360
(dp361
S'field'
p362
S'turtle'
p363
sbasbsS'simpleExpression2'
p364
(idelphi
DelphiNilValue
p365
(dp366
bsS'relOp'
p367
S'='
sbasbsS'ifFalseStatement'
p368
NsS'ifTrueStatement'
p369
(i__main__
DelphiExitStatement
p370
(dp371
S'proceduralOrMethodImplementation'
p372
g319
sbsba(i__main__
DelphiAssignStatement
p373
(dp374
S'newValueExpression'
p375
(i__main__
DelphiIdentAccess
p376
(dp377
g357
S'plant'
p378
sg348
(lp379
(idelphi
DelphiFieldEndAccess
p380
(dp381
g362
S'turtle'
p382
sbasbsS'destinationExpression'
p383
(i__main__
DelphiIdentAccess
p384
(dp385
g357
S'turtle'
p386
sg348
(lp387
sbsba(i__main__
DelphiAssignStatement
p388
(dp389
g375
(i__main__
DelphiIdentAccess
p390
(dp391
g357
S'Rect'
p392
sg348
(lp393
(idelphi
DelphiFunctionEndAccess
p394
(dp395
g350
(lp396
(idelphi
DelphiIntegerValue
p397
(dp398
g72
S'0'
sba(idelphi
DelphiIntegerValue
p399
(dp400
g72
S'0'
sba(idelphi
DelphiIntegerValue
p401
(dp402
g72
S'0'
sba(idelphi
DelphiIntegerValue
p403
(dp404
g72
S'0'
sbasbasbsg383
(i__main__
DelphiIdentAccess
p405
(dp406
g357
S'self'
p407
sg348
(lp408
(idelphi
DelphiFieldEndAccess
p409
(dp410
g362
S'boundsRect'
p411
sbasbsba(idelphi
DelphiIfStatement
p412
(dp413
g345
(i__main__
DelphiIdentAccess
p414
(dp415
g357
S'self'
p416
sg348
(lp417
(idelphi
DelphiFieldEndAccess
p418
(dp419
g362
S'hasFallenOff'
p420
sbasbsg368
Nsg369
(i__main__
DelphiExitStatement
p421
(dp422
g372
g319
sbsba(i__main__
DelphiAssignStatement
p423
(dp424
g375
Nsg383
(i__main__
DelphiIdentAccess
p425
(dp426
g357
S'turtle'
p427
sg348
(lp428
(idelphi
DelphiFieldEndAccess
p429
(dp430
g362
S'push'
p431
sbasbsba(i__main__
DelphiAssignStatement
p432
(dp433
g375
Nsg383
(i__main__
DelphiIdentAccess
p434
(dp435
g357
S'self'
p436
sg348
(lp437
(idelphi
DelphiFieldEndAccess
p438
(dp439
g362
S'determineAmendmentAndAlsoForChildrenIfAny'
p440
sbasbsba(idelphi
DelphiIfStatement
p441
(dp442
g345
(i__main__
DelphiIdentAccess
p443
(dp444
g357
S'self'
p445
sg348
(lp446
(idelphi
DelphiFieldEndAccess
p447
(dp448
g362
S'hiddenByAmendment'
p449
sbasbsg368
(i__main__
DelphiAssignStatement
p450
(dp451
g375
Nsg383
(i__main__
DelphiIdentAccess
p452
(dp453
g357
S'self'
p454
sg348
(lp455
(idelphi
DelphiFieldEndAccess
p456
(dp457
g362
S'applyAmendmentRotations'
p458
sbasbsbsg369
(idelphi
DelphiCompoundStatement
p459
(dp460
g341
(lp461
(i__main__
DelphiAssignStatement
p462
(dp463
g375
Nsg383
(i__main__
DelphiIdentAccess
p464
(dp465
g357
S'turtle'
p466
sg348
(lp467
(idelphi
DelphiFieldEndAccess
p468
(dp469
g362
S'pop'
p470
sbasbsba(i__main__
DelphiExitStatement
p471
(dp472
g372
g319
sbasbsba(idelphi
DelphiTryExceptStatement
p473
(dp474
S'tryStatements'
p475
(lp476
(idelphi
DelphiCaseStatement
p477
(dp478
S'elseStatement'
p479
Nsg345
(i__main__
DelphiIdentAccess
p480
(dp481
g357
S'stage'
p482
sg348
(lp483
sbsS'caseSelectorList'
p484
(lp485
(idelphi
DelphiCaseSelector
p486
(dp487
S'statement'
p488
(idelphi
DelphiCaseStatement
p489
(dp490
g479
Nsg345
(i__main__
DelphiIdentAccess
p491
(dp492
g357
S'plant'
p493
sg348
(lp494
(idelphi
DelphiFieldEndAccess
p495
(dp496
g362
S'pFlower'
p497
sba(idelphi
DelphiArrayEndAccess
p498
(dp499
g350
(lp500
(i__main__
DelphiIdentAccess
p501
(dp502
g357
S'gender'
p503
sg348
(lp504
sbasba(idelphi
DelphiFieldEndAccess
p505
(dp506
g362
S'budDrawingOption'
p507
sbasbsg484
(lp508
(idelphi
DelphiCaseSelector
p509
(dp510
g488
(i__main__
DelphiExitStatement
p511
(dp512
g372
g319
sS'commentLinesBefore'
p513
(lp514
S' kDrawNoBud = 0; kDrawSingleTdoBud = 1; kDrawOpeningFlower = 2;\r'
p515
asbsS'caseLabelList'
p516
(lp517
(i__main__
DelphiIdentAccess
p518
(dp519
g357
S'kDrawNoBud'
p520
sg348
(lp521
sbasba(idelphi
DelphiCaseSelector
p522
(dp523
g488
(idelphi
DelphiWithStatement
p524
(dp525
g488
(idelphi
DelphiCompoundStatement
p526
(dp527
g341
(lp528
(i__main__
DelphiAssignStatement
p529
(dp530
g375
(idelphi
DelphiNestedExpressionListAccess
p531
(dp532
g348
(lp533
sg350
(lp534
(idelphi
DelphiMulOp
p535
(dp536
S'signedFactor2'
p537
(i__main__
DelphiIdentAccess
p538
(dp539
g357
S'propFullSize'
p540
sg348
(lp541
sbsS'mulOp'
p542
S'*'
sS'signedFactor1'
p543
(idelphi
DelphiNestedExpressionListAccess
p544
(dp545
g348
(lp546
sg350
(lp547
(idelphi
DelphiMulOp
p548
(dp549
g537
(idelphi
DelphiRealValue
p550
(dp551
g72
S'100.0'
p552
sbsg542
S'/'
sg543
(i__main__
DelphiIdentAccess
p553
(dp554
g357
S'scaleAtFullSize'
p555
sg348
(lp556
sbsbasbsbasbsg383
(i__main__
DelphiIdentAccess
p557
(dp558
g357
S'scale'
p559
sg348
(lp560
sbsba(i__main__
DelphiAssignStatement
p561
(dp562
g375
Nsg383
(i__main__
DelphiIdentAccess
p563
(dp564
g357
S'turtle'
p565
sg348
(lp566
(idelphi
DelphiFieldEndAccess
p567
(dp568
g362
S'rotateX'
p569
sba(idelphi
DelphiFunctionEndAccess
p570
(dp571
g350
(lp572
(i__main__
DelphiIdentAccess
p573
(dp574
g357
S'self'
p575
sg348
(lp576
(idelphi
DelphiFieldEndAccess
p577
(dp578
g362
S'angleWithSway'
p579
sba(idelphi
DelphiFunctionEndAccess
p580
(dp581
g350
(lp582
(i__main__
DelphiIdentAccess
p583
(dp584
g357
S'xRotationBeforeDraw'
p585
sg348
(lp586
sbasbasbasbasbsba(i__main__
DelphiAssignStatement
p587
(dp588
g375
Nsg383
(i__main__
DelphiIdentAccess
p589
(dp590
g357
S'turtle'
p591
sg348
(lp592
(idelphi
DelphiFieldEndAccess
p593
(dp594
g362
S'rotateY'
p595
sba(idelphi
DelphiFunctionEndAccess
p596
(dp597
g350
(lp598
(i__main__
DelphiIdentAccess
p599
(dp600
g357
S'self'
p601
sg348
(lp602
(idelphi
DelphiFieldEndAccess
p603
(dp604
g362
S'angleWithSway'
p605
sba(idelphi
DelphiFunctionEndAccess
p606
(dp607
g350
(lp608
(i__main__
DelphiIdentAccess
p609
(dp610
g357
S'yRotationBeforeDraw'
p611
sg348
(lp612
sbasbasbasbasbsba(i__main__
DelphiAssignStatement
p613
(dp614
g375
Nsg383
(i__main__
DelphiIdentAccess
p615
(dp616
g357
S'turtle'
p617
sg348
(lp618
(idelphi
DelphiFieldEndAccess
p619
(dp620
g362
S'rotateZ'
p621
sba(idelphi
DelphiFunctionEndAccess
p622
(dp623
g350
(lp624
(i__main__
DelphiIdentAccess
p625
(dp626
g357
S'self'
p627
sg348
(lp628
(idelphi
DelphiFieldEndAccess
p629
(dp630
g362
S'angleWithSway'
p631
sba(idelphi
DelphiFunctionEndAccess
p632
(dp633
g350
(lp634
(i__main__
DelphiIdentAccess
p635
(dp636
g357
S'zRotationBeforeDraw'
p637
sg348
(lp638
sbasbasbasbasbsba(i__main__
DelphiAssignStatement
p639
(dp640
g375
Nsg383
(i__main__
DelphiIdentAccess
p641
(dp642
g357
S'drawCircleOfTdos'
p643
sg348
(lp644
(idelphi
DelphiFunctionEndAccess
p645
(dp646
g350
(lp647
(i__main__
DelphiIdentAccess
p648
(dp649
g357
S'object3D'
p650
sg348
(lp651
sba(i__main__
DelphiIdentAccess
p652
(dp653
g357
S'faceColor'
p654
sg348
(lp655
sba(i__main__
DelphiIdentAccess
p656
(dp657
g357
S'backfaceColor'
p658
sg348
(lp659
sba(i__main__
DelphiIdentAccess
p660
(dp661
g357
S'pullBackAngle'
p662
sg348
(lp663
sba(i__main__
DelphiIdentAccess
p664
(dp665
g357
S'scale'
p666
sg348
(lp667
sba(i__main__
DelphiIdentAccess
p668
(dp669
g357
S'repetitions'
p670
sg348
(lp671
sba(i__main__
DelphiIdentAccess
p672
(dp673
g357
S'radiallyArranged'
p674
sg348
(lp675
sba(i__main__
DelphiIdentAccess
p676
(dp677
g357
S'kDrawTDOClosed'
p678
sg348
(lp679
sba(i__main__
DelphiIdentAccess
p680
(dp681
g357
S'kExportPartFlowerBudFemale'
p682
sg348
(lp683
sbasbasbsbasbsS'variableReferenceList'
p684
(lp685
(i__main__
DelphiIdentAccess
p686
(dp687
g357
S'plant'
p688
sg348
(lp689
(idelphi
DelphiFieldEndAccess
p690
(dp691
g362
S'pFlower'
p692
sba(idelphi
DelphiArrayEndAccess
p693
(dp694
g350
(lp695
(i__main__
DelphiIdentAccess
p696
(dp697
g357
S'gender'
p698
sg348
(lp699
sbasba(idelphi
DelphiFieldEndAccess
p700
(dp701
g362
S'tdoParams'
p702
sba(idelphi
DelphiArrayEndAccess
p703
(dp704
g350
(lp705
(i__main__
DelphiIdentAccess
p706
(dp707
g357
S'kBud'
p708
sg348
(lp709
sbasbasbasbsg516
(lp710
(i__main__
DelphiIdentAccess
p711
(dp712
g357
S'kDrawSingleTdoBud'
p713
sg348
(lp714
sbasba(idelphi
DelphiCaseSelector
p715
(dp716
g488
(i__main__
DelphiAssignStatement
p717
(dp718
g375
Nsg383
(i__main__
DelphiIdentAccess
p719
(dp720
g357
S'self'
p721
sg348
(lp722
(idelphi
DelphiFieldEndAccess
p723
(dp724
g362
S'drawFlower'
p725
sba(idelphi
DelphiFunctionEndAccess
p726
(dp727
g350
(lp728
(i__main__
DelphiIdentAccess
p729
(dp730
g357
S'kDrawFlowerAsOpening'
p731
sg348
(lp732
sbasbasbsbsg516
(lp733
(i__main__
DelphiIdentAccess
p734
(dp735
g357
S'kDrawOpeningFlower'
p736
sg348
(lp737
sbasbasbsg516
(lp738
(i__main__
DelphiIdentAccess
p739
(dp740
g357
S'kStageFlowerBud'
p741
sg348
(lp742
sbasba(idelphi
DelphiCaseSelector
p743
(dp744
g488
(i__main__
DelphiAssignStatement
p745
(dp746
g375
Nsg383
(i__main__
DelphiIdentAccess
p747
(dp748
g357
S'self'
p749
sg348
(lp750
(idelphi
DelphiFieldEndAccess
p751
(dp752
g362
S'drawFlower'
p753
sba(idelphi
DelphiFunctionEndAccess
p754
(dp755
g350
(lp756
(i__main__
DelphiIdentAccess
p757
(dp758
g357
S'kDontDrawFlowerAsOpening'
p759
sg348
(lp760
sbasbasbsbsg516
(lp761
(i__main__
DelphiIdentAccess
p762
(dp763
g357
S'kStageOpenFlower'
p764
sg348
(lp765
sbasba(idelphi
DelphiCaseSelector
p766
(dp767
g488
(idelphi
DelphiCompoundStatement
p768
(dp769
g341
(lp770
(idelphi
DelphiWithStatement
p771
(dp772
g488
(idelphi
DelphiCompoundStatement
p773
(dp774
g341
(lp775
(i__main__
DelphiAssignStatement
p776
(dp777
g375
(idelphi
DelphiNestedExpressionListAccess
p778
(dp779
g348
(lp780
sg350
(lp781
(idelphi
DelphiMulOp
p782
(dp783
g537
(i__main__
DelphiIdentAccess
p784
(dp785
g357
S'propFullSize'
p786
sg348
(lp787
sbsg542
S'*'
sg543
(idelphi
DelphiNestedExpressionListAccess
p788
(dp789
g348
(lp790
sg350
(lp791
(idelphi
DelphiMulOp
p792
(dp793
g537
(idelphi
DelphiRealValue
p794
(dp795
g72
S'100.0'
p796
sbsg542
S'/'
sg543
(i__main__
DelphiIdentAccess
p797
(dp798
g357
S'scaleAtFullSize'
p799
sg348
(lp800
sbsbasbsbasbsg383
(i__main__
DelphiIdentAccess
p801
(dp802
g357
S'scale'
p803
sg348
(lp804
sbsg513
(lp805
S' ripe color is regular color; alternate color is unripe color\r'
p806
asba(i__main__
DelphiAssignStatement
p807
(dp808
g375
Nsg383
(i__main__
DelphiIdentAccess
p809
(dp810
g357
S'turtle'
p811
sg348
(lp812
(idelphi
DelphiFieldEndAccess
p813
(dp814
g362
S'rotateX'
p815
sba(idelphi
DelphiFunctionEndAccess
p816
(dp817
g350
(lp818
(i__main__
DelphiIdentAccess
p819
(dp820
g357
S'self'
p821
sg348
(lp822
(idelphi
DelphiFieldEndAccess
p823
(dp824
g362
S'angleWithSway'
p825
sba(idelphi
DelphiFunctionEndAccess
p826
(dp827
g350
(lp828
(i__main__
DelphiIdentAccess
p829
(dp830
g357
S'xRotationBeforeDraw'
p831
sg348
(lp832
sbasbasbasbasbsba(i__main__
DelphiAssignStatement
p833
(dp834
g375
Nsg383
(i__main__
DelphiIdentAccess
p835
(dp836
g357
S'turtle'
p837
sg348
(lp838
(idelphi
DelphiFieldEndAccess
p839
(dp840
g362
S'rotateY'
p841
sba(idelphi
DelphiFunctionEndAccess
p842
(dp843
g350
(lp844
(i__main__
DelphiIdentAccess
p845
(dp846
g357
S'self'
p847
sg348
(lp848
(idelphi
DelphiFieldEndAccess
p849
(dp850
g362
S'angleWithSway'
p851
sba(idelphi
DelphiFunctionEndAccess
p852
(dp853
g350
(lp854
(i__main__
DelphiIdentAccess
p855
(dp856
g357
S'yRotationBeforeDraw'
p857
sg348
(lp858
sbasbasbasbasbsba(i__main__
DelphiAssignStatement
p859
(dp860
g375
Nsg383
(i__main__
DelphiIdentAccess
p861
(dp862
g357
S'turtle'
p863
sg348
(lp864
(idelphi
DelphiFieldEndAccess
p865
(dp866
g362
S'rotateZ'
p867
sba(idelphi
DelphiFunctionEndAccess
p868
(dp869
g350
(lp870
(i__main__
DelphiIdentAccess
p871
(dp872
g357
S'self'
p873
sg348
(lp874
(idelphi
DelphiFieldEndAccess
p875
(dp876
g362
S'angleWithSway'
p877
sba(idelphi
DelphiFunctionEndAccess
p878
(dp879
g350
(lp880
(i__main__
DelphiIdentAccess
p881
(dp882
g357
S'zRotationBeforeDraw'
p883
sg348
(lp884
sbasbasbasbasbsba(i__main__
DelphiAssignStatement
p885
(dp886
g375
Nsg383
(i__main__
DelphiIdentAccess
p887
(dp888
g357
S'drawCircleOfTdos'
p889
sg348
(lp890
(idelphi
DelphiFunctionEndAccess
p891
(dp892
g350
(lp893
(i__main__
DelphiIdentAccess
p894
(dp895
g357
S'object3D'
p896
sg348
(lp897
sba(i__main__
DelphiIdentAccess
p898
(dp899
g357
S'alternateFaceColor'
p900
sg348
(lp901
sba(i__main__
DelphiIdentAccess
p902
(dp903
g357
S'alternateBackfaceColor'
p904
sg348
(lp905
sba(i__main__
DelphiIdentAccess
p906
(dp907
g357
S'pullBackAngle'
p908
sg348
(lp909
sba(i__main__
DelphiIdentAccess
p910
(dp911
g357
S'scale'
p912
sg348
(lp913
sba(i__main__
DelphiIdentAccess
p914
(dp915
g357
S'repetitions'
p916
sg348
(lp917
sba(i__main__
DelphiIdentAccess
p918
(dp919
g357
S'radiallyArranged'
p920
sg348
(lp921
sba(i__main__
DelphiIdentAccess
p922
(dp923
g357
S'kDrawTDOClosed'
p924
sg348
(lp925
sba(i__main__
DelphiIdentAccess
p926
(dp927
g357
S'kExportPartUnripeFruit'
p928
sg348
(lp929
sbasbasbsbasbsg684
(lp930
(i__main__
DelphiIdentAccess
p931
(dp932
g357
S'plant'
p933
sg348
(lp934
(idelphi
DelphiFieldEndAccess
p935
(dp936
g362
S'pFruit'
p937
sba(idelphi
DelphiFieldEndAccess
p938
(dp939
g362
S'tdoParams'
p940
sbasbasbasbsg516
(lp941
(i__main__
DelphiIdentAccess
p942
(dp943
g357
S'kStageUnripeFruit'
p944
sg348
(lp945
sbasba(idelphi
DelphiCaseSelector
p946
(dp947
g488
(idelphi
DelphiCompoundStatement
p948
(dp949
g341
(lp950
(idelphi
DelphiWithStatement
p951
(dp952
g488
(idelphi
DelphiCompoundStatement
p953
(dp954
g341
(lp955
(i__main__
DelphiAssignStatement
p956
(dp957
g375
(idelphi
DelphiNestedExpressionListAccess
p958
(dp959
g348
(lp960
sg350
(lp961
(idelphi
DelphiMulOp
p962
(dp963
g537
(i__main__
DelphiIdentAccess
p964
(dp965
g357
S'propFullSize'
p966
sg348
(lp967
sbsg542
S'*'
sg543
(idelphi
DelphiNestedExpressionListAccess
p968
(dp969
g348
(lp970
sg350
(lp971
(idelphi
DelphiMulOp
p972
(dp973
g537
(idelphi
DelphiRealValue
p974
(dp975
g72
S'100.0'
p976
sbsg542
S'/'
sg543
(i__main__
DelphiIdentAccess
p977
(dp978
g357
S'scaleAtFullSize'
p979
sg348
(lp980
sbsbasbsbasbsg383
(i__main__
DelphiIdentAccess
p981
(dp982
g357
S'scale'
p983
sg348
(lp984
sbsba(i__main__
DelphiAssignStatement
p985
(dp986
g375
Nsg383
(i__main__
DelphiIdentAccess
p987
(dp988
g357
S'turtle'
p989
sg348
(lp990
(idelphi
DelphiFieldEndAccess
p991
(dp992
g362
S'rotateX'
p993
sba(idelphi
DelphiFunctionEndAccess
p994
(dp995
g350
(lp996
(i__main__
DelphiIdentAccess
p997
(dp998
g357
S'self'
p999
sg348
(lp1000
(idelphi
DelphiFieldEndAccess
p1001
(dp1002
g362
S'angleWithSway'
p1003
sba(idelphi
DelphiFunctionEndAccess
p1004
(dp1005
g350
(lp1006
(i__main__
DelphiIdentAccess
p1007
(dp1008
g357
S'xRotationBeforeDraw'
p1009
sg348
(lp1010
sbasbasbasbasbsba(i__main__
DelphiAssignStatement
p1011
(dp1012
g375
Nsg383
(i__main__
DelphiIdentAccess
p1013
(dp1014
g357
S'turtle'
p1015
sg348
(lp1016
(idelphi
DelphiFieldEndAccess
p1017
(dp1018
g362
S'rotateY'
p1019
sba(idelphi
DelphiFunctionEndAccess
p1020
(dp1021
g350
(lp1022
(i__main__
DelphiIdentAccess
p1023
(dp1024
g357
S'self'
p1025
sg348
(lp1026
(idelphi
DelphiFieldEndAccess
p1027
(dp1028
g362
S'angleWithSway'
p1029
sba(idelphi
DelphiFunctionEndAccess
p1030
(dp1031
g350
(lp1032
(i__main__
DelphiIdentAccess
p1033
(dp1034
g357
S'yRotationBeforeDraw'
p1035
sg348
(lp1036
sbasbasbasbasbsba(i__main__
DelphiAssignStatement
p1037
(dp1038
g375
Nsg383
(i__main__
DelphiIdentAccess
p1039
(dp1040
g357
S'turtle'
p1041
sg348
(lp1042
(idelphi
DelphiFieldEndAccess
p1043
(dp1044
g362
S'rotateZ'
p1045
sba(idelphi
DelphiFunctionEndAccess
p1046
(dp1047
g350
(lp1048
(i__main__
DelphiIdentAccess
p1049
(dp1050
g357
S'self'
p1051
sg348
(lp1052
(idelphi
DelphiFieldEndAccess
p1053
(dp1054
g362
S'angleWithSway'
p1055
sba(idelphi
DelphiFunctionEndAccess
p1056
(dp1057
g350
(lp1058
(i__main__
DelphiIdentAccess
p1059
(dp1060
g357
S'zRotationBeforeDraw'
p1061
sg348
(lp1062
sbasbasbasbasbsba(i__main__
DelphiAssignStatement
p1063
(dp1064
g375
Nsg383
(i__main__
DelphiIdentAccess
p1065
(dp1066
g357
S'drawCircleOfTdos'
p1067
sg348
(lp1068
(idelphi
DelphiFunctionEndAccess
p1069
(dp1070
g350
(lp1071
(i__main__
DelphiIdentAccess
p1072
(dp1073
g357
S'object3D'
p1074
sg348
(lp1075
sba(i__main__
DelphiIdentAccess
p1076
(dp1077
g357
S'faceColor'
p1078
sg348
(lp1079
sba(i__main__
DelphiIdentAccess
p1080
(dp1081
g357
S'backfaceColor'
p1082
sg348
(lp1083
sba(i__main__
DelphiIdentAccess
p1084
(dp1085
g357
S'pullBackAngle'
p1086
sg348
(lp1087
sba(i__main__
DelphiIdentAccess
p1088
(dp1089
g357
S'scale'
p1090
sg348
(lp1091
sba(i__main__
DelphiIdentAccess
p1092
(dp1093
g357
S'repetitions'
p1094
sg348
(lp1095
sba(i__main__
DelphiIdentAccess
p1096
(dp1097
g357
S'radiallyArranged'
p1098
sg348
(lp1099
sba(i__main__
DelphiIdentAccess
p1100
(dp1101
g357
S'kDrawTDOClosed'
p1102
sg348
(lp1103
sba(i__main__
DelphiIdentAccess
p1104
(dp1105
g357
S'kExportPartRipeFruit'
p1106
sg348
(lp1107
sbasbasbsbasbsg684
(lp1108
(i__main__
DelphiIdentAccess
p1109
(dp1110
g357
S'plant'
p1111
sg348
(lp1112
(idelphi
DelphiFieldEndAccess
p1113
(dp1114
g362
S'pFruit'
p1115
sba(idelphi
DelphiFieldEndAccess
p1116
(dp1117
g362
S'tdoParams'
p1118
sbasbasbasbsg516
(lp1119
(i__main__
DelphiIdentAccess
p1120
(dp1121
g357
S'kStageRipeFruit'
p1122
sg348
(lp1123
sbasbasba(i__main__
DelphiAssignStatement
p1124
(dp1125
g375
(i__main__
DelphiIdentAccess
p1126
(dp1127
g357
S'true'
p1128
sg348
(lp1129
sbsg383
(i__main__
DelphiIdentAccess
p1130
(dp1131
g357
S'hasBeenDrawn'
p1132
sg348
(lp1133
sbsba(i__main__
DelphiAssignStatement
p1134
(dp1135
g375
Nsg383
(i__main__
DelphiIdentAccess
p1136
(dp1137
g357
S'turtle'
p1138
sg348
(lp1139
(idelphi
DelphiFieldEndAccess
p1140
(dp1141
g362
S'pop'
p1142
sbasbsbasS'exceptionHandlers'
p1143
(idelphi
DelphiExceptionHandlers
p1144
(dp1145
S'exceptionHandlerList'
p1146
(lp1147
(idelphi
DelphiExceptionHandler
p1148
(dp1149
S'classTypeIdentifier'
p1150
(i__main__
DelphiNamedType
p1151
(dp1152
g48
S'Exception'
p1153
sg50
g1
sg51
Nsbsg357
S'e'
sg488
(i__main__
DelphiAssignStatement
p1154
(dp1155
g375
Nsg383
(i__main__
DelphiIdentAccess
p1156
(dp1157
g357
S'messageForExceptionType'
p1158
sg348
(lp1159
(idelphi
DelphiFunctionEndAccess
p1160
(dp1161
g350
(lp1162
(i__main__
DelphiIdentAccess
p1163
(dp1164
g357
S'e'
sg348
(lp1165
sba(idelphi
DelphiStringAccess
p1166
(dp1167
g348
(lp1168
sg72
(idelphi
DelphiStringValue
p1169
(dp1170
g72
S'PdFlowerFruit.draw'
p1171
sbsbasbasbsbsbasS'statementList'
p1172
(lp1173
sbsbasbsS'limitedDeclSectionList'
p1174
(lp1175
(i__main__
DelphiVarSection
p1176
(dp1177
S'atTopLevel'
p1178
I0
sS'varDeclList'
p1179
(lp1180
(idelphi
DelphiVarDecl
p1181
(dp1182
S'constExpression'
p1183
NsS'identList'
p1184
(lp1185
S'scale'
p1186
aS'length'
p1187
aS'width'
p1188
asg45
(i__main__
DelphiPrimitiveType
p1189
(dp1190
g48
g126
sbsba(idelphi
DelphiVarDecl
p1191
(dp1192
g1183
Nsg1184
(lp1193
S'turtle'
p1194
asg45
(i__main__
DelphiNamedType
p1195
(dp1196
g48
S'KfTurtle'
p1197
sg50
g1
sg51
NsbsbasbasbsbsS'addfloralpartscountstotraverser'
p1198
(i__main__
DelphiMethodImplementation
p1199
(dp1200
g321
g35
sg19
g37
sg27
(lp1201
(i__main__
DelphiFormalParameter
p1202
(dp1203
g41
Nsg42
(lp1204
S'traverser'
p1205
asg45
(i__main__
DelphiNamedType
p1206
(dp1207
g48
S'PdTraverser'
p1208
sg50
g1
sg51
Nsbsg52
Nsbasg323
(lp1209
sg325
(lp1210
sg327
(lp1211
g329
ag1205
asg330
(dp1212
g1205
g1206
ssg29
S'PdFlowerFruit'
p1213
sg30
Nsg333
(lp1214
sg31
I0
sg32
g33
sg335
(i__main__
DelphiBlock
p1215
(dp1216
g338
(idelphi
DelphiCompoundStatement
p1217
(dp1218
g341
(lp1219
(idelphi
DelphiForStatement
p1220
(dp1221
S'variable'
p1222
S'partType'
p1223
sS'finalValue'
p1224
(i__main__
DelphiIdentAccess
p1225
(dp1226
g357
S'kSepals'
p1227
sg348
(lp1228
sbsS'direction'
p1229
S'to'
p1230
sg41
(i__main__
DelphiIdentAccess
p1231
(dp1232
g357
S'kPistils'
p1233
sg348
(lp1234
sbsg488
(idelphi
DelphiWithStatement
p1235
(dp1236
g488
(idelphi
DelphiIfStatement
p1237
(dp1238
g345
(idelphi
DelphiRelOp
p1239
(dp1240
g354
(i__main__
DelphiIdentAccess
p1241
(dp1242
g357
S'scaleAtFullSize'
p1243
sg348
(lp1244
sbsg364
(idelphi
DelphiIntegerValue
p1245
(dp1246
g72
S'0'
sbsg367
S'>'
sbsg368
Nsg369
(idelphi
DelphiCompoundStatement
p1247
(dp1248
g341
(lp1249
(idelphi
DelphiIfStatement
p1250
(dp1251
g345
(idelphi
DelphiRelOp
p1252
(dp1253
g354
(i__main__
DelphiIdentAccess
p1254
(dp1255
g357
S'partType'
p1256
sg348
(lp1257
sbsg364
(i__main__
DelphiIdentAccess
p1258
(dp1259
g357
S'kPistils'
p1260
sg348
(lp1261
sbsg367
S'='
sbsg368
(idelphi
DelphiIfStatement
p1262
(dp1263
g345
(idelphi
DelphiRelOp
p1264
(dp1265
g354
(i__main__
DelphiIdentAccess
p1266
(dp1267
g357
S'partType'
p1268
sg348
(lp1269
sbsg364
(i__main__
DelphiIdentAccess
p1270
(dp1271
g357
S'kStamens'
p1272
sg348
(lp1273
sbsg367
S'='
sbsg368
(idelphi
DelphiCompoundStatement
p1274
(dp1275
g341
(lp1276
(i__main__
DelphiIncOrDecStatement
p1277
(dp1278
S'incOrDecString'
p1279
S'inc'
p1280
sS'incrementExpression'
p1281
(idelphi
DelphiMulOp
p1282
(dp1283
g537
(i__main__
DelphiIdentAccess
p1284
(dp1285
g357
S'repetitions'
p1286
sg348
(lp1287
sbsg542
S'*'
sg543
(i__main__
DelphiIdentAccess
p1288
(dp1289
g357
S'object3D'
p1290
sg348
(lp1291
(idelphi
DelphiFieldEndAccess
p1292
(dp1293
g362
S'pointsInUse'
p1294
sbasbsbsg383
(i__main__
DelphiIdentAccess
p1295
(dp1296
g357
S'traverser'
p1297
sg348
(lp1298
(idelphi
DelphiFieldEndAccess
p1299
(dp1300
g362
S'total3DExportPointsIn3DObjects'
p1301
sbasbsba(i__main__
DelphiIncOrDecStatement
p1302
(dp1303
g1279
g1280
sg1281
(idelphi
DelphiMulOp
p1304
(dp1305
g537
(i__main__
DelphiIdentAccess
p1306
(dp1307
g357
S'repetitions'
p1308
sg348
(lp1309
sbsg542
S'*'
sg543
(i__main__
DelphiIdentAccess
p1310
(dp1311
g357
S'object3D'
p1312
sg348
(lp1313
(idelphi
DelphiFieldEndAccess
p1314
(dp1315
g362
S'triangles'
p1316
sba(idelphi
DelphiFieldEndAccess
p1317
(dp1318
g362
S'count'
p1319
sbasbsbsg383
(i__main__
DelphiIdentAccess
p1320
(dp1321
g357
S'traverser'
p1322
sg348
(lp1323
(idelphi
DelphiFieldEndAccess
p1324
(dp1325
g362
S'total3DExportTrianglesIn3DObjects'
p1326
sbasbsba(idelphi
DelphiCaseStatement
p1327
(dp1328
g479
Nsg345
(i__main__
DelphiIdentAccess
p1329
(dp1330
g357
S'partType'
p1331
sg348
(lp1332
sbsg484
(lp1333
(idelphi
DelphiCaseSelector
p1334
(dp1335
g488
(i__main__
DelphiAssignStatement
p1336
(dp1337
g375
Nsg383
(i__main__
DelphiIdentAccess
p1338
(dp1339
g357
S'addExportMaterial'
p1340
sg348
(lp1341
(idelphi
DelphiFunctionEndAccess
p1342
(dp1343
g350
(lp1344
(i__main__
DelphiIdentAccess
p1345
(dp1346
g357
S'traverser'
p1347
sg348
(lp1348
sba(i__main__
DelphiIdentAccess
p1349
(dp1350
g357
S'kExportPartFirstPetalsFemale'
p1351
sg348
(lp1352
sba(i__main__
DelphiIdentAccess
p1353
(dp1354
g357
S'kExportPartFirstPetalsMale'
p1355
sg348
(lp1356
sbasbasbsbsg516
(lp1357
(i__main__
DelphiIdentAccess
p1358
(dp1359
g357
S'kFirstPetals'
p1360
sg348
(lp1361
sbasba(idelphi
DelphiCaseSelector
p1362
(dp1363
g488
(i__main__
DelphiAssignStatement
p1364
(dp1365
g375
Nsg383
(i__main__
DelphiIdentAccess
p1366
(dp1367
g357
S'addExportMaterial'
p1368
sg348
(lp1369
(idelphi
DelphiFunctionEndAccess
p1370
(dp1371
g350
(lp1372
(i__main__
DelphiIdentAccess
p1373
(dp1374
g357
S'traverser'
p1375
sg348
(lp1376
sba(i__main__
DelphiIdentAccess
p1377
(dp1378
g357
S'kExportPartSecondPetalsFemale'
p1379
sg348
(lp1380
sba(idelphi
DelphiSign
p1381
(dp1382
S'factor'
p1383
(idelphi
DelphiIntegerValue
p1384
(dp1385
g72
S'1'
sbsS'sign'
p1386
S'-'
sbasbasbsbsg516
(lp1387
(i__main__
DelphiIdentAccess
p1388
(dp1389
g357
S'kSecondPetals'
p1390
sg348
(lp1391
sbasba(idelphi
DelphiCaseSelector
p1392
(dp1393
g488
(i__main__
DelphiAssignStatement
p1394
(dp1395
g375
Nsg383
(i__main__
DelphiIdentAccess
p1396
(dp1397
g357
S'addExportMaterial'
p1398
sg348
(lp1399
(idelphi
DelphiFunctionEndAccess
p1400
(dp1401
g350
(lp1402
(i__main__
DelphiIdentAccess
p1403
(dp1404
g357
S'traverser'
p1405
sg348
(lp1406
sba(i__main__
DelphiIdentAccess
p1407
(dp1408
g357
S'kExportPartThirdPetalsFemale'
p1409
sg348
(lp1410
sba(idelphi
DelphiSign
p1411
(dp1412
g1383
(idelphi
DelphiIntegerValue
p1413
(dp1414
g72
S'1'
sbsg1386
S'-'
sbasbasbsbsg516
(lp1415
(i__main__
DelphiIdentAccess
p1416
(dp1417
g357
S'kThirdPetals'
p1418
sg348
(lp1419
sbasba(idelphi
DelphiCaseSelector
p1420
(dp1421
g488
(i__main__
DelphiAssignStatement
p1422
(dp1423
g375
Nsg383
(i__main__
DelphiIdentAccess
p1424
(dp1425
g357
S'addExportMaterial'
p1426
sg348
(lp1427
(idelphi
DelphiFunctionEndAccess
p1428
(dp1429
g350
(lp1430
(i__main__
DelphiIdentAccess
p1431
(dp1432
g357
S'traverser'
p1433
sg348
(lp1434
sba(i__main__
DelphiIdentAccess
p1435
(dp1436
g357
S'kExportPartFourthPetalsFemale'
p1437
sg348
(lp1438
sba(idelphi
DelphiSign
p1439
(dp1440
g1383
(idelphi
DelphiIntegerValue
p1441
(dp1442
g72
S'1'
sbsg1386
S'-'
sbasbasbsbsg516
(lp1443
(i__main__
DelphiIdentAccess
p1444
(dp1445
g357
S'kFourthPetals'
p1446
sg348
(lp1447
sbasba(idelphi
DelphiCaseSelector
p1448
(dp1449
g488
(i__main__
DelphiAssignStatement
p1450
(dp1451
g375
Nsg383
(i__main__
DelphiIdentAccess
p1452
(dp1453
g357
S'addExportMaterial'
p1454
sg348
(lp1455
(idelphi
DelphiFunctionEndAccess
p1456
(dp1457
g350
(lp1458
(i__main__
DelphiIdentAccess
p1459
(dp1460
g357
S'traverser'
p1461
sg348
(lp1462
sba(i__main__
DelphiIdentAccess
p1463
(dp1464
g357
S'kExportPartFifthPetalsFemale'
p1465
sg348
(lp1466
sba(idelphi
DelphiSign
p1467
(dp1468
g1383
(idelphi
DelphiIntegerValue
p1469
(dp1470
g72
S'1'
sbsg1386
S'-'
sbasbasbsbsg516
(lp1471
(i__main__
DelphiIdentAccess
p1472
(dp1473
g357
S'kFifthPetals'
p1474
sg348
(lp1475
sbasba(idelphi
DelphiCaseSelector
p1476
(dp1477
g488
(i__main__
DelphiAssignStatement
p1478
(dp1479
g375
Nsg383
(i__main__
DelphiIdentAccess
p1480
(dp1481
g357
S'addExportMaterial'
p1482
sg348
(lp1483
(idelphi
DelphiFunctionEndAccess
p1484
(dp1485
g350
(lp1486
(i__main__
DelphiIdentAccess
p1487
(dp1488
g357
S'traverser'
p1489
sg348
(lp1490
sba(i__main__
DelphiIdentAccess
p1491
(dp1492
g357
S'kExportPartSepalsFemale'
p1493
sg348
(lp1494
sba(i__main__
DelphiIdentAccess
p1495
(dp1496
g357
S'kExportPartSepalsMale'
p1497
sg348
(lp1498
sbasbasbsbsg516
(lp1499
(i__main__
DelphiIdentAccess
p1500
(dp1501
g357
S'kSepals'
p1502
sg348
(lp1503
sbasbasbasbsg369
(idelphi
DelphiCompoundStatement
p1504
(dp1505
g341
(lp1506
(i__main__
DelphiIncOrDecStatement
p1507
(dp1508
g1279
g1280
sg1281
(idelphi
DelphiMulOp
p1509
(dp1510
g537
(i__main__
DelphiIdentAccess
p1511
(dp1512
g357
S'plant'
p1513
sg348
(lp1514
(idelphi
DelphiFieldEndAccess
p1515
(dp1516
g362
S'pFlower'
p1517
sba(idelphi
DelphiArrayEndAccess
p1518
(dp1519
g350
(lp1520
(i__main__
DelphiIdentAccess
p1521
(dp1522
g357
S'gender'
p1523
sg348
(lp1524
sbasba(idelphi
DelphiFieldEndAccess
p1525
(dp1526
g362
S'numStamens'
p1527
sbasbsg542
S'*'
sg543
(idelphi
DelphiMulOp
p1528
(dp1529
g537
(i__main__
DelphiIdentAccess
p1530
(dp1531
g357
S'repetitions'
p1532
sg348
(lp1533
sbsg542
S'*'
sg543
(i__main__
DelphiIdentAccess
p1534
(dp1535
g357
S'object3D'
p1536
sg348
(lp1537
(idelphi
DelphiFieldEndAccess
p1538
(dp1539
g362
S'pointsInUse'
p1540
sbasbsbsbsg383
(i__main__
DelphiIdentAccess
p1541
(dp1542
g357
S'traverser'
p1543
sg348
(lp1544
(idelphi
DelphiFieldEndAccess
p1545
(dp1546
g362
S'total3DExportPointsIn3DObjects'
p1547
sbasbsba(i__main__
DelphiIncOrDecStatement
p1548
(dp1549
g1279
g1280
sg1281
(idelphi
DelphiMulOp
p1550
(dp1551
g537
(i__main__
DelphiIdentAccess
p1552
(dp1553
g357
S'plant'
p1554
sg348
(lp1555
(idelphi
DelphiFieldEndAccess
p1556
(dp1557
g362
S'pFlower'
p1558
sba(idelphi
DelphiArrayEndAccess
p1559
(dp1560
g350
(lp1561
(i__main__
DelphiIdentAccess
p1562
(dp1563
g357
S'gender'
p1564
sg348
(lp1565
sbasba(idelphi
DelphiFieldEndAccess
p1566
(dp1567
g362
S'numStamens'
p1568
sbasbsg542
S'*'
sg543
(idelphi
DelphiMulOp
p1569
(dp1570
g537
(i__main__
DelphiIdentAccess
p1571
(dp1572
g357
S'repetitions'
p1573
sg348
(lp1574
sbsg542
S'*'
sg543
(i__main__
DelphiIdentAccess
p1575
(dp1576
g357
S'object3D'
p1577
sg348
(lp1578
(idelphi
DelphiFieldEndAccess
p1579
(dp1580
g362
S'triangles'
p1581
sba(idelphi
DelphiFieldEndAccess
p1582
(dp1583
g362
S'count'
p1584
sbasbsbsbsg383
(i__main__
DelphiIdentAccess
p1585
(dp1586
g357
S'traverser'
p1587
sg348
(lp1588
(idelphi
DelphiFieldEndAccess
p1589
(dp1590
g362
S'total3DExportTrianglesIn3DObjects'
p1591
sbasbsba(i__main__
DelphiAssignStatement
p1592
(dp1593
g375
Nsg383
(i__main__
DelphiIdentAccess
p1594
(dp1595
g357
S'addExportMaterial'
p1596
sg348
(lp1597
(idelphi
DelphiFunctionEndAccess
p1598
(dp1599
g350
(lp1600
(i__main__
DelphiIdentAccess
p1601
(dp1602
g357
S'traverser'
p1603
sg348
(lp1604
sba(i__main__
DelphiIdentAccess
p1605
(dp1606
g357
S'kExportPartFilamentFemale'
p1607
sg348
(lp1608
sba(i__main__
DelphiIdentAccess
p1609
(dp1610
g357
S'kExportPartFilamentMale'
p1611
sg348
(lp1612
sbasbasbsba(i__main__
DelphiAssignStatement
p1613
(dp1614
g375
Nsg383
(i__main__
DelphiIdentAccess
p1615
(dp1616
g357
S'addExportMaterial'
p1617
sg348
(lp1618
(idelphi
DelphiFunctionEndAccess
p1619
(dp1620
g350
(lp1621
(i__main__
DelphiIdentAccess
p1622
(dp1623
g357
S'traverser'
p1624
sg348
(lp1625
sba(i__main__
DelphiIdentAccess
p1626
(dp1627
g357
S'kExportPartAntherFemale'
p1628
sg348
(lp1629
sba(i__main__
DelphiIdentAccess
p1630
(dp1631
g357
S'kExportPartAntherMale'
p1632
sg348
(lp1633
sbasbasbsbasbsbsg369
(idelphi
DelphiCompoundStatement
p1634
(dp1635
g341
(lp1636
(i__main__
DelphiIncOrDecStatement
p1637
(dp1638
g1279
g1280
sg1281
(idelphi
DelphiMulOp
p1639
(dp1640
g537
(i__main__
DelphiIdentAccess
p1641
(dp1642
g357
S'plant'
p1643
sg348
(lp1644
(idelphi
DelphiFieldEndAccess
p1645
(dp1646
g362
S'pFlower'
p1647
sba(idelphi
DelphiArrayEndAccess
p1648
(dp1649
g350
(lp1650
(i__main__
DelphiIdentAccess
p1651
(dp1652
g357
S'gender'
p1653
sg348
(lp1654
sbasba(idelphi
DelphiFieldEndAccess
p1655
(dp1656
g362
S'numPistils'
p1657
sbasbsg542
S'*'
sg543
(idelphi
DelphiMulOp
p1658
(dp1659
g537
(i__main__
DelphiIdentAccess
p1660
(dp1661
g357
S'repetitions'
p1662
sg348
(lp1663
sbsg542
S'*'
sg543
(i__main__
DelphiIdentAccess
p1664
(dp1665
g357
S'object3D'
p1666
sg348
(lp1667
(idelphi
DelphiFieldEndAccess
p1668
(dp1669
g362
S'pointsInUse'
p1670
sbasbsbsbsg383
(i__main__
DelphiIdentAccess
p1671
(dp1672
g357
S'traverser'
p1673
sg348
(lp1674
(idelphi
DelphiFieldEndAccess
p1675
(dp1676
g362
S'total3DExportPointsIn3DObjects'
p1677
sbasbsba(i__main__
DelphiIncOrDecStatement
p1678
(dp1679
g1279
g1280
sg1281
(idelphi
DelphiMulOp
p1680
(dp1681
g537
(i__main__
DelphiIdentAccess
p1682
(dp1683
g357
S'plant'
p1684
sg348
(lp1685
(idelphi
DelphiFieldEndAccess
p1686
(dp1687
g362
S'pFlower'
p1688
sba(idelphi
DelphiArrayEndAccess
p1689
(dp1690
g350
(lp1691
(i__main__
DelphiIdentAccess
p1692
(dp1693
g357
S'gender'
p1694
sg348
(lp1695
sbasba(idelphi
DelphiFieldEndAccess
p1696
(dp1697
g362
S'numPistils'
p1698
sbasbsg542
S'*'
sg543
(idelphi
DelphiMulOp
p1699
(dp1700
g537
(i__main__
DelphiIdentAccess
p1701
(dp1702
g357
S'repetitions'
p1703
sg348
(lp1704
sbsg542
S'*'
sg543
(i__main__
DelphiIdentAccess
p1705
(dp1706
g357
S'object3D'
p1707
sg348
(lp1708
(idelphi
DelphiFieldEndAccess
p1709
(dp1710
g362
S'triangles'
p1711
sba(idelphi
DelphiFieldEndAccess
p1712
(dp1713
g362
S'count'
p1714
sbasbsbsbsg383
(i__main__
DelphiIdentAccess
p1715
(dp1716
g357
S'traverser'
p1717
sg348
(lp1718
(idelphi
DelphiFieldEndAccess
p1719
(dp1720
g362
S'total3DExportTrianglesIn3DObjects'
p1721
sbasbsba(i__main__
DelphiAssignStatement
p1722
(dp1723
g375
Nsg383
(i__main__
DelphiIdentAccess
p1724
(dp1725
g357
S'addExportMaterial'
p1726
sg348
(lp1727
(idelphi
DelphiFunctionEndAccess
p1728
(dp1729
g350
(lp1730
(i__main__
DelphiIdentAccess
p1731
(dp1732
g357
S'traverser'
p1733
sg348
(lp1734
sba(i__main__
DelphiIdentAccess
p1735
(dp1736
g357
S'kExportPartStyleFemale'
p1737
sg348
(lp1738
sba(idelphi
DelphiSign
p1739
(dp1740
g1383
(idelphi
DelphiIntegerValue
p1741
(dp1742
g72
S'1'
sbsg1386
S'-'
sbasbasbsba(i__main__
DelphiAssignStatement
p1743
(dp1744
g375
Nsg383
(i__main__
DelphiIdentAccess
p1745
(dp1746
g357
S'addExportMaterial'
p1747
sg348
(lp1748
(idelphi
DelphiFunctionEndAccess
p1749
(dp1750
g350
(lp1751
(i__main__
DelphiIdentAccess
p1752
(dp1753
g357
S'traverser'
p1754
sg348
(lp1755
sba(i__main__
DelphiIdentAccess
p1756
(dp1757
g357
S'kExportPartStigmaFemale'
p1758
sg348
(lp1759
sba(idelphi
DelphiSign
p1760
(dp1761
g1383
(idelphi
DelphiIntegerValue
p1762
(dp1763
g72
S'1'
sbsg1386
S'-'
sbasbasbsbasbsbasbsbsg684
(lp1764
(i__main__
DelphiIdentAccess
p1765
(dp1766
g357
S'plant'
p1767
sg348
(lp1768
(idelphi
DelphiFieldEndAccess
p1769
(dp1770
g362
S'pFlower'
p1771
sba(idelphi
DelphiArrayEndAccess
p1772
(dp1773
g350
(lp1774
(i__main__
DelphiIdentAccess
p1775
(dp1776
g357
S'gender'
p1777
sg348
(lp1778
sbasba(idelphi
DelphiFieldEndAccess
p1779
(dp1780
g362
S'tdoParams'
p1781
sba(idelphi
DelphiArrayEndAccess
p1782
(dp1783
g350
(lp1784
(i__main__
DelphiIdentAccess
p1785
(dp1786
g357
S'partType'
p1787
sg348
(lp1788
sbasbasbasbsbasbsg1174
(lp1789
(i__main__
DelphiVarSection
p1790
(dp1791
g1178
I0
sg1179
(lp1792
(idelphi
DelphiVarDecl
p1793
(dp1794
g1183
Nsg1184
(lp1795
S'partType'
p1796
asg45
(i__main__
DelphiPrimitiveType
p1797
(dp1798
g48
g81
sbsbasbasbsbsS'drawflower'
p1799
(i__main__
DelphiMethodImplementation
p1800
(dp1801
g321
g54
sg19
g56
sg27
(lp1802
(i__main__
DelphiFormalParameter
p1803
(dp1804
g41
Nsg42
(lp1805
S'drawAsOpening'
p1806
asg45
(i__main__
DelphiPrimitiveType
p1807
(dp1808
g48
g64
sbsg52
Nsbasg323
(lp1809
sg325
(lp1810
sg327
(lp1811
g329
ag1806
asg330
(dp1812
g1806
g1807
ssg29
S'PdFlowerFruit'
p1813
sg30
Nsg333
(lp1814
sg31
I0
sg32
g33
sg335
(i__main__
DelphiBlock
p1815
(dp1816
g338
(idelphi
DelphiCompoundStatement
p1817
(dp1818
g341
(lp1819
(idelphi
DelphiIfStatement
p1820
(dp1821
g345
(idelphi
DelphiNestedExpressionListAccess
p1822
(dp1823
g348
(lp1824
sg350
(lp1825
(idelphi
DelphiRelOp
p1826
(dp1827
g354
(i__main__
DelphiIdentAccess
p1828
(dp1829
g357
S'plant'
p1830
sg348
(lp1831
(idelphi
DelphiFieldEndAccess
p1832
(dp1833
g362
S'turtle'
p1834
sbasbsg364
(idelphi
DelphiNilValue
p1835
(dp1836
bsg367
S'='
sbasbsg368
Nsg369
(i__main__
DelphiExitStatement
p1837
(dp1838
g372
g1800
sbsba(i__main__
DelphiAssignStatement
p1839
(dp1840
g375
(i__main__
DelphiIdentAccess
p1841
(dp1842
g357
S'plant'
p1843
sg348
(lp1844
(idelphi
DelphiFieldEndAccess
p1845
(dp1846
g362
S'turtle'
p1847
sbasbsg383
(i__main__
DelphiIdentAccess
p1848
(dp1849
g357
S'turtle'
p1850
sg348
(lp1851
sbsba(i__main__
DelphiAssignStatement
p1852
(dp1853
g375
Nsg383
(i__main__
DelphiIdentAccess
p1854
(dp1855
g357
S'self'
p1856
sg348
(lp1857
(idelphi
DelphiFieldEndAccess
p1858
(dp1859
g362
S'drawPistilsAndStamens'
p1860
sba(idelphi
DelphiFunctionEndAccess
p1861
(dp1862
g350
(lp1863
(i__main__
DelphiIdentAccess
p1864
(dp1865
g357
S'drawAsOpening'
p1866
sg348
(lp1867
sbasbasbsba(idelphi
DelphiForStatement
p1868
(dp1869
g1222
S'layerType'
p1870
sg1224
(i__main__
DelphiIdentAccess
p1871
(dp1872
g357
S'kSepals'
p1873
sg348
(lp1874
sbsg1229
g1230
sg41
(i__main__
DelphiIdentAccess
p1875
(dp1876
g357
S'kFirstPetals'
p1877
sg348
(lp1878
sbsg488
(idelphi
DelphiCompoundStatement
p1879
(dp1880
g341
(lp1881
(i__main__
DelphiAssignStatement
p1882
(dp1883
g375
Nsg383
(i__main__
DelphiIdentAccess
p1884
(dp1885
g357
S'turtle'
p1886
sg348
(lp1887
(idelphi
DelphiFieldEndAccess
p1888
(dp1889
g362
S'push'
p1890
sbasbsba(idelphi
DelphiWithStatement
p1891
(dp1892
g488
(idelphi
DelphiCompoundStatement
p1893
(dp1894
g341
(lp1895
(i__main__
DelphiAssignStatement
p1896
(dp1897
g375
(idelphi
DelphiNestedExpressionListAccess
p1898
(dp1899
g348
(lp1900
sg350
(lp1901
(idelphi
DelphiMulOp
p1902
(dp1903
g537
(i__main__
DelphiIdentAccess
p1904
(dp1905
g357
S'propFullSize'
p1906
sg348
(lp1907
sbsg542
S'*'
sg543
(idelphi
DelphiNestedExpressionListAccess
p1908
(dp1909
g348
(lp1910
sg350
(lp1911
(idelphi
DelphiMulOp
p1912
(dp1913
g537
(idelphi
DelphiRealValue
p1914
(dp1915
g72
S'100.0'
p1916
sbsg542
S'/'
sg543
(i__main__
DelphiIdentAccess
p1917
(dp1918
g357
S'scaleAtFullSize'
p1919
sg348
(lp1920
sbsbasbsbasbsg383
(i__main__
DelphiIdentAccess
p1921
(dp1922
g357
S'scale'
p1923
sg348
(lp1924
sbsba(i__main__
DelphiAssignStatement
p1925
(dp1926
g375
(i__main__
DelphiIdentAccess
p1927
(dp1928
g357
S'self'
p1929
sg348
(lp1930
(idelphi
DelphiFieldEndAccess
p1931
(dp1932
g362
S'angleWithSway'
p1933
sba(idelphi
DelphiFunctionEndAccess
p1934
(dp1935
g350
(lp1936
(i__main__
DelphiIdentAccess
p1937
(dp1938
g357
S'pullBackAngle'
p1939
sg348
(lp1940
sbasbasbsg383
(i__main__
DelphiIdentAccess
p1941
(dp1942
g357
S'angle'
p1943
sg348
(lp1944
sbsba(idelphi
DelphiIfStatement
p1945
(dp1946
g345
(i__main__
DelphiIdentAccess
p1947
(dp1948
g357
S'drawAsOpening'
p1949
sg348
(lp1950
sbsg368
Nsg369
(idelphi
DelphiCompoundStatement
p1951
(dp1952
g341
(lp1953
(i__main__
DelphiAssignStatement
p1954
(dp1955
g375
(idelphi
DelphiMulOp
p1956
(dp1957
g537
(idelphi
DelphiIntegerValue
p1958
(dp1959
g72
S'2'
sbsg542
S'*'
sg543
(idelphi
DelphiMulOp
p1960
(dp1961
g537
(i__main__
DelphiIdentAccess
p1962
(dp1963
g357
S'propFullSize'
p1964
sg348
(lp1965
sbsg542
S'*'
sg543
(i__main__
DelphiIdentAccess
p1966
(dp1967
g357
S'angle'
p1968
sg348
(lp1969
sbsbsbsg383
(i__main__
DelphiIdentAccess
p1970
(dp1971
g357
S'angle'
p1972
sg348
(lp1973
sbsba(idelphi
DelphiIfStatement
p1974
(dp1975
g345
(idelphi
DelphiRelOp
p1976
(dp1977
g354
(i__main__
DelphiIdentAccess
p1978
(dp1979
g357
S'angle'
p1980
sg348
(lp1981
sbsg364
(i__main__
DelphiIdentAccess
p1982
(dp1983
g357
S'pullBackAngle'
p1984
sg348
(lp1985
sbsg367
S'>'
sbsg368
Nsg369
(i__main__
DelphiAssignStatement
p1986
(dp1987
g375
(i__main__
DelphiIdentAccess
p1988
(dp1989
g357
S'pullBackAngle'
p1990
sg348
(lp1991
sbsg383
(i__main__
DelphiIdentAccess
p1992
(dp1993
g357
S'angle'
p1994
sg348
(lp1995
sbsbsbasbsba(i__main__
DelphiAssignStatement
p1996
(dp1997
g375
Nsg383
(i__main__
DelphiIdentAccess
p1998
(dp1999
g357
S'turtle'
p2000
sg348
(lp2001
(idelphi
DelphiFieldEndAccess
p2002
(dp2003
g362
S'rotateX'
p2004
sba(idelphi
DelphiFunctionEndAccess
p2005
(dp2006
g350
(lp2007
(i__main__
DelphiIdentAccess
p2008
(dp2009
g357
S'self'
p2010
sg348
(lp2011
(idelphi
DelphiFieldEndAccess
p2012
(dp2013
g362
S'angleWithSway'
p2014
sba(idelphi
DelphiFunctionEndAccess
p2015
(dp2016
g350
(lp2017
(i__main__
DelphiIdentAccess
p2018
(dp2019
g357
S'xRotationBeforeDraw'
p2020
sg348
(lp2021
sbasbasbasbasbsba(i__main__
DelphiAssignStatement
p2022
(dp2023
g375
Nsg383
(i__main__
DelphiIdentAccess
p2024
(dp2025
g357
S'turtle'
p2026
sg348
(lp2027
(idelphi
DelphiFieldEndAccess
p2028
(dp2029
g362
S'rotateY'
p2030
sba(idelphi
DelphiFunctionEndAccess
p2031
(dp2032
g350
(lp2033
(i__main__
DelphiIdentAccess
p2034
(dp2035
g357
S'self'
p2036
sg348
(lp2037
(idelphi
DelphiFieldEndAccess
p2038
(dp2039
g362
S'angleWithSway'
p2040
sba(idelphi
DelphiFunctionEndAccess
p2041
(dp2042
g350
(lp2043
(i__main__
DelphiIdentAccess
p2044
(dp2045
g357
S'yRotationBeforeDraw'
p2046
sg348
(lp2047
sbasbasbasbasbsba(i__main__
DelphiAssignStatement
p2048
(dp2049
g375
Nsg383
(i__main__
DelphiIdentAccess
p2050
(dp2051
g357
S'turtle'
p2052
sg348
(lp2053
(idelphi
DelphiFieldEndAccess
p2054
(dp2055
g362
S'rotateZ'
p2056
sba(idelphi
DelphiFunctionEndAccess
p2057
(dp2058
g350
(lp2059
(i__main__
DelphiIdentAccess
p2060
(dp2061
g357
S'self'
p2062
sg348
(lp2063
(idelphi
DelphiFieldEndAccess
p2064
(dp2065
g362
S'angleWithSway'
p2066
sba(idelphi
DelphiFunctionEndAccess
p2067
(dp2068
g350
(lp2069
(i__main__
DelphiIdentAccess
p2070
(dp2071
g357
S'zRotationBeforeDraw'
p2072
sg348
(lp2073
sbasbasbasbasbsba(i__main__
DelphiAssignStatement
p2074
(dp2075
g375
Nsg383
(i__main__
DelphiIdentAccess
p2076
(dp2077
g357
S'drawCircleOfTdos'
p2078
sg348
(lp2079
(idelphi
DelphiFunctionEndAccess
p2080
(dp2081
g350
(lp2082
(i__main__
DelphiIdentAccess
p2083
(dp2084
g357
S'object3D'
p2085
sg348
(lp2086
sba(i__main__
DelphiIdentAccess
p2087
(dp2088
g357
S'faceColor'
p2089
sg348
(lp2090
sba(i__main__
DelphiIdentAccess
p2091
(dp2092
g357
S'backfaceColor'
p2093
sg348
(lp2094
sba(i__main__
DelphiIdentAccess
p2095
(dp2096
g357
S'angle'
p2097
sg348
(lp2098
sba(i__main__
DelphiIdentAccess
p2099
(dp2100
g357
S'scale'
p2101
sg348
(lp2102
sba(i__main__
DelphiIdentAccess
p2103
(dp2104
g357
S'repetitions'
p2105
sg348
(lp2106
sba(i__main__
DelphiIdentAccess
p2107
(dp2108
g357
S'radiallyArranged'
p2109
sg348
(lp2110
sba(i__main__
DelphiIdentAccess
p2111
(dp2112
g357
S'kDrawTDOOpen'
p2113
sg348
(lp2114
sba(i__main__
DelphiIdentAccess
p2115
(dp2116
g357
S'self'
p2117
sg348
(lp2118
(idelphi
DelphiFieldEndAccess
p2119
(dp2120
g362
S'dxfIndexForFloralLayerType'
p2121
sba(idelphi
DelphiFunctionEndAccess
p2122
(dp2123
g350
(lp2124
(i__main__
DelphiIdentAccess
p2125
(dp2126
g357
S'layerType'
p2127
sg348
(lp2128
sba(i__main__
DelphiIdentAccess
p2129
(dp2130
g357
S'kNotLine'
p2131
sg348
(lp2132
sbasbasbasbasbsbasbsg684
(lp2133
(i__main__
DelphiIdentAccess
p2134
(dp2135
g357
S'plant'
p2136
sg348
(lp2137
(idelphi
DelphiFieldEndAccess
p2138
(dp2139
g362
S'pFlower'
p2140
sba(idelphi
DelphiArrayEndAccess
p2141
(dp2142
g350
(lp2143
(i__main__
DelphiIdentAccess
p2144
(dp2145
g357
S'gender'
p2146
sg348
(lp2147
sbasba(idelphi
DelphiFieldEndAccess
p2148
(dp2149
g362
S'tdoParams'
p2150
sba(idelphi
DelphiArrayEndAccess
p2151
(dp2152
g350
(lp2153
(i__main__
DelphiIdentAccess
p2154
(dp2155
g357
S'layerType'
p2156
sg348
(lp2157
sbasbasbasba(i__main__
DelphiAssignStatement
p2158
(dp2159
g375
Nsg383
(i__main__
DelphiIdentAccess
p2160
(dp2161
g357
S'turtle'
p2162
sg348
(lp2163
(idelphi
DelphiFieldEndAccess
p2164
(dp2165
g362
S'pop'
p2166
sbasbsbasbsbasbsg1174
(lp2167
(i__main__
DelphiVarSection
p2168
(dp2169
g1178
I0
sg1179
(lp2170
(idelphi
DelphiVarDecl
p2171
(dp2172
g1183
Nsg1184
(lp2173
S'turtle'
p2174
asg45
(i__main__
DelphiNamedType
p2175
(dp2176
g48
S'KfTurtle'
p2177
sg50
g1
sg51
Nsbsba(idelphi
DelphiVarDecl
p2178
(dp2179
g1183
Nsg1184
(lp2180
S'angle'
p2181
aS'scale'
p2182
asg45
(i__main__
DelphiPrimitiveType
p2183
(dp2184
g48
g126
sbsba(idelphi
DelphiVarDecl
p2185
(dp2186
g1183
Nsg1184
(lp2187
S'layerType'
p2188
asg45
(i__main__
DelphiPrimitiveType
p2189
(dp2190
g48
g157
sbsbasbasbsbsS'getname'
p2191
(i__main__
DelphiMethodImplementation
p2192
(dp2193
g321
g66
sg19
g68
sg27
(lp2194
sg323
(lp2195
sg325
(lp2196
sg327
(lp2197
g329
asg330
(dp2198
sg29
S'PdFlowerFruit'
p2199
sg30
(i__main__
DelphiPrimitiveType
p2200
(dp2201
g48
g72
sbsg333
(lp2202
sg31
I0
sg32
g73
sg335
(i__main__
DelphiBlock
p2203
(dp2204
g338
(idelphi
DelphiCompoundStatement
p2205
(dp2206
g341
(lp2207
(i__main__
DelphiAssignStatement
p2208
(dp2209
g375
(idelphi
DelphiStringAccess
p2210
(dp2211
g348
(lp2212
sg72
(idelphi
DelphiStringValue
p2213
(dp2214
g72
S'flower/fruit'
p2215
sbsbsg383
(i__main__
DelphiIdentAccess
p2216
(dp2217
g357
S'result'
p2218
sg348
(lp2219
sbsbasbsg1174
(lp2220
sbsbsS'parttype'
p2221
(i__main__
DelphiMethodImplementation
p2222
(dp2223
g321
g75
sg19
g77
sg27
(lp2224
sg323
(lp2225
sg325
(lp2226
sg327
(lp2227
g329
asg330
(dp2228
sg29
S'PdFlowerFruit'
p2229
sg30
(i__main__
DelphiPrimitiveType
p2230
(dp2231
g48
g81
sbsg333
(lp2232
sg31
I0
sg32
g73
sg335
(i__main__
DelphiBlock
p2233
(dp2234
g338
(idelphi
DelphiCompoundStatement
p2235
(dp2236
g341
(lp2237
(i__main__
DelphiAssignStatement
p2238
(dp2239
g375
(i__main__
DelphiIdentAccess
p2240
(dp2241
g357
S'kPartTypeFlowerFruit'
p2242
sg348
(lp2243
sbsg383
(i__main__
DelphiIdentAccess
p2244
(dp2245
g357
S'result'
p2246
sg348
(lp2247
sbsbasbsg1174
(lp2248
sbsbsS'initializegender'
p2249
(i__main__
DelphiMethodImplementation
p2250
(dp2251
g321
g83
sg19
g85
sg27
(lp2252
(i__main__
DelphiFormalParameter
p2253
(dp2254
g41
Nsg42
(lp2255
S'aPlant'
p2256
asg45
(i__main__
DelphiNamedType
p2257
(dp2258
g48
S'PdPlant'
p2259
sg50
g1
sg51
Nsbsg52
Nsba(i__main__
DelphiFormalParameter
p2260
(dp2261
g41
Nsg42
(lp2262
S'aGender'
p2263
asg45
(i__main__
DelphiPrimitiveType
p2264
(dp2265
g48
g81
sbsg52
Nsbasg323
(lp2266
sg325
(lp2267
sg327
(lp2268
g329
ag2256
ag2263
asg330
(dp2269
g2263
g2264
sg2256
g2257
ssg29
S'PdFlowerFruit'
p2270
sg30
Nsg333
(lp2271
sg31
I0
sg32
g33
sg335
(i__main__
DelphiBlock
p2272
(dp2273
g338
(idelphi
DelphiCompoundStatement
p2274
(dp2275
g341
(lp2276
(i__main__
DelphiAssignStatement
p2277
(dp2278
g375
Nsg383
(i__main__
DelphiIdentAccess
p2279
(dp2280
g357
S'self'
p2281
sg348
(lp2282
(idelphi
DelphiFieldEndAccess
p2283
(dp2284
g362
S'initialize'
p2285
sba(idelphi
DelphiFunctionEndAccess
p2286
(dp2287
g350
(lp2288
(i__main__
DelphiIdentAccess
p2289
(dp2290
g357
S'aPlant'
p2291
sg348
(lp2292
sbasbasbsba(i__main__
DelphiAssignStatement
p2293
(dp2294
g375
(i__main__
DelphiIdentAccess
p2295
(dp2296
g357
S'aGender'
p2297
sg348
(lp2298
sbsg383
(i__main__
DelphiIdentAccess
p2299
(dp2300
g357
S'gender'
p2301
sg348
(lp2302
sbsba(i__main__
DelphiAssignStatement
p2303
(dp2304
g375
(idelphi
DelphiRealValue
p2305
(dp2306
g72
S'0.0'
p2307
sbsg383
(i__main__
DelphiIdentAccess
p2308
(dp2309
g357
S'propFullSize'
p2310
sg348
(lp2311
sbsba(i__main__
DelphiAssignStatement
p2312
(dp2313
g375
(idelphi
DelphiRealValue
p2314
(dp2315
g72
S'0.0'
p2316
sbsg383
(i__main__
DelphiIdentAccess
p2317
(dp2318
g357
S'liveBiomass_pctMPB'
p2319
sg348
(lp2320
sbsba(i__main__
DelphiAssignStatement
p2321
(dp2322
g375
(idelphi
DelphiRealValue
p2323
(dp2324
g72
S'0.0'
p2325
sbsg383
(i__main__
DelphiIdentAccess
p2326
(dp2327
g357
S'deadBiomass_pctMPB'
p2328
sg348
(lp2329
sbsba(i__main__
DelphiAssignStatement
p2330
(dp2331
g375
(idelphi
DelphiRealValue
p2332
(dp2333
g72
S'0.0'
p2334
sbsg383
(i__main__
DelphiIdentAccess
p2335
(dp2336
g357
S'biomassDemand_pctMPB'
p2337
sg348
(lp2338
sbsba(i__main__
DelphiAssignStatement
p2339
(dp2340
g375
(i__main__
DelphiIdentAccess
p2341
(dp2342
g357
S'kStageFlowerBud'
p2343
sg348
(lp2344
sbsg383
(i__main__
DelphiIdentAccess
p2345
(dp2346
g357
S'stage'
p2347
sg348
(lp2348
sbsba(i__main__
DelphiAssignStatement
p2349
(dp2350
g375
(i__main__
DelphiIdentAccess
p2351
(dp2352
g357
S'false'
p2353
sg348
(lp2354
sbsg383
(i__main__
DelphiIdentAccess
p2355
(dp2356
g357
S'hasBeenDrawn'
p2357
sg348
(lp2358
sbsbasbsg1174
(lp2359
sbsbsS'drawcircleoftdos'
p2360
(i__main__
DelphiMethodImplementation
p2361
(dp2362
g321
g101
sg19
g103
sg27
(lp2363
(i__main__
DelphiFormalParameter
p2364
(dp2365
g41
Nsg42
(lp2366
S'tdo'
p2367
asg45
(i__main__
DelphiNamedType
p2368
(dp2369
g48
S'KfObject3D'
p2370
sg50
g1
sg51
Nsbsg52
Nsba(i__main__
DelphiFormalParameter
p2371
(dp2372
g41
Nsg42
(lp2373
S'faceColor'
p2374
aS'backfaceColor'
p2375
asg45
(i__main__
DelphiNamedType
p2376
(dp2377
g48
S'TColorRef'
p2378
sg50
g1
sg51
Nsbsg52
Nsba(i__main__
DelphiFormalParameter
p2379
(dp2380
g41
Nsg42
(lp2381
S'pullBackAngle'
p2382
asg45
(i__main__
DelphiPrimitiveType
p2383
(dp2384
g48
g126
sbsg52
Nsba(i__main__
DelphiFormalParameter
p2385
(dp2386
g41
Nsg42
(lp2387
S'scale'
p2388
asg45
(i__main__
DelphiPrimitiveType
p2389
(dp2390
g48
g126
sbsg52
Nsba(i__main__
DelphiFormalParameter
p2391
(dp2392
g41
Nsg42
(lp2393
S'numParts'
p2394
asg45
(i__main__
DelphiPrimitiveType
p2395
(dp2396
g48
g81
sbsg52
Nsba(i__main__
DelphiFormalParameter
p2397
(dp2398
g41
Nsg42
(lp2399
S'partsArranged'
p2400
asg45
(i__main__
DelphiPrimitiveType
p2401
(dp2402
g48
g64
sbsg52
Nsba(i__main__
DelphiFormalParameter
p2403
(dp2404
g41
Nsg42
(lp2405
S'open'
p2406
asg45
(i__main__
DelphiPrimitiveType
p2407
(dp2408
g48
g64
sbsg52
Nsba(i__main__
DelphiFormalParameter
p2409
(dp2410
g41
Nsg42
(lp2411
S'dxfIndex'
p2412
asg45
(i__main__
DelphiPrimitiveType
p2413
(dp2414
g48
g157
sbsg52
Nsbasg323
(lp2415
sg325
(lp2416
sg327
(lp2417
g329
ag2367
ag2374
ag2375
ag2382
ag2388
ag2394
ag2400
ag2406
ag2412
asg330
(dp2418
g2388
g2389
sg2382
g2383
sg2374
g2376
sg2375
g2376
sg2394
g2395
sg2400
g2401
sg2367
g2368
sg2406
g2407
sg2412
g2413
ssg29
S'PdFlowerFruit'
p2419
sg30
Nsg333
(lp2420
sg31
I0
sg32
g33
sg335
(i__main__
DelphiBlock
p2421
(dp2422
g338
(idelphi
DelphiCompoundStatement
p2423
(dp2424
g341
(lp2425
(idelphi
DelphiTryExceptStatement
p2426
(dp2427
g475
(lp2428
(idelphi
DelphiIfStatement
p2429
(dp2430
g345
(idelphi
DelphiNestedExpressionListAccess
p2431
(dp2432
g348
(lp2433
sg350
(lp2434
(idelphi
DelphiRelOp
p2435
(dp2436
g354
(i__main__
DelphiIdentAccess
p2437
(dp2438
g357
S'scale'
p2439
sg348
(lp2440
sbsg364
(idelphi
DelphiRealValue
p2441
(dp2442
g72
S'0.0'
p2443
sbsg367
S'<='
p2444
sbasbsg368
Nsg369
(i__main__
DelphiExitStatement
p2445
(dp2446
g372
g2361
sg513
(lp2447
S' v1.3\r'
p2448
aS' v1.3\r'
p2449
asbsba(i__main__
DelphiAssignStatement
p2450
(dp2451
g375
(i__main__
DelphiIdentAccess
p2452
(dp2453
g357
S'plant'
p2454
sg348
(lp2455
(idelphi
DelphiFieldEndAccess
p2456
(dp2457
g362
S'turtle'
p2458
sbasbsg383
(i__main__
DelphiIdentAccess
p2459
(dp2460
g357
S'turtle'
p2461
sg348
(lp2462
sbsba(idelphi
DelphiIfStatement
p2463
(dp2464
g345
(idelphi
DelphiNestedExpressionListAccess
p2465
(dp2466
g348
(lp2467
sg350
(lp2468
(idelphi
DelphiRelOp
p2469
(dp2470
g354
(i__main__
DelphiIdentAccess
p2471
(dp2472
g357
S'turtle'
p2473
sg348
(lp2474
sbsg364
(idelphi
DelphiNilValue
p2475
(dp2476
bsg367
S'='
sbasbsg368
Nsg369
(i__main__
DelphiExitStatement
p2477
(dp2478
g372
g2361
sbsba(i__main__
DelphiAssignStatement
p2479
(dp2480
g375
Nsg383
(i__main__
DelphiIdentAccess
p2481
(dp2482
g357
S'turtle'
p2483
sg348
(lp2484
(idelphi
DelphiFieldEndAccess
p2485
(dp2486
g362
S'push'
p2487
sbasbsba(i__main__
DelphiAssignStatement
p2488
(dp2489
g375
(idelphi
DelphiIntegerValue
p2490
(dp2491
g72
S'0'
sbsg383
(i__main__
DelphiIdentAccess
p2492
(dp2493
g357
S'minZ'
p2494
sg348
(lp2495
sbsba(idelphi
DelphiIfStatement
p2496
(dp2497
g345
(idelphi
DelphiMulOp
p2498
(dp2499
g537
(idelphi
DelphiNestedExpressionListAccess
p2500
(dp2501
g348
(lp2502
sg350
(lp2503
(idelphi
DelphiRelOp
p2504
(dp2505
g354
(i__main__
DelphiIdentAccess
p2506
(dp2507
g357
S'numParts'
p2508
sg348
(lp2509
sbsg364
(idelphi
DelphiIntegerValue
p2510
(dp2511
g72
S'0'
sbsg367
S'>'
sbasbsg542
S'and'
p2512
sg543
(idelphi
DelphiNestedExpressionListAccess
p2513
(dp2514
g348
(lp2515
sg350
(lp2516
(i__main__
DelphiIdentAccess
p2517
(dp2518
g357
S'partsArranged'
p2519
sg348
(lp2520
sbasbsbsg368
(idelphi
DelphiCompoundStatement
p2521
(dp2522
g341
(lp2523
(i__main__
DelphiAssignStatement
p2524
(dp2525
g375
Nsg383
(i__main__
DelphiIdentAccess
p2526
(dp2527
g357
S'turtle'
p2528
sg348
(lp2529
(idelphi
DelphiFieldEndAccess
p2530
(dp2531
g362
S'push'
p2532
sbasbsba(idelphi
DelphiIfStatement
p2533
(dp2534
g345
(idelphi
DelphiAddOp
p2535
(dp2536
S'addOp'
p2537
S'or'
p2538
sS'term2'
p2539
(idelphi
DelphiNestedExpressionListAccess
p2540
(dp2541
g348
(lp2542
sg350
(lp2543
(idelphi
DelphiRelOp
p2544
(dp2545
g354
(i__main__
DelphiIdentAccess
p2546
(dp2547
g357
S'stage'
p2548
sg348
(lp2549
sbsg364
(i__main__
DelphiIdentAccess
p2550
(dp2551
g357
S'kStageRipeFruit'
p2552
sg348
(lp2553
sbsg367
S'='
sbasbsS'term1'
p2554
(idelphi
DelphiNestedExpressionListAccess
p2555
(dp2556
g348
(lp2557
sg350
(lp2558
(idelphi
DelphiRelOp
p2559
(dp2560
g354
(i__main__
DelphiIdentAccess
p2561
(dp2562
g357
S'stage'
p2563
sg348
(lp2564
sbsg364
(i__main__
DelphiIdentAccess
p2565
(dp2566
g357
S'kStageUnripeFruit'
p2567
sg348
(lp2568
sbsg367
S'='
sbasbsbsg368
(i__main__
DelphiAssignStatement
p2569
(dp2570
g375
Nsg383
(i__main__
DelphiIdentAccess
p2571
(dp2572
g357
S'turtle'
p2573
sg348
(lp2574
(idelphi
DelphiFieldEndAccess
p2575
(dp2576
g362
S'RotateZ'
p2577
sba(idelphi
DelphiFunctionEndAccess
p2578
(dp2579
g350
(lp2580
(idelphi
DelphiSign
p2581
(dp2582
g1383
(i__main__
DelphiIdentAccess
p2583
(dp2584
g357
S'pullBackAngle'
p2585
sg348
(lp2586
sbsg1386
S'-'
sbasbasbsg513
(lp2587
S'pulls petal up to plane of stalk (is perpendicular)'
p2588
asbsg369
(i__main__
DelphiAssignStatement
p2589
(dp2590
g375
Nsg383
(i__main__
DelphiIdentAccess
p2591
(dp2592
g357
S'turtle'
p2593
sg348
(lp2594
(idelphi
DelphiFieldEndAccess
p2595
(dp2596
g362
S'RotateZ'
p2597
sba(idelphi
DelphiFunctionEndAccess
p2598
(dp2599
g350
(lp2600
(idelphi
DelphiSign
p2601
(dp2602
g1383
(idelphi
DelphiIntegerValue
p2603
(dp2604
g72
S'64'
p2605
sbsg1386
S'-'
sbasbasbsbsba(idelphi
DelphiIfStatement
p2606
(dp2607
g345
(idelphi
DelphiRelOp
p2608
(dp2609
g354
(i__main__
DelphiIdentAccess
p2610
(dp2611
g357
S'tdo'
p2612
sg348
(lp2613
sbsg364
(idelphi
DelphiNilValue
p2614
(dp2615
bsg367
S'<>'
p2616
sbsg368
Nsg369
(i__main__
DelphiAssignStatement
p2617
(dp2618
g375
Nsg383
(i__main__
DelphiIdentAccess
p2619
(dp2620
g357
S'self'
p2621
sg348
(lp2622
(idelphi
DelphiFieldEndAccess
p2623
(dp2624
g362
S'draw3DObject'
p2625
sba(idelphi
DelphiFunctionEndAccess
p2626
(dp2627
g350
(lp2628
(i__main__
DelphiIdentAccess
p2629
(dp2630
g357
S'tdo'
p2631
sg348
(lp2632
sba(i__main__
DelphiIdentAccess
p2633
(dp2634
g357
S'scale'
p2635
sg348
(lp2636
sba(i__main__
DelphiIdentAccess
p2637
(dp2638
g357
S'faceColor'
p2639
sg348
(lp2640
sba(i__main__
DelphiIdentAccess
p2641
(dp2642
g357
S'backfaceColor'
p2643
sg348
(lp2644
sba(i__main__
DelphiIdentAccess
p2645
(dp2646
g357
S'dxfIndex'
p2647
sg348
(lp2648
sbasbasbsbsba(i__main__
DelphiAssignStatement
p2649
(dp2650
g375
Nsg383
(i__main__
DelphiIdentAccess
p2651
(dp2652
g357
S'turtle'
p2653
sg348
(lp2654
(idelphi
DelphiFieldEndAccess
p2655
(dp2656
g362
S'pop'
p2657
sbasbsbasbsg369
(idelphi
DelphiCompoundStatement
p2658
(dp2659
g341
(lp2660
(i__main__
DelphiAssignStatement
p2661
(dp2662
g375
Nsg383
(i__main__
DelphiIdentAccess
p2663
(dp2664
g357
S'turtle'
p2665
sg348
(lp2666
(idelphi
DelphiFieldEndAccess
p2667
(dp2668
g362
S'ifExporting_startPlantPart'
p2669
sba(idelphi
DelphiFunctionEndAccess
p2670
(dp2671
g350
(lp2672
(i__main__
DelphiIdentAccess
p2673
(dp2674
g357
S'self'
p2675
sg348
(lp2676
(idelphi
DelphiFieldEndAccess
p2677
(dp2678
g362
S'longNameForDXFPartConsideringGenderEtc'
p2679
sba(idelphi
DelphiFunctionEndAccess
p2680
(dp2681
g350
(lp2682
(i__main__
DelphiIdentAccess
p2683
(dp2684
g357
S'dxfIndex'
p2685
sg348
(lp2686
sbasbasba(i__main__
DelphiIdentAccess
p2687
(dp2688
g357
S'self'
p2689
sg348
(lp2690
(idelphi
DelphiFieldEndAccess
p2691
(dp2692
g362
S'shortNameForDXFPartConsideringGenderEtc'
p2693
sba(idelphi
DelphiFunctionEndAccess
p2694
(dp2695
g350
(lp2696
(i__main__
DelphiIdentAccess
p2697
(dp2698
g357
S'dxfIndex'
p2699
sg348
(lp2700
sbasbasbasbasbsba(i__main__
DelphiAssignStatement
p2701
(dp2702
g375
(idelphi
DelphiMulOp
p2703
(dp2704
g537
(i__main__
DelphiIdentAccess
p2705
(dp2706
g357
S'numParts'
p2707
sg348
(lp2708
sbsg542
S'div'
p2709
sg543
(idelphi
DelphiIntegerValue
p2710
(dp2711
g72
S'256'
p2712
sbsbsg383
(i__main__
DelphiIdentAccess
p2713
(dp2714
g357
S'turnPortion'
p2715
sg348
(lp2716
sbsba(i__main__
DelphiAssignStatement
p2717
(dp2718
g375
(idelphi
DelphiAddOp
p2719
(dp2720
g2537
S'-'
sg2539
(idelphi
DelphiMulOp
p2721
(dp2722
g537
(i__main__
DelphiIdentAccess
p2723
(dp2724
g357
S'numParts'
p2725
sg348
(lp2726
sbsg542
S'*'
sg543
(i__main__
DelphiIdentAccess
p2727
(dp2728
g357
S'turnPortion'
p2729
sg348
(lp2730
sbsbsg2554
(idelphi
DelphiIntegerValue
p2731
(dp2732
g72
S'256'
p2733
sbsbsg383
(i__main__
DelphiIdentAccess
p2734
(dp2735
g357
S'leftOverDegrees'
p2736
sg348
(lp2737
sbsba(idelphi
DelphiIfStatement
p2738
(dp2739
g345
(idelphi
DelphiRelOp
p2740
(dp2741
g354
(i__main__
DelphiIdentAccess
p2742
(dp2743
g357
S'leftOverDegrees'
p2744
sg348
(lp2745
sbsg364
(idelphi
DelphiIntegerValue
p2746
(dp2747
g72
S'0'
sbsg367
S'>'
sbsg368
(i__main__
DelphiAssignStatement
p2748
(dp2749
g375
(idelphi
DelphiIntegerValue
p2750
(dp2751
g72
S'0'
sbsg383
(i__main__
DelphiIdentAccess
p2752
(dp2753
g357
S'addition'
p2754
sg348
(lp2755
sbsbsg369
(i__main__
DelphiAssignStatement
p2756
(dp2757
g375
(i__main__
DelphiIdentAccess
p2758
(dp2759
g357
S'safedivExcept'
p2760
sg348
(lp2761
(idelphi
DelphiFunctionEndAccess
p2762
(dp2763
g350
(lp2764
(i__main__
DelphiIdentAccess
p2765
(dp2766
g357
S'leftOverDegrees'
p2767
sg348
(lp2768
sba(i__main__
DelphiIdentAccess
p2769
(dp2770
g357
S'numParts'
p2771
sg348
(lp2772
sba(idelphi
DelphiIntegerValue
p2773
(dp2774
g72
S'0'
sbasbasbsg383
(i__main__
DelphiIdentAccess
p2775
(dp2776
g357
S'addition'
p2777
sg348
(lp2778
sbsbsba(i__main__
DelphiAssignStatement
p2779
(dp2780
g375
(idelphi
DelphiIntegerValue
p2781
(dp2782
g72
S'0'
sbsg383
(i__main__
DelphiIdentAccess
p2783
(dp2784
g357
S'carryOver'
p2785
sg348
(lp2786
sbsba(idelphi
DelphiForStatement
p2787
(dp2788
g1222
S'i'
sg1224
(i__main__
DelphiIdentAccess
p2789
(dp2790
g357
S'numParts'
p2791
sg348
(lp2792
sbsg1229
g1230
sg41
(idelphi
DelphiIntegerValue
p2793
(dp2794
g72
S'1'
sbsg488
(idelphi
DelphiCompoundStatement
p2795
(dp2796
g341
(lp2797
(i__main__
DelphiAssignStatement
p2798
(dp2799
g375
(i__main__
DelphiIdentAccess
p2800
(dp2801
g357
S'trunc'
p2802
sg348
(lp2803
(idelphi
DelphiFunctionEndAccess
p2804
(dp2805
g350
(lp2806
(idelphi
DelphiAddOp
p2807
(dp2808
g2537
S'+'
sg2539
(i__main__
DelphiIdentAccess
p2809
(dp2810
g357
S'carryOver'
p2811
sg348
(lp2812
sbsg2554
(i__main__
DelphiIdentAccess
p2813
(dp2814
g357
S'addition'
p2815
sg348
(lp2816
sbsbasbasbsg383
(i__main__
DelphiIdentAccess
p2817
(dp2818
g357
S'addThisTime'
p2819
sg348
(lp2820
sbsba(i__main__
DelphiAssignStatement
p2821
(dp2822
g375
(idelphi
DelphiAddOp
p2823
(dp2824
g2537
S'-'
sg2539
(i__main__
DelphiIdentAccess
p2825
(dp2826
g357
S'addThisTime'
p2827
sg348
(lp2828
sbsg2554
(idelphi
DelphiAddOp
p2829
(dp2830
g2537
S'+'
sg2539
(i__main__
DelphiIdentAccess
p2831
(dp2832
g357
S'addition'
p2833
sg348
(lp2834
sbsg2554
(i__main__
DelphiIdentAccess
p2835
(dp2836
g357
S'carryOver'
p2837
sg348
(lp2838
sbsbsbsg383
(i__main__
DelphiIdentAccess
p2839
(dp2840
g357
S'carryOver'
p2841
sg348
(lp2842
sbsba(idelphi
DelphiIfStatement
p2843
(dp2844
g345
(idelphi
DelphiRelOp
p2845
(dp2846
g354
(i__main__
DelphiIdentAccess
p2847
(dp2848
g357
S'carryOver'
p2849
sg348
(lp2850
sbsg364
(idelphi
DelphiIntegerValue
p2851
(dp2852
g72
S'0'
sbsg367
S'<'
sbsg368
Nsg369
(i__main__
DelphiAssignStatement
p2853
(dp2854
g375
(idelphi
DelphiIntegerValue
p2855
(dp2856
g72
S'0'
sbsg383
(i__main__
DelphiIdentAccess
p2857
(dp2858
g357
S'carryOver'
p2859
sg348
(lp2860
sbsbsba(i__main__
DelphiAssignStatement
p2861
(dp2862
g375
Nsg383
(i__main__
DelphiIdentAccess
p2863
(dp2864
g357
S'turtle'
p2865
sg348
(lp2866
(idelphi
DelphiFieldEndAccess
p2867
(dp2868
g362
S'RotateX'
p2869
sba(idelphi
DelphiFunctionEndAccess
p2870
(dp2871
g350
(lp2872
(idelphi
DelphiAddOp
p2873
(dp2874
g2537
S'+'
sg2539
(i__main__
DelphiIdentAccess
p2875
(dp2876
g357
S'addThisTime'
p2877
sg348
(lp2878
sbsg2554
(i__main__
DelphiIdentAccess
p2879
(dp2880
g357
S'turnPortion'
p2881
sg348
(lp2882
sbsbasbasbsba(i__main__
DelphiAssignStatement
p2883
(dp2884
g375
Nsg383
(i__main__
DelphiIdentAccess
p2885
(dp2886
g357
S'turtle'
p2887
sg348
(lp2888
(idelphi
DelphiFieldEndAccess
p2889
(dp2890
g362
S'push'
p2891
sbasbsba(i__main__
DelphiAssignStatement
p2892
(dp2893
g375
Nsg383
(i__main__
DelphiIdentAccess
p2894
(dp2895
g357
S'turtle'
p2896
sg348
(lp2897
(idelphi
DelphiFieldEndAccess
p2898
(dp2899
g362
S'RotateZ'
p2900
sba(idelphi
DelphiFunctionEndAccess
p2901
(dp2902
g350
(lp2903
(idelphi
DelphiSign
p2904
(dp2905
g1383
(idelphi
DelphiIntegerValue
p2906
(dp2907
g72
S'64'
p2908
sbsg1386
S'-'
sbasbasbsg513
(lp2909
S'aligns object as stored in the file to way should draw on plant'
p2910
asba(idelphi
DelphiIfStatement
p2911
(dp2912
g345
(i__main__
DelphiIdentAccess
p2913
(dp2914
g357
S'open'
p2915
sg348
(lp2916
sbsg368
Nsg369
(i__main__
DelphiAssignStatement
p2917
(dp2918
g375
Nsg383
(i__main__
DelphiIdentAccess
p2919
(dp2920
g357
S'turtle'
p2921
sg348
(lp2922
(idelphi
DelphiFieldEndAccess
p2923
(dp2924
g362
S'RotateY'
p2925
sba(idelphi
DelphiFunctionEndAccess
p2926
(dp2927
g350
(lp2928
(idelphi
DelphiIntegerValue
p2929
(dp2930
g72
S'32'
p2931
sbasbasbsg513
(lp2932
S'pulls petal up to plane of stalk (is perpendicular)'
p2933
asbsba(i__main__
DelphiAssignStatement
p2934
(dp2935
g375
Nsg383
(i__main__
DelphiIdentAccess
p2936
(dp2937
g357
S'turtle'
p2938
sg348
(lp2939
(idelphi
DelphiFieldEndAccess
p2940
(dp2941
g362
S'rotateX'
p2942
sba(idelphi
DelphiFunctionEndAccess
p2943
(dp2944
g350
(lp2945
(i__main__
DelphiIdentAccess
p2946
(dp2947
g357
S'pullBackAngle'
p2948
sg348
(lp2949
sbasbasbsba(idelphi
DelphiIfStatement
p2950
(dp2951
g345
(idelphi
DelphiRelOp
p2952
(dp2953
g354
(i__main__
DelphiIdentAccess
p2954
(dp2955
g357
S'tdo'
p2956
sg348
(lp2957
sbsg364
(idelphi
DelphiNilValue
p2958
(dp2959
bsg367
g2616
sbsg368
Nsg369
(idelphi
DelphiCompoundStatement
p2960
(dp2961
g341
(lp2962
(i__main__
DelphiAssignStatement
p2963
(dp2964
g375
Nsg383
(i__main__
DelphiIdentAccess
p2965
(dp2966
g357
S'self'
p2967
sg348
(lp2968
(idelphi
DelphiFieldEndAccess
p2969
(dp2970
g362
S'draw3DObject'
p2971
sba(idelphi
DelphiFunctionEndAccess
p2972
(dp2973
g350
(lp2974
(i__main__
DelphiIdentAccess
p2975
(dp2976
g357
S'tdo'
p2977
sg348
(lp2978
sba(i__main__
DelphiIdentAccess
p2979
(dp2980
g357
S'scale'
p2981
sg348
(lp2982
sba(i__main__
DelphiIdentAccess
p2983
(dp2984
g357
S'faceColor'
p2985
sg348
(lp2986
sba(i__main__
DelphiIdentAccess
p2987
(dp2988
g357
S'backfaceColor'
p2989
sg348
(lp2990
sba(i__main__
DelphiIdentAccess
p2991
(dp2992
g357
S'dxfIndex'
p2993
sg348
(lp2994
sbasbasbsba(idelphi
DelphiIfStatement
p2995
(dp2996
g345
(idelphi
DelphiRelOp
p2997
(dp2998
g354
(i__main__
DelphiIdentAccess
p2999
(dp3000
g357
S'i'
sg348
(lp3001
sbsg364
(idelphi
DelphiIntegerValue
p3002
(dp3003
g72
S'1'
sbsg367
S'='
sbsg368
(idelphi
DelphiIfStatement
p3004
(dp3005
g345
(idelphi
DelphiRelOp
p3006
(dp3007
g354
(i__main__
DelphiIdentAccess
p3008
(dp3009
g357
S'tdo'
p3010
sg348
(lp3011
(idelphi
DelphiFieldEndAccess
p3012
(dp3013
g362
S'zForSorting'
p3014
sbasbsg364
(i__main__
DelphiIdentAccess
p3015
(dp3016
g357
S'minZ'
p3017
sg348
(lp3018
sbsg367
S'<'
sbsg368
Nsg369
(i__main__
DelphiAssignStatement
p3019
(dp3020
g375
(i__main__
DelphiIdentAccess
p3021
(dp3022
g357
S'tdo'
p3023
sg348
(lp3024
(idelphi
DelphiFieldEndAccess
p3025
(dp3026
g362
S'zForSorting'
p3027
sbasbsg383
(i__main__
DelphiIdentAccess
p3028
(dp3029
g357
S'minZ'
p3030
sg348
(lp3031
sbsbsbsg369
(i__main__
DelphiAssignStatement
p3032
(dp3033
g375
(i__main__
DelphiIdentAccess
p3034
(dp3035
g357
S'tdo'
p3036
sg348
(lp3037
(idelphi
DelphiFieldEndAccess
p3038
(dp3039
g362
S'zForSorting'
p3040
sbasbsg383
(i__main__
DelphiIdentAccess
p3041
(dp3042
g357
S'minZ'
p3043
sg348
(lp3044
sbsbsbasbsba(i__main__
DelphiAssignStatement
p3045
(dp3046
g375
Nsg383
(i__main__
DelphiIdentAccess
p3047
(dp3048
g357
S'turtle'
p3049
sg348
(lp3050
(idelphi
DelphiFieldEndAccess
p3051
(dp3052
g362
S'pop'
p3053
sbasbsbasbsba(idelphi
DelphiIfStatement
p3054
(dp3055
g345
(idelphi
DelphiRelOp
p3056
(dp3057
g354
(i__main__
DelphiIdentAccess
p3058
(dp3059
g357
S'tdo'
p3060
sg348
(lp3061
sbsg364
(idelphi
DelphiNilValue
p3062
(dp3063
bsg367
g2616
sbsg368
Nsg369
(i__main__
DelphiAssignStatement
p3064
(dp3065
g375
(i__main__
DelphiIdentAccess
p3066
(dp3067
g357
S'minZ'
p3068
sg348
(lp3069
sbsg383
(i__main__
DelphiIdentAccess
p3070
(dp3071
g357
S'tdo'
p3072
sg348
(lp3073
(idelphi
DelphiFieldEndAccess
p3074
(dp3075
g362
S'zForSorting'
p3076
sbasbsbsba(i__main__
DelphiAssignStatement
p3077
(dp3078
g375
Nsg383
(i__main__
DelphiIdentAccess
p3079
(dp3080
g357
S'turtle'
p3081
sg348
(lp3082
(idelphi
DelphiFieldEndAccess
p3083
(dp3084
g362
S'ifExporting_endPlantPart'
p3085
sbasbsbasbsba(i__main__
DelphiAssignStatement
p3086
(dp3087
g375
Nsg383
(i__main__
DelphiIdentAccess
p3088
(dp3089
g357
S'turtle'
p3090
sg348
(lp3091
(idelphi
DelphiFieldEndAccess
p3092
(dp3093
g362
S'pop'
p3094
sbasbsbasg1143
(idelphi
DelphiExceptionHandlers
p3095
(dp3096
g1146
(lp3097
(idelphi
DelphiExceptionHandler
p3098
(dp3099
g1150
(i__main__
DelphiNamedType
p3100
(dp3101
g48
S'Exception'
p3102
sg50
g1
sg51
Nsbsg357
S'e'
sg488
(i__main__
DelphiAssignStatement
p3103
(dp3104
g375
Nsg383
(i__main__
DelphiIdentAccess
p3105
(dp3106
g357
S'messageForExceptionType'
p3107
sg348
(lp3108
(idelphi
DelphiFunctionEndAccess
p3109
(dp3110
g350
(lp3111
(i__main__
DelphiIdentAccess
p3112
(dp3113
g357
S'e'
sg348
(lp3114
sba(idelphi
DelphiStringAccess
p3115
(dp3116
g348
(lp3117
sg72
(idelphi
DelphiStringValue
p3118
(dp3119
g72
S'PdFlowerFruit.drawCircleOfTdos'
p3120
sbsbasbasbsbsbasg1172
(lp3121
sbsbasbsg1174
(lp3122
(i__main__
DelphiVarSection
p3123
(dp3124
g1178
I0
sg1179
(lp3125
(idelphi
DelphiVarDecl
p3126
(dp3127
g1183
Nsg1184
(lp3128
S'turtle'
p3129
asg45
(i__main__
DelphiNamedType
p3130
(dp3131
g48
S'KfTurtle'
p3132
sg50
g1
sg51
Nsbsba(idelphi
DelphiVarDecl
p3133
(dp3134
g1183
Nsg1184
(lp3135
S'i'
asg45
(i__main__
DelphiPrimitiveType
p3136
(dp3137
g48
g81
sbsba(idelphi
DelphiVarDecl
p3138
(dp3139
g1183
Nsg1184
(lp3140
S'minZ'
p3141
asg45
(i__main__
DelphiPrimitiveType
p3142
(dp3143
g48
g126
sbsba(idelphi
DelphiVarDecl
p3144
(dp3145
g1183
Nsg1184
(lp3146
S'turnPortion'
p3147
aS'leftOverDegrees'
p3148
aS'addThisTime'
p3149
asg45
(i__main__
DelphiPrimitiveType
p3150
(dp3151
g48
g81
sbsba(idelphi
DelphiVarDecl
p3152
(dp3153
g1183
Nsg1184
(lp3154
S'addition'
p3155
aS'carryOver'
p3156
asg45
(i__main__
DelphiPrimitiveType
p3157
(dp3158
g48
g126
sbsbasbasbsbsS'traverseactivity'
p3159
(i__main__
DelphiMethodImplementation
p3160
(dp3161
g321
g159
sg19
g161
sg27
(lp3162
(i__main__
DelphiFormalParameter
p3163
(dp3164
g41
Nsg42
(lp3165
S'mode'
p3166
asg45
(i__main__
DelphiPrimitiveType
p3167
(dp3168
g48
g81
sbsg52
Nsba(i__main__
DelphiFormalParameter
p3169
(dp3170
g41
Nsg42
(lp3171
S'traverserProxy'
p3172
asg45
(i__main__
DelphiNamedType
p3173
(dp3174
g48
S'TObject'
p3175
sg50
g1
sg51
Nsbsg52
Nsbasg323
(lp3176
sg325
(lp3177
sg327
(lp3178
g329
ag3166
ag3172
asg330
(dp3179
g3172
g3173
sg3166
g3167
ssg29
S'PdFlowerFruit'
p3180
sg30
Nsg333
(lp3181
sg31
I0
sg32
g33
sg335
(i__main__
DelphiBlock
p3182
(dp3183
g338
(idelphi
DelphiCompoundStatement
p3184
(dp3185
g341
(lp3186
(i__main__
DelphiAssignStatement
p3187
(dp3188
g375
Nsg383
(idelphi
DelphiInheritedCall
p3189
(dp3190
g357
S'traverseActivity'
p3191
sg350
(lp3192
(i__main__
DelphiIdentAccess
p3193
(dp3194
g357
S'mode'
p3195
sg348
(lp3196
sba(i__main__
DelphiIdentAccess
p3197
(dp3198
g357
S'traverserProxy'
p3199
sg348
(lp3200
sbasbsba(i__main__
DelphiAssignStatement
p3201
(dp3202
g375
(i__main__
DelphiIdentAccess
p3203
(dp3204
g357
S'PdTraverser'
p3205
sg348
(lp3206
(idelphi
DelphiFunctionEndAccess
p3207
(dp3208
g350
(lp3209
(i__main__
DelphiIdentAccess
p3210
(dp3211
g357
S'traverserProxy'
p3212
sg348
(lp3213
sbasbasbsg383
(i__main__
DelphiIdentAccess
p3214
(dp3215
g357
S'traverser'
p3216
sg348
(lp3217
sbsba(idelphi
DelphiIfStatement
p3218
(dp3219
g345
(idelphi
DelphiRelOp
p3220
(dp3221
g354
(i__main__
DelphiIdentAccess
p3222
(dp3223
g357
S'traverser'
p3224
sg348
(lp3225
sbsg364
(idelphi
DelphiNilValue
p3226
(dp3227
bsg367
S'='
sbsg368
Nsg369
(i__main__
DelphiExitStatement
p3228
(dp3229
g372
g3160
sbsba(idelphi
DelphiIfStatement
p3230
(dp3231
g345
(idelphi
DelphiMulOp
p3232
(dp3233
g537
(idelphi
DelphiNestedExpressionListAccess
p3234
(dp3235
g348
(lp3236
sg350
(lp3237
(idelphi
DelphiRelOp
p3238
(dp3239
g354
(i__main__
DelphiIdentAccess
p3240
(dp3241
g357
S'mode'
p3242
sg348
(lp3243
sbsg364
(i__main__
DelphiIdentAccess
p3244
(dp3245
g357
S'kActivityGatherStatistics'
p3246
sg348
(lp3247
sbsg367
g2616
sbasbsg542
g2512
sg543
(idelphi
DelphiMulOp
p3248
(dp3249
g537
(idelphi
DelphiNestedExpressionListAccess
p3250
(dp3251
g348
(lp3252
sg350
(lp3253
(idelphi
DelphiRelOp
p3254
(dp3255
g354
(i__main__
DelphiIdentAccess
p3256
(dp3257
g357
S'mode'
p3258
sg348
(lp3259
sbsg364
(i__main__
DelphiIdentAccess
p3260
(dp3261
g357
S'kActivityFree'
p3262
sg348
(lp3263
sbsg367
g2616
sbasbsg542
g2512
sg543
(idelphi
DelphiMulOp
p3264
(dp3265
g537
(idelphi
DelphiNestedExpressionListAccess
p3266
(dp3267
g348
(lp3268
sg350
(lp3269
(idelphi
DelphiRelOp
p3270
(dp3271
g354
(i__main__
DelphiIdentAccess
p3272
(dp3273
g357
S'mode'
p3274
sg348
(lp3275
sbsg364
(i__main__
DelphiIdentAccess
p3276
(dp3277
g357
S'kActivityStream'
p3278
sg348
(lp3279
sbsg367
g2616
sbasbsg542
g2512
sg543
(i__main__
DelphiIdentAccess
p3280
(dp3281
g357
S'self'
p3282
sg348
(lp3283
(idelphi
DelphiFieldEndAccess
p3284
(dp3285
g362
S'hasFallenOff'
p3286
sbasbsbsbsbsg368
Nsg369
(i__main__
DelphiExitStatement
p3287
(dp3288
g372
g3160
sbsba(idelphi
DelphiTryExceptStatement
p3289
(dp3290
g475
(lp3291
(idelphi
DelphiCaseStatement
p3292
(dp3293
g479
(idelphi
DelphiRaiseStatement
p3294
(dp3295
g345
(i__main__
DelphiIdentAccess
p3296
(dp3297
g357
S'Exception'
p3298
sg348
(lp3299
(idelphi
DelphiFieldEndAccess
p3300
(dp3301
g362
S'create'
p3302
sba(idelphi
DelphiFunctionEndAccess
p3303
(dp3304
g350
(lp3305
(idelphi
DelphiStringAccess
p3306
(dp3307
g348
(lp3308
sg72
(idelphi
DelphiStringValue
p3309
(dp3310
g72
S'Problem: Unhandled mode for plant draw activity in method PdFlowerFruit.traverseActivity.'
p3311
sbsbasbasbsbsg345
(i__main__
DelphiIdentAccess
p3312
(dp3313
g357
S'mode'
p3314
sg348
(lp3315
sbsg484
(lp3316
(idelphi
DelphiCaseSelector
p3317
(dp3318
g488
Nsg516
(lp3319
(i__main__
DelphiIdentAccess
p3320
(dp3321
g357
S'kActivityNone'
p3322
sg348
(lp3323
sbasba(idelphi
DelphiCaseSelector
p3324
(dp3325
g488
(i__main__
DelphiAssignStatement
p3326
(dp3327
g375
Nsg383
(i__main__
DelphiIdentAccess
p3328
(dp3329
g357
S'self'
p3330
sg348
(lp3331
(idelphi
DelphiFieldEndAccess
p3332
(dp3333
g362
S'nextDay'
p3334
sbasbsbsg516
(lp3335
(i__main__
DelphiIdentAccess
p3336
(dp3337
g357
S'kActivityNextDay'
p3338
sg348
(lp3339
sbasba(idelphi
DelphiCaseSelector
p3340
(dp3341
g488
Nsg516
(lp3342
(i__main__
DelphiIdentAccess
p3343
(dp3344
g357
S'kActivityDemandVegetative'
p3345
sg348
(lp3346
sbasba(idelphi
DelphiCaseSelector
p3347
(dp3348
g488
(idelphi
DelphiCompoundStatement
p3349
(dp3350
g341
(lp3351
(idelphi
DelphiCaseStatement
p3352
(dp3353
g479
Nsg345
(i__main__
DelphiIdentAccess
p3354
(dp3355
g357
S'self'
p3356
sg348
(lp3357
(idelphi
DelphiFieldEndAccess
p3358
(dp3359
g362
S'stage'
p3360
sbasbsg484
(lp3361
(idelphi
DelphiCaseSelector
p3362
(dp3363
g488
(idelphi
DelphiCompoundStatement
p3364
(dp3365
g341
(lp3366
(idelphi
DelphiWithStatement
p3367
(dp3368
g488
(i__main__
DelphiAssignStatement
p3369
(dp3370
g375
(i__main__
DelphiIdentAccess
p3371
(dp3372
g357
S'linearGrowthResult'
p3373
sg348
(lp3374
(idelphi
DelphiFunctionEndAccess
p3375
(dp3376
g350
(lp3377
(i__main__
DelphiIdentAccess
p3378
(dp3379
g357
S'liveBiomass_pctMPB'
p3380
sg348
(lp3381
sba(i__main__
DelphiIdentAccess
p3382
(dp3383
g357
S'optimalBiomass_pctMPB'
p3384
sg348
(lp3385
sba(i__main__
DelphiIdentAccess
p3386
(dp3387
g357
S'minDaysToGrow'
p3388
sg348
(lp3389
sbasbasbsg383
(i__main__
DelphiIdentAccess
p3390
(dp3391
g357
S'self'
p3392
sg348
(lp3393
(idelphi
DelphiFieldEndAccess
p3394
(dp3395
g362
S'biomassDemand_pctMPB'
p3396
sbasbsg513
(lp3397
S' has no vegetative demand '
p3398
aS' accum. biomass for flower '
p3399
asbsg684
(lp3400
(i__main__
DelphiIdentAccess
p3401
(dp3402
g357
S'plant'
p3403
sg348
(lp3404
(idelphi
DelphiFieldEndAccess
p3405
(dp3406
g362
S'pFlower'
p3407
sba(idelphi
DelphiArrayEndAccess
p3408
(dp3409
g350
(lp3410
(i__main__
DelphiIdentAccess
p3411
(dp3412
g357
S'gender'
p3413
sg348
(lp3414
sbasbasbasba(i__main__
DelphiAssignStatement
p3415
(dp3416
g375
(idelphi
DelphiAddOp
p3417
(dp3418
g2537
S'+'
sg2539
(i__main__
DelphiIdentAccess
p3419
(dp3420
g357
S'self'
p3421
sg348
(lp3422
(idelphi
DelphiFieldEndAccess
p3423
(dp3424
g362
S'biomassDemand_pctMPB'
p3425
sbasbsg2554
(i__main__
DelphiIdentAccess
p3426
(dp3427
g357
S'traverser'
p3428
sg348
(lp3429
(idelphi
DelphiFieldEndAccess
p3430
(dp3431
g362
S'total'
p3432
sbasbsbsg383
(i__main__
DelphiIdentAccess
p3433
(dp3434
g357
S'traverser'
p3435
sg348
(lp3436
(idelphi
DelphiFieldEndAccess
p3437
(dp3438
g362
S'total'
p3439
sbasbsbasbsg516
(lp3440
(i__main__
DelphiIdentAccess
p3441
(dp3442
g357
S'kStageFlowerBud'
p3443
sg348
(lp3444
sba(i__main__
DelphiIdentAccess
p3445
(dp3446
g357
S'kStageOpenFlower'
p3447
sg348
(lp3448
sbasba(idelphi
DelphiCaseSelector
p3449
(dp3450
g488
(idelphi
DelphiCompoundStatement
p3451
(dp3452
g341
(lp3453
(idelphi
DelphiIfStatement
p3454
(dp3455
g345
(idelphi
DelphiRelOp
p3456
(dp3457
g354
(i__main__
DelphiIdentAccess
p3458
(dp3459
g357
S'self'
p3460
sg348
(lp3461
(idelphi
DelphiFieldEndAccess
p3462
(dp3463
g362
S'daysAccumulatingFruitBiomass'
p3464
sbasbsg364
(i__main__
DelphiIdentAccess
p3465
(dp3466
g357
S'plant'
p3467
sg348
(lp3468
(idelphi
DelphiFieldEndAccess
p3469
(dp3470
g362
S'pFruit'
p3471
sba(idelphi
DelphiFieldEndAccess
p3472
(dp3473
g362
S'maxDaysToGrow'
p3474
sbasbsg367
S'>'
sbsg368
(idelphi
DelphiWithStatement
p3475
(dp3476
g488
(idelphi
DelphiCompoundStatement
p3477
(dp3478
g341
(lp3479
(i__main__
DelphiAssignStatement
p3480
(dp3481
g375
(i__main__
DelphiIdentAccess
p3482
(dp3483
g357
S'safedivExcept'
p3484
sg348
(lp3485
(idelphi
DelphiFunctionEndAccess
p3486
(dp3487
g350
(lp3488
(idelphi
DelphiAddOp
p3489
(dp3490
g2537
S'+'
sg2539
(idelphi
DelphiIntegerValue
p3491
(dp3492
g72
S'1'
sbsg2554
(i__main__
DelphiIdentAccess
p3493
(dp3494
g357
S'daysAccumulatingFruitBiomass'
p3495
sg348
(lp3496
sbsba(i__main__
DelphiIdentAccess
p3497
(dp3498
g357
S'maxDaysToGrow'
p3499
sg348
(lp3500
sba(idelphi
DelphiRealValue
p3501
(dp3502
g72
S'0.0'
p3503
sbasbasbsg383
(i__main__
DelphiIdentAccess
p3504
(dp3505
g357
S'fractionOfMaxAge_frn'
p3506
sg348
(lp3507
sbsba(i__main__
DelphiAssignStatement
p3508
(dp3509
g375
(i__main__
DelphiIdentAccess
p3510
(dp3511
g357
S'Max'
p3512
sg348
(lp3513
(idelphi
DelphiFunctionEndAccess
p3514
(dp3515
g350
(lp3516
(idelphi
DelphiRealValue
p3517
(dp3518
g72
S'0.0'
p3519
sba(i__main__
DelphiIdentAccess
p3520
(dp3521
g357
S'Min'
p3522
sg348
(lp3523
(idelphi
DelphiFunctionEndAccess
p3524
(dp3525
g350
(lp3526
(idelphi
DelphiRealValue
p3527
(dp3528
g72
S'1.0'
p3529
sba(i__main__
DelphiIdentAccess
p3530
(dp3531
g357
S'scurve'
p3532
sg348
(lp3533
(idelphi
DelphiFunctionEndAccess
p3534
(dp3535
g350
(lp3536
(i__main__
DelphiIdentAccess
p3537
(dp3538
g357
S'fractionOfMaxAge_frn'
p3539
sg348
(lp3540
sba(i__main__
DelphiIdentAccess
p3541
(dp3542
g357
S'sCurveParams'
p3543
sg348
(lp3544
(idelphi
DelphiFieldEndAccess
p3545
(dp3546
g362
S'c1'
p3547
sbasba(i__main__
DelphiIdentAccess
p3548
(dp3549
g357
S'sCurveParams'
p3550
sg348
(lp3551
(idelphi
DelphiFieldEndAccess
p3552
(dp3553
g362
S'c2'
p3554
sbasbasbasbasbasbasbasbsg383
(i__main__
DelphiIdentAccess
p3555
(dp3556
g357
S'newPropFullSize'
p3557
sg348
(lp3558
sbsba(i__main__
DelphiAssignStatement
p3559
(dp3560
g375
(idelphi
DelphiMulOp
p3561
(dp3562
g537
(i__main__
DelphiIdentAccess
p3563
(dp3564
g357
S'optimalBiomass_pctMPB'
p3565
sg348
(lp3566
sbsg542
S'*'
sg543
(i__main__
DelphiIdentAccess
p3567
(dp3568
g357
S'newPropFullSize'
p3569
sg348
(lp3570
sbsbsg383
(i__main__
DelphiIdentAccess
p3571
(dp3572
g357
S'newOptimalBiomass_pctMPB'
p3573
sg348
(lp3574
sbsba(idelphi
DelphiWithStatement
p3575
(dp3576
g488
(i__main__
DelphiAssignStatement
p3577
(dp3578
g375
(i__main__
DelphiIdentAccess
p3579
(dp3580
g357
S'linearGrowthResult'
p3581
sg348
(lp3582
(idelphi
DelphiFunctionEndAccess
p3583
(dp3584
g350
(lp3585
(i__main__
DelphiIdentAccess
p3586
(dp3587
g357
S'liveBiomass_pctMPB'
p3588
sg348
(lp3589
sba(i__main__
DelphiIdentAccess
p3590
(dp3591
g357
S'newOptimalBiomass_pctMPB'
p3592
sg348
(lp3593
sba(idelphi
DelphiIntegerValue
p3594
(dp3595
g72
S'1'
sbasbasbsg383
(i__main__
DelphiIdentAccess
p3596
(dp3597
g357
S'self'
p3598
sg348
(lp3599
(idelphi
DelphiFieldEndAccess
p3600
(dp3601
g362
S'biomassDemand_pctMPB'
p3602
sbasbsbsg684
(lp3603
(i__main__
DelphiIdentAccess
p3604
(dp3605
g357
S'plant'
p3606
sg348
(lp3607
(idelphi
DelphiFieldEndAccess
p3608
(dp3609
g362
S'pFruit'
p3610
sbasbasba(i__main__
DelphiAssignStatement
p3611
(dp3612
g375
(idelphi
DelphiAddOp
p3613
(dp3614
g2537
S'+'
sg2539
(i__main__
DelphiIdentAccess
p3615
(dp3616
g357
S'self'
p3617
sg348
(lp3618
(idelphi
DelphiFieldEndAccess
p3619
(dp3620
g362
S'biomassDemand_pctMPB'
p3621
sbasbsg2554
(i__main__
DelphiIdentAccess
p3622
(dp3623
g357
S'traverser'
p3624
sg348
(lp3625
(idelphi
DelphiFieldEndAccess
p3626
(dp3627
g362
S'total'
p3628
sbasbsbsg383
(i__main__
DelphiIdentAccess
p3629
(dp3630
g357
S'traverser'
p3631
sg348
(lp3632
(idelphi
DelphiFieldEndAccess
p3633
(dp3634
g362
S'total'
p3635
sbasbsbasbsg684
(lp3636
(i__main__
DelphiIdentAccess
p3637
(dp3638
g357
S'plant'
p3639
sg348
(lp3640
(idelphi
DelphiFieldEndAccess
p3641
(dp3642
g362
S'pFruit'
p3643
sbasbasbsg369
(i__main__
DelphiAssignStatement
p3644
(dp3645
g375
(idelphi
DelphiRealValue
p3646
(dp3647
g72
S'0.0'
p3648
sbsg383
(i__main__
DelphiIdentAccess
p3649
(dp3650
g357
S'self'
p3651
sg348
(lp3652
(idelphi
DelphiFieldEndAccess
p3653
(dp3654
g362
S'biomassDemand_pctMPB'
p3655
sbasbsg513
(lp3656
S' accum. biomass for fruit '
p3657
asbsbasbsg516
(lp3658
(i__main__
DelphiIdentAccess
p3659
(dp3660
g357
S'kStageUnripeFruit'
p3661
sg348
(lp3662
sba(i__main__
DelphiIdentAccess
p3663
(dp3664
g357
S'kStageRipeFruit'
p3665
sg348
(lp3666
sbasbasbasbsg516
(lp3667
(i__main__
DelphiIdentAccess
p3668
(dp3669
g357
S'kActivityDemandReproductive'
p3670
sg348
(lp3671
sbasba(idelphi
DelphiCaseSelector
p3672
(dp3673
g488
Nsg516
(lp3674
(i__main__
DelphiIdentAccess
p3675
(dp3676
g357
S'kActivityGrowVegetative'
p3677
sg348
(lp3678
sbasba(idelphi
DelphiCaseSelector
p3679
(dp3680
g488
(idelphi
DelphiCompoundStatement
p3681
(dp3682
g341
(lp3683
(i__main__
DelphiAssignStatement
p3684
(dp3685
g375
(idelphi
DelphiMulOp
p3686
(dp3687
g537
(i__main__
DelphiIdentAccess
p3688
(dp3689
g357
S'traverser'
p3690
sg348
(lp3691
(idelphi
DelphiFieldEndAccess
p3692
(dp3693
g362
S'fractionOfPotentialBiomass'
p3694
sbasbsg542
S'*'
sg543
(i__main__
DelphiIdentAccess
p3695
(dp3696
g357
S'self'
p3697
sg348
(lp3698
(idelphi
DelphiFieldEndAccess
p3699
(dp3700
g362
S'biomassDemand_pctMPB'
p3701
sbasbsbsg383
(i__main__
DelphiIdentAccess
p3702
(dp3703
g357
S'newBiomass_pctMPB'
p3704
sg348
(lp3705
sbsg513
(lp3706
S' cannot grow vegetatively '
p3707
aS'Allocate portion of total new biomass based on this demand over total demand.'
p3708
asba(i__main__
DelphiAssignStatement
p3709
(dp3710
g375
(idelphi
DelphiAddOp
p3711
(dp3712
g2537
S'+'
sg2539
(i__main__
DelphiIdentAccess
p3713
(dp3714
g357
S'newBiomass_pctMPB'
p3715
sg348
(lp3716
sbsg2554
(i__main__
DelphiIdentAccess
p3717
(dp3718
g357
S'self'
p3719
sg348
(lp3720
(idelphi
DelphiFieldEndAccess
p3721
(dp3722
g362
S'liveBiomass_pctMPB'
p3723
sbasbsbsg383
(i__main__
DelphiIdentAccess
p3724
(dp3725
g357
S'self'
p3726
sg348
(lp3727
(idelphi
DelphiFieldEndAccess
p3728
(dp3729
g362
S'liveBiomass_pctMPB'
p3730
sbasbsba(idelphi
DelphiCaseStatement
p3731
(dp3732
g479
Nsg345
(i__main__
DelphiIdentAccess
p3733
(dp3734
g357
S'self'
p3735
sg348
(lp3736
(idelphi
DelphiFieldEndAccess
p3737
(dp3738
g362
S'stage'
p3739
sbasbsg484
(lp3740
(idelphi
DelphiCaseSelector
p3741
(dp3742
g488
(i__main__
DelphiAssignStatement
p3743
(dp3744
g375
(idelphi
DelphiNestedExpressionListAccess
p3745
(dp3746
g348
(lp3747
sg350
(lp3748
(i__main__
DelphiIdentAccess
p3749
(dp3750
g357
S'Min'
p3751
sg348
(lp3752
(idelphi
DelphiFunctionEndAccess
p3753
(dp3754
g350
(lp3755
(idelphi
DelphiRealValue
p3756
(dp3757
g72
S'1.0'
p3758
sba(i__main__
DelphiIdentAccess
p3759
(dp3760
g357
S'safedivExcept'
p3761
sg348
(lp3762
(idelphi
DelphiFunctionEndAccess
p3763
(dp3764
g350
(lp3765
(i__main__
DelphiIdentAccess
p3766
(dp3767
g357
S'self'
p3768
sg348
(lp3769
(idelphi
DelphiFieldEndAccess
p3770
(dp3771
g362
S'totalBiomass_pctMPB'
p3772
sbasba(i__main__
DelphiIdentAccess
p3773
(dp3774
g357
S'plant'
p3775
sg348
(lp3776
(idelphi
DelphiFieldEndAccess
p3777
(dp3778
g362
S'pFlower'
p3779
sba(idelphi
DelphiArrayEndAccess
p3780
(dp3781
g350
(lp3782
(i__main__
DelphiIdentAccess
p3783
(dp3784
g357
S'gender'
p3785
sg348
(lp3786
sbasba(idelphi
DelphiFieldEndAccess
p3787
(dp3788
g362
S'optimalBiomass_pctMPB'
p3789
sbasba(idelphi
DelphiRealValue
p3790
(dp3791
g72
S'0.0'
p3792
sbasbasbasbasbasbsg383
(i__main__
DelphiIdentAccess
p3793
(dp3794
g357
S'propFullSize'
p3795
sg348
(lp3796
sbsbsg516
(lp3797
(i__main__
DelphiIdentAccess
p3798
(dp3799
g357
S'kStageFlowerBud'
p3800
sg348
(lp3801
sba(i__main__
DelphiIdentAccess
p3802
(dp3803
g357
S'kStageOpenFlower'
p3804
sg348
(lp3805
sbasba(idelphi
DelphiCaseSelector
p3806
(dp3807
g488
(i__main__
DelphiAssignStatement
p3808
(dp3809
g375
(idelphi
DelphiNestedExpressionListAccess
p3810
(dp3811
g348
(lp3812
sg350
(lp3813
(i__main__
DelphiIdentAccess
p3814
(dp3815
g357
S'Min'
p3816
sg348
(lp3817
(idelphi
DelphiFunctionEndAccess
p3818
(dp3819
g350
(lp3820
(idelphi
DelphiRealValue
p3821
(dp3822
g72
S'1.0'
p3823
sba(i__main__
DelphiIdentAccess
p3824
(dp3825
g357
S'safedivExcept'
p3826
sg348
(lp3827
(idelphi
DelphiFunctionEndAccess
p3828
(dp3829
g350
(lp3830
(i__main__
DelphiIdentAccess
p3831
(dp3832
g357
S'self'
p3833
sg348
(lp3834
(idelphi
DelphiFieldEndAccess
p3835
(dp3836
g362
S'totalBiomass_pctMPB'
p3837
sbasba(i__main__
DelphiIdentAccess
p3838
(dp3839
g357
S'plant'
p3840
sg348
(lp3841
(idelphi
DelphiFieldEndAccess
p3842
(dp3843
g362
S'pFruit'
p3844
sba(idelphi
DelphiFieldEndAccess
p3845
(dp3846
g362
S'optimalBiomass_pctMPB'
p3847
sbasba(idelphi
DelphiRealValue
p3848
(dp3849
g72
S'0.0'
p3850
sbasbasbasbasbasbsg383
(i__main__
DelphiIdentAccess
p3851
(dp3852
g357
S'propFullSize'
p3853
sg348
(lp3854
sbsbsg516
(lp3855
(i__main__
DelphiIdentAccess
p3856
(dp3857
g357
S'kStageUnripeFruit'
p3858
sg348
(lp3859
sba(i__main__
DelphiIdentAccess
p3860
(dp3861
g357
S'kStageRipeFruit'
p3862
sg348
(lp3863
sbasbasbasbsg516
(lp3864
(i__main__
DelphiIdentAccess
p3865
(dp3866
g357
S'kActivityGrowReproductive'
p3867
sg348
(lp3868
sbasba(idelphi
DelphiCaseSelector
p3869
(dp3870
g488
Nsg516
(lp3871
(i__main__
DelphiIdentAccess
p3872
(dp3873
g357
S'kActivityStartReproduction'
p3874
sg348
(lp3875
sbasba(idelphi
DelphiCaseSelector
p3876
(dp3877
g488
(idelphi
DelphiCompoundStatement
p3878
(dp3879
g341
(lp3880
(idelphi
DelphiIfStatement
p3881
(dp3882
g345
(i__main__
DelphiIdentAccess
p3883
(dp3884
g357
S'pointsAreCloseEnough'
p3885
sg348
(lp3886
(idelphi
DelphiFunctionEndAccess
p3887
(dp3888
g350
(lp3889
(i__main__
DelphiIdentAccess
p3890
(dp3891
g357
S'traverser'
p3892
sg348
(lp3893
(idelphi
DelphiFieldEndAccess
p3894
(dp3895
g362
S'point'
p3896
sbasba(i__main__
DelphiIdentAccess
p3897
(dp3898
g357
S'self'
p3899
sg348
(lp3900
(idelphi
DelphiFieldEndAccess
p3901
(dp3902
g362
S'position'
p3903
sbasbasbasbsg368
Nsg369
(idelphi
DelphiCompoundStatement
p3904
(dp3905
g341
(lp3906
(i__main__
DelphiAssignStatement
p3907
(dp3908
g375
(i__main__
DelphiIdentAccess
p3909
(dp3910
g357
S'self'
p3911
sg348
(lp3912
sbsg383
(i__main__
DelphiIdentAccess
p3913
(dp3914
g357
S'traverser'
p3915
sg348
(lp3916
(idelphi
DelphiFieldEndAccess
p3917
(dp3918
g362
S'foundPlantPart'
p3919
sbasbsg513
(lp3920
S" can't switch because has no vegetative mode "
p3921
asba(i__main__
DelphiAssignStatement
p3922
(dp3923
g375
(i__main__
DelphiIdentAccess
p3924
(dp3925
g357
S'true'
p3926
sg348
(lp3927
sbsg383
(i__main__
DelphiIdentAccess
p3928
(dp3929
g357
S'traverser'
p3930
sg348
(lp3931
(idelphi
DelphiFieldEndAccess
p3932
(dp3933
g362
S'finished'
p3934
sbasbsbasbsbasbsg516
(lp3935
(i__main__
DelphiIdentAccess
p3936
(dp3937
g357
S'kActivityFindPlantPartAtPosition'
p3938
sg348
(lp3939
sbasba(idelphi
DelphiCaseSelector
p3940
(dp3941
g488
Nsg516
(lp3942
(i__main__
DelphiIdentAccess
p3943
(dp3944
g357
S'kActivityDraw'
p3945
sg348
(lp3946
sbasba(idelphi
DelphiCaseSelector
p3947
(dp3948
g488
Nsg516
(lp3949
(i__main__
DelphiIdentAccess
p3950
(dp3951
g357
S'kActivityReport'
p3952
sg348
(lp3953
sbasba(idelphi
DelphiCaseSelector
p3954
(dp3955
g488
Nsg516
(lp3956
(i__main__
DelphiIdentAccess
p3957
(dp3958
g357
S'kActivityStream'
p3959
sg348
(lp3960
sbasba(idelphi
DelphiCaseSelector
p3961
(dp3962
g488
Nsg516
(lp3963
(i__main__
DelphiIdentAccess
p3964
(dp3965
g357
S'kActivityFree'
p3966
sg348
(lp3967
sbasba(idelphi
DelphiCaseSelector
p3968
(dp3969
g488
Nsg516
(lp3970
(i__main__
DelphiIdentAccess
p3971
(dp3972
g357
S'kActivityVegetativeBiomassThatCanBeRemoved'
p3973
sg348
(lp3974
sbasba(idelphi
DelphiCaseSelector
p3975
(dp3976
g488
Nsg516
(lp3977
(i__main__
DelphiIdentAccess
p3978
(dp3979
g357
S'kActivityRemoveVegetativeBiomass'
p3980
sg348
(lp3981
sbasba(idelphi
DelphiCaseSelector
p3982
(dp3983
g488
(i__main__
DelphiAssignStatement
p3984
(dp3985
g375
(idelphi
DelphiAddOp
p3986
(dp3987
g2537
S'+'
sg2539
(i__main__
DelphiIdentAccess
p3988
(dp3989
g357
S'self'
p3990
sg348
(lp3991
(idelphi
DelphiFieldEndAccess
p3992
(dp3993
g362
S'liveBiomass_pctMPB'
p3994
sbasbsg2554
(i__main__
DelphiIdentAccess
p3995
(dp3996
g357
S'traverser'
p3997
sg348
(lp3998
(idelphi
DelphiFieldEndAccess
p3999
(dp4000
g362
S'total'
p4001
sbasbsbsg383
(i__main__
DelphiIdentAccess
p4002
(dp4003
g357
S'traverser'
p4004
sg348
(lp4005
(idelphi
DelphiFieldEndAccess
p4006
(dp4007
g362
S'total'
p4008
sbasbsg513
(lp4009
S' inflorescence should handle telling flowers to draw '
p4010
aS'streaming called by inflorescence'
p4011
aS' free called by inflorescence '
p4012
aS' none '
p4013
aS' do nothing '
p4014
asbsg516
(lp4015
(i__main__
DelphiIdentAccess
p4016
(dp4017
g357
S'kActivityReproductiveBiomassThatCanBeRemoved'
p4018
sg348
(lp4019
sbasba(idelphi
DelphiCaseSelector
p4020
(dp4021
g488
(idelphi
DelphiCompoundStatement
p4022
(dp4023
g341
(lp4024
(idelphi
DelphiIfStatement
p4025
(dp4026
g345
(idelphi
DelphiRelOp
p4027
(dp4028
g354
(i__main__
DelphiIdentAccess
p4029
(dp4030
g357
S'self'
p4031
sg348
(lp4032
(idelphi
DelphiFieldEndAccess
p4033
(dp4034
g362
S'liveBiomass_pctMPB'
p4035
sbasbsg364
(idelphi
DelphiRealValue
p4036
(dp4037
g72
S'0.0'
p4038
sbsg367
g2444
sbsg368
Nsg369
(i__main__
DelphiExitStatement
p4039
(dp4040
g372
g3160
sbsba(i__main__
DelphiAssignStatement
p4041
(dp4042
g375
(idelphi
DelphiMulOp
p4043
(dp4044
g537
(i__main__
DelphiIdentAccess
p4045
(dp4046
g357
S'traverser'
p4047
sg348
(lp4048
(idelphi
DelphiFieldEndAccess
p4049
(dp4050
g362
S'fractionOfPotentialBiomass'
p4051
sbasbsg542
S'*'
sg543
(i__main__
DelphiIdentAccess
p4052
(dp4053
g357
S'self'
p4054
sg348
(lp4055
(idelphi
DelphiFieldEndAccess
p4056
(dp4057
g362
S'liveBiomass_pctMPB'
p4058
sbasbsbsg383
(i__main__
DelphiIdentAccess
p4059
(dp4060
g357
S'biomassToRemove_pctMPB'
p4061
sg348
(lp4062
sbsba(i__main__
DelphiAssignStatement
p4063
(dp4064
g375
(idelphi
DelphiAddOp
p4065
(dp4066
g2537
S'-'
sg2539
(i__main__
DelphiIdentAccess
p4067
(dp4068
g357
S'biomassToRemove_pctMPB'
p4069
sg348
(lp4070
sbsg2554
(i__main__
DelphiIdentAccess
p4071
(dp4072
g357
S'self'
p4073
sg348
(lp4074
(idelphi
DelphiFieldEndAccess
p4075
(dp4076
g362
S'liveBiomass_pctMPB'
p4077
sbasbsbsg383
(i__main__
DelphiIdentAccess
p4078
(dp4079
g357
S'self'
p4080
sg348
(lp4081
(idelphi
DelphiFieldEndAccess
p4082
(dp4083
g362
S'liveBiomass_pctMPB'
p4084
sbasbsba(i__main__
DelphiAssignStatement
p4085
(dp4086
g375
(idelphi
DelphiAddOp
p4087
(dp4088
g2537
S'+'
sg2539
(i__main__
DelphiIdentAccess
p4089
(dp4090
g357
S'biomassToRemove_pctMPB'
p4091
sg348
(lp4092
sbsg2554
(i__main__
DelphiIdentAccess
p4093
(dp4094
g357
S'self'
p4095
sg348
(lp4096
(idelphi
DelphiFieldEndAccess
p4097
(dp4098
g362
S'deadBiomass_pctMPB'
p4099
sbasbsbsg383
(i__main__
DelphiIdentAccess
p4100
(dp4101
g357
S'self'
p4102
sg348
(lp4103
(idelphi
DelphiFieldEndAccess
p4104
(dp4105
g362
S'deadBiomass_pctMPB'
p4106
sbasbsba(idelphi
DelphiIfStatement
p4107
(dp4108
g345
(idelphi
DelphiRelOp
p4109
(dp4110
g354
(i__main__
DelphiIdentAccess
p4111
(dp4112
g357
S'self'
p4113
sg348
(lp4114
(idelphi
DelphiFieldEndAccess
p4115
(dp4116
g362
S'liveBiomass_pctMPB'
p4117
sbasbsg364
(idelphi
DelphiRealValue
p4118
(dp4119
g72
S'0.0'
p4120
sbsg367
g2444
sbsg368
Nsg369
(idelphi
DelphiCompoundStatement
p4121
(dp4122
g341
(lp4123
(idelphi
DelphiIfStatement
p4124
(dp4125
g345
(idelphi
DelphiAddOp
p4126
(dp4127
g2537
g2538
sg2539
(idelphi
DelphiNestedExpressionListAccess
p4128
(dp4129
g348
(lp4130
sg350
(lp4131
(idelphi
DelphiRelOp
p4132
(dp4133
g354
(i__main__
DelphiIdentAccess
p4134
(dp4135
g357
S'stage'
p4136
sg348
(lp4137
sbsg364
(i__main__
DelphiIdentAccess
p4138
(dp4139
g357
S'kStageRipeFruit'
p4140
sg348
(lp4141
sbsg367
S'='
sbasbsg2554
(idelphi
DelphiNestedExpressionListAccess
p4142
(dp4143
g348
(lp4144
sg350
(lp4145
(idelphi
DelphiRelOp
p4146
(dp4147
g354
(i__main__
DelphiIdentAccess
p4148
(dp4149
g357
S'stage'
p4150
sg348
(lp4151
sbsg364
(i__main__
DelphiIdentAccess
p4152
(dp4153
g357
S'kStageUnripeFruit'
p4154
sg348
(lp4155
sbsg367
S'='
sbasbsbsg368
Nsg369
(i__main__
DelphiAssignStatement
p4156
(dp4157
g375
(i__main__
DelphiIdentAccess
p4158
(dp4159
g357
S'true'
p4160
sg348
(lp4161
sbsg383
(i__main__
DelphiIdentAccess
p4162
(dp4163
g357
S'self'
p4164
sg348
(lp4165
(idelphi
DelphiFieldEndAccess
p4166
(dp4167
g362
S'hasFallenOff'
p4168
sbasbsbsbasbsbasbsg516
(lp4169
(i__main__
DelphiIdentAccess
p4170
(dp4171
g357
S'kActivityRemoveReproductiveBiomass'
p4172
sg348
(lp4173
sbasba(idelphi
DelphiCaseSelector
p4174
(dp4175
g488
(idelphi
DelphiCompoundStatement
p4176
(dp4177
g341
(lp4178
(idelphi
DelphiCaseStatement
p4179
(dp4180
g479
(idelphi
DelphiRaiseStatement
p4181
(dp4182
g345
(i__main__
DelphiIdentAccess
p4183
(dp4184
g357
S'Exception'
p4185
sg348
(lp4186
(idelphi
DelphiFieldEndAccess
p4187
(dp4188
g362
S'create'
p4189
sba(idelphi
DelphiFunctionEndAccess
p4190
(dp4191
g350
(lp4192
(idelphi
DelphiStringAccess
p4193
(dp4194
g348
(lp4195
sg72
(idelphi
DelphiStringValue
p4196
(dp4197
g72
S'Problem: Invalid fruit stage in method PdFlowerFruit.traverseActivity.'
p4198
sbsbasbasbsbsg345
(i__main__
DelphiIdentAccess
p4199
(dp4200
g357
S'stage'
p4201
sg348
(lp4202
sbsg484
(lp4203
(idelphi
DelphiCaseSelector
p4204
(dp4205
g488
(idelphi
DelphiIfStatement
p4206
(dp4207
g345
(idelphi
DelphiRelOp
p4208
(dp4209
g354
(i__main__
DelphiIdentAccess
p4210
(dp4211
g357
S'gender'
p4212
sg348
(lp4213
sbsg364
(i__main__
DelphiIdentAccess
p4214
(dp4215
g357
S'kGenderMale'
p4216
sg348
(lp4217
sbsg367
S'='
sbsg368
(idelphi
DelphiCompoundStatement
p4218
(dp4219
g341
(lp4220
(idelphi
DelphiIfStatement
p4221
(dp4222
g345
(i__main__
DelphiIdentAccess
p4223
(dp4224
g357
S'self'
p4225
sg348
(lp4226
(idelphi
DelphiFieldEndAccess
p4227
(dp4228
g362
S'hasFallenOff'
p4229
sbasbsg368
(i__main__
DelphiAssignStatement
p4230
(dp4231
g375
Nsg383
(i__main__
DelphiIdentAccess
p4232
(dp4233
g357
S'self'
p4234
sg348
(lp4235
(idelphi
DelphiFieldEndAccess
p4236
(dp4237
g362
S'addToStatistics'
p4238
sba(idelphi
DelphiFunctionEndAccess
p4239
(dp4240
g350
(lp4241
(i__main__
DelphiIdentAccess
p4242
(dp4243
g357
S'traverser'
p4244
sg348
(lp4245
(idelphi
DelphiFieldEndAccess
p4246
(dp4247
g362
S'statistics'
p4248
sbasba(i__main__
DelphiIdentAccess
p4249
(dp4250
g357
S'kStatisticsPartTypeFemaleFlowerBud'
p4251
sg348
(lp4252
sbasbasbsbsg369
(i__main__
DelphiAssignStatement
p4253
(dp4254
g375
Nsg383
(i__main__
DelphiIdentAccess
p4255
(dp4256
g357
S'self'
p4257
sg348
(lp4258
(idelphi
DelphiFieldEndAccess
p4259
(dp4260
g362
S'addToStatistics'
p4261
sba(idelphi
DelphiFunctionEndAccess
p4262
(dp4263
g350
(lp4264
(i__main__
DelphiIdentAccess
p4265
(dp4266
g357
S'traverser'
p4267
sg348
(lp4268
(idelphi
DelphiFieldEndAccess
p4269
(dp4270
g362
S'statistics'
p4271
sbasba(i__main__
DelphiIdentAccess
p4272
(dp4273
g357
S'kStatisticsPartTypeFallenFlower'
p4274
sg348
(lp4275
sbasbasbsbsbasbsg369
(idelphi
DelphiCompoundStatement
p4276
(dp4277
g341
(lp4278
(idelphi
DelphiIfStatement
p4279
(dp4280
g345
(i__main__
DelphiIdentAccess
p4281
(dp4282
g357
S'self'
p4283
sg348
(lp4284
(idelphi
DelphiFieldEndAccess
p4285
(dp4286
g362
S'hasFallenOff'
p4287
sbasbsg368
(i__main__
DelphiAssignStatement
p4288
(dp4289
g375
Nsg383
(i__main__
DelphiIdentAccess
p4290
(dp4291
g357
S'self'
p4292
sg348
(lp4293
(idelphi
DelphiFieldEndAccess
p4294
(dp4295
g362
S'addToStatistics'
p4296
sba(idelphi
DelphiFunctionEndAccess
p4297
(dp4298
g350
(lp4299
(i__main__
DelphiIdentAccess
p4300
(dp4301
g357
S'traverser'
p4302
sg348
(lp4303
(idelphi
DelphiFieldEndAccess
p4304
(dp4305
g362
S'statistics'
p4306
sbasba(i__main__
DelphiIdentAccess
p4307
(dp4308
g357
S'kStatisticsPartTypeMaleFlowerBud'
p4309
sg348
(lp4310
sbasbasbsbsg369
(i__main__
DelphiAssignStatement
p4311
(dp4312
g375
Nsg383
(i__main__
DelphiIdentAccess
p4313
(dp4314
g357
S'self'
p4315
sg348
(lp4316
(idelphi
DelphiFieldEndAccess
p4317
(dp4318
g362
S'addToStatistics'
p4319
sba(idelphi
DelphiFunctionEndAccess
p4320
(dp4321
g350
(lp4322
(i__main__
DelphiIdentAccess
p4323
(dp4324
g357
S'traverser'
p4325
sg348
(lp4326
(idelphi
DelphiFieldEndAccess
p4327
(dp4328
g362
S'statistics'
p4329
sbasba(i__main__
DelphiIdentAccess
p4330
(dp4331
g357
S'kStatisticsPartTypeFallenFlower'
p4332
sg348
(lp4333
sbasbasbsbsbasbsbsg516
(lp4334
(i__main__
DelphiIdentAccess
p4335
(dp4336
g357
S'kStageFlowerBud'
p4337
sg348
(lp4338
sbasba(idelphi
DelphiCaseSelector
p4339
(dp4340
g488
(idelphi
DelphiIfStatement
p4341
(dp4342
g345
(idelphi
DelphiRelOp
p4343
(dp4344
g354
(i__main__
DelphiIdentAccess
p4345
(dp4346
g357
S'gender'
p4347
sg348
(lp4348
sbsg364
(i__main__
DelphiIdentAccess
p4349
(dp4350
g357
S'kGenderMale'
p4351
sg348
(lp4352
sbsg367
S'='
sbsg368
(idelphi
DelphiCompoundStatement
p4353
(dp4354
g341
(lp4355
(idelphi
DelphiIfStatement
p4356
(dp4357
g345
(i__main__
DelphiIdentAccess
p4358
(dp4359
g357
S'self'
p4360
sg348
(lp4361
(idelphi
DelphiFieldEndAccess
p4362
(dp4363
g362
S'hasFallenOff'
p4364
sbasbsg368
(i__main__
DelphiAssignStatement
p4365
(dp4366
g375
Nsg383
(i__main__
DelphiIdentAccess
p4367
(dp4368
g357
S'self'
p4369
sg348
(lp4370
(idelphi
DelphiFieldEndAccess
p4371
(dp4372
g362
S'addToStatistics'
p4373
sba(idelphi
DelphiFunctionEndAccess
p4374
(dp4375
g350
(lp4376
(i__main__
DelphiIdentAccess
p4377
(dp4378
g357
S'traverser'
p4379
sg348
(lp4380
(idelphi
DelphiFieldEndAccess
p4381
(dp4382
g362
S'statistics'
p4383
sbasba(i__main__
DelphiIdentAccess
p4384
(dp4385
g357
S'kStatisticsPartTypeFemaleFlower'
p4386
sg348
(lp4387
sbasbasbsbsg369
(i__main__
DelphiAssignStatement
p4388
(dp4389
g375
Nsg383
(i__main__
DelphiIdentAccess
p4390
(dp4391
g357
S'self'
p4392
sg348
(lp4393
(idelphi
DelphiFieldEndAccess
p4394
(dp4395
g362
S'addToStatistics'
p4396
sba(idelphi
DelphiFunctionEndAccess
p4397
(dp4398
g350
(lp4399
(i__main__
DelphiIdentAccess
p4400
(dp4401
g357
S'traverser'
p4402
sg348
(lp4403
(idelphi
DelphiFieldEndAccess
p4404
(dp4405
g362
S'statistics'
p4406
sbasba(i__main__
DelphiIdentAccess
p4407
(dp4408
g357
S'kStatisticsPartTypeFallenFlower'
p4409
sg348
(lp4410
sbasbasbsbsbasbsg369
(idelphi
DelphiCompoundStatement
p4411
(dp4412
g341
(lp4413
(idelphi
DelphiIfStatement
p4414
(dp4415
g345
(i__main__
DelphiIdentAccess
p4416
(dp4417
g357
S'self'
p4418
sg348
(lp4419
(idelphi
DelphiFieldEndAccess
p4420
(dp4421
g362
S'hasFallenOff'
p4422
sbasbsg368
(i__main__
DelphiAssignStatement
p4423
(dp4424
g375
Nsg383
(i__main__
DelphiIdentAccess
p4425
(dp4426
g357
S'self'
p4427
sg348
(lp4428
(idelphi
DelphiFieldEndAccess
p4429
(dp4430
g362
S'addToStatistics'
p4431
sba(idelphi
DelphiFunctionEndAccess
p4432
(dp4433
g350
(lp4434
(i__main__
DelphiIdentAccess
p4435
(dp4436
g357
S'traverser'
p4437
sg348
(lp4438
(idelphi
DelphiFieldEndAccess
p4439
(dp4440
g362
S'statistics'
p4441
sbasba(i__main__
DelphiIdentAccess
p4442
(dp4443
g357
S'kStatisticsPartTypeMaleFlower'
p4444
sg348
(lp4445
sbasbasbsbsg369
(i__main__
DelphiAssignStatement
p4446
(dp4447
g375
Nsg383
(i__main__
DelphiIdentAccess
p4448
(dp4449
g357
S'self'
p4450
sg348
(lp4451
(idelphi
DelphiFieldEndAccess
p4452
(dp4453
g362
S'addToStatistics'
p4454
sba(idelphi
DelphiFunctionEndAccess
p4455
(dp4456
g350
(lp4457
(i__main__
DelphiIdentAccess
p4458
(dp4459
g357
S'traverser'
p4460
sg348
(lp4461
(idelphi
DelphiFieldEndAccess
p4462
(dp4463
g362
S'statistics'
p4464
sbasba(i__main__
DelphiIdentAccess
p4465
(dp4466
g357
S'kStatisticsPartTypeFallenFlower'
p4467
sg348
(lp4468
sbasbasbsbsbasbsbsg516
(lp4469
(i__main__
DelphiIdentAccess
p4470
(dp4471
g357
S'kStageOpenFlower'
p4472
sg348
(lp4473
sbasba(idelphi
DelphiCaseSelector
p4474
(dp4475
g488
(idelphi
DelphiIfStatement
p4476
(dp4477
g345
(i__main__
DelphiIdentAccess
p4478
(dp4479
g357
S'self'
p4480
sg348
(lp4481
(idelphi
DelphiFieldEndAccess
p4482
(dp4483
g362
S'hasFallenOff'
p4484
sbasbsg368
(i__main__
DelphiAssignStatement
p4485
(dp4486
g375
Nsg383
(i__main__
DelphiIdentAccess
p4487
(dp4488
g357
S'self'
p4489
sg348
(lp4490
(idelphi
DelphiFieldEndAccess
p4491
(dp4492
g362
S'addToStatistics'
p4493
sba(idelphi
DelphiFunctionEndAccess
p4494
(dp4495
g350
(lp4496
(i__main__
DelphiIdentAccess
p4497
(dp4498
g357
S'traverser'
p4499
sg348
(lp4500
(idelphi
DelphiFieldEndAccess
p4501
(dp4502
g362
S'statistics'
p4503
sbasba(i__main__
DelphiIdentAccess
p4504
(dp4505
g357
S'kStatisticsPartTypeUnripeFruit'
p4506
sg348
(lp4507
sbasbasbsbsg369
(i__main__
DelphiAssignStatement
p4508
(dp4509
g375
Nsg383
(i__main__
DelphiIdentAccess
p4510
(dp4511
g357
S'self'
p4512
sg348
(lp4513
(idelphi
DelphiFieldEndAccess
p4514
(dp4515
g362
S'addToStatistics'
p4516
sba(idelphi
DelphiFunctionEndAccess
p4517
(dp4518
g350
(lp4519
(i__main__
DelphiIdentAccess
p4520
(dp4521
g357
S'traverser'
p4522
sg348
(lp4523
(idelphi
DelphiFieldEndAccess
p4524
(dp4525
g362
S'statistics'
p4526
sbasba(i__main__
DelphiIdentAccess
p4527
(dp4528
g357
S'kStatisticsPartTypeFallenFruit'
p4529
sg348
(lp4530
sbasbasbsbsbsg516
(lp4531
(i__main__
DelphiIdentAccess
p4532
(dp4533
g357
S'kStageUnripeFruit'
p4534
sg348
(lp4535
sbasba(idelphi
DelphiCaseSelector
p4536
(dp4537
g488
(idelphi
DelphiIfStatement
p4538
(dp4539
g345
(i__main__
DelphiIdentAccess
p4540
(dp4541
g357
S'self'
p4542
sg348
(lp4543
(idelphi
DelphiFieldEndAccess
p4544
(dp4545
g362
S'hasFallenOff'
p4546
sbasbsg368
(i__main__
DelphiAssignStatement
p4547
(dp4548
g375
Nsg383
(i__main__
DelphiIdentAccess
p4549
(dp4550
g357
S'self'
p4551
sg348
(lp4552
(idelphi
DelphiFieldEndAccess
p4553
(dp4554
g362
S'addToStatistics'
p4555
sba(idelphi
DelphiFunctionEndAccess
p4556
(dp4557
g350
(lp4558
(i__main__
DelphiIdentAccess
p4559
(dp4560
g357
S'traverser'
p4561
sg348
(lp4562
(idelphi
DelphiFieldEndAccess
p4563
(dp4564
g362
S'statistics'
p4565
sbasba(i__main__
DelphiIdentAccess
p4566
(dp4567
g357
S'kStatisticsPartTypeFruit'
p4568
sg348
(lp4569
sbasbasbsbsg369
(i__main__
DelphiAssignStatement
p4570
(dp4571
g375
Nsg383
(i__main__
DelphiIdentAccess
p4572
(dp4573
g357
S'self'
p4574
sg348
(lp4575
(idelphi
DelphiFieldEndAccess
p4576
(dp4577
g362
S'addToStatistics'
p4578
sba(idelphi
DelphiFunctionEndAccess
p4579
(dp4580
g350
(lp4581
(i__main__
DelphiIdentAccess
p4582
(dp4583
g357
S'traverser'
p4584
sg348
(lp4585
(idelphi
DelphiFieldEndAccess
p4586
(dp4587
g362
S'statistics'
p4588
sbasba(i__main__
DelphiIdentAccess
p4589
(dp4590
g357
S'kStatisticsPartTypeFallenFruit'
p4591
sg348
(lp4592
sbasbasbsbsbsg516
(lp4593
(i__main__
DelphiIdentAccess
p4594
(dp4595
g357
S'kStageRipeFruit'
p4596
sg348
(lp4597
sbasbasba(i__main__
DelphiAssignStatement
p4598
(dp4599
g375
Nsg383
(i__main__
DelphiIdentAccess
p4600
(dp4601
g357
S'self'
p4602
sg348
(lp4603
(idelphi
DelphiFieldEndAccess
p4604
(dp4605
g362
S'addToStatistics'
p4606
sba(idelphi
DelphiFunctionEndAccess
p4607
(dp4608
g350
(lp4609
(i__main__
DelphiIdentAccess
p4610
(dp4611
g357
S'traverser'
p4612
sg348
(lp4613
(idelphi
DelphiFieldEndAccess
p4614
(dp4615
g362
S'statistics'
p4616
sbasba(i__main__
DelphiIdentAccess
p4617
(dp4618
g357
S'kStatisticsPartTypeAllReproductive'
p4619
sg348
(lp4620
sbasbasbsbasbsg516
(lp4621
(i__main__
DelphiIdentAccess
p4622
(dp4623
g357
S'kActivityGatherStatistics'
p4624
sg348
(lp4625
sbasba(idelphi
DelphiCaseSelector
p4626
(dp4627
g488
Nsg516
(lp4628
(i__main__
DelphiIdentAccess
p4629
(dp4630
g357
S'kActivityCountPlantParts'
p4631
sg348
(lp4632
sbasba(idelphi
DelphiCaseSelector
p4633
(dp4634
g488
Nsg516
(lp4635
(i__main__
DelphiIdentAccess
p4636
(dp4637
g357
S'kActivityFindPartForPartID'
p4638
sg348
(lp4639
sbasba(idelphi
DelphiCaseSelector
p4640
(dp4641
g488
(i__main__
DelphiIncOrDecStatement
p4642
(dp4643
g1279
g1280
sg1281
(i__main__
DelphiIdentAccess
p4644
(dp4645
g357
S'self'
p4646
sg348
(lp4647
(idelphi
DelphiFieldEndAccess
p4648
(dp4649
g362
S'instanceSize'
p4650
sbasbsg383
(i__main__
DelphiIdentAccess
p4651
(dp4652
g357
S'traverser'
p4653
sg348
(lp4654
(idelphi
DelphiFieldEndAccess
p4655
(dp4656
g362
S'totalMemorySize'
p4657
sbasbsbsg516
(lp4658
(i__main__
DelphiIdentAccess
p4659
(dp4660
g357
S'kActivityCountTotalMemoryUse'
p4661
sg348
(lp4662
sbasba(idelphi
DelphiCaseSelector
p4663
(dp4664
g488
Nsg516
(lp4665
(i__main__
DelphiIdentAccess
p4666
(dp4667
g357
S'kActivityCalculateBiomassForGravity'
p4668
sg348
(lp4669
sbasba(idelphi
DelphiCaseSelector
p4670
(dp4671
g488
(idelphi
DelphiCompoundStatement
p4672
(dp4673
g341
(lp4674
(i__main__
DelphiAssignStatement
p4675
(dp4676
g375
Nsg383
(i__main__
DelphiIdentAccess
p4677
(dp4678
g357
S'self'
p4679
sg348
(lp4680
(idelphi
DelphiFieldEndAccess
p4681
(dp4682
g362
S'countPointsAndTrianglesFor3DExportAndAddToTraverserTotals'
p4683
sba(idelphi
DelphiFunctionEndAccess
p4684
(dp4685
g350
(lp4686
(i__main__
DelphiIdentAccess
p4687
(dp4688
g357
S'traverser'
p4689
sg348
(lp4690
sbasbasbsbasbsg516
(lp4691
(i__main__
DelphiIdentAccess
p4692
(dp4693
g357
S'kActivityCountPointsAndTrianglesFor3DExport'
p4694
sg348
(lp4695
sbasbasbasg1143
(idelphi
DelphiExceptionHandlers
p4696
(dp4697
g1146
(lp4698
(idelphi
DelphiExceptionHandler
p4699
(dp4700
g1150
(i__main__
DelphiNamedType
p4701
(dp4702
g48
S'Exception'
p4703
sg50
g1
sg51
Nsbsg357
S'e'
sg488
(i__main__
DelphiAssignStatement
p4704
(dp4705
g375
Nsg383
(i__main__
DelphiIdentAccess
p4706
(dp4707
g357
S'messageForExceptionType'
p4708
sg348
(lp4709
(idelphi
DelphiFunctionEndAccess
p4710
(dp4711
g350
(lp4712
(i__main__
DelphiIdentAccess
p4713
(dp4714
g357
S'e'
sg348
(lp4715
sba(idelphi
DelphiStringAccess
p4716
(dp4717
g348
(lp4718
sg72
(idelphi
DelphiStringValue
p4719
(dp4720
g72
S'PdFlowerFruit.traverseActivity'
p4721
sbsbasbasbsbsbasg1172
(lp4722
sbsbasbsg1174
(lp4723
(i__main__
DelphiVarSection
p4724
(dp4725
g1178
I0
sg1179
(lp4726
(idelphi
DelphiVarDecl
p4727
(dp4728
g1183
Nsg1184
(lp4729
S'traverser'
p4730
asg45
(i__main__
DelphiNamedType
p4731
(dp4732
g48
S'PdTraverser'
p4733
sg50
g1
sg51
Nsbsba(idelphi
DelphiVarDecl
p4734
(dp4735
g1183
Nsg1184
(lp4736
S'newPropFullSize'
p4737
aS'newBiomass_pctMPB'
p4738
aS'newOptimalBiomass_pctMPB'
p4739
aS'biomassToRemove_pctMPB'
p4740
asg45
(i__main__
DelphiPrimitiveType
p4741
(dp4742
g48
g126
sbsba(idelphi
DelphiVarDecl
p4743
(dp4744
g1183
Nsg1184
(lp4745
S'fractionOfMaxAge_frn'
p4746
asg45
(i__main__
DelphiPrimitiveType
p4747
(dp4748
g48
g126
sbsbasbasbsbsS'tdotosortlineswith'
p4749
(i__main__
DelphiMethodImplementation
p4750
(dp4751
g321
g177
sg19
g179
sg27
(lp4752
sg323
(lp4753
sg325
(lp4754
sg327
(lp4755
g329
asg330
(dp4756
sg29
S'PdFlowerFruit'
p4757
sg30
(i__main__
DelphiNamedType
p4758
(dp4759
g48
S'KfObject3D'
p4760
sg50
g1
sg51
Nsbsg333
(lp4761
sg31
I0
sg32
g73
sg335
(i__main__
DelphiBlock
p4762
(dp4763
g338
(idelphi
DelphiCompoundStatement
p4764
(dp4765
g341
(lp4766
(i__main__
DelphiAssignStatement
p4767
(dp4768
g375
(idelphi
DelphiNilValue
p4769
(dp4770
bsg383
(i__main__
DelphiIdentAccess
p4771
(dp4772
g357
S'result'
p4773
sg348
(lp4774
sbsba(idelphi
DelphiIfStatement
p4775
(dp4776
g345
(idelphi
DelphiRelOp
p4777
(dp4778
g354
(i__main__
DelphiIdentAccess
p4779
(dp4780
g357
S'plant'
p4781
sg348
(lp4782
sbsg364
(idelphi
DelphiNilValue
p4783
(dp4784
bsg367
S'='
sbsg368
Nsg369
(i__main__
DelphiExitStatement
p4785
(dp4786
g372
g4750
sbsba(idelphi
DelphiIfStatement
p4787
(dp4788
g345
(i__main__
DelphiIdentAccess
p4789
(dp4790
g357
S'self'
p4791
sg348
(lp4792
(idelphi
DelphiFieldEndAccess
p4793
(dp4794
g362
S'hasFallenOff'
p4795
sbasbsg368
Nsg369
(i__main__
DelphiExitStatement
p4796
(dp4797
g372
g4750
sbsba(idelphi
DelphiCaseStatement
p4798
(dp4799
g479
Nsg345
(i__main__
DelphiIdentAccess
p4800
(dp4801
g357
S'stage'
p4802
sg348
(lp4803
sbsg484
(lp4804
(idelphi
DelphiCaseSelector
p4805
(dp4806
g488
(i__main__
DelphiAssignStatement
p4807
(dp4808
g375
(i__main__
DelphiIdentAccess
p4809
(dp4810
g357
S'plant'
p4811
sg348
(lp4812
(idelphi
DelphiFieldEndAccess
p4813
(dp4814
g362
S'pFlower'
p4815
sba(idelphi
DelphiArrayEndAccess
p4816
(dp4817
g350
(lp4818
(i__main__
DelphiIdentAccess
p4819
(dp4820
g357
S'gender'
p4821
sg348
(lp4822
sbasba(idelphi
DelphiFieldEndAccess
p4823
(dp4824
g362
S'tdoParams'
p4825
sba(idelphi
DelphiArrayEndAccess
p4826
(dp4827
g350
(lp4828
(i__main__
DelphiIdentAccess
p4829
(dp4830
g357
S'kBud'
p4831
sg348
(lp4832
sbasba(idelphi
DelphiFieldEndAccess
p4833
(dp4834
g362
S'object3D'
p4835
sbasbsg383
(i__main__
DelphiIdentAccess
p4836
(dp4837
g357
S'result'
p4838
sg348
(lp4839
sbsbsg516
(lp4840
(i__main__
DelphiIdentAccess
p4841
(dp4842
g357
S'kStageFlowerBud'
p4843
sg348
(lp4844
sbasba(idelphi
DelphiCaseSelector
p4845
(dp4846
g488
(i__main__
DelphiAssignStatement
p4847
(dp4848
g375
(i__main__
DelphiIdentAccess
p4849
(dp4850
g357
S'plant'
p4851
sg348
(lp4852
(idelphi
DelphiFieldEndAccess
p4853
(dp4854
g362
S'pFlower'
p4855
sba(idelphi
DelphiArrayEndAccess
p4856
(dp4857
g350
(lp4858
(i__main__
DelphiIdentAccess
p4859
(dp4860
g357
S'gender'
p4861
sg348
(lp4862
sbasba(idelphi
DelphiFieldEndAccess
p4863
(dp4864
g362
S'tdoParams'
p4865
sba(idelphi
DelphiArrayEndAccess
p4866
(dp4867
g350
(lp4868
(i__main__
DelphiIdentAccess
p4869
(dp4870
g357
S'kFirstPetals'
p4871
sg348
(lp4872
sbasba(idelphi
DelphiFieldEndAccess
p4873
(dp4874
g362
S'object3D'
p4875
sbasbsg383
(i__main__
DelphiIdentAccess
p4876
(dp4877
g357
S'result'
p4878
sg348
(lp4879
sbsbsg516
(lp4880
(i__main__
DelphiIdentAccess
p4881
(dp4882
g357
S'kStageOpenFlower'
p4883
sg348
(lp4884
sbasba(idelphi
DelphiCaseSelector
p4885
(dp4886
g488
(i__main__
DelphiAssignStatement
p4887
(dp4888
g375
(i__main__
DelphiIdentAccess
p4889
(dp4890
g357
S'plant'
p4891
sg348
(lp4892
(idelphi
DelphiFieldEndAccess
p4893
(dp4894
g362
S'pFruit'
p4895
sba(idelphi
DelphiFieldEndAccess
p4896
(dp4897
g362
S'tdoParams'
p4898
sba(idelphi
DelphiFieldEndAccess
p4899
(dp4900
g362
S'object3D'
p4901
sbasbsg383
(i__main__
DelphiIdentAccess
p4902
(dp4903
g357
S'result'
p4904
sg348
(lp4905
sbsbsg516
(lp4906
(i__main__
DelphiIdentAccess
p4907
(dp4908
g357
S'kStageUnripeFruit'
p4909
sg348
(lp4910
sba(i__main__
DelphiIdentAccess
p4911
(dp4912
g357
S'kStageRipeFruit'
p4913
sg348
(lp4914
sbasbasbasbsg1174
(lp4915
sbsbsS'nextday'
p4916
(i__main__
DelphiMethodImplementation
p4917
(dp4918
g321
g185
sg19
g187
sg27
(lp4919
sg323
(lp4920
sg325
(lp4921
sg327
(lp4922
g329
asg330
(dp4923
sg29
S'PdFlowerFruit'
p4924
sg30
Nsg333
(lp4925
sg31
I0
sg32
g33
sg335
(i__main__
DelphiBlock
p4926
(dp4927
g338
(idelphi
DelphiCompoundStatement
p4928
(dp4929
g341
(lp4930
(idelphi
DelphiIfStatement
p4931
(dp4932
g345
(i__main__
DelphiIdentAccess
p4933
(dp4934
g357
S'self'
p4935
sg348
(lp4936
(idelphi
DelphiFieldEndAccess
p4937
(dp4938
g362
S'hasFallenOff'
p4939
sbasbsg368
Nsg369
(i__main__
DelphiExitStatement
p4940
(dp4941
g372
g4917
sbsba(idelphi
DelphiTryExceptStatement
p4942
(dp4943
g475
(lp4944
(i__main__
DelphiAssignStatement
p4945
(dp4946
g375
Nsg383
(idelphi
DelphiInheritedCall
p4947
(dp4948
g357
S'nextDay'
p4949
sg350
Nsbsba(idelphi
DelphiCaseStatement
p4950
(dp4951
g479
Nsg345
(i__main__
DelphiIdentAccess
p4952
(dp4953
g357
S'self'
p4954
sg348
(lp4955
(idelphi
DelphiFieldEndAccess
p4956
(dp4957
g362
S'stage'
p4958
sbasbsg484
(lp4959
(idelphi
DelphiCaseSelector
p4960
(dp4961
g488
(idelphi
DelphiCompoundStatement
p4962
(dp4963
g341
(lp4964
(idelphi
DelphiWithStatement
p4965
(dp4966
g488
(idelphi
DelphiIfStatement
p4967
(dp4968
g345
(idelphi
DelphiMulOp
p4969
(dp4970
g537
(idelphi
DelphiNestedExpressionListAccess
p4971
(dp4972
g348
(lp4973
sg350
(lp4974
(idelphi
DelphiRelOp
p4975
(dp4976
g354
(i__main__
DelphiIdentAccess
p4977
(dp4978
g357
S'age'
p4979
sg348
(lp4980
sbsg364
(i__main__
DelphiIdentAccess
p4981
(dp4982
g357
S'minDaysToOpenFlower'
p4983
sg348
(lp4984
sbsg367
S'>'
sbasbsg542
g2512
sg543
(idelphi
DelphiNestedExpressionListAccess
p4985
(dp4986
g348
(lp4987
sg350
(lp4988
(idelphi
DelphiAddOp
p4989
(dp4990
g2537
g2538
sg2539
(idelphi
DelphiNestedExpressionListAccess
p4991
(dp4992
g348
(lp4993
sg350
(lp4994
(idelphi
DelphiRelOp
p4995
(dp4996
g354
(i__main__
DelphiIdentAccess
p4997
(dp4998
g357
S'age'
p4999
sg348
(lp5000
sbsg364
(i__main__
DelphiIdentAccess
p5001
(dp5002
g357
S'maxDaysToGrowIfOverMinFraction'
p5003
sg348
(lp5004
sbsg367
S'>'
sbasbsg2554
(idelphi
DelphiNestedExpressionListAccess
p5005
(dp5006
g348
(lp5007
sg350
(lp5008
(idelphi
DelphiRelOp
p5009
(dp5010
g354
(i__main__
DelphiIdentAccess
p5011
(dp5012
g357
S'liveBiomass_pctMPB'
p5013
sg348
(lp5014
sbsg364
(idelphi
DelphiMulOp
p5015
(dp5016
g537
(i__main__
DelphiIdentAccess
p5017
(dp5018
g357
S'optimalBiomass_pctMPB'
p5019
sg348
(lp5020
sbsg542
S'*'
sg543
(i__main__
DelphiIdentAccess
p5021
(dp5022
g357
S'minFractionOfOptimalBiomassToOpenFlower_frn'
p5023
sg348
(lp5024
sbsbsg367
S'>='
p5025
sbasbsbasbsbsg368
Nsg369
(idelphi
DelphiCompoundStatement
p5026
(dp5027
g341
(lp5028
(i__main__
DelphiAssignStatement
p5029
(dp5030
g375
(i__main__
DelphiIdentAccess
p5031
(dp5032
g357
S'kStageOpenFlower'
p5033
sg348
(lp5034
sbsg383
(i__main__
DelphiIdentAccess
p5035
(dp5036
g357
S'stage'
p5037
sg348
(lp5038
sbsg513
(lp5039
S'if over required fraction of optimal or over max days to grow, open bud'
p5040
asba(i__main__
DelphiAssignStatement
p5041
(dp5042
g375
(idelphi
DelphiIntegerValue
p5043
(dp5044
g72
S'0'
sbsg383
(i__main__
DelphiIdentAccess
p5045
(dp5046
g357
S'daysOpen'
p5047
sg348
(lp5048
sbsbasbsbsg684
(lp5049
(i__main__
DelphiIdentAccess
p5050
(dp5051
g357
S'plant'
p5052
sg348
(lp5053
(idelphi
DelphiFieldEndAccess
p5054
(dp5055
g362
S'pFlower'
p5056
sba(idelphi
DelphiArrayEndAccess
p5057
(dp5058
g350
(lp5059
(i__main__
DelphiIdentAccess
p5060
(dp5061
g357
S'gender'
p5062
sg348
(lp5063
sbasbasbasbasbsg516
(lp5064
(i__main__
DelphiIdentAccess
p5065
(dp5066
g357
S'kStageFlowerBud'
p5067
sg348
(lp5068
sbasba(idelphi
DelphiCaseSelector
p5069
(dp5070
g488
(idelphi
DelphiCompoundStatement
p5071
(dp5072
g341
(lp5073
(i__main__
DelphiIncOrDecStatement
p5074
(dp5075
g1279
g1280
sg1281
Nsg383
(i__main__
DelphiIdentAccess
p5076
(dp5077
g357
S'daysOpen'
p5078
sg348
(lp5079
sbsg513
(lp5080
S'if over optimal or over min fraction to create fruit and over max days to grow, set fruit'
p5081
asba(idelphi
DelphiIfStatement
p5082
(dp5083
g345
(idelphi
DelphiRelOp
p5084
(dp5085
g354
(i__main__
DelphiIdentAccess
p5086
(dp5087
g357
S'self'
p5088
sg348
(lp5089
(idelphi
DelphiFieldEndAccess
p5090
(dp5091
g362
S'daysOpen'
p5092
sbasbsg364
(i__main__
DelphiIdentAccess
p5093
(dp5094
g357
S'plant'
p5095
sg348
(lp5096
(idelphi
DelphiFieldEndAccess
p5097
(dp5098
g362
S'pFlower'
p5099
sba(idelphi
DelphiArrayEndAccess
p5100
(dp5101
g350
(lp5102
(i__main__
DelphiIdentAccess
p5103
(dp5104
g357
S'gender'
p5105
sg348
(lp5106
sbasba(idelphi
DelphiFieldEndAccess
p5107
(dp5108
g362
S'daysBeforeDrop'
p5109
sbasbsg367
S'>'
sbsg368
(idelphi
DelphiIfStatement
p5110
(dp5111
g345
(idelphi
DelphiRelOp
p5112
(dp5113
g354
(i__main__
DelphiIdentAccess
p5114
(dp5115
g357
S'gender'
p5116
sg348
(lp5117
sbsg364
(i__main__
DelphiIdentAccess
p5118
(dp5119
g357
S'kGenderMale'
p5120
sg348
(lp5121
sbsg367
g2616
sbsg368
Nsg369
(idelphi
DelphiCompoundStatement
p5122
(dp5123
g341
(lp5124
(idelphi
DelphiWithStatement
p5125
(dp5126
g488
(idelphi
DelphiCompoundStatement
p5127
(dp5128
g341
(lp5129
(idelphi
DelphiIfStatement
p5130
(dp5131
g345
(idelphi
DelphiRelOp
p5132
(dp5133
g354
(i__main__
DelphiIdentAccess
p5134
(dp5135
g357
S'age'
p5136
sg348
(lp5137
sbsg364
(i__main__
DelphiIdentAccess
p5138
(dp5139
g357
S'minDaysBeforeSettingFruit'
p5140
sg348
(lp5141
sbsg367
S'>'
sbsg368
Nsg369
(idelphi
DelphiCompoundStatement
p5142
(dp5143
g341
(lp5144
(i__main__
DelphiAssignStatement
p5145
(dp5146
g375
(idelphi
DelphiMulOp
p5147
(dp5148
g537
(idelphi
DelphiNestedExpressionListAccess
p5149
(dp5150
g348
(lp5151
sg350
(lp5152
(idelphi
DelphiRelOp
p5153
(dp5154
g354
(i__main__
DelphiIdentAccess
p5155
(dp5156
g357
S'liveBiomass_pctMPB'
p5157
sg348
(lp5158
sbsg364
(i__main__
DelphiIdentAccess
p5159
(dp5160
g357
S'optimalBiomass_pctMPB'
p5161
sg348
(lp5162
sbsg367
g5025
sbasbsg542
g2512
sg543
(idelphi
DelphiNestedExpressionListAccess
p5163
(dp5164
g348
(lp5165
sg350
(lp5166
(idelphi
DelphiRelOp
p5167
(dp5168
g354
(i__main__
DelphiIdentAccess
p5169
(dp5170
g357
S'age'
p5171
sg348
(lp5172
sbsg364
(i__main__
DelphiIdentAccess
p5173
(dp5174
g357
S'minDaysToGrow'
p5175
sg348
(lp5176
sbsg367
S'>'
sbasbsbsg383
(i__main__
DelphiIdentAccess
p5177
(dp5178
g357
S'minDaysWithOptimalBiomass'
p5179
sg348
(lp5180
sbsg513
(lp5181
S' limit on time to set fruit (as opposed to grow) if want to keep flowers on plant longer\r'
p5182
aS' upper limit on growth; must be at least as old as minDaysToGrow unless there is optimal biomass\r'
p5183
asba(i__main__
DelphiAssignStatement
p5184
(dp5185
g375
(idelphi
DelphiMulOp
p5186
(dp5187
g537
(i__main__
DelphiIdentAccess
p5188
(dp5189
g357
S'optimalBiomass_pctMPB'
p5190
sg348
(lp5191
sbsg542
S'*'
sg543
(i__main__
DelphiIdentAccess
p5192
(dp5193
g357
S'minFractionOfOptimalBiomassToCreateFruit_frn'
p5194
sg348
(lp5195
sbsbsg383
(i__main__
DelphiIdentAccess
p5196
(dp5197
g357
S'biomassToMakeFruit_pctMPB'
p5198
sg348
(lp5199
sbsg513
(lp5200
S" lower limit on growth; if don't have enough to make fruit, give up after max days and make anyway\r"
p5201
asba(i__main__
DelphiAssignStatement
p5202
(dp5203
g375
(idelphi
DelphiAddOp
p5204
(dp5205
g2537
g2538
sg2539
(idelphi
DelphiNestedExpressionListAccess
p5206
(dp5207
g348
(lp5208
sg350
(lp5209
(idelphi
DelphiRelOp
p5210
(dp5211
g354
(i__main__
DelphiIdentAccess
p5212
(dp5213
g357
S'liveBiomass_pctMPB'
p5214
sg348
(lp5215
sbsg364
(i__main__
DelphiIdentAccess
p5216
(dp5217
g357
S'biomassToMakeFruit_pctMPB'
p5218
sg348
(lp5219
sbsg367
g5025
sbasbsg2554
(idelphi
DelphiNestedExpressionListAccess
p5220
(dp5221
g348
(lp5222
sg350
(lp5223
(idelphi
DelphiRelOp
p5224
(dp5225
g354
(i__main__
DelphiIdentAccess
p5226
(dp5227
g357
S'age'
p5228
sg348
(lp5229
sbsg364
(i__main__
DelphiIdentAccess
p5230
(dp5231
g357
S'maxDaysToGrowIfOverMinFraction'
p5232
sg348
(lp5233
sbsg367
S'>'
sbasbsbsg383
(i__main__
DelphiIdentAccess
p5234
(dp5235
g357
S'maxDaysWithMinFraction'
p5236
sg348
(lp5237
sbsba(idelphi
DelphiIfStatement
p5238
(dp5239
g345
(idelphi
DelphiAddOp
p5240
(dp5241
g2537
g2538
sg2539
(i__main__
DelphiIdentAccess
p5242
(dp5243
g357
S'minDaysWithOptimalBiomass'
p5244
sg348
(lp5245
sbsg2554
(i__main__
DelphiIdentAccess
p5246
(dp5247
g357
S'maxDaysWithMinFraction'
p5248
sg348
(lp5249
sbsbsg368
Nsg369
(idelphi
DelphiCompoundStatement
p5250
(dp5251
g341
(lp5252
(i__main__
DelphiAssignStatement
p5253
(dp5254
g375
(i__main__
DelphiIdentAccess
p5255
(dp5256
g357
S'kStageUnripeFruit'
p5257
sg348
(lp5258
sbsg383
(i__main__
DelphiIdentAccess
p5259
(dp5260
g357
S'stage'
p5261
sg348
(lp5262
sbsba(i__main__
DelphiAssignStatement
p5263
(dp5264
g375
(idelphi
DelphiIntegerValue
p5265
(dp5266
g72
S'0'
sbsg383
(i__main__
DelphiIdentAccess
p5267
(dp5268
g357
S'daysAccumulatingFruitBiomass'
p5269
sg348
(lp5270
sbsba(i__main__
DelphiAssignStatement
p5271
(dp5272
g375
(idelphi
DelphiMulOp
p5273
(dp5274
g537
(idelphi
DelphiRealValue
p5275
(dp5276
g72
S'0.5'
p5277
sbsg542
S'*'
sg543
(i__main__
DelphiIdentAccess
p5278
(dp5279
g357
S'self'
p5280
sg348
(lp5281
(idelphi
DelphiFieldEndAccess
p5282
(dp5283
g362
S'liveBiomass_pctMPB'
p5284
sbasbsbsg383
(i__main__
DelphiIdentAccess
p5285
(dp5286
g357
S'anthesisLoss_pctMPB'
p5287
sg348
(lp5288
sbsg513
(lp5289
S' flower biomass drops off, 50% goes into developing fruit (ovary) '
p5290
aS' choice of 50% is arbitrary - could be parameter in future depending on size of flower parts/ovary '
p5291
asba(i__main__
DelphiAssignStatement
p5292
(dp5293
g375
(idelphi
DelphiAddOp
p5294
(dp5295
g2537
S'-'
sg2539
(i__main__
DelphiIdentAccess
p5296
(dp5297
g357
S'anthesisLoss_pctMPB'
p5298
sg348
(lp5299
sbsg2554
(i__main__
DelphiIdentAccess
p5300
(dp5301
g357
S'liveBiomass_pctMPB'
p5302
sg348
(lp5303
sbsbsg383
(i__main__
DelphiIdentAccess
p5304
(dp5305
g357
S'liveBiomass_pctMPB'
p5306
sg348
(lp5307
sbsba(i__main__
DelphiAssignStatement
p5308
(dp5309
g375
(idelphi
DelphiAddOp
p5310
(dp5311
g2537
S'+'
sg2539
(i__main__
DelphiIdentAccess
p5312
(dp5313
g357
S'anthesisLoss_pctMPB'
p5314
sg348
(lp5315
sbsg2554
(i__main__
DelphiIdentAccess
p5316
(dp5317
g357
S'deadBiomass_pctMPB'
p5318
sg348
(lp5319
sbsbsg383
(i__main__
DelphiIdentAccess
p5320
(dp5321
g357
S'deadBiomass_pctMPB'
p5322
sg348
(lp5323
sbsba(i__main__
DelphiAssignStatement
p5324
(dp5325
g375
(idelphi
DelphiNestedExpressionListAccess
p5326
(dp5327
g348
(lp5328
sg350
(lp5329
(i__main__
DelphiIdentAccess
p5330
(dp5331
g357
S'Min'
p5332
sg348
(lp5333
(idelphi
DelphiFunctionEndAccess
p5334
(dp5335
g350
(lp5336
(idelphi
DelphiRealValue
p5337
(dp5338
g72
S'1.0'
p5339
sba(i__main__
DelphiIdentAccess
p5340
(dp5341
g357
S'safedivExcept'
p5342
sg348
(lp5343
(idelphi
DelphiFunctionEndAccess
p5344
(dp5345
g350
(lp5346
(i__main__
DelphiIdentAccess
p5347
(dp5348
g357
S'self'
p5349
sg348
(lp5350
(idelphi
DelphiFieldEndAccess
p5351
(dp5352
g362
S'totalBiomass_pctMPB'
p5353
sbasba(i__main__
DelphiIdentAccess
p5354
(dp5355
g357
S'plant'
p5356
sg348
(lp5357
(idelphi
DelphiFieldEndAccess
p5358
(dp5359
g362
S'pFruit'
p5360
sba(idelphi
DelphiFieldEndAccess
p5361
(dp5362
g362
S'optimalBiomass_pctMPB'
p5363
sbasba(idelphi
DelphiRealValue
p5364
(dp5365
g72
S'0.0'
p5366
sbasbasbasbasbasbsg383
(i__main__
DelphiIdentAccess
p5367
(dp5368
g357
S'propFullSize'
p5369
sg348
(lp5370
sbsbasbsbasbsbasbsg684
(lp5371
(i__main__
DelphiIdentAccess
p5372
(dp5373
g357
S'plant'
p5374
sg348
(lp5375
(idelphi
DelphiFieldEndAccess
p5376
(dp5377
g362
S'pFlower'
p5378
sba(idelphi
DelphiArrayEndAccess
p5379
(dp5380
g350
(lp5381
(i__main__
DelphiIdentAccess
p5382
(dp5383
g357
S'gender'
p5384
sg348
(lp5385
sbasbasbasbasbsbsg369
(i__main__
DelphiAssignStatement
p5386
(dp5387
g375
(i__main__
DelphiIdentAccess
p5388
(dp5389
g357
S'true'
p5390
sg348
(lp5391
sbsg383
(i__main__
DelphiIdentAccess
p5392
(dp5393
g357
S'self'
p5394
sg348
(lp5395
(idelphi
DelphiFieldEndAccess
p5396
(dp5397
g362
S'hasFallenOff'
p5398
sbasbsbsbasbsg516
(lp5399
(i__main__
DelphiIdentAccess
p5400
(dp5401
g357
S'kStageOpenFlower'
p5402
sg348
(lp5403
sbasba(idelphi
DelphiCaseSelector
p5404
(dp5405
g488
(idelphi
DelphiCompoundStatement
p5406
(dp5407
g341
(lp5408
(idelphi
DelphiIfStatement
p5409
(dp5410
g345
(idelphi
DelphiMulOp
p5411
(dp5412
g537
(idelphi
DelphiNestedExpressionListAccess
p5413
(dp5414
g348
(lp5415
sg350
(lp5416
(idelphi
DelphiRelOp
p5417
(dp5418
g354
(i__main__
DelphiIdentAccess
p5419
(dp5420
g357
S'daysAccumulatingFruitBiomass'
p5421
sg348
(lp5422
sbsg364
(i__main__
DelphiIdentAccess
p5423
(dp5424
g357
S'plant'
p5425
sg348
(lp5426
(idelphi
DelphiFieldEndAccess
p5427
(dp5428
g362
S'pFruit'
p5429
sba(idelphi
DelphiFieldEndAccess
p5430
(dp5431
g362
S'daysToRipen'
p5432
sbasbsg367
g5025
sbasbsg542
g2512
sg543
(idelphi
DelphiNestedExpressionListAccess
p5433
(dp5434
g348
(lp5435
sg350
(lp5436
(idelphi
DelphiRelOp
p5437
(dp5438
g354
(i__main__
DelphiIdentAccess
p5439
(dp5440
g357
S'stage'
p5441
sg348
(lp5442
sbsg364
(i__main__
DelphiIdentAccess
p5443
(dp5444
g357
S'kStageUnripeFruit'
p5445
sg348
(lp5446
sbsg367
S'='
sbasbsbsg368
Nsg369
(i__main__
DelphiAssignStatement
p5447
(dp5448
g375
(i__main__
DelphiIdentAccess
p5449
(dp5450
g357
S'kStageRipeFruit'
p5451
sg348
(lp5452
sbsg383
(i__main__
DelphiIdentAccess
p5453
(dp5454
g357
S'stage'
p5455
sg348
(lp5456
sbsbsba(i__main__
DelphiIncOrDecStatement
p5457
(dp5458
g1279
g1280
sg1281
Nsg383
(i__main__
DelphiIdentAccess
p5459
(dp5460
g357
S'daysAccumulatingFruitBiomass'
p5461
sg348
(lp5462
sbsbasbsg516
(lp5463
(i__main__
DelphiIdentAccess
p5464
(dp5465
g357
S'kStageUnripeFruit'
p5466
sg348
(lp5467
sba(i__main__
DelphiIdentAccess
p5468
(dp5469
g357
S'kStageRipeFruit'
p5470
sg348
(lp5471
sbasbasbasg1143
(idelphi
DelphiExceptionHandlers
p5472
(dp5473
g1146
(lp5474
(idelphi
DelphiExceptionHandler
p5475
(dp5476
g1150
(i__main__
DelphiNamedType
p5477
(dp5478
g48
S'Exception'
p5479
sg50
g1
sg51
Nsbsg357
S'e'
sg488
(i__main__
DelphiAssignStatement
p5480
(dp5481
g375
Nsg383
(i__main__
DelphiIdentAccess
p5482
(dp5483
g357
S'messageForExceptionType'
p5484
sg348
(lp5485
(idelphi
DelphiFunctionEndAccess
p5486
(dp5487
g350
(lp5488
(i__main__
DelphiIdentAccess
p5489
(dp5490
g357
S'e'
sg348
(lp5491
sba(idelphi
DelphiStringAccess
p5492
(dp5493
g348
(lp5494
sg72
(idelphi
DelphiStringValue
p5495
(dp5496
g72
S'PdFlowerFruit.nextDay'
p5497
sbsbasbasbsbsbasg1172
(lp5498
sbsbasbsg1174
(lp5499
(i__main__
DelphiVarSection
p5500
(dp5501
g1178
I0
sg1179
(lp5502
(idelphi
DelphiVarDecl
p5503
(dp5504
g1183
Nsg1184
(lp5505
S'anthesisLoss_pctMPB'
p5506
aS'biomassToMakeFruit_pctMPB'
p5507
asg45
(i__main__
DelphiPrimitiveType
p5508
(dp5509
g48
g126
sbsba(idelphi
DelphiVarDecl
p5510
(dp5511
g1183
Nsg1184
(lp5512
S'minDaysWithOptimalBiomass'
p5513
aS'maxDaysWithMinFraction'
p5514
asg45
(i__main__
DelphiPrimitiveType
p5515
(dp5516
g48
g64
sbsbasbasbsbsS'streamdatawithfiler'
p5517
(i__main__
DelphiMethodImplementation
p5518
(dp5519
g321
g190
sg19
g192
sg27
(lp5520
(i__main__
DelphiFormalParameter
p5521
(dp5522
g41
Nsg42
(lp5523
S'filer'
p5524
asg45
(i__main__
DelphiNamedType
p5525
(dp5526
g48
S'PdFiler'
p5527
sg50
g1
sg51
Nsbsg52
Nsba(i__main__
DelphiFormalParameter
p5528
(dp5529
g41
Nsg42
(lp5530
S'cvir'
p5531
asg45
(i__main__
DelphiNamedType
p5532
(dp5533
g48
S'PdClassAndVersionInformationRecord'
p5534
sg50
g1
sg51
Nsbsg52
g208
sbasg323
(lp5535
sg325
(lp5536
sg327
(lp5537
g329
ag5524
ag5531
asg330
(dp5538
g5524
g5525
sg5531
g5532
ssg29
S'PdFlowerFruit'
p5539
sg30
Nsg333
(lp5540
sg31
I0
sg32
g33
sg335
(i__main__
DelphiBlock
p5541
(dp5542
g338
(idelphi
DelphiCompoundStatement
p5543
(dp5544
g341
(lp5545
(i__main__
DelphiAssignStatement
p5546
(dp5547
g375
Nsg383
(idelphi
DelphiInheritedCall
p5548
(dp5549
g357
S'streamDataWithFiler'
p5550
sg350
(lp5551
(i__main__
DelphiIdentAccess
p5552
(dp5553
g357
S'filer'
p5554
sg348
(lp5555
sba(i__main__
DelphiIdentAccess
p5556
(dp5557
g357
S'cvir'
p5558
sg348
(lp5559
sbasbsba(idelphi
DelphiWithStatement
p5560
(dp5561
g488
(idelphi
DelphiCompoundStatement
p5562
(dp5563
g341
(lp5564
(i__main__
DelphiAssignStatement
p5565
(dp5566
g375
Nsg383
(i__main__
DelphiIdentAccess
p5567
(dp5568
g357
S'streamSingle'
p5569
sg348
(lp5570
(idelphi
DelphiFunctionEndAccess
p5571
(dp5572
g350
(lp5573
(i__main__
DelphiIdentAccess
p5574
(dp5575
g357
S'propFullSize'
p5576
sg348
(lp5577
sbasbasbsba(i__main__
DelphiAssignStatement
p5578
(dp5579
g375
Nsg383
(i__main__
DelphiIdentAccess
p5580
(dp5581
g357
S'streamSmallint'
p5582
sg348
(lp5583
(idelphi
DelphiFunctionEndAccess
p5584
(dp5585
g350
(lp5586
(i__main__
DelphiIdentAccess
p5587
(dp5588
g357
S'stage'
p5589
sg348
(lp5590
sbasbasbsba(i__main__
DelphiAssignStatement
p5591
(dp5592
g375
Nsg383
(i__main__
DelphiIdentAccess
p5593
(dp5594
g357
S'streamBoolean'
p5595
sg348
(lp5596
(idelphi
DelphiFunctionEndAccess
p5597
(dp5598
g350
(lp5599
(i__main__
DelphiIdentAccess
p5600
(dp5601
g357
S'hasBeenDrawn'
p5602
sg348
(lp5603
sbasbasbsba(i__main__
DelphiAssignStatement
p5604
(dp5605
g375
Nsg383
(i__main__
DelphiIdentAccess
p5606
(dp5607
g357
S'streamLongint'
p5608
sg348
(lp5609
(idelphi
DelphiFunctionEndAccess
p5610
(dp5611
g350
(lp5612
(i__main__
DelphiIdentAccess
p5613
(dp5614
g357
S'daysAccumulatingFruitBiomass'
p5615
sg348
(lp5616
sbasbasbsba(i__main__
DelphiAssignStatement
p5617
(dp5618
g375
Nsg383
(i__main__
DelphiIdentAccess
p5619
(dp5620
g357
S'streamLongint'
p5621
sg348
(lp5622
(idelphi
DelphiFunctionEndAccess
p5623
(dp5624
g350
(lp5625
(i__main__
DelphiIdentAccess
p5626
(dp5627
g357
S'daysOpen'
p5628
sg348
(lp5629
sbasbasbsbasbsg684
(lp5630
(i__main__
DelphiIdentAccess
p5631
(dp5632
g357
S'filer'
p5633
sg348
(lp5634
sbasbasbsg1174
(lp5635
sbsbsS'countpointsandtrianglesfor3dexportandaddtotraversertotals'
p5636
(i__main__
DelphiMethodImplementation
p5637
(dp5638
g321
g210
sg19
g212
sg27
(lp5639
(i__main__
DelphiFormalParameter
p5640
(dp5641
g41
Nsg42
(lp5642
S'traverser'
p5643
asg45
(i__main__
DelphiNamedType
p5644
(dp5645
g48
S'PdTraverser'
p5646
sg50
g1
sg51
Nsbsg52
Nsbasg323
(lp5647
sg325
(lp5648
sg327
(lp5649
g329
ag5643
asg330
(dp5650
g5643
g5644
ssg29
S'PdFlowerFruit'
p5651
sg30
Nsg333
(lp5652
sg31
I0
sg32
g33
sg335
(i__main__
DelphiBlock
p5653
(dp5654
g338
(idelphi
DelphiCompoundStatement
p5655
(dp5656
g341
(lp5657
(idelphi
DelphiIfStatement
p5658
(dp5659
g345
(idelphi
DelphiRelOp
p5660
(dp5661
g354
(i__main__
DelphiIdentAccess
p5662
(dp5663
g357
S'traverser'
p5664
sg348
(lp5665
sbsg364
(idelphi
DelphiNilValue
p5666
(dp5667
bsg367
S'='
sbsg368
Nsg369
(i__main__
DelphiExitStatement
p5668
(dp5669
g372
g5637
sbsba(idelphi
DelphiIfStatement
p5670
(dp5671
g345
(idelphi
DelphiRelOp
p5672
(dp5673
g354
(i__main__
DelphiIdentAccess
p5674
(dp5675
g357
S'propFullSize'
p5676
sg348
(lp5677
sbsg364
(idelphi
DelphiIntegerValue
p5678
(dp5679
g72
S'0'
sbsg367
g2444
sbsg368
Nsg369
(i__main__
DelphiExitStatement
p5680
(dp5681
g372
g5637
sbsba(idelphi
DelphiIfStatement
p5682
(dp5683
g345
(i__main__
DelphiIdentAccess
p5684
(dp5685
g357
S'self'
p5686
sg348
(lp5687
(idelphi
DelphiFieldEndAccess
p5688
(dp5689
g362
S'hasFallenOff'
p5690
sbasbsg368
Nsg369
(i__main__
DelphiExitStatement
p5691
(dp5692
g372
g5637
sbsba(idelphi
DelphiCaseStatement
p5693
(dp5694
g479
Nsg345
(i__main__
DelphiIdentAccess
p5695
(dp5696
g357
S'stage'
p5697
sg348
(lp5698
sbsg484
(lp5699
(idelphi
DelphiCaseSelector
p5700
(dp5701
g488
(idelphi
DelphiCompoundStatement
p5702
(dp5703
g341
(lp5704
(idelphi
DelphiCaseStatement
p5705
(dp5706
g479
Nsg345
(i__main__
DelphiIdentAccess
p5707
(dp5708
g357
S'plant'
p5709
sg348
(lp5710
(idelphi
DelphiFieldEndAccess
p5711
(dp5712
g362
S'pFlower'
p5713
sba(idelphi
DelphiArrayEndAccess
p5714
(dp5715
g350
(lp5716
(i__main__
DelphiIdentAccess
p5717
(dp5718
g357
S'gender'
p5719
sg348
(lp5720
sbasba(idelphi
DelphiFieldEndAccess
p5721
(dp5722
g362
S'budDrawingOption'
p5723
sbasbsg484
(lp5724
(idelphi
DelphiCaseSelector
p5725
(dp5726
g488
Nsg516
(lp5727
(i__main__
DelphiIdentAccess
p5728
(dp5729
g357
S'kDrawNoBud'
p5730
sg348
(lp5731
sbasba(idelphi
DelphiCaseSelector
p5732
(dp5733
g488
(idelphi
DelphiWithStatement
p5734
(dp5735
g488
(idelphi
DelphiIfStatement
p5736
(dp5737
g345
(idelphi
DelphiRelOp
p5738
(dp5739
g354
(i__main__
DelphiIdentAccess
p5740
(dp5741
g357
S'scaleAtFullSize'
p5742
sg348
(lp5743
sbsg364
(idelphi
DelphiIntegerValue
p5744
(dp5745
g72
S'0'
sbsg367
S'>'
sbsg368
Nsg369
(idelphi
DelphiCompoundStatement
p5746
(dp5747
g341
(lp5748
(i__main__
DelphiIncOrDecStatement
p5749
(dp5750
g1279
g1280
sg1281
(idelphi
DelphiMulOp
p5751
(dp5752
g537
(i__main__
DelphiIdentAccess
p5753
(dp5754
g357
S'repetitions'
p5755
sg348
(lp5756
sbsg542
S'*'
sg543
(i__main__
DelphiIdentAccess
p5757
(dp5758
g357
S'object3d'
p5759
sg348
(lp5760
(idelphi
DelphiFieldEndAccess
p5761
(dp5762
g362
S'pointsInUse'
p5763
sbasbsbsg383
(i__main__
DelphiIdentAccess
p5764
(dp5765
g357
S'traverser'
p5766
sg348
(lp5767
(idelphi
DelphiFieldEndAccess
p5768
(dp5769
g362
S'total3DExportPointsIn3DObjects'
p5770
sbasbsba(i__main__
DelphiIncOrDecStatement
p5771
(dp5772
g1279
g1280
sg1281
(idelphi
DelphiMulOp
p5773
(dp5774
g537
(i__main__
DelphiIdentAccess
p5775
(dp5776
g357
S'repetitions'
p5777
sg348
(lp5778
sbsg542
S'*'
sg543
(i__main__
DelphiIdentAccess
p5779
(dp5780
g357
S'object3d'
p5781
sg348
(lp5782
(idelphi
DelphiFieldEndAccess
p5783
(dp5784
g362
S'triangles'
p5785
sba(idelphi
DelphiFieldEndAccess
p5786
(dp5787
g362
S'count'
p5788
sbasbsbsg383
(i__main__
DelphiIdentAccess
p5789
(dp5790
g357
S'traverser'
p5791
sg348
(lp5792
(idelphi
DelphiFieldEndAccess
p5793
(dp5794
g362
S'total3DExportTrianglesIn3DObjects'
p5795
sbasbsba(i__main__
DelphiAssignStatement
p5796
(dp5797
g375
Nsg383
(i__main__
DelphiIdentAccess
p5798
(dp5799
g357
S'addExportMaterial'
p5800
sg348
(lp5801
(idelphi
DelphiFunctionEndAccess
p5802
(dp5803
g350
(lp5804
(i__main__
DelphiIdentAccess
p5805
(dp5806
g357
S'traverser'
p5807
sg348
(lp5808
sba(i__main__
DelphiIdentAccess
p5809
(dp5810
g357
S'kExportPartFlowerBudFemale'
p5811
sg348
(lp5812
sba(i__main__
DelphiIdentAccess
p5813
(dp5814
g357
S'kExportPartFlowerBudMale'
p5815
sg348
(lp5816
sbasbasbsbasbsbsg684
(lp5817
(i__main__
DelphiIdentAccess
p5818
(dp5819
g357
S'plant'
p5820
sg348
(lp5821
(idelphi
DelphiFieldEndAccess
p5822
(dp5823
g362
S'pFlower'
p5824
sba(idelphi
DelphiArrayEndAccess
p5825
(dp5826
g350
(lp5827
(i__main__
DelphiIdentAccess
p5828
(dp5829
g357
S'gender'
p5830
sg348
(lp5831
sbasba(idelphi
DelphiFieldEndAccess
p5832
(dp5833
g362
S'tdoParams'
p5834
sba(idelphi
DelphiArrayEndAccess
p5835
(dp5836
g350
(lp5837
(i__main__
DelphiIdentAccess
p5838
(dp5839
g357
S'kBud'
p5840
sg348
(lp5841
sbasbasbasbsg516
(lp5842
(i__main__
DelphiIdentAccess
p5843
(dp5844
g357
S'kDrawSingleTdoBud'
p5845
sg348
(lp5846
sbasba(idelphi
DelphiCaseSelector
p5847
(dp5848
g488
(i__main__
DelphiAssignStatement
p5849
(dp5850
g375
Nsg383
(i__main__
DelphiIdentAccess
p5851
(dp5852
g357
S'self'
p5853
sg348
(lp5854
(idelphi
DelphiFieldEndAccess
p5855
(dp5856
g362
S'addFloralPartsCountsToTraverser'
p5857
sba(idelphi
DelphiFunctionEndAccess
p5858
(dp5859
g350
(lp5860
(i__main__
DelphiIdentAccess
p5861
(dp5862
g357
S'traverser'
p5863
sg348
(lp5864
sbasbasbsbsg516
(lp5865
(i__main__
DelphiIdentAccess
p5866
(dp5867
g357
S'kDrawOpeningFlower'
p5868
sg348
(lp5869
sbasbasbasbsg516
(lp5870
(i__main__
DelphiIdentAccess
p5871
(dp5872
g357
S'kStageFlowerBud'
p5873
sg348
(lp5874
sbasba(idelphi
DelphiCaseSelector
p5875
(dp5876
g488
(i__main__
DelphiAssignStatement
p5877
(dp5878
g375
Nsg383
(i__main__
DelphiIdentAccess
p5879
(dp5880
g357
S'self'
p5881
sg348
(lp5882
(idelphi
DelphiFieldEndAccess
p5883
(dp5884
g362
S'addFloralPartsCountsToTraverser'
p5885
sba(idelphi
DelphiFunctionEndAccess
p5886
(dp5887
g350
(lp5888
(i__main__
DelphiIdentAccess
p5889
(dp5890
g357
S'traverser'
p5891
sg348
(lp5892
sbasbasbsbsg516
(lp5893
(i__main__
DelphiIdentAccess
p5894
(dp5895
g357
S'kStageOpenFlower'
p5896
sg348
(lp5897
sbasba(idelphi
DelphiCaseSelector
p5898
(dp5899
g488
(idelphi
DelphiWithStatement
p5900
(dp5901
g488
(idelphi
DelphiIfStatement
p5902
(dp5903
g345
(idelphi
DelphiRelOp
p5904
(dp5905
g354
(i__main__
DelphiIdentAccess
p5906
(dp5907
g357
S'scaleAtFullSize'
p5908
sg348
(lp5909
sbsg364
(idelphi
DelphiIntegerValue
p5910
(dp5911
g72
S'0'
sbsg367
S'>'
sbsg368
Nsg369
(idelphi
DelphiCompoundStatement
p5912
(dp5913
g341
(lp5914
(i__main__
DelphiIncOrDecStatement
p5915
(dp5916
g1279
g1280
sg1281
(idelphi
DelphiMulOp
p5917
(dp5918
g537
(i__main__
DelphiIdentAccess
p5919
(dp5920
g357
S'repetitions'
p5921
sg348
(lp5922
sbsg542
S'*'
sg543
(i__main__
DelphiIdentAccess
p5923
(dp5924
g357
S'object3d'
p5925
sg348
(lp5926
(idelphi
DelphiFieldEndAccess
p5927
(dp5928
g362
S'pointsInUse'
p5929
sbasbsbsg383
(i__main__
DelphiIdentAccess
p5930
(dp5931
g357
S'traverser'
p5932
sg348
(lp5933
(idelphi
DelphiFieldEndAccess
p5934
(dp5935
g362
S'total3DExportPointsIn3DObjects'
p5936
sbasbsba(i__main__
DelphiIncOrDecStatement
p5937
(dp5938
g1279
g1280
sg1281
(idelphi
DelphiMulOp
p5939
(dp5940
g537
(i__main__
DelphiIdentAccess
p5941
(dp5942
g357
S'repetitions'
p5943
sg348
(lp5944
sbsg542
S'*'
sg543
(i__main__
DelphiIdentAccess
p5945
(dp5946
g357
S'object3d'
p5947
sg348
(lp5948
(idelphi
DelphiFieldEndAccess
p5949
(dp5950
g362
S'triangles'
p5951
sba(idelphi
DelphiFieldEndAccess
p5952
(dp5953
g362
S'count'
p5954
sbasbsbsg383
(i__main__
DelphiIdentAccess
p5955
(dp5956
g357
S'traverser'
p5957
sg348
(lp5958
(idelphi
DelphiFieldEndAccess
p5959
(dp5960
g362
S'total3DExportTrianglesIn3DObjects'
p5961
sbasbsba(idelphi
DelphiIfStatement
p5962
(dp5963
g345
(idelphi
DelphiRelOp
p5964
(dp5965
g354
(i__main__
DelphiIdentAccess
p5966
(dp5967
g357
S'stage'
p5968
sg348
(lp5969
sbsg364
(i__main__
DelphiIdentAccess
p5970
(dp5971
g357
S'kStageUnripeFruit'
p5972
sg348
(lp5973
sbsg367
S'='
sbsg368
(i__main__
DelphiAssignStatement
p5974
(dp5975
g375
Nsg383
(i__main__
DelphiIdentAccess
p5976
(dp5977
g357
S'addExportMaterial'
p5978
sg348
(lp5979
(idelphi
DelphiFunctionEndAccess
p5980
(dp5981
g350
(lp5982
(i__main__
DelphiIdentAccess
p5983
(dp5984
g357
S'traverser'
p5985
sg348
(lp5986
sba(i__main__
DelphiIdentAccess
p5987
(dp5988
g357
S'kExportPartRipeFruit'
p5989
sg348
(lp5990
sba(idelphi
DelphiSign
p5991
(dp5992
g1383
(idelphi
DelphiIntegerValue
p5993
(dp5994
g72
S'1'
sbsg1386
S'-'
sbasbasbsbsg369
(i__main__
DelphiAssignStatement
p5995
(dp5996
g375
Nsg383
(i__main__
DelphiIdentAccess
p5997
(dp5998
g357
S'addExportMaterial'
p5999
sg348
(lp6000
(idelphi
DelphiFunctionEndAccess
p6001
(dp6002
g350
(lp6003
(i__main__
DelphiIdentAccess
p6004
(dp6005
g357
S'traverser'
p6006
sg348
(lp6007
sba(i__main__
DelphiIdentAccess
p6008
(dp6009
g357
S'kExportPartUnripeFruit'
p6010
sg348
(lp6011
sba(idelphi
DelphiSign
p6012
(dp6013
g1383
(idelphi
DelphiIntegerValue
p6014
(dp6015
g72
S'1'
sbsg1386
S'-'
sbasbasbsbsbasbsbsg684
(lp6016
(i__main__
DelphiIdentAccess
p6017
(dp6018
g357
S'plant'
p6019
sg348
(lp6020
(idelphi
DelphiFieldEndAccess
p6021
(dp6022
g362
S'pFruit'
p6023
sba(idelphi
DelphiFieldEndAccess
p6024
(dp6025
g362
S'tdoParams'
p6026
sbasbasbsg516
(lp6027
(i__main__
DelphiIdentAccess
p6028
(dp6029
g357
S'kStageUnripeFruit'
p6030
sg348
(lp6031
sba(i__main__
DelphiIdentAccess
p6032
(dp6033
g357
S'kStageRipeFruit'
p6034
sg348
(lp6035
sbasbasbasg513
(lp6036
S' pedicel handled by inflorescence\r'
p6037
asbsg1174
(lp6038
(i__main__
DelphiVarSection
p6039
(dp6040
g1178
I0
sg1179
(lp6041
(idelphi
DelphiVarDecl
p6042
(dp6043
g1183
Nsg1184
(lp6044
S'numLines'
p6045
asg45
(i__main__
DelphiPrimitiveType
p6046
(dp6047
g48
g81
sbsbasbasbsbsS'report'
p6048
(i__main__
DelphiMethodImplementation
p6049
(dp6050
g321
g222
sg19
g224
sg27
(lp6051
sg323
(lp6052
sg325
(lp6053
sg327
(lp6054
g329
asg330
(dp6055
sg29
S'PdFlowerFruit'
p6056
sg30
Nsg333
(lp6057
sg31
I0
sg32
g33
sg335
(i__main__
DelphiBlock
p6058
(dp6059
g338
(idelphi
DelphiCompoundStatement
p6060
(dp6061
g341
(lp6062
(i__main__
DelphiAssignStatement
p6063
(dp6064
g375
Nsg383
(idelphi
DelphiInheritedCall
p6065
(dp6066
g357
S'report'
p6067
sg350
Nsbsbasg513
(lp6068
S" DebugPrint(' flower/fruit, age '  + IntToStr(age) + ' biomass '  + floatToStr(self.liveBiomass_pctMPB));\r"
p6069
asbsg1174
(lp6070
sbsbsS'drawpistilsandstamens'
p6071
(i__main__
DelphiMethodImplementation
p6072
(dp6073
g321
g227
sg19
g229
sg27
(lp6074
(i__main__
DelphiFormalParameter
p6075
(dp6076
g41
Nsg42
(lp6077
S'drawAsOpening'
p6078
asg45
(i__main__
DelphiPrimitiveType
p6079
(dp6080
g48
g64
sbsg52
Nsbasg323
(lp6081
sg325
(lp6082
sg327
(lp6083
g329
ag6078
asg330
(dp6084
g6078
g6079
ssg29
S'PdFlowerFruit'
p6085
sg30
Nsg333
(lp6086
sg31
I0
sg32
g33
sg335
(i__main__
DelphiBlock
p6087
(dp6088
g338
(idelphi
DelphiCompoundStatement
p6089
(dp6090
g341
(lp6091
(idelphi
DelphiIfStatement
p6092
(dp6093
g345
(idelphi
DelphiNestedExpressionListAccess
p6094
(dp6095
g348
(lp6096
sg350
(lp6097
(idelphi
DelphiRelOp
p6098
(dp6099
g354
(i__main__
DelphiIdentAccess
p6100
(dp6101
g357
S'plant'
p6102
sg348
(lp6103
(idelphi
DelphiFieldEndAccess
p6104
(dp6105
g362
S'turtle'
p6106
sbasbsg364
(idelphi
DelphiNilValue
p6107
(dp6108
bsg367
S'='
sbasbsg368
Nsg369
(i__main__
DelphiExitStatement
p6109
(dp6110
g372
g6072
sbsba(i__main__
DelphiAssignStatement
p6111
(dp6112
g375
(i__main__
DelphiIdentAccess
p6113
(dp6114
g357
S'plant'
p6115
sg348
(lp6116
(idelphi
DelphiFieldEndAccess
p6117
(dp6118
g362
S'turtle'
p6119
sbasbsg383
(i__main__
DelphiIdentAccess
p6120
(dp6121
g357
S'turtle'
p6122
sg348
(lp6123
sbsba(i__main__
DelphiAssignStatement
p6124
(dp6125
g375
Nsg383
(i__main__
DelphiIdentAccess
p6126
(dp6127
g357
S'turtle'
p6128
sg348
(lp6129
(idelphi
DelphiFieldEndAccess
p6130
(dp6131
g362
S'push'
p6132
sbasbsba(idelphi
DelphiWithStatement
p6133
(dp6134
g488
(idelphi
DelphiIfStatement
p6135
(dp6136
g345
(idelphi
DelphiNestedExpressionListAccess
p6137
(dp6138
g348
(lp6139
sg350
(lp6140
(idelphi
DelphiRelOp
p6141
(dp6142
g354
(i__main__
DelphiIdentAccess
p6143
(dp6144
g357
S'numPistils'
p6145
sg348
(lp6146
sbsg364
(idelphi
DelphiIntegerValue
p6147
(dp6148
g72
S'0'
sbsg367
S'>'
sbasbsg368
Nsg369
(idelphi
DelphiCompoundStatement
p6149
(dp6150
g341
(lp6151
(idelphi
DelphiIfStatement
p6152
(dp6153
g345
(idelphi
DelphiAddOp
p6154
(dp6155
g2537
g2538
sg2539
(idelphi
DelphiNestedExpressionListAccess
p6156
(dp6157
g348
(lp6158
sg350
(lp6159
(idelphi
DelphiRelOp
p6160
(dp6161
g354
(i__main__
DelphiIdentAccess
p6162
(dp6163
g357
S'tdoParams'
p6164
sg348
(lp6165
(idelphi
DelphiArrayEndAccess
p6166
(dp6167
g350
(lp6168
(i__main__
DelphiIdentAccess
p6169
(dp6170
g357
S'kPistils'
p6171
sg348
(lp6172
sbasba(idelphi
DelphiFieldEndAccess
p6173
(dp6174
g362
S'scaleAtFullSize'
p6175
sbasbsg364
(idelphi
DelphiIntegerValue
p6176
(dp6177
g72
S'0'
sbsg367
S'>'
sbasbsg2554
(idelphi
DelphiNestedExpressionListAccess
p6178
(dp6179
g348
(lp6180
sg350
(lp6181
(idelphi
DelphiMulOp
p6182
(dp6183
g537
(idelphi
DelphiNestedExpressionListAccess
p6184
(dp6185
g348
(lp6186
sg350
(lp6187
(idelphi
DelphiRelOp
p6188
(dp6189
g354
(i__main__
DelphiIdentAccess
p6190
(dp6191
g357
S'styleWidth_mm'
p6192
sg348
(lp6193
sbsg364
(idelphi
DelphiIntegerValue
p6194
(dp6195
g72
S'0'
sbsg367
S'>'
sbasbsg542
g2512
sg543
(idelphi
DelphiNestedExpressionListAccess
p6196
(dp6197
g348
(lp6198
sg350
(lp6199
(idelphi
DelphiRelOp
p6200
(dp6201
g354
(i__main__
DelphiIdentAccess
p6202
(dp6203
g357
S'styleLength_mm'
p6204
sg348
(lp6205
sbsg364
(idelphi
DelphiIntegerValue
p6206
(dp6207
g72
S'0'
sbsg367
S'>'
sbasbsbasbsbsg368
Nsg369
(i__main__
DelphiAssignStatement
p6208
(dp6209
g375
Nsg383
(i__main__
DelphiIdentAccess
p6210
(dp6211
g357
S'turtle'
p6212
sg348
(lp6213
(idelphi
DelphiFieldEndAccess
p6214
(dp6215
g362
S'ifExporting_startNestedGroupOfPlantParts'
p6216
sba(idelphi
DelphiFunctionEndAccess
p6217
(dp6218
g350
(lp6219
(idelphi
DelphiStringAccess
p6220
(dp6221
g348
(lp6222
sg72
(idelphi
DelphiStringValue
p6223
(dp6224
g72
S'pistils'
p6225
sbsba(idelphi
DelphiStringAccess
p6226
(dp6227
g348
(lp6228
sg72
(idelphi
DelphiStringValue
p6229
(dp6230
g72
S'Pistils'
p6231
sbsba(i__main__
DelphiIdentAccess
p6232
(dp6233
g357
S'kNestingTypeFloralLayers'
p6234
sg348
(lp6235
sbasbasbsbsba(i__main__
DelphiAssignStatement
p6236
(dp6237
g375
(idelphi
DelphiMulOp
p6238
(dp6239
g537
(i__main__
DelphiIdentAccess
p6240
(dp6241
g357
S'numPistils'
p6242
sg348
(lp6243
sbsg542
g2709
sg543
(idelphi
DelphiIntegerValue
p6244
(dp6245
g72
S'256'
p6246
sbsbsg383
(i__main__
DelphiIdentAccess
p6247
(dp6248
g357
S'turnPortion'
p6249
sg348
(lp6250
sbsba(i__main__
DelphiAssignStatement
p6251
(dp6252
g375
(idelphi
DelphiAddOp
p6253
(dp6254
g2537
S'-'
sg2539
(idelphi
DelphiMulOp
p6255
(dp6256
g537
(i__main__
DelphiIdentAccess
p6257
(dp6258
g357
S'numPistils'
p6259
sg348
(lp6260
sbsg542
S'*'
sg543
(i__main__
DelphiIdentAccess
p6261
(dp6262
g357
S'turnPortion'
p6263
sg348
(lp6264
sbsbsg2554
(idelphi
DelphiIntegerValue
p6265
(dp6266
g72
S'256'
p6267
sbsbsg383
(i__main__
DelphiIdentAccess
p6268
(dp6269
g357
S'leftOverDegrees'
p6270
sg348
(lp6271
sbsba(idelphi
DelphiIfStatement
p6272
(dp6273
g345
(idelphi
DelphiRelOp
p6274
(dp6275
g354
(i__main__
DelphiIdentAccess
p6276
(dp6277
g357
S'leftOverDegrees'
p6278
sg348
(lp6279
sbsg364
(idelphi
DelphiIntegerValue
p6280
(dp6281
g72
S'0'
sbsg367
S'>'
sbsg368
(i__main__
DelphiAssignStatement
p6282
(dp6283
g375
(idelphi
DelphiIntegerValue
p6284
(dp6285
g72
S'0'
sbsg383
(i__main__
DelphiIdentAccess
p6286
(dp6287
g357
S'addition'
p6288
sg348
(lp6289
sbsbsg369
(i__main__
DelphiAssignStatement
p6290
(dp6291
g375
(i__main__
DelphiIdentAccess
p6292
(dp6293
g357
S'safedivExcept'
p6294
sg348
(lp6295
(idelphi
DelphiFunctionEndAccess
p6296
(dp6297
g350
(lp6298
(i__main__
DelphiIdentAccess
p6299
(dp6300
g357
S'leftOverDegrees'
p6301
sg348
(lp6302
sba(i__main__
DelphiIdentAccess
p6303
(dp6304
g357
S'numPistils'
p6305
sg348
(lp6306
sba(idelphi
DelphiIntegerValue
p6307
(dp6308
g72
S'0'
sbasbasbsg383
(i__main__
DelphiIdentAccess
p6309
(dp6310
g357
S'addition'
p6311
sg348
(lp6312
sbsbsba(i__main__
DelphiAssignStatement
p6313
(dp6314
g375
(idelphi
DelphiIntegerValue
p6315
(dp6316
g72
S'0'
sbsg383
(i__main__
DelphiIdentAccess
p6317
(dp6318
g357
S'carryOver'
p6319
sg348
(lp6320
sbsba(idelphi
DelphiForStatement
p6321
(dp6322
g1222
S'i'
sg1224
(idelphi
DelphiAddOp
p6323
(dp6324
g2537
S'-'
sg2539
(idelphi
DelphiIntegerValue
p6325
(dp6326
g72
S'1'
sbsg2554
(i__main__
DelphiIdentAccess
p6327
(dp6328
g357
S'numPistils'
p6329
sg348
(lp6330
sbsbsg1229
g1230
sg41
(idelphi
DelphiIntegerValue
p6331
(dp6332
g72
S'0'
sbsg488
(idelphi
DelphiCompoundStatement
p6333
(dp6334
g341
(lp6335
(i__main__
DelphiAssignStatement
p6336
(dp6337
g375
Nsg383
(i__main__
DelphiIdentAccess
p6338
(dp6339
g357
S'turtle'
p6340
sg348
(lp6341
(idelphi
DelphiFieldEndAccess
p6342
(dp6343
g362
S'push'
p6344
sbasbsba(idelphi
DelphiIfStatement
p6345
(dp6346
g345
(idelphi
DelphiMulOp
p6347
(dp6348
g537
(idelphi
DelphiNestedExpressionListAccess
p6349
(dp6350
g348
(lp6351
sg350
(lp6352
(idelphi
DelphiRelOp
p6353
(dp6354
g354
(i__main__
DelphiIdentAccess
p6355
(dp6356
g357
S'styleWidth_mm'
p6357
sg348
(lp6358
sbsg364
(idelphi
DelphiIntegerValue
p6359
(dp6360
g72
S'0'
sbsg367
S'>'
sbasbsg542
g2512
sg543
(idelphi
DelphiNestedExpressionListAccess
p6361
(dp6362
g348
(lp6363
sg350
(lp6364
(idelphi
DelphiRelOp
p6365
(dp6366
g354
(i__main__
DelphiIdentAccess
p6367
(dp6368
g357
S'styleLength_mm'
p6369
sg348
(lp6370
sbsg364
(idelphi
DelphiIntegerValue
p6371
(dp6372
g72
S'0'
sbsg367
S'>'
sbasbsbsg368
Nsg369
(idelphi
DelphiCompoundStatement
p6373
(dp6374
g341
(lp6375
(i__main__
DelphiAssignStatement
p6376
(dp6377
g375
(i__main__
DelphiIdentAccess
p6378
(dp6379
g357
S'max'
p6380
sg348
(lp6381
(idelphi
DelphiFunctionEndAccess
p6382
(dp6383
g350
(lp6384
(idelphi
DelphiRealValue
p6385
(dp6386
g72
S'0.0'
p6387
sba(idelphi
DelphiMulOp
p6388
(dp6389
g537
(i__main__
DelphiIdentAccess
p6390
(dp6391
g357
S'styleLength_mm'
p6392
sg348
(lp6393
sbsg542
S'*'
sg543
(i__main__
DelphiIdentAccess
p6394
(dp6395
g357
S'propFullSize'
p6396
sg348
(lp6397
sbsbasbasbsg383
(i__main__
DelphiIdentAccess
p6398
(dp6399
g357
S'length'
p6400
sg348
(lp6401
sbsba(i__main__
DelphiAssignStatement
p6402
(dp6403
g375
(i__main__
DelphiIdentAccess
p6404
(dp6405
g357
S'max'
p6406
sg348
(lp6407
(idelphi
DelphiFunctionEndAccess
p6408
(dp6409
g350
(lp6410
(idelphi
DelphiRealValue
p6411
(dp6412
g72
S'0.0'
p6413
sba(idelphi
DelphiMulOp
p6414
(dp6415
g537
(i__main__
DelphiIdentAccess
p6416
(dp6417
g357
S'styleWidth_mm'
p6418
sg348
(lp6419
sbsg542
S'*'
sg543
(i__main__
DelphiIdentAccess
p6420
(dp6421
g357
S'propFullSize'
p6422
sg348
(lp6423
sbsbasbasbsg383
(i__main__
DelphiIdentAccess
p6424
(dp6425
g357
S'width'
p6426
sg348
(lp6427
sbsba(i__main__
DelphiAssignStatement
p6428
(dp6429
g375
(i__main__
DelphiIdentAccess
p6430
(dp6431
g357
S'self'
p6432
sg348
(lp6433
(idelphi
DelphiFieldEndAccess
p6434
(dp6435
g362
S'angleWithSway'
p6436
sba(idelphi
DelphiFunctionEndAccess
p6437
(dp6438
g350
(lp6439
(i__main__
DelphiIdentAccess
p6440
(dp6441
g357
S'plant'
p6442
sg348
(lp6443
(idelphi
DelphiFieldEndAccess
p6444
(dp6445
g362
S'pFlower'
p6446
sba(idelphi
DelphiArrayEndAccess
p6447
(dp6448
g350
(lp6449
(i__main__
DelphiIdentAccess
p6450
(dp6451
g357
S'gender'
p6452
sg348
(lp6453
sbasba(idelphi
DelphiFieldEndAccess
p6454
(dp6455
g362
S'tdoParams'
p6456
sba(idelphi
DelphiArrayEndAccess
p6457
(dp6458
g350
(lp6459
(i__main__
DelphiIdentAccess
p6460
(dp6461
g357
S'kPistils'
p6462
sg348
(lp6463
sbasba(idelphi
DelphiFieldEndAccess
p6464
(dp6465
g362
S'pullBackAngle'
p6466
sbasbasbasbsg383
(i__main__
DelphiIdentAccess
p6467
(dp6468
g357
S'angle'
p6469
sg348
(lp6470
sbsba(idelphi
DelphiIfStatement
p6471
(dp6472
g345
(i__main__
DelphiIdentAccess
p6473
(dp6474
g357
S'drawAsOpening'
p6475
sg348
(lp6476
sbsg368
Nsg369
(i__main__
DelphiAssignStatement
p6477
(dp6478
g375
(idelphi
DelphiMulOp
p6479
(dp6480
g537
(i__main__
DelphiIdentAccess
p6481
(dp6482
g357
S'propFullSize'
p6483
sg348
(lp6484
sbsg542
S'*'
sg543
(i__main__
DelphiIdentAccess
p6485
(dp6486
g357
S'angle'
p6487
sg348
(lp6488
sbsbsg383
(i__main__
DelphiIdentAccess
p6489
(dp6490
g357
S'angle'
p6491
sg348
(lp6492
sbsbsba(i__main__
DelphiAssignStatement
p6493
(dp6494
g375
Nsg383
(i__main__
DelphiIdentAccess
p6495
(dp6496
g357
S'self'
p6497
sg348
(lp6498
(idelphi
DelphiFieldEndAccess
p6499
(dp6500
g362
S'drawStemSegment'
p6501
sba(idelphi
DelphiFunctionEndAccess
p6502
(dp6503
g350
(lp6504
(i__main__
DelphiIdentAccess
p6505
(dp6506
g357
S'length'
p6507
sg348
(lp6508
sba(i__main__
DelphiIdentAccess
p6509
(dp6510
g357
S'width'
p6511
sg348
(lp6512
sba(i__main__
DelphiIdentAccess
p6513
(dp6514
g357
S'angle'
p6515
sg348
(lp6516
sba(idelphi
DelphiIntegerValue
p6517
(dp6518
g72
S'0'
sba(i__main__
DelphiIdentAccess
p6519
(dp6520
g357
S'styleColor'
p6521
sg348
(lp6522
sba(i__main__
DelphiIdentAccess
p6523
(dp6524
g357
S'styleTaperIndex'
p6525
sg348
(lp6526
sba(i__main__
DelphiIdentAccess
p6527
(dp6528
g357
S'self'
p6529
sg348
(lp6530
(idelphi
DelphiFieldEndAccess
p6531
(dp6532
g362
S'dxfIndexForFloralLayerType'
p6533
sba(idelphi
DelphiFunctionEndAccess
p6534
(dp6535
g350
(lp6536
(i__main__
DelphiIdentAccess
p6537
(dp6538
g357
S'kPistils'
p6539
sg348
(lp6540
sba(i__main__
DelphiIdentAccess
p6541
(dp6542
g357
S'kLine'
p6543
sg348
(lp6544
sbasbasba(i__main__
DelphiIdentAccess
p6545
(dp6546
g357
S'kDontUseAmendment'
p6547
sg348
(lp6548
sbasbasbsbasbsba(idelphi
DelphiWithStatement
p6549
(dp6550
g488
(idelphi
DelphiCompoundStatement
p6551
(dp6552
g341
(lp6553
(i__main__
DelphiAssignStatement
p6554
(dp6555
g375
(idelphi
DelphiNestedExpressionListAccess
p6556
(dp6557
g348
(lp6558
sg350
(lp6559
(idelphi
DelphiMulOp
p6560
(dp6561
g537
(i__main__
DelphiIdentAccess
p6562
(dp6563
g357
S'propFullSize'
p6564
sg348
(lp6565
sbsg542
S'*'
sg543
(idelphi
DelphiNestedExpressionListAccess
p6566
(dp6567
g348
(lp6568
sg350
(lp6569
(idelphi
DelphiMulOp
p6570
(dp6571
g537
(idelphi
DelphiRealValue
p6572
(dp6573
g72
S'100.0'
p6574
sbsg542
S'/'
sg543
(i__main__
DelphiIdentAccess
p6575
(dp6576
g357
S'scaleAtFullSize'
p6577
sg348
(lp6578
sbsbasbsbasbsg383
(i__main__
DelphiIdentAccess
p6579
(dp6580
g357
S'scale'
p6581
sg348
(lp6582
sbsba(i__main__
DelphiAssignStatement
p6583
(dp6584
g375
Nsg383
(i__main__
DelphiIdentAccess
p6585
(dp6586
g357
S'turtle'
p6587
sg348
(lp6588
(idelphi
DelphiFieldEndAccess
p6589
(dp6590
g362
S'rotateX'
p6591
sba(idelphi
DelphiFunctionEndAccess
p6592
(dp6593
g350
(lp6594
(i__main__
DelphiIdentAccess
p6595
(dp6596
g357
S'self'
p6597
sg348
(lp6598
(idelphi
DelphiFieldEndAccess
p6599
(dp6600
g362
S'angleWithSway'
p6601
sba(idelphi
DelphiFunctionEndAccess
p6602
(dp6603
g350
(lp6604
(i__main__
DelphiIdentAccess
p6605
(dp6606
g357
S'xRotationBeforeDraw'
p6607
sg348
(lp6608
sbasbasbasbasbsba(i__main__
DelphiAssignStatement
p6609
(dp6610
g375
Nsg383
(i__main__
DelphiIdentAccess
p6611
(dp6612
g357
S'turtle'
p6613
sg348
(lp6614
(idelphi
DelphiFieldEndAccess
p6615
(dp6616
g362
S'rotateY'
p6617
sba(idelphi
DelphiFunctionEndAccess
p6618
(dp6619
g350
(lp6620
(i__main__
DelphiIdentAccess
p6621
(dp6622
g357
S'self'
p6623
sg348
(lp6624
(idelphi
DelphiFieldEndAccess
p6625
(dp6626
g362
S'angleWithSway'
p6627
sba(idelphi
DelphiFunctionEndAccess
p6628
(dp6629
g350
(lp6630
(i__main__
DelphiIdentAccess
p6631
(dp6632
g357
S'yRotationBeforeDraw'
p6633
sg348
(lp6634
sbasbasbasbasbsba(i__main__
DelphiAssignStatement
p6635
(dp6636
g375
Nsg383
(i__main__
DelphiIdentAccess
p6637
(dp6638
g357
S'turtle'
p6639
sg348
(lp6640
(idelphi
DelphiFieldEndAccess
p6641
(dp6642
g362
S'rotateZ'
p6643
sba(idelphi
DelphiFunctionEndAccess
p6644
(dp6645
g350
(lp6646
(i__main__
DelphiIdentAccess
p6647
(dp6648
g357
S'self'
p6649
sg348
(lp6650
(idelphi
DelphiFieldEndAccess
p6651
(dp6652
g362
S'angleWithSway'
p6653
sba(idelphi
DelphiFunctionEndAccess
p6654
(dp6655
g350
(lp6656
(i__main__
DelphiIdentAccess
p6657
(dp6658
g357
S'zRotationBeforeDraw'
p6659
sg348
(lp6660
sbasbasbasbasbsba(i__main__
DelphiAssignStatement
p6661
(dp6662
g375
Nsg383
(i__main__
DelphiIdentAccess
p6663
(dp6664
g357
S'drawCircleOfTdos'
p6665
sg348
(lp6666
(idelphi
DelphiFunctionEndAccess
p6667
(dp6668
g350
(lp6669
(i__main__
DelphiIdentAccess
p6670
(dp6671
g357
S'object3D'
p6672
sg348
(lp6673
sba(i__main__
DelphiIdentAccess
p6674
(dp6675
g357
S'faceColor'
p6676
sg348
(lp6677
sba(i__main__
DelphiIdentAccess
p6678
(dp6679
g357
S'backfaceColor'
p6680
sg348
(lp6681
sba(idelphi
DelphiIntegerValue
p6682
(dp6683
g72
S'0'
sba(i__main__
DelphiIdentAccess
p6684
(dp6685
g357
S'scale'
p6686
sg348
(lp6687
sba(i__main__
DelphiIdentAccess
p6688
(dp6689
g357
S'repetitions'
p6690
sg348
(lp6691
sba(i__main__
DelphiIdentAccess
p6692
(dp6693
g357
S'radiallyArranged'
p6694
sg348
(lp6695
sba(i__main__
DelphiIdentAccess
p6696
(dp6697
g357
S'kDrawTDOOpen'
p6698
sg348
(lp6699
sba(i__main__
DelphiIdentAccess
p6700
(dp6701
g357
S'self'
p6702
sg348
(lp6703
(idelphi
DelphiFieldEndAccess
p6704
(dp6705
g362
S'dxfIndexForFloralLayerType'
p6706
sba(idelphi
DelphiFunctionEndAccess
p6707
(dp6708
g350
(lp6709
(i__main__
DelphiIdentAccess
p6710
(dp6711
g357
S'kPistils'
p6712
sg348
(lp6713
sba(i__main__
DelphiIdentAccess
p6714
(dp6715
g357
S'kNotLine'
p6716
sg348
(lp6717
sbasbasbasbasbsbasbsg684
(lp6718
(i__main__
DelphiIdentAccess
p6719
(dp6720
g357
S'plant'
p6721
sg348
(lp6722
(idelphi
DelphiFieldEndAccess
p6723
(dp6724
g362
S'pFlower'
p6725
sba(idelphi
DelphiArrayEndAccess
p6726
(dp6727
g350
(lp6728
(i__main__
DelphiIdentAccess
p6729
(dp6730
g357
S'gender'
p6731
sg348
(lp6732
sbasba(idelphi
DelphiFieldEndAccess
p6733
(dp6734
g362
S'tdoParams'
p6735
sba(idelphi
DelphiArrayEndAccess
p6736
(dp6737
g350
(lp6738
(i__main__
DelphiIdentAccess
p6739
(dp6740
g357
S'kPistils'
p6741
sg348
(lp6742
sbasbasbasba(i__main__
DelphiAssignStatement
p6743
(dp6744
g375
Nsg383
(i__main__
DelphiIdentAccess
p6745
(dp6746
g357
S'turtle'
p6747
sg348
(lp6748
(idelphi
DelphiFieldEndAccess
p6749
(dp6750
g362
S'pop'
p6751
sbasbsba(i__main__
DelphiAssignStatement
p6752
(dp6753
g375
(i__main__
DelphiIdentAccess
p6754
(dp6755
g357
S'trunc'
p6756
sg348
(lp6757
(idelphi
DelphiFunctionEndAccess
p6758
(dp6759
g350
(lp6760
(idelphi
DelphiAddOp
p6761
(dp6762
g2537
S'+'
sg2539
(i__main__
DelphiIdentAccess
p6763
(dp6764
g357
S'carryOver'
p6765
sg348
(lp6766
sbsg2554
(i__main__
DelphiIdentAccess
p6767
(dp6768
g357
S'addition'
p6769
sg348
(lp6770
sbsbasbasbsg383
(i__main__
DelphiIdentAccess
p6771
(dp6772
g357
S'addThisTime'
p6773
sg348
(lp6774
sbsba(i__main__
DelphiAssignStatement
p6775
(dp6776
g375
(idelphi
DelphiAddOp
p6777
(dp6778
g2537
S'-'
sg2539
(i__main__
DelphiIdentAccess
p6779
(dp6780
g357
S'addThisTime'
p6781
sg348
(lp6782
sbsg2554
(idelphi
DelphiAddOp
p6783
(dp6784
g2537
S'+'
sg2539
(i__main__
DelphiIdentAccess
p6785
(dp6786
g357
S'addition'
p6787
sg348
(lp6788
sbsg2554
(i__main__
DelphiIdentAccess
p6789
(dp6790
g357
S'carryOver'
p6791
sg348
(lp6792
sbsbsbsg383
(i__main__
DelphiIdentAccess
p6793
(dp6794
g357
S'carryOver'
p6795
sg348
(lp6796
sbsba(idelphi
DelphiIfStatement
p6797
(dp6798
g345
(idelphi
DelphiRelOp
p6799
(dp6800
g354
(i__main__
DelphiIdentAccess
p6801
(dp6802
g357
S'carryOver'
p6803
sg348
(lp6804
sbsg364
(idelphi
DelphiIntegerValue
p6805
(dp6806
g72
S'0'
sbsg367
S'<'
sbsg368
Nsg369
(i__main__
DelphiAssignStatement
p6807
(dp6808
g375
(idelphi
DelphiIntegerValue
p6809
(dp6810
g72
S'0'
sbsg383
(i__main__
DelphiIdentAccess
p6811
(dp6812
g357
S'carryOver'
p6813
sg348
(lp6814
sbsbsba(i__main__
DelphiAssignStatement
p6815
(dp6816
g375
Nsg383
(i__main__
DelphiIdentAccess
p6817
(dp6818
g357
S'turtle'
p6819
sg348
(lp6820
(idelphi
DelphiFieldEndAccess
p6821
(dp6822
g362
S'rotateX'
p6823
sba(idelphi
DelphiFunctionEndAccess
p6824
(dp6825
g350
(lp6826
(idelphi
DelphiAddOp
p6827
(dp6828
g2537
S'+'
sg2539
(i__main__
DelphiIdentAccess
p6829
(dp6830
g357
S'addThisTime'
p6831
sg348
(lp6832
sbsg2554
(i__main__
DelphiIdentAccess
p6833
(dp6834
g357
S'turnPortion'
p6835
sg348
(lp6836
sbsbasbasbsbasbsba(idelphi
DelphiIfStatement
p6837
(dp6838
g345
(idelphi
DelphiAddOp
p6839
(dp6840
g2537
g2538
sg2539
(idelphi
DelphiNestedExpressionListAccess
p6841
(dp6842
g348
(lp6843
sg350
(lp6844
(idelphi
DelphiRelOp
p6845
(dp6846
g354
(i__main__
DelphiIdentAccess
p6847
(dp6848
g357
S'tdoParams'
p6849
sg348
(lp6850
(idelphi
DelphiArrayEndAccess
p6851
(dp6852
g350
(lp6853
(i__main__
DelphiIdentAccess
p6854
(dp6855
g357
S'kPistils'
p6856
sg348
(lp6857
sbasba(idelphi
DelphiFieldEndAccess
p6858
(dp6859
g362
S'scaleAtFullSize'
p6860
sbasbsg364
(idelphi
DelphiIntegerValue
p6861
(dp6862
g72
S'0'
sbsg367
S'>'
sbasbsg2554
(idelphi
DelphiNestedExpressionListAccess
p6863
(dp6864
g348
(lp6865
sg350
(lp6866
(idelphi
DelphiMulOp
p6867
(dp6868
g537
(idelphi
DelphiNestedExpressionListAccess
p6869
(dp6870
g348
(lp6871
sg350
(lp6872
(idelphi
DelphiRelOp
p6873
(dp6874
g354
(i__main__
DelphiIdentAccess
p6875
(dp6876
g357
S'styleWidth_mm'
p6877
sg348
(lp6878
sbsg364
(idelphi
DelphiIntegerValue
p6879
(dp6880
g72
S'0'
sbsg367
S'>'
sbasbsg542
g2512
sg543
(idelphi
DelphiNestedExpressionListAccess
p6881
(dp6882
g348
(lp6883
sg350
(lp6884
(idelphi
DelphiRelOp
p6885
(dp6886
g354
(i__main__
DelphiIdentAccess
p6887
(dp6888
g357
S'styleLength_mm'
p6889
sg348
(lp6890
sbsg364
(idelphi
DelphiIntegerValue
p6891
(dp6892
g72
S'0'
sbsg367
S'>'
sbasbsbasbsbsg368
Nsg369
(i__main__
DelphiAssignStatement
p6893
(dp6894
g375
Nsg383
(i__main__
DelphiIdentAccess
p6895
(dp6896
g357
S'turtle'
p6897
sg348
(lp6898
(idelphi
DelphiFieldEndAccess
p6899
(dp6900
g362
S'ifExporting_endNestedGroupOfPlantParts'
p6901
sba(idelphi
DelphiFunctionEndAccess
p6902
(dp6903
g350
(lp6904
(i__main__
DelphiIdentAccess
p6905
(dp6906
g357
S'kNestingTypeFloralLayers'
p6907
sg348
(lp6908
sbasbasbsbsbasbsbsg684
(lp6909
(i__main__
DelphiIdentAccess
p6910
(dp6911
g357
S'plant'
p6912
sg348
(lp6913
(idelphi
DelphiFieldEndAccess
p6914
(dp6915
g362
S'pFlower'
p6916
sba(idelphi
DelphiArrayEndAccess
p6917
(dp6918
g350
(lp6919
(i__main__
DelphiIdentAccess
p6920
(dp6921
g357
S'gender'
p6922
sg348
(lp6923
sbasbasbasba(i__main__
DelphiAssignStatement
p6924
(dp6925
g375
Nsg383
(i__main__
DelphiIdentAccess
p6926
(dp6927
g357
S'turtle'
p6928
sg348
(lp6929
(idelphi
DelphiFieldEndAccess
p6930
(dp6931
g362
S'pop'
p6932
sbasbsba(i__main__
DelphiAssignStatement
p6933
(dp6934
g375
Nsg383
(i__main__
DelphiIdentAccess
p6935
(dp6936
g357
S'turtle'
p6937
sg348
(lp6938
(idelphi
DelphiFieldEndAccess
p6939
(dp6940
g362
S'push'
p6941
sbasbsg513
(lp6942
S' stamens\r'
p6943
asba(idelphi
DelphiWithStatement
p6944
(dp6945
g488
(idelphi
DelphiIfStatement
p6946
(dp6947
g345
(idelphi
DelphiRelOp
p6948
(dp6949
g354
(i__main__
DelphiIdentAccess
p6950
(dp6951
g357
S'numStamens'
p6952
sg348
(lp6953
sbsg364
(idelphi
DelphiIntegerValue
p6954
(dp6955
g72
S'0'
sbsg367
S'>'
sbsg368
Nsg369
(idelphi
DelphiCompoundStatement
p6956
(dp6957
g341
(lp6958
(idelphi
DelphiIfStatement
p6959
(dp6960
g345
(idelphi
DelphiAddOp
p6961
(dp6962
g2537
g2538
sg2539
(idelphi
DelphiNestedExpressionListAccess
p6963
(dp6964
g348
(lp6965
sg350
(lp6966
(idelphi
DelphiRelOp
p6967
(dp6968
g354
(i__main__
DelphiIdentAccess
p6969
(dp6970
g357
S'tdoParams'
p6971
sg348
(lp6972
(idelphi
DelphiArrayEndAccess
p6973
(dp6974
g350
(lp6975
(i__main__
DelphiIdentAccess
p6976
(dp6977
g357
S'kStamens'
p6978
sg348
(lp6979
sbasba(idelphi
DelphiFieldEndAccess
p6980
(dp6981
g362
S'scaleAtFullSize'
p6982
sbasbsg364
(idelphi
DelphiIntegerValue
p6983
(dp6984
g72
S'0'
sbsg367
S'>'
sbasbsg2554
(idelphi
DelphiNestedExpressionListAccess
p6985
(dp6986
g348
(lp6987
sg350
(lp6988
(idelphi
DelphiMulOp
p6989
(dp6990
g537
(idelphi
DelphiNestedExpressionListAccess
p6991
(dp6992
g348
(lp6993
sg350
(lp6994
(idelphi
DelphiRelOp
p6995
(dp6996
g354
(i__main__
DelphiIdentAccess
p6997
(dp6998
g357
S'filamentWidth_mm'
p6999
sg348
(lp7000
sbsg364
(idelphi
DelphiIntegerValue
p7001
(dp7002
g72
S'0'
sbsg367
S'>'
sbasbsg542
g2512
sg543
(idelphi
DelphiNestedExpressionListAccess
p7003
(dp7004
g348
(lp7005
sg350
(lp7006
(idelphi
DelphiRelOp
p7007
(dp7008
g354
(i__main__
DelphiIdentAccess
p7009
(dp7010
g357
S'filamentLength_mm'
p7011
sg348
(lp7012
sbsg364
(idelphi
DelphiIntegerValue
p7013
(dp7014
g72
S'0'
sbsg367
S'>'
sbasbsbasbsbsg368
Nsg369
(idelphi
DelphiCompoundStatement
p7015
(dp7016
g341
(lp7017
(idelphi
DelphiIfStatement
p7018
(dp7019
g345
(idelphi
DelphiRelOp
p7020
(dp7021
g354
(i__main__
DelphiIdentAccess
p7022
(dp7023
g357
S'self'
p7024
sg348
(lp7025
(idelphi
DelphiFieldEndAccess
p7026
(dp7027
g362
S'gender'
p7028
sbasbsg364
(i__main__
DelphiIdentAccess
p7029
(dp7030
g357
S'kGenderFemale'
p7031
sg348
(lp7032
sbsg367
S'='
sbsg368
(i__main__
DelphiAssignStatement
p7033
(dp7034
g375
Nsg383
(i__main__
DelphiIdentAccess
p7035
(dp7036
g357
S'turtle'
p7037
sg348
(lp7038
(idelphi
DelphiFieldEndAccess
p7039
(dp7040
g362
S'ifExporting_startNestedGroupOfPlantParts'
p7041
sba(idelphi
DelphiFunctionEndAccess
p7042
(dp7043
g350
(lp7044
(idelphi
DelphiStringAccess
p7045
(dp7046
g348
(lp7047
sg72
(idelphi
DelphiStringValue
p7048
(dp7049
g72
S'secondary stamens'
p7050
sbsba(idelphi
DelphiStringAccess
p7051
(dp7052
g348
(lp7053
sg72
(idelphi
DelphiStringValue
p7054
(dp7055
g72
S'2Stamens'
p7056
sbsba(i__main__
DelphiIdentAccess
p7057
(dp7058
g357
S'kNestingTypeFloralLayers'
p7059
sg348
(lp7060
sbasbasbsbsg369
(i__main__
DelphiAssignStatement
p7061
(dp7062
g375
Nsg383
(i__main__
DelphiIdentAccess
p7063
(dp7064
g357
S'turtle'
p7065
sg348
(lp7066
(idelphi
DelphiFieldEndAccess
p7067
(dp7068
g362
S'ifExporting_startNestedGroupOfPlantParts'
p7069
sba(idelphi
DelphiFunctionEndAccess
p7070
(dp7071
g350
(lp7072
(idelphi
DelphiStringAccess
p7073
(dp7074
g348
(lp7075
sg72
(idelphi
DelphiStringValue
p7076
(dp7077
g72
S'primary stamens'
p7078
sbsba(idelphi
DelphiStringAccess
p7079
(dp7080
g348
(lp7081
sg72
(idelphi
DelphiStringValue
p7082
(dp7083
g72
S'1Stamens'
p7084
sbsba(i__main__
DelphiIdentAccess
p7085
(dp7086
g357
S'kNestingTypeFloralLayers'
p7087
sg348
(lp7088
sbasbasbsbsbasbsba(i__main__
DelphiAssignStatement
p7089
(dp7090
g375
(idelphi
DelphiMulOp
p7091
(dp7092
g537
(i__main__
DelphiIdentAccess
p7093
(dp7094
g357
S'numStamens'
p7095
sg348
(lp7096
sbsg542
g2709
sg543
(idelphi
DelphiIntegerValue
p7097
(dp7098
g72
S'256'
p7099
sbsbsg383
(i__main__
DelphiIdentAccess
p7100
(dp7101
g357
S'turnPortion'
p7102
sg348
(lp7103
sbsba(i__main__
DelphiAssignStatement
p7104
(dp7105
g375
(idelphi
DelphiAddOp
p7106
(dp7107
g2537
S'-'
sg2539
(idelphi
DelphiMulOp
p7108
(dp7109
g537
(i__main__
DelphiIdentAccess
p7110
(dp7111
g357
S'numStamens'
p7112
sg348
(lp7113
sbsg542
S'*'
sg543
(i__main__
DelphiIdentAccess
p7114
(dp7115
g357
S'turnPortion'
p7116
sg348
(lp7117
sbsbsg2554
(idelphi
DelphiIntegerValue
p7118
(dp7119
g72
S'256'
p7120
sbsbsg383
(i__main__
DelphiIdentAccess
p7121
(dp7122
g357
S'leftOverDegrees'
p7123
sg348
(lp7124
sbsba(idelphi
DelphiIfStatement
p7125
(dp7126
g345
(idelphi
DelphiRelOp
p7127
(dp7128
g354
(i__main__
DelphiIdentAccess
p7129
(dp7130
g357
S'leftOverDegrees'
p7131
sg348
(lp7132
sbsg364
(idelphi
DelphiIntegerValue
p7133
(dp7134
g72
S'0'
sbsg367
S'>'
sbsg368
(i__main__
DelphiAssignStatement
p7135
(dp7136
g375
(idelphi
DelphiIntegerValue
p7137
(dp7138
g72
S'0'
sbsg383
(i__main__
DelphiIdentAccess
p7139
(dp7140
g357
S'addition'
p7141
sg348
(lp7142
sbsbsg369
(i__main__
DelphiAssignStatement
p7143
(dp7144
g375
(i__main__
DelphiIdentAccess
p7145
(dp7146
g357
S'safedivExcept'
p7147
sg348
(lp7148
(idelphi
DelphiFunctionEndAccess
p7149
(dp7150
g350
(lp7151
(i__main__
DelphiIdentAccess
p7152
(dp7153
g357
S'leftOverDegrees'
p7154
sg348
(lp7155
sba(i__main__
DelphiIdentAccess
p7156
(dp7157
g357
S'numStamens'
p7158
sg348
(lp7159
sba(idelphi
DelphiIntegerValue
p7160
(dp7161
g72
S'0'
sbasbasbsg383
(i__main__
DelphiIdentAccess
p7162
(dp7163
g357
S'addition'
p7164
sg348
(lp7165
sbsbsba(i__main__
DelphiAssignStatement
p7166
(dp7167
g375
(idelphi
DelphiIntegerValue
p7168
(dp7169
g72
S'0'
sbsg383
(i__main__
DelphiIdentAccess
p7170
(dp7171
g357
S'carryOver'
p7172
sg348
(lp7173
sbsba(idelphi
DelphiForStatement
p7174
(dp7175
g1222
S'i'
sg1224
(idelphi
DelphiAddOp
p7176
(dp7177
g2537
S'-'
sg2539
(idelphi
DelphiIntegerValue
p7178
(dp7179
g72
S'1'
sbsg2554
(i__main__
DelphiIdentAccess
p7180
(dp7181
g357
S'numStamens'
p7182
sg348
(lp7183
sbsbsg1229
g1230
sg41
(idelphi
DelphiIntegerValue
p7184
(dp7185
g72
S'0'
sbsg488
(idelphi
DelphiCompoundStatement
p7186
(dp7187
g341
(lp7188
(i__main__
DelphiAssignStatement
p7189
(dp7190
g375
Nsg383
(i__main__
DelphiIdentAccess
p7191
(dp7192
g357
S'turtle'
p7193
sg348
(lp7194
(idelphi
DelphiFieldEndAccess
p7195
(dp7196
g362
S'push'
p7197
sbasbsba(idelphi
DelphiIfStatement
p7198
(dp7199
g345
(idelphi
DelphiMulOp
p7200
(dp7201
g537
(idelphi
DelphiNestedExpressionListAccess
p7202
(dp7203
g348
(lp7204
sg350
(lp7205
(idelphi
DelphiRelOp
p7206
(dp7207
g354
(i__main__
DelphiIdentAccess
p7208
(dp7209
g357
S'filamentWidth_mm'
p7210
sg348
(lp7211
sbsg364
(idelphi
DelphiIntegerValue
p7212
(dp7213
g72
S'0'
sbsg367
S'>'
sbasbsg542
g2512
sg543
(idelphi
DelphiNestedExpressionListAccess
p7214
(dp7215
g348
(lp7216
sg350
(lp7217
(idelphi
DelphiRelOp
p7218
(dp7219
g354
(i__main__
DelphiIdentAccess
p7220
(dp7221
g357
S'filamentLength_mm'
p7222
sg348
(lp7223
sbsg364
(idelphi
DelphiIntegerValue
p7224
(dp7225
g72
S'0'
sbsg367
S'>'
sbasbsbsg368
Nsg369
(idelphi
DelphiCompoundStatement
p7226
(dp7227
g341
(lp7228
(i__main__
DelphiAssignStatement
p7229
(dp7230
g375
(i__main__
DelphiIdentAccess
p7231
(dp7232
g357
S'max'
p7233
sg348
(lp7234
(idelphi
DelphiFunctionEndAccess
p7235
(dp7236
g350
(lp7237
(idelphi
DelphiRealValue
p7238
(dp7239
g72
S'0.0'
p7240
sba(idelphi
DelphiMulOp
p7241
(dp7242
g537
(i__main__
DelphiIdentAccess
p7243
(dp7244
g357
S'filamentLength_mm'
p7245
sg348
(lp7246
sbsg542
S'*'
sg543
(i__main__
DelphiIdentAccess
p7247
(dp7248
g357
S'propFullSize'
p7249
sg348
(lp7250
sbsbasbasbsg383
(i__main__
DelphiIdentAccess
p7251
(dp7252
g357
S'length'
p7253
sg348
(lp7254
sbsba(i__main__
DelphiAssignStatement
p7255
(dp7256
g375
(i__main__
DelphiIdentAccess
p7257
(dp7258
g357
S'max'
p7259
sg348
(lp7260
(idelphi
DelphiFunctionEndAccess
p7261
(dp7262
g350
(lp7263
(idelphi
DelphiRealValue
p7264
(dp7265
g72
S'0.0'
p7266
sba(idelphi
DelphiMulOp
p7267
(dp7268
g537
(i__main__
DelphiIdentAccess
p7269
(dp7270
g357
S'filamentWidth_mm'
p7271
sg348
(lp7272
sbsg542
S'*'
sg543
(i__main__
DelphiIdentAccess
p7273
(dp7274
g357
S'propFullSize'
p7275
sg348
(lp7276
sbsbasbasbsg383
(i__main__
DelphiIdentAccess
p7277
(dp7278
g357
S'width'
p7279
sg348
(lp7280
sbsba(i__main__
DelphiAssignStatement
p7281
(dp7282
g375
(i__main__
DelphiIdentAccess
p7283
(dp7284
g357
S'self'
p7285
sg348
(lp7286
(idelphi
DelphiFieldEndAccess
p7287
(dp7288
g362
S'angleWithSway'
p7289
sba(idelphi
DelphiFunctionEndAccess
p7290
(dp7291
g350
(lp7292
(i__main__
DelphiIdentAccess
p7293
(dp7294
g357
S'plant'
p7295
sg348
(lp7296
(idelphi
DelphiFieldEndAccess
p7297
(dp7298
g362
S'pFlower'
p7299
sba(idelphi
DelphiArrayEndAccess
p7300
(dp7301
g350
(lp7302
(i__main__
DelphiIdentAccess
p7303
(dp7304
g357
S'gender'
p7305
sg348
(lp7306
sbasba(idelphi
DelphiFieldEndAccess
p7307
(dp7308
g362
S'tdoParams'
p7309
sba(idelphi
DelphiArrayEndAccess
p7310
(dp7311
g350
(lp7312
(i__main__
DelphiIdentAccess
p7313
(dp7314
g357
S'kStamens'
p7315
sg348
(lp7316
sbasba(idelphi
DelphiFieldEndAccess
p7317
(dp7318
g362
S'pullBackAngle'
p7319
sbasbasbasbsg383
(i__main__
DelphiIdentAccess
p7320
(dp7321
g357
S'angle'
p7322
sg348
(lp7323
sbsba(idelphi
DelphiIfStatement
p7324
(dp7325
g345
(i__main__
DelphiIdentAccess
p7326
(dp7327
g357
S'drawAsOpening'
p7328
sg348
(lp7329
sbsg368
Nsg369
(i__main__
DelphiAssignStatement
p7330
(dp7331
g375
(idelphi
DelphiMulOp
p7332
(dp7333
g537
(i__main__
DelphiIdentAccess
p7334
(dp7335
g357
S'propFullSize'
p7336
sg348
(lp7337
sbsg542
S'*'
sg543
(i__main__
DelphiIdentAccess
p7338
(dp7339
g357
S'angle'
p7340
sg348
(lp7341
sbsbsg383
(i__main__
DelphiIdentAccess
p7342
(dp7343
g357
S'angle'
p7344
sg348
(lp7345
sbsbsba(i__main__
DelphiAssignStatement
p7346
(dp7347
g375
Nsg383
(i__main__
DelphiIdentAccess
p7348
(dp7349
g357
S'self'
p7350
sg348
(lp7351
(idelphi
DelphiFieldEndAccess
p7352
(dp7353
g362
S'drawStemSegment'
p7354
sba(idelphi
DelphiFunctionEndAccess
p7355
(dp7356
g350
(lp7357
(i__main__
DelphiIdentAccess
p7358
(dp7359
g357
S'length'
p7360
sg348
(lp7361
sba(i__main__
DelphiIdentAccess
p7362
(dp7363
g357
S'width'
p7364
sg348
(lp7365
sba(i__main__
DelphiIdentAccess
p7366
(dp7367
g357
S'angle'
p7368
sg348
(lp7369
sba(idelphi
DelphiIntegerValue
p7370
(dp7371
g72
S'0'
sba(i__main__
DelphiIdentAccess
p7372
(dp7373
g357
S'filamentColor'
p7374
sg348
(lp7375
sba(i__main__
DelphiIdentAccess
p7376
(dp7377
g357
S'filamentTaperIndex'
p7378
sg348
(lp7379
sba(i__main__
DelphiIdentAccess
p7380
(dp7381
g357
S'self'
p7382
sg348
(lp7383
(idelphi
DelphiFieldEndAccess
p7384
(dp7385
g362
S'dxfIndexForFloralLayerType'
p7386
sba(idelphi
DelphiFunctionEndAccess
p7387
(dp7388
g350
(lp7389
(i__main__
DelphiIdentAccess
p7390
(dp7391
g357
S'kStamens'
p7392
sg348
(lp7393
sba(i__main__
DelphiIdentAccess
p7394
(dp7395
g357
S'kLine'
p7396
sg348
(lp7397
sbasbasba(i__main__
DelphiIdentAccess
p7398
(dp7399
g357
S'kDontUseAmendment'
p7400
sg348
(lp7401
sbasbasbsbasbsba(idelphi
DelphiWithStatement
p7402
(dp7403
g488
(idelphi
DelphiCompoundStatement
p7404
(dp7405
g341
(lp7406
(i__main__
DelphiAssignStatement
p7407
(dp7408
g375
(idelphi
DelphiNestedExpressionListAccess
p7409
(dp7410
g348
(lp7411
sg350
(lp7412
(idelphi
DelphiMulOp
p7413
(dp7414
g537
(i__main__
DelphiIdentAccess
p7415
(dp7416
g357
S'propFullSize'
p7417
sg348
(lp7418
sbsg542
S'*'
sg543
(idelphi
DelphiNestedExpressionListAccess
p7419
(dp7420
g348
(lp7421
sg350
(lp7422
(idelphi
DelphiMulOp
p7423
(dp7424
g537
(idelphi
DelphiRealValue
p7425
(dp7426
g72
S'100.0'
p7427
sbsg542
S'/'
sg543
(i__main__
DelphiIdentAccess
p7428
(dp7429
g357
S'scaleAtFullSize'
p7430
sg348
(lp7431
sbsbasbsbasbsg383
(i__main__
DelphiIdentAccess
p7432
(dp7433
g357
S'scale'
p7434
sg348
(lp7435
sbsba(i__main__
DelphiAssignStatement
p7436
(dp7437
g375
Nsg383
(i__main__
DelphiIdentAccess
p7438
(dp7439
g357
S'turtle'
p7440
sg348
(lp7441
(idelphi
DelphiFieldEndAccess
p7442
(dp7443
g362
S'rotateX'
p7444
sba(idelphi
DelphiFunctionEndAccess
p7445
(dp7446
g350
(lp7447
(i__main__
DelphiIdentAccess
p7448
(dp7449
g357
S'self'
p7450
sg348
(lp7451
(idelphi
DelphiFieldEndAccess
p7452
(dp7453
g362
S'angleWithSway'
p7454
sba(idelphi
DelphiFunctionEndAccess
p7455
(dp7456
g350
(lp7457
(i__main__
DelphiIdentAccess
p7458
(dp7459
g357
S'xRotationBeforeDraw'
p7460
sg348
(lp7461
sbasbasbasbasbsba(i__main__
DelphiAssignStatement
p7462
(dp7463
g375
Nsg383
(i__main__
DelphiIdentAccess
p7464
(dp7465
g357
S'turtle'
p7466
sg348
(lp7467
(idelphi
DelphiFieldEndAccess
p7468
(dp7469
g362
S'rotateY'
p7470
sba(idelphi
DelphiFunctionEndAccess
p7471
(dp7472
g350
(lp7473
(i__main__
DelphiIdentAccess
p7474
(dp7475
g357
S'self'
p7476
sg348
(lp7477
(idelphi
DelphiFieldEndAccess
p7478
(dp7479
g362
S'angleWithSway'
p7480
sba(idelphi
DelphiFunctionEndAccess
p7481
(dp7482
g350
(lp7483
(i__main__
DelphiIdentAccess
p7484
(dp7485
g357
S'yRotationBeforeDraw'
p7486
sg348
(lp7487
sbasbasbasbasbsba(i__main__
DelphiAssignStatement
p7488
(dp7489
g375
Nsg383
(i__main__
DelphiIdentAccess
p7490
(dp7491
g357
S'turtle'
p7492
sg348
(lp7493
(idelphi
DelphiFieldEndAccess
p7494
(dp7495
g362
S'rotateZ'
p7496
sba(idelphi
DelphiFunctionEndAccess
p7497
(dp7498
g350
(lp7499
(i__main__
DelphiIdentAccess
p7500
(dp7501
g357
S'self'
p7502
sg348
(lp7503
(idelphi
DelphiFieldEndAccess
p7504
(dp7505
g362
S'angleWithSway'
p7506
sba(idelphi
DelphiFunctionEndAccess
p7507
(dp7508
g350
(lp7509
(i__main__
DelphiIdentAccess
p7510
(dp7511
g357
S'zRotationBeforeDraw'
p7512
sg348
(lp7513
sbasbasbasbasbsba(i__main__
DelphiAssignStatement
p7514
(dp7515
g375
Nsg383
(i__main__
DelphiIdentAccess
p7516
(dp7517
g357
S'drawCircleOfTdos'
p7518
sg348
(lp7519
(idelphi
DelphiFunctionEndAccess
p7520
(dp7521
g350
(lp7522
(i__main__
DelphiIdentAccess
p7523
(dp7524
g357
S'object3D'
p7525
sg348
(lp7526
sba(i__main__
DelphiIdentAccess
p7527
(dp7528
g357
S'faceColor'
p7529
sg348
(lp7530
sba(i__main__
DelphiIdentAccess
p7531
(dp7532
g357
S'backfaceColor'
p7533
sg348
(lp7534
sba(idelphi
DelphiIntegerValue
p7535
(dp7536
g72
S'0'
sba(i__main__
DelphiIdentAccess
p7537
(dp7538
g357
S'scale'
p7539
sg348
(lp7540
sba(i__main__
DelphiIdentAccess
p7541
(dp7542
g357
S'repetitions'
p7543
sg348
(lp7544
sba(i__main__
DelphiIdentAccess
p7545
(dp7546
g357
S'radiallyArranged'
p7547
sg348
(lp7548
sba(i__main__
DelphiIdentAccess
p7549
(dp7550
g357
S'kDrawTDOOpen'
p7551
sg348
(lp7552
sba(i__main__
DelphiIdentAccess
p7553
(dp7554
g357
S'self'
p7555
sg348
(lp7556
(idelphi
DelphiFieldEndAccess
p7557
(dp7558
g362
S'dxfIndexForFloralLayerType'
p7559
sba(idelphi
DelphiFunctionEndAccess
p7560
(dp7561
g350
(lp7562
(i__main__
DelphiIdentAccess
p7563
(dp7564
g357
S'kStamens'
p7565
sg348
(lp7566
sba(i__main__
DelphiIdentAccess
p7567
(dp7568
g357
S'kNotLine'
p7569
sg348
(lp7570
sbasbasbasbasbsbasbsg684
(lp7571
(i__main__
DelphiIdentAccess
p7572
(dp7573
g357
S'plant'
p7574
sg348
(lp7575
(idelphi
DelphiFieldEndAccess
p7576
(dp7577
g362
S'pFlower'
p7578
sba(idelphi
DelphiArrayEndAccess
p7579
(dp7580
g350
(lp7581
(i__main__
DelphiIdentAccess
p7582
(dp7583
g357
S'gender'
p7584
sg348
(lp7585
sbasba(idelphi
DelphiFieldEndAccess
p7586
(dp7587
g362
S'tdoParams'
p7588
sba(idelphi
DelphiArrayEndAccess
p7589
(dp7590
g350
(lp7591
(i__main__
DelphiIdentAccess
p7592
(dp7593
g357
S'kStamens'
p7594
sg348
(lp7595
sbasbasbasba(i__main__
DelphiAssignStatement
p7596
(dp7597
g375
Nsg383
(i__main__
DelphiIdentAccess
p7598
(dp7599
g357
S'turtle'
p7600
sg348
(lp7601
(idelphi
DelphiFieldEndAccess
p7602
(dp7603
g362
S'pop'
p7604
sbasbsba(i__main__
DelphiAssignStatement
p7605
(dp7606
g375
(i__main__
DelphiIdentAccess
p7607
(dp7608
g357
S'trunc'
p7609
sg348
(lp7610
(idelphi
DelphiFunctionEndAccess
p7611
(dp7612
g350
(lp7613
(idelphi
DelphiAddOp
p7614
(dp7615
g2537
S'+'
sg2539
(i__main__
DelphiIdentAccess
p7616
(dp7617
g357
S'carryOver'
p7618
sg348
(lp7619
sbsg2554
(i__main__
DelphiIdentAccess
p7620
(dp7621
g357
S'addition'
p7622
sg348
(lp7623
sbsbasbasbsg383
(i__main__
DelphiIdentAccess
p7624
(dp7625
g357
S'addThisTime'
p7626
sg348
(lp7627
sbsba(i__main__
DelphiAssignStatement
p7628
(dp7629
g375
(idelphi
DelphiAddOp
p7630
(dp7631
g2537
S'-'
sg2539
(i__main__
DelphiIdentAccess
p7632
(dp7633
g357
S'addThisTime'
p7634
sg348
(lp7635
sbsg2554
(idelphi
DelphiAddOp
p7636
(dp7637
g2537
S'+'
sg2539
(i__main__
DelphiIdentAccess
p7638
(dp7639
g357
S'addition'
p7640
sg348
(lp7641
sbsg2554
(i__main__
DelphiIdentAccess
p7642
(dp7643
g357
S'carryOver'
p7644
sg348
(lp7645
sbsbsbsg383
(i__main__
DelphiIdentAccess
p7646
(dp7647
g357
S'carryOver'
p7648
sg348
(lp7649
sbsba(idelphi
DelphiIfStatement
p7650
(dp7651
g345
(idelphi
DelphiRelOp
p7652
(dp7653
g354
(i__main__
DelphiIdentAccess
p7654
(dp7655
g357
S'carryOver'
p7656
sg348
(lp7657
sbsg364
(idelphi
DelphiIntegerValue
p7658
(dp7659
g72
S'0'
sbsg367
S'<'
sbsg368
Nsg369
(i__main__
DelphiAssignStatement
p7660
(dp7661
g375
(idelphi
DelphiIntegerValue
p7662
(dp7663
g72
S'0'
sbsg383
(i__main__
DelphiIdentAccess
p7664
(dp7665
g357
S'carryOver'
p7666
sg348
(lp7667
sbsbsba(i__main__
DelphiAssignStatement
p7668
(dp7669
g375
Nsg383
(i__main__
DelphiIdentAccess
p7670
(dp7671
g357
S'turtle'
p7672
sg348
(lp7673
(idelphi
DelphiFieldEndAccess
p7674
(dp7675
g362
S'rotateX'
p7676
sba(idelphi
DelphiFunctionEndAccess
p7677
(dp7678
g350
(lp7679
(idelphi
DelphiAddOp
p7680
(dp7681
g2537
S'+'
sg2539
(i__main__
DelphiIdentAccess
p7682
(dp7683
g357
S'addThisTime'
p7684
sg348
(lp7685
sbsg2554
(i__main__
DelphiIdentAccess
p7686
(dp7687
g357
S'turnPortion'
p7688
sg348
(lp7689
sbsbasbasbsbasbsba(idelphi
DelphiIfStatement
p7690
(dp7691
g345
(idelphi
DelphiAddOp
p7692
(dp7693
g2537
g2538
sg2539
(idelphi
DelphiNestedExpressionListAccess
p7694
(dp7695
g348
(lp7696
sg350
(lp7697
(idelphi
DelphiRelOp
p7698
(dp7699
g354
(i__main__
DelphiIdentAccess
p7700
(dp7701
g357
S'tdoParams'
p7702
sg348
(lp7703
(idelphi
DelphiArrayEndAccess
p7704
(dp7705
g350
(lp7706
(i__main__
DelphiIdentAccess
p7707
(dp7708
g357
S'kStamens'
p7709
sg348
(lp7710
sbasba(idelphi
DelphiFieldEndAccess
p7711
(dp7712
g362
S'scaleAtFullSize'
p7713
sbasbsg364
(idelphi
DelphiIntegerValue
p7714
(dp7715
g72
S'0'
sbsg367
S'>'
sbasbsg2554
(idelphi
DelphiNestedExpressionListAccess
p7716
(dp7717
g348
(lp7718
sg350
(lp7719
(idelphi
DelphiMulOp
p7720
(dp7721
g537
(idelphi
DelphiNestedExpressionListAccess
p7722
(dp7723
g348
(lp7724
sg350
(lp7725
(idelphi
DelphiRelOp
p7726
(dp7727
g354
(i__main__
DelphiIdentAccess
p7728
(dp7729
g357
S'filamentWidth_mm'
p7730
sg348
(lp7731
sbsg364
(idelphi
DelphiIntegerValue
p7732
(dp7733
g72
S'0'
sbsg367
S'>'
sbasbsg542
g2512
sg543
(idelphi
DelphiNestedExpressionListAccess
p7734
(dp7735
g348
(lp7736
sg350
(lp7737
(idelphi
DelphiRelOp
p7738
(dp7739
g354
(i__main__
DelphiIdentAccess
p7740
(dp7741
g357
S'filamentLength_mm'
p7742
sg348
(lp7743
sbsg364
(idelphi
DelphiIntegerValue
p7744
(dp7745
g72
S'0'
sbsg367
S'>'
sbasbsbasbsbsg368
Nsg369
(i__main__
DelphiAssignStatement
p7746
(dp7747
g375
Nsg383
(i__main__
DelphiIdentAccess
p7748
(dp7749
g357
S'turtle'
p7750
sg348
(lp7751
(idelphi
DelphiFieldEndAccess
p7752
(dp7753
g362
S'ifExporting_endNestedGroupOfPlantParts'
p7754
sba(idelphi
DelphiFunctionEndAccess
p7755
(dp7756
g350
(lp7757
(i__main__
DelphiIdentAccess
p7758
(dp7759
g357
S'kNestingTypeFloralLayers'
p7760
sg348
(lp7761
sbasbasbsbsbasbsbsg684
(lp7762
(i__main__
DelphiIdentAccess
p7763
(dp7764
g357
S'plant'
p7765
sg348
(lp7766
(idelphi
DelphiFieldEndAccess
p7767
(dp7768
g362
S'pFlower'
p7769
sba(idelphi
DelphiArrayEndAccess
p7770
(dp7771
g350
(lp7772
(i__main__
DelphiIdentAccess
p7773
(dp7774
g357
S'gender'
p7775
sg348
(lp7776
sbasbasbasba(i__main__
DelphiAssignStatement
p7777
(dp7778
g375
Nsg383
(i__main__
DelphiIdentAccess
p7779
(dp7780
g357
S'turtle'
p7781
sg348
(lp7782
(idelphi
DelphiFieldEndAccess
p7783
(dp7784
g362
S'pop'
p7785
sbasbsbasbsg1174
(lp7786
(i__main__
DelphiVarSection
p7787
(dp7788
g1178
I0
sg1179
(lp7789
(idelphi
DelphiVarDecl
p7790
(dp7791
g1183
Nsg1184
(lp7792
S'scale'
p7793
aS'length'
p7794
aS'width'
p7795
aS'angle'
p7796
asg45
(i__main__
DelphiPrimitiveType
p7797
(dp7798
g48
g126
sbsba(idelphi
DelphiVarDecl
p7799
(dp7800
g1183
Nsg1184
(lp7801
S'turtle'
p7802
asg45
(i__main__
DelphiNamedType
p7803
(dp7804
g48
S'KfTurtle'
p7805
sg50
g1
sg51
Nsbsba(idelphi
DelphiVarDecl
p7806
(dp7807
g1183
Nsg1184
(lp7808
S'i'
asg45
(i__main__
DelphiPrimitiveType
p7809
(dp7810
g48
g157
sbsba(idelphi
DelphiVarDecl
p7811
(dp7812
g1183
Nsg1184
(lp7813
S'turnPortion'
p7814
aS'leftOverDegrees'
p7815
aS'addThisTime'
p7816
asg45
(i__main__
DelphiPrimitiveType
p7817
(dp7818
g48
g81
sbsba(idelphi
DelphiVarDecl
p7819
(dp7820
g1183
Nsg1184
(lp7821
S'addition'
p7822
aS'carryOver'
p7823
asg45
(i__main__
DelphiPrimitiveType
p7824
(dp7825
g48
g126
sbsbasbasbsbsS'dxfindexforflorallayertype'
p7826
(i__main__
DelphiMethodImplementation
p7827
(dp7828
g321
g238
sg19
g240
sg27
(lp7829
(i__main__
DelphiFormalParameter
p7830
(dp7831
g41
Nsg42
(lp7832
S'aType'
p7833
asg45
(i__main__
DelphiPrimitiveType
p7834
(dp7835
g48
g157
sbsg52
Nsba(i__main__
DelphiFormalParameter
p7836
(dp7837
g41
Nsg42
(lp7838
S'line'
p7839
asg45
(i__main__
DelphiPrimitiveType
p7840
(dp7841
g48
g64
sbsg52
Nsbasg323
(lp7842
sg325
(lp7843
sg327
(lp7844
g329
ag7833
ag7839
asg330
(dp7845
g7839
g7840
sg7833
g7834
ssg29
S'PdFlowerFruit'
p7846
sg30
(i__main__
DelphiPrimitiveType
p7847
(dp7848
g48
g157
sbsg333
(lp7849
sg31
I0
sg32
g73
sg335
(i__main__
DelphiBlock
p7850
(dp7851
g338
(idelphi
DelphiCompoundStatement
p7852
(dp7853
g341
(lp7854
(i__main__
DelphiAssignStatement
p7855
(dp7856
g375
(idelphi
DelphiIntegerValue
p7857
(dp7858
g72
S'0'
sbsg383
(i__main__
DelphiIdentAccess
p7859
(dp7860
g357
S'result'
p7861
sg348
(lp7862
sbsba(idelphi
DelphiCaseStatement
p7863
(dp7864
g479
Nsg345
(i__main__
DelphiIdentAccess
p7865
(dp7866
g357
S'aType'
p7867
sg348
(lp7868
sbsg484
(lp7869
(idelphi
DelphiCaseSelector
p7870
(dp7871
g488
(i__main__
DelphiAssignStatement
p7872
(dp7873
g375
(i__main__
DelphiIdentAccess
p7874
(dp7875
g357
S'kExportPartFlowerBudFemale'
p7876
sg348
(lp7877
sbsg383
(i__main__
DelphiIdentAccess
p7878
(dp7879
g357
S'result'
p7880
sg348
(lp7881
sbsbsg516
(lp7882
(i__main__
DelphiIdentAccess
p7883
(dp7884
g357
S'kBud'
p7885
sg348
(lp7886
sbasba(idelphi
DelphiCaseSelector
p7887
(dp7888
g488
(idelphi
DelphiIfStatement
p7889
(dp7890
g345
(i__main__
DelphiIdentAccess
p7891
(dp7892
g357
S'line'
p7893
sg348
(lp7894
sbsg368
(i__main__
DelphiAssignStatement
p7895
(dp7896
g375
(i__main__
DelphiIdentAccess
p7897
(dp7898
g357
S'kExportPartStigmaFemale'
p7899
sg348
(lp7900
sbsg383
(i__main__
DelphiIdentAccess
p7901
(dp7902
g357
S'result'
p7903
sg348
(lp7904
sbsbsg369
(i__main__
DelphiAssignStatement
p7905
(dp7906
g375
(i__main__
DelphiIdentAccess
p7907
(dp7908
g357
S'kExportPartStyleFemale'
p7909
sg348
(lp7910
sbsg383
(i__main__
DelphiIdentAccess
p7911
(dp7912
g357
S'result'
p7913
sg348
(lp7914
sbsbsbsg516
(lp7915
(i__main__
DelphiIdentAccess
p7916
(dp7917
g357
S'kPistils'
p7918
sg348
(lp7919
sbasba(idelphi
DelphiCaseSelector
p7920
(dp7921
g488
(idelphi
DelphiIfStatement
p7922
(dp7923
g345
(i__main__
DelphiIdentAccess
p7924
(dp7925
g357
S'line'
p7926
sg348
(lp7927
sbsg368
(i__main__
DelphiAssignStatement
p7928
(dp7929
g375
(i__main__
DelphiIdentAccess
p7930
(dp7931
g357
S'kExportPartAntherFemale'
p7932
sg348
(lp7933
sbsg383
(i__main__
DelphiIdentAccess
p7934
(dp7935
g357
S'result'
p7936
sg348
(lp7937
sbsbsg369
(i__main__
DelphiAssignStatement
p7938
(dp7939
g375
(i__main__
DelphiIdentAccess
p7940
(dp7941
g357
S'kExportPartFilamentFemale'
p7942
sg348
(lp7943
sbsg383
(i__main__
DelphiIdentAccess
p7944
(dp7945
g357
S'result'
p7946
sg348
(lp7947
sbsbsbsg516
(lp7948
(i__main__
DelphiIdentAccess
p7949
(dp7950
g357
S'kStamens'
p7951
sg348
(lp7952
sbasba(idelphi
DelphiCaseSelector
p7953
(dp7954
g488
(i__main__
DelphiAssignStatement
p7955
(dp7956
g375
(i__main__
DelphiIdentAccess
p7957
(dp7958
g357
S'kExportPartFirstPetalsFemale'
p7959
sg348
(lp7960
sbsg383
(i__main__
DelphiIdentAccess
p7961
(dp7962
g357
S'result'
p7963
sg348
(lp7964
sbsbsg516
(lp7965
(i__main__
DelphiIdentAccess
p7966
(dp7967
g357
S'kFirstPetals'
p7968
sg348
(lp7969
sbasba(idelphi
DelphiCaseSelector
p7970
(dp7971
g488
(i__main__
DelphiAssignStatement
p7972
(dp7973
g375
(i__main__
DelphiIdentAccess
p7974
(dp7975
g357
S'kExportPartSecondPetalsFemale'
p7976
sg348
(lp7977
sbsg383
(i__main__
DelphiIdentAccess
p7978
(dp7979
g357
S'result'
p7980
sg348
(lp7981
sbsbsg516
(lp7982
(i__main__
DelphiIdentAccess
p7983
(dp7984
g357
S'kSecondPetals'
p7985
sg348
(lp7986
sbasba(idelphi
DelphiCaseSelector
p7987
(dp7988
g488
(i__main__
DelphiAssignStatement
p7989
(dp7990
g375
(i__main__
DelphiIdentAccess
p7991
(dp7992
g357
S'kExportPartThirdPetalsFemale'
p7993
sg348
(lp7994
sbsg383
(i__main__
DelphiIdentAccess
p7995
(dp7996
g357
S'result'
p7997
sg348
(lp7998
sbsbsg516
(lp7999
(i__main__
DelphiIdentAccess
p8000
(dp8001
g357
S'kThirdPetals'
p8002
sg348
(lp8003
sbasba(idelphi
DelphiCaseSelector
p8004
(dp8005
g488
(i__main__
DelphiAssignStatement
p8006
(dp8007
g375
(i__main__
DelphiIdentAccess
p8008
(dp8009
g357
S'kExportPartFourthPetalsFemale'
p8010
sg348
(lp8011
sbsg383
(i__main__
DelphiIdentAccess
p8012
(dp8013
g357
S'result'
p8014
sg348
(lp8015
sbsbsg516
(lp8016
(i__main__
DelphiIdentAccess
p8017
(dp8018
g357
S'kFourthPetals'
p8019
sg348
(lp8020
sbasba(idelphi
DelphiCaseSelector
p8021
(dp8022
g488
(i__main__
DelphiAssignStatement
p8023
(dp8024
g375
(i__main__
DelphiIdentAccess
p8025
(dp8026
g357
S'kExportPartFifthPetalsFemale'
p8027
sg348
(lp8028
sbsg383
(i__main__
DelphiIdentAccess
p8029
(dp8030
g357
S'result'
p8031
sg348
(lp8032
sbsbsg516
(lp8033
(i__main__
DelphiIdentAccess
p8034
(dp8035
g357
S'kFifthPetals'
p8036
sg348
(lp8037
sbasba(idelphi
DelphiCaseSelector
p8038
(dp8039
g488
(i__main__
DelphiAssignStatement
p8040
(dp8041
g375
(i__main__
DelphiIdentAccess
p8042
(dp8043
g357
S'kExportPartSepalsFemale'
p8044
sg348
(lp8045
sbsg383
(i__main__
DelphiIdentAccess
p8046
(dp8047
g357
S'result'
p8048
sg348
(lp8049
sbsbsg516
(lp8050
(i__main__
DelphiIdentAccess
p8051
(dp8052
g357
S'kSepals'
p8053
sg348
(lp8054
sbasbasbasbsg1174
(lp8055
sbsbsS'classandversioninformation'
p8056
(i__main__
DelphiMethodImplementation
p8057
(dp8058
g321
g257
sg19
g259
sg27
(lp8059
(i__main__
DelphiFormalParameter
p8060
(dp8061
g41
Nsg42
(lp8062
S'cvir'
p8063
asg45
(i__main__
DelphiNamedType
p8064
(dp8065
g48
S'PdClassAndVersionInformationRecord'
p8066
sg50
g1
sg51
Nsbsg52
g268
sbasg323
(lp8067
sg325
(lp8068
g8063
asg327
(lp8069
g329
ag8063
asg330
(dp8070
g8063
g8064
ssg29
S'PdFlowerFruit'
p8071
sg30
Nsg333
(lp8072
sg31
I0
sg32
g33
sg335
(i__main__
DelphiBlock
p8073
(dp8074
g338
(idelphi
DelphiCompoundStatement
p8075
(dp8076
g341
(lp8077
(i__main__
DelphiAssignStatement
p8078
(dp8079
g375
(i__main__
DelphiIdentAccess
p8080
(dp8081
g357
S'kPdFlowerFruit'
p8082
sg348
(lp8083
sbsg383
(i__main__
DelphiIdentAccess
p8084
(dp8085
g357
S'cvir'
p8086
sg348
(lp8087
(idelphi
DelphiFieldEndAccess
p8088
(dp8089
g362
S'classNumber'
p8090
sbasbsba(i__main__
DelphiAssignStatement
p8091
(dp8092
g375
(idelphi
DelphiIntegerValue
p8093
(dp8094
g72
S'0'
sbsg383
(i__main__
DelphiIdentAccess
p8095
(dp8096
g357
S'cvir'
p8097
sg348
(lp8098
(idelphi
DelphiFieldEndAccess
p8099
(dp8100
g362
S'versionNumber'
p8101
sbasbsba(i__main__
DelphiAssignStatement
p8102
(dp8103
g375
(idelphi
DelphiIntegerValue
p8104
(dp8105
g72
S'0'
sbsg383
(i__main__
DelphiIdentAccess
p8106
(dp8107
g357
S'cvir'
p8108
sg348
(lp8109
(idelphi
DelphiFieldEndAccess
p8110
(dp8111
g362
S'additionNumber'
p8112
sbasbsbasbsg1174
(lp8113
sbsbsS'trianglecountinfloralparts'
p8114
(i__main__
DelphiMethodImplementation
p8115
(dp8116
g321
g270
sg19
g272
sg27
(lp8117
sg323
(lp8118
sg325
(lp8119
sg327
(lp8120
g329
asg330
(dp8121
sg29
S'PdFlowerFruit'
p8122
sg30
(i__main__
DelphiPrimitiveType
p8123
(dp8124
g48
g81
sbsg333
(lp8125
sg31
I0
sg32
g73
sg335
(i__main__
DelphiBlock
p8126
(dp8127
g338
(idelphi
DelphiCompoundStatement
p8128
(dp8129
g341
(lp8130
(i__main__
DelphiAssignStatement
p8131
(dp8132
g375
(idelphi
DelphiIntegerValue
p8133
(dp8134
g72
S'0'
sbsg383
(i__main__
DelphiIdentAccess
p8135
(dp8136
g357
S'result'
p8137
sg348
(lp8138
sbsba(idelphi
DelphiForStatement
p8139
(dp8140
g1222
S'partType'
p8141
sg1224
(i__main__
DelphiIdentAccess
p8142
(dp8143
g357
S'kSepals'
p8144
sg348
(lp8145
sbsg1229
g1230
sg41
(i__main__
DelphiIdentAccess
p8146
(dp8147
g357
S'kPistils'
p8148
sg348
(lp8149
sbsg488
(idelphi
DelphiWithStatement
p8150
(dp8151
g488
(idelphi
DelphiIfStatement
p8152
(dp8153
g345
(idelphi
DelphiRelOp
p8154
(dp8155
g354
(i__main__
DelphiIdentAccess
p8156
(dp8157
g357
S'scaleAtFullSize'
p8158
sg348
(lp8159
sbsg364
(idelphi
DelphiIntegerValue
p8160
(dp8161
g72
S'0'
sbsg367
S'>'
sbsg368
Nsg369
(idelphi
DelphiCompoundStatement
p8162
(dp8163
g341
(lp8164
(idelphi
DelphiIfStatement
p8165
(dp8166
g345
(idelphi
DelphiRelOp
p8167
(dp8168
g354
(i__main__
DelphiIdentAccess
p8169
(dp8170
g357
S'partType'
p8171
sg348
(lp8172
sbsg364
(i__main__
DelphiIdentAccess
p8173
(dp8174
g357
S'kPistils'
p8175
sg348
(lp8176
sbsg367
S'='
sbsg368
(idelphi
DelphiIfStatement
p8177
(dp8178
g345
(idelphi
DelphiRelOp
p8179
(dp8180
g354
(i__main__
DelphiIdentAccess
p8181
(dp8182
g357
S'partType'
p8183
sg348
(lp8184
sbsg364
(i__main__
DelphiIdentAccess
p8185
(dp8186
g357
S'kStamens'
p8187
sg348
(lp8188
sbsg367
S'='
sbsg368
(i__main__
DelphiAssignStatement
p8189
(dp8190
g375
(idelphi
DelphiAddOp
p8191
(dp8192
g2537
S'+'
sg2539
(idelphi
DelphiMulOp
p8193
(dp8194
g537
(i__main__
DelphiIdentAccess
p8195
(dp8196
g357
S'repetitions'
p8197
sg348
(lp8198
sbsg542
S'*'
sg543
(i__main__
DelphiIdentAccess
p8199
(dp8200
g357
S'object3D'
p8201
sg348
(lp8202
(idelphi
DelphiFieldEndAccess
p8203
(dp8204
g362
S'triangles'
p8205
sba(idelphi
DelphiFieldEndAccess
p8206
(dp8207
g362
S'count'
p8208
sbasbsbsg2554
(i__main__
DelphiIdentAccess
p8209
(dp8210
g357
S'result'
p8211
sg348
(lp8212
sbsbsg383
(i__main__
DelphiIdentAccess
p8213
(dp8214
g357
S'result'
p8215
sg348
(lp8216
sbsbsg369
(i__main__
DelphiAssignStatement
p8217
(dp8218
g375
(idelphi
DelphiAddOp
p8219
(dp8220
g2537
S'+'
sg2539
(idelphi
DelphiMulOp
p8221
(dp8222
g537
(i__main__
DelphiIdentAccess
p8223
(dp8224
g357
S'plant'
p8225
sg348
(lp8226
(idelphi
DelphiFieldEndAccess
p8227
(dp8228
g362
S'pFlower'
p8229
sba(idelphi
DelphiArrayEndAccess
p8230
(dp8231
g350
(lp8232
(i__main__
DelphiIdentAccess
p8233
(dp8234
g357
S'gender'
p8235
sg348
(lp8236
sbasba(idelphi
DelphiFieldEndAccess
p8237
(dp8238
g362
S'numStamens'
p8239
sbasbsg542
S'*'
sg543
(idelphi
DelphiMulOp
p8240
(dp8241
g537
(i__main__
DelphiIdentAccess
p8242
(dp8243
g357
S'repetitions'
p8244
sg348
(lp8245
sbsg542
S'*'
sg543
(i__main__
DelphiIdentAccess
p8246
(dp8247
g357
S'object3D'
p8248
sg348
(lp8249
(idelphi
DelphiFieldEndAccess
p8250
(dp8251
g362
S'triangles'
p8252
sba(idelphi
DelphiFieldEndAccess
p8253
(dp8254
g362
S'count'
p8255
sbasbsbsbsg2554
(i__main__
DelphiIdentAccess
p8256
(dp8257
g357
S'result'
p8258
sg348
(lp8259
sbsbsg383
(i__main__
DelphiIdentAccess
p8260
(dp8261
g357
S'result'
p8262
sg348
(lp8263
sbsbsbsg369
(i__main__
DelphiAssignStatement
p8264
(dp8265
g375
(idelphi
DelphiAddOp
p8266
(dp8267
g2537
S'+'
sg2539
(idelphi
DelphiMulOp
p8268
(dp8269
g537
(i__main__
DelphiIdentAccess
p8270
(dp8271
g357
S'plant'
p8272
sg348
(lp8273
(idelphi
DelphiFieldEndAccess
p8274
(dp8275
g362
S'pFlower'
p8276
sba(idelphi
DelphiArrayEndAccess
p8277
(dp8278
g350
(lp8279
(i__main__
DelphiIdentAccess
p8280
(dp8281
g357
S'gender'
p8282
sg348
(lp8283
sbasba(idelphi
DelphiFieldEndAccess
p8284
(dp8285
g362
S'numPistils'
p8286
sbasbsg542
S'*'
sg543
(idelphi
DelphiMulOp
p8287
(dp8288
g537
(i__main__
DelphiIdentAccess
p8289
(dp8290
g357
S'repetitions'
p8291
sg348
(lp8292
sbsg542
S'*'
sg543
(i__main__
DelphiIdentAccess
p8293
(dp8294
g357
S'object3D'
p8295
sg348
(lp8296
(idelphi
DelphiFieldEndAccess
p8297
(dp8298
g362
S'triangles'
p8299
sba(idelphi
DelphiFieldEndAccess
p8300
(dp8301
g362
S'count'
p8302
sbasbsbsbsg2554
(i__main__
DelphiIdentAccess
p8303
(dp8304
g357
S'result'
p8305
sg348
(lp8306
sbsbsg383
(i__main__
DelphiIdentAccess
p8307
(dp8308
g357
S'result'
p8309
sg348
(lp8310
sbsbsbasbsbsg684
(lp8311
(i__main__
DelphiIdentAccess
p8312
(dp8313
g357
S'plant'
p8314
sg348
(lp8315
(idelphi
DelphiFieldEndAccess
p8316
(dp8317
g362
S'pFlower'
p8318
sba(idelphi
DelphiArrayEndAccess
p8319
(dp8320
g350
(lp8321
(i__main__
DelphiIdentAccess
p8322
(dp8323
g357
S'gender'
p8324
sg348
(lp8325
sbasba(idelphi
DelphiFieldEndAccess
p8326
(dp8327
g362
S'tdoParams'
p8328
sba(idelphi
DelphiArrayEndAccess
p8329
(dp8330
g350
(lp8331
(i__main__
DelphiIdentAccess
p8332
(dp8333
g357
S'partType'
p8334
sg348
(lp8335
sbasbasbasbsbasbsg1174
(lp8336
(i__main__
DelphiVarSection
p8337
(dp8338
g1178
I0
sg1179
(lp8339
(idelphi
DelphiVarDecl
p8340
(dp8341
g1183
Nsg1184
(lp8342
S'partType'
p8343
asg45
(i__main__
DelphiPrimitiveType
p8344
(dp8345
g48
g81
sbsbasbasbsbssS'propertyDeclarations'
p8346
(dp8347
sS'variableNamesInDeclaredOrder'
p8348
(lp8349
g18
ag12
ag10
ag16
ag14
asg513
(lp8350
S'  kBud = 0; kPistil = 1; kStamens = 2; kFirstPetals = 3; kSecondPetals = 4; kThirdPetals = 5; kSepals = 6;\r'
p8351
asba(i__main__
DelphiConstSection
p8352
(dp8353
S'constDeclList'
p8354
(lp8355
(idelphi
DelphiConstDeclaration
p8356
(dp8357
g1183
(i__main__
DelphiIdentAccess
p8358
(dp8359
g357
S'true'
p8360
sg348
(lp8361
sbsg357
S'kDrawFlowerAsOpening'
p8362
sg45
(idelphi
DelphiPrimitiveType
p8363
(dp8364
g48
S'UNDEFINED_NEEDS_CALCULATION'
p8365
sbsba(idelphi
DelphiConstDeclaration
p8366
(dp8367
g1183
(i__main__
DelphiIdentAccess
p8368
(dp8369
g357
S'false'
p8370
sg348
(lp8371
sbsg357
S'kDontDrawFlowerAsOpening'
p8372
sg45
(idelphi
DelphiPrimitiveType
p8373
(dp8374
g48
g8365
sbsba(idelphi
DelphiConstDeclaration
p8375
(dp8376
g1183
(i__main__
DelphiIdentAccess
p8377
(dp8378
g357
S'true'
p8379
sg348
(lp8380
sbsg357
S'kLine'
p8381
sg45
(idelphi
DelphiPrimitiveType
p8382
(dp8383
g48
g8365
sbsba(idelphi
DelphiConstDeclaration
p8384
(dp8385
g1183
(i__main__
DelphiIdentAccess
p8386
(dp8387
g357
S'false'
p8388
sg348
(lp8389
sbsg357
S'kNotLine'
p8390
sg45
(idelphi
DelphiPrimitiveType
p8391
(dp8392
g48
g8365
sbsbasg1178
I1
sba(i__main__
DelphiConstSection
p8393
(dp8394
g8354
(lp8395
(idelphi
DelphiConstDeclaration
p8396
(dp8397
g1183
(i__main__
DelphiIdentAccess
p8398
(dp8399
g357
S'true'
p8400
sg348
(lp8401
sbsg357
S'kDrawTDOOpen'
p8402
sg45
(idelphi
DelphiPrimitiveType
p8403
(dp8404
g48
g8365
sbsba(idelphi
DelphiConstDeclaration
p8405
(dp8406
g1183
(i__main__
DelphiIdentAccess
p8407
(dp8408
g357
S'false'
p8409
sg348
(lp8410
sbsg357
S'kDrawTDOClosed'
p8411
sg45
(idelphi
DelphiPrimitiveType
p8412
(dp8413
g48
g8365
sbsbasg1178
I1
sbasS'includedUnits'
p8414
NsS'implementationUses'
p8415
(lp8416
S'SysUtils'
p8417
aS'Dialogs'
p8418
aS'Classes'
p8419
aS'udebug'
p8420
aS'usupport'
p8421
aS'uturtle'
p8422
aS'u3dexport'
p8423
aS'uclasses'
p8424
asg19
S'ufruit'
p8425
sS'constSections'
p8426
(lp8427
g8352
ag8393
asS'globalsInProperCase'
p8428
NsS'interfaceUses'
p8429
(lp8430
S'delphi_compatability'
p8431
aS'WinProcs'
p8432
aS'WinTypes'
p8433
aS'upart'
p8434
aS'umath'
p8435
aS'uplant'
p8436
aS'utdo'
p8437
aS'ufiler'
p8438
aS'utravers'
p8439
asS'finalCommentToken'
p8440
(i__main__
PassStatement
p8441
(dp8442
g1174
(lp8443
sg513
(lp8444
S' cfk remember this '
p8445
aS' ---------------------------------------------------------------------- wilting/falling down '
p8446
aS'procedure PdFlowerFruit.dragDownFromWeight;\r'
p8447
aS'  begin\r'
p8448
aS'  end; '
p8449
aS'procedure PdFlowerFruit.dragDownFromWeight;\r'
p8450
aS'  var\r'
p8451
aS'    fractionOfOptimalFruitWeight_frn: single;\r'
p8452
aS'    angle: integer;\r'
p8453
aS'  begin\r'
p8454
aS'  if (plant.turtle = nil) then exit;'
p8455
aS'  fractionOfOptimalFruitWeight_frn := safedivExcept(liveBiomass_pctMPB, plant.pFruit.optimalBiomass_pctMPB, 0.0);'
p8456
aS'  angle := round(abs(plant.turtle.angleZ + 32) * fractionOfOptimalFruitWeight_frn'
p8457
aS'      * min(1.0, max(0.0, 100 - plant.pFruit.stalkStrengthIndex) / 100.0));'
p8458
aS'  angle := -angle;'
p8459
aS'  if plant.turtle.angleZ > -32 then'
p8460
aS'    angle := -angle;'
p8461
aS'  plant.turtle.rotateZ(angle);'
p8462
aS'  end;  '
p8463
asbsS'varSections'
p8464
(lp8465
sS'globals'
p8466
NsS'originalFileName'
p8467
S'../../PlantStudioInPython/converted_source/used/ufruit.pas'
p8468
sS'proceduralImplementations'
p8469
(dp8470
sS'fileName'
p8471
S'/Users/pdf/Documents/workspace/PlantStudioInPython/converted_source/used/ufruit.pas'
p8472
sS'proceduralDeclarations'
p8473
(dp8474
sS'types'
p8475
(dp8476
S'pdflowerfruit'
p8477
g5
ssb.