(i__main__
DelphiUnit
p1
(dp2
S'sectionsInOrderDefined'
p3
(lp4
(i__main__
DelphiClass
p5
(dp6
S'variableNamesInProperCase'
p7
(dp8
S'secondparent'
p9
S'secondParent'
p10
sS'firstparent'
p11
S'firstParent'
p12
sS'plants'
p13
S'plants'
p14
sS'selectedplants'
p15
S'selectedPlants'
p16
ssS'name'
p17
S'PdGeneration'
p18
sS'methodDeclarations'
p19
(dp20
S'selectplant'
p21
(i__main__
DelphiMethodDeclaration
p22
(dp23
g17
S'selectPlant'
p24
sS'formalParameters'
p25
(lp26
(i__main__
DelphiFormalParameter
p27
(dp28
S'initialValue'
p29
NsS'names'
p30
(lp31
S'aPlant'
p32
asS'theType'
p33
(i__main__
DelphiNamedType
p34
(dp35
S'typeName'
p36
S'PdPlant'
p37
sS'unitDefinedIn'
p38
g1
sS'unitName'
p39
NsbsS'parameterVariety'
p40
Nsba(i__main__
DelphiFormalParameter
p41
(dp42
g29
Nsg30
(lp43
S'shift'
p44
asg33
(i__main__
DelphiPrimitiveType
p45
(dp46
g36
S'boolean'
p47
sbsg40
NsbasS'className'
p48
g18
sS'resultType'
p49
NsS'isClassMethod'
p50
I0
sS'methodType'
p51
S'procedure'
p52
sbsS'secondselectedplant'
p53
(i__main__
DelphiMethodDeclaration
p54
(dp55
g17
S'secondSelectedPlant'
p56
sg25
(lp57
sg48
g18
sg49
(i__main__
DelphiNamedType
p58
(dp59
g36
S'PdPlant'
p60
sg38
g1
sg39
Nsbsg50
I0
sg51
S'function'
p61
sbsS'createwithparents'
p62
(i__main__
DelphiMethodDeclaration
p63
(dp64
g17
S'createWithParents'
p65
sg25
(lp66
(i__main__
DelphiFormalParameter
p67
(dp68
g29
Nsg30
(lp69
S'parentOne'
p70
aS'parentTwo'
p71
asg33
(i__main__
DelphiNamedType
p72
(dp73
g36
S'PdPlant'
p74
sg38
g1
sg39
Nsbsg40
Nsba(i__main__
DelphiFormalParameter
p75
(dp76
g29
Nsg30
(lp77
S'fractionOfMaxAge'
p78
asg33
(i__main__
DelphiPrimitiveType
p79
(dp80
g36
S'single'
p81
sbsg40
Nsbasg48
g18
sg49
Nsg50
I0
sg51
S'constructor'
p82
sbsS'create'
p83
(i__main__
DelphiMethodDeclaration
p84
(dp85
g17
S'create'
p86
sg25
(lp87
sg48
g18
sg49
Nsg50
I0
sg51
g82
sbsS'breedfromparents'
p88
(i__main__
DelphiMethodDeclaration
p89
(dp90
g17
S'breedFromParents'
p91
sg25
(lp92
(i__main__
DelphiFormalParameter
p93
(dp94
g29
Nsg30
(lp95
S'aFirstParent'
p96
aS'aSecondParent'
p97
asg33
(i__main__
DelphiNamedType
p98
(dp99
g36
S'PdPlant'
p100
sg38
g1
sg39
Nsbsg40
Nsba(i__main__
DelphiFormalParameter
p101
(dp102
g29
Nsg30
(lp103
S'fractionOfMaxAge'
p104
asg33
(i__main__
DelphiPrimitiveType
p105
(dp106
g36
g81
sbsg40
Nsbasg48
g18
sg49
Nsg50
I0
sg51
g52
sbsS'deselectallplants'
p107
(i__main__
DelphiMethodDeclaration
p108
(dp109
g17
S'deselectAllPlants'
p110
sg25
(lp111
sg48
g18
sg49
Nsg50
I0
sg51
g52
sbsS'replaceplant'
p112
(i__main__
DelphiMethodDeclaration
p113
(dp114
g17
S'replacePlant'
p115
sg25
(lp116
(i__main__
DelphiFormalParameter
p117
(dp118
g29
Nsg30
(lp119
S'oldPlant'
p120
aS'newPlant'
p121
asg33
(i__main__
DelphiNamedType
p122
(dp123
g36
S'PdPlant'
p124
sg38
g1
sg39
Nsbsg40
Nsbasg48
g18
sg49
Nsg50
I0
sg51
g52
sbsS'firstselectedplant'
p125
(i__main__
DelphiMethodDeclaration
p126
(dp127
g17
S'firstSelectedPlant'
p128
sg25
(lp129
sg48
g18
sg49
(i__main__
DelphiNamedType
p130
(dp131
g36
S'PdPlant'
p132
sg38
g1
sg39
Nsbsg50
I0
sg51
g61
sbsS'plantforindex'
p133
(i__main__
DelphiMethodDeclaration
p134
(dp135
g17
S'plantForIndex'
p136
sg25
(lp137
(i__main__
DelphiFormalParameter
p138
(dp139
g29
Nsg30
(lp140
S'index'
p141
asg33
(i__main__
DelphiPrimitiveType
p142
(dp143
g36
S'smallint'
p144
sbsg40
Nsbasg48
g18
sg49
(i__main__
DelphiNamedType
p145
(dp146
g36
S'PdPlant'
p147
sg38
g1
sg39
Nsbsg50
I0
sg51
g61
sbsS'destroy'
p148
(i__main__
DelphiMethodDeclaration
p149
(dp150
g17
S'destroy'
p151
sg25
(lp152
sg48
g18
sg49
Nsg50
I0
sg51
S'destructor'
p153
sbsS'setlocaloptionstodomainoptions'
p154
(i__main__
DelphiMethodDeclaration
p155
(dp156
g17
S'setLocalOptionsToDomainOptions'
p157
sg25
(lp158
(i__main__
DelphiFormalParameter
p159
(dp160
g29
Nsg30
(lp161
S'localOptions'
p162
asg33
(i__main__
DelphiNamedType
p163
(dp164
g36
S'BreedingAndTimeSeriesOptionsStructure'
p165
sg38
g1
sg39
Nsbsg40
S'var'
p166
sbasg48
g18
sg49
Nsg50
I0
sg51
g52
sbssS'superclassNamedTypes'
p167
(lp168
(i__main__
DelphiNamedType
p169
(dp170
g36
S'TObject'
p171
sg38
g1
sg39
NsbasS'variableNames'
p172
(dp173
S'secondparent'
p174
(i__main__
DelphiNamedType
p175
(dp176
g36
S'PdPlant'
p177
sg38
g1
sg39
NsbsS'firstparent'
p178
g175
sS'plants'
p179
(i__main__
DelphiNamedType
p180
(dp181
g36
S'TListCollection'
p182
sg38
g1
sg39
NsbsS'selectedplants'
p183
(i__main__
DelphiNamedType
p184
(dp185
g36
S'TList'
p186
sg38
g1
sg39
NsbssS'methodNamesInDefinedOrder'
p187
(lp188
S'create'
p189
aS'destroy'
p190
aS'createwithparents'
p191
aS'selectplant'
p192
aS'deselectallplants'
p193
aS'firstselectedplant'
p194
aS'secondselectedplant'
p195
aS'breedfromparents'
p196
aS'setlocaloptionstodomainoptions'
p197
aS'plantforindex'
p198
aS'replaceplant'
p199
asS'methodImplementations'
p200
(dp201
S'selectplant'
p202
(i__main__
DelphiMethodImplementation
p203
(dp204
S'originalDeclaration'
p205
g22
sg17
g24
sg25
(lp206
(i__main__
DelphiFormalParameter
p207
(dp208
g29
Nsg30
(lp209
S'aPlant'
p210
asg33
(i__main__
DelphiNamedType
p211
(dp212
g36
S'PdPlant'
p213
sg38
g1
sg39
Nsbsg40
Nsba(i__main__
DelphiFormalParameter
p214
(dp215
g29
Nsg30
(lp216
S'shift'
p217
asg33
(i__main__
DelphiPrimitiveType
p218
(dp219
g36
g47
sbsg40
NsbasS'varParamIndexes'
p220
(lp221
sS'varParamsSkipped'
p222
(lp223
sS'argNames'
p224
(lp225
S'self'
p226
ag210
ag217
asS'argTypes'
p227
(dp228
g217
g218
sg210
g211
ssg48
S'PdGeneration'
p229
sg49
NsS'varParamNames'
p230
(lp231
sg50
I0
sg51
g52
sS'block'
p232
(i__main__
DelphiBlock
p233
(dp234
S'compoundStatement'
p235
(idelphi
DelphiCompoundStatement
p236
(dp237
S'statements'
p238
(lp239
(idelphi
DelphiIfStatement
p240
(dp241
S'expression'
p242
(i__main__
DelphiIdentAccess
p243
(dp244
S'ident'
p245
S'shift'
p246
sS'endAccessList'
p247
(lp248
sbsS'ifFalseStatement'
p249
(idelphi
DelphiCompoundStatement
p250
(dp251
g238
(lp252
(i__main__
DelphiAssignStatement
p253
(dp254
S'newValueExpression'
p255
NsS'destinationExpression'
p256
(i__main__
DelphiIdentAccess
p257
(dp258
g245
S'selectedPlants'
p259
sg247
(lp260
(idelphi
DelphiFieldEndAccess
p261
(dp262
S'field'
p263
S'clear'
p264
sbasbsba(i__main__
DelphiAssignStatement
p265
(dp266
g255
Nsg256
(i__main__
DelphiIdentAccess
p267
(dp268
g245
S'selectedPlants'
p269
sg247
(lp270
(idelphi
DelphiFieldEndAccess
p271
(dp272
g263
S'add'
p273
sba(idelphi
DelphiFunctionEndAccess
p274
(dp275
S'expressionList'
p276
(lp277
(i__main__
DelphiIdentAccess
p278
(dp279
g245
S'aPlant'
p280
sg247
(lp281
sbasbasbsbasbsS'ifTrueStatement'
p282
(i__main__
DelphiAssignStatement
p283
(dp284
g255
Nsg256
(i__main__
DelphiIdentAccess
p285
(dp286
g245
S'selectedPlants'
p287
sg247
(lp288
(idelphi
DelphiFieldEndAccess
p289
(dp290
g263
S'add'
p291
sba(idelphi
DelphiFunctionEndAccess
p292
(dp293
g276
(lp294
(i__main__
DelphiIdentAccess
p295
(dp296
g245
S'aPlant'
p297
sg247
(lp298
sbasbasbsbsbasbsS'limitedDeclSectionList'
p299
(lp300
sbsbsS'secondselectedplant'
p301
(i__main__
DelphiMethodImplementation
p302
(dp303
g205
g54
sg17
g56
sg25
(lp304
sg220
(lp305
sg222
(lp306
sg224
(lp307
g226
asg227
(dp308
sg48
S'PdGeneration'
p309
sg49
(i__main__
DelphiNamedType
p310
(dp311
g36
S'PdPlant'
p312
sg38
g1
sg39
Nsbsg230
(lp313
sg50
I0
sg51
g61
sg232
(i__main__
DelphiBlock
p314
(dp315
g235
(idelphi
DelphiCompoundStatement
p316
(dp317
g238
(lp318
(i__main__
DelphiAssignStatement
p319
(dp320
g255
(idelphi
DelphiNilValue
p321
(dp322
bsg256
(i__main__
DelphiIdentAccess
p323
(dp324
g245
S'result'
p325
sg247
(lp326
sbsba(idelphi
DelphiIfStatement
p327
(dp328
g242
(idelphi
DelphiRelOp
p329
(dp330
S'simpleExpression1'
p331
(i__main__
DelphiIdentAccess
p332
(dp333
g245
S'selectedPlants'
p334
sg247
(lp335
(idelphi
DelphiFieldEndAccess
p336
(dp337
g263
S'count'
p338
sbasbsS'simpleExpression2'
p339
(idelphi
DelphiIntegerValue
p340
(dp341
S'string'
p342
S'1'
sbsS'relOp'
p343
S'>'
sbsg249
Nsg282
(i__main__
DelphiAssignStatement
p344
(dp345
g255
(i__main__
DelphiIdentAccess
p346
(dp347
g245
S'PdPlant'
p348
sg247
(lp349
(idelphi
DelphiFunctionEndAccess
p350
(dp351
g276
(lp352
(i__main__
DelphiIdentAccess
p353
(dp354
g245
S'selectedPlants'
p355
sg247
(lp356
(idelphi
DelphiFieldEndAccess
p357
(dp358
g263
S'items'
p359
sba(idelphi
DelphiArrayEndAccess
p360
(dp361
g276
(lp362
(idelphi
DelphiIntegerValue
p363
(dp364
g342
S'1'
sbasbasbasbasbsg256
(i__main__
DelphiIdentAccess
p365
(dp366
g245
S'result'
p367
sg247
(lp368
sbsbsbasbsg299
(lp369
sbsbsS'createwithparents'
p370
(i__main__
DelphiMethodImplementation
p371
(dp372
g205
g63
sg17
g65
sg25
(lp373
(i__main__
DelphiFormalParameter
p374
(dp375
g29
Nsg30
(lp376
S'parentOne'
p377
aS'parentTwo'
p378
asg33
(i__main__
DelphiNamedType
p379
(dp380
g36
S'PdPlant'
p381
sg38
g1
sg39
Nsbsg40
Nsba(i__main__
DelphiFormalParameter
p382
(dp383
g29
Nsg30
(lp384
S'fractionOfMaxAge'
p385
asg33
(i__main__
DelphiPrimitiveType
p386
(dp387
g36
g81
sbsg40
Nsbasg220
(lp388
sg222
(lp389
sg224
(lp390
g226
ag377
ag378
ag385
asg227
(dp391
g377
g379
sg385
g386
sg378
g379
ssg48
S'PdGeneration'
p392
sg49
Nsg230
(lp393
sg50
I0
sg51
g82
sg232
(i__main__
DelphiBlock
p394
(dp395
g235
(idelphi
DelphiCompoundStatement
p396
(dp397
g238
(lp398
(i__main__
DelphiAssignStatement
p399
(dp400
g255
Nsg256
(i__main__
DelphiIdentAccess
p401
(dp402
g245
S'self'
p403
sg247
(lp404
(idelphi
DelphiFieldEndAccess
p405
(dp406
g263
S'create'
p407
sbasbsS'commentLinesBefore'
p408
(lp409
S' note: this is only used right now in the PdBreedFromParentsCommand command, so some things might not\r'
p410
aS'    fit other situations. if you need to use it somewhere else, check that you want to do everything that\r'
p411
aS'    is done here. '
p412
asba(idelphi
DelphiIfStatement
p413
(dp414
g242
(idelphi
DelphiRelOp
p415
(dp416
g331
(i__main__
DelphiIdentAccess
p417
(dp418
g245
S'parentOne'
p419
sg247
(lp420
sbsg339
(idelphi
DelphiNilValue
p421
(dp422
bsg343
S'<>'
p423
sbsg249
Nsg282
(idelphi
DelphiCompoundStatement
p424
(dp425
g238
(lp426
(i__main__
DelphiAssignStatement
p427
(dp428
g255
(i__main__
DelphiIdentAccess
p429
(dp430
g245
S'PdPlant'
p431
sg247
(lp432
(idelphi
DelphiFieldEndAccess
p433
(dp434
g263
S'create'
p435
sbasbsg256
(i__main__
DelphiIdentAccess
p436
(dp437
g245
S'newPlant'
p438
sg247
(lp439
sbsba(idelphi
DelphiIfStatement
p440
(dp441
g242
(idelphi
DelphiRelOp
p442
(dp443
g331
(i__main__
DelphiIdentAccess
p444
(dp445
g245
S'newPlant'
p446
sg247
(lp447
sbsg339
(idelphi
DelphiNilValue
p448
(dp449
bsg343
S'='
sbsg249
Nsg282
(i__main__
DelphiExitStatement
p450
(dp451
S'proceduralOrMethodImplementation'
p452
g371
sbsba(i__main__
DelphiAssignStatement
p453
(dp454
g255
Nsg256
(i__main__
DelphiIdentAccess
p455
(dp456
g245
S'parentOne'
p457
sg247
(lp458
(idelphi
DelphiFieldEndAccess
p459
(dp460
g263
S'copyTo'
p461
sba(idelphi
DelphiFunctionEndAccess
p462
(dp463
g276
(lp464
(i__main__
DelphiIdentAccess
p465
(dp466
g245
S'newPlant'
p467
sg247
(lp468
sbasbasbsba(i__main__
DelphiAssignStatement
p469
(dp470
g255
Nsg256
(i__main__
DelphiIdentAccess
p471
(dp472
g245
S'newPlant'
p473
sg247
(lp474
(idelphi
DelphiFieldEndAccess
p475
(dp476
g263
S'removeAllAmendments'
p477
sbasbsg408
(lp478
S' v2.0\r'
p479
asba(i__main__
DelphiAssignStatement
p480
(dp481
g255
Nsg256
(i__main__
DelphiIdentAccess
p482
(dp483
g245
S'newPlant'
p484
sg247
(lp485
(idelphi
DelphiFieldEndAccess
p486
(dp487
g263
S'setAge'
p488
sba(idelphi
DelphiFunctionEndAccess
p489
(dp490
g276
(lp491
(i__main__
DelphiIdentAccess
p492
(dp493
g245
S'round'
p494
sg247
(lp495
(idelphi
DelphiFunctionEndAccess
p496
(dp497
g276
(lp498
(idelphi
DelphiMulOp
p499
(dp500
S'signedFactor2'
p501
(i__main__
DelphiIdentAccess
p502
(dp503
g245
S'fractionOfMaxAge'
p504
sg247
(lp505
sbsS'mulOp'
p506
S'*'
sS'signedFactor1'
p507
(i__main__
DelphiIdentAccess
p508
(dp509
g245
S'newPlant'
p510
sg247
(lp511
(idelphi
DelphiFieldEndAccess
p512
(dp513
g263
S'pGeneral'
p514
sba(idelphi
DelphiFieldEndAccess
p515
(dp516
g263
S'ageAtMaturity'
p517
sbasbsbasbasbasbasbsba(i__main__
DelphiAssignStatement
p518
(dp519
g255
Nsg256
(i__main__
DelphiIdentAccess
p520
(dp521
g245
S'plants'
p522
sg247
(lp523
(idelphi
DelphiFieldEndAccess
p524
(dp525
g263
S'add'
p526
sba(idelphi
DelphiFunctionEndAccess
p527
(dp528
g276
(lp529
(i__main__
DelphiIdentAccess
p530
(dp531
g245
S'newPlant'
p532
sg247
(lp533
sbasbasbsba(i__main__
DelphiAssignStatement
p534
(dp535
g255
(i__main__
DelphiIdentAccess
p536
(dp537
g245
S'newPlant'
p538
sg247
(lp539
sbsg256
(i__main__
DelphiIdentAccess
p540
(dp541
g245
S'firstParent'
p542
sg247
(lp543
sbsba(idelphi
DelphiIfStatement
p544
(dp545
g242
(idelphi
DelphiRelOp
p546
(dp547
g331
(i__main__
DelphiIdentAccess
p548
(dp549
g245
S'plants'
p550
sg247
(lp551
(idelphi
DelphiFieldEndAccess
p552
(dp553
g263
S'indexOf'
p554
sba(idelphi
DelphiFunctionEndAccess
p555
(dp556
g276
(lp557
(i__main__
DelphiIdentAccess
p558
(dp559
g245
S'parentOne'
p560
sg247
(lp561
sbasbasbsg339
(idelphi
DelphiIntegerValue
p562
(dp563
g342
S'0'
sbsg343
S'>='
p564
sbsg249
Nsg282
(i__main__
DelphiAssignStatement
p565
(dp566
g255
Nsg256
(i__main__
DelphiIdentAccess
p567
(dp568
g245
S'selectedPlants'
p569
sg247
(lp570
(idelphi
DelphiFieldEndAccess
p571
(dp572
g263
S'add'
p573
sba(idelphi
DelphiFunctionEndAccess
p574
(dp575
g276
(lp576
(i__main__
DelphiIdentAccess
p577
(dp578
g245
S'firstParent'
p579
sg247
(lp580
sbasbasbsg408
(lp581
S' only select parent if this is being done from the breeder and you have the parents already '
p582
asbsbasbsba(idelphi
DelphiIfStatement
p583
(dp584
g242
(idelphi
DelphiRelOp
p585
(dp586
g331
(i__main__
DelphiIdentAccess
p587
(dp588
g245
S'parentTwo'
p589
sg247
(lp590
sbsg339
(idelphi
DelphiNilValue
p591
(dp592
bsg343
g423
sbsg249
Nsg282
(idelphi
DelphiCompoundStatement
p593
(dp594
g238
(lp595
(i__main__
DelphiAssignStatement
p596
(dp597
g255
(i__main__
DelphiIdentAccess
p598
(dp599
g245
S'PdPlant'
p600
sg247
(lp601
(idelphi
DelphiFieldEndAccess
p602
(dp603
g263
S'create'
p604
sbasbsg256
(i__main__
DelphiIdentAccess
p605
(dp606
g245
S'newPlant'
p607
sg247
(lp608
sbsba(idelphi
DelphiIfStatement
p609
(dp610
g242
(idelphi
DelphiRelOp
p611
(dp612
g331
(i__main__
DelphiIdentAccess
p613
(dp614
g245
S'newPlant'
p615
sg247
(lp616
sbsg339
(idelphi
DelphiNilValue
p617
(dp618
bsg343
S'='
sbsg249
Nsg282
(i__main__
DelphiExitStatement
p619
(dp620
g452
g371
sbsba(i__main__
DelphiAssignStatement
p621
(dp622
g255
Nsg256
(i__main__
DelphiIdentAccess
p623
(dp624
g245
S'parentTwo'
p625
sg247
(lp626
(idelphi
DelphiFieldEndAccess
p627
(dp628
g263
S'copyTo'
p629
sba(idelphi
DelphiFunctionEndAccess
p630
(dp631
g276
(lp632
(i__main__
DelphiIdentAccess
p633
(dp634
g245
S'newPlant'
p635
sg247
(lp636
sbasbasbsba(i__main__
DelphiAssignStatement
p637
(dp638
g255
Nsg256
(i__main__
DelphiIdentAccess
p639
(dp640
g245
S'newPlant'
p641
sg247
(lp642
(idelphi
DelphiFieldEndAccess
p643
(dp644
g263
S'removeAllAmendments'
p645
sbasbsg408
(lp646
S' v2.0\r'
p647
asba(i__main__
DelphiAssignStatement
p648
(dp649
g255
Nsg256
(i__main__
DelphiIdentAccess
p650
(dp651
g245
S'newPlant'
p652
sg247
(lp653
(idelphi
DelphiFieldEndAccess
p654
(dp655
g263
S'setAge'
p656
sba(idelphi
DelphiFunctionEndAccess
p657
(dp658
g276
(lp659
(i__main__
DelphiIdentAccess
p660
(dp661
g245
S'round'
p662
sg247
(lp663
(idelphi
DelphiFunctionEndAccess
p664
(dp665
g276
(lp666
(idelphi
DelphiMulOp
p667
(dp668
g501
(i__main__
DelphiIdentAccess
p669
(dp670
g245
S'fractionOfMaxAge'
p671
sg247
(lp672
sbsg506
S'*'
sg507
(i__main__
DelphiIdentAccess
p673
(dp674
g245
S'newPlant'
p675
sg247
(lp676
(idelphi
DelphiFieldEndAccess
p677
(dp678
g263
S'pGeneral'
p679
sba(idelphi
DelphiFieldEndAccess
p680
(dp681
g263
S'ageAtMaturity'
p682
sbasbsbasbasbasbasbsba(i__main__
DelphiAssignStatement
p683
(dp684
g255
Nsg256
(i__main__
DelphiIdentAccess
p685
(dp686
g245
S'plants'
p687
sg247
(lp688
(idelphi
DelphiFieldEndAccess
p689
(dp690
g263
S'add'
p691
sba(idelphi
DelphiFunctionEndAccess
p692
(dp693
g276
(lp694
(i__main__
DelphiIdentAccess
p695
(dp696
g245
S'newPlant'
p697
sg247
(lp698
sbasbasbsba(i__main__
DelphiAssignStatement
p699
(dp700
g255
(i__main__
DelphiIdentAccess
p701
(dp702
g245
S'newPlant'
p703
sg247
(lp704
sbsg256
(i__main__
DelphiIdentAccess
p705
(dp706
g245
S'secondParent'
p707
sg247
(lp708
sbsba(idelphi
DelphiIfStatement
p709
(dp710
g242
(idelphi
DelphiRelOp
p711
(dp712
g331
(i__main__
DelphiIdentAccess
p713
(dp714
g245
S'plants'
p715
sg247
(lp716
(idelphi
DelphiFieldEndAccess
p717
(dp718
g263
S'indexOf'
p719
sba(idelphi
DelphiFunctionEndAccess
p720
(dp721
g276
(lp722
(i__main__
DelphiIdentAccess
p723
(dp724
g245
S'parentTwo'
p725
sg247
(lp726
sbasbasbsg339
(idelphi
DelphiIntegerValue
p727
(dp728
g342
S'0'
sbsg343
g564
sbsg249
Nsg282
(i__main__
DelphiAssignStatement
p729
(dp730
g255
Nsg256
(i__main__
DelphiIdentAccess
p731
(dp732
g245
S'selectedPlants'
p733
sg247
(lp734
(idelphi
DelphiFieldEndAccess
p735
(dp736
g263
S'add'
p737
sba(idelphi
DelphiFunctionEndAccess
p738
(dp739
g276
(lp740
(i__main__
DelphiIdentAccess
p741
(dp742
g245
S'secondParent'
p743
sg247
(lp744
sbasbasbsg408
(lp745
S' only select parent if this is being done from the breeder and you have the parents already '
p746
asbsbasbsbasbsg299
(lp747
(i__main__
DelphiVarSection
p748
(dp749
S'atTopLevel'
p750
I0
sS'varDeclList'
p751
(lp752
(idelphi
DelphiVarDecl
p753
(dp754
S'constExpression'
p755
NsS'identList'
p756
(lp757
S'newPlant'
p758
asg33
(i__main__
DelphiNamedType
p759
(dp760
g36
S'PdPlant'
p761
sg38
g1
sg39
NsbsbasbasbsbsS'create'
p762
(i__main__
DelphiMethodImplementation
p763
(dp764
g205
g84
sg17
g86
sg25
(lp765
sg220
(lp766
sg222
(lp767
sg224
(lp768
g226
asg227
(dp769
sg48
S'PdGeneration'
p770
sg49
Nsg230
(lp771
sg50
I0
sg51
g82
sg232
(i__main__
DelphiBlock
p772
(dp773
g235
(idelphi
DelphiCompoundStatement
p774
(dp775
g238
(lp776
(i__main__
DelphiAssignStatement
p777
(dp778
g255
Nsg256
(idelphi
DelphiInheritedCall
p779
(dp780
g245
S'create'
p781
sg276
Nsbsba(i__main__
DelphiAssignStatement
p782
(dp783
g255
(i__main__
DelphiIdentAccess
p784
(dp785
g245
S'TListCollection'
p786
sg247
(lp787
(idelphi
DelphiFieldEndAccess
p788
(dp789
g263
S'create'
p790
sbasbsg256
(i__main__
DelphiIdentAccess
p791
(dp792
g245
S'plants'
p793
sg247
(lp794
sbsba(i__main__
DelphiAssignStatement
p795
(dp796
g255
(i__main__
DelphiIdentAccess
p797
(dp798
g245
S'TList'
p799
sg247
(lp800
(idelphi
DelphiFieldEndAccess
p801
(dp802
g263
S'create'
p803
sbasbsg256
(i__main__
DelphiIdentAccess
p804
(dp805
g245
S'selectedPlants'
p806
sg247
(lp807
sbsbasbsg299
(lp808
sbsg408
(lp809
S' --------------------------------------------------------------------------------- PdGeneration '
p810
asbsS'breedfromparents'
p811
(i__main__
DelphiMethodImplementation
p812
(dp813
g205
g89
sg17
g91
sg25
(lp814
(i__main__
DelphiFormalParameter
p815
(dp816
g29
Nsg30
(lp817
S'aFirstParent'
p818
aS'aSecondParent'
p819
asg33
(i__main__
DelphiNamedType
p820
(dp821
g36
S'PdPlant'
p822
sg38
g1
sg39
Nsbsg40
Nsba(i__main__
DelphiFormalParameter
p823
(dp824
g29
Nsg30
(lp825
S'fractionOfMaxAge'
p826
asg33
(i__main__
DelphiPrimitiveType
p827
(dp828
g36
g81
sbsg40
Nsbasg220
(lp829
sg222
(lp830
sg224
(lp831
g226
ag818
ag819
ag826
asg227
(dp832
g818
g820
sg819
g820
sg826
g827
ssg48
S'PdGeneration'
p833
sg49
Nsg230
(lp834
sg50
I0
sg51
g52
sg232
(i__main__
DelphiBlock
p835
(dp836
g235
(idelphi
DelphiCompoundStatement
p837
(dp838
g238
(lp839
(i__main__
DelphiAssignStatement
p840
(dp841
g255
(i__main__
DelphiIdentAccess
p842
(dp843
g245
S'aFirstParent'
p844
sg247
(lp845
sbsg256
(i__main__
DelphiIdentAccess
p846
(dp847
g245
S'firstParent'
p848
sg247
(lp849
sbsba(idelphi
DelphiIfStatement
p850
(dp851
g242
(idelphi
DelphiRelOp
p852
(dp853
g331
(i__main__
DelphiIdentAccess
p854
(dp855
g245
S'firstParent'
p856
sg247
(lp857
sbsg339
(idelphi
DelphiNilValue
p858
(dp859
bsg343
S'='
sbsg249
Nsg282
(i__main__
DelphiExitStatement
p860
(dp861
g452
g812
sbsba(idelphi
DelphiIfStatement
p862
(dp863
g242
(idelphi
DelphiRelOp
p864
(dp865
g331
(i__main__
DelphiIdentAccess
p866
(dp867
g245
S'domain'
p868
sg247
(lp869
sbsg339
(idelphi
DelphiNilValue
p870
(dp871
bsg343
S'='
sbsg249
Nsg282
(i__main__
DelphiExitStatement
p872
(dp873
g452
g812
sbsba(i__main__
DelphiAssignStatement
p874
(dp875
g255
(i__main__
DelphiIdentAccess
p876
(dp877
g245
S'aSecondParent'
p878
sg247
(lp879
sbsg256
(i__main__
DelphiIdentAccess
p880
(dp881
g245
S'secondParent'
p882
sg247
(lp883
sbsba(i__main__
DelphiAssignStatement
p884
(dp885
g255
Nsg256
(i__main__
DelphiIdentAccess
p886
(dp887
g245
S'plants'
p888
sg247
(lp889
(idelphi
DelphiFieldEndAccess
p890
(dp891
g263
S'clear'
p892
sbasbsba(i__main__
DelphiAssignStatement
p893
(dp894
g255
Nsg256
(i__main__
DelphiIdentAccess
p895
(dp896
g245
S'selectedPlants'
p897
sg247
(lp898
(idelphi
DelphiFieldEndAccess
p899
(dp900
g263
S'clear'
p901
sbasbsba(i__main__
DelphiAssignStatement
p902
(dp903
g255
(idelphi
DelphiNilValue
p904
(dp905
bsg256
(i__main__
DelphiIdentAccess
p906
(dp907
g245
S'tdos'
p908
sg247
(lp909
sbsba(idelphi
DelphiIfStatement
p910
(dp911
g242
(idelphi
DelphiMulOp
p912
(dp913
g501
(idelphi
DelphiNestedExpressionListAccess
p914
(dp915
g247
(lp916
sg276
(lp917
(idelphi
DelphiNot
p918
(dp919
S'factor'
p920
(i__main__
DelphiIdentAccess
p921
(dp922
g245
S'domain'
p923
sg247
(lp924
(idelphi
DelphiFieldEndAccess
p925
(dp926
g263
S'checkForExistingDefaultTdoLibrary'
p927
sbasbsbasbsg506
S'and'
p928
sg507
(idelphi
DelphiNestedExpressionListAccess
p929
(dp930
g247
(lp931
sg276
(lp932
(i__main__
DelphiIdentAccess
p933
(dp934
g245
S'domain'
p935
sg247
(lp936
(idelphi
DelphiFieldEndAccess
p937
(dp938
g263
S'breedingAndTimeSeriesOptions'
p939
sba(idelphi
DelphiFieldEndAccess
p940
(dp941
g263
S'chooseTdosRandomlyFromCurrentLibrary'
p942
sbasbasbsbsg249
Nsg282
(i__main__
DelphiAssignStatement
p943
(dp944
g255
Nsg256
(i__main__
DelphiIdentAccess
p945
(dp946
g245
S'messageDlg'
p947
sg247
(lp948
(idelphi
DelphiFunctionEndAccess
p949
(dp950
g276
(lp951
(idelphi
DelphiAddOp
p952
(dp953
S'addOp'
p954
S'+'
sS'term2'
p955
(idelphi
DelphiStringAccess
p956
(dp957
g247
(lp958
sg342
(idelphi
DelphiStringValue
p959
(dp960
g342
S'and choosing a 3D object library there.'
p961
sbsbsS'term1'
p962
(idelphi
DelphiAddOp
p963
(dp964
g954
S'+'
sg955
(i__main__
DelphiIdentAccess
p965
(dp966
g245
S'chr'
p967
sg247
(lp968
(idelphi
DelphiFunctionEndAccess
p969
(dp970
g276
(lp971
(idelphi
DelphiIntegerValue
p972
(dp973
g342
S'13'
p974
sbasbasbsg962
(idelphi
DelphiAddOp
p975
(dp976
g954
S'+'
sg955
(idelphi
DelphiStringAccess
p977
(dp978
g247
(lp979
sg342
(idelphi
DelphiStringValue
p980
(dp981
g342
S'You can choose a library later by choosing Custom from the Variation menu'
p982
sbsbsg962
(idelphi
DelphiAddOp
p983
(dp984
g954
S'+'
sg955
(i__main__
DelphiIdentAccess
p985
(dp986
g245
S'chr'
p987
sg247
(lp988
(idelphi
DelphiFunctionEndAccess
p989
(dp990
g276
(lp991
(idelphi
DelphiIntegerValue
p992
(dp993
g342
S'13'
p994
sbasbasbsg962
(idelphi
DelphiAddOp
p995
(dp996
g954
S'+'
sg955
(i__main__
DelphiIdentAccess
p997
(dp998
g245
S'chr'
p999
sg247
(lp1000
(idelphi
DelphiFunctionEndAccess
p1001
(dp1002
g276
(lp1003
(idelphi
DelphiIntegerValue
p1004
(dp1005
g342
S'13'
p1006
sbasbasbsg962
(idelphi
DelphiAddOp
p1007
(dp1008
g954
S'+'
sg955
(idelphi
DelphiStringAccess
p1009
(dp1010
g247
(lp1011
sg342
(idelphi
DelphiStringValue
p1012
(dp1013
g342
S'to randomly choose 3D objects for your breeding offspring.'
p1014
sbsbsg962
(idelphi
DelphiAddOp
p1015
(dp1016
g954
S'+'
sg955
(i__main__
DelphiIdentAccess
p1017
(dp1018
g245
S'chr'
p1019
sg247
(lp1020
(idelphi
DelphiFunctionEndAccess
p1021
(dp1022
g276
(lp1023
(idelphi
DelphiIntegerValue
p1024
(dp1025
g342
S'13'
p1026
sbasbasbsg962
(idelphi
DelphiStringAccess
p1027
(dp1028
g247
(lp1029
sg342
(idelphi
DelphiStringValue
p1030
(dp1031
g342
S"Because you didn''t choose a 3D object library, the breeder won''t be able"
p1032
sbsbsbsbsbsbsbsbsba(i__main__
DelphiIdentAccess
p1033
(dp1034
g245
S'mtWarning'
p1035
sg247
(lp1036
sba(idelphi
DelphiSetConstructor
p1037
(dp1038
S'setElementList'
p1039
(lp1040
(i__main__
DelphiIdentAccess
p1041
(dp1042
g245
S'mbOk'
p1043
sg247
(lp1044
sbasba(idelphi
DelphiIntegerValue
p1045
(dp1046
g342
S'0'
sbasbasbsbsba(idelphi
DelphiTryFinallyStatement
p1047
(dp1048
S'tryStatements'
p1049
(lp1050
(idelphi
DelphiIfStatement
p1051
(dp1052
g242
(i__main__
DelphiIdentAccess
p1053
(dp1054
g245
S'domain'
p1055
sg247
(lp1056
(idelphi
DelphiFieldEndAccess
p1057
(dp1058
g263
S'breedingAndTimeSeriesOptions'
p1059
sba(idelphi
DelphiFieldEndAccess
p1060
(dp1061
g263
S'chooseTdosRandomlyFromCurrentLibrary'
p1062
sbasbsg249
Nsg282
(idelphi
DelphiCompoundStatement
p1063
(dp1064
g238
(lp1065
(i__main__
DelphiAssignStatement
p1066
(dp1067
g255
(i__main__
DelphiIdentAccess
p1068
(dp1069
g245
S'TListCollection'
p1070
sg247
(lp1071
(idelphi
DelphiFieldEndAccess
p1072
(dp1073
g263
S'create'
p1074
sbasbsg256
(i__main__
DelphiIdentAccess
p1075
(dp1076
g245
S'tdos'
p1077
sg247
(lp1078
sbsba(i__main__
DelphiAssignStatement
p1079
(dp1080
g255
(i__main__
DelphiIdentAccess
p1081
(dp1082
g245
S'domain'
p1083
sg247
(lp1084
(idelphi
DelphiFieldEndAccess
p1085
(dp1086
g263
S'defaultTdoLibraryFileName'
p1087
sbasbsg256
(i__main__
DelphiIdentAccess
p1088
(dp1089
g245
S'fileNameWithPath'
p1090
sg247
(lp1091
sbsba(idelphi
DelphiIfStatement
p1092
(dp1093
g242
(idelphi
DelphiNot
p1094
(dp1095
g920
(i__main__
DelphiIdentAccess
p1096
(dp1097
g245
S'fileExists'
p1098
sg247
(lp1099
(idelphi
DelphiFunctionEndAccess
p1100
(dp1101
g276
(lp1102
(i__main__
DelphiIdentAccess
p1103
(dp1104
g245
S'fileNameWithPath'
p1105
sg247
(lp1106
sbasbasbsbsg249
(idelphi
DelphiCompoundStatement
p1107
(dp1108
g238
(lp1109
(i__main__
DelphiAssignStatement
p1110
(dp1111
g255
Nsg256
(i__main__
DelphiIdentAccess
p1112
(dp1113
g245
S'assignFile'
p1114
sg247
(lp1115
(idelphi
DelphiFunctionEndAccess
p1116
(dp1117
g276
(lp1118
(i__main__
DelphiIdentAccess
p1119
(dp1120
g245
S'inputFile'
p1121
sg247
(lp1122
sba(i__main__
DelphiIdentAccess
p1123
(dp1124
g245
S'fileNameWithPath'
p1125
sg247
(lp1126
sbasbasbsg408
(lp1127
S' cfk note: is it really ok to read the whole tdo file each time? '
p1128
asba(idelphi
DelphiTryFinallyStatement
p1129
(dp1130
g1049
(lp1131
(i__main__
DelphiAssignStatement
p1132
(dp1133
g255
Nsg256
(i__main__
DelphiIdentAccess
p1134
(dp1135
g245
S'setDecimalSeparator'
p1136
sg247
(lp1137
sbsg408
(lp1138
S' v1.5\r'
p1139
asba(i__main__
DelphiAssignStatement
p1140
(dp1141
g255
Nsg256
(i__main__
DelphiIdentAccess
p1142
(dp1143
g245
S'reset'
p1144
sg247
(lp1145
(idelphi
DelphiFunctionEndAccess
p1146
(dp1147
g276
(lp1148
(i__main__
DelphiIdentAccess
p1149
(dp1150
g245
S'inputFile'
p1151
sg247
(lp1152
sbasbasbsba(idelphi
DelphiWhileStatement
p1153
(dp1154
S'statement'
p1155
(idelphi
DelphiCompoundStatement
p1156
(dp1157
g238
(lp1158
(i__main__
DelphiAssignStatement
p1159
(dp1160
g255
(i__main__
DelphiIdentAccess
p1161
(dp1162
g245
S'KfObject3D'
p1163
sg247
(lp1164
(idelphi
DelphiFieldEndAccess
p1165
(dp1166
g263
S'create'
p1167
sbasbsg256
(i__main__
DelphiIdentAccess
p1168
(dp1169
g245
S'newTdo'
p1170
sg247
(lp1171
sbsba(i__main__
DelphiAssignStatement
p1172
(dp1173
g255
Nsg256
(i__main__
DelphiIdentAccess
p1174
(dp1175
g245
S'newTdo'
p1176
sg247
(lp1177
(idelphi
DelphiFieldEndAccess
p1178
(dp1179
g263
S'readFromFileStream'
p1180
sba(idelphi
DelphiFunctionEndAccess
p1181
(dp1182
g276
(lp1183
(i__main__
DelphiIdentAccess
p1184
(dp1185
g245
S'inputFile'
p1186
sg247
(lp1187
sba(i__main__
DelphiIdentAccess
p1188
(dp1189
g245
S'kInTdoLibrary'
p1190
sg247
(lp1191
sbasbasbsba(i__main__
DelphiAssignStatement
p1192
(dp1193
g255
Nsg256
(i__main__
DelphiIdentAccess
p1194
(dp1195
g245
S'tdos'
p1196
sg247
(lp1197
(idelphi
DelphiFieldEndAccess
p1198
(dp1199
g263
S'add'
p1200
sba(idelphi
DelphiFunctionEndAccess
p1201
(dp1202
g276
(lp1203
(i__main__
DelphiIdentAccess
p1204
(dp1205
g245
S'newTdo'
p1206
sg247
(lp1207
sbasbasbsbasbsS'whileExpression'
p1208
(idelphi
DelphiNot
p1209
(dp1210
g920
(i__main__
DelphiIdentAccess
p1211
(dp1212
g245
S'eof'
p1213
sg247
(lp1214
(idelphi
DelphiFunctionEndAccess
p1215
(dp1216
g276
(lp1217
(i__main__
DelphiIdentAccess
p1218
(dp1219
g245
S'inputFile'
p1220
sg247
(lp1221
sbasbasbsbsbasS'finallyStatements'
p1222
(lp1223
(i__main__
DelphiAssignStatement
p1224
(dp1225
g255
Nsg256
(i__main__
DelphiIdentAccess
p1226
(dp1227
g245
S'closeFile'
p1228
sg247
(lp1229
(idelphi
DelphiFunctionEndAccess
p1230
(dp1231
g276
(lp1232
(i__main__
DelphiIdentAccess
p1233
(dp1234
g245
S'inputFile'
p1235
sg247
(lp1236
sbasbasbsbasbasbsg282
(i__main__
DelphiAssignStatement
p1237
(dp1238
g255
(i__main__
DelphiIdentAccess
p1239
(dp1240
g245
S'false'
p1241
sg247
(lp1242
sbsg256
(i__main__
DelphiIdentAccess
p1243
(dp1244
g245
S'domain'
p1245
sg247
(lp1246
(idelphi
DelphiFieldEndAccess
p1247
(dp1248
g263
S'breedingAndTimeSeriesOptions'
p1249
sba(idelphi
DelphiFieldEndAccess
p1250
(dp1251
g263
S'chooseTdosRandomlyFromCurrentLibrary'
p1252
sbasbsbsbasbsba(idelphi
DelphiForStatement
p1253
(dp1254
S'variable'
p1255
S'i'
sS'finalValue'
p1256
(idelphi
DelphiAddOp
p1257
(dp1258
g954
S'-'
sg955
(idelphi
DelphiIntegerValue
p1259
(dp1260
g342
S'1'
sbsg962
(i__main__
DelphiIdentAccess
p1261
(dp1262
g245
S'domain'
p1263
sg247
(lp1264
(idelphi
DelphiFieldEndAccess
p1265
(dp1266
g263
S'breedingAndTimeSeriesOptions'
p1267
sba(idelphi
DelphiFieldEndAccess
p1268
(dp1269
g263
S'plantsPerGeneration'
p1270
sbasbsbsS'direction'
p1271
S'to'
p1272
sg29
(idelphi
DelphiIntegerValue
p1273
(dp1274
g342
S'0'
sbsg1155
(idelphi
DelphiCompoundStatement
p1275
(dp1276
g238
(lp1277
(i__main__
DelphiAssignStatement
p1278
(dp1279
g255
(i__main__
DelphiIdentAccess
p1280
(dp1281
g245
S'PdPlant'
p1282
sg247
(lp1283
(idelphi
DelphiFieldEndAccess
p1284
(dp1285
g263
S'create'
p1286
sbasbsg256
(i__main__
DelphiIdentAccess
p1287
(dp1288
g245
S'newPlant'
p1289
sg247
(lp1290
sbsba(i__main__
DelphiAssignStatement
p1291
(dp1292
g255
Nsg256
(i__main__
DelphiIdentAccess
p1293
(dp1294
g245
S'plants'
p1295
sg247
(lp1296
(idelphi
DelphiFieldEndAccess
p1297
(dp1298
g263
S'add'
p1299
sba(idelphi
DelphiFunctionEndAccess
p1300
(dp1301
g276
(lp1302
(i__main__
DelphiIdentAccess
p1303
(dp1304
g245
S'newPlant'
p1305
sg247
(lp1306
sbasbasbsba(i__main__
DelphiAssignStatement
p1307
(dp1308
g255
Nsg256
(i__main__
DelphiIdentAccess
p1309
(dp1310
g245
S'newPlant'
p1311
sg247
(lp1312
(idelphi
DelphiFieldEndAccess
p1313
(dp1314
g263
S'reset'
p1315
sbasbsba(idelphi
DelphiIfStatement
p1316
(dp1317
g242
(idelphi
DelphiRelOp
p1318
(dp1319
g331
(i__main__
DelphiIdentAccess
p1320
(dp1321
g245
S'domain'
p1322
sg247
(lp1323
(idelphi
DelphiFieldEndAccess
p1324
(dp1325
g263
S'breedingAndTimeSeriesOptions'
p1326
sba(idelphi
DelphiFieldEndAccess
p1327
(dp1328
g263
S'variationType'
p1329
sbasbsg339
(i__main__
DelphiIdentAccess
p1330
(dp1331
g245
S'kBreederVariationNoNumeric'
p1332
sg247
(lp1333
sbsg343
g423
sbsg249
Nsg282
(i__main__
DelphiAssignStatement
p1334
(dp1335
g255
Nsg256
(i__main__
DelphiIdentAccess
p1336
(dp1337
g245
S'newPlant'
p1338
sg247
(lp1339
(idelphi
DelphiFieldEndAccess
p1340
(dp1341
g263
S'randomize'
p1342
sbasbsbsba(i__main__
DelphiAssignStatement
p1343
(dp1344
g255
Nsg256
(i__main__
DelphiIdentAccess
p1345
(dp1346
g245
S'self'
p1347
sg247
(lp1348
(idelphi
DelphiFieldEndAccess
p1349
(dp1350
g263
S'setLocalOptionsToDomainOptions'
p1351
sba(idelphi
DelphiFunctionEndAccess
p1352
(dp1353
g276
(lp1354
(i__main__
DelphiIdentAccess
p1355
(dp1356
g245
S'localOptions'
p1357
sg247
(lp1358
sbasbasbsba(i__main__
DelphiAssignStatement
p1359
(dp1360
g255
Nsg256
(i__main__
DelphiIdentAccess
p1361
(dp1362
g245
S'newPlant'
p1363
sg247
(lp1364
(idelphi
DelphiFieldEndAccess
p1365
(dp1366
g263
S'useBreedingOptionsAndPlantsToSetParameters'
p1367
sba(idelphi
DelphiFunctionEndAccess
p1368
(dp1369
g276
(lp1370
(i__main__
DelphiIdentAccess
p1371
(dp1372
g245
S'localOptions'
p1373
sg247
(lp1374
sba(i__main__
DelphiIdentAccess
p1375
(dp1376
g245
S'firstParent'
p1377
sg247
(lp1378
sba(i__main__
DelphiIdentAccess
p1379
(dp1380
g245
S'secondParent'
p1381
sg247
(lp1382
sba(i__main__
DelphiIdentAccess
p1383
(dp1384
g245
S'tdos'
p1385
sg247
(lp1386
sbasbasbsba(i__main__
DelphiAssignStatement
p1387
(dp1388
g255
(i__main__
DelphiIdentAccess
p1389
(dp1390
g245
S'round'
p1391
sg247
(lp1392
(idelphi
DelphiFunctionEndAccess
p1393
(dp1394
g276
(lp1395
(idelphi
DelphiMulOp
p1396
(dp1397
g501
(i__main__
DelphiIdentAccess
p1398
(dp1399
g245
S'fractionOfMaxAge'
p1400
sg247
(lp1401
sbsg506
S'*'
sg507
(i__main__
DelphiIdentAccess
p1402
(dp1403
g245
S'newPlant'
p1404
sg247
(lp1405
(idelphi
DelphiFieldEndAccess
p1406
(dp1407
g263
S'pGeneral'
p1408
sba(idelphi
DelphiFieldEndAccess
p1409
(dp1410
g263
S'ageAtMaturity'
p1411
sbasbsbasbasbsg256
(i__main__
DelphiIdentAccess
p1412
(dp1413
g245
S'newAge'
p1414
sg247
(lp1415
sbsba(i__main__
DelphiAssignStatement
p1416
(dp1417
g255
Nsg256
(i__main__
DelphiIdentAccess
p1418
(dp1419
g245
S'newPlant'
p1420
sg247
(lp1421
(idelphi
DelphiFieldEndAccess
p1422
(dp1423
g263
S'setAge'
p1424
sba(idelphi
DelphiFunctionEndAccess
p1425
(dp1426
g276
(lp1427
(i__main__
DelphiIdentAccess
p1428
(dp1429
g245
S'intMin'
p1430
sg247
(lp1431
(idelphi
DelphiFunctionEndAccess
p1432
(dp1433
g276
(lp1434
(i__main__
DelphiIdentAccess
p1435
(dp1436
g245
S'newAge'
p1437
sg247
(lp1438
sba(i__main__
DelphiIdentAccess
p1439
(dp1440
g245
S'newPlant'
p1441
sg247
(lp1442
(idelphi
DelphiFieldEndAccess
p1443
(dp1444
g263
S'pGeneral'
p1445
sba(idelphi
DelphiFieldEndAccess
p1446
(dp1447
g263
S'ageAtMaturity'
p1448
sbasbasbasbasbasbsba(i__main__
DelphiAssignStatement
p1449
(dp1450
g255
(i__main__
DelphiIdentAccess
p1451
(dp1452
g245
S'firstParent'
p1453
sg247
(lp1454
(idelphi
DelphiFieldEndAccess
p1455
(dp1456
g263
S'xRotation'
p1457
sbasbsg256
(i__main__
DelphiIdentAccess
p1458
(dp1459
g245
S'newPlant'
p1460
sg247
(lp1461
(idelphi
DelphiFieldEndAccess
p1462
(dp1463
g263
S'xRotation'
p1464
sbasbsg408
(lp1465
S' v2.0 plants take rotation angles from first parent\r'
p1466
asba(i__main__
DelphiAssignStatement
p1467
(dp1468
g255
(i__main__
DelphiIdentAccess
p1469
(dp1470
g245
S'firstParent'
p1471
sg247
(lp1472
(idelphi
DelphiFieldEndAccess
p1473
(dp1474
g263
S'yRotation'
p1475
sbasbsg256
(i__main__
DelphiIdentAccess
p1476
(dp1477
g245
S'newPlant'
p1478
sg247
(lp1479
(idelphi
DelphiFieldEndAccess
p1480
(dp1481
g263
S'yRotation'
p1482
sbasbsba(i__main__
DelphiAssignStatement
p1483
(dp1484
g255
(i__main__
DelphiIdentAccess
p1485
(dp1486
g245
S'firstParent'
p1487
sg247
(lp1488
(idelphi
DelphiFieldEndAccess
p1489
(dp1490
g263
S'zRotation'
p1491
sbasbsg256
(i__main__
DelphiIdentAccess
p1492
(dp1493
g245
S'newPlant'
p1494
sg247
(lp1495
(idelphi
DelphiFieldEndAccess
p1496
(dp1497
g263
S'zRotation'
p1498
sbasbsbasbsbasg1222
(lp1499
(i__main__
DelphiAssignStatement
p1500
(dp1501
g255
Nsg256
(i__main__
DelphiIdentAccess
p1502
(dp1503
g245
S'tdos'
p1504
sg247
(lp1505
(idelphi
DelphiFieldEndAccess
p1506
(dp1507
g263
S'free'
p1508
sbasbsbasbasbsg299
(lp1509
(i__main__
DelphiVarSection
p1510
(dp1511
g750
I0
sg751
(lp1512
(idelphi
DelphiVarDecl
p1513
(dp1514
g755
Nsg756
(lp1515
S'newPlant'
p1516
asg33
(i__main__
DelphiNamedType
p1517
(dp1518
g36
S'PdPlant'
p1519
sg38
g1
sg39
Nsbsba(idelphi
DelphiVarDecl
p1520
(dp1521
g755
Nsg756
(lp1522
S'i'
aS'newAge'
p1523
asg33
(i__main__
DelphiPrimitiveType
p1524
(dp1525
g36
g144
sbsba(idelphi
DelphiVarDecl
p1526
(dp1527
g755
Nsg756
(lp1528
S'fileNameWithPath'
p1529
asg33
(i__main__
DelphiPrimitiveType
p1530
(dp1531
g36
g342
sbsba(idelphi
DelphiVarDecl
p1532
(dp1533
g755
Nsg756
(lp1534
S'newTdo'
p1535
asg33
(i__main__
DelphiNamedType
p1536
(dp1537
g36
S'KfObject3D'
p1538
sg38
g1
sg39
Nsbsba(idelphi
DelphiVarDecl
p1539
(dp1540
g755
Nsg756
(lp1541
S'inputFile'
p1542
asg33
(i__main__
DelphiNamedType
p1543
(dp1544
g36
S'TextFile'
p1545
sg38
g1
sg39
Nsbsba(idelphi
DelphiVarDecl
p1546
(dp1547
g755
Nsg756
(lp1548
S'tdos'
p1549
asg33
(i__main__
DelphiNamedType
p1550
(dp1551
g36
S'TListCollection'
p1552
sg38
g1
sg39
Nsbsba(idelphi
DelphiVarDecl
p1553
(dp1554
g755
Nsg756
(lp1555
S'localOptions'
p1556
asg33
(i__main__
DelphiNamedType
p1557
(dp1558
g36
S'BreedingAndTimeSeriesOptionsStructure'
p1559
sg38
g1
sg39
NsbsbasbasbsbsS'deselectallplants'
p1560
(i__main__
DelphiMethodImplementation
p1561
(dp1562
g205
g108
sg17
g110
sg25
(lp1563
sg220
(lp1564
sg222
(lp1565
sg224
(lp1566
g226
asg227
(dp1567
sg48
S'PdGeneration'
p1568
sg49
Nsg230
(lp1569
sg50
I0
sg51
g52
sg232
(i__main__
DelphiBlock
p1570
(dp1571
g235
(idelphi
DelphiCompoundStatement
p1572
(dp1573
g238
(lp1574
(i__main__
DelphiAssignStatement
p1575
(dp1576
g255
Nsg256
(i__main__
DelphiIdentAccess
p1577
(dp1578
g245
S'selectedPlants'
p1579
sg247
(lp1580
(idelphi
DelphiFieldEndAccess
p1581
(dp1582
g263
S'clear'
p1583
sbasbsbasbsg299
(lp1584
sbsbsS'replaceplant'
p1585
(i__main__
DelphiMethodImplementation
p1586
(dp1587
g205
g113
sg17
g115
sg25
(lp1588
(i__main__
DelphiFormalParameter
p1589
(dp1590
g29
Nsg30
(lp1591
S'oldPlant'
p1592
aS'newPlant'
p1593
asg33
(i__main__
DelphiNamedType
p1594
(dp1595
g36
S'PdPlant'
p1596
sg38
g1
sg39
Nsbsg40
Nsbasg220
(lp1597
sg222
(lp1598
sg224
(lp1599
g226
ag1592
ag1593
asg227
(dp1600
g1593
g1594
sg1592
g1594
ssg48
S'PdGeneration'
p1601
sg49
Nsg230
(lp1602
sg50
I0
sg51
g52
sg232
(i__main__
DelphiBlock
p1603
(dp1604
g235
(idelphi
DelphiCompoundStatement
p1605
(dp1606
g238
(lp1607
(i__main__
DelphiAssignStatement
p1608
(dp1609
g255
(i__main__
DelphiIdentAccess
p1610
(dp1611
g245
S'plants'
p1612
sg247
(lp1613
(idelphi
DelphiFieldEndAccess
p1614
(dp1615
g263
S'indexOf'
p1616
sba(idelphi
DelphiFunctionEndAccess
p1617
(dp1618
g276
(lp1619
(i__main__
DelphiIdentAccess
p1620
(dp1621
g245
S'oldPlant'
p1622
sg247
(lp1623
sbasbasbsg256
(i__main__
DelphiIdentAccess
p1624
(dp1625
g245
S'oldPlantIndex'
p1626
sg247
(lp1627
sbsg408
(lp1628
S' no freeing should be going on here '
p1629
asba(i__main__
DelphiAssignStatement
p1630
(dp1631
g255
Nsg256
(i__main__
DelphiIdentAccess
p1632
(dp1633
g245
S'plants'
p1634
sg247
(lp1635
(idelphi
DelphiFieldEndAccess
p1636
(dp1637
g263
S'remove'
p1638
sba(idelphi
DelphiFunctionEndAccess
p1639
(dp1640
g276
(lp1641
(i__main__
DelphiIdentAccess
p1642
(dp1643
g245
S'oldPlant'
p1644
sg247
(lp1645
sbasbasbsba(idelphi
DelphiIfStatement
p1646
(dp1647
g242
(idelphi
DelphiRelOp
p1648
(dp1649
g331
(i__main__
DelphiIdentAccess
p1650
(dp1651
g245
S'oldPlantIndex'
p1652
sg247
(lp1653
sbsg339
(idelphi
DelphiIntegerValue
p1654
(dp1655
g342
S'0'
sbsg343
g564
sbsg249
(i__main__
DelphiAssignStatement
p1656
(dp1657
g255
Nsg256
(i__main__
DelphiIdentAccess
p1658
(dp1659
g245
S'plants'
p1660
sg247
(lp1661
(idelphi
DelphiFieldEndAccess
p1662
(dp1663
g263
S'add'
p1664
sba(idelphi
DelphiFunctionEndAccess
p1665
(dp1666
g276
(lp1667
(i__main__
DelphiIdentAccess
p1668
(dp1669
g245
S'newPlant'
p1670
sg247
(lp1671
sbasbasbsbsg282
(i__main__
DelphiAssignStatement
p1672
(dp1673
g255
Nsg256
(i__main__
DelphiIdentAccess
p1674
(dp1675
g245
S'plants'
p1676
sg247
(lp1677
(idelphi
DelphiFieldEndAccess
p1678
(dp1679
g263
S'insert'
p1680
sba(idelphi
DelphiFunctionEndAccess
p1681
(dp1682
g276
(lp1683
(i__main__
DelphiIdentAccess
p1684
(dp1685
g245
S'oldPlantIndex'
p1686
sg247
(lp1687
sba(i__main__
DelphiIdentAccess
p1688
(dp1689
g245
S'newPlant'
p1690
sg247
(lp1691
sbasbasbsbsba(i__main__
DelphiAssignStatement
p1692
(dp1693
g255
(i__main__
DelphiIdentAccess
p1694
(dp1695
g245
S'false'
p1696
sg247
(lp1697
sbsg256
(i__main__
DelphiIdentAccess
p1698
(dp1699
g245
S'newPlant'
p1700
sg247
(lp1701
(idelphi
DelphiFieldEndAccess
p1702
(dp1703
g263
S'previewCacheUpToDate'
p1704
sbasbsba(i__main__
DelphiAssignStatement
p1705
(dp1706
g255
(i__main__
DelphiIdentAccess
p1707
(dp1708
g245
S'selectedPlants'
p1709
sg247
(lp1710
(idelphi
DelphiFieldEndAccess
p1711
(dp1712
g263
S'indexOf'
p1713
sba(idelphi
DelphiFunctionEndAccess
p1714
(dp1715
g276
(lp1716
(i__main__
DelphiIdentAccess
p1717
(dp1718
g245
S'oldPlant'
p1719
sg247
(lp1720
sbasbasbsg256
(i__main__
DelphiIdentAccess
p1721
(dp1722
g245
S'oldPlantIndex'
p1723
sg247
(lp1724
sbsg408
(lp1725
S' do the same for the selectedPlants list '
p1726
asba(idelphi
DelphiIfStatement
p1727
(dp1728
g242
(idelphi
DelphiRelOp
p1729
(dp1730
g331
(i__main__
DelphiIdentAccess
p1731
(dp1732
g245
S'oldPlantIndex'
p1733
sg247
(lp1734
sbsg339
(idelphi
DelphiIntegerValue
p1735
(dp1736
g342
S'0'
sbsg343
g564
sbsg249
Nsg282
(idelphi
DelphiCompoundStatement
p1737
(dp1738
g238
(lp1739
(i__main__
DelphiAssignStatement
p1740
(dp1741
g255
Nsg256
(i__main__
DelphiIdentAccess
p1742
(dp1743
g245
S'selectedPlants'
p1744
sg247
(lp1745
(idelphi
DelphiFieldEndAccess
p1746
(dp1747
g263
S'remove'
p1748
sba(idelphi
DelphiFunctionEndAccess
p1749
(dp1750
g276
(lp1751
(i__main__
DelphiIdentAccess
p1752
(dp1753
g245
S'oldPlant'
p1754
sg247
(lp1755
sbasbasbsba(i__main__
DelphiAssignStatement
p1756
(dp1757
g255
Nsg256
(i__main__
DelphiIdentAccess
p1758
(dp1759
g245
S'selectedPlants'
p1760
sg247
(lp1761
(idelphi
DelphiFieldEndAccess
p1762
(dp1763
g263
S'insert'
p1764
sba(idelphi
DelphiFunctionEndAccess
p1765
(dp1766
g276
(lp1767
(i__main__
DelphiIdentAccess
p1768
(dp1769
g245
S'oldPlantIndex'
p1770
sg247
(lp1771
sba(i__main__
DelphiIdentAccess
p1772
(dp1773
g245
S'newPlant'
p1774
sg247
(lp1775
sbasbasbsbasbsbasbsg299
(lp1776
(i__main__
DelphiVarSection
p1777
(dp1778
g750
I0
sg751
(lp1779
(idelphi
DelphiVarDecl
p1780
(dp1781
g755
Nsg756
(lp1782
S'oldPlantIndex'
p1783
asg33
(i__main__
DelphiPrimitiveType
p1784
(dp1785
g36
g144
sbsbasbasbsbsS'firstselectedplant'
p1786
(i__main__
DelphiMethodImplementation
p1787
(dp1788
g205
g126
sg17
g128
sg25
(lp1789
sg220
(lp1790
sg222
(lp1791
sg224
(lp1792
g226
asg227
(dp1793
sg48
S'PdGeneration'
p1794
sg49
(i__main__
DelphiNamedType
p1795
(dp1796
g36
S'PdPlant'
p1797
sg38
g1
sg39
Nsbsg230
(lp1798
sg50
I0
sg51
g61
sg232
(i__main__
DelphiBlock
p1799
(dp1800
g235
(idelphi
DelphiCompoundStatement
p1801
(dp1802
g238
(lp1803
(i__main__
DelphiAssignStatement
p1804
(dp1805
g255
(idelphi
DelphiNilValue
p1806
(dp1807
bsg256
(i__main__
DelphiIdentAccess
p1808
(dp1809
g245
S'result'
p1810
sg247
(lp1811
sbsba(idelphi
DelphiIfStatement
p1812
(dp1813
g242
(idelphi
DelphiRelOp
p1814
(dp1815
g331
(i__main__
DelphiIdentAccess
p1816
(dp1817
g245
S'selectedPlants'
p1818
sg247
(lp1819
(idelphi
DelphiFieldEndAccess
p1820
(dp1821
g263
S'count'
p1822
sbasbsg339
(idelphi
DelphiIntegerValue
p1823
(dp1824
g342
S'0'
sbsg343
S'>'
sbsg249
Nsg282
(i__main__
DelphiAssignStatement
p1825
(dp1826
g255
(i__main__
DelphiIdentAccess
p1827
(dp1828
g245
S'PdPlant'
p1829
sg247
(lp1830
(idelphi
DelphiFunctionEndAccess
p1831
(dp1832
g276
(lp1833
(i__main__
DelphiIdentAccess
p1834
(dp1835
g245
S'selectedPlants'
p1836
sg247
(lp1837
(idelphi
DelphiFieldEndAccess
p1838
(dp1839
g263
S'items'
p1840
sba(idelphi
DelphiArrayEndAccess
p1841
(dp1842
g276
(lp1843
(idelphi
DelphiIntegerValue
p1844
(dp1845
g342
S'0'
sbasbasbasbasbsg256
(i__main__
DelphiIdentAccess
p1846
(dp1847
g245
S'result'
p1848
sg247
(lp1849
sbsbsbasbsg299
(lp1850
sbsbsS'plantforindex'
p1851
(i__main__
DelphiMethodImplementation
p1852
(dp1853
g205
g134
sg17
g136
sg25
(lp1854
(i__main__
DelphiFormalParameter
p1855
(dp1856
g29
Nsg30
(lp1857
g141
asg33
(i__main__
DelphiPrimitiveType
p1858
(dp1859
g36
g144
sbsg40
Nsbasg220
(lp1860
sg222
(lp1861
sg224
(lp1862
g226
ag141
asg227
(dp1863
g141
g1858
ssg48
S'PdGeneration'
p1864
sg49
(i__main__
DelphiNamedType
p1865
(dp1866
g36
S'PdPlant'
p1867
sg38
g1
sg39
Nsbsg230
(lp1868
sg50
I0
sg51
g61
sg232
(i__main__
DelphiBlock
p1869
(dp1870
g235
(idelphi
DelphiCompoundStatement
p1871
(dp1872
g238
(lp1873
(i__main__
DelphiAssignStatement
p1874
(dp1875
g255
(idelphi
DelphiNilValue
p1876
(dp1877
bsg256
(i__main__
DelphiIdentAccess
p1878
(dp1879
g245
S'result'
p1880
sg247
(lp1881
sbsba(idelphi
DelphiIfStatement
p1882
(dp1883
g242
(idelphi
DelphiRelOp
p1884
(dp1885
g331
(i__main__
DelphiIdentAccess
p1886
(dp1887
g245
g141
sg247
(lp1888
sbsg339
(idelphi
DelphiIntegerValue
p1889
(dp1890
g342
S'0'
sbsg343
S'<'
sbsg249
Nsg282
(i__main__
DelphiExitStatement
p1891
(dp1892
g452
g1852
sbsba(idelphi
DelphiIfStatement
p1893
(dp1894
g242
(idelphi
DelphiRelOp
p1895
(dp1896
g331
(i__main__
DelphiIdentAccess
p1897
(dp1898
g245
g141
sg247
(lp1899
sbsg339
(idelphi
DelphiAddOp
p1900
(dp1901
g954
S'-'
sg955
(idelphi
DelphiIntegerValue
p1902
(dp1903
g342
S'1'
sbsg962
(i__main__
DelphiIdentAccess
p1904
(dp1905
g245
S'plants'
p1906
sg247
(lp1907
(idelphi
DelphiFieldEndAccess
p1908
(dp1909
g263
S'count'
p1910
sbasbsbsg343
S'>'
sbsg249
Nsg282
(i__main__
DelphiExitStatement
p1911
(dp1912
g452
g1852
sbsba(idelphi
DelphiIfStatement
p1913
(dp1914
g242
(idelphi
DelphiRelOp
p1915
(dp1916
g331
(i__main__
DelphiIdentAccess
p1917
(dp1918
g245
S'plants'
p1919
sg247
(lp1920
(idelphi
DelphiFieldEndAccess
p1921
(dp1922
g263
S'items'
p1923
sba(idelphi
DelphiArrayEndAccess
p1924
(dp1925
g276
(lp1926
(i__main__
DelphiIdentAccess
p1927
(dp1928
g245
g141
sg247
(lp1929
sbasbasbsg339
(idelphi
DelphiNilValue
p1930
(dp1931
bsg343
S'='
sbsg249
Nsg282
(i__main__
DelphiExitStatement
p1932
(dp1933
g452
g1852
sbsba(i__main__
DelphiAssignStatement
p1934
(dp1935
g255
(i__main__
DelphiIdentAccess
p1936
(dp1937
g245
S'PdPlant'
p1938
sg247
(lp1939
(idelphi
DelphiFunctionEndAccess
p1940
(dp1941
g276
(lp1942
(i__main__
DelphiIdentAccess
p1943
(dp1944
g245
S'plants'
p1945
sg247
(lp1946
(idelphi
DelphiFieldEndAccess
p1947
(dp1948
g263
S'items'
p1949
sba(idelphi
DelphiArrayEndAccess
p1950
(dp1951
g276
(lp1952
(i__main__
DelphiIdentAccess
p1953
(dp1954
g245
g141
sg247
(lp1955
sbasbasbasbasbsg256
(i__main__
DelphiIdentAccess
p1956
(dp1957
g245
S'result'
p1958
sg247
(lp1959
sbsbasbsg299
(lp1960
sbsbsS'destroy'
p1961
(i__main__
DelphiMethodImplementation
p1962
(dp1963
g205
g149
sg17
g151
sg25
(lp1964
sg220
(lp1965
sg222
(lp1966
sg224
(lp1967
g226
asg227
(dp1968
sg48
S'PdGeneration'
p1969
sg49
Nsg230
(lp1970
sg50
I0
sg51
g153
sg232
(i__main__
DelphiBlock
p1971
(dp1972
g235
(idelphi
DelphiCompoundStatement
p1973
(dp1974
g238
(lp1975
(i__main__
DelphiAssignStatement
p1976
(dp1977
g255
Nsg256
(i__main__
DelphiIdentAccess
p1978
(dp1979
g245
S'plants'
p1980
sg247
(lp1981
(idelphi
DelphiFieldEndAccess
p1982
(dp1983
g263
S'free'
p1984
sbasbsba(i__main__
DelphiAssignStatement
p1985
(dp1986
g255
(idelphi
DelphiNilValue
p1987
(dp1988
bsg256
(i__main__
DelphiIdentAccess
p1989
(dp1990
g245
S'plants'
p1991
sg247
(lp1992
sbsba(i__main__
DelphiAssignStatement
p1993
(dp1994
g255
Nsg256
(i__main__
DelphiIdentAccess
p1995
(dp1996
g245
S'selectedPlants'
p1997
sg247
(lp1998
(idelphi
DelphiFieldEndAccess
p1999
(dp2000
g263
S'free'
p2001
sbasbsba(i__main__
DelphiAssignStatement
p2002
(dp2003
g255
(idelphi
DelphiNilValue
p2004
(dp2005
bsg256
(i__main__
DelphiIdentAccess
p2006
(dp2007
g245
S'selectedPlants'
p2008
sg247
(lp2009
sbsba(i__main__
DelphiAssignStatement
p2010
(dp2011
g255
Nsg256
(idelphi
DelphiInheritedCall
p2012
(dp2013
g245
S'destroy'
p2014
sg276
Nsbsbasbsg299
(lp2015
sbsbsS'setlocaloptionstodomainoptions'
p2016
(i__main__
DelphiMethodImplementation
p2017
(dp2018
g205
g155
sg17
g157
sg25
(lp2019
(i__main__
DelphiFormalParameter
p2020
(dp2021
g29
Nsg30
(lp2022
S'localOptions'
p2023
asg33
(i__main__
DelphiNamedType
p2024
(dp2025
g36
S'BreedingAndTimeSeriesOptionsStructure'
p2026
sg38
g1
sg39
Nsbsg40
g166
sbasg220
(lp2027
sg222
(lp2028
g2023
asg224
(lp2029
g226
ag2023
asg227
(dp2030
g2023
g2024
ssg48
S'PdGeneration'
p2031
sg49
Nsg230
(lp2032
sg50
I0
sg51
g52
sg232
(i__main__
DelphiBlock
p2033
(dp2034
g235
(idelphi
DelphiCompoundStatement
p2035
(dp2036
g238
(lp2037
(idelphi
DelphiWithStatement
p2038
(dp2039
g1155
(idelphi
DelphiCompoundStatement
p2040
(dp2041
g238
(lp2042
(idelphi
DelphiForStatement
p2043
(dp2044
g1255
S'i'
sg1256
(i__main__
DelphiIdentAccess
p2045
(dp2046
g245
S'kMaxBreedingSections'
p2047
sg247
(lp2048
sbsg1271
g1272
sg29
(idelphi
DelphiIntegerValue
p2049
(dp2050
g342
S'0'
sbsg1155
(i__main__
DelphiAssignStatement
p2051
(dp2052
g255
(idelphi
DelphiIntegerValue
p2053
(dp2054
g342
S'50'
p2055
sbsg256
(i__main__
DelphiIdentAccess
p2056
(dp2057
g245
S'firstPlantWeights'
p2058
sg247
(lp2059
(idelphi
DelphiArrayEndAccess
p2060
(dp2061
g276
(lp2062
(i__main__
DelphiIdentAccess
p2063
(dp2064
g245
S'i'
sg247
(lp2065
sbasbasbsg408
(lp2066
S' defaults\r'
p2067
asbsba(i__main__
DelphiAssignStatement
p2068
(dp2069
g255
(i__main__
DelphiIdentAccess
p2070
(dp2071
g245
S'kFromPlantWithGreaterWeightForSectionIfEqualChooseRandomly'
p2072
sg247
(lp2073
sbsg256
(i__main__
DelphiIdentAccess
p2074
(dp2075
g245
S'getNonNumericalParametersFrom'
p2076
sg247
(lp2077
sbsba(i__main__
DelphiAssignStatement
p2078
(dp2079
g255
(i__main__
DelphiIdentAccess
p2080
(dp2081
g245
S'domain'
p2082
sg247
(lp2083
(idelphi
DelphiFieldEndAccess
p2084
(dp2085
g263
S'breedingAndTimeSeriesOptions'
p2086
sba(idelphi
DelphiFieldEndAccess
p2087
(dp2088
g263
S'mutateAndBlendColorValues'
p2089
sbasbsg256
(i__main__
DelphiIdentAccess
p2090
(dp2091
g245
S'mutateAndBlendColorValues'
p2092
sg247
(lp2093
sbsg408
(lp2094
S' copy (done separate from low/med/custom) v2.0\r'
p2095
asba(i__main__
DelphiAssignStatement
p2096
(dp2097
g255
(i__main__
DelphiIdentAccess
p2098
(dp2099
g245
S'domain'
p2100
sg247
(lp2101
(idelphi
DelphiFieldEndAccess
p2102
(dp2103
g263
S'breedingAndTimeSeriesOptions'
p2104
sba(idelphi
DelphiFieldEndAccess
p2105
(dp2106
g263
S'chooseTdosRandomlyFromCurrentLibrary'
p2107
sbasbsg256
(i__main__
DelphiIdentAccess
p2108
(dp2109
g245
S'chooseTdosRandomlyFromCurrentLibrary'
p2110
sg247
(lp2111
sbsba(idelphi
DelphiCaseStatement
p2112
(dp2113
S'elseStatement'
p2114
Nsg242
(i__main__
DelphiIdentAccess
p2115
(dp2116
g245
S'domain'
p2117
sg247
(lp2118
(idelphi
DelphiFieldEndAccess
p2119
(dp2120
g263
S'breedingAndTimeSeriesOptions'
p2121
sba(idelphi
DelphiFieldEndAccess
p2122
(dp2123
g263
S'variationType'
p2124
sbasbsS'caseSelectorList'
p2125
(lp2126
(idelphi
DelphiCaseSelector
p2127
(dp2128
g1155
(idelphi
DelphiCompoundStatement
p2129
(dp2130
g238
(lp2131
(idelphi
DelphiForStatement
p2132
(dp2133
g1255
S'i'
sg1256
(i__main__
DelphiIdentAccess
p2134
(dp2135
g245
S'kMaxBreedingSections'
p2136
sg247
(lp2137
sbsg1271
g1272
sg29
(idelphi
DelphiIntegerValue
p2138
(dp2139
g342
S'0'
sbsg1155
(i__main__
DelphiAssignStatement
p2140
(dp2141
g255
(i__main__
DelphiIdentAccess
p2142
(dp2143
g245
S'kLowMutation'
p2144
sg247
(lp2145
sbsg256
(i__main__
DelphiIdentAccess
p2146
(dp2147
g245
S'mutationStrengths'
p2148
sg247
(lp2149
(idelphi
DelphiArrayEndAccess
p2150
(dp2151
g276
(lp2152
(i__main__
DelphiIdentAccess
p2153
(dp2154
g245
S'i'
sg247
(lp2155
sbasbasbsbsbasbsS'caseLabelList'
p2156
(lp2157
(i__main__
DelphiIdentAccess
p2158
(dp2159
g245
S'kBreederVariationLow'
p2160
sg247
(lp2161
sbasba(idelphi
DelphiCaseSelector
p2162
(dp2163
g1155
(idelphi
DelphiCompoundStatement
p2164
(dp2165
g238
(lp2166
(idelphi
DelphiForStatement
p2167
(dp2168
g1255
S'i'
sg1256
(i__main__
DelphiIdentAccess
p2169
(dp2170
g245
S'kMaxBreedingSections'
p2171
sg247
(lp2172
sbsg1271
g1272
sg29
(idelphi
DelphiIntegerValue
p2173
(dp2174
g342
S'0'
sbsg1155
(i__main__
DelphiAssignStatement
p2175
(dp2176
g255
(i__main__
DelphiIdentAccess
p2177
(dp2178
g245
S'kMediumMutation'
p2179
sg247
(lp2180
sbsg256
(i__main__
DelphiIdentAccess
p2181
(dp2182
g245
S'mutationStrengths'
p2183
sg247
(lp2184
(idelphi
DelphiArrayEndAccess
p2185
(dp2186
g276
(lp2187
(i__main__
DelphiIdentAccess
p2188
(dp2189
g245
S'i'
sg247
(lp2190
sbasbasbsbsbasbsg2156
(lp2191
(i__main__
DelphiIdentAccess
p2192
(dp2193
g245
S'kBreederVariationMedium'
p2194
sg247
(lp2195
sbasba(idelphi
DelphiCaseSelector
p2196
(dp2197
g1155
(idelphi
DelphiCompoundStatement
p2198
(dp2199
g238
(lp2200
(idelphi
DelphiForStatement
p2201
(dp2202
g1255
S'i'
sg1256
(i__main__
DelphiIdentAccess
p2203
(dp2204
g245
S'kMaxBreedingSections'
p2205
sg247
(lp2206
sbsg1271
g1272
sg29
(idelphi
DelphiIntegerValue
p2207
(dp2208
g342
S'0'
sbsg1155
(i__main__
DelphiAssignStatement
p2209
(dp2210
g255
(i__main__
DelphiIdentAccess
p2211
(dp2212
g245
S'kHighMutation'
p2213
sg247
(lp2214
sbsg256
(i__main__
DelphiIdentAccess
p2215
(dp2216
g245
S'mutationStrengths'
p2217
sg247
(lp2218
(idelphi
DelphiArrayEndAccess
p2219
(dp2220
g276
(lp2221
(i__main__
DelphiIdentAccess
p2222
(dp2223
g245
S'i'
sg247
(lp2224
sbasbasbsbsbasbsg2156
(lp2225
(i__main__
DelphiIdentAccess
p2226
(dp2227
g245
S'kBreederVariationHigh'
p2228
sg247
(lp2229
sbasba(idelphi
DelphiCaseSelector
p2230
(dp2231
g1155
(idelphi
DelphiCompoundStatement
p2232
(dp2233
g238
(lp2234
(i__main__
DelphiAssignStatement
p2235
(dp2236
g255
(i__main__
DelphiIdentAccess
p2237
(dp2238
g245
S'domain'
p2239
sg247
(lp2240
(idelphi
DelphiFieldEndAccess
p2241
(dp2242
g263
S'breedingAndTimeSeriesOptions'
p2243
sbasbsg256
(i__main__
DelphiIdentAccess
p2244
(dp2245
g245
S'localOptions'
p2246
sg247
(lp2247
sbsbasbsg2156
(lp2248
(i__main__
DelphiIdentAccess
p2249
(dp2250
g245
S'kBreederVariationCustom'
p2251
sg247
(lp2252
sbasba(idelphi
DelphiCaseSelector
p2253
(dp2254
g1155
(idelphi
DelphiCompoundStatement
p2255
(dp2256
g238
(lp2257
(idelphi
DelphiForStatement
p2258
(dp2259
g1255
S'i'
sg1256
(i__main__
DelphiIdentAccess
p2260
(dp2261
g245
S'kMaxBreedingSections'
p2262
sg247
(lp2263
sbsg1271
g1272
sg29
(idelphi
DelphiIntegerValue
p2264
(dp2265
g342
S'0'
sbsg1155
(i__main__
DelphiAssignStatement
p2266
(dp2267
g255
(i__main__
DelphiIdentAccess
p2268
(dp2269
g245
S'kNoMutation'
p2270
sg247
(lp2271
sbsg256
(i__main__
DelphiIdentAccess
p2272
(dp2273
g245
S'mutationStrengths'
p2274
sg247
(lp2275
(idelphi
DelphiArrayEndAccess
p2276
(dp2277
g276
(lp2278
(i__main__
DelphiIdentAccess
p2279
(dp2280
g245
S'i'
sg247
(lp2281
sbasbasbsbsbasbsg2156
(lp2282
(i__main__
DelphiIdentAccess
p2283
(dp2284
g245
S'kBreederVariationNoNumeric'
p2285
sg247
(lp2286
sbasbasbasbsS'variableReferenceList'
p2287
(lp2288
(i__main__
DelphiIdentAccess
p2289
(dp2290
g245
S'localOptions'
p2291
sg247
(lp2292
sbasbasbsg299
(lp2293
(i__main__
DelphiVarSection
p2294
(dp2295
g750
I0
sg751
(lp2296
(idelphi
DelphiVarDecl
p2297
(dp2298
g755
Nsg756
(lp2299
S'i'
asg33
(i__main__
DelphiPrimitiveType
p2300
(dp2301
g36
g144
sbsbasbasbsbssS'propertyDeclarations'
p2302
(dp2303
sS'variableNamesInDeclaredOrder'
p2304
(lp2305
g12
ag10
ag16
ag14
asbasS'includedUnits'
p2306
NsS'implementationUses'
p2307
(lp2308
S'SysUtils'
p2309
aS'Dialogs'
p2310
aS'udomain'
p2311
aS'umath'
p2312
aS'utdo'
p2313
aS'usupport'
p2314
asg17
S'Ugener'
p2315
sS'constSections'
p2316
(lp2317
sS'globalsInProperCase'
p2318
NsS'interfaceUses'
p2319
(lp2320
S'delphi_compatability'
p2321
aS'Classes'
p2322
aS'uplant'
p2323
aS'ucollect'
p2324
asS'finalCommentToken'
p2325
(i__main__
PassStatement
p2326
(dp2327
g299
(lp2328
sbsS'varSections'
p2329
(lp2330
sS'globals'
p2331
NsS'originalFileName'
p2332
S'../../PlantStudioInPython/converted_source/used/ugener.pas'
p2333
sS'proceduralImplementations'
p2334
(dp2335
sS'fileName'
p2336
S'/Users/pdf/Documents/workspace/PlantStudioInPython/converted_source/used/ugener.pas'
p2337
sS'proceduralDeclarations'
p2338
(dp2339
sS'types'
p2340
(dp2341
S'pdgeneration'
p2342
g5
ssb.