(i__main__
DelphiUnit
p1
(dp2
S'sectionsInOrderDefined'
p3
(lp4
(i__main__
DelphiConstSection
p5
(dp6
S'constDeclList'
p7
(lp8
(idelphi
DelphiConstDeclaration
p9
(dp10
S'constExpression'
p11
(idelphi
DelphiIntegerValue
p12
(dp13
S'string'
p14
S'49'
p15
sbsS'ident'
p16
S'kNumCompoundLeafRandomSwayIndexes'
p17
sS'theType'
p18
(idelphi
DelphiPrimitiveType
p19
(dp20
S'typeName'
p21
S'UNDEFINED_NEEDS_CALCULATION'
p22
sbsbasS'atTopLevel'
p23
I1
sba(i__main__
DelphiClass
p24
(dp25
S'variableNamesInProperCase'
p26
(dp27
S'compoundleafrandomswayindexes'
p28
S'compoundLeafRandomSwayIndexes'
p29
sS'biomassatcreation_pctmpb'
p30
S'biomassAtCreation_pctMPB'
p31
sS'scurveparams'
p32
S'sCurveParams'
p33
sS'propfullsize'
p34
S'propFullSize'
p35
ssS'name'
p36
S'PdLeaf'
p37
sS'methodDeclarations'
p38
(dp39
S'drawcompoundleafinternode'
p40
(i__main__
DelphiMethodDeclaration
p41
(dp42
g36
S'drawCompoundLeafInternode'
p43
sS'formalParameters'
p44
(lp45
(i__main__
DelphiFormalParameter
p46
(dp47
S'initialValue'
p48
NsS'names'
p49
(lp50
S'count'
p51
asg18
(i__main__
DelphiPrimitiveType
p52
(dp53
g21
S'integer'
p54
sbsS'parameterVariety'
p55
NsbasS'className'
p56
g37
sS'resultType'
p57
NsS'isClassMethod'
p58
I0
sS'methodType'
p59
S'procedure'
p60
sbsS'optimalinitialbiomass_pctmpb'
p61
(i__main__
DelphiMethodDeclaration
p62
(dp63
g36
S'optimalInitialBiomass_pctMPB'
p64
sg44
(lp65
(i__main__
DelphiFormalParameter
p66
(dp67
g48
Nsg49
(lp68
S'drawingPlant'
p69
asg18
(i__main__
DelphiNamedType
p70
(dp71
g21
S'PdPlant'
p72
sS'unitDefinedIn'
p73
g1
sS'unitName'
p74
Nsbsg55
Nsbasg56
g37
sg57
(i__main__
DelphiPrimitiveType
p75
(dp76
g21
S'single'
p77
sbsg58
I1
sg59
S'function'
p78
sbsS'drawcompoundleafpalmate'
p79
(i__main__
DelphiMethodDeclaration
p80
(dp81
g36
S'drawCompoundLeafPalmate'
p82
sg44
(lp83
sg56
g37
sg57
Nsg58
I0
sg59
g60
sbsS'drawcompoundleafpetioletcount'
p84
(i__main__
DelphiMethodDeclaration
p85
(dp86
g36
S'DrawCompoundLeafPetioletCount'
p87
sg44
(lp88
(i__main__
DelphiFormalParameter
p89
(dp90
g48
Nsg49
(lp91
S'scale'
p92
asg18
(i__main__
DelphiPrimitiveType
p93
(dp94
g21
g77
sbsg55
Nsba(i__main__
DelphiFormalParameter
p95
(dp96
g48
Nsg49
(lp97
S'aCount'
p98
asg18
(i__main__
DelphiPrimitiveType
p99
(dp100
g21
g54
sbsg55
Nsbasg56
g37
sg57
Nsg58
I0
sg59
g60
sbsS'compoundleafanglewithsway'
p101
(i__main__
DelphiMethodDeclaration
p102
(dp103
g36
S'compoundLeafAngleWithSway'
p104
sg44
(lp105
(i__main__
DelphiFormalParameter
p106
(dp107
g48
Nsg49
(lp108
S'angle'
p109
asg18
(i__main__
DelphiPrimitiveType
p110
(dp111
g21
g77
sbsg55
Nsba(i__main__
DelphiFormalParameter
p112
(dp113
g48
Nsg49
(lp114
S'count'
p115
asg18
(i__main__
DelphiPrimitiveType
p116
(dp117
g21
g54
sbsg55
Nsbasg56
g37
sg57
(i__main__
DelphiPrimitiveType
p118
(dp119
g21
g77
sbsg58
I0
sg59
g78
sbsS'wiltleaf'
p120
(i__main__
DelphiMethodDeclaration
p121
(dp122
g36
S'wiltLeaf'
p123
sg44
(lp124
sg56
g37
sg57
Nsg58
I0
sg59
g60
sbsS'classandversioninformation'
p125
(i__main__
DelphiMethodDeclaration
p126
(dp127
g36
S'classAndVersionInformation'
p128
sg44
(lp129
(i__main__
DelphiFormalParameter
p130
(dp131
g48
Nsg49
(lp132
S'cvir'
p133
asg18
(i__main__
DelphiNamedType
p134
(dp135
g21
S'PdClassAndVersionInformationRecord'
p136
sg73
g1
sg74
Nsbsg55
S'var'
p137
sbasg56
g37
sg57
Nsg58
I0
sg59
g60
sbsS'bendangleforcompoundleaf'
p138
(i__main__
DelphiMethodDeclaration
p139
(dp140
g36
S'bendAngleForCompoundLeaf'
p141
sg44
(lp142
(i__main__
DelphiFormalParameter
p143
(dp144
g48
Nsg49
(lp145
S'count'
p146
asg18
(i__main__
DelphiPrimitiveType
p147
(dp148
g21
g54
sbsg55
Nsbasg56
g37
sg57
(i__main__
DelphiPrimitiveType
p149
(dp150
g21
g77
sbsg58
I0
sg59
g78
sbsS'nextday'
p151
(i__main__
DelphiMethodDeclaration
p152
(dp153
g36
S'nextDay'
p154
sg44
(lp155
sg56
g37
sg57
Nsg58
I0
sg59
g60
sbsS'streamdatawithfiler'
p156
(i__main__
DelphiMethodDeclaration
p157
(dp158
g36
S'streamDataWithFiler'
p159
sg44
(lp160
(i__main__
DelphiFormalParameter
p161
(dp162
g48
Nsg49
(lp163
S'filer'
p164
asg18
(i__main__
DelphiNamedType
p165
(dp166
g21
S'PdFiler'
p167
sg73
g1
sg74
Nsbsg55
Nsba(i__main__
DelphiFormalParameter
p168
(dp169
g48
Nsg49
(lp170
S'cvir'
p171
asg18
(i__main__
DelphiNamedType
p172
(dp173
g21
S'PdClassAndVersionInformationRecord'
p174
sg73
g1
sg74
Nsbsg55
S'const'
p175
sbasg56
g37
sg57
Nsg58
I0
sg59
g60
sbsS'drawstipule'
p176
(i__main__
DelphiMethodDeclaration
p177
(dp178
g36
S'drawStipule'
p179
sg44
(lp180
sg56
g37
sg57
Nsg58
I0
sg59
g60
sbsS'tdotosortlineswith'
p181
(i__main__
DelphiMethodDeclaration
p182
(dp183
g36
S'tdoToSortLinesWith'
p184
sg44
(lp185
sg56
g37
sg57
(i__main__
DelphiNamedType
p186
(dp187
g21
S'KfObject3D'
p188
sg73
g1
sg74
Nsbsg58
I0
sg59
g78
sbsS'newwithplantfractionofoptimalsize'
p189
(i__main__
DelphiMethodDeclaration
p190
(dp191
g36
S'NewWithPlantFractionOfOptimalSize'
p192
sg44
(lp193
(i__main__
DelphiFormalParameter
p194
(dp195
g48
Nsg49
(lp196
S'aPlant'
p197
asg18
(i__main__
DelphiNamedType
p198
(dp199
g21
S'PdPlant'
p200
sg73
g1
sg74
Nsbsg55
Nsba(i__main__
DelphiFormalParameter
p201
(dp202
g48
Nsg49
(lp203
S'aFraction'
p204
asg18
(i__main__
DelphiPrimitiveType
p205
(dp206
g21
g77
sbsg55
Nsbasg56
g37
sg57
(i__main__
DelphiNamedType
p207
(dp208
g21
S'PdLeaf'
p209
sg73
g1
sg74
Nsbsg58
I1
sg59
g78
sbsS'initializefractionofoptimalsize'
p210
(i__main__
DelphiMethodDeclaration
p211
(dp212
g36
S'initializeFractionOfOptimalSize'
p213
sg44
(lp214
(i__main__
DelphiFormalParameter
p215
(dp216
g48
Nsg49
(lp217
S'thePlant'
p218
asg18
(i__main__
DelphiNamedType
p219
(dp220
g21
S'PdPlant'
p221
sg73
g1
sg74
Nsbsg55
Nsba(i__main__
DelphiFormalParameter
p222
(dp223
g48
Nsg49
(lp224
S'aFraction'
p225
asg18
(i__main__
DelphiPrimitiveType
p226
(dp227
g21
g77
sbsg55
Nsbasg56
g37
sg57
Nsg58
I0
sg59
g60
sbsS'destroy'
p228
(i__main__
DelphiMethodDeclaration
p229
(dp230
g36
S'destroy'
p231
sg44
(lp232
sg56
g37
sg57
Nsg58
I0
sg59
S'destructor'
p233
sbsS'drawwithdirection'
p234
(i__main__
DelphiMethodDeclaration
p235
(dp236
g36
S'drawWithDirection'
p237
sg44
(lp238
(i__main__
DelphiFormalParameter
p239
(dp240
g48
Nsg49
(lp241
S'direction'
p242
asg18
(i__main__
DelphiPrimitiveType
p243
(dp244
g21
g77
sbsg55
Nsbasg56
g37
sg57
Nsg58
I0
sg59
g60
sbsS'parttype'
p245
(i__main__
DelphiMethodDeclaration
p246
(dp247
g36
S'partType'
p248
sg44
(lp249
sg56
g37
sg57
(i__main__
DelphiPrimitiveType
p250
(dp251
g21
g54
sbsg58
I0
sg59
g78
sbsS'getname'
p252
(i__main__
DelphiMethodDeclaration
p253
(dp254
g36
S'getName'
p255
sg44
(lp256
sg56
g37
sg57
(i__main__
DelphiPrimitiveType
p257
(dp258
g21
g14
sbsg58
I0
sg59
g78
sbsS'drawleaforleaflet'
p259
(i__main__
DelphiMethodDeclaration
p260
(dp261
g36
S'DrawLeafOrLeaflet'
p262
sg44
(lp263
(i__main__
DelphiFormalParameter
p264
(dp265
g48
Nsg49
(lp266
S'aScale'
p267
asg18
(i__main__
DelphiPrimitiveType
p268
(dp269
g21
g77
sbsg55
Nsbasg56
g37
sg57
Nsg58
I0
sg59
g60
sbsS'report'
p270
(i__main__
DelphiMethodDeclaration
p271
(dp272
g36
S'report'
p273
sg44
(lp274
sg56
g37
sg57
Nsg58
I0
sg59
g60
sbsS'countpointsandtrianglesfor3dexportandaddtotraversertotals'
p275
(i__main__
DelphiMethodDeclaration
p276
(dp277
g36
S'countPointsAndTrianglesFor3DExportAndAddToTraverserTotals'
p278
sg44
(lp279
(i__main__
DelphiFormalParameter
p280
(dp281
g48
Nsg49
(lp282
S'traverser'
p283
asg18
(i__main__
DelphiNamedType
p284
(dp285
g21
S'PdTraverser'
p286
sg73
g1
sg74
Nsbsg55
Nsbasg56
g37
sg57
Nsg58
I0
sg59
g60
sbsS'checkifhasabscissed'
p287
(i__main__
DelphiMethodDeclaration
p288
(dp289
g36
S'checkIfHasAbscissed'
p290
sg44
(lp291
sg56
g37
sg57
Nsg58
I0
sg59
g60
sbsS'traverseactivity'
p292
(i__main__
DelphiMethodDeclaration
p293
(dp294
g36
S'traverseActivity'
p295
sg44
(lp296
(i__main__
DelphiFormalParameter
p297
(dp298
g48
Nsg49
(lp299
S'mode'
p300
asg18
(i__main__
DelphiPrimitiveType
p301
(dp302
g21
g54
sbsg55
Nsba(i__main__
DelphiFormalParameter
p303
(dp304
g48
Nsg49
(lp305
S'traverserProxy'
p306
asg18
(i__main__
DelphiNamedType
p307
(dp308
g21
S'TObject'
p309
sg73
g1
sg74
Nsbsg55
Nsbasg56
g37
sg57
Nsg58
I0
sg59
g60
sbsS'isphytomer'
p310
(i__main__
DelphiMethodDeclaration
p311
(dp312
g36
S'isPhytomer'
p313
sg44
(lp314
sg56
g37
sg57
(i__main__
DelphiPrimitiveType
p315
(dp316
g21
S'boolean'
p317
sbsg58
I0
sg59
g78
sbsS'drawcompoundleafpinnate'
p318
(i__main__
DelphiMethodDeclaration
p319
(dp320
g36
S'drawCompoundLeafPinnate'
p321
sg44
(lp322
sg56
g37
sg57
Nsg58
I0
sg59
g60
sbssS'superclassNamedTypes'
p323
(lp324
(i__main__
DelphiNamedType
p325
(dp326
g21
S'PdPlantPart'
p327
sg73
g1
sg74
NsbasS'variableNames'
p328
(dp329
S'compoundleafrandomswayindexes'
p330
(i__main__
DelphiArrayType
p331
(dp332
g18
(i__main__
DelphiPrimitiveType
p333
(dp334
g21
g77
sbsS'sizes'
p335
(lp336
(idelphi
DelphiSubrange
p337
(dp338
S'high'
p339
(i__main__
DelphiIdentAccess
p340
(dp341
g16
S'kNumCompoundLeafRandomSwayIndexes'
p342
sS'endAccessList'
p343
(lp344
sbsS'low'
p345
(idelphi
DelphiIntegerValue
p346
(dp347
g14
S'0'
sbsg36
S''
sbasbsS'biomassatcreation_pctmpb'
p348
(i__main__
DelphiPrimitiveType
p349
(dp350
g21
g77
sbsS'scurveparams'
p351
(i__main__
DelphiNamedType
p352
(dp353
g21
S'SCurveStructure'
p354
sg73
g1
sg74
NsbsS'propfullsize'
p355
(i__main__
DelphiPrimitiveType
p356
(dp357
g21
g77
sbssS'methodNamesInDefinedOrder'
p358
(lp359
S'newwithplantfractionofoptimalsize'
p360
aS'initializefractionofoptimalsize'
p361
aS'optimalinitialbiomass_pctmpb'
p362
aS'getname'
p363
aS'nextday'
p364
aS'traverseactivity'
p365
aS'checkifhasabscissed'
p366
aS'destroy'
p367
aS'isphytomer'
p368
aS'countpointsandtrianglesfor3dexportandaddtotraversertotals'
p369
aS'tdotosortlineswith'
p370
aS'drawwithdirection'
p371
aS'wiltleaf'
p372
aS'drawstipule'
p373
aS'drawleaforleaflet'
p374
aS'drawcompoundleafpinnate'
p375
aS'drawcompoundleafinternode'
p376
aS'bendangleforcompoundleaf'
p377
aS'drawcompoundleafpetioletcount'
p378
aS'compoundleafanglewithsway'
p379
aS'drawcompoundleafpalmate'
p380
aS'report'
p381
aS'parttype'
p382
aS'classandversioninformation'
p383
aS'streamdatawithfiler'
p384
asS'methodImplementations'
p385
(dp386
S'drawcompoundleafinternode'
p387
(i__main__
DelphiMethodImplementation
p388
(dp389
S'originalDeclaration'
p390
g41
sg36
g43
sg44
(lp391
(i__main__
DelphiFormalParameter
p392
(dp393
g48
Nsg49
(lp394
S'count'
p395
asg18
(i__main__
DelphiPrimitiveType
p396
(dp397
g21
g54
sbsg55
NsbasS'varParamIndexes'
p398
(lp399
sS'varParamsSkipped'
p400
(lp401
sS'argNames'
p402
(lp403
S'self'
p404
ag395
asS'argTypes'
p405
(dp406
g395
g396
ssg56
S'PdLeaf'
p407
sg57
NsS'varParamNames'
p408
(lp409
sg58
I0
sg59
g60
sS'block'
p410
(i__main__
DelphiBlock
p411
(dp412
S'compoundStatement'
p413
(idelphi
DelphiCompoundStatement
p414
(dp415
S'statements'
p416
(lp417
(i__main__
DelphiAssignStatement
p418
(dp419
S'newValueExpression'
p420
(idelphi
DelphiMulOp
p421
(dp422
S'signedFactor2'
p423
(idelphi
DelphiRealValue
p424
(dp425
g14
S'100.0'
p426
sbsS'mulOp'
p427
S'/'
sS'signedFactor1'
p428
(idelphi
DelphiMulOp
p429
(dp430
g423
(i__main__
DelphiIdentAccess
p431
(dp432
g16
S'plant'
p433
sg343
(lp434
(idelphi
DelphiFieldEndAccess
p435
(dp436
S'field'
p437
S'pLeaf'
p438
sba(idelphi
DelphiFieldEndAccess
p439
(dp440
g437
S'compoundRachisToPetioleRatio'
p441
sbasbsg427
S'*'
sg428
(idelphi
DelphiMulOp
p442
(dp443
g423
(i__main__
DelphiIdentAccess
p444
(dp445
g16
S'propFullSize'
p446
sg343
(lp447
sbsg427
S'*'
sg428
(i__main__
DelphiIdentAccess
p448
(dp449
g16
S'plant'
p450
sg343
(lp451
(idelphi
DelphiFieldEndAccess
p452
(dp453
g437
S'pLeaf'
p454
sba(idelphi
DelphiFieldEndAccess
p455
(dp456
g437
S'petioleLengthAtOptimalBiomass_mm'
p457
sbasbsbsbsbsS'destinationExpression'
p458
(i__main__
DelphiIdentAccess
p459
(dp460
g16
S'length'
p461
sg343
(lp462
sbsS'commentLinesBefore'
p463
(lp464
S'Draw internode of leaflet (portion of rachis). This is almost identical to drawing the petiole, etc,\r'
p465
aS'   but a bit of random drift is included to make the compound leaf look more single.'
p466
asba(i__main__
DelphiAssignStatement
p467
(dp468
g420
(idelphi
DelphiMulOp
p469
(dp470
g423
(i__main__
DelphiIdentAccess
p471
(dp472
g16
S'propFullSize'
p473
sg343
(lp474
sbsg427
S'*'
sg428
(i__main__
DelphiIdentAccess
p475
(dp476
g16
S'plant'
p477
sg343
(lp478
(idelphi
DelphiFieldEndAccess
p479
(dp480
g437
S'pLeaf'
p481
sba(idelphi
DelphiFieldEndAccess
p482
(dp483
g437
S'petioleWidthAtOptimalBiomass_mm'
p484
sbasbsbsg458
(i__main__
DelphiIdentAccess
p485
(dp486
g16
S'width'
p487
sg343
(lp488
sbsba(i__main__
DelphiAssignStatement
p489
(dp490
g420
(i__main__
DelphiIdentAccess
p491
(dp492
g16
S'self'
p493
sg343
(lp494
(idelphi
DelphiFieldEndAccess
p495
(dp496
g437
S'compoundLeafAngleWithSway'
p497
sba(idelphi
DelphiFunctionEndAccess
p498
(dp499
S'expressionList'
p500
(lp501
(i__main__
DelphiIdentAccess
p502
(dp503
g16
S'self'
p504
sg343
(lp505
(idelphi
DelphiFieldEndAccess
p506
(dp507
g437
S'bendAngleForCompoundLeaf'
p508
sba(idelphi
DelphiFunctionEndAccess
p509
(dp510
g500
(lp511
(i__main__
DelphiIdentAccess
p512
(dp513
g16
S'count'
p514
sg343
(lp515
sbasbasba(i__main__
DelphiIdentAccess
p516
(dp517
g16
S'count'
p518
sg343
(lp519
sbasbasbsg458
(i__main__
DelphiIdentAccess
p520
(dp521
g16
S'angleZ'
p522
sg343
(lp523
sbsg463
(lp524
S' v1.6b3\r'
p525
asba(i__main__
DelphiAssignStatement
p526
(dp527
g420
(i__main__
DelphiIdentAccess
p528
(dp529
g16
S'self'
p530
sg343
(lp531
(idelphi
DelphiFieldEndAccess
p532
(dp533
g437
S'compoundLeafAngleWithSway'
p534
sba(idelphi
DelphiFunctionEndAccess
p535
(dp536
g500
(lp537
(idelphi
DelphiIntegerValue
p538
(dp539
g14
S'0'
sba(i__main__
DelphiIdentAccess
p540
(dp541
g16
S'count'
p542
sg343
(lp543
sbasbasbsg458
(i__main__
DelphiIdentAccess
p544
(dp545
g16
S'angleY'
p546
sg343
(lp547
sbsba(i__main__
DelphiAssignStatement
p548
(dp549
g420
Nsg458
(i__main__
DelphiIdentAccess
p550
(dp551
g16
S'self'
p552
sg343
(lp553
(idelphi
DelphiFieldEndAccess
p554
(dp555
g437
S'drawStemSegment'
p556
sba(idelphi
DelphiFunctionEndAccess
p557
(dp558
g500
(lp559
(i__main__
DelphiIdentAccess
p560
(dp561
g16
S'length'
p562
sg343
(lp563
sba(i__main__
DelphiIdentAccess
p564
(dp565
g16
S'width'
p566
sg343
(lp567
sba(i__main__
DelphiIdentAccess
p568
(dp569
g16
S'angleZ'
p570
sg343
(lp571
sba(i__main__
DelphiIdentAccess
p572
(dp573
g16
S'angleY'
p574
sg343
(lp575
sba(i__main__
DelphiIdentAccess
p576
(dp577
g16
S'plant'
p578
sg343
(lp579
(idelphi
DelphiFieldEndAccess
p580
(dp581
g437
S'pLeaf'
p582
sba(idelphi
DelphiFieldEndAccess
p583
(dp584
g437
S'petioleColor'
p585
sbasba(i__main__
DelphiIdentAccess
p586
(dp587
g16
S'kDontTaper'
p588
sg343
(lp589
sba(i__main__
DelphiIdentAccess
p590
(dp591
g16
S'kExportPartPetiole'
p592
sg343
(lp593
sba(i__main__
DelphiIdentAccess
p594
(dp595
g16
S'kDontUseAmendment'
p596
sg343
(lp597
sbasbasbsbasbsS'limitedDeclSectionList'
p598
(lp599
(i__main__
DelphiVarSection
p600
(dp601
g23
I0
sS'varDeclList'
p602
(lp603
(idelphi
DelphiVarDecl
p604
(dp605
g11
NsS'identList'
p606
(lp607
S'length'
p608
aS'width'
p609
aS'angleZ'
p610
aS'angleY'
p611
asg18
(i__main__
DelphiPrimitiveType
p612
(dp613
g21
g77
sbsbasbasbsbsS'optimalinitialbiomass_pctmpb'
p614
(i__main__
DelphiMethodImplementation
p615
(dp616
g390
g62
sg36
g64
sg44
(lp617
(i__main__
DelphiFormalParameter
p618
(dp619
g48
Nsg49
(lp620
S'drawingPlant'
p621
asg18
(i__main__
DelphiNamedType
p622
(dp623
g21
S'PdPlant'
p624
sg73
g1
sg74
Nsbsg55
Nsbasg398
(lp625
sg400
(lp626
sg402
(lp627
g404
ag621
asg405
(dp628
g621
g622
ssg56
S'PdLeaf'
p629
sg57
(i__main__
DelphiPrimitiveType
p630
(dp631
g21
g77
sbsg408
(lp632
sg58
I0
sg59
g78
sg410
(i__main__
DelphiBlock
p633
(dp634
g413
(idelphi
DelphiCompoundStatement
p635
(dp636
g416
(lp637
(idelphi
DelphiWithStatement
p638
(dp639
S'statement'
p640
(i__main__
DelphiAssignStatement
p641
(dp642
g420
(idelphi
DelphiMulOp
p643
(dp644
g423
(i__main__
DelphiIdentAccess
p645
(dp646
g16
S'optimalBiomass_pctMPB'
p647
sg343
(lp648
sbsg427
S'*'
sg428
(i__main__
DelphiIdentAccess
p649
(dp650
g16
S'optimalFractionOfOptimalBiomassAtCreation_frn'
p651
sg343
(lp652
sbsbsg458
(i__main__
DelphiIdentAccess
p653
(dp654
g16
S'result'
p655
sg343
(lp656
sbsbsS'variableReferenceList'
p657
(lp658
(i__main__
DelphiIdentAccess
p659
(dp660
g16
S'drawingPlant'
p661
sg343
(lp662
(idelphi
DelphiFieldEndAccess
p663
(dp664
g437
S'pLeaf'
p665
sbasbasbasbsg598
(lp666
sbsbsS'drawcompoundleafpalmate'
p667
(i__main__
DelphiMethodImplementation
p668
(dp669
g390
g80
sg36
g82
sg44
(lp670
sg398
(lp671
sg400
(lp672
sg402
(lp673
g404
asg405
(dp674
sg56
S'PdLeaf'
p675
sg57
Nsg408
(lp676
sg58
I0
sg59
g60
sg410
(i__main__
DelphiBlock
p677
(dp678
g413
(idelphi
DelphiCompoundStatement
p679
(dp680
g416
(lp681
(i__main__
DelphiAssignStatement
p682
(dp683
g420
(i__main__
DelphiIdentAccess
p684
(dp685
g16
S'plant'
p686
sg343
(lp687
(idelphi
DelphiFieldEndAccess
p688
(dp689
g437
S'turtle'
p690
sbasbsg458
(i__main__
DelphiIdentAccess
p691
(dp692
g16
S'turtle'
p693
sg343
(lp694
sbsg463
(lp695
S'Draw palmate compound leaf. Use recursion structure we used to use for whole plant, with no branching.\r'
p696
aS'    In a palmate leaf, leaflets increase in size as you move toward the middle of the leaf.\r'
p697
aS'    Note that seedling leaves are never compound.'
p698
asba(idelphi
DelphiIfStatement
p699
(dp700
S'expression'
p701
(idelphi
DelphiNestedExpressionListAccess
p702
(dp703
g343
(lp704
sg500
(lp705
(idelphi
DelphiRelOp
p706
(dp707
S'simpleExpression1'
p708
(i__main__
DelphiIdentAccess
p709
(dp710
g16
S'turtle'
p711
sg343
(lp712
sbsS'simpleExpression2'
p713
(idelphi
DelphiNilValue
p714
(dp715
bsS'relOp'
p716
S'='
sbasbsS'ifFalseStatement'
p717
NsS'ifTrueStatement'
p718
(i__main__
DelphiExitStatement
p719
(dp720
S'proceduralOrMethodImplementation'
p721
g668
sbsba(i__main__
DelphiAssignStatement
p722
(dp723
g420
(i__main__
DelphiIdentAccess
p724
(dp725
g16
S'safedivExcept'
p726
sg343
(lp727
(idelphi
DelphiFunctionEndAccess
p728
(dp729
g500
(lp730
(idelphi
DelphiIntegerValue
p731
(dp732
g14
S'64'
p733
sba(i__main__
DelphiIdentAccess
p734
(dp735
g16
S'plant'
p736
sg343
(lp737
(idelphi
DelphiFieldEndAccess
p738
(dp739
g437
S'pLeaf'
p740
sba(idelphi
DelphiFieldEndAccess
p741
(dp742
g437
S'compoundNumLeaflets'
p743
sbasba(idelphi
DelphiIntegerValue
p744
(dp745
g14
S'0'
sbasbasbsg458
(i__main__
DelphiIdentAccess
p746
(dp747
g16
S'angleOne'
p748
sg343
(lp749
sbsba(idelphi
DelphiIfStatement
p750
(dp751
g701
(idelphi
DelphiRelOp
p752
(dp753
g708
(i__main__
DelphiIdentAccess
p754
(dp755
g16
S'plant'
p756
sg343
(lp757
(idelphi
DelphiFieldEndAccess
p758
(dp759
g437
S'pLeaf'
p760
sba(idelphi
DelphiFieldEndAccess
p761
(dp762
g437
S'compoundNumLeaflets'
p763
sbasbsg713
(idelphi
DelphiIntegerValue
p764
(dp765
g14
S'0'
sbsg716
S'>'
sbsg717
Nsg718
(idelphi
DelphiForStatement
p766
(dp767
S'variable'
p768
S'i'
sS'finalValue'
p769
(idelphi
DelphiIntegerValue
p770
(dp771
g14
S'1'
sbsS'direction'
p772
S'downto'
p773
sg48
(i__main__
DelphiIdentAccess
p774
(dp775
g16
S'plant'
p776
sg343
(lp777
(idelphi
DelphiFieldEndAccess
p778
(dp779
g437
S'pLeaf'
p780
sba(idelphi
DelphiFieldEndAccess
p781
(dp782
g437
S'compoundNumLeaflets'
p783
sbasbsg640
(idelphi
DelphiCompoundStatement
p784
(dp785
g416
(lp786
(i__main__
DelphiAssignStatement
p787
(dp788
g420
Nsg458
(i__main__
DelphiIdentAccess
p789
(dp790
g16
S'turtle'
p791
sg343
(lp792
(idelphi
DelphiFieldEndAccess
p793
(dp794
g437
S'push'
p795
sbasbsba(idelphi
DelphiIfStatement
p796
(dp797
g701
(idelphi
DelphiNestedExpressionListAccess
p798
(dp799
g343
(lp800
sg500
(lp801
(idelphi
DelphiRelOp
p802
(dp803
g708
(i__main__
DelphiIdentAccess
p804
(dp805
g16
S'i'
sg343
(lp806
sbsg713
(idelphi
DelphiIntegerValue
p807
(dp808
g14
S'1'
sbsg716
S'='
sbasbsg717
(idelphi
DelphiIfStatement
p809
(dp810
g701
(idelphi
DelphiNestedExpressionListAccess
p811
(dp812
g343
(lp813
sg500
(lp814
(i__main__
DelphiIdentAccess
p815
(dp816
g16
S'odd'
p817
sg343
(lp818
(idelphi
DelphiFunctionEndAccess
p819
(dp820
g500
(lp821
(i__main__
DelphiIdentAccess
p822
(dp823
g16
S'i'
sg343
(lp824
sbasbasbasbsg717
(i__main__
DelphiAssignStatement
p825
(dp826
g420
(idelphi
DelphiMulOp
p827
(dp828
g423
(idelphi
DelphiIntegerValue
p829
(dp830
g14
S'1'
sbsg427
S'*'
sg428
(idelphi
DelphiMulOp
p831
(dp832
g423
(i__main__
DelphiIdentAccess
p833
(dp834
g16
S'i'
sg343
(lp835
sbsg427
S'*'
sg428
(i__main__
DelphiIdentAccess
p836
(dp837
g16
S'angleOne'
p838
sg343
(lp839
sbsbsbsg458
(i__main__
DelphiIdentAccess
p840
(dp841
g16
S'angle'
p842
sg343
(lp843
sbsbsg718
(i__main__
DelphiAssignStatement
p844
(dp845
g420
(idelphi
DelphiMulOp
p846
(dp847
g423
(idelphi
DelphiSign
p848
(dp849
S'factor'
p850
(idelphi
DelphiIntegerValue
p851
(dp852
g14
S'1'
sbsS'sign'
p853
S'-'
sbsg427
S'*'
sg428
(idelphi
DelphiMulOp
p854
(dp855
g423
(i__main__
DelphiIdentAccess
p856
(dp857
g16
S'i'
sg343
(lp858
sbsg427
S'*'
sg428
(i__main__
DelphiIdentAccess
p859
(dp860
g16
S'angleOne'
p861
sg343
(lp862
sbsbsbsg458
(i__main__
DelphiIdentAccess
p863
(dp864
g16
S'angle'
p865
sg343
(lp866
sbsbsbsg718
(i__main__
DelphiAssignStatement
p867
(dp868
g420
(idelphi
DelphiIntegerValue
p869
(dp870
g14
S'0'
sbsg458
(i__main__
DelphiIdentAccess
p871
(dp872
g16
S'angle'
p873
sg343
(lp874
sbsbsba(i__main__
DelphiAssignStatement
p875
(dp876
g420
(idelphi
DelphiMulOp
p877
(dp878
g423
(idelphi
DelphiRealValue
p879
(dp880
g14
S'100.0'
p881
sbsg427
S'/'
sg428
(idelphi
DelphiMulOp
p882
(dp883
g423
(i__main__
DelphiIdentAccess
p884
(dp885
g16
S'plant'
p886
sg343
(lp887
(idelphi
DelphiFieldEndAccess
p888
(dp889
g437
S'pLeaf'
p890
sba(idelphi
DelphiFieldEndAccess
p891
(dp892
g437
S'compoundRachisToPetioleRatio'
p893
sbasbsg427
S'*'
sg428
(idelphi
DelphiMulOp
p894
(dp895
g423
(i__main__
DelphiIdentAccess
p896
(dp897
g16
S'propFullSize'
p898
sg343
(lp899
sbsg427
S'*'
sg428
(i__main__
DelphiIdentAccess
p900
(dp901
g16
S'plant'
p902
sg343
(lp903
(idelphi
DelphiFieldEndAccess
p904
(dp905
g437
S'pLeaf'
p906
sba(idelphi
DelphiFieldEndAccess
p907
(dp908
g437
S'petioleLengthAtOptimalBiomass_mm'
p909
sbasbsbsbsbsg458
(i__main__
DelphiIdentAccess
p910
(dp911
g16
S'length'
p912
sg343
(lp913
sbsba(i__main__
DelphiAssignStatement
p914
(dp915
g420
(idelphi
DelphiMulOp
p916
(dp917
g423
(i__main__
DelphiIdentAccess
p918
(dp919
g16
S'propFullSize'
p920
sg343
(lp921
sbsg427
S'*'
sg428
(i__main__
DelphiIdentAccess
p922
(dp923
g16
S'plant'
p924
sg343
(lp925
(idelphi
DelphiFieldEndAccess
p926
(dp927
g437
S'pLeaf'
p928
sba(idelphi
DelphiFieldEndAccess
p929
(dp930
g437
S'petioleWidthAtOptimalBiomass_mm'
p931
sbasbsbsg458
(i__main__
DelphiIdentAccess
p932
(dp933
g16
S'width'
p934
sg343
(lp935
sbsba(i__main__
DelphiAssignStatement
p936
(dp937
g420
Nsg458
(i__main__
DelphiIdentAccess
p938
(dp939
g16
S'self'
p940
sg343
(lp941
(idelphi
DelphiFieldEndAccess
p942
(dp943
g437
S'drawStemSegment'
p944
sba(idelphi
DelphiFunctionEndAccess
p945
(dp946
g500
(lp947
(i__main__
DelphiIdentAccess
p948
(dp949
g16
S'length'
p950
sg343
(lp951
sba(i__main__
DelphiIdentAccess
p952
(dp953
g16
S'width'
p954
sg343
(lp955
sba(idelphi
DelphiIntegerValue
p956
(dp957
g14
S'0'
sba(i__main__
DelphiIdentAccess
p958
(dp959
g16
S'angle'
p960
sg343
(lp961
sba(i__main__
DelphiIdentAccess
p962
(dp963
g16
S'plant'
p964
sg343
(lp965
(idelphi
DelphiFieldEndAccess
p966
(dp967
g437
S'pLeaf'
p968
sba(idelphi
DelphiFieldEndAccess
p969
(dp970
g437
S'petioleColor'
p971
sbasba(i__main__
DelphiIdentAccess
p972
(dp973
g16
S'plant'
p974
sg343
(lp975
(idelphi
DelphiFieldEndAccess
p976
(dp977
g437
S'pLeaf'
p978
sba(idelphi
DelphiFieldEndAccess
p979
(dp980
g437
S'petioleTaperIndex'
p981
sbasba(i__main__
DelphiIdentAccess
p982
(dp983
g16
S'kExportPartPetiole'
p984
sg343
(lp985
sba(i__main__
DelphiIdentAccess
p986
(dp987
g16
S'kDontUseAmendment'
p988
sg343
(lp989
sbasbasbsba(i__main__
DelphiAssignStatement
p990
(dp991
g420
(idelphi
DelphiMulOp
p992
(dp993
g423
(idelphi
DelphiRealValue
p994
(dp995
g14
S'100.0'
p996
sbsg427
S'/'
sg428
(idelphi
DelphiMulOp
p997
(dp998
g423
(i__main__
DelphiIdentAccess
p999
(dp1000
g16
S'plant'
p1001
sg343
(lp1002
(idelphi
DelphiFieldEndAccess
p1003
(dp1004
g437
S'pLeaf'
p1005
sba(idelphi
DelphiFieldEndAccess
p1006
(dp1007
g437
S'leafTdoParams'
p1008
sba(idelphi
DelphiFieldEndAccess
p1009
(dp1010
g437
S'scaleAtFullSize'
p1011
sbasbsg427
S'*'
sg428
(i__main__
DelphiIdentAccess
p1012
(dp1013
g16
S'self'
p1014
sg343
(lp1015
(idelphi
DelphiFieldEndAccess
p1016
(dp1017
g437
S'propFullSize'
p1018
sbasbsbsbsg458
(i__main__
DelphiIdentAccess
p1019
(dp1020
g16
S'scale'
p1021
sg343
(lp1022
sbsba(i__main__
DelphiAssignStatement
p1023
(dp1024
g420
Nsg458
(i__main__
DelphiIdentAccess
p1025
(dp1026
g16
S'DrawLeafOrLeaflet'
p1027
sg343
(lp1028
(idelphi
DelphiFunctionEndAccess
p1029
(dp1030
g500
(lp1031
(i__main__
DelphiIdentAccess
p1032
(dp1033
g16
S'scale'
p1034
sg343
(lp1035
sbasbasbsg463
(lp1036
S'scale := safedivExcept(scale, plant.pLeaf.compoundNumLeaflets, 0); '
p1037
asba(i__main__
DelphiAssignStatement
p1038
(dp1039
g420
Nsg458
(i__main__
DelphiIdentAccess
p1040
(dp1041
g16
S'turtle'
p1042
sg343
(lp1043
(idelphi
DelphiFieldEndAccess
p1044
(dp1045
g437
S'pop'
p1046
sbasbsbasbsbsbasbsg598
(lp1047
(i__main__
DelphiVarSection
p1048
(dp1049
g23
I0
sg602
(lp1050
(idelphi
DelphiVarDecl
p1051
(dp1052
g11
Nsg606
(lp1053
S'turtle'
p1054
asg18
(i__main__
DelphiNamedType
p1055
(dp1056
g21
S'KfTurtle'
p1057
sg73
g1
sg74
Nsbsba(idelphi
DelphiVarDecl
p1058
(dp1059
g11
Nsg606
(lp1060
S'scale'
p1061
asg18
(i__main__
DelphiPrimitiveType
p1062
(dp1063
g21
g77
sbsba(idelphi
DelphiVarDecl
p1064
(dp1065
g11
Nsg606
(lp1066
S'angle'
p1067
asg18
(i__main__
DelphiPrimitiveType
p1068
(dp1069
g21
g77
sbsba(idelphi
DelphiVarDecl
p1070
(dp1071
g11
Nsg606
(lp1072
S'angleOne'
p1073
asg18
(i__main__
DelphiPrimitiveType
p1074
(dp1075
g21
g77
sbsba(idelphi
DelphiVarDecl
p1076
(dp1077
g11
Nsg606
(lp1078
S'length'
p1079
asg18
(i__main__
DelphiPrimitiveType
p1080
(dp1081
g21
g77
sbsba(idelphi
DelphiVarDecl
p1082
(dp1083
g11
Nsg606
(lp1084
S'width'
p1085
asg18
(i__main__
DelphiPrimitiveType
p1086
(dp1087
g21
g77
sbsbasba(i__main__
DelphiVarSection
p1088
(dp1089
g23
I0
sg602
(lp1090
(idelphi
DelphiVarDecl
p1091
(dp1092
g11
Nsg606
(lp1093
S'i'
asg18
(i__main__
DelphiPrimitiveType
p1094
(dp1095
g21
g54
sbsbasbasbsbsS'drawcompoundleafpetioletcount'
p1096
(i__main__
DelphiMethodImplementation
p1097
(dp1098
g390
g85
sg36
g87
sg44
(lp1099
(i__main__
DelphiFormalParameter
p1100
(dp1101
g48
Nsg49
(lp1102
S'scale'
p1103
asg18
(i__main__
DelphiPrimitiveType
p1104
(dp1105
g21
g77
sbsg55
Nsba(i__main__
DelphiFormalParameter
p1106
(dp1107
g48
Nsg49
(lp1108
S'aCount'
p1109
asg18
(i__main__
DelphiPrimitiveType
p1110
(dp1111
g21
g54
sbsg55
Nsbasg398
(lp1112
sg400
(lp1113
sg402
(lp1114
g404
ag1103
ag1109
asg405
(dp1115
g1109
g1110
sg1103
g1104
ssg56
S'PdLeaf'
p1116
sg57
Nsg408
(lp1117
sg58
I0
sg59
g60
sg410
(i__main__
DelphiBlock
p1118
(dp1119
g413
(idelphi
DelphiCompoundStatement
p1120
(dp1121
g416
(lp1122
(i__main__
DelphiAssignStatement
p1123
(dp1124
g420
(idelphi
DelphiMulOp
p1125
(dp1126
g423
(i__main__
DelphiIdentAccess
p1127
(dp1128
g16
S'propFullSize'
p1129
sg343
(lp1130
sbsg427
S'*'
sg428
(idelphi
DelphiMulOp
p1131
(dp1132
g423
(i__main__
DelphiIdentAccess
p1133
(dp1134
g16
S'plant'
p1135
sg343
(lp1136
(idelphi
DelphiFieldEndAccess
p1137
(dp1138
g437
S'pLeaf'
p1139
sba(idelphi
DelphiFieldEndAccess
p1140
(dp1141
g437
S'petioleLengthAtOptimalBiomass_mm'
p1142
sbasbsg427
S'*'
sg428
(i__main__
DelphiIdentAccess
p1143
(dp1144
g16
S'scale'
p1145
sg343
(lp1146
sbsbsbsg458
(i__main__
DelphiIdentAccess
p1147
(dp1148
g16
S'length'
p1149
sg343
(lp1150
sbsg463
(lp1151
S'Draw petiolet, which is the leaflet stem coming off the compound leaf rachis.'
p1152
asba(i__main__
DelphiAssignStatement
p1153
(dp1154
g420
(idelphi
DelphiMulOp
p1155
(dp1156
g423
(i__main__
DelphiIdentAccess
p1157
(dp1158
g16
S'propFullSize'
p1159
sg343
(lp1160
sbsg427
S'*'
sg428
(idelphi
DelphiMulOp
p1161
(dp1162
g423
(i__main__
DelphiIdentAccess
p1163
(dp1164
g16
S'plant'
p1165
sg343
(lp1166
(idelphi
DelphiFieldEndAccess
p1167
(dp1168
g437
S'pLeaf'
p1169
sba(idelphi
DelphiFieldEndAccess
p1170
(dp1171
g437
S'petioleWidthAtOptimalBiomass_mm'
p1172
sbasbsg427
S'*'
sg428
(i__main__
DelphiIdentAccess
p1173
(dp1174
g16
S'scale'
p1175
sg343
(lp1176
sbsbsbsg458
(i__main__
DelphiIdentAccess
p1177
(dp1178
g16
S'width'
p1179
sg343
(lp1180
sbsba(idelphi
DelphiIfStatement
p1181
(dp1182
g701
(idelphi
DelphiNestedExpressionListAccess
p1183
(dp1184
g343
(lp1185
sg500
(lp1186
(idelphi
DelphiRelOp
p1187
(dp1188
g708
(i__main__
DelphiIdentAccess
p1189
(dp1190
g16
S'aCount'
p1191
sg343
(lp1192
sbsg713
(idelphi
DelphiIntegerValue
p1193
(dp1194
g14
S'1'
sbsg716
S'='
sbasbsg717
(idelphi
DelphiCompoundStatement
p1195
(dp1196
g416
(lp1197
(idelphi
DelphiIfStatement
p1198
(dp1199
g701
(idelphi
DelphiNestedExpressionListAccess
p1200
(dp1201
g343
(lp1202
sg500
(lp1203
(i__main__
DelphiIdentAccess
p1204
(dp1205
g16
S'odd'
p1206
sg343
(lp1207
(idelphi
DelphiFunctionEndAccess
p1208
(dp1209
g500
(lp1210
(i__main__
DelphiIdentAccess
p1211
(dp1212
g16
S'aCount'
p1213
sg343
(lp1214
sbasbasbasbsg717
(i__main__
DelphiAssignStatement
p1215
(dp1216
g420
(idelphi
DelphiSign
p1217
(dp1218
g850
(idelphi
DelphiIntegerValue
p1219
(dp1220
g14
S'32'
p1221
sbsg853
S'-'
sbsg458
(i__main__
DelphiIdentAccess
p1222
(dp1223
g16
S'angle'
p1224
sg343
(lp1225
sbsbsg718
(i__main__
DelphiAssignStatement
p1226
(dp1227
g420
(idelphi
DelphiIntegerValue
p1228
(dp1229
g14
S'32'
p1230
sbsg458
(i__main__
DelphiIdentAccess
p1231
(dp1232
g16
S'angle'
p1233
sg343
(lp1234
sbsbsbasbsg718
(i__main__
DelphiAssignStatement
p1235
(dp1236
g420
(idelphi
DelphiIntegerValue
p1237
(dp1238
g14
S'0'
sbsg458
(i__main__
DelphiIdentAccess
p1239
(dp1240
g16
S'angle'
p1241
sg343
(lp1242
sbsbsba(i__main__
DelphiAssignStatement
p1243
(dp1244
g420
(i__main__
DelphiIdentAccess
p1245
(dp1246
g16
S'self'
p1247
sg343
(lp1248
(idelphi
DelphiFieldEndAccess
p1249
(dp1250
g437
S'compoundLeafAngleWithSway'
p1251
sba(idelphi
DelphiFunctionEndAccess
p1252
(dp1253
g500
(lp1254
(i__main__
DelphiIdentAccess
p1255
(dp1256
g16
S'angle'
p1257
sg343
(lp1258
sba(i__main__
DelphiIdentAccess
p1259
(dp1260
g16
S'aCount'
p1261
sg343
(lp1262
sbasbasbsg458
(i__main__
DelphiIdentAccess
p1263
(dp1264
g16
S'angle'
p1265
sg343
(lp1266
sbsba(i__main__
DelphiAssignStatement
p1267
(dp1268
g420
Nsg458
(i__main__
DelphiIdentAccess
p1269
(dp1270
g16
S'self'
p1271
sg343
(lp1272
(idelphi
DelphiFieldEndAccess
p1273
(dp1274
g437
S'drawStemSegment'
p1275
sba(idelphi
DelphiFunctionEndAccess
p1276
(dp1277
g500
(lp1278
(i__main__
DelphiIdentAccess
p1279
(dp1280
g16
S'length'
p1281
sg343
(lp1282
sba(i__main__
DelphiIdentAccess
p1283
(dp1284
g16
S'width'
p1285
sg343
(lp1286
sba(idelphi
DelphiIntegerValue
p1287
(dp1288
g14
S'0'
sba(i__main__
DelphiIdentAccess
p1289
(dp1290
g16
S'angle'
p1291
sg343
(lp1292
sba(i__main__
DelphiIdentAccess
p1293
(dp1294
g16
S'plant'
p1295
sg343
(lp1296
(idelphi
DelphiFieldEndAccess
p1297
(dp1298
g437
S'pLeaf'
p1299
sba(idelphi
DelphiFieldEndAccess
p1300
(dp1301
g437
S'petioleColor'
p1302
sbasba(i__main__
DelphiIdentAccess
p1303
(dp1304
g16
S'plant'
p1305
sg343
(lp1306
(idelphi
DelphiFieldEndAccess
p1307
(dp1308
g437
S'pLeaf'
p1309
sba(idelphi
DelphiFieldEndAccess
p1310
(dp1311
g437
S'petioleTaperIndex'
p1312
sbasba(i__main__
DelphiIdentAccess
p1313
(dp1314
g16
S'kExportPartPetiole'
p1315
sg343
(lp1316
sba(i__main__
DelphiIdentAccess
p1317
(dp1318
g16
S'kDontUseAmendment'
p1319
sg343
(lp1320
sbasbasbsbasbsg598
(lp1321
(i__main__
DelphiVarSection
p1322
(dp1323
g23
I0
sg602
(lp1324
(idelphi
DelphiVarDecl
p1325
(dp1326
g11
Nsg606
(lp1327
S'length'
p1328
aS'width'
p1329
aS'angle'
p1330
asg18
(i__main__
DelphiPrimitiveType
p1331
(dp1332
g21
g77
sbsbasbasbsbsS'compoundleafanglewithsway'
p1333
(i__main__
DelphiMethodImplementation
p1334
(dp1335
g390
g102
sg36
g104
sg44
(lp1336
(i__main__
DelphiFormalParameter
p1337
(dp1338
g48
Nsg49
(lp1339
S'angle'
p1340
asg18
(i__main__
DelphiPrimitiveType
p1341
(dp1342
g21
g77
sbsg55
Nsba(i__main__
DelphiFormalParameter
p1343
(dp1344
g48
Nsg49
(lp1345
S'count'
p1346
asg18
(i__main__
DelphiPrimitiveType
p1347
(dp1348
g21
g54
sbsg55
Nsbasg398
(lp1349
sg400
(lp1350
sg402
(lp1351
g404
ag1340
ag1346
asg405
(dp1352
g1346
g1347
sg1340
g1341
ssg56
S'PdLeaf'
p1353
sg57
(i__main__
DelphiPrimitiveType
p1354
(dp1355
g21
g77
sbsg408
(lp1356
sg58
I0
sg59
g78
sg410
(i__main__
DelphiBlock
p1357
(dp1358
g413
(idelphi
DelphiCompoundStatement
p1359
(dp1360
g416
(lp1361
(i__main__
DelphiAssignStatement
p1362
(dp1363
g420
(i__main__
DelphiIdentAccess
p1364
(dp1365
g16
S'angle'
p1366
sg343
(lp1367
sbsg458
(i__main__
DelphiIdentAccess
p1368
(dp1369
g16
S'result'
p1370
sg343
(lp1371
sbsba(idelphi
DelphiIfStatement
p1372
(dp1373
g701
(idelphi
DelphiRelOp
p1374
(dp1375
g708
(i__main__
DelphiIdentAccess
p1376
(dp1377
g16
S'plant'
p1378
sg343
(lp1379
sbsg713
(idelphi
DelphiNilValue
p1380
(dp1381
bsg716
S'='
sbsg717
Nsg718
(i__main__
DelphiExitStatement
p1382
(dp1383
g721
g1334
sbsba(idelphi
DelphiIfStatement
p1384
(dp1385
g701
(idelphi
DelphiRelOp
p1386
(dp1387
g708
(i__main__
DelphiIdentAccess
p1388
(dp1389
g16
S'count'
p1390
sg343
(lp1391
sbsg713
(idelphi
DelphiIntegerValue
p1392
(dp1393
g14
S'0'
sbsg716
S'<'
sbsg717
Nsg718
(i__main__
DelphiAssignStatement
p1394
(dp1395
g420
(idelphi
DelphiIntegerValue
p1396
(dp1397
g14
S'0'
sbsg458
(i__main__
DelphiIdentAccess
p1398
(dp1399
g16
S'count'
p1400
sg343
(lp1401
sbsbsba(i__main__
DelphiAssignStatement
p1402
(dp1403
g420
(idelphi
DelphiMulOp
p1404
(dp1405
g423
(i__main__
DelphiIdentAccess
p1406
(dp1407
g16
S'kNumCompoundLeafRandomSwayIndexes'
p1408
sg343
(lp1409
sbsg427
S'mod'
p1410
sg428
(i__main__
DelphiIdentAccess
p1411
(dp1412
g16
S'count'
p1413
sg343
(lp1414
sbsbsg458
(i__main__
DelphiIdentAccess
p1415
(dp1416
g16
S'count'
p1417
sg343
(lp1418
sbsba(i__main__
DelphiAssignStatement
p1419
(dp1420
g420
(i__main__
DelphiIdentAccess
p1421
(dp1422
g16
S'compoundLeafRandomSwayIndexes'
p1423
sg343
(lp1424
(idelphi
DelphiArrayEndAccess
p1425
(dp1426
g500
(lp1427
(i__main__
DelphiIdentAccess
p1428
(dp1429
g16
S'count'
p1430
sg343
(lp1431
sbasbasbsg458
(i__main__
DelphiIdentAccess
p1432
(dp1433
g16
S'randomNumber'
p1434
sg343
(lp1435
sbsba(i__main__
DelphiAssignStatement
p1436
(dp1437
g420
(idelphi
DelphiAddOp
p1438
(dp1439
S'addOp'
p1440
S'+'
sS'term2'
p1441
(idelphi
DelphiNestedExpressionListAccess
p1442
(dp1443
g343
(lp1444
sg500
(lp1445
(idelphi
DelphiMulOp
p1446
(dp1447
g423
(i__main__
DelphiIdentAccess
p1448
(dp1449
g16
S'plant'
p1450
sg343
(lp1451
(idelphi
DelphiFieldEndAccess
p1452
(dp1453
g437
S'pGeneral'
p1454
sba(idelphi
DelphiFieldEndAccess
p1455
(dp1456
g437
S'randomSway'
p1457
sbasbsg427
S'*'
sg428
(idelphi
DelphiNestedExpressionListAccess
p1458
(dp1459
g343
(lp1460
sg500
(lp1461
(idelphi
DelphiAddOp
p1462
(dp1463
g1440
S'-'
sg1441
(idelphi
DelphiRealValue
p1464
(dp1465
g14
S'0.5'
p1466
sbsS'term1'
p1467
(i__main__
DelphiIdentAccess
p1468
(dp1469
g16
S'randomNumber'
p1470
sg343
(lp1471
sbsbasbsbasbsg1467
(i__main__
DelphiIdentAccess
p1472
(dp1473
g16
S'angle'
p1474
sg343
(lp1475
sbsbsg458
(i__main__
DelphiIdentAccess
p1476
(dp1477
g16
S'result'
p1478
sg343
(lp1479
sbsbasbsg598
(lp1480
(i__main__
DelphiVarSection
p1481
(dp1482
g23
I0
sg602
(lp1483
(idelphi
DelphiVarDecl
p1484
(dp1485
g11
Nsg606
(lp1486
S'randomNumber'
p1487
asg18
(i__main__
DelphiPrimitiveType
p1488
(dp1489
g21
g77
sbsbasbasbsbsS'wiltleaf'
p1490
(i__main__
DelphiMethodImplementation
p1491
(dp1492
g390
g121
sg36
g123
sg44
(lp1493
sg398
(lp1494
sg400
(lp1495
sg402
(lp1496
g404
asg405
(dp1497
sg56
S'PdLeaf'
p1498
sg57
Nsg408
(lp1499
sg58
I0
sg59
g60
sg410
(i__main__
DelphiBlock
p1500
(dp1501
g413
(idelphi
DelphiCompoundStatement
p1502
(dp1503
g416
(lp1504
(idelphi
DelphiIfStatement
p1505
(dp1506
g701
(idelphi
DelphiNestedExpressionListAccess
p1507
(dp1508
g343
(lp1509
sg500
(lp1510
(idelphi
DelphiRelOp
p1511
(dp1512
g708
(i__main__
DelphiIdentAccess
p1513
(dp1514
g16
S'plant'
p1515
sg343
(lp1516
(idelphi
DelphiFieldEndAccess
p1517
(dp1518
g437
S'turtle'
p1519
sbasbsg713
(idelphi
DelphiNilValue
p1520
(dp1521
bsg716
S'='
sbasbsg717
Nsg718
(i__main__
DelphiExitStatement
p1522
(dp1523
g721
g1491
sg463
(lp1524
S'  var\r'
p1525
aS'    angle: integer; '
p1526
asbsbasg463
(lp1527
S' angle := round(abs(plant.turtle.angleX + 32) * plant.pGeneral.wiltingPercent / 100.0);\r'
p1528
aS'  if plant.turtle.angleX > -32 then\r'
p1529
aS'    angle := -angle;\r'
p1530
aS'  plant.turtle.rotateX(angle); '
p1531
asbsg598
(lp1532
sbsbsS'classandversioninformation'
p1533
(i__main__
DelphiMethodImplementation
p1534
(dp1535
g390
g126
sg36
g128
sg44
(lp1536
(i__main__
DelphiFormalParameter
p1537
(dp1538
g48
Nsg49
(lp1539
S'cvir'
p1540
asg18
(i__main__
DelphiNamedType
p1541
(dp1542
g21
S'PdClassAndVersionInformationRecord'
p1543
sg73
g1
sg74
Nsbsg55
g137
sbasg398
(lp1544
sg400
(lp1545
g1540
asg402
(lp1546
g404
ag1540
asg405
(dp1547
g1540
g1541
ssg56
S'PdLeaf'
p1548
sg57
Nsg408
(lp1549
sg58
I0
sg59
g60
sg410
(i__main__
DelphiBlock
p1550
(dp1551
g413
(idelphi
DelphiCompoundStatement
p1552
(dp1553
g416
(lp1554
(i__main__
DelphiAssignStatement
p1555
(dp1556
g420
(i__main__
DelphiIdentAccess
p1557
(dp1558
g16
S'kPdLeaf'
p1559
sg343
(lp1560
sbsg458
(i__main__
DelphiIdentAccess
p1561
(dp1562
g16
S'cvir'
p1563
sg343
(lp1564
(idelphi
DelphiFieldEndAccess
p1565
(dp1566
g437
S'classNumber'
p1567
sbasbsba(i__main__
DelphiAssignStatement
p1568
(dp1569
g420
(idelphi
DelphiIntegerValue
p1570
(dp1571
g14
S'0'
sbsg458
(i__main__
DelphiIdentAccess
p1572
(dp1573
g16
S'cvir'
p1574
sg343
(lp1575
(idelphi
DelphiFieldEndAccess
p1576
(dp1577
g437
S'versionNumber'
p1578
sbasbsba(i__main__
DelphiAssignStatement
p1579
(dp1580
g420
(idelphi
DelphiIntegerValue
p1581
(dp1582
g14
S'0'
sbsg458
(i__main__
DelphiIdentAccess
p1583
(dp1584
g16
S'cvir'
p1585
sg343
(lp1586
(idelphi
DelphiFieldEndAccess
p1587
(dp1588
g437
S'additionNumber'
p1589
sbasbsbasbsg598
(lp1590
sbsbsS'bendangleforcompoundleaf'
p1591
(i__main__
DelphiMethodImplementation
p1592
(dp1593
g390
g139
sg36
g141
sg44
(lp1594
(i__main__
DelphiFormalParameter
p1595
(dp1596
g48
Nsg49
(lp1597
S'count'
p1598
asg18
(i__main__
DelphiPrimitiveType
p1599
(dp1600
g21
g54
sbsg55
Nsbasg398
(lp1601
sg400
(lp1602
sg402
(lp1603
g404
ag1598
asg405
(dp1604
g1598
g1599
ssg56
S'PdLeaf'
p1605
sg57
(i__main__
DelphiPrimitiveType
p1606
(dp1607
g21
g77
sbsg408
(lp1608
sg58
I0
sg59
g78
sg410
(i__main__
DelphiBlock
p1609
(dp1610
g413
(idelphi
DelphiCompoundStatement
p1611
(dp1612
g416
(lp1613
(i__main__
DelphiAssignStatement
p1614
(dp1615
g420
(idelphi
DelphiIntegerValue
p1616
(dp1617
g14
S'0'
sbsg458
(i__main__
DelphiIdentAccess
p1618
(dp1619
g16
S'result'
p1620
sg343
(lp1621
sbsba(idelphi
DelphiIfStatement
p1622
(dp1623
g701
(idelphi
DelphiRelOp
p1624
(dp1625
g708
(i__main__
DelphiIdentAccess
p1626
(dp1627
g16
S'plant'
p1628
sg343
(lp1629
sbsg713
(idelphi
DelphiNilValue
p1630
(dp1631
bsg716
S'='
sbsg717
Nsg718
(i__main__
DelphiExitStatement
p1632
(dp1633
g721
g1592
sbsba(idelphi
DelphiWithStatement
p1634
(dp1635
g640
(idelphi
DelphiCompoundStatement
p1636
(dp1637
g416
(lp1638
(i__main__
DelphiAssignStatement
p1639
(dp1640
g420
(i__main__
DelphiIdentAccess
p1641
(dp1642
g16
S'abs'
p1643
sg343
(lp1644
(idelphi
DelphiFunctionEndAccess
p1645
(dp1646
g500
(lp1647
(idelphi
DelphiAddOp
p1648
(dp1649
g1440
S'-'
sg1441
(i__main__
DelphiIdentAccess
p1650
(dp1651
g16
S'compoundCurveAngleAtStart'
p1652
sg343
(lp1653
sbsg1467
(i__main__
DelphiIdentAccess
p1654
(dp1655
g16
S'compoundCurveAngleAtFullSize'
p1656
sg343
(lp1657
sbsbasbasbsg458
(i__main__
DelphiIdentAccess
p1658
(dp1659
g16
S'difference'
p1660
sg343
(lp1661
sbsba(i__main__
DelphiAssignStatement
p1662
(dp1663
g420
(idelphi
DelphiAddOp
p1664
(dp1665
g1440
S'+'
sg1441
(idelphi
DelphiMulOp
p1666
(dp1667
g423
(i__main__
DelphiIdentAccess
p1668
(dp1669
g16
S'safedivExcept'
p1670
sg343
(lp1671
(idelphi
DelphiFunctionEndAccess
p1672
(dp1673
g500
(lp1674
(i__main__
DelphiIdentAccess
p1675
(dp1676
g16
S'count'
p1677
sg343
(lp1678
sba(idelphi
DelphiAddOp
p1679
(dp1680
g1440
S'-'
sg1441
(idelphi
DelphiIntegerValue
p1681
(dp1682
g14
S'1'
sbsg1467
(i__main__
DelphiIdentAccess
p1683
(dp1684
g16
S'compoundNumLeaflets'
p1685
sg343
(lp1686
sbsba(idelphi
DelphiIntegerValue
p1687
(dp1688
g14
S'0'
sbasbasbsg427
S'*'
sg428
(idelphi
DelphiRealValue
p1689
(dp1690
g14
S'0.25'
p1691
sbsbsg1467
(idelphi
DelphiRealValue
p1692
(dp1693
g14
S'0.75'
p1694
sbsbsg458
(i__main__
DelphiIdentAccess
p1695
(dp1696
g16
S'leafletNumberEffect'
p1697
sg343
(lp1698
sbsba(i__main__
DelphiAssignStatement
p1699
(dp1700
g420
(i__main__
DelphiIdentAccess
p1701
(dp1702
g16
S'max'
p1703
sg343
(lp1704
(idelphi
DelphiFunctionEndAccess
p1705
(dp1706
g500
(lp1707
(idelphi
DelphiRealValue
p1708
(dp1709
g14
S'0.0'
p1710
sba(i__main__
DelphiIdentAccess
p1711
(dp1712
g16
S'min'
p1713
sg343
(lp1714
(idelphi
DelphiFunctionEndAccess
p1715
(dp1716
g500
(lp1717
(idelphi
DelphiRealValue
p1718
(dp1719
g14
S'1.0'
p1720
sba(idelphi
DelphiMulOp
p1721
(dp1722
g423
(i__main__
DelphiIdentAccess
p1723
(dp1724
g16
S'leafletNumberEffect'
p1725
sg343
(lp1726
sbsg427
S'*'
sg428
(idelphi
DelphiNestedExpressionListAccess
p1727
(dp1728
g343
(lp1729
sg500
(lp1730
(idelphi
DelphiAddOp
p1731
(dp1732
g1440
S'+'
sg1441
(idelphi
DelphiMulOp
p1733
(dp1734
g423
(i__main__
DelphiIdentAccess
p1735
(dp1736
g16
S'propFullSize'
p1737
sg343
(lp1738
sbsg427
S'*'
sg428
(idelphi
DelphiRealValue
p1739
(dp1740
g14
S'0.75'
p1741
sbsbsg1467
(idelphi
DelphiRealValue
p1742
(dp1743
g14
S'0.25'
p1744
sbsbasbsbasbasbasbasbsg458
(i__main__
DelphiIdentAccess
p1745
(dp1746
g16
S'propFullSizeThisLeaflet'
p1747
sg343
(lp1748
sbsba(idelphi
DelphiIfStatement
p1749
(dp1750
g701
(idelphi
DelphiRelOp
p1751
(dp1752
g708
(i__main__
DelphiIdentAccess
p1753
(dp1754
g16
S'compoundCurveAngleAtFullSize'
p1755
sg343
(lp1756
sbsg713
(i__main__
DelphiIdentAccess
p1757
(dp1758
g16
S'compoundCurveAngleAtStart'
p1759
sg343
(lp1760
sbsg716
S'>'
sbsg717
(i__main__
DelphiAssignStatement
p1761
(dp1762
g420
(idelphi
DelphiAddOp
p1763
(dp1764
g1440
S'-'
sg1441
(idelphi
DelphiMulOp
p1765
(dp1766
g423
(i__main__
DelphiIdentAccess
p1767
(dp1768
g16
S'propFullSizeThisLeaflet'
p1769
sg343
(lp1770
sbsg427
S'*'
sg428
(i__main__
DelphiIdentAccess
p1771
(dp1772
g16
S'difference'
p1773
sg343
(lp1774
sbsbsg1467
(i__main__
DelphiIdentAccess
p1775
(dp1776
g16
S'compoundCurveAngleAtStart'
p1777
sg343
(lp1778
sbsbsg458
(i__main__
DelphiIdentAccess
p1779
(dp1780
g16
S'result'
p1781
sg343
(lp1782
sbsbsg718
(i__main__
DelphiAssignStatement
p1783
(dp1784
g420
(idelphi
DelphiAddOp
p1785
(dp1786
g1440
S'+'
sg1441
(idelphi
DelphiMulOp
p1787
(dp1788
g423
(i__main__
DelphiIdentAccess
p1789
(dp1790
g16
S'propFullSizeThisLeaflet'
p1791
sg343
(lp1792
sbsg427
S'*'
sg428
(i__main__
DelphiIdentAccess
p1793
(dp1794
g16
S'difference'
p1795
sg343
(lp1796
sbsbsg1467
(i__main__
DelphiIdentAccess
p1797
(dp1798
g16
S'compoundCurveAngleAtStart'
p1799
sg343
(lp1800
sbsbsg458
(i__main__
DelphiIdentAccess
p1801
(dp1802
g16
S'result'
p1803
sg343
(lp1804
sbsbsbasbsg657
(lp1805
(i__main__
DelphiIdentAccess
p1806
(dp1807
g16
S'plant'
p1808
sg343
(lp1809
(idelphi
DelphiFieldEndAccess
p1810
(dp1811
g437
S'pLeaf'
p1812
sbasbasbasbsg598
(lp1813
(i__main__
DelphiVarSection
p1814
(dp1815
g23
I0
sg602
(lp1816
(idelphi
DelphiVarDecl
p1817
(dp1818
g11
Nsg606
(lp1819
S'leafletNumberEffect'
p1820
aS'propFullSizeThisLeaflet'
p1821
aS'difference'
p1822
asg18
(i__main__
DelphiPrimitiveType
p1823
(dp1824
g21
g77
sbsbasbasbsg463
(lp1825
S' v1.6b3\r'
p1826
asbsS'nextday'
p1827
(i__main__
DelphiMethodImplementation
p1828
(dp1829
g390
g152
sg36
g154
sg44
(lp1830
sg398
(lp1831
sg400
(lp1832
sg402
(lp1833
g404
asg405
(dp1834
sg56
S'PdLeaf'
p1835
sg57
Nsg408
(lp1836
sg58
I0
sg59
g60
sg410
(i__main__
DelphiBlock
p1837
(dp1838
g413
(idelphi
DelphiCompoundStatement
p1839
(dp1840
g416
(lp1841
(idelphi
DelphiTryExceptStatement
p1842
(dp1843
S'tryStatements'
p1844
(lp1845
(i__main__
DelphiAssignStatement
p1846
(dp1847
g420
Nsg458
(idelphi
DelphiInheritedCall
p1848
(dp1849
g16
S'nextDay'
p1850
sg500
Nsbsba(i__main__
DelphiAssignStatement
p1851
(dp1852
g420
Nsg458
(i__main__
DelphiIdentAccess
p1853
(dp1854
g16
S'self'
p1855
sg343
(lp1856
(idelphi
DelphiFieldEndAccess
p1857
(dp1858
g437
S'checkIfHasAbscissed'
p1859
sbasbsbasS'exceptionHandlers'
p1860
(idelphi
DelphiExceptionHandlers
p1861
(dp1862
S'exceptionHandlerList'
p1863
(lp1864
(idelphi
DelphiExceptionHandler
p1865
(dp1866
S'classTypeIdentifier'
p1867
(i__main__
DelphiNamedType
p1868
(dp1869
g21
S'Exception'
p1870
sg73
g1
sg74
Nsbsg16
S'e'
sg640
(i__main__
DelphiAssignStatement
p1871
(dp1872
g420
Nsg458
(i__main__
DelphiIdentAccess
p1873
(dp1874
g16
S'messageForExceptionType'
p1875
sg343
(lp1876
(idelphi
DelphiFunctionEndAccess
p1877
(dp1878
g500
(lp1879
(i__main__
DelphiIdentAccess
p1880
(dp1881
g16
S'e'
sg343
(lp1882
sba(idelphi
DelphiStringAccess
p1883
(dp1884
g343
(lp1885
sg14
(idelphi
DelphiStringValue
p1886
(dp1887
g14
S'PdLeaf.nextDay'
p1888
sbsbasbasbsbsbasS'statementList'
p1889
(lp1890
sbsbasbsg598
(lp1891
sbsbsS'streamdatawithfiler'
p1892
(i__main__
DelphiMethodImplementation
p1893
(dp1894
g390
g157
sg36
g159
sg44
(lp1895
(i__main__
DelphiFormalParameter
p1896
(dp1897
g48
Nsg49
(lp1898
S'filer'
p1899
asg18
(i__main__
DelphiNamedType
p1900
(dp1901
g21
S'PdFiler'
p1902
sg73
g1
sg74
Nsbsg55
Nsba(i__main__
DelphiFormalParameter
p1903
(dp1904
g48
Nsg49
(lp1905
S'cvir'
p1906
asg18
(i__main__
DelphiNamedType
p1907
(dp1908
g21
S'PdClassAndVersionInformationRecord'
p1909
sg73
g1
sg74
Nsbsg55
g175
sbasg398
(lp1910
sg400
(lp1911
sg402
(lp1912
g404
ag1899
ag1906
asg405
(dp1913
g1899
g1900
sg1906
g1907
ssg56
S'PdLeaf'
p1914
sg57
Nsg408
(lp1915
sg58
I0
sg59
g60
sg410
(i__main__
DelphiBlock
p1916
(dp1917
g413
(idelphi
DelphiCompoundStatement
p1918
(dp1919
g416
(lp1920
(i__main__
DelphiAssignStatement
p1921
(dp1922
g420
Nsg458
(idelphi
DelphiInheritedCall
p1923
(dp1924
g16
S'streamDataWithFiler'
p1925
sg500
(lp1926
(i__main__
DelphiIdentAccess
p1927
(dp1928
g16
S'filer'
p1929
sg343
(lp1930
sba(i__main__
DelphiIdentAccess
p1931
(dp1932
g16
S'cvir'
p1933
sg343
(lp1934
sbasbsba(idelphi
DelphiWithStatement
p1935
(dp1936
g640
(idelphi
DelphiCompoundStatement
p1937
(dp1938
g416
(lp1939
(i__main__
DelphiAssignStatement
p1940
(dp1941
g420
Nsg458
(i__main__
DelphiIdentAccess
p1942
(dp1943
g16
S'streamBytes'
p1944
sg343
(lp1945
(idelphi
DelphiFunctionEndAccess
p1946
(dp1947
g500
(lp1948
(i__main__
DelphiIdentAccess
p1949
(dp1950
g16
S'sCurveParams'
p1951
sg343
(lp1952
sba(idelphi
DelphiSizeof
p1953
(dp1954
g11
(i__main__
DelphiIdentAccess
p1955
(dp1956
g16
S'sCurveParams'
p1957
sg343
(lp1958
sbsbasbasbsba(i__main__
DelphiAssignStatement
p1959
(dp1960
g420
Nsg458
(i__main__
DelphiIdentAccess
p1961
(dp1962
g16
S'streamSingle'
p1963
sg343
(lp1964
(idelphi
DelphiFunctionEndAccess
p1965
(dp1966
g500
(lp1967
(i__main__
DelphiIdentAccess
p1968
(dp1969
g16
S'propFullSize'
p1970
sg343
(lp1971
sbasbasbsba(i__main__
DelphiAssignStatement
p1972
(dp1973
g420
Nsg458
(i__main__
DelphiIdentAccess
p1974
(dp1975
g16
S'streamSingle'
p1976
sg343
(lp1977
(idelphi
DelphiFunctionEndAccess
p1978
(dp1979
g500
(lp1980
(i__main__
DelphiIdentAccess
p1981
(dp1982
g16
S'biomassAtCreation_pctMPB'
p1983
sg343
(lp1984
sbasbasbsba(i__main__
DelphiAssignStatement
p1985
(dp1986
g420
Nsg458
(i__main__
DelphiIdentAccess
p1987
(dp1988
g16
S'streamBoolean'
p1989
sg343
(lp1990
(idelphi
DelphiFunctionEndAccess
p1991
(dp1992
g500
(lp1993
(i__main__
DelphiIdentAccess
p1994
(dp1995
g16
S'isSeedlingLeaf'
p1996
sg343
(lp1997
sbasbasbsbasbsg657
(lp1998
(i__main__
DelphiIdentAccess
p1999
(dp2000
g16
S'filer'
p2001
sg343
(lp2002
sbasbasbsg598
(lp2003
sbsbsS'drawstipule'
p2004
(i__main__
DelphiMethodImplementation
p2005
(dp2006
g390
g177
sg36
g179
sg44
(lp2007
sg398
(lp2008
sg400
(lp2009
sg402
(lp2010
g404
asg405
(dp2011
sg56
S'PdLeaf'
p2012
sg57
Nsg408
(lp2013
sg58
I0
sg59
g60
sg410
(i__main__
DelphiBlock
p2014
(dp2015
g413
(idelphi
DelphiCompoundStatement
p2016
(dp2017
g416
(lp2018
(i__main__
DelphiAssignStatement
p2019
(dp2020
g420
(i__main__
DelphiIdentAccess
p2021
(dp2022
g16
S'plant'
p2023
sg343
(lp2024
(idelphi
DelphiFieldEndAccess
p2025
(dp2026
g437
S'turtle'
p2027
sbasbsg458
(i__main__
DelphiIdentAccess
p2028
(dp2029
g16
S'turtle'
p2030
sg343
(lp2031
sbsba(idelphi
DelphiIfStatement
p2032
(dp2033
g701
(idelphi
DelphiNestedExpressionListAccess
p2034
(dp2035
g343
(lp2036
sg500
(lp2037
(idelphi
DelphiRelOp
p2038
(dp2039
g708
(i__main__
DelphiIdentAccess
p2040
(dp2041
g16
S'turtle'
p2042
sg343
(lp2043
sbsg713
(idelphi
DelphiNilValue
p2044
(dp2045
bsg716
S'='
sbasbsg717
Nsg718
(i__main__
DelphiExitStatement
p2046
(dp2047
g721
g2005
sbsba(idelphi
DelphiIfStatement
p2048
(dp2049
g701
(i__main__
DelphiIdentAccess
p2050
(dp2051
g16
S'isSeedlingLeaf'
p2052
sg343
(lp2053
sbsg717
Nsg718
(i__main__
DelphiExitStatement
p2054
(dp2055
g721
g2005
sbsba(i__main__
DelphiAssignStatement
p2056
(dp2057
g420
Nsg458
(i__main__
DelphiIdentAccess
p2058
(dp2059
g16
S'turtle'
p2060
sg343
(lp2061
(idelphi
DelphiFieldEndAccess
p2062
(dp2063
g437
S'push'
p2064
sbasbsba(idelphi
DelphiWithStatement
p2065
(dp2066
g640
(idelphi
DelphiCompoundStatement
p2067
(dp2068
g416
(lp2069
(i__main__
DelphiAssignStatement
p2070
(dp2071
g420
Nsg458
(i__main__
DelphiIdentAccess
p2072
(dp2073
g16
S'turtle'
p2074
sg343
(lp2075
(idelphi
DelphiFieldEndAccess
p2076
(dp2077
g437
S'rotateX'
p2078
sba(idelphi
DelphiFunctionEndAccess
p2079
(dp2080
g500
(lp2081
(i__main__
DelphiIdentAccess
p2082
(dp2083
g16
S'self'
p2084
sg343
(lp2085
(idelphi
DelphiFieldEndAccess
p2086
(dp2087
g437
S'angleWithSway'
p2088
sba(idelphi
DelphiFunctionEndAccess
p2089
(dp2090
g500
(lp2091
(i__main__
DelphiIdentAccess
p2092
(dp2093
g16
S'xRotationBeforeDraw'
p2094
sg343
(lp2095
sbasbasbasbasbsba(i__main__
DelphiAssignStatement
p2096
(dp2097
g420
Nsg458
(i__main__
DelphiIdentAccess
p2098
(dp2099
g16
S'turtle'
p2100
sg343
(lp2101
(idelphi
DelphiFieldEndAccess
p2102
(dp2103
g437
S'rotateY'
p2104
sba(idelphi
DelphiFunctionEndAccess
p2105
(dp2106
g500
(lp2107
(i__main__
DelphiIdentAccess
p2108
(dp2109
g16
S'self'
p2110
sg343
(lp2111
(idelphi
DelphiFieldEndAccess
p2112
(dp2113
g437
S'angleWithSway'
p2114
sba(idelphi
DelphiFunctionEndAccess
p2115
(dp2116
g500
(lp2117
(i__main__
DelphiIdentAccess
p2118
(dp2119
g16
S'yRotationBeforeDraw'
p2120
sg343
(lp2121
sbasbasbasbasbsba(i__main__
DelphiAssignStatement
p2122
(dp2123
g420
Nsg458
(i__main__
DelphiIdentAccess
p2124
(dp2125
g16
S'turtle'
p2126
sg343
(lp2127
(idelphi
DelphiFieldEndAccess
p2128
(dp2129
g437
S'rotateZ'
p2130
sba(idelphi
DelphiFunctionEndAccess
p2131
(dp2132
g500
(lp2133
(i__main__
DelphiIdentAccess
p2134
(dp2135
g16
S'self'
p2136
sg343
(lp2137
(idelphi
DelphiFieldEndAccess
p2138
(dp2139
g437
S'angleWithSway'
p2140
sba(idelphi
DelphiFunctionEndAccess
p2141
(dp2142
g500
(lp2143
(i__main__
DelphiIdentAccess
p2144
(dp2145
g16
S'zRotationBeforeDraw'
p2146
sg343
(lp2147
sbasbasbasbasbsba(i__main__
DelphiAssignStatement
p2148
(dp2149
g420
(idelphi
DelphiMulOp
p2150
(dp2151
g423
(idelphi
DelphiRealValue
p2152
(dp2153
g14
S'1.0'
p2154
sbsg427
S'*'
sg428
(idelphi
DelphiNestedExpressionListAccess
p2155
(dp2156
g343
(lp2157
sg500
(lp2158
(idelphi
DelphiMulOp
p2159
(dp2160
g423
(idelphi
DelphiNestedExpressionListAccess
p2161
(dp2162
g343
(lp2163
sg500
(lp2164
(idelphi
DelphiMulOp
p2165
(dp2166
g423
(idelphi
DelphiRealValue
p2167
(dp2168
g14
S'100.0'
p2169
sbsg427
S'/'
sg428
(i__main__
DelphiIdentAccess
p2170
(dp2171
g16
S'scaleAtFullSize'
p2172
sg343
(lp2173
sbsbasbsg427
S'*'
sg428
(i__main__
DelphiIdentAccess
p2174
(dp2175
g16
S'self'
p2176
sg343
(lp2177
(idelphi
DelphiFieldEndAccess
p2178
(dp2179
g437
S'propFullSize'
p2180
sbasbsbasbsbsg458
(i__main__
DelphiIdentAccess
p2181
(dp2182
g16
S'scale'
p2183
sg343
(lp2184
sbsba(idelphi
DelphiIfStatement
p2185
(dp2186
g701
(idelphi
DelphiRelOp
p2187
(dp2188
g708
(i__main__
DelphiIdentAccess
p2189
(dp2190
g16
S'repetitions'
p2191
sg343
(lp2192
sbsg713
(idelphi
DelphiIntegerValue
p2193
(dp2194
g14
S'1'
sbsg716
S'>'
sbsg717
(idelphi
DelphiIfStatement
p2195
(dp2196
g701
(idelphi
DelphiRelOp
p2197
(dp2198
g708
(i__main__
DelphiIdentAccess
p2199
(dp2200
g16
S'object3D'
p2201
sg343
(lp2202
sbsg713
(idelphi
DelphiNilValue
p2203
(dp2204
bsg716
S'<>'
p2205
sbsg717
Nsg718
(i__main__
DelphiAssignStatement
p2206
(dp2207
g420
Nsg458
(i__main__
DelphiIdentAccess
p2208
(dp2209
g16
S'self'
p2210
sg343
(lp2211
(idelphi
DelphiFieldEndAccess
p2212
(dp2213
g437
S'draw3DObject'
p2214
sba(idelphi
DelphiFunctionEndAccess
p2215
(dp2216
g500
(lp2217
(i__main__
DelphiIdentAccess
p2218
(dp2219
g16
S'object3D'
p2220
sg343
(lp2221
sba(i__main__
DelphiIdentAccess
p2222
(dp2223
g16
S'scale'
p2224
sg343
(lp2225
sba(i__main__
DelphiIdentAccess
p2226
(dp2227
g16
S'faceColor'
p2228
sg343
(lp2229
sba(i__main__
DelphiIdentAccess
p2230
(dp2231
g16
S'backfaceColor'
p2232
sg343
(lp2233
sba(i__main__
DelphiIdentAccess
p2234
(dp2235
g16
S'kExportPartLeafStipule'
p2236
sg343
(lp2237
sbasbasbsbsbsg718
(idelphi
DelphiCompoundStatement
p2238
(dp2239
g416
(lp2240
(i__main__
DelphiAssignStatement
p2241
(dp2242
g420
(idelphi
DelphiMulOp
p2243
(dp2244
g423
(i__main__
DelphiIdentAccess
p2245
(dp2246
g16
S'repetitions'
p2247
sg343
(lp2248
sbsg427
S'div'
p2249
sg428
(idelphi
DelphiIntegerValue
p2250
(dp2251
g14
S'256'
p2252
sbsbsg458
(i__main__
DelphiIdentAccess
p2253
(dp2254
g16
S'turnPortion'
p2255
sg343
(lp2256
sbsba(i__main__
DelphiAssignStatement
p2257
(dp2258
g420
(idelphi
DelphiAddOp
p2259
(dp2260
g1440
S'-'
sg1441
(idelphi
DelphiMulOp
p2261
(dp2262
g423
(i__main__
DelphiIdentAccess
p2263
(dp2264
g16
S'repetitions'
p2265
sg343
(lp2266
sbsg427
S'*'
sg428
(i__main__
DelphiIdentAccess
p2267
(dp2268
g16
S'turnPortion'
p2269
sg343
(lp2270
sbsbsg1467
(idelphi
DelphiIntegerValue
p2271
(dp2272
g14
S'256'
p2273
sbsbsg458
(i__main__
DelphiIdentAccess
p2274
(dp2275
g16
S'leftOverDegrees'
p2276
sg343
(lp2277
sbsba(idelphi
DelphiIfStatement
p2278
(dp2279
g701
(idelphi
DelphiRelOp
p2280
(dp2281
g708
(i__main__
DelphiIdentAccess
p2282
(dp2283
g16
S'leftOverDegrees'
p2284
sg343
(lp2285
sbsg713
(idelphi
DelphiIntegerValue
p2286
(dp2287
g14
S'0'
sbsg716
S'>'
sbsg717
(i__main__
DelphiAssignStatement
p2288
(dp2289
g420
(idelphi
DelphiIntegerValue
p2290
(dp2291
g14
S'0'
sbsg458
(i__main__
DelphiIdentAccess
p2292
(dp2293
g16
S'addition'
p2294
sg343
(lp2295
sbsbsg718
(i__main__
DelphiAssignStatement
p2296
(dp2297
g420
(idelphi
DelphiMulOp
p2298
(dp2299
g423
(i__main__
DelphiIdentAccess
p2300
(dp2301
g16
S'repetitions'
p2302
sg343
(lp2303
sbsg427
S'/'
sg428
(i__main__
DelphiIdentAccess
p2304
(dp2305
g16
S'leftOverDegrees'
p2306
sg343
(lp2307
sbsbsg458
(i__main__
DelphiIdentAccess
p2308
(dp2309
g16
S'addition'
p2310
sg343
(lp2311
sbsbsba(i__main__
DelphiAssignStatement
p2312
(dp2313
g420
(idelphi
DelphiIntegerValue
p2314
(dp2315
g14
S'0'
sbsg458
(i__main__
DelphiIdentAccess
p2316
(dp2317
g16
S'carryOver'
p2318
sg343
(lp2319
sbsba(idelphi
DelphiForStatement
p2320
(dp2321
g768
S'i'
sg769
(i__main__
DelphiIdentAccess
p2322
(dp2323
g16
S'repetitions'
p2324
sg343
(lp2325
sbsg772
S'to'
p2326
sg48
(idelphi
DelphiIntegerValue
p2327
(dp2328
g14
S'1'
sbsg640
(idelphi
DelphiCompoundStatement
p2329
(dp2330
g416
(lp2331
(i__main__
DelphiAssignStatement
p2332
(dp2333
g420
(i__main__
DelphiIdentAccess
p2334
(dp2335
g16
S'trunc'
p2336
sg343
(lp2337
(idelphi
DelphiFunctionEndAccess
p2338
(dp2339
g500
(lp2340
(idelphi
DelphiAddOp
p2341
(dp2342
g1440
S'+'
sg1441
(i__main__
DelphiIdentAccess
p2343
(dp2344
g16
S'carryOver'
p2345
sg343
(lp2346
sbsg1467
(i__main__
DelphiIdentAccess
p2347
(dp2348
g16
S'addition'
p2349
sg343
(lp2350
sbsbasbasbsg458
(i__main__
DelphiIdentAccess
p2351
(dp2352
g16
S'addThisTime'
p2353
sg343
(lp2354
sbsba(i__main__
DelphiAssignStatement
p2355
(dp2356
g420
(idelphi
DelphiAddOp
p2357
(dp2358
g1440
S'-'
sg1441
(i__main__
DelphiIdentAccess
p2359
(dp2360
g16
S'addThisTime'
p2361
sg343
(lp2362
sbsg1467
(idelphi
DelphiAddOp
p2363
(dp2364
g1440
S'+'
sg1441
(i__main__
DelphiIdentAccess
p2365
(dp2366
g16
S'addition'
p2367
sg343
(lp2368
sbsg1467
(i__main__
DelphiIdentAccess
p2369
(dp2370
g16
S'carryOver'
p2371
sg343
(lp2372
sbsbsbsg458
(i__main__
DelphiIdentAccess
p2373
(dp2374
g16
S'carryOver'
p2375
sg343
(lp2376
sbsba(idelphi
DelphiIfStatement
p2377
(dp2378
g701
(idelphi
DelphiRelOp
p2379
(dp2380
g708
(i__main__
DelphiIdentAccess
p2381
(dp2382
g16
S'carryOver'
p2383
sg343
(lp2384
sbsg713
(idelphi
DelphiIntegerValue
p2385
(dp2386
g14
S'0'
sbsg716
S'<'
sbsg717
Nsg718
(i__main__
DelphiAssignStatement
p2387
(dp2388
g420
(idelphi
DelphiIntegerValue
p2389
(dp2390
g14
S'0'
sbsg458
(i__main__
DelphiIdentAccess
p2391
(dp2392
g16
S'carryOver'
p2393
sg343
(lp2394
sbsbsba(i__main__
DelphiAssignStatement
p2395
(dp2396
g420
Nsg458
(i__main__
DelphiIdentAccess
p2397
(dp2398
g16
S'turtle'
p2399
sg343
(lp2400
(idelphi
DelphiFieldEndAccess
p2401
(dp2402
g437
S'RotateY'
p2403
sba(idelphi
DelphiFunctionEndAccess
p2404
(dp2405
g500
(lp2406
(idelphi
DelphiAddOp
p2407
(dp2408
g1440
S'+'
sg1441
(i__main__
DelphiIdentAccess
p2409
(dp2410
g16
S'addThisTime'
p2411
sg343
(lp2412
sbsg1467
(i__main__
DelphiIdentAccess
p2413
(dp2414
g16
S'turnPortion'
p2415
sg343
(lp2416
sbsbasbasbsba(idelphi
DelphiIfStatement
p2417
(dp2418
g701
(idelphi
DelphiRelOp
p2419
(dp2420
g708
(i__main__
DelphiIdentAccess
p2421
(dp2422
g16
S'object3D'
p2423
sg343
(lp2424
sbsg713
(idelphi
DelphiNilValue
p2425
(dp2426
bsg716
g2205
sbsg717
Nsg718
(i__main__
DelphiAssignStatement
p2427
(dp2428
g420
Nsg458
(i__main__
DelphiIdentAccess
p2429
(dp2430
g16
S'self'
p2431
sg343
(lp2432
(idelphi
DelphiFieldEndAccess
p2433
(dp2434
g437
S'draw3DObject'
p2435
sba(idelphi
DelphiFunctionEndAccess
p2436
(dp2437
g500
(lp2438
(i__main__
DelphiIdentAccess
p2439
(dp2440
g16
S'object3D'
p2441
sg343
(lp2442
sba(i__main__
DelphiIdentAccess
p2443
(dp2444
g16
S'scale'
p2445
sg343
(lp2446
sba(i__main__
DelphiIdentAccess
p2447
(dp2448
g16
S'faceColor'
p2449
sg343
(lp2450
sba(i__main__
DelphiIdentAccess
p2451
(dp2452
g16
S'backfaceColor'
p2453
sg343
(lp2454
sba(i__main__
DelphiIdentAccess
p2455
(dp2456
g16
S'kExportPartLeafStipule'
p2457
sg343
(lp2458
sbasbasbsbsbasbsbasbsbasbsg657
(lp2459
(i__main__
DelphiIdentAccess
p2460
(dp2461
g16
S'plant'
p2462
sg343
(lp2463
(idelphi
DelphiFieldEndAccess
p2464
(dp2465
g437
S'pLeaf'
p2466
sba(idelphi
DelphiFieldEndAccess
p2467
(dp2468
g437
S'stipuleTdoParams'
p2469
sbasbasba(i__main__
DelphiAssignStatement
p2470
(dp2471
g420
Nsg458
(i__main__
DelphiIdentAccess
p2472
(dp2473
g16
S'turtle'
p2474
sg343
(lp2475
(idelphi
DelphiFieldEndAccess
p2476
(dp2477
g437
S'pop'
p2478
sbasbsbasbsg598
(lp2479
(i__main__
DelphiVarSection
p2480
(dp2481
g23
I0
sg602
(lp2482
(idelphi
DelphiVarDecl
p2483
(dp2484
g11
Nsg606
(lp2485
S'turtle'
p2486
asg18
(i__main__
DelphiNamedType
p2487
(dp2488
g21
S'KfTurtle'
p2489
sg73
g1
sg74
Nsbsba(idelphi
DelphiVarDecl
p2490
(dp2491
g11
Nsg606
(lp2492
S'scale'
p2493
asg18
(i__main__
DelphiPrimitiveType
p2494
(dp2495
g21
g77
sbsba(idelphi
DelphiVarDecl
p2496
(dp2497
g11
Nsg606
(lp2498
S'i'
aS'turnPortion'
p2499
aS'leftOverDegrees'
p2500
aS'addThisTime'
p2501
asg18
(i__main__
DelphiPrimitiveType
p2502
(dp2503
g21
g54
sbsba(idelphi
DelphiVarDecl
p2504
(dp2505
g11
Nsg606
(lp2506
S'addition'
p2507
aS'carryOver'
p2508
asg18
(i__main__
DelphiPrimitiveType
p2509
(dp2510
g21
g77
sbsbasbasbsbsS'tdotosortlineswith'
p2511
(i__main__
DelphiMethodImplementation
p2512
(dp2513
g390
g182
sg36
g184
sg44
(lp2514
sg398
(lp2515
sg400
(lp2516
sg402
(lp2517
g404
asg405
(dp2518
sg56
S'PdLeaf'
p2519
sg57
(i__main__
DelphiNamedType
p2520
(dp2521
g21
S'KfObject3D'
p2522
sg73
g1
sg74
Nsbsg408
(lp2523
sg58
I0
sg59
g78
sg410
(i__main__
DelphiBlock
p2524
(dp2525
g413
(idelphi
DelphiCompoundStatement
p2526
(dp2527
g416
(lp2528
(i__main__
DelphiAssignStatement
p2529
(dp2530
g420
(idelphi
DelphiNilValue
p2531
(dp2532
bsg458
(i__main__
DelphiIdentAccess
p2533
(dp2534
g16
S'result'
p2535
sg343
(lp2536
sbsba(idelphi
DelphiIfStatement
p2537
(dp2538
g701
(idelphi
DelphiRelOp
p2539
(dp2540
g708
(i__main__
DelphiIdentAccess
p2541
(dp2542
g16
S'plant'
p2543
sg343
(lp2544
sbsg713
(idelphi
DelphiNilValue
p2545
(dp2546
bsg716
S'='
sbsg717
Nsg718
(i__main__
DelphiExitStatement
p2547
(dp2548
g721
g2512
sbsba(idelphi
DelphiIfStatement
p2549
(dp2550
g701
(i__main__
DelphiIdentAccess
p2551
(dp2552
g16
S'isSeedlingLeaf'
p2553
sg343
(lp2554
sbsg717
(i__main__
DelphiAssignStatement
p2555
(dp2556
g420
(i__main__
DelphiIdentAccess
p2557
(dp2558
g16
S'plant'
p2559
sg343
(lp2560
(idelphi
DelphiFieldEndAccess
p2561
(dp2562
g437
S'pLeaf'
p2563
sba(idelphi
DelphiFieldEndAccess
p2564
(dp2565
g437
S'leafTdoParams'
p2566
sba(idelphi
DelphiFieldEndAccess
p2567
(dp2568
g437
S'object3D'
p2569
sbasbsg458
(i__main__
DelphiIdentAccess
p2570
(dp2571
g16
S'result'
p2572
sg343
(lp2573
sbsbsg718
(i__main__
DelphiAssignStatement
p2574
(dp2575
g420
(i__main__
DelphiIdentAccess
p2576
(dp2577
g16
S'plant'
p2578
sg343
(lp2579
(idelphi
DelphiFieldEndAccess
p2580
(dp2581
g437
S'pSeedlingLeaf'
p2582
sba(idelphi
DelphiFieldEndAccess
p2583
(dp2584
g437
S'leafTdoParams'
p2585
sba(idelphi
DelphiFieldEndAccess
p2586
(dp2587
g437
S'object3D'
p2588
sbasbsg458
(i__main__
DelphiIdentAccess
p2589
(dp2590
g16
S'result'
p2591
sg343
(lp2592
sbsbsbasbsg598
(lp2593
sbsbsS'newwithplantfractionofoptimalsize'
p2594
(i__main__
DelphiMethodImplementation
p2595
(dp2596
g390
g190
sg36
g192
sg44
(lp2597
(i__main__
DelphiFormalParameter
p2598
(dp2599
g48
Nsg49
(lp2600
S'aPlant'
p2601
asg18
(i__main__
DelphiNamedType
p2602
(dp2603
g21
S'PdPlant'
p2604
sg73
g1
sg74
Nsbsg55
Nsba(i__main__
DelphiFormalParameter
p2605
(dp2606
g48
Nsg49
(lp2607
S'aFraction'
p2608
asg18
(i__main__
DelphiPrimitiveType
p2609
(dp2610
g21
g77
sbsg55
Nsbasg398
(lp2611
sg400
(lp2612
sg402
(lp2613
g404
ag2601
ag2608
asg405
(dp2614
g2608
g2609
sg2601
g2602
ssg56
S'PdLeaf'
p2615
sg57
(i__main__
DelphiNamedType
p2616
(dp2617
g21
S'PdLeaf'
p2618
sg73
g1
sg74
Nsbsg408
(lp2619
sg58
I0
sg59
g78
sg410
(i__main__
DelphiBlock
p2620
(dp2621
g413
(idelphi
DelphiCompoundStatement
p2622
(dp2623
g416
(lp2624
(i__main__
DelphiAssignStatement
p2625
(dp2626
g420
(i__main__
DelphiIdentAccess
p2627
(dp2628
g16
S'create'
p2629
sg343
(lp2630
sbsg458
(i__main__
DelphiIdentAccess
p2631
(dp2632
g16
S'result'
p2633
sg343
(lp2634
sbsba(i__main__
DelphiAssignStatement
p2635
(dp2636
g420
Nsg458
(i__main__
DelphiIdentAccess
p2637
(dp2638
g16
S'result'
p2639
sg343
(lp2640
(idelphi
DelphiFieldEndAccess
p2641
(dp2642
g437
S'initializeFractionOfOptimalSize'
p2643
sba(idelphi
DelphiFunctionEndAccess
p2644
(dp2645
g500
(lp2646
(i__main__
DelphiIdentAccess
p2647
(dp2648
g16
S'aPlant'
p2649
sg343
(lp2650
sba(i__main__
DelphiIdentAccess
p2651
(dp2652
g16
S'aFraction'
p2653
sg343
(lp2654
sbasbasbsbasbsg598
(lp2655
sbsbsS'initializefractionofoptimalsize'
p2656
(i__main__
DelphiMethodImplementation
p2657
(dp2658
g390
g211
sg36
g213
sg44
(lp2659
(i__main__
DelphiFormalParameter
p2660
(dp2661
g48
Nsg49
(lp2662
S'thePlant'
p2663
asg18
(i__main__
DelphiNamedType
p2664
(dp2665
g21
S'PdPlant'
p2666
sg73
g1
sg74
Nsbsg55
Nsba(i__main__
DelphiFormalParameter
p2667
(dp2668
g48
Nsg49
(lp2669
S'aFraction'
p2670
asg18
(i__main__
DelphiPrimitiveType
p2671
(dp2672
g21
g77
sbsg55
Nsbasg398
(lp2673
sg400
(lp2674
sg402
(lp2675
g404
ag2663
ag2670
asg405
(dp2676
g2663
g2664
sg2670
g2671
ssg56
S'PdLeaf'
p2677
sg57
Nsg408
(lp2678
sg58
I0
sg59
g60
sg410
(i__main__
DelphiBlock
p2679
(dp2680
g413
(idelphi
DelphiCompoundStatement
p2681
(dp2682
g416
(lp2683
(idelphi
DelphiTryExceptStatement
p2684
(dp2685
g1844
(lp2686
(i__main__
DelphiAssignStatement
p2687
(dp2688
g420
Nsg458
(i__main__
DelphiIdentAccess
p2689
(dp2690
g16
S'initialize'
p2691
sg343
(lp2692
(idelphi
DelphiFunctionEndAccess
p2693
(dp2694
g500
(lp2695
(i__main__
DelphiIdentAccess
p2696
(dp2697
g16
S'thePlant'
p2698
sg343
(lp2699
sbasbasbsba(i__main__
DelphiAssignStatement
p2700
(dp2701
g420
(i__main__
DelphiIdentAccess
p2702
(dp2703
g16
S'false'
p2704
sg343
(lp2705
sbsg458
(i__main__
DelphiIdentAccess
p2706
(dp2707
g16
S'isSeedlingLeaf'
p2708
sg343
(lp2709
sbsg463
(lp2710
S'Plant sets this from outside on first phytomer.'
p2711
asba(i__main__
DelphiAssignStatement
p2712
(dp2713
g420
(idelphi
DelphiMulOp
p2714
(dp2715
g423
(i__main__
DelphiIdentAccess
p2716
(dp2717
g16
S'PdLeaf'
p2718
sg343
(lp2719
(idelphi
DelphiFieldEndAccess
p2720
(dp2721
g437
S'optimalInitialBiomass_pctMPB'
p2722
sba(idelphi
DelphiFunctionEndAccess
p2723
(dp2724
g500
(lp2725
(i__main__
DelphiIdentAccess
p2726
(dp2727
g16
S'plant'
p2728
sg343
(lp2729
sbasbasbsg427
S'*'
sg428
(i__main__
DelphiIdentAccess
p2730
(dp2731
g16
S'aFraction'
p2732
sg343
(lp2733
sbsbsg458
(i__main__
DelphiIdentAccess
p2734
(dp2735
g16
S'liveBiomass_pctMPB'
p2736
sg343
(lp2737
sbsba(i__main__
DelphiAssignStatement
p2738
(dp2739
g420
(idelphi
DelphiRealValue
p2740
(dp2741
g14
S'0.0'
p2742
sbsg458
(i__main__
DelphiIdentAccess
p2743
(dp2744
g16
S'deadBiomass_pctMPB'
p2745
sg343
(lp2746
sbsba(i__main__
DelphiAssignStatement
p2747
(dp2748
g420
(i__main__
DelphiIdentAccess
p2749
(dp2750
g16
S'safedivExcept'
p2751
sg343
(lp2752
(idelphi
DelphiFunctionEndAccess
p2753
(dp2754
g500
(lp2755
(i__main__
DelphiIdentAccess
p2756
(dp2757
g16
S'liveBiomass_pctMPB'
p2758
sg343
(lp2759
sba(i__main__
DelphiIdentAccess
p2760
(dp2761
g16
S'plant'
p2762
sg343
(lp2763
(idelphi
DelphiFieldEndAccess
p2764
(dp2765
g437
S'pLeaf'
p2766
sba(idelphi
DelphiFieldEndAccess
p2767
(dp2768
g437
S'optimalBiomass_pctMPB'
p2769
sbasba(idelphi
DelphiRealValue
p2770
(dp2771
g14
S'1.0'
p2772
sbasbasbsg458
(i__main__
DelphiIdentAccess
p2773
(dp2774
g16
S'propFullSize'
p2775
sg343
(lp2776
sbsba(idelphi
DelphiIfStatement
p2777
(dp2778
g701
(idelphi
DelphiRelOp
p2779
(dp2780
g708
(i__main__
DelphiIdentAccess
p2781
(dp2782
g16
S'plant'
p2783
sg343
(lp2784
(idelphi
DelphiFieldEndAccess
p2785
(dp2786
g437
S'pLeaf'
p2787
sba(idelphi
DelphiFieldEndAccess
p2788
(dp2789
g437
S'compoundNumLeaflets'
p2790
sbasbsg713
(idelphi
DelphiIntegerValue
p2791
(dp2792
g14
S'1'
sbsg716
S'>'
sbsg717
Nsg718
(idelphi
DelphiForStatement
p2793
(dp2794
g768
S'i'
sg769
(i__main__
DelphiIdentAccess
p2795
(dp2796
g16
S'kNumCompoundLeafRandomSwayIndexes'
p2797
sg343
(lp2798
sbsg772
g2326
sg48
(idelphi
DelphiIntegerValue
p2799
(dp2800
g14
S'0'
sbsg640
(i__main__
DelphiAssignStatement
p2801
(dp2802
g420
(i__main__
DelphiIdentAccess
p2803
(dp2804
g16
S'plant'
p2805
sg343
(lp2806
(idelphi
DelphiFieldEndAccess
p2807
(dp2808
g437
S'randomNumberGenerator'
p2809
sba(idelphi
DelphiFieldEndAccess
p2810
(dp2811
g437
S'zeroToOne'
p2812
sbasbsg458
(i__main__
DelphiIdentAccess
p2813
(dp2814
g16
S'compoundLeafRandomSwayIndexes'
p2815
sg343
(lp2816
(idelphi
DelphiArrayEndAccess
p2817
(dp2818
g500
(lp2819
(i__main__
DelphiIdentAccess
p2820
(dp2821
g16
S'i'
sg343
(lp2822
sbasbasbsbsbsbasg1860
(idelphi
DelphiExceptionHandlers
p2823
(dp2824
g1863
(lp2825
(idelphi
DelphiExceptionHandler
p2826
(dp2827
g1867
(i__main__
DelphiNamedType
p2828
(dp2829
g21
S'Exception'
p2830
sg73
g1
sg74
Nsbsg16
S'e'
sg640
(i__main__
DelphiAssignStatement
p2831
(dp2832
g420
Nsg458
(i__main__
DelphiIdentAccess
p2833
(dp2834
g16
S'messageForExceptionType'
p2835
sg343
(lp2836
(idelphi
DelphiFunctionEndAccess
p2837
(dp2838
g500
(lp2839
(i__main__
DelphiIdentAccess
p2840
(dp2841
g16
S'e'
sg343
(lp2842
sba(idelphi
DelphiStringAccess
p2843
(dp2844
g343
(lp2845
sg14
(idelphi
DelphiStringValue
p2846
(dp2847
g14
S'PdLeaf.initializeFractionOfOptimalSize'
p2848
sbsbasbasbsbsbasg1889
(lp2849
sbsbasbsg598
(lp2850
(i__main__
DelphiVarSection
p2851
(dp2852
g23
I0
sg602
(lp2853
(idelphi
DelphiVarDecl
p2854
(dp2855
g11
Nsg606
(lp2856
S'i'
asg18
(i__main__
DelphiPrimitiveType
p2857
(dp2858
g21
g54
sbsbasbasbsbsS'destroy'
p2859
(i__main__
DelphiMethodImplementation
p2860
(dp2861
g390
g229
sg36
g231
sg44
(lp2862
sg398
(lp2863
sg400
(lp2864
sg402
(lp2865
g404
asg405
(dp2866
sg56
S'PdLeaf'
p2867
sg57
Nsg408
(lp2868
sg58
I0
sg59
g233
sg410
(i__main__
DelphiBlock
p2869
(dp2870
g413
(idelphi
DelphiCompoundStatement
p2871
(dp2872
g416
(lp2873
(i__main__
DelphiAssignStatement
p2874
(dp2875
g420
Nsg458
(idelphi
DelphiInheritedCall
p2876
(dp2877
g16
S'destroy'
p2878
sg500
Nsbsbasbsg598
(lp2879
sbsbsS'drawwithdirection'
p2880
(i__main__
DelphiMethodImplementation
p2881
(dp2882
g390
g235
sg36
g237
sg44
(lp2883
(i__main__
DelphiFormalParameter
p2884
(dp2885
g48
Nsg49
(lp2886
S'direction'
p2887
asg18
(i__main__
DelphiPrimitiveType
p2888
(dp2889
g21
g77
sbsg55
Nsbasg398
(lp2890
sg400
(lp2891
sg402
(lp2892
g404
ag2887
asg405
(dp2893
g2887
g2888
ssg56
S'PdLeaf'
p2894
sg57
Nsg408
(lp2895
sg58
I0
sg59
g60
sg410
(i__main__
DelphiBlock
p2896
(dp2897
g413
(idelphi
DelphiCompoundStatement
p2898
(dp2899
g416
(lp2900
(i__main__
DelphiAssignStatement
p2901
(dp2902
g420
(i__main__
DelphiIdentAccess
p2903
(dp2904
g16
S'plant'
p2905
sg343
(lp2906
(idelphi
DelphiFieldEndAccess
p2907
(dp2908
g437
S'turtle'
p2909
sbasbsg458
(i__main__
DelphiIdentAccess
p2910
(dp2911
g16
S'turtle'
p2912
sg343
(lp2913
sbsba(idelphi
DelphiIfStatement
p2914
(dp2915
g701
(idelphi
DelphiNestedExpressionListAccess
p2916
(dp2917
g343
(lp2918
sg500
(lp2919
(idelphi
DelphiRelOp
p2920
(dp2921
g708
(i__main__
DelphiIdentAccess
p2922
(dp2923
g16
S'turtle'
p2924
sg343
(lp2925
sbsg713
(idelphi
DelphiNilValue
p2926
(dp2927
bsg716
S'='
sbasbsg717
Nsg718
(i__main__
DelphiExitStatement
p2928
(dp2929
g721
g2881
sbsba(i__main__
DelphiAssignStatement
p2930
(dp2931
g420
(i__main__
DelphiIdentAccess
p2932
(dp2933
g16
S'Rect'
p2934
sg343
(lp2935
(idelphi
DelphiFunctionEndAccess
p2936
(dp2937
g500
(lp2938
(idelphi
DelphiIntegerValue
p2939
(dp2940
g14
S'0'
sba(idelphi
DelphiIntegerValue
p2941
(dp2942
g14
S'0'
sba(idelphi
DelphiIntegerValue
p2943
(dp2944
g14
S'0'
sba(idelphi
DelphiIntegerValue
p2945
(dp2946
g14
S'0'
sbasbasbsg458
(i__main__
DelphiIdentAccess
p2947
(dp2948
g16
S'self'
p2949
sg343
(lp2950
(idelphi
DelphiFieldEndAccess
p2951
(dp2952
g437
S'boundsRect'
p2953
sbasbsba(idelphi
DelphiIfStatement
p2954
(dp2955
g701
(i__main__
DelphiIdentAccess
p2956
(dp2957
g16
S'self'
p2958
sg343
(lp2959
(idelphi
DelphiFieldEndAccess
p2960
(dp2961
g437
S'hasFallenOff'
p2962
sbasbsg717
Nsg718
(i__main__
DelphiExitStatement
p2963
(dp2964
g721
g2881
sbsba(i__main__
DelphiAssignStatement
p2965
(dp2966
g420
Nsg458
(i__main__
DelphiIdentAccess
p2967
(dp2968
g16
S'turtle'
p2969
sg343
(lp2970
(idelphi
DelphiFieldEndAccess
p2971
(dp2972
g437
S'push'
p2973
sbasbsba(i__main__
DelphiAssignStatement
p2974
(dp2975
g420
Nsg458
(i__main__
DelphiIdentAccess
p2976
(dp2977
g16
S'self'
p2978
sg343
(lp2979
(idelphi
DelphiFieldEndAccess
p2980
(dp2981
g437
S'determineAmendmentAndAlsoForChildrenIfAny'
p2982
sbasbsba(idelphi
DelphiIfStatement
p2983
(dp2984
g701
(i__main__
DelphiIdentAccess
p2985
(dp2986
g16
S'self'
p2987
sg343
(lp2988
(idelphi
DelphiFieldEndAccess
p2989
(dp2990
g437
S'hiddenByAmendment'
p2991
sbasbsg717
Nsg718
(idelphi
DelphiCompoundStatement
p2992
(dp2993
g416
(lp2994
(i__main__
DelphiAssignStatement
p2995
(dp2996
g420
Nsg458
(i__main__
DelphiIdentAccess
p2997
(dp2998
g16
S'turtle'
p2999
sg343
(lp3000
(idelphi
DelphiFieldEndAccess
p3001
(dp3002
g437
S'pop'
p3003
sbasbsg463
(lp3004
S' amendment rotations handled in drawStemSegment for petiole\r'
p3005
asba(i__main__
DelphiExitStatement
p3006
(dp3007
g721
g2881
sbasbsba(idelphi
DelphiTryExceptStatement
p3008
(dp3009
g1844
(lp3010
(idelphi
DelphiIfStatement
p3011
(dp3012
g701
(i__main__
DelphiIdentAccess
p3013
(dp3014
g16
S'plant'
p3015
sg343
(lp3016
(idelphi
DelphiFieldEndAccess
p3017
(dp3018
g437
S'needToRecalculateColors'
p3019
sbasbsg717
Nsg718
(i__main__
DelphiAssignStatement
p3020
(dp3021
g420
Nsg458
(i__main__
DelphiIdentAccess
p3022
(dp3023
g16
S'self'
p3024
sg343
(lp3025
(idelphi
DelphiFieldEndAccess
p3026
(dp3027
g437
S'calculateColors'
p3028
sbasbsbsba(i__main__
DelphiAssignStatement
p3029
(dp3030
g420
Nsg458
(i__main__
DelphiIdentAccess
p3031
(dp3032
g16
S'plant'
p3033
sg343
(lp3034
(idelphi
DelphiFieldEndAccess
p3035
(dp3036
g437
S'turtle'
p3037
sba(idelphi
DelphiFieldEndAccess
p3038
(dp3039
g437
S'push'
p3040
sbasbsba(idelphi
DelphiIfStatement
p3041
(dp3042
g701
(idelphi
DelphiNestedExpressionListAccess
p3043
(dp3044
g343
(lp3045
sg500
(lp3046
(idelphi
DelphiRelOp
p3047
(dp3048
g708
(i__main__
DelphiIdentAccess
p3049
(dp3050
g16
S'direction'
p3051
sg343
(lp3052
sbsg713
(i__main__
DelphiIdentAccess
p3053
(dp3054
g16
S'kDirectionRight'
p3055
sg343
(lp3056
sbsg716
S'='
sbasbsg717
Nsg718
(i__main__
DelphiAssignStatement
p3057
(dp3058
g420
Nsg458
(i__main__
DelphiIdentAccess
p3059
(dp3060
g16
S'turtle'
p3061
sg343
(lp3062
(idelphi
DelphiFieldEndAccess
p3063
(dp3064
g437
S'RotateX'
p3065
sba(idelphi
DelphiFunctionEndAccess
p3066
(dp3067
g500
(lp3068
(idelphi
DelphiIntegerValue
p3069
(dp3070
g14
S'128'
p3071
sbasbasbsbsba(i__main__
DelphiAssignStatement
p3072
(dp3073
g420
(idelphi
DelphiMulOp
p3074
(dp3075
g423
(i__main__
DelphiIdentAccess
p3076
(dp3077
g16
S'propFullSize'
p3078
sg343
(lp3079
sbsg427
S'*'
sg428
(i__main__
DelphiIdentAccess
p3080
(dp3081
g16
S'plant'
p3082
sg343
(lp3083
(idelphi
DelphiFieldEndAccess
p3084
(dp3085
g437
S'pLeaf'
p3086
sba(idelphi
DelphiFieldEndAccess
p3087
(dp3088
g437
S'petioleLengthAtOptimalBiomass_mm'
p3089
sbasbsbsg458
(i__main__
DelphiIdentAccess
p3090
(dp3091
g16
S'length'
p3092
sg343
(lp3093
sbsba(idelphi
DelphiIfStatement
p3094
(dp3095
g701
(idelphi
DelphiNestedExpressionListAccess
p3096
(dp3097
g343
(lp3098
sg500
(lp3099
(i__main__
DelphiIdentAccess
p3100
(dp3101
g16
S'isSeedlingLeaf'
p3102
sg343
(lp3103
sbasbsg717
Nsg718
(i__main__
DelphiAssignStatement
p3104
(dp3105
g420
(idelphi
DelphiMulOp
p3106
(dp3107
g423
(idelphi
DelphiIntegerValue
p3108
(dp3109
g14
S'2'
sbsg427
S'/'
sg428
(i__main__
DelphiIdentAccess
p3110
(dp3111
g16
S'length'
p3112
sg343
(lp3113
sbsbsg458
(i__main__
DelphiIdentAccess
p3114
(dp3115
g16
S'length'
p3116
sg343
(lp3117
sbsbsba(i__main__
DelphiAssignStatement
p3118
(dp3119
g420
(idelphi
DelphiMulOp
p3120
(dp3121
g423
(i__main__
DelphiIdentAccess
p3122
(dp3123
g16
S'propFullSize'
p3124
sg343
(lp3125
sbsg427
S'*'
sg428
(i__main__
DelphiIdentAccess
p3126
(dp3127
g16
S'plant'
p3128
sg343
(lp3129
(idelphi
DelphiFieldEndAccess
p3130
(dp3131
g437
S'pLeaf'
p3132
sba(idelphi
DelphiFieldEndAccess
p3133
(dp3134
g437
S'petioleWidthAtOptimalBiomass_mm'
p3135
sbasbsbsg458
(i__main__
DelphiIdentAccess
p3136
(dp3137
g16
S'width'
p3138
sg343
(lp3139
sbsba(i__main__
DelphiAssignStatement
p3140
(dp3141
g420
(i__main__
DelphiIdentAccess
p3142
(dp3143
g16
S'self'
p3144
sg343
(lp3145
(idelphi
DelphiFieldEndAccess
p3146
(dp3147
g437
S'angleWithSway'
p3148
sba(idelphi
DelphiFunctionEndAccess
p3149
(dp3150
g500
(lp3151
(i__main__
DelphiIdentAccess
p3152
(dp3153
g16
S'plant'
p3154
sg343
(lp3155
(idelphi
DelphiFieldEndAccess
p3156
(dp3157
g437
S'pLeaf'
p3158
sba(idelphi
DelphiFieldEndAccess
p3159
(dp3160
g437
S'petioleAngle'
p3161
sbasbasbasbsg458
(i__main__
DelphiIdentAccess
p3162
(dp3163
g16
S'angle'
p3164
sg343
(lp3165
sbsba(i__main__
DelphiAssignStatement
p3166
(dp3167
g420
Nsg458
(i__main__
DelphiIdentAccess
p3168
(dp3169
g16
S'turtle'
p3170
sg343
(lp3171
(idelphi
DelphiFieldEndAccess
p3172
(dp3173
g437
S'ifExporting_startNestedGroupOfPlantParts'
p3174
sba(idelphi
DelphiFunctionEndAccess
p3175
(dp3176
g500
(lp3177
(idelphi
DelphiStringAccess
p3178
(dp3179
g343
(lp3180
sg14
(idelphi
DelphiStringValue
p3181
(dp3182
g14
S'leaf, petiole and stipule'
p3183
sbsba(idelphi
DelphiStringAccess
p3184
(dp3185
g343
(lp3186
sg14
(idelphi
DelphiStringValue
p3187
(dp3188
g14
S'LeafPetiole'
p3189
sbsba(i__main__
DelphiIdentAccess
p3190
(dp3191
g16
S'kNestingTypeLeafAndPetiole'
p3192
sg343
(lp3193
sbasbasbsba(idelphi
DelphiIfStatement
p3194
(dp3195
g701
(i__main__
DelphiIdentAccess
p3196
(dp3197
g16
S'isSeedlingLeaf'
p3198
sg343
(lp3199
sbsg717
(idelphi
DelphiCompoundStatement
p3200
(dp3201
g416
(lp3202
(idelphi
DelphiIfStatement
p3203
(dp3204
g701
(idelphi
DelphiNestedExpressionListAccess
p3205
(dp3206
g343
(lp3207
sg500
(lp3208
(idelphi
DelphiRelOp
p3209
(dp3210
g708
(i__main__
DelphiIdentAccess
p3211
(dp3212
g16
S'plant'
p3213
sg343
(lp3214
(idelphi
DelphiFieldEndAccess
p3215
(dp3216
g437
S'pLeaf'
p3217
sba(idelphi
DelphiFieldEndAccess
p3218
(dp3219
g437
S'stipuleTdoParams'
p3220
sba(idelphi
DelphiFieldEndAccess
p3221
(dp3222
g437
S'scaleAtFullSize'
p3223
sbasbsg713
(idelphi
DelphiIntegerValue
p3224
(dp3225
g14
S'0'
sbsg716
S'>'
sbasbsg717
Nsg718
(i__main__
DelphiAssignStatement
p3226
(dp3227
g420
Nsg458
(i__main__
DelphiIdentAccess
p3228
(dp3229
g16
S'self'
p3230
sg343
(lp3231
(idelphi
DelphiFieldEndAccess
p3232
(dp3233
g437
S'drawStipule'
p3234
sbasbsbsba(idelphi
DelphiIfStatement
p3235
(dp3236
g701
(idelphi
DelphiAddOp
p3237
(dp3238
g1440
S'or'
p3239
sg1441
(i__main__
DelphiIdentAccess
p3240
(dp3241
g16
S'plant'
p3242
sg343
(lp3243
(idelphi
DelphiFieldEndAccess
p3244
(dp3245
g437
S'turtle'
p3246
sba(idelphi
DelphiFieldEndAccess
p3247
(dp3248
g437
S'drawOptions'
p3249
sba(idelphi
DelphiFieldEndAccess
p3250
(dp3251
g437
S'simpleLeavesOnly'
p3252
sbasbsg1467
(idelphi
DelphiNestedExpressionListAccess
p3253
(dp3254
g343
(lp3255
sg500
(lp3256
(idelphi
DelphiRelOp
p3257
(dp3258
g708
(i__main__
DelphiIdentAccess
p3259
(dp3260
g16
S'plant'
p3261
sg343
(lp3262
(idelphi
DelphiFieldEndAccess
p3263
(dp3264
g437
S'pLeaf'
p3265
sba(idelphi
DelphiFieldEndAccess
p3266
(dp3267
g437
S'compoundNumLeaflets'
p3268
sbasbsg713
(idelphi
DelphiIntegerValue
p3269
(dp3270
g14
S'1'
sbsg716
S'<='
p3271
sbasbsbsg717
(idelphi
DelphiCompoundStatement
p3272
(dp3273
g416
(lp3274
(i__main__
DelphiAssignStatement
p3275
(dp3276
g420
Nsg458
(i__main__
DelphiIdentAccess
p3277
(dp3278
g16
S'self'
p3279
sg343
(lp3280
(idelphi
DelphiFieldEndAccess
p3281
(dp3282
g437
S'drawStemSegment'
p3283
sba(idelphi
DelphiFunctionEndAccess
p3284
(dp3285
g500
(lp3286
(i__main__
DelphiIdentAccess
p3287
(dp3288
g16
S'length'
p3289
sg343
(lp3290
sba(i__main__
DelphiIdentAccess
p3291
(dp3292
g16
S'width'
p3293
sg343
(lp3294
sba(i__main__
DelphiIdentAccess
p3295
(dp3296
g16
S'angle'
p3297
sg343
(lp3298
sba(idelphi
DelphiIntegerValue
p3299
(dp3300
g14
S'0'
sba(i__main__
DelphiIdentAccess
p3301
(dp3302
g16
S'plant'
p3303
sg343
(lp3304
(idelphi
DelphiFieldEndAccess
p3305
(dp3306
g437
S'pLeaf'
p3307
sba(idelphi
DelphiFieldEndAccess
p3308
(dp3309
g437
S'petioleColor'
p3310
sbasba(i__main__
DelphiIdentAccess
p3311
(dp3312
g16
S'kDontTaper'
p3313
sg343
(lp3314
sba(i__main__
DelphiIdentAccess
p3315
(dp3316
g16
S'kExportPartPetiole'
p3317
sg343
(lp3318
sba(i__main__
DelphiIdentAccess
p3319
(dp3320
g16
S'kUseAmendment'
p3321
sg343
(lp3322
sbasbasbsba(i__main__
DelphiAssignStatement
p3323
(dp3324
g420
Nsg458
(i__main__
DelphiIdentAccess
p3325
(dp3326
g16
S'turtle'
p3327
sg343
(lp3328
(idelphi
DelphiFieldEndAccess
p3329
(dp3330
g437
S'ifExporting_startNestedGroupOfPlantParts'
p3331
sba(idelphi
DelphiFunctionEndAccess
p3332
(dp3333
g500
(lp3334
(idelphi
DelphiStringAccess
p3335
(dp3336
g343
(lp3337
sg14
(idelphi
DelphiStringValue
p3338
(dp3339
g14
S'compound leaf'
p3340
sbsba(idelphi
DelphiStringAccess
p3341
(dp3342
g343
(lp3343
sg14
(idelphi
DelphiStringValue
p3344
(dp3345
g14
S'CompoundLeaf'
p3346
sbsba(i__main__
DelphiIdentAccess
p3347
(dp3348
g16
S'kNestingTypeCompoundLeaf'
p3349
sg343
(lp3350
sbasbasbsba(idelphi
DelphiIfStatement
p3351
(dp3352
g701
(idelphi
DelphiNestedExpressionListAccess
p3353
(dp3354
g343
(lp3355
sg500
(lp3356
(idelphi
DelphiRelOp
p3357
(dp3358
g708
(i__main__
DelphiIdentAccess
p3359
(dp3360
g16
S'plant'
p3361
sg343
(lp3362
(idelphi
DelphiFieldEndAccess
p3363
(dp3364
g437
S'pLeaf'
p3365
sba(idelphi
DelphiFieldEndAccess
p3366
(dp3367
g437
S'compoundPinnateOrPalmate'
p3368
sbasbsg713
(i__main__
DelphiIdentAccess
p3369
(dp3370
g16
S'kCompoundLeafPinnate'
p3371
sg343
(lp3372
sbsg716
S'='
sbasbsg717
(i__main__
DelphiAssignStatement
p3373
(dp3374
g420
Nsg458
(i__main__
DelphiIdentAccess
p3375
(dp3376
g16
S'self'
p3377
sg343
(lp3378
(idelphi
DelphiFieldEndAccess
p3379
(dp3380
g437
S'drawCompoundLeafPalmate'
p3381
sbasbsbsg718
(i__main__
DelphiAssignStatement
p3382
(dp3383
g420
Nsg458
(i__main__
DelphiIdentAccess
p3384
(dp3385
g16
S'self'
p3386
sg343
(lp3387
(idelphi
DelphiFieldEndAccess
p3388
(dp3389
g437
S'drawCompoundLeafPinnate'
p3390
sbasbsbsba(i__main__
DelphiAssignStatement
p3391
(dp3392
g420
Nsg458
(i__main__
DelphiIdentAccess
p3393
(dp3394
g16
S'turtle'
p3395
sg343
(lp3396
(idelphi
DelphiFieldEndAccess
p3397
(dp3398
g437
S'ifExporting_endNestedGroupOfPlantParts'
p3399
sba(idelphi
DelphiFunctionEndAccess
p3400
(dp3401
g500
(lp3402
(i__main__
DelphiIdentAccess
p3403
(dp3404
g16
S'kNestingTypeCompoundLeaf'
p3405
sg343
(lp3406
sbasbasbsbasbsg718
(idelphi
DelphiCompoundStatement
p3407
(dp3408
g416
(lp3409
(i__main__
DelphiAssignStatement
p3410
(dp3411
g420
Nsg458
(i__main__
DelphiIdentAccess
p3412
(dp3413
g16
S'self'
p3414
sg343
(lp3415
(idelphi
DelphiFieldEndAccess
p3416
(dp3417
g437
S'drawStemSegment'
p3418
sba(idelphi
DelphiFunctionEndAccess
p3419
(dp3420
g500
(lp3421
(i__main__
DelphiIdentAccess
p3422
(dp3423
g16
S'length'
p3424
sg343
(lp3425
sba(i__main__
DelphiIdentAccess
p3426
(dp3427
g16
S'width'
p3428
sg343
(lp3429
sba(i__main__
DelphiIdentAccess
p3430
(dp3431
g16
S'angle'
p3432
sg343
(lp3433
sba(idelphi
DelphiIntegerValue
p3434
(dp3435
g14
S'0'
sba(i__main__
DelphiIdentAccess
p3436
(dp3437
g16
S'plant'
p3438
sg343
(lp3439
(idelphi
DelphiFieldEndAccess
p3440
(dp3441
g437
S'pLeaf'
p3442
sba(idelphi
DelphiFieldEndAccess
p3443
(dp3444
g437
S'petioleColor'
p3445
sbasba(i__main__
DelphiIdentAccess
p3446
(dp3447
g16
S'plant'
p3448
sg343
(lp3449
(idelphi
DelphiFieldEndAccess
p3450
(dp3451
g437
S'pLeaf'
p3452
sba(idelphi
DelphiFieldEndAccess
p3453
(dp3454
g437
S'petioleTaperIndex'
p3455
sbasba(i__main__
DelphiIdentAccess
p3456
(dp3457
g16
S'kExportPartPetiole'
p3458
sg343
(lp3459
sba(i__main__
DelphiIdentAccess
p3460
(dp3461
g16
S'kUseAmendment'
p3462
sg343
(lp3463
sbasbasbsba(i__main__
DelphiAssignStatement
p3464
(dp3465
g420
(idelphi
DelphiMulOp
p3466
(dp3467
g423
(idelphi
DelphiRealValue
p3468
(dp3469
g14
S'100.0'
p3470
sbsg427
S'/'
sg428
(idelphi
DelphiMulOp
p3471
(dp3472
g423
(i__main__
DelphiIdentAccess
p3473
(dp3474
g16
S'plant'
p3475
sg343
(lp3476
(idelphi
DelphiFieldEndAccess
p3477
(dp3478
g437
S'pLeaf'
p3479
sba(idelphi
DelphiFieldEndAccess
p3480
(dp3481
g437
S'leafTdoParams'
p3482
sba(idelphi
DelphiFieldEndAccess
p3483
(dp3484
g437
S'scaleAtFullSize'
p3485
sbasbsg427
S'*'
sg428
(i__main__
DelphiIdentAccess
p3486
(dp3487
g16
S'self'
p3488
sg343
(lp3489
(idelphi
DelphiFieldEndAccess
p3490
(dp3491
g437
S'propFullSize'
p3492
sbasbsbsbsg458
(i__main__
DelphiIdentAccess
p3493
(dp3494
g16
S'scale'
p3495
sg343
(lp3496
sbsba(i__main__
DelphiAssignStatement
p3497
(dp3498
g420
Nsg458
(i__main__
DelphiIdentAccess
p3499
(dp3500
g16
S'self'
p3501
sg343
(lp3502
(idelphi
DelphiFieldEndAccess
p3503
(dp3504
g437
S'drawLeafOrLeaflet'
p3505
sba(idelphi
DelphiFunctionEndAccess
p3506
(dp3507
g500
(lp3508
(i__main__
DelphiIdentAccess
p3509
(dp3510
g16
S'scale'
p3511
sg343
(lp3512
sbasbasbsbasbsbasbsg718
(idelphi
DelphiCompoundStatement
p3513
(dp3514
g416
(lp3515
(i__main__
DelphiAssignStatement
p3516
(dp3517
g420
Nsg458
(i__main__
DelphiIdentAccess
p3518
(dp3519
g16
S'self'
p3520
sg343
(lp3521
(idelphi
DelphiFieldEndAccess
p3522
(dp3523
g437
S'drawStemSegment'
p3524
sba(idelphi
DelphiFunctionEndAccess
p3525
(dp3526
g500
(lp3527
(i__main__
DelphiIdentAccess
p3528
(dp3529
g16
S'length'
p3530
sg343
(lp3531
sba(i__main__
DelphiIdentAccess
p3532
(dp3533
g16
S'width'
p3534
sg343
(lp3535
sba(i__main__
DelphiIdentAccess
p3536
(dp3537
g16
S'angle'
p3538
sg343
(lp3539
sba(idelphi
DelphiIntegerValue
p3540
(dp3541
g14
S'0'
sba(i__main__
DelphiIdentAccess
p3542
(dp3543
g16
S'plant'
p3544
sg343
(lp3545
(idelphi
DelphiFieldEndAccess
p3546
(dp3547
g437
S'pLeaf'
p3548
sba(idelphi
DelphiFieldEndAccess
p3549
(dp3550
g437
S'petioleColor'
p3551
sbasba(i__main__
DelphiIdentAccess
p3552
(dp3553
g16
S'plant'
p3554
sg343
(lp3555
(idelphi
DelphiFieldEndAccess
p3556
(dp3557
g437
S'pLeaf'
p3558
sba(idelphi
DelphiFieldEndAccess
p3559
(dp3560
g437
S'petioleTaperIndex'
p3561
sbasba(i__main__
DelphiIdentAccess
p3562
(dp3563
g16
S'kExportPartPetiole'
p3564
sg343
(lp3565
sba(i__main__
DelphiIdentAccess
p3566
(dp3567
g16
S'kUseAmendment'
p3568
sg343
(lp3569
sbasbasbsba(i__main__
DelphiAssignStatement
p3570
(dp3571
g420
(idelphi
DelphiMulOp
p3572
(dp3573
g423
(idelphi
DelphiRealValue
p3574
(dp3575
g14
S'1.0'
p3576
sbsg427
S'*'
sg428
(idelphi
DelphiNestedExpressionListAccess
p3577
(dp3578
g343
(lp3579
sg500
(lp3580
(idelphi
DelphiMulOp
p3581
(dp3582
g423
(idelphi
DelphiNestedExpressionListAccess
p3583
(dp3584
g343
(lp3585
sg500
(lp3586
(idelphi
DelphiMulOp
p3587
(dp3588
g423
(idelphi
DelphiRealValue
p3589
(dp3590
g14
S'100.0'
p3591
sbsg427
S'/'
sg428
(i__main__
DelphiIdentAccess
p3592
(dp3593
g16
S'plant'
p3594
sg343
(lp3595
(idelphi
DelphiFieldEndAccess
p3596
(dp3597
g437
S'pSeedlingLeaf'
p3598
sba(idelphi
DelphiFieldEndAccess
p3599
(dp3600
g437
S'leafTdoParams'
p3601
sba(idelphi
DelphiFieldEndAccess
p3602
(dp3603
g437
S'scaleAtFullSize'
p3604
sbasbsbasbsg427
S'*'
sg428
(i__main__
DelphiIdentAccess
p3605
(dp3606
g16
S'propFullSize'
p3607
sg343
(lp3608
sbsbasbsbsg458
(i__main__
DelphiIdentAccess
p3609
(dp3610
g16
S'scale'
p3611
sg343
(lp3612
sbsba(i__main__
DelphiAssignStatement
p3613
(dp3614
g420
Nsg458
(i__main__
DelphiIdentAccess
p3615
(dp3616
g16
S'self'
p3617
sg343
(lp3618
(idelphi
DelphiFieldEndAccess
p3619
(dp3620
g437
S'drawLeafOrLeaflet'
p3621
sba(idelphi
DelphiFunctionEndAccess
p3622
(dp3623
g500
(lp3624
(i__main__
DelphiIdentAccess
p3625
(dp3626
g16
S'scale'
p3627
sg343
(lp3628
sbasbasbsbasbsba(i__main__
DelphiAssignStatement
p3629
(dp3630
g420
Nsg458
(i__main__
DelphiIdentAccess
p3631
(dp3632
g16
S'turtle'
p3633
sg343
(lp3634
(idelphi
DelphiFieldEndAccess
p3635
(dp3636
g437
S'pop'
p3637
sbasbsba(i__main__
DelphiAssignStatement
p3638
(dp3639
g420
Nsg458
(i__main__
DelphiIdentAccess
p3640
(dp3641
g16
S'turtle'
p3642
sg343
(lp3643
(idelphi
DelphiFieldEndAccess
p3644
(dp3645
g437
S'ifExporting_endNestedGroupOfPlantParts'
p3646
sba(idelphi
DelphiFunctionEndAccess
p3647
(dp3648
g500
(lp3649
(i__main__
DelphiIdentAccess
p3650
(dp3651
g16
S'kNestingTypeLeafAndPetiole'
p3652
sg343
(lp3653
sbasbasbsba(i__main__
DelphiAssignStatement
p3654
(dp3655
g420
Nsg458
(i__main__
DelphiIdentAccess
p3656
(dp3657
g16
S'turtle'
p3658
sg343
(lp3659
(idelphi
DelphiFieldEndAccess
p3660
(dp3661
g437
S'pop'
p3662
sbasbsbasg1860
(idelphi
DelphiExceptionHandlers
p3663
(dp3664
g1863
(lp3665
(idelphi
DelphiExceptionHandler
p3666
(dp3667
g1867
(i__main__
DelphiNamedType
p3668
(dp3669
g21
S'Exception'
p3670
sg73
g1
sg74
Nsbsg16
S'e'
sg640
(i__main__
DelphiAssignStatement
p3671
(dp3672
g420
Nsg458
(i__main__
DelphiIdentAccess
p3673
(dp3674
g16
S'messageForExceptionType'
p3675
sg343
(lp3676
(idelphi
DelphiFunctionEndAccess
p3677
(dp3678
g500
(lp3679
(i__main__
DelphiIdentAccess
p3680
(dp3681
g16
S'e'
sg343
(lp3682
sba(idelphi
DelphiStringAccess
p3683
(dp3684
g343
(lp3685
sg14
(idelphi
DelphiStringValue
p3686
(dp3687
g14
S'PdLeaf.drawWithDirection'
p3688
sbsbasbasbsbsbasg1889
(lp3689
sbsbasbsg598
(lp3690
(i__main__
DelphiVarSection
p3691
(dp3692
g23
I0
sg602
(lp3693
(idelphi
DelphiVarDecl
p3694
(dp3695
g11
Nsg606
(lp3696
S'scale'
p3697
aS'length'
p3698
asg18
(i__main__
DelphiPrimitiveType
p3699
(dp3700
g21
g77
sbsba(idelphi
DelphiVarDecl
p3701
(dp3702
g11
Nsg606
(lp3703
S'width'
p3704
asg18
(i__main__
DelphiPrimitiveType
p3705
(dp3706
g21
g77
sbsba(idelphi
DelphiVarDecl
p3707
(dp3708
g11
Nsg606
(lp3709
S'angle'
p3710
asg18
(i__main__
DelphiPrimitiveType
p3711
(dp3712
g21
g77
sbsba(idelphi
DelphiVarDecl
p3713
(dp3714
g11
Nsg606
(lp3715
S'turtle'
p3716
asg18
(i__main__
DelphiNamedType
p3717
(dp3718
g21
S'KfTurtle'
p3719
sg73
g1
sg74
NsbsbasbasbsbsS'parttype'
p3720
(i__main__
DelphiMethodImplementation
p3721
(dp3722
g390
g246
sg36
g248
sg44
(lp3723
sg398
(lp3724
sg400
(lp3725
sg402
(lp3726
g404
asg405
(dp3727
sg56
S'PdLeaf'
p3728
sg57
(i__main__
DelphiPrimitiveType
p3729
(dp3730
g21
g54
sbsg408
(lp3731
sg58
I0
sg59
g78
sg410
(i__main__
DelphiBlock
p3732
(dp3733
g413
(idelphi
DelphiCompoundStatement
p3734
(dp3735
g416
(lp3736
(i__main__
DelphiAssignStatement
p3737
(dp3738
g420
(i__main__
DelphiIdentAccess
p3739
(dp3740
g16
S'kPartTypeLeaf'
p3741
sg343
(lp3742
sbsg458
(i__main__
DelphiIdentAccess
p3743
(dp3744
g16
S'result'
p3745
sg343
(lp3746
sbsbasbsg598
(lp3747
sbsbsS'getname'
p3748
(i__main__
DelphiMethodImplementation
p3749
(dp3750
g390
g253
sg36
g255
sg44
(lp3751
sg398
(lp3752
sg400
(lp3753
sg402
(lp3754
g404
asg405
(dp3755
sg56
S'PdLeaf'
p3756
sg57
(i__main__
DelphiPrimitiveType
p3757
(dp3758
g21
g14
sbsg408
(lp3759
sg58
I0
sg59
g78
sg410
(i__main__
DelphiBlock
p3760
(dp3761
g413
(idelphi
DelphiCompoundStatement
p3762
(dp3763
g416
(lp3764
(i__main__
DelphiAssignStatement
p3765
(dp3766
g420
(idelphi
DelphiStringAccess
p3767
(dp3768
g343
(lp3769
sg14
(idelphi
DelphiStringValue
p3770
(dp3771
g14
S'leaf'
p3772
sbsbsg458
(i__main__
DelphiIdentAccess
p3773
(dp3774
g16
S'result'
p3775
sg343
(lp3776
sbsbasbsg598
(lp3777
sbsbsS'drawleaforleaflet'
p3778
(i__main__
DelphiMethodImplementation
p3779
(dp3780
g390
g260
sg36
g262
sg44
(lp3781
(i__main__
DelphiFormalParameter
p3782
(dp3783
g48
Nsg49
(lp3784
S'aScale'
p3785
asg18
(i__main__
DelphiPrimitiveType
p3786
(dp3787
g21
g77
sbsg55
Nsbasg398
(lp3788
sg400
(lp3789
sg402
(lp3790
g404
ag3785
asg405
(dp3791
g3785
g3786
ssg56
S'PdLeaf'
p3792
sg57
Nsg408
(lp3793
sg58
I0
sg59
g60
sg410
(i__main__
DelphiBlock
p3794
(dp3795
g413
(idelphi
DelphiCompoundStatement
p3796
(dp3797
g416
(lp3798
(i__main__
DelphiAssignStatement
p3799
(dp3800
g420
(i__main__
DelphiIdentAccess
p3801
(dp3802
g16
S'plant'
p3803
sg343
(lp3804
(idelphi
DelphiFieldEndAccess
p3805
(dp3806
g437
S'turtle'
p3807
sbasbsg458
(i__main__
DelphiIdentAccess
p3808
(dp3809
g16
S'turtle'
p3810
sg343
(lp3811
sbsg463
(lp3812
S'Draw leaf only. If seedling leaf (on first phytomer), draw seedling leaf 3D object and colors instead.\r'
p3813
aS'    Wilt leaf according to water stress and age.'
p3814
asba(idelphi
DelphiIfStatement
p3815
(dp3816
g701
(idelphi
DelphiNestedExpressionListAccess
p3817
(dp3818
g343
(lp3819
sg500
(lp3820
(idelphi
DelphiRelOp
p3821
(dp3822
g708
(i__main__
DelphiIdentAccess
p3823
(dp3824
g16
S'turtle'
p3825
sg343
(lp3826
sbsg713
(idelphi
DelphiNilValue
p3827
(dp3828
bsg716
S'='
sbasbsg717
Nsg718
(i__main__
DelphiExitStatement
p3829
(dp3830
g721
g3779
sbsba(idelphi
DelphiIfStatement
p3831
(dp3832
g701
(i__main__
DelphiIdentAccess
p3833
(dp3834
g16
S'isSeedlingLeaf'
p3835
sg343
(lp3836
sbsg717
(idelphi
DelphiCompoundStatement
p3837
(dp3838
g416
(lp3839
(i__main__
DelphiAssignStatement
p3840
(dp3841
g420
Nsg458
(i__main__
DelphiIdentAccess
p3842
(dp3843
g16
S'turtle'
p3844
sg343
(lp3845
(idelphi
DelphiFieldEndAccess
p3846
(dp3847
g437
S'setLineWidth'
p3848
sba(idelphi
DelphiFunctionEndAccess
p3849
(dp3850
g500
(lp3851
(idelphi
DelphiRealValue
p3852
(dp3853
g14
S'1.0'
p3854
sbasbasbsba(i__main__
DelphiAssignStatement
p3855
(dp3856
g420
(i__main__
DelphiIdentAccess
p3857
(dp3858
g16
S'plant'
p3859
sg343
(lp3860
(idelphi
DelphiFieldEndAccess
p3861
(dp3862
g437
S'pLeaf'
p3863
sba(idelphi
DelphiFieldEndAccess
p3864
(dp3865
g437
S'leafTdoParams'
p3866
sba(idelphi
DelphiFieldEndAccess
p3867
(dp3868
g437
S'faceColor'
p3869
sbasbsg458
(i__main__
DelphiIdentAccess
p3870
(dp3871
g16
S'useFaceColor'
p3872
sg343
(lp3873
sbsba(i__main__
DelphiAssignStatement
p3874
(dp3875
g420
(i__main__
DelphiIdentAccess
p3876
(dp3877
g16
S'plant'
p3878
sg343
(lp3879
(idelphi
DelphiFieldEndAccess
p3880
(dp3881
g437
S'pLeaf'
p3882
sba(idelphi
DelphiFieldEndAccess
p3883
(dp3884
g437
S'leafTdoParams'
p3885
sba(idelphi
DelphiFieldEndAccess
p3886
(dp3887
g437
S'backfaceColor'
p3888
sbasbsg458
(i__main__
DelphiIdentAccess
p3889
(dp3890
g16
S'useBackfaceColor'
p3891
sg343
(lp3892
sbsbasbsg718
(idelphi
DelphiCompoundStatement
p3893
(dp3894
g416
(lp3895
(i__main__
DelphiAssignStatement
p3896
(dp3897
g420
Nsg458
(i__main__
DelphiIdentAccess
p3898
(dp3899
g16
S'turtle'
p3900
sg343
(lp3901
(idelphi
DelphiFieldEndAccess
p3902
(dp3903
g437
S'setLineWidth'
p3904
sba(idelphi
DelphiFunctionEndAccess
p3905
(dp3906
g500
(lp3907
(idelphi
DelphiRealValue
p3908
(dp3909
g14
S'1.0'
p3910
sbasbasbsba(i__main__
DelphiAssignStatement
p3911
(dp3912
g420
(i__main__
DelphiIdentAccess
p3913
(dp3914
g16
S'plant'
p3915
sg343
(lp3916
(idelphi
DelphiFieldEndAccess
p3917
(dp3918
g437
S'pSeedlingLeaf'
p3919
sba(idelphi
DelphiFieldEndAccess
p3920
(dp3921
g437
S'leafTdoParams'
p3922
sba(idelphi
DelphiFieldEndAccess
p3923
(dp3924
g437
S'faceColor'
p3925
sbasbsg458
(i__main__
DelphiIdentAccess
p3926
(dp3927
g16
S'useFaceColor'
p3928
sg343
(lp3929
sbsba(i__main__
DelphiAssignStatement
p3930
(dp3931
g420
(i__main__
DelphiIdentAccess
p3932
(dp3933
g16
S'plant'
p3934
sg343
(lp3935
(idelphi
DelphiFieldEndAccess
p3936
(dp3937
g437
S'pSeedlingLeaf'
p3938
sba(idelphi
DelphiFieldEndAccess
p3939
(dp3940
g437
S'leafTdoParams'
p3941
sba(idelphi
DelphiFieldEndAccess
p3942
(dp3943
g437
S'backfaceColor'
p3944
sbasbsg458
(i__main__
DelphiIdentAccess
p3945
(dp3946
g16
S'useBackfaceColor'
p3947
sg343
(lp3948
sbsbasbsba(idelphi
DelphiIfStatement
p3949
(dp3950
g701
(i__main__
DelphiIdentAccess
p3951
(dp3952
g16
S'isSeedlingLeaf'
p3953
sg343
(lp3954
sbsg717
(idelphi
DelphiCompoundStatement
p3955
(dp3956
g416
(lp3957
(i__main__
DelphiAssignStatement
p3958
(dp3959
g420
Nsg458
(i__main__
DelphiIdentAccess
p3960
(dp3961
g16
S'turtle'
p3962
sg343
(lp3963
(idelphi
DelphiFieldEndAccess
p3964
(dp3965
g437
S'rotateX'
p3966
sba(idelphi
DelphiFunctionEndAccess
p3967
(dp3968
g500
(lp3969
(i__main__
DelphiIdentAccess
p3970
(dp3971
g16
S'self'
p3972
sg343
(lp3973
(idelphi
DelphiFieldEndAccess
p3974
(dp3975
g437
S'angleWithSway'
p3976
sba(idelphi
DelphiFunctionEndAccess
p3977
(dp3978
g500
(lp3979
(i__main__
DelphiIdentAccess
p3980
(dp3981
g16
S'plant'
p3982
sg343
(lp3983
(idelphi
DelphiFieldEndAccess
p3984
(dp3985
g437
S'pLeaf'
p3986
sba(idelphi
DelphiFieldEndAccess
p3987
(dp3988
g437
S'leafTdoParams'
p3989
sba(idelphi
DelphiFieldEndAccess
p3990
(dp3991
g437
S'xRotationBeforeDraw'
p3992
sbasbasbasbasbasbsba(i__main__
DelphiAssignStatement
p3993
(dp3994
g420
Nsg458
(i__main__
DelphiIdentAccess
p3995
(dp3996
g16
S'turtle'
p3997
sg343
(lp3998
(idelphi
DelphiFieldEndAccess
p3999
(dp4000
g437
S'rotateY'
p4001
sba(idelphi
DelphiFunctionEndAccess
p4002
(dp4003
g500
(lp4004
(i__main__
DelphiIdentAccess
p4005
(dp4006
g16
S'self'
p4007
sg343
(lp4008
(idelphi
DelphiFieldEndAccess
p4009
(dp4010
g437
S'angleWithSway'
p4011
sba(idelphi
DelphiFunctionEndAccess
p4012
(dp4013
g500
(lp4014
(i__main__
DelphiIdentAccess
p4015
(dp4016
g16
S'plant'
p4017
sg343
(lp4018
(idelphi
DelphiFieldEndAccess
p4019
(dp4020
g437
S'pLeaf'
p4021
sba(idelphi
DelphiFieldEndAccess
p4022
(dp4023
g437
S'leafTdoParams'
p4024
sba(idelphi
DelphiFieldEndAccess
p4025
(dp4026
g437
S'yRotationBeforeDraw'
p4027
sbasbasbasbasbasbsba(i__main__
DelphiAssignStatement
p4028
(dp4029
g420
Nsg458
(i__main__
DelphiIdentAccess
p4030
(dp4031
g16
S'turtle'
p4032
sg343
(lp4033
(idelphi
DelphiFieldEndAccess
p4034
(dp4035
g437
S'rotateZ'
p4036
sba(idelphi
DelphiFunctionEndAccess
p4037
(dp4038
g500
(lp4039
(i__main__
DelphiIdentAccess
p4040
(dp4041
g16
S'self'
p4042
sg343
(lp4043
(idelphi
DelphiFieldEndAccess
p4044
(dp4045
g437
S'angleWithSway'
p4046
sba(idelphi
DelphiFunctionEndAccess
p4047
(dp4048
g500
(lp4049
(i__main__
DelphiIdentAccess
p4050
(dp4051
g16
S'plant'
p4052
sg343
(lp4053
(idelphi
DelphiFieldEndAccess
p4054
(dp4055
g437
S'pLeaf'
p4056
sba(idelphi
DelphiFieldEndAccess
p4057
(dp4058
g437
S'leafTdoParams'
p4059
sba(idelphi
DelphiFieldEndAccess
p4060
(dp4061
g437
S'zRotationBeforeDraw'
p4062
sbasbasbasbasbasbsbasbsg718
(idelphi
DelphiCompoundStatement
p4063
(dp4064
g416
(lp4065
(i__main__
DelphiAssignStatement
p4066
(dp4067
g420
Nsg458
(i__main__
DelphiIdentAccess
p4068
(dp4069
g16
S'turtle'
p4070
sg343
(lp4071
(idelphi
DelphiFieldEndAccess
p4072
(dp4073
g437
S'rotateX'
p4074
sba(idelphi
DelphiFunctionEndAccess
p4075
(dp4076
g500
(lp4077
(i__main__
DelphiIdentAccess
p4078
(dp4079
g16
S'self'
p4080
sg343
(lp4081
(idelphi
DelphiFieldEndAccess
p4082
(dp4083
g437
S'angleWithSway'
p4084
sba(idelphi
DelphiFunctionEndAccess
p4085
(dp4086
g500
(lp4087
(i__main__
DelphiIdentAccess
p4088
(dp4089
g16
S'plant'
p4090
sg343
(lp4091
(idelphi
DelphiFieldEndAccess
p4092
(dp4093
g437
S'pSeedlingLeaf'
p4094
sba(idelphi
DelphiFieldEndAccess
p4095
(dp4096
g437
S'leafTdoParams'
p4097
sba(idelphi
DelphiFieldEndAccess
p4098
(dp4099
g437
S'xRotationBeforeDraw'
p4100
sbasbasbasbasbasbsg463
(lp4101
S'this aligns the 3D object as stored in the file to the way it should draw on the plant'
p4102
aS' turtle.RotateX(64)  // flip over; in 3D designer you design the leaf from the underside\r'
p4103
aS'rotateAngle := self.angleWithSway(plant.pLeaf.object3DXRotationBeforeDraw * 256 / 360);\r'
p4104
aS'turtle.rotateX(rotateAngle);\r'
p4105
aS' no longer doing this because default X rotation is 90 degrees\r'
p4106
asba(i__main__
DelphiAssignStatement
p4107
(dp4108
g420
Nsg458
(i__main__
DelphiIdentAccess
p4109
(dp4110
g16
S'turtle'
p4111
sg343
(lp4112
(idelphi
DelphiFieldEndAccess
p4113
(dp4114
g437
S'rotateY'
p4115
sba(idelphi
DelphiFunctionEndAccess
p4116
(dp4117
g500
(lp4118
(i__main__
DelphiIdentAccess
p4119
(dp4120
g16
S'self'
p4121
sg343
(lp4122
(idelphi
DelphiFieldEndAccess
p4123
(dp4124
g437
S'angleWithSway'
p4125
sba(idelphi
DelphiFunctionEndAccess
p4126
(dp4127
g500
(lp4128
(i__main__
DelphiIdentAccess
p4129
(dp4130
g16
S'plant'
p4131
sg343
(lp4132
(idelphi
DelphiFieldEndAccess
p4133
(dp4134
g437
S'pSeedlingLeaf'
p4135
sba(idelphi
DelphiFieldEndAccess
p4136
(dp4137
g437
S'leafTdoParams'
p4138
sba(idelphi
DelphiFieldEndAccess
p4139
(dp4140
g437
S'yRotationBeforeDraw'
p4141
sbasbasbasbasbasbsba(i__main__
DelphiAssignStatement
p4142
(dp4143
g420
Nsg458
(i__main__
DelphiIdentAccess
p4144
(dp4145
g16
S'turtle'
p4146
sg343
(lp4147
(idelphi
DelphiFieldEndAccess
p4148
(dp4149
g437
S'rotateZ'
p4150
sba(idelphi
DelphiFunctionEndAccess
p4151
(dp4152
g500
(lp4153
(i__main__
DelphiIdentAccess
p4154
(dp4155
g16
S'self'
p4156
sg343
(lp4157
(idelphi
DelphiFieldEndAccess
p4158
(dp4159
g437
S'angleWithSway'
p4160
sba(idelphi
DelphiFunctionEndAccess
p4161
(dp4162
g500
(lp4163
(i__main__
DelphiIdentAccess
p4164
(dp4165
g16
S'plant'
p4166
sg343
(lp4167
(idelphi
DelphiFieldEndAccess
p4168
(dp4169
g437
S'pSeedlingLeaf'
p4170
sba(idelphi
DelphiFieldEndAccess
p4171
(dp4172
g437
S'leafTdoParams'
p4173
sba(idelphi
DelphiFieldEndAccess
p4174
(dp4175
g437
S'zRotationBeforeDraw'
p4176
sbasbasbasbasbasbsbasbsba(i__main__
DelphiAssignStatement
p4177
(dp4178
g420
Nsg458
(i__main__
DelphiIdentAccess
p4179
(dp4180
g16
S'turtle'
p4181
sg343
(lp4182
(idelphi
DelphiFieldEndAccess
p4183
(dp4184
g437
S'RotateZ'
p4185
sba(idelphi
DelphiFunctionEndAccess
p4186
(dp4187
g500
(lp4188
(idelphi
DelphiSign
p4189
(dp4190
g850
(idelphi
DelphiIntegerValue
p4191
(dp4192
g14
S'64'
p4193
sbsg853
S'-'
sbasbasbsg463
(lp4194
S'pull leaf up to plane of petiole (is perpendicular)'
p4195
asba(i__main__
DelphiAssignStatement
p4196
(dp4197
g420
Nsg458
(i__main__
DelphiIdentAccess
p4198
(dp4199
g16
S'self'
p4200
sg343
(lp4201
(idelphi
DelphiFieldEndAccess
p4202
(dp4203
g437
S'wiltLeaf'
p4204
sbasbsba(idelphi
DelphiIfStatement
p4205
(dp4206
g701
(i__main__
DelphiIdentAccess
p4207
(dp4208
g16
S'isSeedlingLeaf'
p4209
sg343
(lp4210
sbsg717
(i__main__
DelphiAssignStatement
p4211
(dp4212
g420
(i__main__
DelphiIdentAccess
p4213
(dp4214
g16
S'plant'
p4215
sg343
(lp4216
(idelphi
DelphiFieldEndAccess
p4217
(dp4218
g437
S'pLeaf'
p4219
sba(idelphi
DelphiFieldEndAccess
p4220
(dp4221
g437
S'leafTdoParams'
p4222
sba(idelphi
DelphiFieldEndAccess
p4223
(dp4224
g437
S'object3D'
p4225
sbasbsg458
(i__main__
DelphiIdentAccess
p4226
(dp4227
g16
S'tdo'
p4228
sg343
(lp4229
sbsbsg718
(i__main__
DelphiAssignStatement
p4230
(dp4231
g420
(i__main__
DelphiIdentAccess
p4232
(dp4233
g16
S'plant'
p4234
sg343
(lp4235
(idelphi
DelphiFieldEndAccess
p4236
(dp4237
g437
S'pSeedlingLeaf'
p4238
sba(idelphi
DelphiFieldEndAccess
p4239
(dp4240
g437
S'leafTdoParams'
p4241
sba(idelphi
DelphiFieldEndAccess
p4242
(dp4243
g437
S'object3D'
p4244
sbasbsg458
(i__main__
DelphiIdentAccess
p4245
(dp4246
g16
S'tdo'
p4247
sg343
(lp4248
sbsbsba(idelphi
DelphiIfStatement
p4249
(dp4250
g701
(idelphi
DelphiRelOp
p4251
(dp4252
g708
(i__main__
DelphiIdentAccess
p4253
(dp4254
g16
S'tdo'
p4255
sg343
(lp4256
sbsg713
(idelphi
DelphiNilValue
p4257
(dp4258
bsg716
g2205
sbsg717
Nsg718
(i__main__
DelphiAssignStatement
p4259
(dp4260
g420
Nsg458
(i__main__
DelphiIdentAccess
p4261
(dp4262
g16
S'self'
p4263
sg343
(lp4264
(idelphi
DelphiFieldEndAccess
p4265
(dp4266
g437
S'draw3DObject'
p4267
sba(idelphi
DelphiFunctionEndAccess
p4268
(dp4269
g500
(lp4270
(i__main__
DelphiIdentAccess
p4271
(dp4272
g16
S'tdo'
p4273
sg343
(lp4274
sba(i__main__
DelphiIdentAccess
p4275
(dp4276
g16
S'aScale'
p4277
sg343
(lp4278
sba(i__main__
DelphiIdentAccess
p4279
(dp4280
g16
S'useFaceColor'
p4281
sg343
(lp4282
sba(i__main__
DelphiIdentAccess
p4283
(dp4284
g16
S'useBackfaceColor'
p4285
sg343
(lp4286
sba(i__main__
DelphiIdentAccess
p4287
(dp4288
g16
S'kExportPartLeaf'
p4289
sg343
(lp4290
sbasbasbsbsbasbsg598
(lp4291
(i__main__
DelphiVarSection
p4292
(dp4293
g23
I0
sg602
(lp4294
(idelphi
DelphiVarDecl
p4295
(dp4296
g11
Nsg606
(lp4297
S'turtle'
p4298
asg18
(i__main__
DelphiNamedType
p4299
(dp4300
g21
S'KfTurtle'
p4301
sg73
g1
sg74
Nsbsba(idelphi
DelphiVarDecl
p4302
(dp4303
g11
Nsg606
(lp4304
S'rotateAngle'
p4305
asg18
(i__main__
DelphiPrimitiveType
p4306
(dp4307
g21
g77
sbsba(idelphi
DelphiVarDecl
p4308
(dp4309
g11
Nsg606
(lp4310
S'tdo'
p4311
asg18
(i__main__
DelphiNamedType
p4312
(dp4313
g21
S'KfObject3D'
p4314
sg73
g1
sg74
Nsbsba(idelphi
DelphiVarDecl
p4315
(dp4316
g11
Nsg606
(lp4317
S'useFaceColor'
p4318
aS'useBackfaceColor'
p4319
asg18
(i__main__
DelphiNamedType
p4320
(dp4321
g21
S'TColorRef'
p4322
sg73
g1
sg74
NsbsbasbasbsbsS'report'
p4323
(i__main__
DelphiMethodImplementation
p4324
(dp4325
g390
g271
sg36
g273
sg44
(lp4326
sg398
(lp4327
sg400
(lp4328
sg402
(lp4329
g404
asg405
(dp4330
sg56
S'PdLeaf'
p4331
sg57
Nsg408
(lp4332
sg58
I0
sg59
g60
sg410
(i__main__
DelphiBlock
p4333
(dp4334
g413
(idelphi
DelphiCompoundStatement
p4335
(dp4336
g416
(lp4337
(i__main__
DelphiAssignStatement
p4338
(dp4339
g420
Nsg458
(idelphi
DelphiInheritedCall
p4340
(dp4341
g16
S'report'
p4342
sg500
Nsbsbasg463
(lp4343
S"debugPrint('leaf, age ' + IntToStr(age) + ' biomass ' + floatToStr(liveBiomass_pctMPB));\r"
p4344
aS"DebugForm.printNested(plant.turtle.stackSize, 'leaf, age ' + IntToStr(age));"
p4345
asbsg598
(lp4346
sbsbsS'countpointsandtrianglesfor3dexportandaddtotraversertotals'
p4347
(i__main__
DelphiMethodImplementation
p4348
(dp4349
g390
g276
sg36
g278
sg44
(lp4350
(i__main__
DelphiFormalParameter
p4351
(dp4352
g48
Nsg49
(lp4353
S'traverser'
p4354
asg18
(i__main__
DelphiNamedType
p4355
(dp4356
g21
S'PdTraverser'
p4357
sg73
g1
sg74
Nsbsg55
Nsbasg398
(lp4358
sg400
(lp4359
sg402
(lp4360
g404
ag4354
asg405
(dp4361
g4354
g4355
ssg56
S'PdLeaf'
p4362
sg57
Nsg408
(lp4363
sg58
I0
sg59
g60
sg410
(i__main__
DelphiBlock
p4364
(dp4365
g413
(idelphi
DelphiCompoundStatement
p4366
(dp4367
g416
(lp4368
(idelphi
DelphiIfStatement
p4369
(dp4370
g701
(idelphi
DelphiRelOp
p4371
(dp4372
g708
(i__main__
DelphiIdentAccess
p4373
(dp4374
g16
S'traverser'
p4375
sg343
(lp4376
sbsg713
(idelphi
DelphiNilValue
p4377
(dp4378
bsg716
S'='
sbsg717
Nsg718
(i__main__
DelphiExitStatement
p4379
(dp4380
g721
g4348
sbsba(idelphi
DelphiIfStatement
p4381
(dp4382
g701
(i__main__
DelphiIdentAccess
p4383
(dp4384
g16
S'self'
p4385
sg343
(lp4386
(idelphi
DelphiFieldEndAccess
p4387
(dp4388
g437
S'hasFallenOff'
p4389
sbasbsg717
Nsg718
(i__main__
DelphiExitStatement
p4390
(dp4391
g721
g4348
sbsba(idelphi
DelphiIfStatement
p4392
(dp4393
g701
(idelphi
DelphiRelOp
p4394
(dp4395
g708
(i__main__
DelphiIdentAccess
p4396
(dp4397
g16
S'propFullSize'
p4398
sg343
(lp4399
sbsg713
(idelphi
DelphiIntegerValue
p4400
(dp4401
g14
S'0'
sbsg716
g3271
sbsg717
Nsg718
(i__main__
DelphiExitStatement
p4402
(dp4403
g721
g4348
sbsba(idelphi
DelphiIfStatement
p4404
(dp4405
g701
(i__main__
DelphiIdentAccess
p4406
(dp4407
g16
S'isSeedlingLeaf'
p4408
sg343
(lp4409
sbsg717
(idelphi
DelphiCompoundStatement
p4410
(dp4411
g416
(lp4412
(idelphi
DelphiIfStatement
p4413
(dp4414
g701
(idelphi
DelphiRelOp
p4415
(dp4416
g708
(i__main__
DelphiIdentAccess
p4417
(dp4418
g16
S'plant'
p4419
sg343
(lp4420
(idelphi
DelphiFieldEndAccess
p4421
(dp4422
g437
S'pLeaf'
p4423
sba(idelphi
DelphiFieldEndAccess
p4424
(dp4425
g437
S'leafTdoParams'
p4426
sba(idelphi
DelphiFieldEndAccess
p4427
(dp4428
g437
S'scaleAtFullSize'
p4429
sbasbsg713
(idelphi
DelphiIntegerValue
p4430
(dp4431
g14
S'0'
sbsg716
S'>'
sbsg717
Nsg718
(idelphi
DelphiCompoundStatement
p4432
(dp4433
g416
(lp4434
(i__main__
DelphiIncOrDecStatement
p4435
(dp4436
S'incOrDecString'
p4437
S'inc'
p4438
sS'incrementExpression'
p4439
(idelphi
DelphiMulOp
p4440
(dp4441
g423
(i__main__
DelphiIdentAccess
p4442
(dp4443
g16
S'plant'
p4444
sg343
(lp4445
(idelphi
DelphiFieldEndAccess
p4446
(dp4447
g437
S'pLeaf'
p4448
sba(idelphi
DelphiFieldEndAccess
p4449
(dp4450
g437
S'compoundNumLeaflets'
p4451
sbasbsg427
S'*'
sg428
(i__main__
DelphiIdentAccess
p4452
(dp4453
g16
S'plant'
p4454
sg343
(lp4455
(idelphi
DelphiFieldEndAccess
p4456
(dp4457
g437
S'pLeaf'
p4458
sba(idelphi
DelphiFieldEndAccess
p4459
(dp4460
g437
S'leafTdoParams'
p4461
sba(idelphi
DelphiFieldEndAccess
p4462
(dp4463
g437
S'object3d'
p4464
sba(idelphi
DelphiFieldEndAccess
p4465
(dp4466
g437
S'pointsInUse'
p4467
sbasbsbsg458
(i__main__
DelphiIdentAccess
p4468
(dp4469
g16
S'traverser'
p4470
sg343
(lp4471
(idelphi
DelphiFieldEndAccess
p4472
(dp4473
g437
S'total3DExportPointsIn3DObjects'
p4474
sbasbsg463
(lp4475
S' leaf (considering compound leaf)\r'
p4476
asba(i__main__
DelphiIncOrDecStatement
p4477
(dp4478
g4437
g4438
sg4439
(idelphi
DelphiMulOp
p4479
(dp4480
g423
(i__main__
DelphiIdentAccess
p4481
(dp4482
g16
S'plant'
p4483
sg343
(lp4484
(idelphi
DelphiFieldEndAccess
p4485
(dp4486
g437
S'pLeaf'
p4487
sba(idelphi
DelphiFieldEndAccess
p4488
(dp4489
g437
S'compoundNumLeaflets'
p4490
sbasbsg427
S'*'
sg428
(i__main__
DelphiIdentAccess
p4491
(dp4492
g16
S'plant'
p4493
sg343
(lp4494
(idelphi
DelphiFieldEndAccess
p4495
(dp4496
g437
S'pLeaf'
p4497
sba(idelphi
DelphiFieldEndAccess
p4498
(dp4499
g437
S'leafTdoParams'
p4500
sba(idelphi
DelphiFieldEndAccess
p4501
(dp4502
g437
S'object3d'
p4503
sba(idelphi
DelphiFieldEndAccess
p4504
(dp4505
g437
S'triangles'
p4506
sba(idelphi
DelphiFieldEndAccess
p4507
(dp4508
g437
S'count'
p4509
sbasbsbsg458
(i__main__
DelphiIdentAccess
p4510
(dp4511
g16
S'traverser'
p4512
sg343
(lp4513
(idelphi
DelphiFieldEndAccess
p4514
(dp4515
g437
S'total3DExportTrianglesIn3DObjects'
p4516
sbasbsba(i__main__
DelphiAssignStatement
p4517
(dp4518
g420
Nsg458
(i__main__
DelphiIdentAccess
p4519
(dp4520
g16
S'addExportMaterial'
p4521
sg343
(lp4522
(idelphi
DelphiFunctionEndAccess
p4523
(dp4524
g500
(lp4525
(i__main__
DelphiIdentAccess
p4526
(dp4527
g16
S'traverser'
p4528
sg343
(lp4529
sba(i__main__
DelphiIdentAccess
p4530
(dp4531
g16
S'kExportPartLeaf'
p4532
sg343
(lp4533
sba(idelphi
DelphiSign
p4534
(dp4535
g850
(idelphi
DelphiIntegerValue
p4536
(dp4537
g14
S'1'
sbsg853
S'-'
sbasbasbsbasbsba(idelphi
DelphiIfStatement
p4538
(dp4539
g701
(idelphi
DelphiRelOp
p4540
(dp4541
g708
(i__main__
DelphiIdentAccess
p4542
(dp4543
g16
S'plant'
p4544
sg343
(lp4545
(idelphi
DelphiFieldEndAccess
p4546
(dp4547
g437
S'pLeaf'
p4548
sba(idelphi
DelphiFieldEndAccess
p4549
(dp4550
g437
S'stipuleTdoParams'
p4551
sba(idelphi
DelphiFieldEndAccess
p4552
(dp4553
g437
S'scaleAtFullSize'
p4554
sbasbsg713
(idelphi
DelphiIntegerValue
p4555
(dp4556
g14
S'0'
sbsg716
S'>'
sbsg717
Nsg718
(idelphi
DelphiCompoundStatement
p4557
(dp4558
g416
(lp4559
(i__main__
DelphiIncOrDecStatement
p4560
(dp4561
g4437
g4438
sg4439
(i__main__
DelphiIdentAccess
p4562
(dp4563
g16
S'plant'
p4564
sg343
(lp4565
(idelphi
DelphiFieldEndAccess
p4566
(dp4567
g437
S'pLeaf'
p4568
sba(idelphi
DelphiFieldEndAccess
p4569
(dp4570
g437
S'stipuleTdoParams'
p4571
sba(idelphi
DelphiFieldEndAccess
p4572
(dp4573
g437
S'object3d'
p4574
sba(idelphi
DelphiFieldEndAccess
p4575
(dp4576
g437
S'pointsInUse'
p4577
sbasbsg458
(i__main__
DelphiIdentAccess
p4578
(dp4579
g16
S'traverser'
p4580
sg343
(lp4581
(idelphi
DelphiFieldEndAccess
p4582
(dp4583
g437
S'total3DExportPointsIn3DObjects'
p4584
sbasbsg463
(lp4585
S' stipule\r'
p4586
asba(i__main__
DelphiIncOrDecStatement
p4587
(dp4588
g4437
g4438
sg4439
(i__main__
DelphiIdentAccess
p4589
(dp4590
g16
S'plant'
p4591
sg343
(lp4592
(idelphi
DelphiFieldEndAccess
p4593
(dp4594
g437
S'pLeaf'
p4595
sba(idelphi
DelphiFieldEndAccess
p4596
(dp4597
g437
S'stipuleTdoParams'
p4598
sba(idelphi
DelphiFieldEndAccess
p4599
(dp4600
g437
S'object3d'
p4601
sba(idelphi
DelphiFieldEndAccess
p4602
(dp4603
g437
S'triangles'
p4604
sba(idelphi
DelphiFieldEndAccess
p4605
(dp4606
g437
S'count'
p4607
sbasbsg458
(i__main__
DelphiIdentAccess
p4608
(dp4609
g16
S'traverser'
p4610
sg343
(lp4611
(idelphi
DelphiFieldEndAccess
p4612
(dp4613
g437
S'total3DExportTrianglesIn3DObjects'
p4614
sbasbsba(i__main__
DelphiAssignStatement
p4615
(dp4616
g420
Nsg458
(i__main__
DelphiIdentAccess
p4617
(dp4618
g16
S'addExportMaterial'
p4619
sg343
(lp4620
(idelphi
DelphiFunctionEndAccess
p4621
(dp4622
g500
(lp4623
(i__main__
DelphiIdentAccess
p4624
(dp4625
g16
S'traverser'
p4626
sg343
(lp4627
sba(i__main__
DelphiIdentAccess
p4628
(dp4629
g16
S'kExportPartLeafStipule'
p4630
sg343
(lp4631
sba(idelphi
DelphiSign
p4632
(dp4633
g850
(idelphi
DelphiIntegerValue
p4634
(dp4635
g14
S'1'
sbsg853
S'-'
sbasbasbsbasbsbasbsg718
(idelphi
DelphiCompoundStatement
p4636
(dp4637
g416
(lp4638
(idelphi
DelphiIfStatement
p4639
(dp4640
g701
(idelphi
DelphiRelOp
p4641
(dp4642
g708
(i__main__
DelphiIdentAccess
p4643
(dp4644
g16
S'plant'
p4645
sg343
(lp4646
(idelphi
DelphiFieldEndAccess
p4647
(dp4648
g437
S'pSeedlingLeaf'
p4649
sba(idelphi
DelphiFieldEndAccess
p4650
(dp4651
g437
S'leafTdoParams'
p4652
sba(idelphi
DelphiFieldEndAccess
p4653
(dp4654
g437
S'scaleAtFullSize'
p4655
sbasbsg713
(idelphi
DelphiIntegerValue
p4656
(dp4657
g14
S'0'
sbsg716
S'>'
sbsg717
Nsg718
(idelphi
DelphiCompoundStatement
p4658
(dp4659
g416
(lp4660
(i__main__
DelphiIncOrDecStatement
p4661
(dp4662
g4437
g4438
sg4439
(i__main__
DelphiIdentAccess
p4663
(dp4664
g16
S'plant'
p4665
sg343
(lp4666
(idelphi
DelphiFieldEndAccess
p4667
(dp4668
g437
S'pSeedlingLeaf'
p4669
sba(idelphi
DelphiFieldEndAccess
p4670
(dp4671
g437
S'leafTdoParams'
p4672
sba(idelphi
DelphiFieldEndAccess
p4673
(dp4674
g437
S'object3d'
p4675
sba(idelphi
DelphiFieldEndAccess
p4676
(dp4677
g437
S'pointsInUse'
p4678
sbasbsg458
(i__main__
DelphiIdentAccess
p4679
(dp4680
g16
S'traverser'
p4681
sg343
(lp4682
(idelphi
DelphiFieldEndAccess
p4683
(dp4684
g437
S'total3DExportPointsIn3DObjects'
p4685
sbasbsg463
(lp4686
S' seedling leaf\r'
p4687
asba(i__main__
DelphiIncOrDecStatement
p4688
(dp4689
g4437
g4438
sg4439
(i__main__
DelphiIdentAccess
p4690
(dp4691
g16
S'plant'
p4692
sg343
(lp4693
(idelphi
DelphiFieldEndAccess
p4694
(dp4695
g437
S'pSeedlingLeaf'
p4696
sba(idelphi
DelphiFieldEndAccess
p4697
(dp4698
g437
S'leafTdoParams'
p4699
sba(idelphi
DelphiFieldEndAccess
p4700
(dp4701
g437
S'object3d'
p4702
sba(idelphi
DelphiFieldEndAccess
p4703
(dp4704
g437
S'triangles'
p4705
sba(idelphi
DelphiFieldEndAccess
p4706
(dp4707
g437
S'count'
p4708
sbasbsg458
(i__main__
DelphiIdentAccess
p4709
(dp4710
g16
S'traverser'
p4711
sg343
(lp4712
(idelphi
DelphiFieldEndAccess
p4713
(dp4714
g437
S'total3DExportTrianglesIn3DObjects'
p4715
sbasbsba(i__main__
DelphiAssignStatement
p4716
(dp4717
g420
Nsg458
(i__main__
DelphiIdentAccess
p4718
(dp4719
g16
S'addExportMaterial'
p4720
sg343
(lp4721
(idelphi
DelphiFunctionEndAccess
p4722
(dp4723
g500
(lp4724
(i__main__
DelphiIdentAccess
p4725
(dp4726
g16
S'traverser'
p4727
sg343
(lp4728
sba(i__main__
DelphiIdentAccess
p4729
(dp4730
g16
S'kExportPartSeedlingLeaf'
p4731
sg343
(lp4732
sba(idelphi
DelphiSign
p4733
(dp4734
g850
(idelphi
DelphiIntegerValue
p4735
(dp4736
g14
S'1'
sbsg853
S'-'
sbasbasbsbasbsbasg463
(lp4737
S' not seedling leaf\r'
p4738
asbsba(idelphi
DelphiIfStatement
p4739
(dp4740
g701
(idelphi
DelphiRelOp
p4741
(dp4742
g708
(i__main__
DelphiIdentAccess
p4743
(dp4744
g16
S'plant'
p4745
sg343
(lp4746
(idelphi
DelphiFieldEndAccess
p4747
(dp4748
g437
S'pLeaf'
p4749
sba(idelphi
DelphiFieldEndAccess
p4750
(dp4751
g437
S'petioleLengthAtOptimalBiomass_mm'
p4752
sbasbsg713
(idelphi
DelphiIntegerValue
p4753
(dp4754
g14
S'0'
sbsg716
S'>'
sbsg717
Nsg718
(idelphi
DelphiCompoundStatement
p4755
(dp4756
g416
(lp4757
(i__main__
DelphiIncOrDecStatement
p4758
(dp4759
g4437
g4438
sg4439
Nsg458
(i__main__
DelphiIdentAccess
p4760
(dp4761
g16
S'traverser'
p4762
sg343
(lp4763
(idelphi
DelphiFieldEndAccess
p4764
(dp4765
g437
S'total3DExportStemSegments'
p4766
sbasbsg463
(lp4767
S' petiole\r'
p4768
asba(idelphi
DelphiIfStatement
p4769
(dp4770
g701
(i__main__
DelphiIdentAccess
p4771
(dp4772
g16
S'isSeedlingLeaf'
p4773
sg343
(lp4774
sbsg717
(i__main__
DelphiAssignStatement
p4775
(dp4776
g420
Nsg458
(i__main__
DelphiIdentAccess
p4777
(dp4778
g16
S'addExportMaterial'
p4779
sg343
(lp4780
(idelphi
DelphiFunctionEndAccess
p4781
(dp4782
g500
(lp4783
(i__main__
DelphiIdentAccess
p4784
(dp4785
g16
S'traverser'
p4786
sg343
(lp4787
sba(i__main__
DelphiIdentAccess
p4788
(dp4789
g16
S'kExportPartPetiole'
p4790
sg343
(lp4791
sba(idelphi
DelphiSign
p4792
(dp4793
g850
(idelphi
DelphiIntegerValue
p4794
(dp4795
g14
S'1'
sbsg853
S'-'
sbasbasbsbsg718
(i__main__
DelphiAssignStatement
p4796
(dp4797
g420
Nsg458
(i__main__
DelphiIdentAccess
p4798
(dp4799
g16
S'addExportMaterial'
p4800
sg343
(lp4801
(idelphi
DelphiFunctionEndAccess
p4802
(dp4803
g500
(lp4804
(i__main__
DelphiIdentAccess
p4805
(dp4806
g16
S'traverser'
p4807
sg343
(lp4808
sba(i__main__
DelphiIdentAccess
p4809
(dp4810
g16
S'kExportPartFirstPetiole'
p4811
sg343
(lp4812
sba(idelphi
DelphiSign
p4813
(dp4814
g850
(idelphi
DelphiIntegerValue
p4815
(dp4816
g14
S'1'
sbsg853
S'-'
sbasbasbsbsba(idelphi
DelphiIfStatement
p4817
(dp4818
g701
(idelphi
DelphiRelOp
p4819
(dp4820
g708
(i__main__
DelphiIdentAccess
p4821
(dp4822
g16
S'plant'
p4823
sg343
(lp4824
(idelphi
DelphiFieldEndAccess
p4825
(dp4826
g437
S'pLeaf'
p4827
sba(idelphi
DelphiFieldEndAccess
p4828
(dp4829
g437
S'compoundNumLeaflets'
p4830
sbasbsg713
(idelphi
DelphiIntegerValue
p4831
(dp4832
g14
S'1'
sbsg716
S'>'
sbsg717
Nsg718
(i__main__
DelphiIncOrDecStatement
p4833
(dp4834
g4437
g4438
sg4439
(idelphi
DelphiMulOp
p4835
(dp4836
g423
(idelphi
DelphiIntegerValue
p4837
(dp4838
g14
S'2'
sbsg427
S'*'
sg428
(i__main__
DelphiIdentAccess
p4839
(dp4840
g16
S'plant'
p4841
sg343
(lp4842
(idelphi
DelphiFieldEndAccess
p4843
(dp4844
g437
S'pLeaf'
p4845
sba(idelphi
DelphiFieldEndAccess
p4846
(dp4847
g437
S'compoundNumLeaflets'
p4848
sbasbsbsg458
(i__main__
DelphiIdentAccess
p4849
(dp4850
g16
S'traverser'
p4851
sg343
(lp4852
(idelphi
DelphiFieldEndAccess
p4853
(dp4854
g437
S'total3DExportStemSegments'
p4855
sbasbsg463
(lp4856
S' petiolets + compound leaf internodes\r'
p4857
asbsbasbsbasbsg598
(lp4858
sbsbsS'checkifhasabscissed'
p4859
(i__main__
DelphiMethodImplementation
p4860
(dp4861
g390
g288
sg36
g290
sg44
(lp4862
sg398
(lp4863
sg400
(lp4864
sg402
(lp4865
g404
asg405
(dp4866
sg56
S'PdLeaf'
p4867
sg57
Nsg408
(lp4868
sg58
I0
sg59
g60
sg410
(i__main__
DelphiBlock
p4869
(dp4870
g413
(idelphi
DelphiCompoundStatement
p4871
(dp4872
g416
Nsg463
(lp4873
S' if enough biomass removed (parameter), absciss leaf or leaves '
p4874
aS' not doing anymore\r'
p4875
aS'if (self.fractionLive < plant.pLeaf.fractionOfLiveBiomassWhenAbscisses_frn) and (not self.hasFallenOff) then\r'
p4876
aS'  self.hasFallenOff := true;\r'
p4877
asbsg598
(lp4878
sbsbsS'traverseactivity'
p4879
(i__main__
DelphiMethodImplementation
p4880
(dp4881
g390
g293
sg36
g295
sg44
(lp4882
(i__main__
DelphiFormalParameter
p4883
(dp4884
g48
Nsg49
(lp4885
S'mode'
p4886
asg18
(i__main__
DelphiPrimitiveType
p4887
(dp4888
g21
g54
sbsg55
Nsba(i__main__
DelphiFormalParameter
p4889
(dp4890
g48
Nsg49
(lp4891
S'traverserProxy'
p4892
asg18
(i__main__
DelphiNamedType
p4893
(dp4894
g21
S'TObject'
p4895
sg73
g1
sg74
Nsbsg55
Nsbasg398
(lp4896
sg400
(lp4897
sg402
(lp4898
g404
ag4886
ag4892
asg405
(dp4899
g4892
g4893
sg4886
g4887
ssg56
S'PdLeaf'
p4900
sg57
Nsg408
(lp4901
sg58
I0
sg59
g60
sg410
(i__main__
DelphiBlock
p4902
(dp4903
g413
(idelphi
DelphiCompoundStatement
p4904
(dp4905
g416
(lp4906
(i__main__
DelphiAssignStatement
p4907
(dp4908
g420
Nsg458
(idelphi
DelphiInheritedCall
p4909
(dp4910
g16
S'traverseActivity'
p4911
sg500
(lp4912
(i__main__
DelphiIdentAccess
p4913
(dp4914
g16
S'mode'
p4915
sg343
(lp4916
sba(i__main__
DelphiIdentAccess
p4917
(dp4918
g16
S'traverserProxy'
p4919
sg343
(lp4920
sbasbsba(i__main__
DelphiAssignStatement
p4921
(dp4922
g420
(i__main__
DelphiIdentAccess
p4923
(dp4924
g16
S'PdTraverser'
p4925
sg343
(lp4926
(idelphi
DelphiFunctionEndAccess
p4927
(dp4928
g500
(lp4929
(i__main__
DelphiIdentAccess
p4930
(dp4931
g16
S'traverserProxy'
p4932
sg343
(lp4933
sbasbasbsg458
(i__main__
DelphiIdentAccess
p4934
(dp4935
g16
S'traverser'
p4936
sg343
(lp4937
sbsba(idelphi
DelphiIfStatement
p4938
(dp4939
g701
(idelphi
DelphiRelOp
p4940
(dp4941
g708
(i__main__
DelphiIdentAccess
p4942
(dp4943
g16
S'traverser'
p4944
sg343
(lp4945
sbsg713
(idelphi
DelphiNilValue
p4946
(dp4947
bsg716
S'='
sbsg717
Nsg718
(i__main__
DelphiExitStatement
p4948
(dp4949
g721
g4880
sbsba(idelphi
DelphiIfStatement
p4950
(dp4951
g701
(idelphi
DelphiMulOp
p4952
(dp4953
g423
(idelphi
DelphiNestedExpressionListAccess
p4954
(dp4955
g343
(lp4956
sg500
(lp4957
(idelphi
DelphiRelOp
p4958
(dp4959
g708
(i__main__
DelphiIdentAccess
p4960
(dp4961
g16
S'mode'
p4962
sg343
(lp4963
sbsg713
(i__main__
DelphiIdentAccess
p4964
(dp4965
g16
S'kActivityFree'
p4966
sg343
(lp4967
sbsg716
g2205
sbasbsg427
S'and'
p4968
sg428
(idelphi
DelphiMulOp
p4969
(dp4970
g423
(idelphi
DelphiNestedExpressionListAccess
p4971
(dp4972
g343
(lp4973
sg500
(lp4974
(idelphi
DelphiRelOp
p4975
(dp4976
g708
(i__main__
DelphiIdentAccess
p4977
(dp4978
g16
S'mode'
p4979
sg343
(lp4980
sbsg713
(i__main__
DelphiIdentAccess
p4981
(dp4982
g16
S'kActivityStream'
p4983
sg343
(lp4984
sbsg716
g2205
sbasbsg427
g4968
sg428
(i__main__
DelphiIdentAccess
p4985
(dp4986
g16
S'self'
p4987
sg343
(lp4988
(idelphi
DelphiFieldEndAccess
p4989
(dp4990
g437
S'hasFallenOff'
p4991
sbasbsbsbsg717
Nsg718
(i__main__
DelphiExitStatement
p4992
(dp4993
g721
g4880
sbsba(idelphi
DelphiCompoundStatement
p4994
(dp4995
g416
(lp4996
(idelphi
DelphiTryExceptStatement
p4997
(dp4998
g1844
(lp4999
(idelphi
DelphiCaseStatement
p5000
(dp5001
S'elseStatement'
p5002
(idelphi
DelphiRaiseStatement
p5003
(dp5004
g701
(i__main__
DelphiIdentAccess
p5005
(dp5006
g16
S'Exception'
p5007
sg343
(lp5008
(idelphi
DelphiFieldEndAccess
p5009
(dp5010
g437
S'create'
p5011
sba(idelphi
DelphiFunctionEndAccess
p5012
(dp5013
g500
(lp5014
(idelphi
DelphiStringAccess
p5015
(dp5016
g343
(lp5017
sg14
(idelphi
DelphiStringValue
p5018
(dp5019
g14
S'Problem: Unhandled mode in method PdLeaf.traverseActivity.'
p5020
sbsbasbasbsbsg701
(i__main__
DelphiIdentAccess
p5021
(dp5022
g16
S'mode'
p5023
sg343
(lp5024
sbsS'caseSelectorList'
p5025
(lp5026
(idelphi
DelphiCaseSelector
p5027
(dp5028
g640
NsS'caseLabelList'
p5029
(lp5030
(i__main__
DelphiIdentAccess
p5031
(dp5032
g16
S'kActivityNone'
p5033
sg343
(lp5034
sbasba(idelphi
DelphiCaseSelector
p5035
(dp5036
g640
(i__main__
DelphiAssignStatement
p5037
(dp5038
g420
Nsg458
(i__main__
DelphiIdentAccess
p5039
(dp5040
g16
S'self'
p5041
sg343
(lp5042
(idelphi
DelphiFieldEndAccess
p5043
(dp5044
g437
S'nextDay'
p5045
sbasbsbsg5029
(lp5046
(i__main__
DelphiIdentAccess
p5047
(dp5048
g16
S'kActivityNextDay'
p5049
sg343
(lp5050
sbasba(idelphi
DelphiCaseSelector
p5051
(dp5052
g640
(idelphi
DelphiCompoundStatement
p5053
(dp5054
g416
(lp5055
(idelphi
DelphiIfStatement
p5056
(dp5057
g701
(idelphi
DelphiRelOp
p5058
(dp5059
g708
(i__main__
DelphiIdentAccess
p5060
(dp5061
g16
S'self'
p5062
sg343
(lp5063
(idelphi
DelphiFieldEndAccess
p5064
(dp5065
g437
S'age'
p5066
sbasbsg713
(i__main__
DelphiIdentAccess
p5067
(dp5068
g16
S'plant'
p5069
sg343
(lp5070
(idelphi
DelphiFieldEndAccess
p5071
(dp5072
g437
S'pLeaf'
p5073
sba(idelphi
DelphiFieldEndAccess
p5074
(dp5075
g437
S'maxDaysToGrow'
p5076
sbasbsg716
S'>'
sbsg717
Nsg718
(idelphi
DelphiCompoundStatement
p5077
(dp5078
g416
(lp5079
(i__main__
DelphiAssignStatement
p5080
(dp5081
g420
(idelphi
DelphiRealValue
p5082
(dp5083
g14
S'0.0'
p5084
sbsg458
(i__main__
DelphiIdentAccess
p5085
(dp5086
g16
S'self'
p5087
sg343
(lp5088
(idelphi
DelphiFieldEndAccess
p5089
(dp5090
g437
S'biomassDemand_pctMPB'
p5091
sbasbsba(i__main__
DelphiExitStatement
p5092
(dp5093
g721
g4880
sbasbsba(idelphi
DelphiWithStatement
p5094
(dp5095
g640
(idelphi
DelphiCompoundStatement
p5096
(dp5097
g416
(lp5098
(i__main__
DelphiAssignStatement
p5099
(dp5100
g420
(i__main__
DelphiIdentAccess
p5101
(dp5102
g16
S'safedivExcept'
p5103
sg343
(lp5104
(idelphi
DelphiFunctionEndAccess
p5105
(dp5106
g500
(lp5107
(idelphi
DelphiAddOp
p5108
(dp5109
g1440
S'+'
sg1441
(idelphi
DelphiIntegerValue
p5110
(dp5111
g14
S'1'
sbsg1467
(i__main__
DelphiIdentAccess
p5112
(dp5113
g16
S'age'
p5114
sg343
(lp5115
sbsba(i__main__
DelphiIdentAccess
p5116
(dp5117
g16
S'maxDaysToGrow'
p5118
sg343
(lp5119
sba(idelphi
DelphiRealValue
p5120
(dp5121
g14
S'0.0'
p5122
sbasbasbsg458
(i__main__
DelphiIdentAccess
p5123
(dp5124
g16
S'fractionOfMaxAge_frn'
p5125
sg343
(lp5126
sbsba(i__main__
DelphiAssignStatement
p5127
(dp5128
g420
(i__main__
DelphiIdentAccess
p5129
(dp5130
g16
S'max'
p5131
sg343
(lp5132
(idelphi
DelphiFunctionEndAccess
p5133
(dp5134
g500
(lp5135
(idelphi
DelphiRealValue
p5136
(dp5137
g14
S'0.0'
p5138
sba(i__main__
DelphiIdentAccess
p5139
(dp5140
g16
S'min'
p5141
sg343
(lp5142
(idelphi
DelphiFunctionEndAccess
p5143
(dp5144
g500
(lp5145
(idelphi
DelphiRealValue
p5146
(dp5147
g14
S'1.0'
p5148
sba(i__main__
DelphiIdentAccess
p5149
(dp5150
g16
S'scurve'
p5151
sg343
(lp5152
(idelphi
DelphiFunctionEndAccess
p5153
(dp5154
g500
(lp5155
(i__main__
DelphiIdentAccess
p5156
(dp5157
g16
S'fractionOfMaxAge_frn'
p5158
sg343
(lp5159
sba(i__main__
DelphiIdentAccess
p5160
(dp5161
g16
S'sCurveParams'
p5162
sg343
(lp5163
(idelphi
DelphiFieldEndAccess
p5164
(dp5165
g437
S'c1'
p5166
sbasba(i__main__
DelphiIdentAccess
p5167
(dp5168
g16
S'sCurveParams'
p5169
sg343
(lp5170
(idelphi
DelphiFieldEndAccess
p5171
(dp5172
g437
S'c2'
p5173
sbasbasbasbasbasbasbasbsg458
(i__main__
DelphiIdentAccess
p5174
(dp5175
g16
S'propFullSizeWanted'
p5176
sg343
(lp5177
sbsba(i__main__
DelphiAssignStatement
p5178
(dp5179
g420
(i__main__
DelphiIdentAccess
p5180
(dp5181
g16
S'linearGrowthResult'
p5182
sg343
(lp5183
(idelphi
DelphiFunctionEndAccess
p5184
(dp5185
g500
(lp5186
(i__main__
DelphiIdentAccess
p5187
(dp5188
g16
S'self'
p5189
sg343
(lp5190
(idelphi
DelphiFieldEndAccess
p5191
(dp5192
g437
S'liveBiomass_pctMPB'
p5193
sbasba(idelphi
DelphiMulOp
p5194
(dp5195
g423
(i__main__
DelphiIdentAccess
p5196
(dp5197
g16
S'optimalBiomass_pctMPB'
p5198
sg343
(lp5199
sbsg427
S'*'
sg428
(i__main__
DelphiIdentAccess
p5200
(dp5201
g16
S'propFullSizeWanted'
p5202
sg343
(lp5203
sbsba(i__main__
DelphiIdentAccess
p5204
(dp5205
g16
S'minDaysToGrow'
p5206
sg343
(lp5207
sbasbasbsg458
(i__main__
DelphiIdentAccess
p5208
(dp5209
g16
S'self'
p5210
sg343
(lp5211
(idelphi
DelphiFieldEndAccess
p5212
(dp5213
g437
S'biomassDemand_pctMPB'
p5214
sbasbsbasbsg657
(lp5215
(i__main__
DelphiIdentAccess
p5216
(dp5217
g16
S'plant'
p5218
sg343
(lp5219
(idelphi
DelphiFieldEndAccess
p5220
(dp5221
g437
S'pLeaf'
p5222
sbasbasba(i__main__
DelphiAssignStatement
p5223
(dp5224
g420
(idelphi
DelphiAddOp
p5225
(dp5226
g1440
S'+'
sg1441
(i__main__
DelphiIdentAccess
p5227
(dp5228
g16
S'self'
p5229
sg343
(lp5230
(idelphi
DelphiFieldEndAccess
p5231
(dp5232
g437
S'biomassDemand_pctMPB'
p5233
sbasbsg1467
(i__main__
DelphiIdentAccess
p5234
(dp5235
g16
S'traverser'
p5236
sg343
(lp5237
(idelphi
DelphiFieldEndAccess
p5238
(dp5239
g437
S'total'
p5240
sbasbsbsg458
(i__main__
DelphiIdentAccess
p5241
(dp5242
g16
S'traverser'
p5243
sg343
(lp5244
(idelphi
DelphiFieldEndAccess
p5245
(dp5246
g437
S'total'
p5247
sbasbsbasbsg5029
(lp5248
(i__main__
DelphiIdentAccess
p5249
(dp5250
g16
S'kActivityDemandVegetative'
p5251
sg343
(lp5252
sbasba(idelphi
DelphiCaseSelector
p5253
(dp5254
g640
Nsg5029
(lp5255
(i__main__
DelphiIdentAccess
p5256
(dp5257
g16
S'kActivityDemandReproductive'
p5258
sg343
(lp5259
sbasba(idelphi
DelphiCaseSelector
p5260
(dp5261
g640
(idelphi
DelphiCompoundStatement
p5262
(dp5263
g416
(lp5264
(idelphi
DelphiIfStatement
p5265
(dp5266
g701
(idelphi
DelphiRelOp
p5267
(dp5268
g708
(i__main__
DelphiIdentAccess
p5269
(dp5270
g16
S'self'
p5271
sg343
(lp5272
(idelphi
DelphiFieldEndAccess
p5273
(dp5274
g437
S'age'
p5275
sbasbsg713
(i__main__
DelphiIdentAccess
p5276
(dp5277
g16
S'plant'
p5278
sg343
(lp5279
(idelphi
DelphiFieldEndAccess
p5280
(dp5281
g437
S'pLeaf'
p5282
sba(idelphi
DelphiFieldEndAccess
p5283
(dp5284
g437
S'maxDaysToGrow'
p5285
sbasbsg716
S'>'
sbsg717
Nsg718
(i__main__
DelphiExitStatement
p5286
(dp5287
g721
g4880
sg463
(lp5288
S' no repro. demand'
p5289
asbsba(i__main__
DelphiAssignStatement
p5290
(dp5291
g420
(idelphi
DelphiMulOp
p5292
(dp5293
g423
(i__main__
DelphiIdentAccess
p5294
(dp5295
g16
S'traverser'
p5296
sg343
(lp5297
(idelphi
DelphiFieldEndAccess
p5298
(dp5299
g437
S'fractionOfPotentialBiomass'
p5300
sbasbsg427
S'*'
sg428
(i__main__
DelphiIdentAccess
p5301
(dp5302
g16
S'self'
p5303
sg343
(lp5304
(idelphi
DelphiFieldEndAccess
p5305
(dp5306
g437
S'biomassDemand_pctMPB'
p5307
sbasbsbsg458
(i__main__
DelphiIdentAccess
p5308
(dp5309
g16
S'newBiomass_pctMPB'
p5310
sg343
(lp5311
sbsba(i__main__
DelphiAssignStatement
p5312
(dp5313
g420
(idelphi
DelphiAddOp
p5314
(dp5315
g1440
S'+'
sg1441
(i__main__
DelphiIdentAccess
p5316
(dp5317
g16
S'newBiomass_pctMPB'
p5318
sg343
(lp5319
sbsg1467
(i__main__
DelphiIdentAccess
p5320
(dp5321
g16
S'self'
p5322
sg343
(lp5323
(idelphi
DelphiFieldEndAccess
p5324
(dp5325
g437
S'liveBiomass_pctMPB'
p5326
sbasbsbsg458
(i__main__
DelphiIdentAccess
p5327
(dp5328
g16
S'self'
p5329
sg343
(lp5330
(idelphi
DelphiFieldEndAccess
p5331
(dp5332
g437
S'liveBiomass_pctMPB'
p5333
sbasbsba(i__main__
DelphiAssignStatement
p5334
(dp5335
g420
(i__main__
DelphiIdentAccess
p5336
(dp5337
g16
S'Min'
p5338
sg343
(lp5339
(idelphi
DelphiFunctionEndAccess
p5340
(dp5341
g500
(lp5342
(idelphi
DelphiRealValue
p5343
(dp5344
g14
S'1.0'
p5345
sba(i__main__
DelphiIdentAccess
p5346
(dp5347
g16
S'safedivExcept'
p5348
sg343
(lp5349
(idelphi
DelphiFunctionEndAccess
p5350
(dp5351
g500
(lp5352
(i__main__
DelphiIdentAccess
p5353
(dp5354
g16
S'self'
p5355
sg343
(lp5356
(idelphi
DelphiFieldEndAccess
p5357
(dp5358
g437
S'totalBiomass_pctMPB'
p5359
sbasba(i__main__
DelphiIdentAccess
p5360
(dp5361
g16
S'plant'
p5362
sg343
(lp5363
(idelphi
DelphiFieldEndAccess
p5364
(dp5365
g437
S'pLeaf'
p5366
sba(idelphi
DelphiFieldEndAccess
p5367
(dp5368
g437
S'optimalBiomass_pctMPB'
p5369
sbasba(idelphi
DelphiIntegerValue
p5370
(dp5371
g14
S'0'
sbasbasbasbasbsg458
(i__main__
DelphiIdentAccess
p5372
(dp5373
g16
S'self'
p5374
sg343
(lp5375
(idelphi
DelphiFieldEndAccess
p5376
(dp5377
g437
S'propFullSize'
p5378
sbasbsbasbsg5029
(lp5379
(i__main__
DelphiIdentAccess
p5380
(dp5381
g16
S'kActivityGrowVegetative'
p5382
sg343
(lp5383
sbasba(idelphi
DelphiCaseSelector
p5384
(dp5385
g640
Nsg5029
(lp5386
(i__main__
DelphiIdentAccess
p5387
(dp5388
g16
S'kActivityGrowReproductive'
p5389
sg343
(lp5390
sbasba(idelphi
DelphiCaseSelector
p5391
(dp5392
g640
Nsg5029
(lp5393
(i__main__
DelphiIdentAccess
p5394
(dp5395
g16
S'kActivityStartReproduction'
p5396
sg343
(lp5397
sbasba(idelphi
DelphiCaseSelector
p5398
(dp5399
g640
(idelphi
DelphiCompoundStatement
p5400
(dp5401
g416
(lp5402
(idelphi
DelphiIfStatement
p5403
(dp5404
g701
(i__main__
DelphiIdentAccess
p5405
(dp5406
g16
S'pointsAreCloseEnough'
p5407
sg343
(lp5408
(idelphi
DelphiFunctionEndAccess
p5409
(dp5410
g500
(lp5411
(i__main__
DelphiIdentAccess
p5412
(dp5413
g16
S'traverser'
p5414
sg343
(lp5415
(idelphi
DelphiFieldEndAccess
p5416
(dp5417
g437
S'point'
p5418
sbasba(i__main__
DelphiIdentAccess
p5419
(dp5420
g16
S'self'
p5421
sg343
(lp5422
(idelphi
DelphiFieldEndAccess
p5423
(dp5424
g437
S'position'
p5425
sbasbasbasbsg717
Nsg718
(idelphi
DelphiCompoundStatement
p5426
(dp5427
g416
(lp5428
(i__main__
DelphiAssignStatement
p5429
(dp5430
g420
(i__main__
DelphiIdentAccess
p5431
(dp5432
g16
S'self'
p5433
sg343
(lp5434
sbsg458
(i__main__
DelphiIdentAccess
p5435
(dp5436
g16
S'traverser'
p5437
sg343
(lp5438
(idelphi
DelphiFieldEndAccess
p5439
(dp5440
g437
S'foundPlantPart'
p5441
sbasbsg463
(lp5442
S' no repro. growth'
p5443
aS' no response '
p5444
asba(i__main__
DelphiAssignStatement
p5445
(dp5446
g420
(i__main__
DelphiIdentAccess
p5447
(dp5448
g16
S'true'
p5449
sg343
(lp5450
sbsg458
(i__main__
DelphiIdentAccess
p5451
(dp5452
g16
S'traverser'
p5453
sg343
(lp5454
(idelphi
DelphiFieldEndAccess
p5455
(dp5456
g437
S'finished'
p5457
sbasbsbasbsbasbsg5029
(lp5458
(i__main__
DelphiIdentAccess
p5459
(dp5460
g16
S'kActivityFindPlantPartAtPosition'
p5461
sg343
(lp5462
sbasba(idelphi
DelphiCaseSelector
p5463
(dp5464
g640
Nsg5029
(lp5465
(i__main__
DelphiIdentAccess
p5466
(dp5467
g16
S'kActivityDraw'
p5468
sg343
(lp5469
sbasba(idelphi
DelphiCaseSelector
p5470
(dp5471
g640
Nsg5029
(lp5472
(i__main__
DelphiIdentAccess
p5473
(dp5474
g16
S'kActivityReport'
p5475
sg343
(lp5476
sbasba(idelphi
DelphiCaseSelector
p5477
(dp5478
g640
Nsg5029
(lp5479
(i__main__
DelphiIdentAccess
p5480
(dp5481
g16
S'kActivityStream'
p5482
sg343
(lp5483
sbasba(idelphi
DelphiCaseSelector
p5484
(dp5485
g640
Nsg5029
(lp5486
(i__main__
DelphiIdentAccess
p5487
(dp5488
g16
S'kActivityFree'
p5489
sg343
(lp5490
sbasba(idelphi
DelphiCaseSelector
p5491
(dp5492
g640
(i__main__
DelphiAssignStatement
p5493
(dp5494
g420
(idelphi
DelphiAddOp
p5495
(dp5496
g1440
S'+'
sg1441
(i__main__
DelphiIdentAccess
p5497
(dp5498
g16
S'self'
p5499
sg343
(lp5500
(idelphi
DelphiFieldEndAccess
p5501
(dp5502
g437
S'liveBiomass_pctMPB'
p5503
sbasbsg1467
(i__main__
DelphiIdentAccess
p5504
(dp5505
g16
S'traverser'
p5506
sg343
(lp5507
(idelphi
DelphiFieldEndAccess
p5508
(dp5509
g437
S'total'
p5510
sbasbsbsg458
(i__main__
DelphiIdentAccess
p5511
(dp5512
g16
S'traverser'
p5513
sg343
(lp5514
(idelphi
DelphiFieldEndAccess
p5515
(dp5516
g437
S'total'
p5517
sbasbsg463
(lp5518
S' phytomer will control drawing '
p5519
aS'streaming will be done by internode'
p5520
aS' free will be called by phytomer '
p5521
asbsg5029
(lp5522
(i__main__
DelphiIdentAccess
p5523
(dp5524
g16
S'kActivityVegetativeBiomassThatCanBeRemoved'
p5525
sg343
(lp5526
sbasba(idelphi
DelphiCaseSelector
p5527
(dp5528
g640
(idelphi
DelphiCompoundStatement
p5529
(dp5530
g416
(lp5531
(i__main__
DelphiAssignStatement
p5532
(dp5533
g420
(idelphi
DelphiMulOp
p5534
(dp5535
g423
(i__main__
DelphiIdentAccess
p5536
(dp5537
g16
S'traverser'
p5538
sg343
(lp5539
(idelphi
DelphiFieldEndAccess
p5540
(dp5541
g437
S'fractionOfPotentialBiomass'
p5542
sbasbsg427
S'*'
sg428
(i__main__
DelphiIdentAccess
p5543
(dp5544
g16
S'self'
p5545
sg343
(lp5546
(idelphi
DelphiFieldEndAccess
p5547
(dp5548
g437
S'liveBiomass_pctMPB'
p5549
sbasbsbsg458
(i__main__
DelphiIdentAccess
p5550
(dp5551
g16
S'biomassToRemove_pctMPB'
p5552
sg343
(lp5553
sbsba(i__main__
DelphiAssignStatement
p5554
(dp5555
g420
(idelphi
DelphiAddOp
p5556
(dp5557
g1440
S'-'
sg1441
(i__main__
DelphiIdentAccess
p5558
(dp5559
g16
S'biomassToRemove_pctMPB'
p5560
sg343
(lp5561
sbsg1467
(i__main__
DelphiIdentAccess
p5562
(dp5563
g16
S'self'
p5564
sg343
(lp5565
(idelphi
DelphiFieldEndAccess
p5566
(dp5567
g437
S'liveBiomass_pctMPB'
p5568
sbasbsbsg458
(i__main__
DelphiIdentAccess
p5569
(dp5570
g16
S'self'
p5571
sg343
(lp5572
(idelphi
DelphiFieldEndAccess
p5573
(dp5574
g437
S'liveBiomass_pctMPB'
p5575
sbasbsba(i__main__
DelphiAssignStatement
p5576
(dp5577
g420
(idelphi
DelphiAddOp
p5578
(dp5579
g1440
S'+'
sg1441
(i__main__
DelphiIdentAccess
p5580
(dp5581
g16
S'biomassToRemove_pctMPB'
p5582
sg343
(lp5583
sbsg1467
(i__main__
DelphiIdentAccess
p5584
(dp5585
g16
S'self'
p5586
sg343
(lp5587
(idelphi
DelphiFieldEndAccess
p5588
(dp5589
g437
S'deadBiomass_pctMPB'
p5590
sbasbsbsg458
(i__main__
DelphiIdentAccess
p5591
(dp5592
g16
S'self'
p5593
sg343
(lp5594
(idelphi
DelphiFieldEndAccess
p5595
(dp5596
g437
S'deadBiomass_pctMPB'
p5597
sbasbsbasbsg5029
(lp5598
(i__main__
DelphiIdentAccess
p5599
(dp5600
g16
S'kActivityRemoveVegetativeBiomass'
p5601
sg343
(lp5602
sbasba(idelphi
DelphiCaseSelector
p5603
(dp5604
g640
Nsg5029
(lp5605
(i__main__
DelphiIdentAccess
p5606
(dp5607
g16
S'kActivityReproductiveBiomassThatCanBeRemoved'
p5608
sg343
(lp5609
sbasba(idelphi
DelphiCaseSelector
p5610
(dp5611
g640
Nsg5029
(lp5612
(i__main__
DelphiIdentAccess
p5613
(dp5614
g16
S'kActivityRemoveReproductiveBiomass'
p5615
sg343
(lp5616
sbasba(idelphi
DelphiCaseSelector
p5617
(dp5618
g640
(idelphi
DelphiCompoundStatement
p5619
(dp5620
g416
(lp5621
(idelphi
DelphiIfStatement
p5622
(dp5623
g701
(i__main__
DelphiIdentAccess
p5624
(dp5625
g16
S'self'
p5626
sg343
(lp5627
(idelphi
DelphiFieldEndAccess
p5628
(dp5629
g437
S'isSeedlingLeaf'
p5630
sbasbsg717
(i__main__
DelphiAssignStatement
p5631
(dp5632
g420
Nsg458
(i__main__
DelphiIdentAccess
p5633
(dp5634
g16
S'self'
p5635
sg343
(lp5636
(idelphi
DelphiFieldEndAccess
p5637
(dp5638
g437
S'addToStatistics'
p5639
sba(idelphi
DelphiFunctionEndAccess
p5640
(dp5641
g500
(lp5642
(i__main__
DelphiIdentAccess
p5643
(dp5644
g16
S'traverser'
p5645
sg343
(lp5646
(idelphi
DelphiFieldEndAccess
p5647
(dp5648
g437
S'statistics'
p5649
sbasba(i__main__
DelphiIdentAccess
p5650
(dp5651
g16
S'kStatisticsPartTypeLeaf'
p5652
sg343
(lp5653
sbasbasbsbsg718
(i__main__
DelphiAssignStatement
p5654
(dp5655
g420
Nsg458
(i__main__
DelphiIdentAccess
p5656
(dp5657
g16
S'self'
p5658
sg343
(lp5659
(idelphi
DelphiFieldEndAccess
p5660
(dp5661
g437
S'addToStatistics'
p5662
sba(idelphi
DelphiFunctionEndAccess
p5663
(dp5664
g500
(lp5665
(i__main__
DelphiIdentAccess
p5666
(dp5667
g16
S'traverser'
p5668
sg343
(lp5669
(idelphi
DelphiFieldEndAccess
p5670
(dp5671
g437
S'statistics'
p5672
sbasba(i__main__
DelphiIdentAccess
p5673
(dp5674
g16
S'kStatisticsPartTypeSeedlingLeaf'
p5675
sg343
(lp5676
sbasbasbsg463
(lp5677
S' none '
p5678
aS' none '
p5679
asbsba(i__main__
DelphiAssignStatement
p5680
(dp5681
g420
Nsg458
(i__main__
DelphiIdentAccess
p5682
(dp5683
g16
S'self'
p5684
sg343
(lp5685
(idelphi
DelphiFieldEndAccess
p5686
(dp5687
g437
S'addToStatistics'
p5688
sba(idelphi
DelphiFunctionEndAccess
p5689
(dp5690
g500
(lp5691
(i__main__
DelphiIdentAccess
p5692
(dp5693
g16
S'traverser'
p5694
sg343
(lp5695
(idelphi
DelphiFieldEndAccess
p5696
(dp5697
g437
S'statistics'
p5698
sbasba(i__main__
DelphiIdentAccess
p5699
(dp5700
g16
S'kStatisticsPartTypeAllVegetative'
p5701
sg343
(lp5702
sbasbasbsbasbsg5029
(lp5703
(i__main__
DelphiIdentAccess
p5704
(dp5705
g16
S'kActivityGatherStatistics'
p5706
sg343
(lp5707
sbasba(idelphi
DelphiCaseSelector
p5708
(dp5709
g640
Nsg5029
(lp5710
(i__main__
DelphiIdentAccess
p5711
(dp5712
g16
S'kActivityCountPlantParts'
p5713
sg343
(lp5714
sbasba(idelphi
DelphiCaseSelector
p5715
(dp5716
g640
Nsg5029
(lp5717
(i__main__
DelphiIdentAccess
p5718
(dp5719
g16
S'kActivityFindPartForPartID'
p5720
sg343
(lp5721
sbasba(idelphi
DelphiCaseSelector
p5722
(dp5723
g640
(i__main__
DelphiIncOrDecStatement
p5724
(dp5725
g4437
g4438
sg4439
(i__main__
DelphiIdentAccess
p5726
(dp5727
g16
S'self'
p5728
sg343
(lp5729
(idelphi
DelphiFieldEndAccess
p5730
(dp5731
g437
S'instanceSize'
p5732
sbasbsg458
(i__main__
DelphiIdentAccess
p5733
(dp5734
g16
S'traverser'
p5735
sg343
(lp5736
(idelphi
DelphiFieldEndAccess
p5737
(dp5738
g437
S'totalMemorySize'
p5739
sbasbsbsg5029
(lp5740
(i__main__
DelphiIdentAccess
p5741
(dp5742
g16
S'kActivityCountTotalMemoryUse'
p5743
sg343
(lp5744
sbasba(idelphi
DelphiCaseSelector
p5745
(dp5746
g640
Nsg5029
(lp5747
(i__main__
DelphiIdentAccess
p5748
(dp5749
g16
S'kActivityCalculateBiomassForGravity'
p5750
sg343
(lp5751
sbasba(idelphi
DelphiCaseSelector
p5752
(dp5753
g640
(idelphi
DelphiCompoundStatement
p5754
(dp5755
g416
(lp5756
(i__main__
DelphiAssignStatement
p5757
(dp5758
g420
Nsg458
(i__main__
DelphiIdentAccess
p5759
(dp5760
g16
S'self'
p5761
sg343
(lp5762
(idelphi
DelphiFieldEndAccess
p5763
(dp5764
g437
S'countPointsAndTrianglesFor3DExportAndAddToTraverserTotals'
p5765
sba(idelphi
DelphiFunctionEndAccess
p5766
(dp5767
g500
(lp5768
(i__main__
DelphiIdentAccess
p5769
(dp5770
g16
S'traverser'
p5771
sg343
(lp5772
sbasbasbsbasbsg5029
(lp5773
(i__main__
DelphiIdentAccess
p5774
(dp5775
g16
S'kActivityCountPointsAndTrianglesFor3DExport'
p5776
sg343
(lp5777
sbasbasbasg1860
(idelphi
DelphiExceptionHandlers
p5778
(dp5779
g1863
(lp5780
(idelphi
DelphiExceptionHandler
p5781
(dp5782
g1867
(i__main__
DelphiNamedType
p5783
(dp5784
g21
S'Exception'
p5785
sg73
g1
sg74
Nsbsg16
S'e'
sg640
(i__main__
DelphiAssignStatement
p5786
(dp5787
g420
Nsg458
(i__main__
DelphiIdentAccess
p5788
(dp5789
g16
S'messageForExceptionType'
p5790
sg343
(lp5791
(idelphi
DelphiFunctionEndAccess
p5792
(dp5793
g500
(lp5794
(i__main__
DelphiIdentAccess
p5795
(dp5796
g16
S'e'
sg343
(lp5797
sba(idelphi
DelphiStringAccess
p5798
(dp5799
g343
(lp5800
sg14
(idelphi
DelphiStringValue
p5801
(dp5802
g14
S'PdLeaf.traverseActivity'
p5803
sbsbasbasbsbsbasg1889
(lp5804
sbsbasbasbsg598
(lp5805
(i__main__
DelphiVarSection
p5806
(dp5807
g23
I0
sg602
(lp5808
(idelphi
DelphiVarDecl
p5809
(dp5810
g11
Nsg606
(lp5811
S'traverser'
p5812
asg18
(i__main__
DelphiNamedType
p5813
(dp5814
g21
S'PdTraverser'
p5815
sg73
g1
sg74
Nsbsba(idelphi
DelphiVarDecl
p5816
(dp5817
g11
Nsg606
(lp5818
S'propFullSizeWanted'
p5819
aS'newBiomass_pctMPB'
p5820
aS'biomassToRemove_pctMPB'
p5821
asg18
(i__main__
DelphiPrimitiveType
p5822
(dp5823
g21
g77
sbsba(idelphi
DelphiVarDecl
p5824
(dp5825
g11
Nsg606
(lp5826
S'fractionOfMaxAge_frn'
p5827
asg18
(i__main__
DelphiPrimitiveType
p5828
(dp5829
g21
g77
sbsba(idelphi
DelphiVarDecl
p5830
(dp5831
g11
Nsg606
(lp5832
S'turtle'
p5833
asg18
(i__main__
DelphiNamedType
p5834
(dp5835
g21
S'KfTurtle'
p5836
sg73
g1
sg74
NsbsbasbasbsbsS'isphytomer'
p5837
(i__main__
DelphiMethodImplementation
p5838
(dp5839
g390
g311
sg36
g313
sg44
(lp5840
sg398
(lp5841
sg400
(lp5842
sg402
(lp5843
g404
asg405
(dp5844
sg56
S'PdLeaf'
p5845
sg57
(i__main__
DelphiPrimitiveType
p5846
(dp5847
g21
g317
sbsg408
(lp5848
sg58
I0
sg59
g78
sg410
(i__main__
DelphiBlock
p5849
(dp5850
g413
(idelphi
DelphiCompoundStatement
p5851
(dp5852
g416
(lp5853
(i__main__
DelphiAssignStatement
p5854
(dp5855
g420
(i__main__
DelphiIdentAccess
p5856
(dp5857
g16
S'false'
p5858
sg343
(lp5859
sbsg458
(i__main__
DelphiIdentAccess
p5860
(dp5861
g16
S'result'
p5862
sg343
(lp5863
sbsbasbsg598
(lp5864
sbsbsS'drawcompoundleafpinnate'
p5865
(i__main__
DelphiMethodImplementation
p5866
(dp5867
g390
g319
sg36
g321
sg44
(lp5868
sg398
(lp5869
sg400
(lp5870
sg402
(lp5871
g404
asg405
(dp5872
sg56
S'PdLeaf'
p5873
sg57
Nsg408
(lp5874
sg58
I0
sg59
g60
sg410
(i__main__
DelphiBlock
p5875
(dp5876
g413
(idelphi
DelphiCompoundStatement
p5877
(dp5878
g416
(lp5879
(i__main__
DelphiAssignStatement
p5880
(dp5881
g420
(i__main__
DelphiIdentAccess
p5882
(dp5883
g16
S'plant'
p5884
sg343
(lp5885
(idelphi
DelphiFieldEndAccess
p5886
(dp5887
g437
S'turtle'
p5888
sbasbsg458
(i__main__
DelphiIdentAccess
p5889
(dp5890
g16
S'turtle'
p5891
sg343
(lp5892
sbsg463
(lp5893
S'Draw compound leaf. Use recursion structure we used to use for whole plant, with no branching.\r'
p5894
aS'    Leaflets decrease in size as you move up the leaf, simulating a gradual appearance of leaflets.\r'
p5895
aS'    Note that seedling leaves are never compound.'
p5896
asba(idelphi
DelphiIfStatement
p5897
(dp5898
g701
(idelphi
DelphiRelOp
p5899
(dp5900
g708
(i__main__
DelphiIdentAccess
p5901
(dp5902
g16
S'turtle'
p5903
sg343
(lp5904
sbsg713
(idelphi
DelphiNilValue
p5905
(dp5906
bsg716
S'='
sbsg717
Nsg718
(i__main__
DelphiExitStatement
p5907
(dp5908
g721
g5866
sbsba(idelphi
DelphiIfStatement
p5909
(dp5910
g701
(idelphi
DelphiRelOp
p5911
(dp5912
g708
(i__main__
DelphiIdentAccess
p5913
(dp5914
g16
S'plant'
p5915
sg343
(lp5916
(idelphi
DelphiFieldEndAccess
p5917
(dp5918
g437
S'pLeaf'
p5919
sba(idelphi
DelphiFieldEndAccess
p5920
(dp5921
g437
S'compoundNumLeaflets'
p5922
sbasbsg713
(idelphi
DelphiIntegerValue
p5923
(dp5924
g14
S'0'
sbsg716
g3271
sbsg717
Nsg718
(i__main__
DelphiExitStatement
p5925
(dp5926
g721
g5866
sbsba(idelphi
DelphiForStatement
p5927
(dp5928
g768
S'i'
sg769
(idelphi
DelphiIntegerValue
p5929
(dp5930
g14
S'1'
sbsg772
g773
sg48
(i__main__
DelphiIdentAccess
p5931
(dp5932
g16
S'plant'
p5933
sg343
(lp5934
(idelphi
DelphiFieldEndAccess
p5935
(dp5936
g437
S'pLeaf'
p5937
sba(idelphi
DelphiFieldEndAccess
p5938
(dp5939
g437
S'compoundNumLeaflets'
p5940
sbasbsg640
(idelphi
DelphiCompoundStatement
p5941
(dp5942
g416
(lp5943
(idelphi
DelphiIfStatement
p5944
(dp5945
g701
(idelphi
DelphiNestedExpressionListAccess
p5946
(dp5947
g343
(lp5948
sg500
(lp5949
(idelphi
DelphiRelOp
p5950
(dp5951
g708
(i__main__
DelphiIdentAccess
p5952
(dp5953
g16
S'plant'
p5954
sg343
(lp5955
(idelphi
DelphiFieldEndAccess
p5956
(dp5957
g437
S'pLeaf'
p5958
sba(idelphi
DelphiFieldEndAccess
p5959
(dp5960
g437
S'compoundPinnateLeafletArrangement'
p5961
sbasbsg713
(i__main__
DelphiIdentAccess
p5962
(dp5963
g16
S'kArrangementOpposite'
p5964
sg343
(lp5965
sbsg716
S'='
sbasbsg717
(idelphi
DelphiIfStatement
p5966
(dp5967
g701
(idelphi
DelphiNestedExpressionListAccess
p5968
(dp5969
g343
(lp5970
sg500
(lp5971
(idelphi
DelphiRelOp
p5972
(dp5973
g708
(i__main__
DelphiIdentAccess
p5974
(dp5975
g16
S'i'
sg343
(lp5976
sbsg713
(idelphi
DelphiIntegerValue
p5977
(dp5978
g14
S'1'
sbsg716
g2205
sbasbsg717
Nsg718
(i__main__
DelphiAssignStatement
p5979
(dp5980
g420
Nsg458
(i__main__
DelphiIdentAccess
p5981
(dp5982
g16
S'drawCompoundLeafInternode'
p5983
sg343
(lp5984
(idelphi
DelphiFunctionEndAccess
p5985
(dp5986
g500
(lp5987
(i__main__
DelphiIdentAccess
p5988
(dp5989
g16
S'i'
sg343
(lp5990
sbasbasbsbsbsg718
(idelphi
DelphiCompoundStatement
p5991
(dp5992
g416
(lp5993
(idelphi
DelphiIfStatement
p5994
(dp5995
g701
(idelphi
DelphiMulOp
p5996
(dp5997
g423
(idelphi
DelphiNestedExpressionListAccess
p5998
(dp5999
g343
(lp6000
sg500
(lp6001
(idelphi
DelphiRelOp
p6002
(dp6003
g708
(idelphi
DelphiMulOp
p6004
(dp6005
g423
(idelphi
DelphiIntegerValue
p6006
(dp6007
g14
S'2'
sbsg427
g1410
sg428
(i__main__
DelphiIdentAccess
p6008
(dp6009
g16
S'i'
sg343
(lp6010
sbsbsg713
(idelphi
DelphiIntegerValue
p6011
(dp6012
g14
S'1'
sbsg716
S'='
sbasbsg427
g4968
sg428
(idelphi
DelphiNestedExpressionListAccess
p6013
(dp6014
g343
(lp6015
sg500
(lp6016
(idelphi
DelphiRelOp
p6017
(dp6018
g708
(i__main__
DelphiIdentAccess
p6019
(dp6020
g16
S'i'
sg343
(lp6021
sbsg713
(idelphi
DelphiIntegerValue
p6022
(dp6023
g14
S'1'
sbsg716
g2205
sbasbsbsg717
Nsg718
(i__main__
DelphiAssignStatement
p6024
(dp6025
g420
Nsg458
(i__main__
DelphiIdentAccess
p6026
(dp6027
g16
S'drawCompoundLeafInternode'
p6028
sg343
(lp6029
(idelphi
DelphiFunctionEndAccess
p6030
(dp6031
g500
(lp6032
(i__main__
DelphiIdentAccess
p6033
(dp6034
g16
S'i'
sg343
(lp6035
sbasbasbsg463
(lp6036
S' v2 added opposite leaflets\r'
p6037
asbsbasbsba(i__main__
DelphiAssignStatement
p6038
(dp6039
g420
Nsg458
(i__main__
DelphiIdentAccess
p6040
(dp6041
g16
S'turtle'
p6042
sg343
(lp6043
(idelphi
DelphiFieldEndAccess
p6044
(dp6045
g437
S'push'
p6046
sbasbsba(i__main__
DelphiAssignStatement
p6047
(dp6048
g420
(idelphi
DelphiMulOp
p6049
(dp6050
g423
(idelphi
DelphiRealValue
p6051
(dp6052
g14
S'100.0'
p6053
sbsg427
S'/'
sg428
(idelphi
DelphiMulOp
p6054
(dp6055
g423
(i__main__
DelphiIdentAccess
p6056
(dp6057
g16
S'plant'
p6058
sg343
(lp6059
(idelphi
DelphiFieldEndAccess
p6060
(dp6061
g437
S'pLeaf'
p6062
sba(idelphi
DelphiFieldEndAccess
p6063
(dp6064
g437
S'leafTdoParams'
p6065
sba(idelphi
DelphiFieldEndAccess
p6066
(dp6067
g437
S'scaleAtFullSize'
p6068
sbasbsg427
S'*'
sg428
(i__main__
DelphiIdentAccess
p6069
(dp6070
g16
S'self'
p6071
sg343
(lp6072
(idelphi
DelphiFieldEndAccess
p6073
(dp6074
g437
S'propFullSize'
p6075
sbasbsbsbsg458
(i__main__
DelphiIdentAccess
p6076
(dp6077
g16
S'scale'
p6078
sg343
(lp6079
sbsba(i__main__
DelphiAssignStatement
p6080
(dp6081
g420
Nsg458
(i__main__
DelphiIdentAccess
p6082
(dp6083
g16
S'DrawCompoundLeafPetioletCount'
p6084
sg343
(lp6085
(idelphi
DelphiFunctionEndAccess
p6086
(dp6087
g500
(lp6088
(i__main__
DelphiIdentAccess
p6089
(dp6090
g16
S'scale'
p6091
sg343
(lp6092
sba(i__main__
DelphiIdentAccess
p6093
(dp6094
g16
S'i'
sg343
(lp6095
sbasbasbsba(i__main__
DelphiAssignStatement
p6096
(dp6097
g420
Nsg458
(i__main__
DelphiIdentAccess
p6098
(dp6099
g16
S'DrawLeafOrLeaflet'
p6100
sg343
(lp6101
(idelphi
DelphiFunctionEndAccess
p6102
(dp6103
g500
(lp6104
(i__main__
DelphiIdentAccess
p6105
(dp6106
g16
S'scale'
p6107
sg343
(lp6108
sbasbasbsba(i__main__
DelphiAssignStatement
p6109
(dp6110
g420
Nsg458
(i__main__
DelphiIdentAccess
p6111
(dp6112
g16
S'turtle'
p6113
sg343
(lp6114
(idelphi
DelphiFieldEndAccess
p6115
(dp6116
g437
S'pop'
p6117
sbasbsbasbsbasbsg598
(lp6118
(i__main__
DelphiVarSection
p6119
(dp6120
g23
I0
sg602
(lp6121
(idelphi
DelphiVarDecl
p6122
(dp6123
g11
Nsg606
(lp6124
S'turtle'
p6125
asg18
(i__main__
DelphiNamedType
p6126
(dp6127
g21
S'KfTurtle'
p6128
sg73
g1
sg74
Nsbsba(idelphi
DelphiVarDecl
p6129
(dp6130
g11
Nsg606
(lp6131
S'scale'
p6132
asg18
(i__main__
DelphiPrimitiveType
p6133
(dp6134
g21
g77
sbsba(idelphi
DelphiVarDecl
p6135
(dp6136
g11
Nsg606
(lp6137
S'i'
asg18
(i__main__
DelphiPrimitiveType
p6138
(dp6139
g21
g54
sbsbasbasbsbssS'propertyDeclarations'
p6140
(dp6141
sS'variableNamesInDeclaredOrder'
p6142
(lp6143
g33
ag35
ag31
ag29
asbasS'includedUnits'
p6144
NsS'implementationUses'
p6145
(lp6146
S'SysUtils'
p6147
aS'Dialogs'
p6148
aS'Classes'
p6149
aS'udebug'
p6150
aS'uturtle'
p6151
aS'u3dexport'
p6152
aS'uclasses'
p6153
aS'usupport'
p6154
asg36
S'uleaf'
p6155
sS'constSections'
p6156
(lp6157
g5
asS'globalsInProperCase'
p6158
NsS'interfaceUses'
p6159
(lp6160
S'delphi_compatability'
p6161
aS'WinProcs'
p6162
aS'WinTypes'
p6163
aS'Graphics'
p6164
aS'upart'
p6165
aS'uplant'
p6166
aS'umath'
p6167
aS'ufiler'
p6168
aS'utdo'
p6169
aS'utravers'
p6170
asS'finalCommentToken'
p6171
(i__main__
PassStatement
p6172
(dp6173
g598
(lp6174
sbsS'varSections'
p6175
(lp6176
sS'globals'
p6177
NsS'originalFileName'
p6178
S'../../PlantStudioInPython/converted_source/used/uleaf.pas'
p6179
sS'proceduralImplementations'
p6180
(dp6181
sS'fileName'
p6182
S'/Users/pdf/Documents/workspace/PlantStudioInPython/converted_source/used/uleaf.pas'
p6183
sS'proceduralDeclarations'
p6184
(dp6185
sS'types'
p6186
(dp6187
S'pdleaf'
p6188
g24
ssb.