(i__main__
DelphiUnit
p1
(dp2
S'sectionsInOrderDefined'
p3
(lp4
(i__main__
DelphiProceduralImplementation
p5
(dp6
S'originalDeclaration'
p7
(i__main__
DelphiProceduralDeclaration
p8
(dp9
S'formalParameters'
p10
(lp11
sS'name'
p12
S'loadPlantFileAtStartup'
p13
sS'resultType'
p14
Nsbsg12
g13
sg14
NsS'varParamIndexes'
p15
(lp16
sS'varParamsSkipped'
p17
(lp18
sS'argNames'
p19
(lp20
sS'argTypes'
p21
(dp22
sg10
(lp23
sS'varParamNames'
p24
(lp25
sS'block'
p26
(i__main__
DelphiBlock
p27
(dp28
S'compoundStatement'
p29
(idelphi
DelphiCompoundStatement
p30
(dp31
S'statements'
p32
(lp33
(i__main__
DelphiAssignStatement
p34
(dp35
S'newValueExpression'
p36
NsS'destinationExpression'
p37
(i__main__
DelphiIdentAccess
p38
(dp39
S'ident'
p40
S'cursor_startWait'
p41
sS'endAccessList'
p42
(lp43
sbsba(idelphi
DelphiTryFinallyStatement
p44
(dp45
S'tryStatements'
p46
(lp47
(idelphi
DelphiIfStatement
p48
(dp49
S'expression'
p50
(i__main__
DelphiIdentAccess
p51
(dp52
g40
S'domain'
p53
sg42
(lp54
(idelphi
DelphiFieldEndAccess
p55
(dp56
S'field'
p57
S'plantFileLoaded'
p58
sbasbsS'ifFalseStatement'
p59
(i__main__
DelphiAssignStatement
p60
(dp61
g36
Nsg37
(i__main__
DelphiIdentAccess
p62
(dp63
g40
S'MainForm'
p64
sg42
(lp65
(idelphi
DelphiFieldEndAccess
p66
(dp67
g57
S'MenuFileNewClick'
p68
sba(idelphi
DelphiFunctionEndAccess
p69
(dp70
S'expressionList'
p71
(lp72
(i__main__
DelphiIdentAccess
p73
(dp74
g40
S'MainForm'
p75
sg42
(lp76
sbasbasbsbsS'ifTrueStatement'
p77
(idelphi
DelphiCompoundStatement
p78
(dp79
g32
(lp80
(i__main__
DelphiAssignStatement
p81
(dp82
g36
Nsg37
(i__main__
DelphiIdentAccess
p83
(dp84
g40
S'startWaitMessage'
p85
sg42
(lp86
(idelphi
DelphiFunctionEndAccess
p87
(dp88
g71
(lp89
(idelphi
DelphiStringAccess
p90
(dp91
g42
(lp92
sS'string'
p93
(idelphi
DelphiStringValue
p94
(dp95
g93
S'Drawing...'
p96
sbsbasbasbsS'commentLinesBefore'
p97
(lp98
S' if file loaded at startup, update for it, else act as if they picked new '
p99
asba(idelphi
DelphiTryFinallyStatement
p100
(dp101
g46
(lp102
(i__main__
DelphiAssignStatement
p103
(dp104
g36
Nsg37
(i__main__
DelphiIdentAccess
p105
(dp106
g40
S'MainForm'
p107
sg42
(lp108
(idelphi
DelphiFieldEndAccess
p109
(dp110
g57
S'updateForPlantFile'
p111
sbasbsbasS'finallyStatements'
p112
(lp113
(i__main__
DelphiAssignStatement
p114
(dp115
g36
Nsg37
(i__main__
DelphiIdentAccess
p116
(dp117
g40
S'stopWaitMessage'
p118
sg42
(lp119
sbsbasbasbsba(idelphi
DelphiIfStatement
p120
(dp121
g50
(idelphi
DelphiRelOp
p122
(dp123
S'simpleExpression1'
p124
(i__main__
DelphiIdentAccess
p125
(dp126
g40
S'splashForm'
p127
sg42
(lp128
sbsS'simpleExpression2'
p129
(idelphi
DelphiNilValue
p130
(dp131
bsS'relOp'
p132
S'<>'
p133
sbsg59
Nsg77
(i__main__
DelphiAssignStatement
p134
(dp135
g36
Nsg37
(i__main__
DelphiIdentAccess
p136
(dp137
g40
S'splashForm'
p138
sg42
(lp139
(idelphi
DelphiFieldEndAccess
p140
(dp141
g57
S'hide'
p142
sbasbsbsba(i__main__
DelphiAssignStatement
p143
(dp144
g36
Nsg37
(i__main__
DelphiIdentAccess
p145
(dp146
g40
S'MainForm'
p147
sg42
(lp148
(idelphi
DelphiFieldEndAccess
p149
(dp150
g57
S'updateForChangeToDomainOptions'
p151
sbasbsba(i__main__
DelphiAssignStatement
p152
(dp153
g36
Nsg37
(i__main__
DelphiIdentAccess
p154
(dp155
g40
S'MainForm'
p156
sg42
(lp157
(idelphi
DelphiFieldEndAccess
p158
(dp159
g57
S'updateFileMenuForOtherRecentFiles'
p160
sbasbsba(i__main__
DelphiAssignStatement
p161
(dp162
g36
(idelphi
DelphiSign
p163
(dp164
S'factor'
p165
(idelphi
DelphiIntegerValue
p166
(dp167
g93
S'1'
sbsS'sign'
p168
S'-'
sbsg37
(i__main__
DelphiIdentAccess
p169
(dp170
g40
S'MainForm'
p171
sg42
(lp172
(idelphi
DelphiFieldEndAccess
p173
(dp174
g57
S'selectedPlantPartID'
p175
sbasbsba(i__main__
DelphiAssignStatement
p176
(dp177
g36
(i__main__
DelphiIdentAccess
p178
(dp179
g40
S'false'
p180
sg42
(lp181
sbsg37
(i__main__
DelphiIdentAccess
p182
(dp183
g40
S'MainForm'
p184
sg42
(lp185
(idelphi
DelphiFieldEndAccess
p186
(dp187
g57
S'inFormCreation'
p188
sbasbsbasg112
(lp189
(i__main__
DelphiAssignStatement
p190
(dp191
g36
Nsg37
(i__main__
DelphiIdentAccess
p192
(dp193
g40
S'cursor_stopWait'
p194
sg42
(lp195
sbsbasbasbsS'limitedDeclSectionList'
p196
(lp197
sbsbasS'includedUnits'
p198
NsS'implementationUses'
p199
(lp200
S'umain'
p201
aS'usupport'
p202
aS'ucursor'
p203
aS'udomain'
p204
aS'uwait'
p205
aS'usplash'
p206
asg12
S'umainsupport'
p207
sS'constSections'
p208
(lp209
sS'globalsInProperCase'
p210
NsS'interfaceUses'
p211
(lp212
S'delphi_compatability'
p213
asS'finalCommentToken'
p214
(i__main__
PassStatement
p215
(dp216
g196
(lp217
sbsS'varSections'
p218
(lp219
sS'globals'
p220
NsS'originalFileName'
p221
S'../../PlantStudioInPython/converted_source/used/umainsupport.pas'
p222
sS'proceduralImplementations'
p223
(dp224
S'loadplantfileatstartup'
p225
g5
ssS'fileName'
p226
S'/Users/pdf/Documents/workspace/PlantStudioInPython/converted_source/used/umainsupport.pas'
p227
sS'proceduralDeclarations'
p228
(dp229
S'loadplantfileatstartup'
p230
g8
ssS'types'
p231
(dp232
sb.