(i__main__
DelphiUnit
p1
(dp2
S'sectionsInOrderDefined'
p3
(lp4
(i__main__
DelphiRecord
p5
(dp6
S'variableNamesInDeclaredOrder'
p7
(lp8
S'x1'
p9
aS'y1'
p10
aS'x2'
p11
aS'y2'
p12
aS'c1'
p13
aS'c2'
p14
asS'variableNamesInProperCase'
p15
(dp16
S'y2'
p17
g12
sS'x2'
p18
g11
sS'y1'
p19
g10
sS'c2'
p20
g14
sS'c1'
p21
g13
sS'x1'
p22
g9
ssS'name'
p23
S'SCurveStructure'
p24
sS'variableNames'
p25
(dp26
S'y2'
p27
(i__main__
DelphiPrimitiveType
p28
(dp29
S'typeName'
p30
S'single'
p31
sbsS'x2'
p32
(i__main__
DelphiPrimitiveType
p33
(dp34
g30
g31
sbsS'y1'
p35
(i__main__
DelphiPrimitiveType
p36
(dp37
g30
g31
sbsS'c2'
p38
(i__main__
DelphiPrimitiveType
p39
(dp40
g30
g31
sbsS'c1'
p41
(i__main__
DelphiPrimitiveType
p42
(dp43
g30
g31
sbsS'x1'
p44
(i__main__
DelphiPrimitiveType
p45
(dp46
g30
g31
sbssba(i__main__
DelphiConstSection
p47
(dp48
S'constDeclList'
p49
(lp50
(idelphi
DelphiConstDeclaration
p51
(dp52
S'constExpression'
p53
(idelphi
DelphiRealValue
p54
(dp55
S'string'
p56
S'3.141596'
p57
sbsS'ident'
p58
S'kPi'
p59
sS'theType'
p60
(idelphi
DelphiPrimitiveType
p61
(dp62
g30
S'UNDEFINED_NEEDS_CALCULATION'
p63
sbsba(idelphi
DelphiConstDeclaration
p64
(dp65
g53
(idelphi
DelphiRealValue
p66
(dp67
g56
S'10e-12'
p68
sbsg58
S'kLowestFloatAboveZero'
p69
sg60
(idelphi
DelphiPrimitiveType
p70
(dp71
g30
g63
sbsba(idelphi
DelphiConstDeclaration
p72
(dp73
g53
(idelphi
DelphiRealValue
p74
(dp75
g56
S'10e-6'
p76
sbsg58
S'kLowestQuantityFloat'
p77
sg60
(idelphi
DelphiPrimitiveType
p78
(dp79
g30
g63
sbsbasS'atTopLevel'
p80
I1
sba(i__main__
DelphiConstSection
p81
(dp82
g49
(lp83
(idelphi
DelphiConstDeclaration
p84
(dp85
g53
(idelphi
DelphiIntegerValue
p86
(dp87
g56
S'0'
sbsg58
S'kGetField'
p88
sg60
(idelphi
DelphiPrimitiveType
p89
(dp90
g30
g63
sbsba(idelphi
DelphiConstDeclaration
p91
(dp92
g53
(idelphi
DelphiIntegerValue
p93
(dp94
g56
S'1'
sbsg58
S'kSetField'
p95
sg60
(idelphi
DelphiPrimitiveType
p96
(dp97
g30
g63
sbsbasg80
I1
sba(i__main__
DelphiProceduralImplementation
p98
(dp99
S'originalDeclaration'
p100
(i__main__
DelphiProceduralDeclaration
p101
(dp102
S'formalParameters'
p103
(lp104
(i__main__
DelphiFormalParameter
p105
(dp106
S'initialValue'
p107
NsS'names'
p108
(lp109
S'errorString'
p110
asg60
(i__main__
DelphiPrimitiveType
p111
(dp112
g30
g56
sbsS'parameterVariety'
p113
NsbasS'commentLinesBefore'
p114
(lp115
S'returns zero for convenience'
p116
aS"these consts are really defined in uplant.pas but we don't want to include it - keep current"
p117
aS' error message - returns zero for convenience'
p118
asg23
S'ErrorMessage'
p119
sS'resultType'
p120
(i__main__
DelphiPrimitiveType
p121
(dp122
g30
g31
sbsbsg23
g119
sg120
(i__main__
DelphiPrimitiveType
p123
(dp124
g30
g31
sbsS'varParamIndexes'
p125
(lp126
sS'varParamsSkipped'
p127
(lp128
sS'argNames'
p129
(lp130
S'errorString'
p131
asS'argTypes'
p132
(dp133
g131
(i__main__
DelphiPrimitiveType
p134
(dp135
g30
g56
sbssg103
(lp136
(i__main__
DelphiFormalParameter
p137
(dp138
g107
Nsg108
(lp139
g131
asg60
g134
sg113
NsbasS'varParamNames'
p140
(lp141
sS'block'
p142
(i__main__
DelphiBlock
p143
(dp144
S'compoundStatement'
p145
(idelphi
DelphiCompoundStatement
p146
(dp147
S'statements'
p148
(lp149
(i__main__
DelphiAssignStatement
p150
(dp151
S'newValueExpression'
p152
(idelphi
DelphiRealValue
p153
(dp154
g56
S'0.0'
p155
sbsS'destinationExpression'
p156
(i__main__
DelphiIdentAccess
p157
(dp158
g58
S'result'
p159
sS'endAccessList'
p160
(lp161
sbsba(i__main__
DelphiAssignStatement
p162
(dp163
g152
Nsg156
(i__main__
DelphiIdentAccess
p164
(dp165
g58
S'DebugPrint'
p166
sg160
(lp167
(idelphi
DelphiFunctionEndAccess
p168
(dp169
S'expressionList'
p170
(lp171
(i__main__
DelphiIdentAccess
p172
(dp173
g58
S'errorString'
p174
sg160
(lp175
sbasbasbsbasbsS'limitedDeclSectionList'
p176
(lp177
sbsg114
g115
sba(i__main__
DelphiProceduralImplementation
p178
(dp179
g100
(i__main__
DelphiProceduralDeclaration
p180
(dp181
g103
(lp182
(i__main__
DelphiFormalParameter
p183
(dp184
g107
Nsg108
(lp185
S'x'
asg60
(i__main__
DelphiPrimitiveType
p186
(dp187
g30
g31
sbsg113
Nsbasg23
S'sqr'
p188
sg120
(i__main__
DelphiPrimitiveType
p189
(dp190
g30
g31
sbsbsg23
g188
sg120
(i__main__
DelphiPrimitiveType
p191
(dp192
g30
g31
sbsg125
(lp193
sg127
(lp194
sg129
(lp195
S'x'
asg132
(dp196
S'x'
(i__main__
DelphiPrimitiveType
p197
(dp198
g30
g31
sbssg103
(lp199
(i__main__
DelphiFormalParameter
p200
(dp201
g107
Nsg108
(lp202
S'x'
asg60
g197
sg113
Nsbasg140
(lp203
sg142
(i__main__
DelphiBlock
p204
(dp205
g145
(idelphi
DelphiCompoundStatement
p206
(dp207
g148
(lp208
(i__main__
DelphiAssignStatement
p209
(dp210
g152
(idelphi
DelphiMulOp
p211
(dp212
S'signedFactor2'
p213
(i__main__
DelphiIdentAccess
p214
(dp215
g58
S'x'
sg160
(lp216
sbsS'mulOp'
p217
S'*'
sS'signedFactor1'
p218
(i__main__
DelphiIdentAccess
p219
(dp220
g58
S'x'
sg160
(lp221
sbsbsg156
(i__main__
DelphiIdentAccess
p222
(dp223
g58
S'result'
p224
sg160
(lp225
sbsbasbsg176
(lp226
sbsg114
(lp227
S' ---------------------------------------------------------------------------------------------- math functions '
p228
asba(i__main__
DelphiProceduralImplementation
p229
(dp230
g100
(i__main__
DelphiProceduralDeclaration
p231
(dp232
g103
(lp233
(i__main__
DelphiFormalParameter
p234
(dp235
g107
Nsg108
(lp236
S'a'
asg60
(i__main__
DelphiPrimitiveType
p237
(dp238
g30
g31
sbsg113
Nsba(i__main__
DelphiFormalParameter
p239
(dp240
g107
Nsg108
(lp241
S'b'
asg60
(i__main__
DelphiPrimitiveType
p242
(dp243
g30
g31
sbsg113
Nsbasg23
S'min'
p244
sg120
(i__main__
DelphiPrimitiveType
p245
(dp246
g30
g31
sbsbsg23
g244
sg120
(i__main__
DelphiPrimitiveType
p247
(dp248
g30
g31
sbsg125
(lp249
sg127
(lp250
sg129
(lp251
S'a'
aS'b'
asg132
(dp252
S'a'
(i__main__
DelphiPrimitiveType
p253
(dp254
g30
g31
sbsS'b'
(i__main__
DelphiPrimitiveType
p255
(dp256
g30
g31
sbssg103
(lp257
(i__main__
DelphiFormalParameter
p258
(dp259
g107
Nsg108
(lp260
S'a'
asg60
g253
sg113
Nsba(i__main__
DelphiFormalParameter
p261
(dp262
g107
Nsg108
(lp263
S'b'
asg60
g255
sg113
Nsbasg140
(lp264
sg142
(i__main__
DelphiBlock
p265
(dp266
g145
(idelphi
DelphiCompoundStatement
p267
(dp268
g148
(lp269
(idelphi
DelphiIfStatement
p270
(dp271
S'expression'
p272
(idelphi
DelphiNestedExpressionListAccess
p273
(dp274
g160
(lp275
sg170
(lp276
(idelphi
DelphiRelOp
p277
(dp278
S'simpleExpression1'
p279
(i__main__
DelphiIdentAccess
p280
(dp281
g58
S'a'
sg160
(lp282
sbsS'simpleExpression2'
p283
(i__main__
DelphiIdentAccess
p284
(dp285
g58
S'b'
sg160
(lp286
sbsS'relOp'
p287
S'<'
sbasbsS'ifFalseStatement'
p288
(i__main__
DelphiAssignStatement
p289
(dp290
g152
(i__main__
DelphiIdentAccess
p291
(dp292
g58
S'b'
sg160
(lp293
sbsg156
(i__main__
DelphiIdentAccess
p294
(dp295
g58
S'result'
p296
sg160
(lp297
sbsbsS'ifTrueStatement'
p298
(i__main__
DelphiAssignStatement
p299
(dp300
g152
(i__main__
DelphiIdentAccess
p301
(dp302
g58
S'a'
sg160
(lp303
sbsg156
(i__main__
DelphiIdentAccess
p304
(dp305
g58
S'result'
p306
sg160
(lp307
sbsbsbasbsg176
(lp308
sbsba(i__main__
DelphiProceduralImplementation
p309
(dp310
g100
(i__main__
DelphiProceduralDeclaration
p311
(dp312
g103
(lp313
(i__main__
DelphiFormalParameter
p314
(dp315
g107
Nsg108
(lp316
S'a'
asg60
(i__main__
DelphiPrimitiveType
p317
(dp318
g30
g31
sbsg113
Nsba(i__main__
DelphiFormalParameter
p319
(dp320
g107
Nsg108
(lp321
S'b'
asg60
(i__main__
DelphiPrimitiveType
p322
(dp323
g30
g31
sbsg113
Nsbasg23
S'max'
p324
sg120
(i__main__
DelphiPrimitiveType
p325
(dp326
g30
g31
sbsbsg23
g324
sg120
(i__main__
DelphiPrimitiveType
p327
(dp328
g30
g31
sbsg125
(lp329
sg127
(lp330
sg129
(lp331
S'a'
aS'b'
asg132
(dp332
S'a'
(i__main__
DelphiPrimitiveType
p333
(dp334
g30
g31
sbsS'b'
(i__main__
DelphiPrimitiveType
p335
(dp336
g30
g31
sbssg103
(lp337
(i__main__
DelphiFormalParameter
p338
(dp339
g107
Nsg108
(lp340
S'a'
asg60
g333
sg113
Nsba(i__main__
DelphiFormalParameter
p341
(dp342
g107
Nsg108
(lp343
S'b'
asg60
g335
sg113
Nsbasg140
(lp344
sg142
(i__main__
DelphiBlock
p345
(dp346
g145
(idelphi
DelphiCompoundStatement
p347
(dp348
g148
(lp349
(idelphi
DelphiIfStatement
p350
(dp351
g272
(idelphi
DelphiNestedExpressionListAccess
p352
(dp353
g160
(lp354
sg170
(lp355
(idelphi
DelphiRelOp
p356
(dp357
g279
(i__main__
DelphiIdentAccess
p358
(dp359
g58
S'a'
sg160
(lp360
sbsg283
(i__main__
DelphiIdentAccess
p361
(dp362
g58
S'b'
sg160
(lp363
sbsg287
S'>'
sbasbsg288
(i__main__
DelphiAssignStatement
p364
(dp365
g152
(i__main__
DelphiIdentAccess
p366
(dp367
g58
S'b'
sg160
(lp368
sbsg156
(i__main__
DelphiIdentAccess
p369
(dp370
g58
S'result'
p371
sg160
(lp372
sbsbsg298
(i__main__
DelphiAssignStatement
p373
(dp374
g152
(i__main__
DelphiIdentAccess
p375
(dp376
g58
S'a'
sg160
(lp377
sbsg156
(i__main__
DelphiIdentAccess
p378
(dp379
g58
S'result'
p380
sg160
(lp381
sbsbsbasbsg176
(lp382
sbsba(i__main__
DelphiProceduralImplementation
p383
(dp384
g100
(i__main__
DelphiProceduralDeclaration
p385
(dp386
g103
(lp387
(i__main__
DelphiFormalParameter
p388
(dp389
g107
Nsg108
(lp390
S'a'
asg60
(i__main__
DelphiPrimitiveType
p391
(dp392
g30
S'integer'
p393
sbsg113
Nsba(i__main__
DelphiFormalParameter
p394
(dp395
g107
Nsg108
(lp396
S'b'
asg60
(i__main__
DelphiPrimitiveType
p397
(dp398
g30
g393
sbsg113
Nsbasg23
S'intMin'
p399
sg120
(i__main__
DelphiPrimitiveType
p400
(dp401
g30
g393
sbsbsg23
g399
sg120
(i__main__
DelphiPrimitiveType
p402
(dp403
g30
g393
sbsg125
(lp404
sg127
(lp405
sg129
(lp406
S'a'
aS'b'
asg132
(dp407
S'a'
(i__main__
DelphiPrimitiveType
p408
(dp409
g30
g393
sbsS'b'
(i__main__
DelphiPrimitiveType
p410
(dp411
g30
g393
sbssg103
(lp412
(i__main__
DelphiFormalParameter
p413
(dp414
g107
Nsg108
(lp415
S'a'
asg60
g408
sg113
Nsba(i__main__
DelphiFormalParameter
p416
(dp417
g107
Nsg108
(lp418
S'b'
asg60
g410
sg113
Nsbasg140
(lp419
sg142
(i__main__
DelphiBlock
p420
(dp421
g145
(idelphi
DelphiCompoundStatement
p422
(dp423
g148
(lp424
(idelphi
DelphiIfStatement
p425
(dp426
g272
(idelphi
DelphiNestedExpressionListAccess
p427
(dp428
g160
(lp429
sg170
(lp430
(idelphi
DelphiRelOp
p431
(dp432
g279
(i__main__
DelphiIdentAccess
p433
(dp434
g58
S'a'
sg160
(lp435
sbsg283
(i__main__
DelphiIdentAccess
p436
(dp437
g58
S'b'
sg160
(lp438
sbsg287
S'<'
sbasbsg288
(i__main__
DelphiAssignStatement
p439
(dp440
g152
(i__main__
DelphiIdentAccess
p441
(dp442
g58
S'b'
sg160
(lp443
sbsg156
(i__main__
DelphiIdentAccess
p444
(dp445
g58
S'result'
p446
sg160
(lp447
sbsbsg298
(i__main__
DelphiAssignStatement
p448
(dp449
g152
(i__main__
DelphiIdentAccess
p450
(dp451
g58
S'a'
sg160
(lp452
sbsg156
(i__main__
DelphiIdentAccess
p453
(dp454
g58
S'result'
p455
sg160
(lp456
sbsbsbasbsg176
(lp457
sbsba(i__main__
DelphiProceduralImplementation
p458
(dp459
g100
(i__main__
DelphiProceduralDeclaration
p460
(dp461
g103
(lp462
(i__main__
DelphiFormalParameter
p463
(dp464
g107
Nsg108
(lp465
S'a'
asg60
(i__main__
DelphiPrimitiveType
p466
(dp467
g30
g393
sbsg113
Nsba(i__main__
DelphiFormalParameter
p468
(dp469
g107
Nsg108
(lp470
S'b'
asg60
(i__main__
DelphiPrimitiveType
p471
(dp472
g30
g393
sbsg113
Nsbasg23
S'intMax'
p473
sg120
(i__main__
DelphiPrimitiveType
p474
(dp475
g30
g393
sbsbsg23
g473
sg120
(i__main__
DelphiPrimitiveType
p476
(dp477
g30
g393
sbsg125
(lp478
sg127
(lp479
sg129
(lp480
S'a'
aS'b'
asg132
(dp481
S'a'
(i__main__
DelphiPrimitiveType
p482
(dp483
g30
g393
sbsS'b'
(i__main__
DelphiPrimitiveType
p484
(dp485
g30
g393
sbssg103
(lp486
(i__main__
DelphiFormalParameter
p487
(dp488
g107
Nsg108
(lp489
S'a'
asg60
g482
sg113
Nsba(i__main__
DelphiFormalParameter
p490
(dp491
g107
Nsg108
(lp492
S'b'
asg60
g484
sg113
Nsbasg140
(lp493
sg142
(i__main__
DelphiBlock
p494
(dp495
g145
(idelphi
DelphiCompoundStatement
p496
(dp497
g148
(lp498
(idelphi
DelphiIfStatement
p499
(dp500
g272
(idelphi
DelphiNestedExpressionListAccess
p501
(dp502
g160
(lp503
sg170
(lp504
(idelphi
DelphiRelOp
p505
(dp506
g279
(i__main__
DelphiIdentAccess
p507
(dp508
g58
S'a'
sg160
(lp509
sbsg283
(i__main__
DelphiIdentAccess
p510
(dp511
g58
S'b'
sg160
(lp512
sbsg287
S'>'
sbasbsg288
(i__main__
DelphiAssignStatement
p513
(dp514
g152
(i__main__
DelphiIdentAccess
p515
(dp516
g58
S'b'
sg160
(lp517
sbsg156
(i__main__
DelphiIdentAccess
p518
(dp519
g58
S'result'
p520
sg160
(lp521
sbsbsg298
(i__main__
DelphiAssignStatement
p522
(dp523
g152
(i__main__
DelphiIdentAccess
p524
(dp525
g58
S'a'
sg160
(lp526
sbsg156
(i__main__
DelphiIdentAccess
p527
(dp528
g58
S'result'
p529
sg160
(lp530
sbsbsbasbsg176
(lp531
sbsba(i__main__
DelphiProceduralImplementation
p532
(dp533
g100
(i__main__
DelphiProceduralDeclaration
p534
(dp535
g103
(lp536
(i__main__
DelphiFormalParameter
p537
(dp538
g107
Nsg108
(lp539
S'number'
p540
asg60
(i__main__
DelphiPrimitiveType
p541
(dp542
g30
S'extended'
p543
sbsg113
Nsba(i__main__
DelphiFormalParameter
p544
(dp545
g107
Nsg108
(lp546
S'exponent'
p547
asg60
(i__main__
DelphiPrimitiveType
p548
(dp549
g30
g543
sbsg113
Nsbasg23
S'pow'
p550
sg120
(i__main__
DelphiPrimitiveType
p551
(dp552
g30
g543
sbsbsg23
g550
sg120
(i__main__
DelphiPrimitiveType
p553
(dp554
g30
g543
sbsg125
(lp555
sg127
(lp556
sg129
(lp557
S'number'
p558
aS'exponent'
p559
asg132
(dp560
g558
(i__main__
DelphiPrimitiveType
p561
(dp562
g30
g543
sbsg559
(i__main__
DelphiPrimitiveType
p563
(dp564
g30
g543
sbssg103
(lp565
(i__main__
DelphiFormalParameter
p566
(dp567
g107
Nsg108
(lp568
g558
asg60
g561
sg113
Nsba(i__main__
DelphiFormalParameter
p569
(dp570
g107
Nsg108
(lp571
g559
asg60
g563
sg113
Nsbasg140
(lp572
sg142
(i__main__
DelphiBlock
p573
(dp574
g145
(idelphi
DelphiCompoundStatement
p575
(dp576
g148
(lp577
(idelphi
DelphiTryExceptStatement
p578
(dp579
S'tryStatements'
p580
(lp581
(i__main__
DelphiAssignStatement
p582
(dp583
g152
(i__main__
DelphiIdentAccess
p584
(dp585
g58
S'safeExp'
p586
sg160
(lp587
(idelphi
DelphiFunctionEndAccess
p588
(dp589
g170
(lp590
(idelphi
DelphiMulOp
p591
(dp592
g213
(i__main__
DelphiIdentAccess
p593
(dp594
g58
S'safeLn'
p595
sg160
(lp596
(idelphi
DelphiFunctionEndAccess
p597
(dp598
g170
(lp599
(i__main__
DelphiIdentAccess
p600
(dp601
g58
S'number'
p602
sg160
(lp603
sbasbasbsg217
S'*'
sg218
(i__main__
DelphiIdentAccess
p604
(dp605
g58
S'exponent'
p606
sg160
(lp607
sbsbasbasbsg156
(i__main__
DelphiIdentAccess
p608
(dp609
g58
S'result'
p610
sg160
(lp611
sbsbasS'exceptionHandlers'
p612
(idelphi
DelphiExceptionHandlers
p613
(dp614
S'exceptionHandlerList'
p615
NsS'statementList'
p616
(lp617
(i__main__
DelphiAssignStatement
p618
(dp619
g152
Nsg156
(i__main__
DelphiIdentAccess
p620
(dp621
g58
S'ErrorMessage'
p622
sg160
(lp623
(idelphi
DelphiFunctionEndAccess
p624
(dp625
g170
(lp626
(idelphi
DelphiAddOp
p627
(dp628
S'addOp'
p629
S'+'
sS'term2'
p630
(i__main__
DelphiIdentAccess
p631
(dp632
g58
S'floatToStr'
p633
sg160
(lp634
(idelphi
DelphiFunctionEndAccess
p635
(dp636
g170
(lp637
(i__main__
DelphiIdentAccess
p638
(dp639
g58
S'exponent'
p640
sg160
(lp641
sbasbasbsS'term1'
p642
(idelphi
DelphiAddOp
p643
(dp644
g629
S'+'
sg630
(idelphi
DelphiStringAccess
p645
(dp646
g160
(lp647
sg56
(idelphi
DelphiStringValue
p648
(dp649
g56
S' to the power '
p650
sbsbsg642
(idelphi
DelphiAddOp
p651
(dp652
g629
S'+'
sg630
(i__main__
DelphiIdentAccess
p653
(dp654
g58
S'floatToStr'
p655
sg160
(lp656
(idelphi
DelphiFunctionEndAccess
p657
(dp658
g170
(lp659
(i__main__
DelphiIdentAccess
p660
(dp661
g58
S'number'
p662
sg160
(lp663
sbasbasbsg642
(idelphi
DelphiStringAccess
p664
(dp665
g160
(lp666
sg56
(idelphi
DelphiStringValue
p667
(dp668
g56
S'Invalid number for power function: '
p669
sbsbsbsbsbasbasbsba(i__main__
DelphiAssignStatement
p670
(dp671
g152
(idelphi
DelphiRealValue
p672
(dp673
g56
S'1.0'
p674
sbsg156
(i__main__
DelphiIdentAccess
p675
(dp676
g58
S'result'
p677
sg160
(lp678
sbsba(idelphi
DelphiRaiseStatement
p679
(dp680
g272
Nsbasbsbasbsg176
(lp681
sbsg114
(lp682
S' RE-RAISES EXCEPTION '
p683
asba(i__main__
DelphiProceduralImplementation
p684
(dp685
g100
(i__main__
DelphiProceduralDeclaration
p686
(dp687
g103
(lp688
(i__main__
DelphiFormalParameter
p689
(dp690
g107
Nsg108
(lp691
S'number'
p692
asg60
(i__main__
DelphiPrimitiveType
p693
(dp694
g30
g543
sbsg113
Nsba(i__main__
DelphiFormalParameter
p695
(dp696
g107
Nsg108
(lp697
S'exponent'
p698
asg60
(i__main__
DelphiPrimitiveType
p699
(dp700
g30
g543
sbsg113
Nsbasg23
S'power'
p701
sg120
(i__main__
DelphiPrimitiveType
p702
(dp703
g30
g543
sbsbsg23
g701
sg120
(i__main__
DelphiPrimitiveType
p704
(dp705
g30
g543
sbsg125
(lp706
sg127
(lp707
sg129
(lp708
S'number'
p709
aS'exponent'
p710
asg132
(dp711
g709
(i__main__
DelphiPrimitiveType
p712
(dp713
g30
g543
sbsg710
(i__main__
DelphiPrimitiveType
p714
(dp715
g30
g543
sbssg103
(lp716
(i__main__
DelphiFormalParameter
p717
(dp718
g107
Nsg108
(lp719
g709
asg60
g712
sg113
Nsba(i__main__
DelphiFormalParameter
p720
(dp721
g107
Nsg108
(lp722
g710
asg60
g714
sg113
Nsbasg140
(lp723
sg142
(i__main__
DelphiBlock
p724
(dp725
g145
(idelphi
DelphiCompoundStatement
p726
(dp727
g148
(lp728
(idelphi
DelphiTryExceptStatement
p729
(dp730
g580
(lp731
(idelphi
DelphiIfStatement
p732
(dp733
g272
(idelphi
DelphiNestedExpressionListAccess
p734
(dp735
g160
(lp736
sg170
(lp737
(idelphi
DelphiRelOp
p738
(dp739
g279
(i__main__
DelphiIdentAccess
p740
(dp741
g58
S'number'
p742
sg160
(lp743
sbsg283
(idelphi
DelphiRealValue
p744
(dp745
g56
S'0.0'
p746
sbsg287
S'>'
sbasbsg288
(idelphi
DelphiIfStatement
p747
(dp748
g272
(idelphi
DelphiNestedExpressionListAccess
p749
(dp750
g160
(lp751
sg170
(lp752
(idelphi
DelphiRelOp
p753
(dp754
g279
(i__main__
DelphiIdentAccess
p755
(dp756
g58
S'number'
p757
sg160
(lp758
sbsg283
(idelphi
DelphiRealValue
p759
(dp760
g56
S'0.0'
p761
sbsg287
S'='
sbasbsg288
(idelphi
DelphiCompoundStatement
p762
(dp763
g148
(lp764
(i__main__
DelphiAssignStatement
p765
(dp766
g152
(idelphi
DelphiRealValue
p767
(dp768
g56
S'0.0'
p769
sbsg156
(i__main__
DelphiIdentAccess
p770
(dp771
g58
S'result'
p772
sg160
(lp773
sbsba(idelphi
DelphiRaiseStatement
p774
(dp775
g272
(i__main__
DelphiIdentAccess
p776
(dp777
g58
S'Exception'
p778
sg160
(lp779
(idelphi
DelphiFieldEndAccess
p780
(dp781
S'field'
p782
S'create'
p783
sba(idelphi
DelphiFunctionEndAccess
p784
(dp785
g170
(lp786
(idelphi
DelphiAddOp
p787
(dp788
g629
S'+'
sg630
(i__main__
DelphiIdentAccess
p789
(dp790
g58
S'floatToStr'
p791
sg160
(lp792
(idelphi
DelphiFunctionEndAccess
p793
(dp794
g170
(lp795
(i__main__
DelphiIdentAccess
p796
(dp797
g58
S'exponent'
p798
sg160
(lp799
sbasbasbsg642
(idelphi
DelphiAddOp
p800
(dp801
g629
S'+'
sg630
(idelphi
DelphiStringAccess
p802
(dp803
g160
(lp804
sg56
(idelphi
DelphiStringValue
p805
(dp806
g56
S' to '
p807
sbsbsg642
(idelphi
DelphiAddOp
p808
(dp809
g629
S'+'
sg630
(i__main__
DelphiIdentAccess
p810
(dp811
g58
S'floatToStr'
p812
sg160
(lp813
(idelphi
DelphiFunctionEndAccess
p814
(dp815
g170
(lp816
(i__main__
DelphiIdentAccess
p817
(dp818
g58
S'number'
p819
sg160
(lp820
sbasbasbsg642
(idelphi
DelphiStringAccess
p821
(dp822
g160
(lp823
sg56
(idelphi
DelphiStringValue
p824
(dp825
g56
S'Problem: Negative number to non-integer power: '
p826
sbsbsbsbsbasbasbsbasbsg298
(idelphi
DelphiCompoundStatement
p827
(dp828
g148
(lp829
(idelphi
DelphiIfStatement
p830
(dp831
g272
(idelphi
DelphiRelOp
p832
(dp833
g279
(i__main__
DelphiIdentAccess
p834
(dp835
g58
S'exponent'
p836
sg160
(lp837
sbsg283
(idelphi
DelphiRealValue
p838
(dp839
g56
S'0.0'
p840
sbsg287
S'='
sbsg288
(i__main__
DelphiAssignStatement
p841
(dp842
g152
(idelphi
DelphiRealValue
p843
(dp844
g56
S'0.0'
p845
sbsg156
(i__main__
DelphiIdentAccess
p846
(dp847
g58
S'result'
p848
sg160
(lp849
sbsbsg298
(idelphi
DelphiCompoundStatement
p850
(dp851
g148
(lp852
(i__main__
DelphiAssignStatement
p853
(dp854
g152
(idelphi
DelphiRealValue
p855
(dp856
g56
S'1.0'
p857
sbsg156
(i__main__
DelphiIdentAccess
p858
(dp859
g58
S'result'
p860
sg160
(lp861
sbsba(idelphi
DelphiRaiseStatement
p862
(dp863
g272
(i__main__
DelphiIdentAccess
p864
(dp865
g58
S'Exception'
p866
sg160
(lp867
(idelphi
DelphiFieldEndAccess
p868
(dp869
g782
S'create'
p870
sba(idelphi
DelphiFunctionEndAccess
p871
(dp872
g170
(lp873
(idelphi
DelphiStringAccess
p874
(dp875
g160
(lp876
sg56
(idelphi
DelphiStringValue
p877
(dp878
g56
S'Problem: Zero raised to zero power.'
p879
sbsbasbasbsbasbsbasbsbsg298
(i__main__
DelphiAssignStatement
p880
(dp881
g152
(i__main__
DelphiIdentAccess
p882
(dp883
g58
S'pow'
p884
sg160
(lp885
(idelphi
DelphiFunctionEndAccess
p886
(dp887
g170
(lp888
(i__main__
DelphiIdentAccess
p889
(dp890
g58
S'number'
p891
sg160
(lp892
sba(i__main__
DelphiIdentAccess
p893
(dp894
g58
S'exponent'
p895
sg160
(lp896
sbasbasbsg156
(i__main__
DelphiIdentAccess
p897
(dp898
g58
S'result'
p899
sg160
(lp900
sbsbsbasg612
(idelphi
DelphiExceptionHandlers
p901
(dp902
g615
Nsg616
(lp903
(i__main__
DelphiAssignStatement
p904
(dp905
g152
(i__main__
DelphiIdentAccess
p906
(dp907
g58
S'errorMessage'
p908
sg160
(lp909
(idelphi
DelphiFunctionEndAccess
p910
(dp911
g170
(lp912
(idelphi
DelphiAddOp
p913
(dp914
g629
S'+'
sg630
(i__main__
DelphiIdentAccess
p915
(dp916
g58
S'floatToStr'
p917
sg160
(lp918
(idelphi
DelphiFunctionEndAccess
p919
(dp920
g170
(lp921
(i__main__
DelphiIdentAccess
p922
(dp923
g58
S'exponent'
p924
sg160
(lp925
sbasbasbsg642
(idelphi
DelphiAddOp
p926
(dp927
g629
S'+'
sg630
(idelphi
DelphiStringAccess
p928
(dp929
g160
(lp930
sg56
(idelphi
DelphiStringValue
p931
(dp932
g56
S' to '
p933
sbsbsg642
(idelphi
DelphiAddOp
p934
(dp935
g629
S'+'
sg630
(i__main__
DelphiIdentAccess
p936
(dp937
g58
S'floatToStr'
p938
sg160
(lp939
(idelphi
DelphiFunctionEndAccess
p940
(dp941
g170
(lp942
(i__main__
DelphiIdentAccess
p943
(dp944
g58
S'number'
p945
sg160
(lp946
sbasbasbsg642
(idelphi
DelphiStringAccess
p947
(dp948
g160
(lp949
sg56
(idelphi
DelphiStringValue
p950
(dp951
g56
S'Problem: Uncaught error in power function: '
p952
sbsbsbsbsbasbasbsg156
(i__main__
DelphiIdentAccess
p953
(dp954
g58
S'result'
p955
sg160
(lp956
sbsba(idelphi
DelphiRaiseStatement
p957
(dp958
g272
Nsbasbsbasbsg176
(lp959
sbsg114
(lp960
S' this function is needed to get around a bug in the development environment: if a negative\r'
p961
aS'number is raised to a non-integer power, an exception should be raised but the environment\r'
p962
aS'instead crashes. '
p963
aS' RE-RAISES EXCEPTION '
p964
asba(i__main__
DelphiProceduralImplementation
p965
(dp966
g100
(i__main__
DelphiProceduralDeclaration
p967
(dp968
g103
(lp969
(i__main__
DelphiFormalParameter
p970
(dp971
g107
Nsg108
(lp972
S'x'
asg60
(i__main__
DelphiPrimitiveType
p973
(dp974
g30
g543
sbsg113
Nsbasg23
S'tan'
p975
sg120
(i__main__
DelphiPrimitiveType
p976
(dp977
g30
g543
sbsbsg23
g975
sg120
(i__main__
DelphiPrimitiveType
p978
(dp979
g30
g543
sbsg125
(lp980
sg127
(lp981
sg129
(lp982
S'x'
asg132
(dp983
S'x'
(i__main__
DelphiPrimitiveType
p984
(dp985
g30
g543
sbssg103
(lp986
(i__main__
DelphiFormalParameter
p987
(dp988
g107
Nsg108
(lp989
S'x'
asg60
g984
sg113
Nsbasg140
(lp990
sg142
(i__main__
DelphiBlock
p991
(dp992
g145
(idelphi
DelphiCompoundStatement
p993
(dp994
g148
(lp995
(idelphi
DelphiTryExceptStatement
p996
(dp997
g580
(lp998
(i__main__
DelphiAssignStatement
p999
(dp1000
g152
(idelphi
DelphiMulOp
p1001
(dp1002
g213
(i__main__
DelphiIdentAccess
p1003
(dp1004
g58
S'cos'
p1005
sg160
(lp1006
(idelphi
DelphiFunctionEndAccess
p1007
(dp1008
g170
(lp1009
(i__main__
DelphiIdentAccess
p1010
(dp1011
g58
S'x'
sg160
(lp1012
sbasbasbsg217
S'/'
sg218
(i__main__
DelphiIdentAccess
p1013
(dp1014
g58
S'sin'
p1015
sg160
(lp1016
(idelphi
DelphiFunctionEndAccess
p1017
(dp1018
g170
(lp1019
(i__main__
DelphiIdentAccess
p1020
(dp1021
g58
S'x'
sg160
(lp1022
sbasbasbsbsg156
(i__main__
DelphiIdentAccess
p1023
(dp1024
g58
S'result'
p1025
sg160
(lp1026
sbsbasg612
(idelphi
DelphiExceptionHandlers
p1027
(dp1028
g615
Nsg616
(lp1029
(i__main__
DelphiAssignStatement
p1030
(dp1031
g152
(i__main__
DelphiIdentAccess
p1032
(dp1033
g58
S'errorMessage'
p1034
sg160
(lp1035
(idelphi
DelphiFunctionEndAccess
p1036
(dp1037
g170
(lp1038
(idelphi
DelphiAddOp
p1039
(dp1040
g629
S'+'
sg630
(i__main__
DelphiIdentAccess
p1041
(dp1042
g58
S'floatToStr'
p1043
sg160
(lp1044
(idelphi
DelphiFunctionEndAccess
p1045
(dp1046
g170
(lp1047
(i__main__
DelphiIdentAccess
p1048
(dp1049
g58
S'x'
sg160
(lp1050
sbasbasbsg642
(idelphi
DelphiStringAccess
p1051
(dp1052
g160
(lp1053
sg56
(idelphi
DelphiStringValue
p1054
(dp1055
g56
S'Uncaught error in tangent function: '
p1056
sbsbsbasbasbsg156
(i__main__
DelphiIdentAccess
p1057
(dp1058
g58
S'result'
p1059
sg160
(lp1060
sbsba(idelphi
DelphiRaiseStatement
p1061
(dp1062
g272
Nsbasbsbasbsg176
(lp1063
sbsg114
(lp1064
S' RE-RAISES EXCEPTION '
p1065
asba(i__main__
DelphiProceduralImplementation
p1066
(dp1067
g100
(i__main__
DelphiProceduralDeclaration
p1068
(dp1069
g103
(lp1070
(i__main__
DelphiFormalParameter
p1071
(dp1072
g107
Nsg108
(lp1073
S'x'
asg60
(i__main__
DelphiPrimitiveType
p1074
(dp1075
g30
g543
sbsg113
Nsbasg23
S'arcCos'
p1076
sg120
(i__main__
DelphiPrimitiveType
p1077
(dp1078
g30
g543
sbsbsg23
g1076
sg120
(i__main__
DelphiPrimitiveType
p1079
(dp1080
g30
g543
sbsg125
(lp1081
sg127
(lp1082
sg129
(lp1083
S'x'
asg132
(dp1084
S'x'
(i__main__
DelphiPrimitiveType
p1085
(dp1086
g30
g543
sbssg103
(lp1087
(i__main__
DelphiFormalParameter
p1088
(dp1089
g107
Nsg108
(lp1090
S'x'
asg60
g1085
sg113
Nsbasg140
(lp1091
sg142
(i__main__
DelphiBlock
p1092
(dp1093
g145
(idelphi
DelphiCompoundStatement
p1094
(dp1095
g148
(lp1096
(idelphi
DelphiTryExceptStatement
p1097
(dp1098
g580
(lp1099
(i__main__
DelphiAssignStatement
p1100
(dp1101
g152
(idelphi
DelphiAddOp
p1102
(dp1103
g629
S'-'
sg630
(i__main__
DelphiIdentAccess
p1104
(dp1105
g58
S'arcSin'
p1106
sg160
(lp1107
(idelphi
DelphiFunctionEndAccess
p1108
(dp1109
g170
(lp1110
(i__main__
DelphiIdentAccess
p1111
(dp1112
g58
S'x'
sg160
(lp1113
sbasbasbsg642
(idelphi
DelphiMulOp
p1114
(dp1115
g213
(idelphi
DelphiRealValue
p1116
(dp1117
g56
S'2.0'
p1118
sbsg217
S'/'
sg218
(i__main__
DelphiIdentAccess
p1119
(dp1120
g58
S'kPi'
p1121
sg160
(lp1122
sbsbsbsg156
(i__main__
DelphiIdentAccess
p1123
(dp1124
g58
S'result'
p1125
sg160
(lp1126
sbsg114
(lp1127
S" this was in the Delphi help but doesn't seem to work "
p1128
aS' result := arcTan(sqrt(1.0 - sqr(x)) / x); '
p1129
aS' from Smalltalk/V '
p1130
asbasg612
(idelphi
DelphiExceptionHandlers
p1131
(dp1132
g615
Nsg616
(lp1133
(i__main__
DelphiAssignStatement
p1134
(dp1135
g152
(i__main__
DelphiIdentAccess
p1136
(dp1137
g58
S'ErrorMessage'
p1138
sg160
(lp1139
(idelphi
DelphiFunctionEndAccess
p1140
(dp1141
g170
(lp1142
(idelphi
DelphiAddOp
p1143
(dp1144
g629
S'+'
sg630
(i__main__
DelphiIdentAccess
p1145
(dp1146
g58
S'floatToStr'
p1147
sg160
(lp1148
(idelphi
DelphiFunctionEndAccess
p1149
(dp1150
g170
(lp1151
(i__main__
DelphiIdentAccess
p1152
(dp1153
g58
S'x'
sg160
(lp1154
sbasbasbsg642
(idelphi
DelphiStringAccess
p1155
(dp1156
g160
(lp1157
sg56
(idelphi
DelphiStringValue
p1158
(dp1159
g56
S'Invalid number for arcCos: '
p1160
sbsbsbasbasbsg156
(i__main__
DelphiIdentAccess
p1161
(dp1162
g58
S'result'
p1163
sg160
(lp1164
sbsba(idelphi
DelphiRaiseStatement
p1165
(dp1166
g272
Nsbasbsbasbsg176
(lp1167
sbsg114
(lp1168
S' RE-RAISES EXCEPTION '
p1169
asba(i__main__
DelphiProceduralImplementation
p1170
(dp1171
g100
(i__main__
DelphiProceduralDeclaration
p1172
(dp1173
g103
(lp1174
(i__main__
DelphiFormalParameter
p1175
(dp1176
g107
Nsg108
(lp1177
S'x'
asg60
(i__main__
DelphiPrimitiveType
p1178
(dp1179
g30
g543
sbsg113
Nsbasg23
S'arcSin'
p1180
sg120
(i__main__
DelphiPrimitiveType
p1181
(dp1182
g30
g543
sbsbsg23
g1180
sg120
(i__main__
DelphiPrimitiveType
p1183
(dp1184
g30
g543
sbsg125
(lp1185
sg127
(lp1186
sg129
(lp1187
S'x'
asg132
(dp1188
S'x'
(i__main__
DelphiPrimitiveType
p1189
(dp1190
g30
g543
sbssg103
(lp1191
(i__main__
DelphiFormalParameter
p1192
(dp1193
g107
Nsg108
(lp1194
S'x'
asg60
g1189
sg113
Nsbasg140
(lp1195
sg142
(i__main__
DelphiBlock
p1196
(dp1197
g145
(idelphi
DelphiCompoundStatement
p1198
(dp1199
g148
(lp1200
(idelphi
DelphiTryExceptStatement
p1201
(dp1202
g580
(lp1203
(i__main__
DelphiAssignStatement
p1204
(dp1205
g152
(i__main__
DelphiIdentAccess
p1206
(dp1207
g58
S'arcTan'
p1208
sg160
(lp1209
(idelphi
DelphiFunctionEndAccess
p1210
(dp1211
g170
(lp1212
(idelphi
DelphiMulOp
p1213
(dp1214
g213
(i__main__
DelphiIdentAccess
p1215
(dp1216
g58
S'sqrt'
p1217
sg160
(lp1218
(idelphi
DelphiFunctionEndAccess
p1219
(dp1220
g170
(lp1221
(idelphi
DelphiAddOp
p1222
(dp1223
g629
S'-'
sg630
(i__main__
DelphiIdentAccess
p1224
(dp1225
g58
S'sqr'
p1226
sg160
(lp1227
(idelphi
DelphiFunctionEndAccess
p1228
(dp1229
g170
(lp1230
(i__main__
DelphiIdentAccess
p1231
(dp1232
g58
S'x'
sg160
(lp1233
sbasbasbsg642
(idelphi
DelphiRealValue
p1234
(dp1235
g56
S'1.0'
p1236
sbsbasbasbsg217
S'/'
sg218
(i__main__
DelphiIdentAccess
p1237
(dp1238
g58
S'x'
sg160
(lp1239
sbsbasbasbsg156
(i__main__
DelphiIdentAccess
p1240
(dp1241
g58
S'result'
p1242
sg160
(lp1243
sbsbasg612
(idelphi
DelphiExceptionHandlers
p1244
(dp1245
g615
Nsg616
(lp1246
(i__main__
DelphiAssignStatement
p1247
(dp1248
g152
(i__main__
DelphiIdentAccess
p1249
(dp1250
g58
S'ErrorMessage'
p1251
sg160
(lp1252
(idelphi
DelphiFunctionEndAccess
p1253
(dp1254
g170
(lp1255
(idelphi
DelphiAddOp
p1256
(dp1257
g629
S'+'
sg630
(i__main__
DelphiIdentAccess
p1258
(dp1259
g58
S'floatToStr'
p1260
sg160
(lp1261
(idelphi
DelphiFunctionEndAccess
p1262
(dp1263
g170
(lp1264
(i__main__
DelphiIdentAccess
p1265
(dp1266
g58
S'x'
sg160
(lp1267
sbasbasbsg642
(idelphi
DelphiStringAccess
p1268
(dp1269
g160
(lp1270
sg56
(idelphi
DelphiStringValue
p1271
(dp1272
g56
S'Invalid number for arcSin: '
p1273
sbsbsbasbasbsg156
(i__main__
DelphiIdentAccess
p1274
(dp1275
g58
S'result'
p1276
sg160
(lp1277
sbsba(idelphi
DelphiRaiseStatement
p1278
(dp1279
g272
Nsbasbsbasbsg176
(lp1280
sbsg114
(lp1281
S' RE-RAISES EXCEPTION '
p1282
asba(i__main__
DelphiConstSection
p1283
(dp1284
g49
(lp1285
(idelphi
DelphiConstDeclaration
p1286
(dp1287
g53
(idelphi
DelphiRealValue
p1288
(dp1289
g56
S'0.434294481'
p1290
sbsg58
S'oneOverNaturalLogOfTen'
p1291
sg60
(i__main__
DelphiPrimitiveType
p1292
(dp1293
g30
g543
sbsbasg80
I1
sba(i__main__
DelphiProceduralImplementation
p1294
(dp1295
g100
(i__main__
DelphiProceduralDeclaration
p1296
(dp1297
g103
(lp1298
(i__main__
DelphiFormalParameter
p1299
(dp1300
g107
Nsg108
(lp1301
S'x'
asg60
(i__main__
DelphiPrimitiveType
p1302
(dp1303
g30
g543
sbsg113
Nsbasg23
S'log10'
p1304
sg120
(i__main__
DelphiPrimitiveType
p1305
(dp1306
g30
g543
sbsbsg23
g1304
sg120
(i__main__
DelphiPrimitiveType
p1307
(dp1308
g30
g543
sbsg125
(lp1309
sg127
(lp1310
sg129
(lp1311
S'x'
asg132
(dp1312
S'x'
(i__main__
DelphiPrimitiveType
p1313
(dp1314
g30
g543
sbssg103
(lp1315
(i__main__
DelphiFormalParameter
p1316
(dp1317
g107
Nsg108
(lp1318
S'x'
asg60
g1313
sg113
Nsbasg140
(lp1319
sg142
(i__main__
DelphiBlock
p1320
(dp1321
g145
(idelphi
DelphiCompoundStatement
p1322
(dp1323
g148
(lp1324
(idelphi
DelphiTryExceptStatement
p1325
(dp1326
g580
(lp1327
(idelphi
DelphiIfStatement
p1328
(dp1329
g272
(idelphi
DelphiRelOp
p1330
(dp1331
g279
(i__main__
DelphiIdentAccess
p1332
(dp1333
g58
S'x'
sg160
(lp1334
sbsg283
(idelphi
DelphiRealValue
p1335
(dp1336
g56
S'0.0'
p1337
sbsg287
S'>'
sbsg288
(idelphi
DelphiCompoundStatement
p1338
(dp1339
g148
(lp1340
(i__main__
DelphiAssignStatement
p1341
(dp1342
g152
(idelphi
DelphiSign
p1343
(dp1344
S'factor'
p1345
(idelphi
DelphiIntegerValue
p1346
(dp1347
g56
S'1'
sbsS'sign'
p1348
S'-'
sbsg156
(i__main__
DelphiIdentAccess
p1349
(dp1350
g58
S'result'
p1351
sg160
(lp1352
sbsba(idelphi
DelphiRaiseStatement
p1353
(dp1354
g272
(i__main__
DelphiIdentAccess
p1355
(dp1356
g58
S'Exception'
p1357
sg160
(lp1358
(idelphi
DelphiFieldEndAccess
p1359
(dp1360
g782
S'create'
p1361
sba(idelphi
DelphiFunctionEndAccess
p1362
(dp1363
g170
(lp1364
(idelphi
DelphiStringAccess
p1365
(dp1366
g160
(lp1367
sg56
(idelphi
DelphiStringValue
p1368
(dp1369
g56
S'Problem: Tried to take log (base 10) of zero or negative number.'
p1370
sbsbasbasbsbasbsg298
(i__main__
DelphiAssignStatement
p1371
(dp1372
g152
(idelphi
DelphiMulOp
p1373
(dp1374
g213
(i__main__
DelphiIdentAccess
p1375
(dp1376
g58
S'safeLn'
p1377
sg160
(lp1378
(idelphi
DelphiFunctionEndAccess
p1379
(dp1380
g170
(lp1381
(i__main__
DelphiIdentAccess
p1382
(dp1383
g58
S'x'
sg160
(lp1384
sbasbasbsg217
S'*'
sg218
(i__main__
DelphiIdentAccess
p1385
(dp1386
g58
S'oneOverNaturalLogOfTen'
p1387
sg160
(lp1388
sbsbsg156
(i__main__
DelphiIdentAccess
p1389
(dp1390
g58
S'result'
p1391
sg160
(lp1392
sbsbsbasg612
(idelphi
DelphiExceptionHandlers
p1393
(dp1394
g615
Nsg616
(lp1395
(i__main__
DelphiAssignStatement
p1396
(dp1397
g152
(i__main__
DelphiIdentAccess
p1398
(dp1399
g58
S'ErrorMessage'
p1400
sg160
(lp1401
(idelphi
DelphiFunctionEndAccess
p1402
(dp1403
g170
(lp1404
(idelphi
DelphiAddOp
p1405
(dp1406
g629
S'+'
sg630
(idelphi
DelphiStringAccess
p1407
(dp1408
g160
(lp1409
sg56
(idelphi
DelphiStringValue
p1410
(dp1411
g56
S'.'
sbsbsg642
(idelphi
DelphiAddOp
p1412
(dp1413
g629
S'+'
sg630
(i__main__
DelphiIdentAccess
p1414
(dp1415
g58
S'floatToStr'
p1416
sg160
(lp1417
(idelphi
DelphiFunctionEndAccess
p1418
(dp1419
g170
(lp1420
(i__main__
DelphiIdentAccess
p1421
(dp1422
g58
S'x'
sg160
(lp1423
sbasbasbsg642
(idelphi
DelphiStringAccess
p1424
(dp1425
g160
(lp1426
sg56
(idelphi
DelphiStringValue
p1427
(dp1428
g56
S'Problem: Invalid number for log (base 10): '
p1429
sbsbsbsbasbasbsg156
(i__main__
DelphiIdentAccess
p1430
(dp1431
g58
S'result'
p1432
sg160
(lp1433
sbsba(idelphi
DelphiRaiseStatement
p1434
(dp1435
g272
Nsbasbsbasbsg176
(lp1436
sbsg114
(lp1437
S' RE-RAISES EXCEPTION '
p1438
aS' uses notion that logN(x) = ln(x) / ln(N) '
p1439
asba(i__main__
DelphiProceduralImplementation
p1440
(dp1441
g100
(i__main__
DelphiProceduralDeclaration
p1442
(dp1443
g103
(lp1444
(i__main__
DelphiFormalParameter
p1445
(dp1446
g107
Nsg108
(lp1447
S'x'
asg60
(i__main__
DelphiPrimitiveType
p1448
(dp1449
g30
g543
sbsg113
Nsbasg23
S'safeLn'
p1450
sg120
(i__main__
DelphiPrimitiveType
p1451
(dp1452
g30
g543
sbsbsg23
g1450
sg120
(i__main__
DelphiPrimitiveType
p1453
(dp1454
g30
g543
sbsg125
(lp1455
sg127
(lp1456
sg129
(lp1457
S'x'
asg132
(dp1458
S'x'
(i__main__
DelphiPrimitiveType
p1459
(dp1460
g30
g543
sbssg103
(lp1461
(i__main__
DelphiFormalParameter
p1462
(dp1463
g107
Nsg108
(lp1464
S'x'
asg60
g1459
sg113
Nsbasg140
(lp1465
sg142
(i__main__
DelphiBlock
p1466
(dp1467
g145
(idelphi
DelphiCompoundStatement
p1468
(dp1469
g148
(lp1470
(idelphi
DelphiIfStatement
p1471
(dp1472
g272
(idelphi
DelphiRelOp
p1473
(dp1474
g279
(i__main__
DelphiIdentAccess
p1475
(dp1476
g58
S'x'
sg160
(lp1477
sbsg283
(idelphi
DelphiRealValue
p1478
(dp1479
g56
S'0.0'
p1480
sbsg287
S'>'
sbsg288
(idelphi
DelphiCompoundStatement
p1481
(dp1482
g148
(lp1483
(idelphi
DelphiRaiseStatement
p1484
(dp1485
g272
(i__main__
DelphiIdentAccess
p1486
(dp1487
g58
S'Exception'
p1488
sg160
(lp1489
(idelphi
DelphiFieldEndAccess
p1490
(dp1491
g782
S'create'
p1492
sba(idelphi
DelphiFunctionEndAccess
p1493
(dp1494
g170
(lp1495
(idelphi
DelphiAddOp
p1496
(dp1497
g629
S'+'
sg630
(idelphi
DelphiStringAccess
p1498
(dp1499
g160
(lp1500
sg56
(idelphi
DelphiStringValue
p1501
(dp1502
g56
S'.'
sbsbsg642
(idelphi
DelphiAddOp
p1503
(dp1504
g629
S'+'
sg630
(i__main__
DelphiIdentAccess
p1505
(dp1506
g58
S'floatToStr'
p1507
sg160
(lp1508
(idelphi
DelphiFunctionEndAccess
p1509
(dp1510
g170
(lp1511
(i__main__
DelphiIdentAccess
p1512
(dp1513
g58
S'x'
sg160
(lp1514
sbasbasbsg642
(idelphi
DelphiStringAccess
p1515
(dp1516
g160
(lp1517
sg56
(idelphi
DelphiStringValue
p1518
(dp1519
g56
S'Problem: Tried to take ln of zero or negative number: '
p1520
sbsbsbsbasbasbsbasbsg298
(idelphi
DelphiTryExceptStatement
p1521
(dp1522
g580
(lp1523
(i__main__
DelphiAssignStatement
p1524
(dp1525
g152
(i__main__
DelphiIdentAccess
p1526
(dp1527
g58
S'ln'
p1528
sg160
(lp1529
(idelphi
DelphiFunctionEndAccess
p1530
(dp1531
g170
(lp1532
(i__main__
DelphiIdentAccess
p1533
(dp1534
g58
S'x'
sg160
(lp1535
sbasbasbsg156
(i__main__
DelphiIdentAccess
p1536
(dp1537
g58
S'result'
p1538
sg160
(lp1539
sbsg114
(lp1540
S' PDF PORT added semicolon\r'
p1541
asbasg612
(idelphi
DelphiExceptionHandlers
p1542
(dp1543
g615
Nsg616
(lp1544
(i__main__
DelphiAssignStatement
p1545
(dp1546
g152
Nsg156
(i__main__
DelphiIdentAccess
p1547
(dp1548
g58
S'ErrorMessage'
p1549
sg160
(lp1550
(idelphi
DelphiFunctionEndAccess
p1551
(dp1552
g170
(lp1553
(idelphi
DelphiAddOp
p1554
(dp1555
g629
S'+'
sg630
(i__main__
DelphiIdentAccess
p1556
(dp1557
g58
S'floatToStr'
p1558
sg160
(lp1559
(idelphi
DelphiFunctionEndAccess
p1560
(dp1561
g170
(lp1562
(i__main__
DelphiIdentAccess
p1563
(dp1564
g58
S'x'
sg160
(lp1565
sbasbasbsg642
(idelphi
DelphiStringAccess
p1566
(dp1567
g160
(lp1568
sg56
(idelphi
DelphiStringValue
p1569
(dp1570
g56
S'Invalid number for natural log: '
p1571
sbsbsbasbasbsba(i__main__
DelphiAssignStatement
p1572
(dp1573
g152
(idelphi
DelphiRealValue
p1574
(dp1575
g56
S'1.0'
p1576
sbsg156
(i__main__
DelphiIdentAccess
p1577
(dp1578
g58
S'result'
p1579
sg160
(lp1580
sbsba(idelphi
DelphiRaiseStatement
p1581
(dp1582
g272
Nsbasbsbsbasbsg176
(lp1583
sbsg114
(lp1584
S' RE-RAISES EXCEPTION '
p1585
asba(i__main__
DelphiProceduralImplementation
p1586
(dp1587
g100
(i__main__
DelphiProceduralDeclaration
p1588
(dp1589
g103
(lp1590
(i__main__
DelphiFormalParameter
p1591
(dp1592
g107
Nsg108
(lp1593
S'x'
asg60
(i__main__
DelphiPrimitiveType
p1594
(dp1595
g30
g543
sbsg113
Nsba(i__main__
DelphiFormalParameter
p1596
(dp1597
g107
Nsg108
(lp1598
S'failed'
p1599
asg60
(i__main__
DelphiPrimitiveType
p1600
(dp1601
g30
S'boolean'
p1602
sbsg113
S'var'
p1603
sbasg23
S'safeLnWithResult'
p1604
sg120
(i__main__
DelphiPrimitiveType
p1605
(dp1606
g30
g543
sbsbsg23
g1604
sg120
(i__main__
DelphiPrimitiveType
p1607
(dp1608
g30
g543
sbsg125
(lp1609
I1
asg127
(lp1610
sg129
(lp1611
S'x'
aS'failed'
p1612
asg132
(dp1613
S'x'
(i__main__
DelphiPrimitiveType
p1614
(dp1615
g30
g543
sbsg1612
(i__main__
DelphiPrimitiveType
p1616
(dp1617
g30
g1602
sbssg103
(lp1618
(i__main__
DelphiFormalParameter
p1619
(dp1620
g107
Nsg108
(lp1621
S'x'
asg60
g1614
sg113
Nsba(i__main__
DelphiFormalParameter
p1622
(dp1623
g107
Nsg108
(lp1624
g1612
asg60
g1616
sg113
g1603
sbasg140
(lp1625
g1612
asg142
(i__main__
DelphiBlock
p1626
(dp1627
g145
(idelphi
DelphiCompoundStatement
p1628
(dp1629
g148
(lp1630
(i__main__
DelphiAssignStatement
p1631
(dp1632
g152
(i__main__
DelphiIdentAccess
p1633
(dp1634
g58
S'true'
p1635
sg160
(lp1636
sbsg156
(i__main__
DelphiIdentAccess
p1637
(dp1638
g58
S'failed'
p1639
sg160
(lp1640
sbsba(i__main__
DelphiAssignStatement
p1641
(dp1642
g152
(idelphi
DelphiRealValue
p1643
(dp1644
g56
S'0.0'
p1645
sbsg156
(i__main__
DelphiIdentAccess
p1646
(dp1647
g58
S'result'
p1648
sg160
(lp1649
sbsba(i__main__
DelphiAssignStatement
p1650
(dp1651
g152
(idelphi
DelphiRealValue
p1652
(dp1653
g56
S'0.0'
p1654
sbsg156
(i__main__
DelphiIdentAccess
p1655
(dp1656
g58
S'temp'
p1657
sg160
(lp1658
sbsba(idelphi
DelphiIfStatement
p1659
(dp1660
g272
(idelphi
DelphiRelOp
p1661
(dp1662
g279
(i__main__
DelphiIdentAccess
p1663
(dp1664
g58
S'x'
sg160
(lp1665
sbsg283
(idelphi
DelphiRealValue
p1666
(dp1667
g56
S'0.0'
p1668
sbsg287
S'<='
p1669
sbsg288
Nsg298
(i__main__
DelphiExitStatement
p1670
(dp1671
S'proceduralOrMethodImplementation'
p1672
g1586
sbsba(idelphi
DelphiTryExceptStatement
p1673
(dp1674
g580
(lp1675
(i__main__
DelphiAssignStatement
p1676
(dp1677
g152
(i__main__
DelphiIdentAccess
p1678
(dp1679
g58
S'ln'
p1680
sg160
(lp1681
(idelphi
DelphiFunctionEndAccess
p1682
(dp1683
g170
(lp1684
(i__main__
DelphiIdentAccess
p1685
(dp1686
g58
S'x'
sg160
(lp1687
sbasbasbsg156
(i__main__
DelphiIdentAccess
p1688
(dp1689
g58
S'temp'
p1690
sg160
(lp1691
sbsbasg612
(idelphi
DelphiExceptionHandlers
p1692
(dp1693
g615
Nsg616
(lp1694
(i__main__
DelphiAssignStatement
p1695
(dp1696
g152
(idelphi
DelphiRealValue
p1697
(dp1698
g56
S'1.0'
p1699
sbsg156
(i__main__
DelphiIdentAccess
p1700
(dp1701
g58
S'result'
p1702
sg160
(lp1703
sbsba(i__main__
DelphiExitStatement
p1704
(dp1705
g1672
g1586
sbasbsba(i__main__
DelphiAssignStatement
p1706
(dp1707
g152
(i__main__
DelphiIdentAccess
p1708
(dp1709
g58
S'temp'
p1710
sg160
(lp1711
sbsg156
(i__main__
DelphiIdentAccess
p1712
(dp1713
g58
S'result'
p1714
sg160
(lp1715
sbsba(i__main__
DelphiAssignStatement
p1716
(dp1717
g152
(i__main__
DelphiIdentAccess
p1718
(dp1719
g58
S'false'
p1720
sg160
(lp1721
sbsg156
(i__main__
DelphiIdentAccess
p1722
(dp1723
g58
S'failed'
p1724
sg160
(lp1725
sbsbasbsg176
(lp1726
(i__main__
DelphiVarSection
p1727
(dp1728
g80
I0
sS'varDeclList'
p1729
(lp1730
(idelphi
DelphiVarDecl
p1731
(dp1732
g53
NsS'identList'
p1733
(lp1734
S'temp'
p1735
asg60
(i__main__
DelphiPrimitiveType
p1736
(dp1737
g30
g543
sbsbasbasbsg114
(lp1738
S' same as safeLn but does not show an errorMessage or re-raise the exception; just returns whether it failed;\r'
p1739
aS"  used inside paint methods where you don't want error dialogs popping up "
p1740
asba(i__main__
DelphiProceduralImplementation
p1741
(dp1742
g100
(i__main__
DelphiProceduralDeclaration
p1743
(dp1744
g103
(lp1745
(i__main__
DelphiFormalParameter
p1746
(dp1747
g107
Nsg108
(lp1748
S'x'
asg60
(i__main__
DelphiPrimitiveType
p1749
(dp1750
g30
g543
sbsg113
Nsbasg23
S'safeExp'
p1751
sg120
(i__main__
DelphiPrimitiveType
p1752
(dp1753
g30
g543
sbsbsg23
g1751
sg120
(i__main__
DelphiPrimitiveType
p1754
(dp1755
g30
g543
sbsg125
(lp1756
sg127
(lp1757
sg129
(lp1758
S'x'
asg132
(dp1759
S'x'
(i__main__
DelphiPrimitiveType
p1760
(dp1761
g30
g543
sbssg103
(lp1762
(i__main__
DelphiFormalParameter
p1763
(dp1764
g107
Nsg108
(lp1765
S'x'
asg60
g1760
sg113
Nsbasg140
(lp1766
sg142
(i__main__
DelphiBlock
p1767
(dp1768
g145
(idelphi
DelphiCompoundStatement
p1769
(dp1770
g148
(lp1771
(idelphi
DelphiTryExceptStatement
p1772
(dp1773
g580
(lp1774
(i__main__
DelphiAssignStatement
p1775
(dp1776
g152
(i__main__
DelphiIdentAccess
p1777
(dp1778
g58
S'exp'
p1779
sg160
(lp1780
(idelphi
DelphiFunctionEndAccess
p1781
(dp1782
g170
(lp1783
(i__main__
DelphiIdentAccess
p1784
(dp1785
g58
S'x'
sg160
(lp1786
sbasbasbsg156
(i__main__
DelphiIdentAccess
p1787
(dp1788
g58
S'result'
p1789
sg160
(lp1790
sbsg114
(lp1791
S' PDF PORT added semicolon\r'
p1792
asbasg612
(idelphi
DelphiExceptionHandlers
p1793
(dp1794
g615
Nsg616
(lp1795
(i__main__
DelphiAssignStatement
p1796
(dp1797
g152
(i__main__
DelphiIdentAccess
p1798
(dp1799
g58
S'ErrorMessage'
p1800
sg160
(lp1801
(idelphi
DelphiFunctionEndAccess
p1802
(dp1803
g170
(lp1804
(idelphi
DelphiAddOp
p1805
(dp1806
g629
S'+'
sg630
(i__main__
DelphiIdentAccess
p1807
(dp1808
g58
S'floatToStr'
p1809
sg160
(lp1810
(idelphi
DelphiFunctionEndAccess
p1811
(dp1812
g170
(lp1813
(i__main__
DelphiIdentAccess
p1814
(dp1815
g58
S'x'
sg160
(lp1816
sbasbasbsg642
(idelphi
DelphiStringAccess
p1817
(dp1818
g160
(lp1819
sg56
(idelphi
DelphiStringValue
p1820
(dp1821
g56
S'Invalid number for exponential function: '
p1822
sbsbsbasbasbsg156
(i__main__
DelphiIdentAccess
p1823
(dp1824
g58
S'result'
p1825
sg160
(lp1826
sbsba(idelphi
DelphiRaiseStatement
p1827
(dp1828
g272
Nsbasbsbasbsg176
(lp1829
sbsg114
(lp1830
S' RE-RAISES EXCEPTION '
p1831
asba(i__main__
DelphiProceduralImplementation
p1832
(dp1833
g100
(i__main__
DelphiProceduralDeclaration
p1834
(dp1835
g103
(lp1836
(i__main__
DelphiFormalParameter
p1837
(dp1838
g107
Nsg108
(lp1839
S'x'
asg60
(i__main__
DelphiPrimitiveType
p1840
(dp1841
g30
g543
sbsg113
Nsba(i__main__
DelphiFormalParameter
p1842
(dp1843
g107
Nsg108
(lp1844
S'failed'
p1845
asg60
(i__main__
DelphiPrimitiveType
p1846
(dp1847
g30
g1602
sbsg113
g1603
sbasg23
S'safeExpWithResult'
p1848
sg120
(i__main__
DelphiPrimitiveType
p1849
(dp1850
g30
g543
sbsbsg23
g1848
sg120
(i__main__
DelphiPrimitiveType
p1851
(dp1852
g30
g543
sbsg125
(lp1853
I1
asg127
(lp1854
sg129
(lp1855
S'x'
aS'failed'
p1856
asg132
(dp1857
S'x'
(i__main__
DelphiPrimitiveType
p1858
(dp1859
g30
g543
sbsg1856
(i__main__
DelphiPrimitiveType
p1860
(dp1861
g30
g1602
sbssg103
(lp1862
(i__main__
DelphiFormalParameter
p1863
(dp1864
g107
Nsg108
(lp1865
S'x'
asg60
g1858
sg113
Nsba(i__main__
DelphiFormalParameter
p1866
(dp1867
g107
Nsg108
(lp1868
g1856
asg60
g1860
sg113
g1603
sbasg140
(lp1869
g1856
asg142
(i__main__
DelphiBlock
p1870
(dp1871
g145
(idelphi
DelphiCompoundStatement
p1872
(dp1873
g148
(lp1874
(i__main__
DelphiAssignStatement
p1875
(dp1876
g152
(i__main__
DelphiIdentAccess
p1877
(dp1878
g58
S'true'
p1879
sg160
(lp1880
sbsg156
(i__main__
DelphiIdentAccess
p1881
(dp1882
g58
S'failed'
p1883
sg160
(lp1884
sbsba(i__main__
DelphiAssignStatement
p1885
(dp1886
g152
(idelphi
DelphiRealValue
p1887
(dp1888
g56
S'0.0'
p1889
sbsg156
(i__main__
DelphiIdentAccess
p1890
(dp1891
g58
S'result'
p1892
sg160
(lp1893
sbsba(i__main__
DelphiAssignStatement
p1894
(dp1895
g152
(idelphi
DelphiRealValue
p1896
(dp1897
g56
S'0.0'
p1898
sbsg156
(i__main__
DelphiIdentAccess
p1899
(dp1900
g58
S'temp'
p1901
sg160
(lp1902
sbsba(idelphi
DelphiTryExceptStatement
p1903
(dp1904
g580
(lp1905
(i__main__
DelphiAssignStatement
p1906
(dp1907
g152
(i__main__
DelphiIdentAccess
p1908
(dp1909
g58
S'exp'
p1910
sg160
(lp1911
(idelphi
DelphiFunctionEndAccess
p1912
(dp1913
g170
(lp1914
(i__main__
DelphiIdentAccess
p1915
(dp1916
g58
S'x'
sg160
(lp1917
sbasbasbsg156
(i__main__
DelphiIdentAccess
p1918
(dp1919
g58
S'temp'
p1920
sg160
(lp1921
sbsbasg612
(idelphi
DelphiExceptionHandlers
p1922
(dp1923
g615
Nsg616
(lp1924
(i__main__
DelphiExitStatement
p1925
(dp1926
g1672
g1832
sbasbsba(i__main__
DelphiAssignStatement
p1927
(dp1928
g152
(i__main__
DelphiIdentAccess
p1929
(dp1930
g58
S'temp'
p1931
sg160
(lp1932
sbsg156
(i__main__
DelphiIdentAccess
p1933
(dp1934
g58
S'result'
p1935
sg160
(lp1936
sbsba(i__main__
DelphiAssignStatement
p1937
(dp1938
g152
(i__main__
DelphiIdentAccess
p1939
(dp1940
g58
S'false'
p1941
sg160
(lp1942
sbsg156
(i__main__
DelphiIdentAccess
p1943
(dp1944
g58
S'failed'
p1945
sg160
(lp1946
sbsbasbsg176
(lp1947
(i__main__
DelphiVarSection
p1948
(dp1949
g80
I0
sg1729
(lp1950
(idelphi
DelphiVarDecl
p1951
(dp1952
g53
Nsg1733
(lp1953
S'temp'
p1954
asg60
(i__main__
DelphiPrimitiveType
p1955
(dp1956
g30
g543
sbsbasbasbsg114
(lp1957
S' same as safeExp but does not show an errorMessage or re-raise the exception; just returns whether it failed;\r'
p1958
aS"  used inside paint methods where you don't want error dialogs popping up "
p1959
asba(i__main__
DelphiProceduralImplementation
p1960
(dp1961
g100
(i__main__
DelphiProceduralDeclaration
p1962
(dp1963
g103
(lp1964
(i__main__
DelphiFormalParameter
p1965
(dp1966
g107
Nsg108
(lp1967
S'x'
asg60
(i__main__
DelphiPrimitiveType
p1968
(dp1969
g30
g31
sbsg113
Nsba(i__main__
DelphiFormalParameter
p1970
(dp1971
g107
Nsg108
(lp1972
S'y'
asg60
(i__main__
DelphiPrimitiveType
p1973
(dp1974
g30
g31
sbsg113
Nsbasg23
S'safediv'
p1975
sg120
(i__main__
DelphiPrimitiveType
p1976
(dp1977
g30
g31
sbsbsg23
g1975
sg120
(i__main__
DelphiPrimitiveType
p1978
(dp1979
g30
g31
sbsg125
(lp1980
sg127
(lp1981
sg129
(lp1982
S'x'
aS'y'
asg132
(dp1983
S'y'
(i__main__
DelphiPrimitiveType
p1984
(dp1985
g30
g31
sbsS'x'
(i__main__
DelphiPrimitiveType
p1986
(dp1987
g30
g31
sbssg103
(lp1988
(i__main__
DelphiFormalParameter
p1989
(dp1990
g107
Nsg108
(lp1991
S'x'
asg60
g1986
sg113
Nsba(i__main__
DelphiFormalParameter
p1992
(dp1993
g107
Nsg108
(lp1994
S'y'
asg60
g1984
sg113
Nsbasg140
(lp1995
sg142
(i__main__
DelphiBlock
p1996
(dp1997
g145
(idelphi
DelphiCompoundStatement
p1998
(dp1999
g148
(lp2000
(idelphi
DelphiTryExceptStatement
p2001
(dp2002
g580
(lp2003
(idelphi
DelphiIfStatement
p2004
(dp2005
g272
(idelphi
DelphiNestedExpressionListAccess
p2006
(dp2007
g160
(lp2008
sg170
(lp2009
(idelphi
DelphiRelOp
p2010
(dp2011
g279
(i__main__
DelphiIdentAccess
p2012
(dp2013
g58
S'y'
sg160
(lp2014
sbsg283
(idelphi
DelphiRealValue
p2015
(dp2016
g56
S'0.0'
p2017
sbsg287
S'<>'
p2018
sbasbsg288
(idelphi
DelphiCompoundStatement
p2019
(dp2020
g148
(lp2021
(i__main__
DelphiAssignStatement
p2022
(dp2023
g152
(idelphi
DelphiRealValue
p2024
(dp2025
g56
S'0.0'
p2026
sbsg156
(i__main__
DelphiIdentAccess
p2027
(dp2028
g58
S'result'
p2029
sg160
(lp2030
sbsba(idelphi
DelphiRaiseStatement
p2031
(dp2032
g272
(i__main__
DelphiIdentAccess
p2033
(dp2034
g58
S'Exception'
p2035
sg160
(lp2036
(idelphi
DelphiFieldEndAccess
p2037
(dp2038
g782
S'create'
p2039
sba(idelphi
DelphiFunctionEndAccess
p2040
(dp2041
g170
(lp2042
(idelphi
DelphiStringAccess
p2043
(dp2044
g160
(lp2045
sg56
(idelphi
DelphiStringValue
p2046
(dp2047
g56
S'Problem: Divide by zero.'
p2048
sbsbasbasbsbasbsg298
(i__main__
DelphiAssignStatement
p2049
(dp2050
g152
(idelphi
DelphiMulOp
p2051
(dp2052
g213
(i__main__
DelphiIdentAccess
p2053
(dp2054
g58
S'y'
sg160
(lp2055
sbsg217
S'/'
sg218
(i__main__
DelphiIdentAccess
p2056
(dp2057
g58
S'x'
sg160
(lp2058
sbsbsg156
(i__main__
DelphiIdentAccess
p2059
(dp2060
g58
S'result'
p2061
sg160
(lp2062
sbsbsbasg612
(idelphi
DelphiExceptionHandlers
p2063
(dp2064
g615
Nsg616
(lp2065
(i__main__
DelphiAssignStatement
p2066
(dp2067
g152
(i__main__
DelphiIdentAccess
p2068
(dp2069
g58
S'ErrorMessage'
p2070
sg160
(lp2071
(idelphi
DelphiFunctionEndAccess
p2072
(dp2073
g170
(lp2074
(idelphi
DelphiAddOp
p2075
(dp2076
g629
S'+'
sg630
(idelphi
DelphiStringAccess
p2077
(dp2078
g160
(lp2079
sg56
(idelphi
DelphiStringValue
p2080
(dp2081
g56
S'.'
sbsbsg642
(idelphi
DelphiAddOp
p2082
(dp2083
g629
S'+'
sg630
(i__main__
DelphiIdentAccess
p2084
(dp2085
g58
S'floatToStr'
p2086
sg160
(lp2087
(idelphi
DelphiFunctionEndAccess
p2088
(dp2089
g170
(lp2090
(i__main__
DelphiIdentAccess
p2091
(dp2092
g58
S'y'
sg160
(lp2093
sbasbasbsg642
(idelphi
DelphiAddOp
p2094
(dp2095
g629
S'+'
sg630
(idelphi
DelphiStringAccess
p2096
(dp2097
g160
(lp2098
sg56
(idelphi
DelphiStringValue
p2099
(dp2100
g56
S' by '
p2101
sbsbsg642
(idelphi
DelphiAddOp
p2102
(dp2103
g629
S'+'
sg630
(i__main__
DelphiIdentAccess
p2104
(dp2105
g58
S'floatToStr'
p2106
sg160
(lp2107
(idelphi
DelphiFunctionEndAccess
p2108
(dp2109
g170
(lp2110
(i__main__
DelphiIdentAccess
p2111
(dp2112
g58
S'x'
sg160
(lp2113
sbasbasbsg642
(idelphi
DelphiStringAccess
p2114
(dp2115
g160
(lp2116
sg56
(idelphi
DelphiStringValue
p2117
(dp2118
g56
S'Problem: Unspecified problem with dividing '
p2119
sbsbsbsbsbsbasbasbsg156
(i__main__
DelphiIdentAccess
p2120
(dp2121
g58
S'result'
p2122
sg160
(lp2123
sbsba(idelphi
DelphiRaiseStatement
p2124
(dp2125
g272
Nsbasbsbasbsg176
(lp2126
sbsg114
(lp2127
S'this function catches a divide by zero before it produces a not-a-number.\r'
p2128
aS'this can happen because of an underflow, an error in the code, or an unexpected condition.\r'
p2129
aS"this is a different approach than EPIC's which is basically to divide by the number plus a tiny float\r"
p2130
aS'for all cases (like 1e-20 or 1e-10)'
p2131
aS' RE-RAISES EXCEPTION '
p2132
asba(i__main__
DelphiProceduralImplementation
p2133
(dp2134
g100
(i__main__
DelphiProceduralDeclaration
p2135
(dp2136
g103
(lp2137
(i__main__
DelphiFormalParameter
p2138
(dp2139
g107
Nsg108
(lp2140
S'x'
asg60
(i__main__
DelphiPrimitiveType
p2141
(dp2142
g30
g31
sbsg113
Nsba(i__main__
DelphiFormalParameter
p2143
(dp2144
g107
Nsg108
(lp2145
S'y'
asg60
(i__main__
DelphiPrimitiveType
p2146
(dp2147
g30
g31
sbsg113
Nsba(i__main__
DelphiFormalParameter
p2148
(dp2149
g107
Nsg108
(lp2150
S'exceptionResult'
p2151
asg60
(i__main__
DelphiPrimitiveType
p2152
(dp2153
g30
g31
sbsg113
Nsbasg23
S'safedivExcept'
p2154
sg120
(i__main__
DelphiPrimitiveType
p2155
(dp2156
g30
g31
sbsbsg23
g2154
sg120
(i__main__
DelphiPrimitiveType
p2157
(dp2158
g30
g31
sbsg125
(lp2159
sg127
(lp2160
sg129
(lp2161
S'x'
aS'y'
aS'exceptionResult'
p2162
asg132
(dp2163
S'y'
(i__main__
DelphiPrimitiveType
p2164
(dp2165
g30
g31
sbsS'x'
(i__main__
DelphiPrimitiveType
p2166
(dp2167
g30
g31
sbsg2162
(i__main__
DelphiPrimitiveType
p2168
(dp2169
g30
g31
sbssg103
(lp2170
(i__main__
DelphiFormalParameter
p2171
(dp2172
g107
Nsg108
(lp2173
S'x'
asg60
g2166
sg113
Nsba(i__main__
DelphiFormalParameter
p2174
(dp2175
g107
Nsg108
(lp2176
S'y'
asg60
g2164
sg113
Nsba(i__main__
DelphiFormalParameter
p2177
(dp2178
g107
Nsg108
(lp2179
g2162
asg60
g2168
sg113
Nsbasg140
(lp2180
sg142
(i__main__
DelphiBlock
p2181
(dp2182
g145
(idelphi
DelphiCompoundStatement
p2183
(dp2184
g148
(lp2185
(idelphi
DelphiTryExceptStatement
p2186
(dp2187
g580
(lp2188
(idelphi
DelphiIfStatement
p2189
(dp2190
g272
(idelphi
DelphiNestedExpressionListAccess
p2191
(dp2192
g160
(lp2193
sg170
(lp2194
(idelphi
DelphiRelOp
p2195
(dp2196
g279
(i__main__
DelphiIdentAccess
p2197
(dp2198
g58
S'y'
sg160
(lp2199
sbsg283
(idelphi
DelphiRealValue
p2200
(dp2201
g56
S'0.0'
p2202
sbsg287
g2018
sbasbsg288
(i__main__
DelphiAssignStatement
p2203
(dp2204
g152
(i__main__
DelphiIdentAccess
p2205
(dp2206
g58
S'exceptionResult'
p2207
sg160
(lp2208
sbsg156
(i__main__
DelphiIdentAccess
p2209
(dp2210
g58
S'result'
p2211
sg160
(lp2212
sbsbsg298
(i__main__
DelphiAssignStatement
p2213
(dp2214
g152
(idelphi
DelphiMulOp
p2215
(dp2216
g213
(i__main__
DelphiIdentAccess
p2217
(dp2218
g58
S'y'
sg160
(lp2219
sbsg217
S'/'
sg218
(i__main__
DelphiIdentAccess
p2220
(dp2221
g58
S'x'
sg160
(lp2222
sbsbsg156
(i__main__
DelphiIdentAccess
p2223
(dp2224
g58
S'result'
p2225
sg160
(lp2226
sbsbsbasg612
(idelphi
DelphiExceptionHandlers
p2227
(dp2228
g615
Nsg616
(lp2229
(i__main__
DelphiAssignStatement
p2230
(dp2231
g152
(i__main__
DelphiIdentAccess
p2232
(dp2233
g58
S'ErrorMessage'
p2234
sg160
(lp2235
(idelphi
DelphiFunctionEndAccess
p2236
(dp2237
g170
(lp2238
(idelphi
DelphiAddOp
p2239
(dp2240
g629
S'+'
sg630
(i__main__
DelphiIdentAccess
p2241
(dp2242
g58
S'floatToStr'
p2243
sg160
(lp2244
(idelphi
DelphiFunctionEndAccess
p2245
(dp2246
g170
(lp2247
(i__main__
DelphiIdentAccess
p2248
(dp2249
g58
S'y'
sg160
(lp2250
sbasbasbsg642
(idelphi
DelphiAddOp
p2251
(dp2252
g629
S'+'
sg630
(idelphi
DelphiStringAccess
p2253
(dp2254
g160
(lp2255
sg56
(idelphi
DelphiStringValue
p2256
(dp2257
g56
S' by '
p2258
sbsbsg642
(idelphi
DelphiAddOp
p2259
(dp2260
g629
S'+'
sg630
(i__main__
DelphiIdentAccess
p2261
(dp2262
g58
S'floatToStr'
p2263
sg160
(lp2264
(idelphi
DelphiFunctionEndAccess
p2265
(dp2266
g170
(lp2267
(i__main__
DelphiIdentAccess
p2268
(dp2269
g58
S'x'
sg160
(lp2270
sbasbasbsg642
(idelphi
DelphiStringAccess
p2271
(dp2272
g160
(lp2273
sg56
(idelphi
DelphiStringValue
p2274
(dp2275
g56
S'Problem in dividing '
p2276
sbsbsbsbsbasbasbsg156
(i__main__
DelphiIdentAccess
p2277
(dp2278
g58
S'result'
p2279
sg160
(lp2280
sbsba(idelphi
DelphiRaiseStatement
p2281
(dp2282
g272
Nsbasbsbasbsg176
(lp2283
sbsg114
(lp2284
S' RE-RAISES EXCEPTION '
p2285
aS' same as safediv except that the user specifies what to return if the denominator is zero '
p2286
asba(i__main__
DelphiProceduralImplementation
p2287
(dp2288
g100
(i__main__
DelphiProceduralDeclaration
p2289
(dp2290
g103
(lp2291
(i__main__
DelphiFormalParameter
p2292
(dp2293
g107
Nsg108
(lp2294
S'x'
asg60
(i__main__
DelphiPrimitiveType
p2295
(dp2296
g30
g31
sbsg113
Nsba(i__main__
DelphiFormalParameter
p2297
(dp2298
g107
Nsg108
(lp2299
S'y'
asg60
(i__main__
DelphiPrimitiveType
p2300
(dp2301
g30
g31
sbsg113
Nsba(i__main__
DelphiFormalParameter
p2302
(dp2303
g107
Nsg108
(lp2304
S'failed'
p2305
asg60
(i__main__
DelphiPrimitiveType
p2306
(dp2307
g30
g1602
sbsg113
g1603
sbasg23
S'safedivWithResult'
p2308
sg120
(i__main__
DelphiPrimitiveType
p2309
(dp2310
g30
g31
sbsbsg23
g2308
sg120
(i__main__
DelphiPrimitiveType
p2311
(dp2312
g30
g31
sbsg125
(lp2313
I2
asg127
(lp2314
sg129
(lp2315
S'x'
aS'y'
aS'failed'
p2316
asg132
(dp2317
S'y'
(i__main__
DelphiPrimitiveType
p2318
(dp2319
g30
g31
sbsS'x'
(i__main__
DelphiPrimitiveType
p2320
(dp2321
g30
g31
sbsg2316
(i__main__
DelphiPrimitiveType
p2322
(dp2323
g30
g1602
sbssg103
(lp2324
(i__main__
DelphiFormalParameter
p2325
(dp2326
g107
Nsg108
(lp2327
S'x'
asg60
g2320
sg113
Nsba(i__main__
DelphiFormalParameter
p2328
(dp2329
g107
Nsg108
(lp2330
S'y'
asg60
g2318
sg113
Nsba(i__main__
DelphiFormalParameter
p2331
(dp2332
g107
Nsg108
(lp2333
g2316
asg60
g2322
sg113
g1603
sbasg140
(lp2334
g2316
asg142
(i__main__
DelphiBlock
p2335
(dp2336
g145
(idelphi
DelphiCompoundStatement
p2337
(dp2338
g148
(lp2339
(i__main__
DelphiAssignStatement
p2340
(dp2341
g152
(i__main__
DelphiIdentAccess
p2342
(dp2343
g58
S'true'
p2344
sg160
(lp2345
sbsg156
(i__main__
DelphiIdentAccess
p2346
(dp2347
g58
S'failed'
p2348
sg160
(lp2349
sbsba(i__main__
DelphiAssignStatement
p2350
(dp2351
g152
(idelphi
DelphiRealValue
p2352
(dp2353
g56
S'0.0'
p2354
sbsg156
(i__main__
DelphiIdentAccess
p2355
(dp2356
g58
S'result'
p2357
sg160
(lp2358
sbsba(i__main__
DelphiAssignStatement
p2359
(dp2360
g152
(idelphi
DelphiRealValue
p2361
(dp2362
g56
S'0.0'
p2363
sbsg156
(i__main__
DelphiIdentAccess
p2364
(dp2365
g58
S'temp'
p2366
sg160
(lp2367
sbsba(idelphi
DelphiIfStatement
p2368
(dp2369
g272
(idelphi
DelphiRelOp
p2370
(dp2371
g279
(i__main__
DelphiIdentAccess
p2372
(dp2373
g58
S'y'
sg160
(lp2374
sbsg283
(idelphi
DelphiRealValue
p2375
(dp2376
g56
S'0.0'
p2377
sbsg287
S'='
sbsg288
Nsg298
(i__main__
DelphiExitStatement
p2378
(dp2379
g1672
g2287
sbsba(idelphi
DelphiTryExceptStatement
p2380
(dp2381
g580
(lp2382
(i__main__
DelphiAssignStatement
p2383
(dp2384
g152
(idelphi
DelphiMulOp
p2385
(dp2386
g213
(i__main__
DelphiIdentAccess
p2387
(dp2388
g58
S'y'
sg160
(lp2389
sbsg217
S'/'
sg218
(i__main__
DelphiIdentAccess
p2390
(dp2391
g58
S'x'
sg160
(lp2392
sbsbsg156
(i__main__
DelphiIdentAccess
p2393
(dp2394
g58
S'temp'
p2395
sg160
(lp2396
sbsbasg612
(idelphi
DelphiExceptionHandlers
p2397
(dp2398
g615
Nsg616
(lp2399
(i__main__
DelphiExitStatement
p2400
(dp2401
g1672
g2287
sbasbsba(i__main__
DelphiAssignStatement
p2402
(dp2403
g152
(i__main__
DelphiIdentAccess
p2404
(dp2405
g58
S'temp'
p2406
sg160
(lp2407
sbsg156
(i__main__
DelphiIdentAccess
p2408
(dp2409
g58
S'result'
p2410
sg160
(lp2411
sbsba(i__main__
DelphiAssignStatement
p2412
(dp2413
g152
(i__main__
DelphiIdentAccess
p2414
(dp2415
g58
S'false'
p2416
sg160
(lp2417
sbsg156
(i__main__
DelphiIdentAccess
p2418
(dp2419
g58
S'failed'
p2420
sg160
(lp2421
sbsbasbsg176
(lp2422
(i__main__
DelphiVarSection
p2423
(dp2424
g80
I0
sg1729
(lp2425
(idelphi
DelphiVarDecl
p2426
(dp2427
g53
Nsg1733
(lp2428
S'temp'
p2429
asg60
(i__main__
DelphiPrimitiveType
p2430
(dp2431
g30
g543
sbsbasbasbsg114
(lp2432
S' same as safediv but does not show an errorMessage or re-raise the exception; just returns whether it failed;\r'
p2433
aS"  used inside paint methods where you don't want error dialogs popping up "
p2434
asba(i__main__
DelphiProceduralImplementation
p2435
(dp2436
g100
(i__main__
DelphiProceduralDeclaration
p2437
(dp2438
g103
(lp2439
(i__main__
DelphiFormalParameter
p2440
(dp2441
g107
Nsg108
(lp2442
S'x'
asg60
(i__main__
DelphiPrimitiveType
p2443
(dp2444
g30
g543
sbsg113
Nsba(i__main__
DelphiFormalParameter
p2445
(dp2446
g107
Nsg108
(lp2447
S'c1'
p2448
asg60
(i__main__
DelphiPrimitiveType
p2449
(dp2450
g30
g543
sbsg113
Nsba(i__main__
DelphiFormalParameter
p2451
(dp2452
g107
Nsg108
(lp2453
S'c2'
p2454
asg60
(i__main__
DelphiPrimitiveType
p2455
(dp2456
g30
g543
sbsg113
Nsbasg114
(lp2457
S' s curves '
p2458
aS' RE-RAISES EXCEPTION '
p2459
aS' this function carries out a structure found in many EPIC equations. '
p2460
asg23
S'scurve'
p2461
sg120
(i__main__
DelphiPrimitiveType
p2462
(dp2463
g30
g543
sbsbsg23
g2461
sg120
(i__main__
DelphiPrimitiveType
p2464
(dp2465
g30
g543
sbsg125
(lp2466
sg127
(lp2467
sg129
(lp2468
S'x'
aS'c1'
p2469
aS'c2'
p2470
asg132
(dp2471
S'x'
(i__main__
DelphiPrimitiveType
p2472
(dp2473
g30
g543
sbsg2469
(i__main__
DelphiPrimitiveType
p2474
(dp2475
g30
g543
sbsg2470
(i__main__
DelphiPrimitiveType
p2476
(dp2477
g30
g543
sbssg103
(lp2478
(i__main__
DelphiFormalParameter
p2479
(dp2480
g107
Nsg108
(lp2481
S'x'
asg60
g2472
sg113
Nsba(i__main__
DelphiFormalParameter
p2482
(dp2483
g107
Nsg108
(lp2484
g2469
asg60
g2474
sg113
Nsba(i__main__
DelphiFormalParameter
p2485
(dp2486
g107
Nsg108
(lp2487
g2470
asg60
g2476
sg113
Nsbasg140
(lp2488
sg142
(i__main__
DelphiBlock
p2489
(dp2490
g145
(idelphi
DelphiCompoundStatement
p2491
(dp2492
g148
(lp2493
(idelphi
DelphiTryExceptStatement
p2494
(dp2495
g580
(lp2496
(i__main__
DelphiAssignStatement
p2497
(dp2498
g152
(idelphi
DelphiAddOp
p2499
(dp2500
g629
S'-'
sg630
(idelphi
DelphiMulOp
p2501
(dp2502
g213
(i__main__
DelphiIdentAccess
p2503
(dp2504
g58
S'x'
sg160
(lp2505
sbsg217
S'*'
sg218
(i__main__
DelphiIdentAccess
p2506
(dp2507
g58
S'c2'
p2508
sg160
(lp2509
sbsbsg642
(i__main__
DelphiIdentAccess
p2510
(dp2511
g58
S'c1'
p2512
sg160
(lp2513
sbsbsg156
(i__main__
DelphiIdentAccess
p2514
(dp2515
g58
S'temp'
p2516
sg160
(lp2517
sbsba(idelphi
DelphiIfStatement
p2518
(dp2519
g272
(idelphi
DelphiRelOp
p2520
(dp2521
g279
(i__main__
DelphiIdentAccess
p2522
(dp2523
g58
S'temp'
p2524
sg160
(lp2525
sbsg283
(idelphi
DelphiRealValue
p2526
(dp2527
g56
S'85.0'
p2528
sbsg287
S'>'
sbsg288
Nsg298
(idelphi
DelphiCompoundStatement
p2529
(dp2530
g148
(lp2531
(i__main__
DelphiAssignStatement
p2532
(dp2533
g152
(idelphi
DelphiRealValue
p2534
(dp2535
g56
S'85.0'
p2536
sbsg156
(i__main__
DelphiIdentAccess
p2537
(dp2538
g58
S'temp'
p2539
sg160
(lp2540
sbsba(idelphi
DelphiRaiseStatement
p2541
(dp2542
g272
(i__main__
DelphiIdentAccess
p2543
(dp2544
g58
S'exception'
p2545
sg160
(lp2546
(idelphi
DelphiFieldEndAccess
p2547
(dp2548
g782
S'create'
p2549
sba(idelphi
DelphiFunctionEndAccess
p2550
(dp2551
g170
(lp2552
(idelphi
DelphiStringAccess
p2553
(dp2554
g160
(lp2555
sg56
(idelphi
DelphiStringValue
p2556
(dp2557
g56
S'Problem: Exponent of number would have gone out of float range.'
p2558
sbsbasbasbsbasbsba(i__main__
DelphiAssignStatement
p2559
(dp2560
g152
(i__main__
DelphiIdentAccess
p2561
(dp2562
g58
S'safediv'
p2563
sg160
(lp2564
(idelphi
DelphiFunctionEndAccess
p2565
(dp2566
g170
(lp2567
(i__main__
DelphiIdentAccess
p2568
(dp2569
g58
S'x'
sg160
(lp2570
sba(idelphi
DelphiAddOp
p2571
(dp2572
g629
S'+'
sg630
(i__main__
DelphiIdentAccess
p2573
(dp2574
g58
S'safeExp'
p2575
sg160
(lp2576
(idelphi
DelphiFunctionEndAccess
p2577
(dp2578
g170
(lp2579
(i__main__
DelphiIdentAccess
p2580
(dp2581
g58
S'temp'
p2582
sg160
(lp2583
sbasbasbsg642
(i__main__
DelphiIdentAccess
p2584
(dp2585
g58
S'x'
sg160
(lp2586
sbsbasbasbsg156
(i__main__
DelphiIdentAccess
p2587
(dp2588
g58
S'result'
p2589
sg160
(lp2590
sbsbasg612
(idelphi
DelphiExceptionHandlers
p2591
(dp2592
g615
Nsg616
(lp2593
(i__main__
DelphiAssignStatement
p2594
(dp2595
g152
(i__main__
DelphiIdentAccess
p2596
(dp2597
g58
S'errorMessage'
p2598
sg160
(lp2599
(idelphi
DelphiFunctionEndAccess
p2600
(dp2601
g170
(lp2602
(idelphi
DelphiAddOp
p2603
(dp2604
g629
S'+'
sg630
(i__main__
DelphiIdentAccess
p2605
(dp2606
g58
S'floatToStr'
p2607
sg160
(lp2608
(idelphi
DelphiFunctionEndAccess
p2609
(dp2610
g170
(lp2611
(i__main__
DelphiIdentAccess
p2612
(dp2613
g58
S'c2'
p2614
sg160
(lp2615
sbasbasbsg642
(idelphi
DelphiAddOp
p2616
(dp2617
g629
S'+'
sg630
(idelphi
DelphiStringAccess
p2618
(dp2619
g160
(lp2620
sg56
(idelphi
DelphiStringValue
p2621
(dp2622
g56
S', and '
p2623
sbsbsg642
(idelphi
DelphiAddOp
p2624
(dp2625
g629
S'+'
sg630
(i__main__
DelphiIdentAccess
p2626
(dp2627
g58
S'floatToStr'
p2628
sg160
(lp2629
(idelphi
DelphiFunctionEndAccess
p2630
(dp2631
g170
(lp2632
(i__main__
DelphiIdentAccess
p2633
(dp2634
g58
S'c1'
p2635
sg160
(lp2636
sbasbasbsg642
(idelphi
DelphiAddOp
p2637
(dp2638
g629
S'+'
sg630
(idelphi
DelphiStringAccess
p2639
(dp2640
g160
(lp2641
sg56
(idelphi
DelphiStringValue
p2642
(dp2643
g56
S', '
p2644
sbsbsg642
(idelphi
DelphiAddOp
p2645
(dp2646
g629
S'+'
sg630
(i__main__
DelphiIdentAccess
p2647
(dp2648
g58
S'floatToStr'
p2649
sg160
(lp2650
(idelphi
DelphiFunctionEndAccess
p2651
(dp2652
g170
(lp2653
(i__main__
DelphiIdentAccess
p2654
(dp2655
g58
S'x'
sg160
(lp2656
sbasbasbsg642
(idelphi
DelphiStringAccess
p2657
(dp2658
g160
(lp2659
sg56
(idelphi
DelphiStringValue
p2660
(dp2661
g56
S'Problem in s curve: numbers are '
p2662
sbsbsbsbsbsbsbasbasbsg156
(i__main__
DelphiIdentAccess
p2663
(dp2664
g58
S'result'
p2665
sg160
(lp2666
sbsba(idelphi
DelphiRaiseStatement
p2667
(dp2668
g272
Nsbasbsbasbsg176
(lp2669
(i__main__
DelphiVarSection
p2670
(dp2671
g80
I0
sg1729
(lp2672
(idelphi
DelphiVarDecl
p2673
(dp2674
g53
Nsg1733
(lp2675
S'temp'
p2676
asg60
(i__main__
DelphiPrimitiveType
p2677
(dp2678
g30
g543
sbsbasbasbsg114
g2457
sba(i__main__
DelphiProceduralImplementation
p2679
(dp2680
g100
(i__main__
DelphiProceduralDeclaration
p2681
(dp2682
g103
(lp2683
(i__main__
DelphiFormalParameter
p2684
(dp2685
g107
Nsg108
(lp2686
S'x'
asg60
(i__main__
DelphiPrimitiveType
p2687
(dp2688
g30
g543
sbsg113
Nsba(i__main__
DelphiFormalParameter
p2689
(dp2690
g107
Nsg108
(lp2691
S'c1'
p2692
asg60
(i__main__
DelphiPrimitiveType
p2693
(dp2694
g30
g543
sbsg113
Nsba(i__main__
DelphiFormalParameter
p2695
(dp2696
g107
Nsg108
(lp2697
S'c2'
p2698
asg60
(i__main__
DelphiPrimitiveType
p2699
(dp2700
g30
g543
sbsg113
Nsba(i__main__
DelphiFormalParameter
p2701
(dp2702
g107
Nsg108
(lp2703
S'failed'
p2704
asg60
(i__main__
DelphiPrimitiveType
p2705
(dp2706
g30
g1602
sbsg113
g1603
sbasg23
S'scurveWithResult'
p2707
sg120
(i__main__
DelphiPrimitiveType
p2708
(dp2709
g30
g543
sbsbsg23
g2707
sg120
(i__main__
DelphiPrimitiveType
p2710
(dp2711
g30
g543
sbsg125
(lp2712
I3
asg127
(lp2713
sg129
(lp2714
S'x'
aS'c1'
p2715
aS'c2'
p2716
aS'failed'
p2717
asg132
(dp2718
S'x'
(i__main__
DelphiPrimitiveType
p2719
(dp2720
g30
g543
sbsg2715
(i__main__
DelphiPrimitiveType
p2721
(dp2722
g30
g543
sbsg2717
(i__main__
DelphiPrimitiveType
p2723
(dp2724
g30
g1602
sbsg2716
(i__main__
DelphiPrimitiveType
p2725
(dp2726
g30
g543
sbssg103
(lp2727
(i__main__
DelphiFormalParameter
p2728
(dp2729
g107
Nsg108
(lp2730
S'x'
asg60
g2719
sg113
Nsba(i__main__
DelphiFormalParameter
p2731
(dp2732
g107
Nsg108
(lp2733
g2715
asg60
g2721
sg113
Nsba(i__main__
DelphiFormalParameter
p2734
(dp2735
g107
Nsg108
(lp2736
g2716
asg60
g2725
sg113
Nsba(i__main__
DelphiFormalParameter
p2737
(dp2738
g107
Nsg108
(lp2739
g2717
asg60
g2723
sg113
g1603
sbasg140
(lp2740
g2717
asg142
(i__main__
DelphiBlock
p2741
(dp2742
g145
(idelphi
DelphiCompoundStatement
p2743
(dp2744
g148
(lp2745
(i__main__
DelphiAssignStatement
p2746
(dp2747
g152
(i__main__
DelphiIdentAccess
p2748
(dp2749
g58
S'true'
p2750
sg160
(lp2751
sbsg156
(i__main__
DelphiIdentAccess
p2752
(dp2753
g58
S'failed'
p2754
sg160
(lp2755
sbsba(i__main__
DelphiAssignStatement
p2756
(dp2757
g152
(idelphi
DelphiRealValue
p2758
(dp2759
g56
S'0.0'
p2760
sbsg156
(i__main__
DelphiIdentAccess
p2761
(dp2762
g58
S'result'
p2763
sg160
(lp2764
sbsba(i__main__
DelphiAssignStatement
p2765
(dp2766
g152
(idelphi
DelphiRealValue
p2767
(dp2768
g56
S'0.0'
p2769
sbsg156
(i__main__
DelphiIdentAccess
p2770
(dp2771
g58
S'temp'
p2772
sg160
(lp2773
sbsba(idelphi
DelphiTryExceptStatement
p2774
(dp2775
g580
(lp2776
(i__main__
DelphiAssignStatement
p2777
(dp2778
g152
(idelphi
DelphiAddOp
p2779
(dp2780
g629
S'-'
sg630
(idelphi
DelphiMulOp
p2781
(dp2782
g213
(i__main__
DelphiIdentAccess
p2783
(dp2784
g58
S'x'
sg160
(lp2785
sbsg217
S'*'
sg218
(i__main__
DelphiIdentAccess
p2786
(dp2787
g58
S'c2'
p2788
sg160
(lp2789
sbsbsg642
(i__main__
DelphiIdentAccess
p2790
(dp2791
g58
S'c1'
p2792
sg160
(lp2793
sbsbsg156
(i__main__
DelphiIdentAccess
p2794
(dp2795
g58
S'temp'
p2796
sg160
(lp2797
sbsba(idelphi
DelphiIfStatement
p2798
(dp2799
g272
(idelphi
DelphiRelOp
p2800
(dp2801
g279
(i__main__
DelphiIdentAccess
p2802
(dp2803
g58
S'temp'
p2804
sg160
(lp2805
sbsg283
(idelphi
DelphiRealValue
p2806
(dp2807
g56
S'85.0'
p2808
sbsg287
S'>'
sbsg288
Nsg298
(i__main__
DelphiExitStatement
p2809
(dp2810
g1672
g2679
sbsba(i__main__
DelphiAssignStatement
p2811
(dp2812
g152
(i__main__
DelphiIdentAccess
p2813
(dp2814
g58
S'safeExpWithResult'
p2815
sg160
(lp2816
(idelphi
DelphiFunctionEndAccess
p2817
(dp2818
g170
(lp2819
(i__main__
DelphiIdentAccess
p2820
(dp2821
g58
S'temp'
p2822
sg160
(lp2823
sba(i__main__
DelphiIdentAccess
p2824
(dp2825
g58
S'failed'
p2826
sg160
(lp2827
sbasbasbsg156
(i__main__
DelphiIdentAccess
p2828
(dp2829
g58
S'temp'
p2830
sg160
(lp2831
sbsba(idelphi
DelphiIfStatement
p2832
(dp2833
g272
(i__main__
DelphiIdentAccess
p2834
(dp2835
g58
S'failed'
p2836
sg160
(lp2837
sbsg288
Nsg298
(i__main__
DelphiExitStatement
p2838
(dp2839
g1672
g2679
sbsba(i__main__
DelphiAssignStatement
p2840
(dp2841
g152
(i__main__
DelphiIdentAccess
p2842
(dp2843
g58
S'safedivWithResult'
p2844
sg160
(lp2845
(idelphi
DelphiFunctionEndAccess
p2846
(dp2847
g170
(lp2848
(i__main__
DelphiIdentAccess
p2849
(dp2850
g58
S'x'
sg160
(lp2851
sba(idelphi
DelphiAddOp
p2852
(dp2853
g629
S'+'
sg630
(i__main__
DelphiIdentAccess
p2854
(dp2855
g58
S'temp'
p2856
sg160
(lp2857
sbsg642
(i__main__
DelphiIdentAccess
p2858
(dp2859
g58
S'x'
sg160
(lp2860
sbsba(i__main__
DelphiIdentAccess
p2861
(dp2862
g58
S'failed'
p2863
sg160
(lp2864
sbasbasbsg156
(i__main__
DelphiIdentAccess
p2865
(dp2866
g58
S'temp'
p2867
sg160
(lp2868
sbsba(idelphi
DelphiIfStatement
p2869
(dp2870
g272
(i__main__
DelphiIdentAccess
p2871
(dp2872
g58
S'failed'
p2873
sg160
(lp2874
sbsg288
Nsg298
(i__main__
DelphiExitStatement
p2875
(dp2876
g1672
g2679
sbsbasg612
(idelphi
DelphiExceptionHandlers
p2877
(dp2878
g615
Nsg616
(lp2879
(i__main__
DelphiExitStatement
p2880
(dp2881
g1672
g2679
sbasbsba(i__main__
DelphiAssignStatement
p2882
(dp2883
g152
(i__main__
DelphiIdentAccess
p2884
(dp2885
g58
S'false'
p2886
sg160
(lp2887
sbsg156
(i__main__
DelphiIdentAccess
p2888
(dp2889
g58
S'failed'
p2890
sg160
(lp2891
sbsba(i__main__
DelphiAssignStatement
p2892
(dp2893
g152
(i__main__
DelphiIdentAccess
p2894
(dp2895
g58
S'temp'
p2896
sg160
(lp2897
sbsg156
(i__main__
DelphiIdentAccess
p2898
(dp2899
g58
S'result'
p2900
sg160
(lp2901
sbsbasbsg176
(lp2902
(i__main__
DelphiVarSection
p2903
(dp2904
g80
I0
sg1729
(lp2905
(idelphi
DelphiVarDecl
p2906
(dp2907
g53
Nsg1733
(lp2908
S'temp'
p2909
asg60
(i__main__
DelphiPrimitiveType
p2910
(dp2911
g30
g543
sbsbasbasbsg114
(lp2912
S' same as scurve but does not show an errorMessage or re-raise the exception; just returns whether it failed;\r'
p2913
aS"  used inside paint methods where you don't want error dialogs popping up "
p2914
asba(i__main__
DelphiProceduralImplementation
p2915
(dp2916
g100
(i__main__
DelphiProceduralDeclaration
p2917
(dp2918
g103
(lp2919
(i__main__
DelphiFormalParameter
p2920
(dp2921
g107
Nsg108
(lp2922
S'sCurve'
p2923
asg60
(i__main__
DelphiNamedType
p2924
(dp2925
g30
S'SCurveStructure'
p2926
sS'unitDefinedIn'
p2927
g1
sS'unitName'
p2928
Nsbsg113
g1603
sbasg23
S'calcSCurveCoeffs'
p2929
sg120
Nsbsg23
g2929
sg120
Nsg125
(lp2930
sg127
(lp2931
S'sCurve'
p2932
asg129
(lp2933
g2932
asg132
(dp2934
g2932
(i__main__
DelphiNamedType
p2935
(dp2936
g30
S'SCurveStructure'
p2937
sg2927
g1
sg2928
Nsbssg103
(lp2938
(i__main__
DelphiFormalParameter
p2939
(dp2940
g107
Nsg108
(lp2941
g2932
asg60
g2935
sg113
g1603
sbasg140
(lp2942
sg142
(i__main__
DelphiBlock
p2943
(dp2944
g145
(idelphi
DelphiCompoundStatement
p2945
(dp2946
g148
(lp2947
(idelphi
DelphiTryExceptStatement
p2948
(dp2949
g580
(lp2950
(idelphi
DelphiWithStatement
p2951
(dp2952
S'statement'
p2953
(idelphi
DelphiCompoundStatement
p2954
(dp2955
g148
(lp2956
(idelphi
DelphiIfStatement
p2957
(dp2958
g272
(idelphi
DelphiAddOp
p2959
(dp2960
g629
S'or'
p2961
sg630
(idelphi
DelphiNestedExpressionListAccess
p2962
(dp2963
g160
(lp2964
sg170
(lp2965
(idelphi
DelphiRelOp
p2966
(dp2967
g279
(i__main__
DelphiIdentAccess
p2968
(dp2969
g58
S'y2'
p2970
sg160
(lp2971
sbsg283
(idelphi
DelphiRealValue
p2972
(dp2973
g56
S'1.0'
p2974
sbsg287
S'>='
p2975
sbasbsg642
(idelphi
DelphiAddOp
p2976
(dp2977
g629
g2961
sg630
(idelphi
DelphiNestedExpressionListAccess
p2978
(dp2979
g160
(lp2980
sg170
(lp2981
(idelphi
DelphiRelOp
p2982
(dp2983
g279
(i__main__
DelphiIdentAccess
p2984
(dp2985
g58
S'x2'
p2986
sg160
(lp2987
sbsg283
(idelphi
DelphiRealValue
p2988
(dp2989
g56
S'1.0'
p2990
sbsg287
g2975
sbasbsg642
(idelphi
DelphiAddOp
p2991
(dp2992
g629
g2961
sg630
(idelphi
DelphiNestedExpressionListAccess
p2993
(dp2994
g160
(lp2995
sg170
(lp2996
(idelphi
DelphiRelOp
p2997
(dp2998
g279
(i__main__
DelphiIdentAccess
p2999
(dp3000
g58
S'y1'
p3001
sg160
(lp3002
sbsg283
(idelphi
DelphiRealValue
p3003
(dp3004
g56
S'1.0'
p3005
sbsg287
g2975
sbasbsg642
(idelphi
DelphiAddOp
p3006
(dp3007
g629
g2961
sg630
(idelphi
DelphiNestedExpressionListAccess
p3008
(dp3009
g160
(lp3010
sg170
(lp3011
(idelphi
DelphiRelOp
p3012
(dp3013
g279
(i__main__
DelphiIdentAccess
p3014
(dp3015
g58
S'x1'
p3016
sg160
(lp3017
sbsg283
(idelphi
DelphiRealValue
p3018
(dp3019
g56
S'1.0'
p3020
sbsg287
g2975
sbasbsg642
(idelphi
DelphiAddOp
p3021
(dp3022
g629
g2961
sg630
(idelphi
DelphiNestedExpressionListAccess
p3023
(dp3024
g160
(lp3025
sg170
(lp3026
(idelphi
DelphiRelOp
p3027
(dp3028
g279
(i__main__
DelphiIdentAccess
p3029
(dp3030
g58
S'y2'
p3031
sg160
(lp3032
sbsg283
(idelphi
DelphiRealValue
p3033
(dp3034
g56
S'0.0'
p3035
sbsg287
g1669
sbasbsg642
(idelphi
DelphiAddOp
p3036
(dp3037
g629
g2961
sg630
(idelphi
DelphiNestedExpressionListAccess
p3038
(dp3039
g160
(lp3040
sg170
(lp3041
(idelphi
DelphiRelOp
p3042
(dp3043
g279
(i__main__
DelphiIdentAccess
p3044
(dp3045
g58
S'x2'
p3046
sg160
(lp3047
sbsg283
(idelphi
DelphiRealValue
p3048
(dp3049
g56
S'0.0'
p3050
sbsg287
g1669
sbasbsg642
(idelphi
DelphiAddOp
p3051
(dp3052
g629
g2961
sg630
(idelphi
DelphiNestedExpressionListAccess
p3053
(dp3054
g160
(lp3055
sg170
(lp3056
(idelphi
DelphiRelOp
p3057
(dp3058
g279
(i__main__
DelphiIdentAccess
p3059
(dp3060
g58
S'y1'
p3061
sg160
(lp3062
sbsg283
(idelphi
DelphiRealValue
p3063
(dp3064
g56
S'0.0'
p3065
sbsg287
g1669
sbasbsg642
(idelphi
DelphiNestedExpressionListAccess
p3066
(dp3067
g160
(lp3068
sg170
(lp3069
(idelphi
DelphiRelOp
p3070
(dp3071
g279
(i__main__
DelphiIdentAccess
p3072
(dp3073
g58
S'x1'
p3074
sg160
(lp3075
sbsg283
(idelphi
DelphiRealValue
p3076
(dp3077
g56
S'0.0'
p3078
sbsg287
g1669
sbasbsbsbsbsbsbsbsbsg288
Nsg298
(idelphi
DelphiCompoundStatement
p3079
(dp3080
g148
(lp3081
(i__main__
DelphiAssignStatement
p3082
(dp3083
g152
(idelphi
DelphiRealValue
p3084
(dp3085
g56
S'0.25'
p3086
sbsg156
(i__main__
DelphiIdentAccess
p3087
(dp3088
g58
S'x1'
p3089
sg160
(lp3090
sbsg114
(lp3091
S' instead of raising exception, just hard-code whole curve to acceptable values\r'
p3092
aS" don't use Parameters.tab default in case that was read in wrong also\r"
p3093
asba(i__main__
DelphiAssignStatement
p3094
(dp3095
g152
(idelphi
DelphiRealValue
p3096
(dp3097
g56
S'0.1'
p3098
sbsg156
(i__main__
DelphiIdentAccess
p3099
(dp3100
g58
S'y1'
p3101
sg160
(lp3102
sbsba(i__main__
DelphiAssignStatement
p3103
(dp3104
g152
(idelphi
DelphiRealValue
p3105
(dp3106
g56
S'0.65'
p3107
sbsg156
(i__main__
DelphiIdentAccess
p3108
(dp3109
g58
S'x2'
p3110
sg160
(lp3111
sbsba(i__main__
DelphiAssignStatement
p3112
(dp3113
g152
(idelphi
DelphiRealValue
p3114
(dp3115
g56
S'0.85'
p3116
sbsg156
(i__main__
DelphiIdentAccess
p3117
(dp3118
g58
S'y2'
p3119
sg160
(lp3120
sbsbasbsba(i__main__
DelphiAssignStatement
p3121
(dp3122
g152
(i__main__
DelphiIdentAccess
p3123
(dp3124
g58
S'safeLn'
p3125
sg160
(lp3126
(idelphi
DelphiFunctionEndAccess
p3127
(dp3128
g170
(lp3129
(idelphi
DelphiAddOp
p3130
(dp3131
g629
S'-'
sg630
(i__main__
DelphiIdentAccess
p3132
(dp3133
g58
S'x1'
p3134
sg160
(lp3135
sbsg642
(i__main__
DelphiIdentAccess
p3136
(dp3137
g58
S'safediv'
p3138
sg160
(lp3139
(idelphi
DelphiFunctionEndAccess
p3140
(dp3141
g170
(lp3142
(i__main__
DelphiIdentAccess
p3143
(dp3144
g58
S'x1'
p3145
sg160
(lp3146
sba(i__main__
DelphiIdentAccess
p3147
(dp3148
g58
S'y1'
p3149
sg160
(lp3150
sbasbasbsbasbasbsg156
(i__main__
DelphiIdentAccess
p3151
(dp3152
g58
S'xx'
p3153
sg160
(lp3154
sbsba(i__main__
DelphiAssignStatement
p3155
(dp3156
g152
(i__main__
DelphiIdentAccess
p3157
(dp3158
g58
S'safediv'
p3159
sg160
(lp3160
(idelphi
DelphiFunctionEndAccess
p3161
(dp3162
g170
(lp3163
(idelphi
DelphiNestedExpressionListAccess
p3164
(dp3165
g160
(lp3166
sg170
(lp3167
(idelphi
DelphiAddOp
p3168
(dp3169
g629
S'-'
sg630
(i__main__
DelphiIdentAccess
p3170
(dp3171
g58
S'safeLn'
p3172
sg160
(lp3173
(idelphi
DelphiFunctionEndAccess
p3174
(dp3175
g170
(lp3176
(idelphi
DelphiAddOp
p3177
(dp3178
g629
S'-'
sg630
(i__main__
DelphiIdentAccess
p3179
(dp3180
g58
S'x2'
p3181
sg160
(lp3182
sbsg642
(i__main__
DelphiIdentAccess
p3183
(dp3184
g58
S'safediv'
p3185
sg160
(lp3186
(idelphi
DelphiFunctionEndAccess
p3187
(dp3188
g170
(lp3189
(i__main__
DelphiIdentAccess
p3190
(dp3191
g58
S'x2'
p3192
sg160
(lp3193
sba(i__main__
DelphiIdentAccess
p3194
(dp3195
g58
S'y2'
p3196
sg160
(lp3197
sbasbasbsbasbasbsg642
(i__main__
DelphiIdentAccess
p3198
(dp3199
g58
S'xx'
p3200
sg160
(lp3201
sbsbasba(idelphi
DelphiAddOp
p3202
(dp3203
g629
S'-'
sg630
(i__main__
DelphiIdentAccess
p3204
(dp3205
g58
S'x1'
p3206
sg160
(lp3207
sbsg642
(i__main__
DelphiIdentAccess
p3208
(dp3209
g58
S'x2'
p3210
sg160
(lp3211
sbsbasbasbsg156
(i__main__
DelphiIdentAccess
p3212
(dp3213
g58
S'c2'
p3214
sg160
(lp3215
sbsba(i__main__
DelphiAssignStatement
p3216
(dp3217
g152
(idelphi
DelphiAddOp
p3218
(dp3219
g629
S'+'
sg630
(idelphi
DelphiMulOp
p3220
(dp3221
g213
(i__main__
DelphiIdentAccess
p3222
(dp3223
g58
S'c2'
p3224
sg160
(lp3225
sbsg217
S'*'
sg218
(i__main__
DelphiIdentAccess
p3226
(dp3227
g58
S'x1'
p3228
sg160
(lp3229
sbsbsg642
(i__main__
DelphiIdentAccess
p3230
(dp3231
g58
S'xx'
p3232
sg160
(lp3233
sbsbsg156
(i__main__
DelphiIdentAccess
p3234
(dp3235
g58
S'c1'
p3236
sg160
(lp3237
sbsbasbsS'variableReferenceList'
p3238
(lp3239
(i__main__
DelphiIdentAccess
p3240
(dp3241
g58
S'sCurve'
p3242
sg160
(lp3243
sbasbasg612
(idelphi
DelphiExceptionHandlers
p3244
(dp3245
g615
(lp3246
(idelphi
DelphiExceptionHandler
p3247
(dp3248
S'classTypeIdentifier'
p3249
(i__main__
DelphiNamedType
p3250
(dp3251
g30
S'Exception'
p3252
sg2927
g1
sg2928
Nsbsg58
S'e'
sg2953
(idelphi
DelphiCompoundStatement
p3253
(dp3254
g148
(lp3255
(i__main__
DelphiAssignStatement
p3256
(dp3257
g152
(idelphi
DelphiRealValue
p3258
(dp3259
g56
S'0.25'
p3260
sbsg156
(i__main__
DelphiIdentAccess
p3261
(dp3262
g58
S'scurve'
p3263
sg160
(lp3264
(idelphi
DelphiFieldEndAccess
p3265
(dp3266
g782
S'x1'
p3267
sbasbsg114
(lp3268
S' set s curve to all acceptable values - safest '
p3269
asba(i__main__
DelphiAssignStatement
p3270
(dp3271
g152
(idelphi
DelphiRealValue
p3272
(dp3273
g56
S'0.1'
p3274
sbsg156
(i__main__
DelphiIdentAccess
p3275
(dp3276
g58
S'scurve'
p3277
sg160
(lp3278
(idelphi
DelphiFieldEndAccess
p3279
(dp3280
g782
S'y1'
p3281
sbasbsba(i__main__
DelphiAssignStatement
p3282
(dp3283
g152
(idelphi
DelphiRealValue
p3284
(dp3285
g56
S'0.65'
p3286
sbsg156
(i__main__
DelphiIdentAccess
p3287
(dp3288
g58
S'sCurve'
p3289
sg160
(lp3290
(idelphi
DelphiFieldEndAccess
p3291
(dp3292
g782
S'x2'
p3293
sbasbsba(i__main__
DelphiAssignStatement
p3294
(dp3295
g152
(idelphi
DelphiRealValue
p3296
(dp3297
g56
S'0.85'
p3298
sbsg156
(i__main__
DelphiIdentAccess
p3299
(dp3300
g58
S'sCurve'
p3301
sg160
(lp3302
(idelphi
DelphiFieldEndAccess
p3303
(dp3304
g782
S'y2'
p3305
sbasbsba(idelphi
DelphiRaiseStatement
p3306
(dp3307
g272
Nsbasbsbasg616
(lp3308
sbsbasbsg176
(lp3309
(i__main__
DelphiVarSection
p3310
(dp3311
g80
I0
sg1729
(lp3312
(idelphi
DelphiVarDecl
p3313
(dp3314
g53
Nsg1733
(lp3315
S'xx'
p3316
asg60
(i__main__
DelphiPrimitiveType
p3317
(dp3318
g30
g543
sbsbasbasbsg114
(lp3319
S' s curve params '
p3320
aS' RE-RAISES EXCEPTION '
p3321
aS' deal with zero s curve values by defaulting whole curve to hard-coded values\r'
p3322
asba(i__main__
DelphiProceduralImplementation
p3323
(dp3324
g100
(i__main__
DelphiProceduralDeclaration
p3325
(dp3326
g103
(lp3327
(i__main__
DelphiFormalParameter
p3328
(dp3329
g107
Nsg108
(lp3330
S'sCurve'
p3331
asg60
(i__main__
DelphiNamedType
p3332
(dp3333
g30
S'SCurveStructure'
p3334
sg2927
g1
sg2928
Nsbsg113
g1603
sba(i__main__
DelphiFormalParameter
p3335
(dp3336
g107
Nsg108
(lp3337
S'failed'
p3338
asg60
(i__main__
DelphiPrimitiveType
p3339
(dp3340
g30
g1602
sbsg113
g1603
sbasg23
S'calcSCurveCoeffsWithResult'
p3341
sg120
Nsbsg23
g3341
sg120
Nsg125
(lp3342
I1
asg127
(lp3343
S'sCurve'
p3344
asg129
(lp3345
g3344
aS'failed'
p3346
asg132
(dp3347
g3346
(i__main__
DelphiPrimitiveType
p3348
(dp3349
g30
g1602
sbsg3344
(i__main__
DelphiNamedType
p3350
(dp3351
g30
S'SCurveStructure'
p3352
sg2927
g1
sg2928
Nsbssg103
(lp3353
(i__main__
DelphiFormalParameter
p3354
(dp3355
g107
Nsg108
(lp3356
g3344
asg60
g3350
sg113
g1603
sba(i__main__
DelphiFormalParameter
p3357
(dp3358
g107
Nsg108
(lp3359
g3346
asg60
g3348
sg113
g1603
sbasg140
(lp3360
g3346
asg142
(i__main__
DelphiBlock
p3361
(dp3362
g145
(idelphi
DelphiCompoundStatement
p3363
(dp3364
g148
(lp3365
(i__main__
DelphiAssignStatement
p3366
(dp3367
g152
(i__main__
DelphiIdentAccess
p3368
(dp3369
g58
S'true'
p3370
sg160
(lp3371
sbsg156
(i__main__
DelphiIdentAccess
p3372
(dp3373
g58
S'failed'
p3374
sg160
(lp3375
sbsba(idelphi
DelphiTryExceptStatement
p3376
(dp3377
g580
(lp3378
(idelphi
DelphiWithStatement
p3379
(dp3380
g2953
(idelphi
DelphiCompoundStatement
p3381
(dp3382
g148
(lp3383
(i__main__
DelphiAssignStatement
p3384
(dp3385
g152
(i__main__
DelphiIdentAccess
p3386
(dp3387
g58
S'safedivWithResult'
p3388
sg160
(lp3389
(idelphi
DelphiFunctionEndAccess
p3390
(dp3391
g170
(lp3392
(i__main__
DelphiIdentAccess
p3393
(dp3394
g58
S'x1'
p3395
sg160
(lp3396
sba(i__main__
DelphiIdentAccess
p3397
(dp3398
g58
S'y1'
p3399
sg160
(lp3400
sba(i__main__
DelphiIdentAccess
p3401
(dp3402
g58
S'failed'
p3403
sg160
(lp3404
sbasbasbsg156
(i__main__
DelphiIdentAccess
p3405
(dp3406
g58
S'quotientX1Y1'
p3407
sg160
(lp3408
sbsba(idelphi
DelphiIfStatement
p3409
(dp3410
g272
(i__main__
DelphiIdentAccess
p3411
(dp3412
g58
S'failed'
p3413
sg160
(lp3414
sbsg288
Nsg298
(i__main__
DelphiExitStatement
p3415
(dp3416
g1672
g3323
sbsba(i__main__
DelphiAssignStatement
p3417
(dp3418
g152
(i__main__
DelphiIdentAccess
p3419
(dp3420
g58
S'safeLnWithResult'
p3421
sg160
(lp3422
(idelphi
DelphiFunctionEndAccess
p3423
(dp3424
g170
(lp3425
(idelphi
DelphiAddOp
p3426
(dp3427
g629
S'-'
sg630
(i__main__
DelphiIdentAccess
p3428
(dp3429
g58
S'x1'
p3430
sg160
(lp3431
sbsg642
(i__main__
DelphiIdentAccess
p3432
(dp3433
g58
S'quotientX1Y1'
p3434
sg160
(lp3435
sbsba(i__main__
DelphiIdentAccess
p3436
(dp3437
g58
S'failed'
p3438
sg160
(lp3439
sbasbasbsg156
(i__main__
DelphiIdentAccess
p3440
(dp3441
g58
S'lnQuotientX1Y1MinusX1'
p3442
sg160
(lp3443
sbsba(idelphi
DelphiIfStatement
p3444
(dp3445
g272
(i__main__
DelphiIdentAccess
p3446
(dp3447
g58
S'failed'
p3448
sg160
(lp3449
sbsg288
Nsg298
(i__main__
DelphiExitStatement
p3450
(dp3451
g1672
g3323
sbsba(i__main__
DelphiAssignStatement
p3452
(dp3453
g152
(i__main__
DelphiIdentAccess
p3454
(dp3455
g58
S'safedivWithResult'
p3456
sg160
(lp3457
(idelphi
DelphiFunctionEndAccess
p3458
(dp3459
g170
(lp3460
(i__main__
DelphiIdentAccess
p3461
(dp3462
g58
S'x2'
p3463
sg160
(lp3464
sba(i__main__
DelphiIdentAccess
p3465
(dp3466
g58
S'y2'
p3467
sg160
(lp3468
sba(i__main__
DelphiIdentAccess
p3469
(dp3470
g58
S'failed'
p3471
sg160
(lp3472
sbasbasbsg156
(i__main__
DelphiIdentAccess
p3473
(dp3474
g58
S'quotientX2Y2'
p3475
sg160
(lp3476
sbsba(idelphi
DelphiIfStatement
p3477
(dp3478
g272
(i__main__
DelphiIdentAccess
p3479
(dp3480
g58
S'failed'
p3481
sg160
(lp3482
sbsg288
Nsg298
(i__main__
DelphiExitStatement
p3483
(dp3484
g1672
g3323
sbsba(i__main__
DelphiAssignStatement
p3485
(dp3486
g152
(i__main__
DelphiIdentAccess
p3487
(dp3488
g58
S'safeLnWithResult'
p3489
sg160
(lp3490
(idelphi
DelphiFunctionEndAccess
p3491
(dp3492
g170
(lp3493
(idelphi
DelphiAddOp
p3494
(dp3495
g629
S'-'
sg630
(i__main__
DelphiIdentAccess
p3496
(dp3497
g58
S'x2'
p3498
sg160
(lp3499
sbsg642
(i__main__
DelphiIdentAccess
p3500
(dp3501
g58
S'quotientX2Y2'
p3502
sg160
(lp3503
sbsba(i__main__
DelphiIdentAccess
p3504
(dp3505
g58
S'failed'
p3506
sg160
(lp3507
sbasbasbsg156
(i__main__
DelphiIdentAccess
p3508
(dp3509
g58
S'lnQuotientX2Y2MinusX2'
p3510
sg160
(lp3511
sbsba(idelphi
DelphiIfStatement
p3512
(dp3513
g272
(i__main__
DelphiIdentAccess
p3514
(dp3515
g58
S'failed'
p3516
sg160
(lp3517
sbsg288
Nsg298
(i__main__
DelphiExitStatement
p3518
(dp3519
g1672
g3323
sbsba(i__main__
DelphiAssignStatement
p3520
(dp3521
g152
(i__main__
DelphiIdentAccess
p3522
(dp3523
g58
S'safedivWithResult'
p3524
sg160
(lp3525
(idelphi
DelphiFunctionEndAccess
p3526
(dp3527
g170
(lp3528
(idelphi
DelphiAddOp
p3529
(dp3530
g629
S'-'
sg630
(i__main__
DelphiIdentAccess
p3531
(dp3532
g58
S'lnQuotientX2Y2MinusX2'
p3533
sg160
(lp3534
sbsg642
(i__main__
DelphiIdentAccess
p3535
(dp3536
g58
S'lnQuotientX1Y1MinusX1'
p3537
sg160
(lp3538
sbsba(idelphi
DelphiAddOp
p3539
(dp3540
g629
S'-'
sg630
(i__main__
DelphiIdentAccess
p3541
(dp3542
g58
S'x1'
p3543
sg160
(lp3544
sbsg642
(i__main__
DelphiIdentAccess
p3545
(dp3546
g58
S'x2'
p3547
sg160
(lp3548
sbsba(i__main__
DelphiIdentAccess
p3549
(dp3550
g58
S'failed'
p3551
sg160
(lp3552
sbasbasbsg156
(i__main__
DelphiIdentAccess
p3553
(dp3554
g58
S'c2temp'
p3555
sg160
(lp3556
sbsba(idelphi
DelphiIfStatement
p3557
(dp3558
g272
(i__main__
DelphiIdentAccess
p3559
(dp3560
g58
S'failed'
p3561
sg160
(lp3562
sbsg288
Nsg298
(i__main__
DelphiExitStatement
p3563
(dp3564
g1672
g3323
sbsba(i__main__
DelphiAssignStatement
p3565
(dp3566
g152
(idelphi
DelphiAddOp
p3567
(dp3568
g629
S'+'
sg630
(idelphi
DelphiMulOp
p3569
(dp3570
g213
(i__main__
DelphiIdentAccess
p3571
(dp3572
g58
S'c2temp'
p3573
sg160
(lp3574
sbsg217
S'*'
sg218
(i__main__
DelphiIdentAccess
p3575
(dp3576
g58
S'x1'
p3577
sg160
(lp3578
sbsbsg642
(i__main__
DelphiIdentAccess
p3579
(dp3580
g58
S'lnQuotientX1Y1MinusX1'
p3581
sg160
(lp3582
sbsbsg156
(i__main__
DelphiIdentAccess
p3583
(dp3584
g58
S'c1temp'
p3585
sg160
(lp3586
sbsbasbsg3238
(lp3587
(i__main__
DelphiIdentAccess
p3588
(dp3589
g58
S'sCurve'
p3590
sg160
(lp3591
sbasbasg612
(idelphi
DelphiExceptionHandlers
p3592
(dp3593
g615
Nsg616
(lp3594
(i__main__
DelphiExitStatement
p3595
(dp3596
g1672
g3323
sbasbsba(i__main__
DelphiAssignStatement
p3597
(dp3598
g152
(i__main__
DelphiIdentAccess
p3599
(dp3600
g58
S'c1temp'
p3601
sg160
(lp3602
sbsg156
(i__main__
DelphiIdentAccess
p3603
(dp3604
g58
S'sCurve'
p3605
sg160
(lp3606
(idelphi
DelphiFieldEndAccess
p3607
(dp3608
g782
S'c1'
p3609
sbasbsba(i__main__
DelphiAssignStatement
p3610
(dp3611
g152
(i__main__
DelphiIdentAccess
p3612
(dp3613
g58
S'c2temp'
p3614
sg160
(lp3615
sbsg156
(i__main__
DelphiIdentAccess
p3616
(dp3617
g58
S'sCurve'
p3618
sg160
(lp3619
(idelphi
DelphiFieldEndAccess
p3620
(dp3621
g782
S'c2'
p3622
sbasbsba(i__main__
DelphiAssignStatement
p3623
(dp3624
g152
(i__main__
DelphiIdentAccess
p3625
(dp3626
g58
S'false'
p3627
sg160
(lp3628
sbsg156
(i__main__
DelphiIdentAccess
p3629
(dp3630
g58
S'failed'
p3631
sg160
(lp3632
sbsbasbsg176
(lp3633
(i__main__
DelphiVarSection
p3634
(dp3635
g80
I0
sg1729
(lp3636
(idelphi
DelphiVarDecl
p3637
(dp3638
g53
Nsg1733
(lp3639
S'quotientX1Y1'
p3640
aS'lnQuotientX1Y1MinusX1'
p3641
aS'quotientX2Y2'
p3642
aS'lnQuotientX2Y2MinusX2'
p3643
aS'c1temp'
p3644
aS'c2temp'
p3645
asg60
(i__main__
DelphiPrimitiveType
p3646
(dp3647
g30
g543
sbsbasbasbsg114
(lp3648
S' same as Utils_CalcSCurveCoeffs but does not show an errorMessage or re-raise the exception;\r'
p3649
aS"  just returns whether it failed; used inside paint methods where you don't want error dialogs popping up "
p3650
asba(i__main__
DelphiProceduralImplementation
p3651
(dp3652
g100
(i__main__
DelphiProceduralDeclaration
p3653
(dp3654
g103
(lp3655
(i__main__
DelphiFormalParameter
p3656
(dp3657
g107
Nsg108
(lp3658
S'direction'
p3659
asg60
(i__main__
DelphiPrimitiveType
p3660
(dp3661
g30
g393
sbsg113
Nsba(i__main__
DelphiFormalParameter
p3662
(dp3663
g107
Nsg108
(lp3664
S'param'
p3665
asg60
(i__main__
DelphiNamedType
p3666
(dp3667
g30
S'sCurveStructure'
p3668
sg2927
g1
sg2928
Nsbsg113
g1603
sba(i__main__
DelphiFormalParameter
p3669
(dp3670
g107
Nsg108
(lp3671
S'index'
p3672
asg60
(i__main__
DelphiPrimitiveType
p3673
(dp3674
g30
g393
sbsg113
Nsba(i__main__
DelphiFormalParameter
p3675
(dp3676
g107
Nsg108
(lp3677
S'value'
p3678
asg60
Nsg113
g1603
sbasg23
S'transferSCurveValue'
p3679
sg120
Nsbsg23
g3679
sg120
Nsg125
(lp3680
I3
asg127
(lp3681
S'param'
p3682
asg129
(lp3683
S'direction'
p3684
ag3682
ag3672
aS'value'
p3685
asg132
(dp3686
g3672
(i__main__
DelphiPrimitiveType
p3687
(dp3688
g30
g393
sbsg3684
(i__main__
DelphiPrimitiveType
p3689
(dp3690
g30
g393
sbsg3685
Nsg3682
(i__main__
DelphiNamedType
p3691
(dp3692
g30
S'sCurveStructure'
p3693
sg2927
g1
sg2928
Nsbssg103
(lp3694
(i__main__
DelphiFormalParameter
p3695
(dp3696
g107
Nsg108
(lp3697
g3684
asg60
g3689
sg113
Nsba(i__main__
DelphiFormalParameter
p3698
(dp3699
g107
Nsg108
(lp3700
g3682
asg60
g3691
sg113
g1603
sba(i__main__
DelphiFormalParameter
p3701
(dp3702
g107
Nsg108
(lp3703
g3672
asg60
g3687
sg113
Nsba(i__main__
DelphiFormalParameter
p3704
(dp3705
g107
Nsg108
(lp3706
g3685
asg60
Nsg113
g1603
sbasg140
(lp3707
g3685
asg142
(i__main__
DelphiBlock
p3708
(dp3709
g145
(idelphi
DelphiCompoundStatement
p3710
(dp3711
g148
(lp3712
(idelphi
DelphiIfStatement
p3713
(dp3714
g272
(idelphi
DelphiNestedExpressionListAccess
p3715
(dp3716
g160
(lp3717
sg170
(lp3718
(idelphi
DelphiRelOp
p3719
(dp3720
g279
(i__main__
DelphiIdentAccess
p3721
(dp3722
g58
S'direction'
p3723
sg160
(lp3724
sbsg283
(i__main__
DelphiIdentAccess
p3725
(dp3726
g58
S'kGetField'
p3727
sg160
(lp3728
sbsg287
S'='
sbasbsg288
(idelphi
DelphiCompoundStatement
p3729
(dp3730
g148
(lp3731
(idelphi
DelphiCaseStatement
p3732
(dp3733
S'elseStatement'
p3734
Nsg272
(i__main__
DelphiIdentAccess
p3735
(dp3736
g58
g3672
sg160
(lp3737
sbsS'caseSelectorList'
p3738
(lp3739
(idelphi
DelphiCaseSelector
p3740
(dp3741
g2953
(i__main__
DelphiAssignStatement
p3742
(dp3743
g152
(i__main__
DelphiValueTypecastAccess
p3744
(dp3745
S'valueTypecast'
p3746
(i__main__
DelphiValueTypecast
p3747
(dp3748
g272
(i__main__
DelphiIdentAccess
p3749
(dp3750
g58
S'value'
p3751
sg160
(lp3752
sbsS'typeIdentPredefined'
p3753
(i__main__
DelphiPrimitiveType
p3754
(dp3755
g30
g31
sbsbsg160
(lp3756
sbsg156
(i__main__
DelphiIdentAccess
p3757
(dp3758
g58
S'param'
p3759
sg160
(lp3760
(idelphi
DelphiFieldEndAccess
p3761
(dp3762
g782
S'x1'
p3763
sbasbsg114
(lp3764
S' direction == kSetField '
p3765
asbsS'caseLabelList'
p3766
(lp3767
(idelphi
DelphiIntegerValue
p3768
(dp3769
g56
S'0'
sbasba(idelphi
DelphiCaseSelector
p3770
(dp3771
g2953
(i__main__
DelphiAssignStatement
p3772
(dp3773
g152
(i__main__
DelphiValueTypecastAccess
p3774
(dp3775
g3746
(i__main__
DelphiValueTypecast
p3776
(dp3777
g272
(i__main__
DelphiIdentAccess
p3778
(dp3779
g58
S'value'
p3780
sg160
(lp3781
sbsg3753
(i__main__
DelphiPrimitiveType
p3782
(dp3783
g30
g31
sbsbsg160
(lp3784
sbsg156
(i__main__
DelphiIdentAccess
p3785
(dp3786
g58
S'param'
p3787
sg160
(lp3788
(idelphi
DelphiFieldEndAccess
p3789
(dp3790
g782
S'y1'
p3791
sbasbsbsg3766
(lp3792
(idelphi
DelphiIntegerValue
p3793
(dp3794
g56
S'1'
sbasba(idelphi
DelphiCaseSelector
p3795
(dp3796
g2953
(i__main__
DelphiAssignStatement
p3797
(dp3798
g152
(i__main__
DelphiValueTypecastAccess
p3799
(dp3800
g3746
(i__main__
DelphiValueTypecast
p3801
(dp3802
g272
(i__main__
DelphiIdentAccess
p3803
(dp3804
g58
S'value'
p3805
sg160
(lp3806
sbsg3753
(i__main__
DelphiPrimitiveType
p3807
(dp3808
g30
g31
sbsbsg160
(lp3809
sbsg156
(i__main__
DelphiIdentAccess
p3810
(dp3811
g58
S'param'
p3812
sg160
(lp3813
(idelphi
DelphiFieldEndAccess
p3814
(dp3815
g782
S'x2'
p3816
sbasbsbsg3766
(lp3817
(idelphi
DelphiIntegerValue
p3818
(dp3819
g56
S'2'
sbasba(idelphi
DelphiCaseSelector
p3820
(dp3821
g2953
(i__main__
DelphiAssignStatement
p3822
(dp3823
g152
(i__main__
DelphiValueTypecastAccess
p3824
(dp3825
g3746
(i__main__
DelphiValueTypecast
p3826
(dp3827
g272
(i__main__
DelphiIdentAccess
p3828
(dp3829
g58
S'value'
p3830
sg160
(lp3831
sbsg3753
(i__main__
DelphiPrimitiveType
p3832
(dp3833
g30
g31
sbsbsg160
(lp3834
sbsg156
(i__main__
DelphiIdentAccess
p3835
(dp3836
g58
S'param'
p3837
sg160
(lp3838
(idelphi
DelphiFieldEndAccess
p3839
(dp3840
g782
S'y2'
p3841
sbasbsbsg3766
(lp3842
(idelphi
DelphiIntegerValue
p3843
(dp3844
g56
S'3'
sbasbasbasbsg298
(idelphi
DelphiCompoundStatement
p3845
(dp3846
g148
(lp3847
(idelphi
DelphiCaseStatement
p3848
(dp3849
g3734
Nsg272
(i__main__
DelphiIdentAccess
p3850
(dp3851
g58
g3672
sg160
(lp3852
sbsg3738
(lp3853
(idelphi
DelphiCaseSelector
p3854
(dp3855
g2953
(i__main__
DelphiAssignStatement
p3856
(dp3857
g152
(i__main__
DelphiIdentAccess
p3858
(dp3859
g58
S'param'
p3860
sg160
(lp3861
(idelphi
DelphiFieldEndAccess
p3862
(dp3863
g782
S'x1'
p3864
sbasbsg156
(i__main__
DelphiValueTypecastAccess
p3865
(dp3866
g3746
(i__main__
DelphiValueTypecast
p3867
(dp3868
g272
(i__main__
DelphiIdentAccess
p3869
(dp3870
g58
S'value'
p3871
sg160
(lp3872
sbsg3753
(i__main__
DelphiPrimitiveType
p3873
(dp3874
g30
g31
sbsbsg160
(lp3875
sbsbsg3766
(lp3876
(idelphi
DelphiIntegerValue
p3877
(dp3878
g56
S'0'
sbasba(idelphi
DelphiCaseSelector
p3879
(dp3880
g2953
(i__main__
DelphiAssignStatement
p3881
(dp3882
g152
(i__main__
DelphiIdentAccess
p3883
(dp3884
g58
S'param'
p3885
sg160
(lp3886
(idelphi
DelphiFieldEndAccess
p3887
(dp3888
g782
S'y1'
p3889
sbasbsg156
(i__main__
DelphiValueTypecastAccess
p3890
(dp3891
g3746
(i__main__
DelphiValueTypecast
p3892
(dp3893
g272
(i__main__
DelphiIdentAccess
p3894
(dp3895
g58
S'value'
p3896
sg160
(lp3897
sbsg3753
(i__main__
DelphiPrimitiveType
p3898
(dp3899
g30
g31
sbsbsg160
(lp3900
sbsbsg3766
(lp3901
(idelphi
DelphiIntegerValue
p3902
(dp3903
g56
S'1'
sbasba(idelphi
DelphiCaseSelector
p3904
(dp3905
g2953
(i__main__
DelphiAssignStatement
p3906
(dp3907
g152
(i__main__
DelphiIdentAccess
p3908
(dp3909
g58
S'param'
p3910
sg160
(lp3911
(idelphi
DelphiFieldEndAccess
p3912
(dp3913
g782
S'x2'
p3914
sbasbsg156
(i__main__
DelphiValueTypecastAccess
p3915
(dp3916
g3746
(i__main__
DelphiValueTypecast
p3917
(dp3918
g272
(i__main__
DelphiIdentAccess
p3919
(dp3920
g58
S'value'
p3921
sg160
(lp3922
sbsg3753
(i__main__
DelphiPrimitiveType
p3923
(dp3924
g30
g31
sbsbsg160
(lp3925
sbsbsg3766
(lp3926
(idelphi
DelphiIntegerValue
p3927
(dp3928
g56
S'2'
sbasba(idelphi
DelphiCaseSelector
p3929
(dp3930
g2953
(i__main__
DelphiAssignStatement
p3931
(dp3932
g152
(i__main__
DelphiIdentAccess
p3933
(dp3934
g58
S'param'
p3935
sg160
(lp3936
(idelphi
DelphiFieldEndAccess
p3937
(dp3938
g782
S'y2'
p3939
sbasbsg156
(i__main__
DelphiValueTypecastAccess
p3940
(dp3941
g3746
(i__main__
DelphiValueTypecast
p3942
(dp3943
g272
(i__main__
DelphiIdentAccess
p3944
(dp3945
g58
S'value'
p3946
sg160
(lp3947
sbsg3753
(i__main__
DelphiPrimitiveType
p3948
(dp3949
g30
g31
sbsbsg160
(lp3950
sbsbsg3766
(lp3951
(idelphi
DelphiIntegerValue
p3952
(dp3953
g56
S'3'
sbasbasbasbsbasbsg176
(lp3954
sbsba(i__main__
DelphiProceduralImplementation
p3955
(dp3956
g100
(i__main__
DelphiProceduralDeclaration
p3957
(dp3958
g103
(lp3959
(i__main__
DelphiFormalParameter
p3960
(dp3961
g107
Nsg108
(lp3962
S'aString'
p3963
asg60
(i__main__
DelphiPrimitiveType
p3964
(dp3965
g30
g56
sbsg113
Nsbasg23
S'stringToSCurve'
p3966
sg120
(i__main__
DelphiNamedType
p3967
(dp3968
g30
S'SCurveStructure'
p3969
sg2927
g1
sg2928
Nsbsbsg23
g3966
sg120
(i__main__
DelphiNamedType
p3970
(dp3971
g30
S'SCurveStructure'
p3972
sg2927
g1
sg2928
Nsbsg125
(lp3973
sg127
(lp3974
sg129
(lp3975
S'aString'
p3976
asg132
(dp3977
g3976
(i__main__
DelphiPrimitiveType
p3978
(dp3979
g30
g56
sbssg103
(lp3980
(i__main__
DelphiFormalParameter
p3981
(dp3982
g107
Nsg108
(lp3983
g3976
asg60
g3978
sg113
Nsbasg140
(lp3984
sg142
(i__main__
DelphiBlock
p3985
(dp3986
g145
(idelphi
DelphiCompoundStatement
p3987
(dp3988
g148
(lp3989
(i__main__
DelphiAssignStatement
p3990
(dp3991
g152
(idelphi
DelphiIntegerValue
p3992
(dp3993
g56
S'0'
sbsg156
(i__main__
DelphiIdentAccess
p3994
(dp3995
g58
S'result'
p3996
sg160
(lp3997
(idelphi
DelphiFieldEndAccess
p3998
(dp3999
g782
S'x1'
p4000
sbasbsba(i__main__
DelphiAssignStatement
p4001
(dp4002
g152
(idelphi
DelphiIntegerValue
p4003
(dp4004
g56
S'0'
sbsg156
(i__main__
DelphiIdentAccess
p4005
(dp4006
g58
S'result'
p4007
sg160
(lp4008
(idelphi
DelphiFieldEndAccess
p4009
(dp4010
g782
S'y1'
p4011
sbasbsba(i__main__
DelphiAssignStatement
p4012
(dp4013
g152
(idelphi
DelphiIntegerValue
p4014
(dp4015
g56
S'0'
sbsg156
(i__main__
DelphiIdentAccess
p4016
(dp4017
g58
S'result'
p4018
sg160
(lp4019
(idelphi
DelphiFieldEndAccess
p4020
(dp4021
g782
S'x2'
p4022
sbasbsba(i__main__
DelphiAssignStatement
p4023
(dp4024
g152
(idelphi
DelphiIntegerValue
p4025
(dp4026
g56
S'0'
sbsg156
(i__main__
DelphiIdentAccess
p4027
(dp4028
g58
S'result'
p4029
sg160
(lp4030
(idelphi
DelphiFieldEndAccess
p4031
(dp4032
g782
S'y2'
p4033
sbasbsba(i__main__
DelphiAssignStatement
p4034
(dp4035
g152
(idelphi
DelphiIntegerValue
p4036
(dp4037
g56
S'0'
sbsg156
(i__main__
DelphiIdentAccess
p4038
(dp4039
g58
S'result'
p4040
sg160
(lp4041
(idelphi
DelphiFieldEndAccess
p4042
(dp4043
g782
S'c1'
p4044
sbasbsba(i__main__
DelphiAssignStatement
p4045
(dp4046
g152
(idelphi
DelphiIntegerValue
p4047
(dp4048
g56
S'0'
sbsg156
(i__main__
DelphiIdentAccess
p4049
(dp4050
g58
S'result'
p4051
sg160
(lp4052
(idelphi
DelphiFieldEndAccess
p4053
(dp4054
g782
S'c2'
p4055
sbasbsba(i__main__
DelphiAssignStatement
p4056
(dp4057
g152
(i__main__
DelphiIdentAccess
p4058
(dp4059
g58
S'KfStringStream'
p4060
sg160
(lp4061
(idelphi
DelphiFieldEndAccess
p4062
(dp4063
g782
S'create'
p4064
sbasbsg156
(i__main__
DelphiIdentAccess
p4065
(dp4066
g58
S'stream'
p4067
sg160
(lp4068
sbsg114
(lp4069
S' format is x1 y1 x2 y2 '
p4070
asba(idelphi
DelphiTryFinallyStatement
p4071
(dp4072
g580
(lp4073
(i__main__
DelphiAssignStatement
p4074
(dp4075
g152
Nsg156
(i__main__
DelphiIdentAccess
p4076
(dp4077
g58
S'stream'
p4078
sg160
(lp4079
(idelphi
DelphiFieldEndAccess
p4080
(dp4081
g782
S'onStringSeparator'
p4082
sba(idelphi
DelphiFunctionEndAccess
p4083
(dp4084
g170
(lp4085
(i__main__
DelphiIdentAccess
p4086
(dp4087
g58
S'aString'
p4088
sg160
(lp4089
sba(idelphi
DelphiStringAccess
p4090
(dp4091
g160
(lp4092
sg56
(idelphi
DelphiStringValue
p4093
(dp4094
g56
S' '
sbsbasbasbsba(i__main__
DelphiAssignStatement
p4095
(dp4096
g152
Nsg156
(i__main__
DelphiIdentAccess
p4097
(dp4098
g58
S'boundForString'
p4099
sg160
(lp4100
(idelphi
DelphiFunctionEndAccess
p4101
(dp4102
g170
(lp4103
(i__main__
DelphiIdentAccess
p4104
(dp4105
g58
S'stream'
p4106
sg160
(lp4107
(idelphi
DelphiFieldEndAccess
p4108
(dp4109
g782
S'nextToken'
p4110
sbasba(i__main__
DelphiIdentAccess
p4111
(dp4112
g58
S'kFieldFloat'
p4113
sg160
(lp4114
sba(i__main__
DelphiIdentAccess
p4115
(dp4116
g58
S'result'
p4117
sg160
(lp4118
(idelphi
DelphiFieldEndAccess
p4119
(dp4120
g782
S'x1'
p4121
sbasbasbasbsba(i__main__
DelphiAssignStatement
p4122
(dp4123
g152
Nsg156
(i__main__
DelphiIdentAccess
p4124
(dp4125
g58
S'boundForString'
p4126
sg160
(lp4127
(idelphi
DelphiFunctionEndAccess
p4128
(dp4129
g170
(lp4130
(i__main__
DelphiIdentAccess
p4131
(dp4132
g58
S'stream'
p4133
sg160
(lp4134
(idelphi
DelphiFieldEndAccess
p4135
(dp4136
g782
S'nextToken'
p4137
sbasba(i__main__
DelphiIdentAccess
p4138
(dp4139
g58
S'kFieldFloat'
p4140
sg160
(lp4141
sba(i__main__
DelphiIdentAccess
p4142
(dp4143
g58
S'result'
p4144
sg160
(lp4145
(idelphi
DelphiFieldEndAccess
p4146
(dp4147
g782
S'y1'
p4148
sbasbasbasbsba(i__main__
DelphiAssignStatement
p4149
(dp4150
g152
Nsg156
(i__main__
DelphiIdentAccess
p4151
(dp4152
g58
S'boundForString'
p4153
sg160
(lp4154
(idelphi
DelphiFunctionEndAccess
p4155
(dp4156
g170
(lp4157
(i__main__
DelphiIdentAccess
p4158
(dp4159
g58
S'stream'
p4160
sg160
(lp4161
(idelphi
DelphiFieldEndAccess
p4162
(dp4163
g782
S'nextToken'
p4164
sbasba(i__main__
DelphiIdentAccess
p4165
(dp4166
g58
S'kFieldFloat'
p4167
sg160
(lp4168
sba(i__main__
DelphiIdentAccess
p4169
(dp4170
g58
S'result'
p4171
sg160
(lp4172
(idelphi
DelphiFieldEndAccess
p4173
(dp4174
g782
S'x2'
p4175
sbasbasbasbsba(i__main__
DelphiAssignStatement
p4176
(dp4177
g152
Nsg156
(i__main__
DelphiIdentAccess
p4178
(dp4179
g58
S'boundForString'
p4180
sg160
(lp4181
(idelphi
DelphiFunctionEndAccess
p4182
(dp4183
g170
(lp4184
(i__main__
DelphiIdentAccess
p4185
(dp4186
g58
S'stream'
p4187
sg160
(lp4188
(idelphi
DelphiFieldEndAccess
p4189
(dp4190
g782
S'nextToken'
p4191
sbasba(i__main__
DelphiIdentAccess
p4192
(dp4193
g58
S'kFieldFloat'
p4194
sg160
(lp4195
sba(i__main__
DelphiIdentAccess
p4196
(dp4197
g58
S'result'
p4198
sg160
(lp4199
(idelphi
DelphiFieldEndAccess
p4200
(dp4201
g782
S'y2'
p4202
sbasbasbasbsbasS'finallyStatements'
p4203
(lp4204
(i__main__
DelphiAssignStatement
p4205
(dp4206
g152
Nsg156
(i__main__
DelphiIdentAccess
p4207
(dp4208
g58
S'stream'
p4209
sg160
(lp4210
(idelphi
DelphiFieldEndAccess
p4211
(dp4212
g782
S'free'
p4213
sbasbsbasbasbsg176
(lp4214
(i__main__
DelphiVarSection
p4215
(dp4216
g80
I0
sg1729
(lp4217
(idelphi
DelphiVarDecl
p4218
(dp4219
g53
Nsg1733
(lp4220
S'stream'
p4221
asg60
(i__main__
DelphiNamedType
p4222
(dp4223
g30
S'KfStringStream'
p4224
sg2927
g1
sg2928
Nsbsbasbasbsba(i__main__
DelphiProceduralImplementation
p4225
(dp4226
g100
(i__main__
DelphiProceduralDeclaration
p4227
(dp4228
g103
(lp4229
(i__main__
DelphiFormalParameter
p4230
(dp4231
g107
Nsg108
(lp4232
S'sCurve'
p4233
asg60
(i__main__
DelphiNamedType
p4234
(dp4235
g30
S'SCurveStructure'
p4236
sg2927
g1
sg2928
Nsbsg113
Nsbasg23
S'sCurveToString'
p4237
sg120
(i__main__
DelphiPrimitiveType
p4238
(dp4239
g30
g56
sbsbsg23
g4237
sg120
(i__main__
DelphiPrimitiveType
p4240
(dp4241
g30
g56
sbsg125
(lp4242
sg127
(lp4243
sg129
(lp4244
S'sCurve'
p4245
asg132
(dp4246
g4245
(i__main__
DelphiNamedType
p4247
(dp4248
g30
S'SCurveStructure'
p4249
sg2927
g1
sg2928
Nsbssg103
(lp4250
(i__main__
DelphiFormalParameter
p4251
(dp4252
g107
Nsg108
(lp4253
g4245
asg60
g4247
sg113
Nsbasg140
(lp4254
sg142
(i__main__
DelphiBlock
p4255
(dp4256
g145
(idelphi
DelphiCompoundStatement
p4257
(dp4258
g148
(lp4259
(i__main__
DelphiAssignStatement
p4260
(dp4261
g152
(idelphi
DelphiAddOp
p4262
(dp4263
g629
S'+'
sg630
(i__main__
DelphiIdentAccess
p4264
(dp4265
g58
S'digitValueString'
p4266
sg160
(lp4267
(idelphi
DelphiFunctionEndAccess
p4268
(dp4269
g170
(lp4270
(i__main__
DelphiIdentAccess
p4271
(dp4272
g58
S'sCurve'
p4273
sg160
(lp4274
(idelphi
DelphiFieldEndAccess
p4275
(dp4276
g782
S'y2'
p4277
sbasbasbasbsg642
(idelphi
DelphiAddOp
p4278
(dp4279
g629
S'+'
sg630
(idelphi
DelphiStringAccess
p4280
(dp4281
g160
(lp4282
sg56
(idelphi
DelphiStringValue
p4283
(dp4284
g56
S' '
sbsbsg642
(idelphi
DelphiAddOp
p4285
(dp4286
g629
S'+'
sg630
(i__main__
DelphiIdentAccess
p4287
(dp4288
g58
S'digitValueString'
p4289
sg160
(lp4290
(idelphi
DelphiFunctionEndAccess
p4291
(dp4292
g170
(lp4293
(i__main__
DelphiIdentAccess
p4294
(dp4295
g58
S'sCurve'
p4296
sg160
(lp4297
(idelphi
DelphiFieldEndAccess
p4298
(dp4299
g782
S'x2'
p4300
sbasbasbasbsg642
(idelphi
DelphiAddOp
p4301
(dp4302
g629
S'+'
sg630
(idelphi
DelphiStringAccess
p4303
(dp4304
g160
(lp4305
sg56
(idelphi
DelphiStringValue
p4306
(dp4307
g56
S' '
sbsbsg642
(idelphi
DelphiAddOp
p4308
(dp4309
g629
S'+'
sg630
(i__main__
DelphiIdentAccess
p4310
(dp4311
g58
S'digitValueString'
p4312
sg160
(lp4313
(idelphi
DelphiFunctionEndAccess
p4314
(dp4315
g170
(lp4316
(i__main__
DelphiIdentAccess
p4317
(dp4318
g58
S'sCurve'
p4319
sg160
(lp4320
(idelphi
DelphiFieldEndAccess
p4321
(dp4322
g782
S'y1'
p4323
sbasbasbasbsg642
(idelphi
DelphiAddOp
p4324
(dp4325
g629
S'+'
sg630
(idelphi
DelphiStringAccess
p4326
(dp4327
g160
(lp4328
sg56
(idelphi
DelphiStringValue
p4329
(dp4330
g56
S' '
sbsbsg642
(i__main__
DelphiIdentAccess
p4331
(dp4332
g58
S'digitValueString'
p4333
sg160
(lp4334
(idelphi
DelphiFunctionEndAccess
p4335
(dp4336
g170
(lp4337
(i__main__
DelphiIdentAccess
p4338
(dp4339
g58
S'sCurve'
p4340
sg160
(lp4341
(idelphi
DelphiFieldEndAccess
p4342
(dp4343
g782
S'x1'
p4344
sbasbasbasbsbsbsbsbsbsbsg156
(i__main__
DelphiIdentAccess
p4345
(dp4346
g58
S'result'
p4347
sg160
(lp4348
sbsbasbsg176
(lp4349
sbsba(i__main__
DelphiConstSection
p4350
(dp4351
g49
(lp4352
(idelphi
DelphiConstDeclaration
p4353
(dp4354
g53
(idelphi
DelphiIntegerValue
p4355
(dp4356
g56
S'4'
sbsg58
S'kPlantProximityNeeded'
p4357
sg60
(idelphi
DelphiPrimitiveType
p4358
(dp4359
g30
g63
sbsbasg80
I1
sba(i__main__
DelphiProceduralImplementation
p4360
(dp4361
g100
(i__main__
DelphiProceduralDeclaration
p4362
(dp4363
g103
(lp4364
(i__main__
DelphiFormalParameter
p4365
(dp4366
g107
Nsg108
(lp4367
S'point1'
p4368
asg60
(i__main__
DelphiNamedType
p4369
(dp4370
g30
S'TPoint'
p4371
sg2927
g1
sg2928
Nsbsg113
Nsba(i__main__
DelphiFormalParameter
p4372
(dp4373
g107
Nsg108
(lp4374
S'point2'
p4375
asg60
(i__main__
DelphiNamedType
p4376
(dp4377
g30
S'TPoint'
p4378
sg2927
g1
sg2928
Nsbsg113
Nsbasg114
(lp4379
S' graphics '
p4380
aS'CFK NOTE you may want to change this if you use this function\r'
p4381
aS'  to actually click on plant parts '
p4382
aS' this is not being used to select plant parts, the drawing surface is doing it\r'
p4383
asg23
S'pointsAreCloseEnough'
p4384
sg120
(i__main__
DelphiPrimitiveType
p4385
(dp4386
g30
g1602
sbsbsg23
g4384
sg120
(i__main__
DelphiPrimitiveType
p4387
(dp4388
g30
g1602
sbsg125
(lp4389
sg127
(lp4390
sg129
(lp4391
S'point1'
p4392
aS'point2'
p4393
asg132
(dp4394
g4392
(i__main__
DelphiNamedType
p4395
(dp4396
g30
S'TPoint'
p4397
sg2927
g1
sg2928
Nsbsg4393
(i__main__
DelphiNamedType
p4398
(dp4399
g30
S'TPoint'
p4400
sg2927
g1
sg2928
Nsbssg103
(lp4401
(i__main__
DelphiFormalParameter
p4402
(dp4403
g107
Nsg108
(lp4404
g4392
asg60
g4395
sg113
Nsba(i__main__
DelphiFormalParameter
p4405
(dp4406
g107
Nsg108
(lp4407
g4393
asg60
g4398
sg113
Nsbasg140
(lp4408
sg142
(i__main__
DelphiBlock
p4409
(dp4410
g145
(idelphi
DelphiCompoundStatement
p4411
(dp4412
g148
(lp4413
(i__main__
DelphiAssignStatement
p4414
(dp4415
g152
(idelphi
DelphiMulOp
p4416
(dp4417
g213
(idelphi
DelphiNestedExpressionListAccess
p4418
(dp4419
g160
(lp4420
sg170
(lp4421
(idelphi
DelphiRelOp
p4422
(dp4423
g279
(i__main__
DelphiIdentAccess
p4424
(dp4425
g58
S'abs'
p4426
sg160
(lp4427
(idelphi
DelphiFunctionEndAccess
p4428
(dp4429
g170
(lp4430
(idelphi
DelphiAddOp
p4431
(dp4432
g629
S'-'
sg630
(i__main__
DelphiIdentAccess
p4433
(dp4434
g58
S'point2'
p4435
sg160
(lp4436
(idelphi
DelphiFieldEndAccess
p4437
(dp4438
g782
S'y'
sbasbsg642
(i__main__
DelphiIdentAccess
p4439
(dp4440
g58
S'point1'
p4441
sg160
(lp4442
(idelphi
DelphiFieldEndAccess
p4443
(dp4444
g782
S'y'
sbasbsbasbasbsg283
(i__main__
DelphiIdentAccess
p4445
(dp4446
g58
S'kPlantProximityNeeded'
p4447
sg160
(lp4448
sbsg287
S'<'
sbasbsg217
S'and'
p4449
sg218
(idelphi
DelphiNestedExpressionListAccess
p4450
(dp4451
g160
(lp4452
sg170
(lp4453
(idelphi
DelphiRelOp
p4454
(dp4455
g279
(i__main__
DelphiIdentAccess
p4456
(dp4457
g58
S'abs'
p4458
sg160
(lp4459
(idelphi
DelphiFunctionEndAccess
p4460
(dp4461
g170
(lp4462
(idelphi
DelphiAddOp
p4463
(dp4464
g629
S'-'
sg630
(i__main__
DelphiIdentAccess
p4465
(dp4466
g58
S'point2'
p4467
sg160
(lp4468
(idelphi
DelphiFieldEndAccess
p4469
(dp4470
g782
S'x'
sbasbsg642
(i__main__
DelphiIdentAccess
p4471
(dp4472
g58
S'point1'
p4473
sg160
(lp4474
(idelphi
DelphiFieldEndAccess
p4475
(dp4476
g782
S'x'
sbasbsbasbasbsg283
(i__main__
DelphiIdentAccess
p4477
(dp4478
g58
S'kPlantProximityNeeded'
p4479
sg160
(lp4480
sbsg287
S'<'
sbasbsbsg156
(i__main__
DelphiIdentAccess
p4481
(dp4482
g58
S'result'
p4483
sg160
(lp4484
sbsbasbsg176
(lp4485
sbsg114
g4379
sbasS'includedUnits'
p4486
NsS'implementationUses'
p4487
(lp4488
S'Dialogs'
p4489
aS'SysUtils'
p4490
aS'uunits'
p4491
aS'udebug'
p4492
aS'usstream'
p4493
aS'uparams'
p4494
asg23
S'umath'
p4495
sS'constSections'
p4496
(lp4497
g47
ag81
ag1283
ag4350
asS'globalsInProperCase'
p4498
NsS'interfaceUses'
p4499
(lp4500
S'delphi_compatability'
p4501
aS'WinTypes'
p4502
aS'usupport'
p4503
asS'finalCommentToken'
p4504
(i__main__
PassStatement
p4505
(dp4506
g176
(lp4507
sbsS'varSections'
p4508
(lp4509
sS'globals'
p4510
NsS'originalFileName'
p4511
S'../../PlantStudioInPython/converted_source/used/umath.pas'
p4512
sS'proceduralImplementations'
p4513
(dp4514
S'errormessage'
p4515
g98
sS'pow'
p4516
g532
sS'safeexp'
p4517
g1741
sS'calcscurvecoeffs'
p4518
g2915
sS'tan'
p4519
g965
sS'power'
p4520
g684
sS'safediv'
p4521
g1960
sS'safedivwithresult'
p4522
g2287
sS'transferscurvevalue'
p4523
g3651
sS'pointsarecloseenough'
p4524
g4360
sS'scurvewithresult'
p4525
g2679
sS'max'
p4526
g309
sS'log10'
p4527
g1294
sS'stringtoscurve'
p4528
g3955
sS'safedivexcept'
p4529
g2133
sS'arcsin'
p4530
g1170
sS'sqr'
p4531
g178
sS'scurvetostring'
p4532
g4225
sS'intmin'
p4533
g383
sS'calcscurvecoeffswithresult'
p4534
g3323
sS'safeln'
p4535
g1440
sS'intmax'
p4536
g458
sS'safelnwithresult'
p4537
g1586
sS'min'
p4538
g229
sS'arccos'
p4539
g1066
sS'safeexpwithresult'
p4540
g1832
sS'scurve'
p4541
g2435
ssS'fileName'
p4542
S'/Users/pdf/Documents/workspace/PlantStudioInPython/converted_source/used/umath.pas'
p4543
sS'proceduralDeclarations'
p4544
(dp4545
S'errormessage'
p4546
g101
sS'pow'
p4547
g534
sS'safeexp'
p4548
g1743
sS'calcscurvecoeffs'
p4549
g2917
sS'tan'
p4550
g967
sS'power'
p4551
g686
sS'safediv'
p4552
g1962
sS'safedivwithresult'
p4553
g2289
sS'transferscurvevalue'
p4554
g3653
sS'pointsarecloseenough'
p4555
g4362
sS'scurvewithresult'
p4556
g2681
sS'max'
p4557
g311
sS'log10'
p4558
g1296
sS'stringtoscurve'
p4559
g3957
sS'safedivexcept'
p4560
g2135
sS'arcsin'
p4561
g1172
sS'sqr'
p4562
g180
sS'scurvetostring'
p4563
g4227
sS'intmin'
p4564
g385
sS'calcscurvecoeffswithresult'
p4565
g3325
sS'safeln'
p4566
g1442
sS'intmax'
p4567
g460
sS'safelnwithresult'
p4568
g1588
sS'min'
p4569
g231
sS'arccos'
p4570
g1068
sS'safeexpwithresult'
p4571
g1834
sS'scurve'
p4572
g2437
ssS'types'
p4573
(dp4574
S'scurvestructure'
p4575
g5
ssb.