(i__main__
DelphiUnit
p1
(dp2
S'sectionsInOrderDefined'
p3
(lp4
(i__main__
DelphiClass
p5
(dp6
S'variableNamesInProperCase'
p7
(dp8
S'isapical'
p9
S'isApical'
p10
sS'phytomerattachedto'
p11
S'phytomerAttachedTo'
p12
sS'gender'
p13
S'gender'
p14
sS'isreproductive'
p15
S'isReproductive'
p16
sS'dayscreatingthisplantpart'
p17
S'daysCreatingThisPlantPart'
p18
sS'isactive'
p19
S'isActive'
p20
ssS'name'
p21
S'PdMeristem'
p22
sS'methodDeclarations'
p23
(dp24
S'decideifactivehermaphroditic'
p25
(i__main__
DelphiMethodDeclaration
p26
(dp27
g21
S'decideIfActiveHermaphroditic'
p28
sS'formalParameters'
p29
(lp30
sS'className'
p31
g22
sS'resultType'
p32
(i__main__
DelphiPrimitiveType
p33
(dp34
S'typeName'
p35
S'boolean'
p36
sbsS'isClassMethod'
p37
I0
sS'methodType'
p38
S'function'
p39
sbsS'accumulateorcreatephytomer'
p40
(i__main__
DelphiMethodDeclaration
p41
(dp42
g21
S'accumulateOrCreatePhytomer'
p43
sg29
(lp44
sg31
g22
sg32
Nsg37
I0
sg38
S'procedure'
p45
sbsS'initializewithplant'
p46
(i__main__
DelphiMethodDeclaration
p47
(dp48
g21
S'InitializeWithPlant'
p49
sg29
(lp50
(i__main__
DelphiFormalParameter
p51
(dp52
S'initialValue'
p53
NsS'names'
p54
(lp55
S'aPlant'
p56
asS'theType'
p57
(i__main__
DelphiNamedType
p58
(dp59
g35
S'PdPlant'
p60
sS'unitDefinedIn'
p61
g1
sS'unitName'
p62
NsbsS'parameterVariety'
p63
Nsbasg31
g22
sg32
Nsg37
I0
sg38
g45
sbsS'classandversioninformation'
p64
(i__main__
DelphiMethodDeclaration
p65
(dp66
g21
S'classAndVersionInformation'
p67
sg29
(lp68
(i__main__
DelphiFormalParameter
p69
(dp70
g53
Nsg54
(lp71
S'cvir'
p72
asg57
(i__main__
DelphiNamedType
p73
(dp74
g35
S'PdClassAndVersionInformationRecord'
p75
sg61
g1
sg62
Nsbsg63
S'var'
p76
sbasg31
g22
sg32
Nsg37
I0
sg38
g45
sbsS'nextday'
p77
(i__main__
DelphiMethodDeclaration
p78
(dp79
g21
S'nextDay'
p80
sg29
(lp81
sg31
g22
sg32
Nsg37
I0
sg38
g45
sbsS'optimalinitialphytomerbiomass_pctmpb'
p82
(i__main__
DelphiMethodDeclaration
p83
(dp84
g21
S'optimalInitialPhytomerBiomass_pctMPB'
p85
sg29
(lp86
sg31
g22
sg32
(i__main__
DelphiPrimitiveType
p87
(dp88
g35
S'single'
p89
sbsg37
I0
sg38
g39
sbsS'setifactive'
p90
(i__main__
DelphiMethodDeclaration
p91
(dp92
g21
S'setIfActive'
p93
sg29
(lp94
(i__main__
DelphiFormalParameter
p95
(dp96
g53
Nsg54
(lp97
S'active'
p98
asg57
(i__main__
DelphiPrimitiveType
p99
(dp100
g35
g36
sbsg63
Nsbasg31
g22
sg32
Nsg37
I0
sg38
g45
sbsS'willcreateinflorescence'
p101
(i__main__
DelphiMethodDeclaration
p102
(dp103
g21
S'willCreateInflorescence'
p104
sg29
(lp105
sg31
g22
sg32
(i__main__
DelphiPrimitiveType
p106
(dp107
g35
g36
sbsg37
I0
sg38
g39
sbsS'streamdatawithfiler'
p108
(i__main__
DelphiMethodDeclaration
p109
(dp110
g21
S'streamDataWithFiler'
p111
sg29
(lp112
(i__main__
DelphiFormalParameter
p113
(dp114
g53
Nsg54
(lp115
S'filer'
p116
asg57
(i__main__
DelphiNamedType
p117
(dp118
g35
S'PdFiler'
p119
sg61
g1
sg62
Nsbsg63
Nsba(i__main__
DelphiFormalParameter
p120
(dp121
g53
Nsg54
(lp122
S'cvir'
p123
asg57
(i__main__
DelphiNamedType
p124
(dp125
g35
S'PdClassAndVersionInformationRecord'
p126
sg61
g1
sg62
Nsbsg63
S'const'
p127
sbasg31
g22
sg32
Nsg37
I0
sg38
g45
sbsS'parttype'
p128
(i__main__
DelphiMethodDeclaration
p129
(dp130
g21
S'partType'
p131
sg29
(lp132
sg31
g22
sg32
(i__main__
DelphiPrimitiveType
p133
(dp134
g35
S'integer'
p135
sbsg37
I0
sg38
g39
sbsS'setifreproductive'
p136
(i__main__
DelphiMethodDeclaration
p137
(dp138
g21
S'setIfReproductive'
p139
sg29
(lp140
(i__main__
DelphiFormalParameter
p141
(dp142
g53
Nsg54
(lp143
S'reproductive'
p144
asg57
(i__main__
DelphiPrimitiveType
p145
(dp146
g35
g36
sbsg63
Nsbasg31
g22
sg32
Nsg37
I0
sg38
g45
sbsS'accumulateorcreateinflorescence'
p147
(i__main__
DelphiMethodDeclaration
p148
(dp149
g21
S'accumulateOrCreateInflorescence'
p150
sg29
(lp151
sg31
g22
sg32
Nsg37
I0
sg38
g45
sbsS'decideifactivefemale'
p152
(i__main__
DelphiMethodDeclaration
p153
(dp154
g21
S'decideIfActiveFemale'
p155
sg29
(lp156
sg31
g22
sg32
(i__main__
DelphiPrimitiveType
p157
(dp158
g35
g36
sbsg37
I0
sg38
g39
sbsS'createinflorescence'
p159
(i__main__
DelphiMethodDeclaration
p160
(dp161
g21
S'createInflorescence'
p162
sg29
(lp163
(i__main__
DelphiFormalParameter
p164
(dp165
g53
Nsg54
(lp166
S'fractionOfOptimalSize'
p167
asg57
(i__main__
DelphiPrimitiveType
p168
(dp169
g35
g89
sbsg63
Nsbasg31
g22
sg32
Nsg37
I0
sg38
g45
sbsS'setifapical'
p170
(i__main__
DelphiMethodDeclaration
p171
(dp172
g21
S'setIfApical'
p173
sg29
(lp174
(i__main__
DelphiFormalParameter
p175
(dp176
g53
Nsg54
(lp177
S'apical'
p178
asg57
(i__main__
DelphiPrimitiveType
p179
(dp180
g35
g36
sbsg63
Nsbasg31
g22
sg32
Nsg37
I0
sg38
g45
sbsS'destroy'
p181
(i__main__
DelphiMethodDeclaration
p182
(dp183
g21
S'destroy'
p184
sg29
(lp185
sg31
g22
sg32
Nsg37
I0
sg38
S'destructor'
p186
sbsS'draw'
p187
(i__main__
DelphiMethodDeclaration
p188
(dp189
g21
S'draw'
p190
sg29
(lp191
sg31
g22
sg32
Nsg37
I0
sg38
g45
sbsS'createfirstphytomer'
p192
(i__main__
DelphiMethodDeclaration
p193
(dp194
g21
S'createFirstPhytomer'
p195
sg29
(lp196
sg31
g22
sg32
(i__main__
DelphiNamedType
p197
(dp198
g35
S'PdInternode'
p199
sg61
g1
sg62
Nsbsg37
I0
sg38
g39
sbsS'getname'
p200
(i__main__
DelphiMethodDeclaration
p201
(dp202
g21
S'getName'
p203
sg29
(lp204
sg31
g22
sg32
(i__main__
DelphiPrimitiveType
p205
(dp206
g35
S'string'
p207
sbsg37
I0
sg38
g39
sbsS'startreproduction'
p208
(i__main__
DelphiMethodDeclaration
p209
(dp210
g21
S'startReproduction'
p211
sg29
(lp212
sg31
g22
sg32
Nsg37
I0
sg38
g45
sbsS'traverseactivity'
p213
(i__main__
DelphiMethodDeclaration
p214
(dp215
g21
S'traverseActivity'
p216
sg29
(lp217
(i__main__
DelphiFormalParameter
p218
(dp219
g53
Nsg54
(lp220
S'mode'
p221
asg57
(i__main__
DelphiPrimitiveType
p222
(dp223
g35
g135
sbsg63
Nsba(i__main__
DelphiFormalParameter
p224
(dp225
g53
Nsg54
(lp226
S'traverserProxy'
p227
asg57
(i__main__
DelphiNamedType
p228
(dp229
g35
S'TObject'
p230
sg61
g1
sg62
Nsbsg63
Nsbasg31
g22
sg32
Nsg37
I0
sg38
g45
sbsS'report'
p231
(i__main__
DelphiMethodDeclaration
p232
(dp233
g21
S'report'
p234
sg29
(lp235
sg31
g22
sg32
Nsg37
I0
sg38
g45
sbsS'countpointsandtrianglesfor3dexportandaddtotraversertotals'
p236
(i__main__
DelphiMethodDeclaration
p237
(dp238
g21
S'countPointsAndTrianglesFor3DExportAndAddToTraverserTotals'
p239
sg29
(lp240
(i__main__
DelphiFormalParameter
p241
(dp242
g53
Nsg54
(lp243
S'traverser'
p244
asg57
(i__main__
DelphiNamedType
p245
(dp246
g35
S'PdTraverser'
p247
sg61
g1
sg62
Nsbsg63
Nsbasg31
g22
sg32
Nsg37
I0
sg38
g45
sbsS'createphytomer'
p248
(i__main__
DelphiMethodDeclaration
p249
(dp250
g21
S'createPhytomer'
p251
sg29
(lp252
(i__main__
DelphiFormalParameter
p253
(dp254
g53
Nsg54
(lp255
S'fractionOfFullSize'
p256
asg57
(i__main__
DelphiPrimitiveType
p257
(dp258
g35
g89
sbsg63
Nsbasg31
g22
sg32
Nsg37
I0
sg38
g45
sbsS'createaxillarymeristem'
p259
(i__main__
DelphiMethodDeclaration
p260
(dp261
g21
S'createAxillaryMeristem'
p262
sg29
(lp263
(i__main__
DelphiFormalParameter
p264
(dp265
g53
Nsg54
(lp266
S'direction'
p267
asg57
(i__main__
DelphiPrimitiveType
p268
(dp269
g35
g135
sbsg63
Nsbasg31
g22
sg32
(i__main__
DelphiNamedType
p270
(dp271
g35
S'PdMeristem'
p272
sg61
g1
sg62
Nsbsg37
I0
sg38
g39
sbsS'contemplatebranching'
p273
(i__main__
DelphiMethodDeclaration
p274
(dp275
g21
S'contemplateBranching'
p276
sg29
(lp277
sg31
g22
sg32
(i__main__
DelphiPrimitiveType
p278
(dp279
g35
g36
sbsg37
I0
sg38
g39
sbsS'decideifactivemale'
p280
(i__main__
DelphiMethodDeclaration
p281
(dp282
g21
S'decideIfActiveMale'
p283
sg29
(lp284
sg31
g22
sg32
(i__main__
DelphiPrimitiveType
p285
(dp286
g35
g36
sbsg37
I0
sg38
g39
sbsS'newwithplant'
p287
(i__main__
DelphiMethodDeclaration
p288
(dp289
g21
S'newWithPlant'
p290
sg29
(lp291
(i__main__
DelphiFormalParameter
p292
(dp293
g53
Nsg54
(lp294
S'aPlant'
p295
asg57
(i__main__
DelphiNamedType
p296
(dp297
g35
S'PdPlant'
p298
sg61
g1
sg62
Nsbsg63
Nsbasg31
g22
sg32
Nsg37
I0
sg38
S'constructor'
p299
sbssS'superclassNamedTypes'
p300
(lp301
(i__main__
DelphiNamedType
p302
(dp303
g35
S'PdPlantPart'
p304
sg61
g1
sg62
NsbasS'variableNames'
p305
(dp306
S'isapical'
p307
(i__main__
DelphiPrimitiveType
p308
(dp309
g35
g36
sbsS'phytomerattachedto'
p310
(i__main__
DelphiNamedType
p311
(dp312
g35
S'PdInternode'
p313
sg61
g1
sg62
NsbsS'gender'
p314
(i__main__
DelphiPrimitiveType
p315
(dp316
g35
S'smallint'
p317
sbsS'isreproductive'
p318
(i__main__
DelphiPrimitiveType
p319
(dp320
g35
g36
sbsS'dayscreatingthisplantpart'
p321
(i__main__
DelphiPrimitiveType
p322
(dp323
g35
S'longint'
p324
sbsS'isactive'
p325
(i__main__
DelphiPrimitiveType
p326
(dp327
g35
g36
sbssS'methodNamesInDefinedOrder'
p328
(lp329
S'newwithplant'
p330
aS'destroy'
p331
aS'initializewithplant'
p332
aS'getname'
p333
aS'nextday'
p334
aS'contemplatebranching'
p335
aS'optimalinitialphytomerbiomass_pctmpb'
p336
aS'accumulateorcreatephytomer'
p337
aS'accumulateorcreateinflorescence'
p338
aS'traverseactivity'
p339
aS'countpointsandtrianglesfor3dexportandaddtotraversertotals'
p340
aS'report'
p341
aS'createaxillarymeristem'
p342
aS'setifactive'
p343
aS'setifapical'
p344
aS'setifreproductive'
p345
aS'createfirstphytomer'
p346
aS'createinflorescence'
p347
aS'createphytomer'
p348
aS'draw'
p349
aS'startreproduction'
p350
aS'decideifactivefemale'
p351
aS'decideifactivehermaphroditic'
p352
aS'decideifactivemale'
p353
aS'parttype'
p354
aS'willcreateinflorescence'
p355
aS'classandversioninformation'
p356
aS'streamdatawithfiler'
p357
asS'methodImplementations'
p358
(dp359
S'decideifactivehermaphroditic'
p360
(i__main__
DelphiMethodImplementation
p361
(dp362
S'originalDeclaration'
p363
g26
sg21
g28
sg29
(lp364
sS'varParamIndexes'
p365
(lp366
sS'varParamsSkipped'
p367
(lp368
sS'argNames'
p369
(lp370
S'self'
p371
asS'argTypes'
p372
(dp373
sg31
S'PdMeristem'
p374
sg32
(i__main__
DelphiPrimitiveType
p375
(dp376
g35
g36
sbsS'varParamNames'
p377
(lp378
sg37
I0
sg38
g39
sS'block'
p379
(i__main__
DelphiBlock
p380
(dp381
S'compoundStatement'
p382
(idelphi
DelphiCompoundStatement
p383
(dp384
S'statements'
p385
(lp386
(i__main__
DelphiAssignStatement
p387
(dp388
S'newValueExpression'
p389
(idelphi
DelphiNestedExpressionListAccess
p390
(dp391
S'endAccessList'
p392
(lp393
sS'expressionList'
p394
(lp395
(idelphi
DelphiRelOp
p396
(dp397
S'simpleExpression1'
p398
(i__main__
DelphiIdentAccess
p399
(dp400
S'ident'
p401
S'isApical'
p402
sg392
(lp403
sbsS'simpleExpression2'
p404
(i__main__
DelphiIdentAccess
p405
(dp406
g401
S'plant'
p407
sg392
(lp408
(idelphi
DelphiFieldEndAccess
p409
(dp410
S'field'
p411
S'pInflor'
p412
sba(idelphi
DelphiArrayEndAccess
p413
(dp414
g394
(lp415
(i__main__
DelphiIdentAccess
p416
(dp417
g401
S'kGenderFemale'
p418
sg392
(lp419
sbasba(idelphi
DelphiFieldEndAccess
p420
(dp421
g411
S'isTerminal'
p422
sbasbsS'relOp'
p423
S'='
sbasbsS'destinationExpression'
p424
(i__main__
DelphiIdentAccess
p425
(dp426
g401
S'result'
p427
sg392
(lp428
sbsS'commentLinesBefore'
p429
(lp430
S'For the case of hermaphroditic flowers, decide if this meristem will be able to create\r'
p431
aS'  a hermaphroditic inflorescence (if flowers are hermaphroditic, female parameters are used).\r'
p432
aS'  Called by decideReproductiveGenderAndActivity.'
p433
asbasbsS'limitedDeclSectionList'
p434
(lp435
sbsbsS'accumulateorcreatephytomer'
p436
(i__main__
DelphiMethodImplementation
p437
(dp438
g363
g41
sg21
g43
sg29
(lp439
sg365
(lp440
sg367
(lp441
sg369
(lp442
g371
asg372
(dp443
sg31
S'PdMeristem'
p444
sg32
Nsg377
(lp445
sg37
I0
sg38
g45
sg379
(i__main__
DelphiBlock
p446
(dp447
g382
(idelphi
DelphiCompoundStatement
p448
(dp449
g385
(lp450
(idelphi
DelphiTryExceptStatement
p451
(dp452
S'tryStatements'
p453
(lp454
(i__main__
DelphiAssignStatement
p455
(dp456
g389
(i__main__
DelphiIdentAccess
p457
(dp458
g401
S'false'
p459
sg392
(lp460
sbsg424
(i__main__
DelphiIdentAccess
p461
(dp462
g401
S'shouldCreatePhytomer'
p463
sg392
(lp464
sbsba(i__main__
DelphiAssignStatement
p465
(dp466
g389
(i__main__
DelphiIdentAccess
p467
(dp468
g401
S'self'
p469
sg392
(lp470
(idelphi
DelphiFieldEndAccess
p471
(dp472
g411
S'optimalInitialPhytomerBiomass_pctMPB'
p473
sbasbsg424
(i__main__
DelphiIdentAccess
p474
(dp475
g401
S'optimalInitialBiomass_pctMPB'
p476
sg392
(lp477
sbsba(idelphi
DelphiIfStatement
p478
(dp479
S'expression'
p480
(idelphi
DelphiNestedExpressionListAccess
p481
(dp482
g392
(lp483
sg394
(lp484
(idelphi
DelphiRelOp
p485
(dp486
g398
(i__main__
DelphiIdentAccess
p487
(dp488
g401
S'self'
p489
sg392
(lp490
(idelphi
DelphiFieldEndAccess
p491
(dp492
g411
S'liveBiomass_pctMPB'
p493
sbasbsg404
(i__main__
DelphiIdentAccess
p494
(dp495
g401
S'optimalInitialBiomass_pctMPB'
p496
sg392
(lp497
sbsg423
S'>='
p498
sbasbsS'ifFalseStatement'
p499
(idelphi
DelphiCompoundStatement
p500
(dp501
g385
(lp502
(i__main__
DelphiAssignStatement
p503
(dp504
g389
(idelphi
DelphiMulOp
p505
(dp506
S'signedFactor2'
p507
(i__main__
DelphiIdentAccess
p508
(dp509
g401
S'plant'
p510
sg392
(lp511
(idelphi
DelphiFieldEndAccess
p512
(dp513
g411
S'pInternode'
p514
sba(idelphi
DelphiFieldEndAccess
p515
(dp516
g411
S'minFractionOfOptimalInitialBiomassToCreateInternode_frn'
p517
sbasbsS'mulOp'
p518
S'*'
sS'signedFactor1'
p519
(i__main__
DelphiIdentAccess
p520
(dp521
g401
S'optimalInitialBiomass_pctMPB'
p522
sg392
(lp523
sbsbsg424
(i__main__
DelphiIdentAccess
p524
(dp525
g401
S'minBiomassNeeded_pctMPB'
p526
sg392
(lp527
sbsba(idelphi
DelphiIfStatement
p528
(dp529
g480
(idelphi
DelphiMulOp
p530
(dp531
g507
(idelphi
DelphiNestedExpressionListAccess
p532
(dp533
g392
(lp534
sg394
(lp535
(idelphi
DelphiRelOp
p536
(dp537
g398
(i__main__
DelphiIdentAccess
p538
(dp539
g401
S'daysCreatingThisPlantPart'
p540
sg392
(lp541
sbsg404
(i__main__
DelphiIdentAccess
p542
(dp543
g401
S'plant'
p544
sg392
(lp545
(idelphi
DelphiFieldEndAccess
p546
(dp547
g411
S'pInternode'
p548
sba(idelphi
DelphiFieldEndAccess
p549
(dp550
g411
S'maxDaysToCreateInternodeIfOverMinFraction'
p551
sbasbsg423
g498
sbasbsg518
S'and'
p552
sg519
(idelphi
DelphiNestedExpressionListAccess
p553
(dp554
g392
(lp555
sg394
(lp556
(idelphi
DelphiRelOp
p557
(dp558
g398
(i__main__
DelphiIdentAccess
p559
(dp560
g401
S'self'
p561
sg392
(lp562
(idelphi
DelphiFieldEndAccess
p563
(dp564
g411
S'liveBiomass_pctMPB'
p565
sbasbsg404
(i__main__
DelphiIdentAccess
p566
(dp567
g401
S'minBiomassNeeded_pctMPB'
p568
sg392
(lp569
sbsg423
g498
sbasbsbsg499
NsS'ifTrueStatement'
p570
(i__main__
DelphiAssignStatement
p571
(dp572
g389
(i__main__
DelphiIdentAccess
p573
(dp574
g401
S'true'
p575
sg392
(lp576
sbsg424
(i__main__
DelphiIdentAccess
p577
(dp578
g401
S'shouldCreatePhytomer'
p579
sg392
(lp580
sbsbsbasbsg570
(i__main__
DelphiAssignStatement
p581
(dp582
g389
(i__main__
DelphiIdentAccess
p583
(dp584
g401
S'true'
p585
sg392
(lp586
sbsg424
(i__main__
DelphiIdentAccess
p587
(dp588
g401
S'shouldCreatePhytomer'
p589
sg392
(lp590
sbsbsba(idelphi
DelphiIfStatement
p591
(dp592
g480
(i__main__
DelphiIdentAccess
p593
(dp594
g401
S'shouldCreatePhytomer'
p595
sg392
(lp596
sbsg499
Nsg570
(idelphi
DelphiCompoundStatement
p597
(dp598
g385
(lp599
(i__main__
DelphiAssignStatement
p600
(dp601
g389
(i__main__
DelphiIdentAccess
p602
(dp603
g401
S'safedivExcept'
p604
sg392
(lp605
(idelphi
DelphiFunctionEndAccess
p606
(dp607
g394
(lp608
(i__main__
DelphiIdentAccess
p609
(dp610
g401
S'liveBiomass_pctMPB'
p611
sg392
(lp612
sba(i__main__
DelphiIdentAccess
p613
(dp614
g401
S'optimalInitialBiomass_pctMPB'
p615
sg392
(lp616
sba(idelphi
DelphiIntegerValue
p617
(dp618
g207
S'0'
sbasbasbsg424
(i__main__
DelphiIdentAccess
p619
(dp620
g401
S'fractionOfOptimalSize'
p621
sg392
(lp622
sbsba(i__main__
DelphiAssignStatement
p623
(dp624
g389
Nsg424
(i__main__
DelphiIdentAccess
p625
(dp626
g401
S'self'
p627
sg392
(lp628
(idelphi
DelphiFieldEndAccess
p629
(dp630
g411
S'createPhytomer'
p631
sba(idelphi
DelphiFunctionEndAccess
p632
(dp633
g394
(lp634
(i__main__
DelphiIdentAccess
p635
(dp636
g401
S'fractionOfOptimalSize'
p637
sg392
(lp638
sbasbasbsba(i__main__
DelphiAssignStatement
p639
(dp640
g389
(idelphi
DelphiRealValue
p641
(dp642
g207
S'0.0'
p643
sbsg424
(i__main__
DelphiIdentAccess
p644
(dp645
g401
S'self'
p646
sg392
(lp647
(idelphi
DelphiFieldEndAccess
p648
(dp649
g411
S'liveBiomass_pctMPB'
p650
sbasbsba(i__main__
DelphiAssignStatement
p651
(dp652
g389
(idelphi
DelphiIntegerValue
p653
(dp654
g207
S'0'
sbsg424
(i__main__
DelphiIdentAccess
p655
(dp656
g401
S'self'
p657
sg392
(lp658
(idelphi
DelphiFieldEndAccess
p659
(dp660
g411
S'daysCreatingThisPlantPart'
p661
sbasbsbasbsbasS'exceptionHandlers'
p662
(idelphi
DelphiExceptionHandlers
p663
(dp664
S'exceptionHandlerList'
p665
(lp666
(idelphi
DelphiExceptionHandler
p667
(dp668
S'classTypeIdentifier'
p669
(i__main__
DelphiNamedType
p670
(dp671
g35
S'Exception'
p672
sg61
g1
sg62
Nsbsg401
S'e'
sS'statement'
p673
(i__main__
DelphiAssignStatement
p674
(dp675
g389
Nsg424
(i__main__
DelphiIdentAccess
p676
(dp677
g401
S'messageForExceptionType'
p678
sg392
(lp679
(idelphi
DelphiFunctionEndAccess
p680
(dp681
g394
(lp682
(i__main__
DelphiIdentAccess
p683
(dp684
g401
S'e'
sg392
(lp685
sba(idelphi
DelphiStringAccess
p686
(dp687
g392
(lp688
sg207
(idelphi
DelphiStringValue
p689
(dp690
g207
S'PdMeristem.accumulateOrCreatePhytomer'
p691
sbsbasbasbsbsbasS'statementList'
p692
(lp693
sbsbasbsg434
(lp694
(i__main__
DelphiVarSection
p695
(dp696
S'atTopLevel'
p697
I0
sS'varDeclList'
p698
(lp699
(idelphi
DelphiVarDecl
p700
(dp701
S'constExpression'
p702
NsS'identList'
p703
(lp704
S'optimalInitialBiomass_pctMPB'
p705
aS'minBiomassNeeded_pctMPB'
p706
asg57
(i__main__
DelphiPrimitiveType
p707
(dp708
g35
g89
sbsba(idelphi
DelphiVarDecl
p709
(dp710
g702
Nsg703
(lp711
S'fractionOfOptimalSize'
p712
asg57
(i__main__
DelphiPrimitiveType
p713
(dp714
g35
g89
sbsba(idelphi
DelphiVarDecl
p715
(dp716
g702
Nsg703
(lp717
S'shouldCreatePhytomer'
p718
asg57
(i__main__
DelphiPrimitiveType
p719
(dp720
g35
g36
sbsbasbasbsbsS'initializewithplant'
p721
(i__main__
DelphiMethodImplementation
p722
(dp723
g363
g47
sg21
g49
sg29
(lp724
(i__main__
DelphiFormalParameter
p725
(dp726
g53
Nsg54
(lp727
S'aPlant'
p728
asg57
(i__main__
DelphiNamedType
p729
(dp730
g35
S'PdPlant'
p731
sg61
g1
sg62
Nsbsg63
Nsbasg365
(lp732
sg367
(lp733
sg369
(lp734
g371
ag728
asg372
(dp735
g728
g729
ssg31
S'PdMeristem'
p736
sg32
Nsg377
(lp737
sg37
I0
sg38
g45
sg379
(i__main__
DelphiBlock
p738
(dp739
g382
(idelphi
DelphiCompoundStatement
p740
(dp741
g385
(lp742
(i__main__
DelphiAssignStatement
p743
(dp744
g389
Nsg424
(i__main__
DelphiIdentAccess
p745
(dp746
g401
S'initialize'
p747
sg392
(lp748
(idelphi
DelphiFunctionEndAccess
p749
(dp750
g394
(lp751
(i__main__
DelphiIdentAccess
p752
(dp753
g401
S'aPlant'
p754
sg392
(lp755
sbasbasbsg429
(lp756
S' v1.6b1 removed inherited\r'
p757
asba(i__main__
DelphiAssignStatement
p758
(dp759
g389
(i__main__
DelphiIdentAccess
p760
(dp761
g401
S'true'
p762
sg392
(lp763
sbsg424
(i__main__
DelphiIdentAccess
p764
(dp765
g401
S'isApical'
p766
sg392
(lp767
sbsg429
(lp768
S" don't need to call any setIf... functions here because lists don't need to be changed yet "
p769
asba(i__main__
DelphiAssignStatement
p770
(dp771
g389
(idelphi
DelphiRealValue
p772
(dp773
g207
S'0.0'
p774
sbsg424
(i__main__
DelphiIdentAccess
p775
(dp776
g401
S'liveBiomass_pctMPB'
p777
sg392
(lp778
sbsba(i__main__
DelphiAssignStatement
p779
(dp780
g389
(idelphi
DelphiRealValue
p781
(dp782
g207
S'0.0'
p783
sbsg424
(i__main__
DelphiIdentAccess
p784
(dp785
g401
S'deadBiomass_pctMPB'
p786
sg392
(lp787
sbsba(i__main__
DelphiAssignStatement
p788
(dp789
g389
(idelphi
DelphiRealValue
p790
(dp791
g207
S'0.0'
p792
sbsg424
(i__main__
DelphiIdentAccess
p793
(dp794
g401
S'biomassDemand_pctMPB'
p795
sg392
(lp796
sbsba(i__main__
DelphiAssignStatement
p797
(dp798
g389
(idelphi
DelphiIntegerValue
p799
(dp800
g207
S'0'
sbsg424
(i__main__
DelphiIdentAccess
p801
(dp802
g401
S'daysCreatingThisPlantPart'
p803
sg392
(lp804
sbsba(i__main__
DelphiAssignStatement
p805
(dp806
g389
(i__main__
DelphiIdentAccess
p807
(dp808
g401
S'false'
p809
sg392
(lp810
sbsg424
(i__main__
DelphiIdentAccess
p811
(dp812
g401
S'isActive'
p813
sg392
(lp814
sbsba(i__main__
DelphiAssignStatement
p815
(dp816
g389
(i__main__
DelphiIdentAccess
p817
(dp818
g401
S'false'
p819
sg392
(lp820
sbsg424
(i__main__
DelphiIdentAccess
p821
(dp822
g401
S'isReproductive'
p823
sg392
(lp824
sbsba(i__main__
DelphiAssignStatement
p825
(dp826
g389
(i__main__
DelphiIdentAccess
p827
(dp828
g401
S'kGenderFemale'
p829
sg392
(lp830
sbsg424
(i__main__
DelphiIdentAccess
p831
(dp832
g401
S'gender'
p833
sg392
(lp834
sbsba(idelphi
DelphiIfStatement
p835
(dp836
g480
(idelphi
DelphiMulOp
p837
(dp838
g507
(idelphi
DelphiNestedExpressionListAccess
p839
(dp840
g392
(lp841
sg394
(lp842
(idelphi
DelphiRelOp
p843
(dp844
g398
(i__main__
DelphiIdentAccess
p845
(dp846
g401
S'plant'
p847
sg392
(lp848
(idelphi
DelphiFieldEndAccess
p849
(dp850
g411
S'randomNumberGenerator'
p851
sba(idelphi
DelphiFieldEndAccess
p852
(dp853
g411
S'zeroToOne'
p854
sbasbsg404
(i__main__
DelphiIdentAccess
p855
(dp856
g401
S'plant'
p857
sg392
(lp858
(idelphi
DelphiFieldEndAccess
p859
(dp860
g411
S'pMeristem'
p861
sba(idelphi
DelphiFieldEndAccess
p862
(dp863
g411
S'determinateProbability'
p864
sbasbsg423
S'<='
p865
sbasbsg518
g552
sg519
(i__main__
DelphiIdentAccess
p866
(dp867
g401
S'plant'
p868
sg392
(lp869
(idelphi
DelphiFieldEndAccess
p870
(dp871
g411
S'floweringHasStarted'
p872
sbasbsbsg499
Nsg570
(i__main__
DelphiAssignStatement
p873
(dp874
g389
Nsg424
(i__main__
DelphiIdentAccess
p875
(dp876
g401
S'self'
p877
sg392
(lp878
(idelphi
DelphiFieldEndAccess
p879
(dp880
g411
S'setIfReproductive'
p881
sba(idelphi
DelphiFunctionEndAccess
p882
(dp883
g394
(lp884
(i__main__
DelphiIdentAccess
p885
(dp886
g401
S'true'
p887
sg392
(lp888
sbasbasbsbsbasbsg434
(lp889
sbsbsS'classandversioninformation'
p890
(i__main__
DelphiMethodImplementation
p891
(dp892
g363
g65
sg21
g67
sg29
(lp893
(i__main__
DelphiFormalParameter
p894
(dp895
g53
Nsg54
(lp896
S'cvir'
p897
asg57
(i__main__
DelphiNamedType
p898
(dp899
g35
S'PdClassAndVersionInformationRecord'
p900
sg61
g1
sg62
Nsbsg63
g76
sbasg365
(lp901
sg367
(lp902
g897
asg369
(lp903
g371
ag897
asg372
(dp904
g897
g898
ssg31
S'PdMeristem'
p905
sg32
Nsg377
(lp906
sg37
I0
sg38
g45
sg379
(i__main__
DelphiBlock
p907
(dp908
g382
(idelphi
DelphiCompoundStatement
p909
(dp910
g385
(lp911
(i__main__
DelphiAssignStatement
p912
(dp913
g389
(i__main__
DelphiIdentAccess
p914
(dp915
g401
S'kPdMeristem'
p916
sg392
(lp917
sbsg424
(i__main__
DelphiIdentAccess
p918
(dp919
g401
S'cvir'
p920
sg392
(lp921
(idelphi
DelphiFieldEndAccess
p922
(dp923
g411
S'classNumber'
p924
sbasbsba(i__main__
DelphiAssignStatement
p925
(dp926
g389
(idelphi
DelphiIntegerValue
p927
(dp928
g207
S'0'
sbsg424
(i__main__
DelphiIdentAccess
p929
(dp930
g401
S'cvir'
p931
sg392
(lp932
(idelphi
DelphiFieldEndAccess
p933
(dp934
g411
S'versionNumber'
p935
sbasbsba(i__main__
DelphiAssignStatement
p936
(dp937
g389
(idelphi
DelphiIntegerValue
p938
(dp939
g207
S'0'
sbsg424
(i__main__
DelphiIdentAccess
p940
(dp941
g401
S'cvir'
p942
sg392
(lp943
(idelphi
DelphiFieldEndAccess
p944
(dp945
g411
S'additionNumber'
p946
sbasbsbasbsg434
(lp947
sbsbsS'nextday'
p948
(i__main__
DelphiMethodImplementation
p949
(dp950
g363
g78
sg21
g80
sg29
(lp951
sg365
(lp952
sg367
(lp953
sg369
(lp954
g371
asg372
(dp955
sg31
S'PdMeristem'
p956
sg32
Nsg377
(lp957
sg37
I0
sg38
g45
sg379
(i__main__
DelphiBlock
p958
(dp959
g382
(idelphi
DelphiCompoundStatement
p960
(dp961
g385
(lp962
(idelphi
DelphiTryExceptStatement
p963
(dp964
g453
(lp965
(i__main__
DelphiAssignStatement
p966
(dp967
g389
Nsg424
(idelphi
DelphiInheritedCall
p968
(dp969
g401
S'nextDay'
p970
sg394
Nsbsba(idelphi
DelphiIfStatement
p971
(dp972
g480
(i__main__
DelphiIdentAccess
p973
(dp974
g401
S'isActive'
p975
sg392
(lp976
sbsg499
(idelphi
DelphiCompoundStatement
p977
(dp978
g385
(lp979
(idelphi
DelphiIfStatement
p980
(dp981
g480
(idelphi
DelphiMulOp
p982
(dp983
g507
(i__main__
DelphiIdentAccess
p984
(dp985
g401
S'contemplateBranching'
p986
sg392
(lp987
sbsg518
g552
sg519
(idelphi
DelphiMulOp
p988
(dp989
g507
(idelphi
DelphiNot
p990
(dp991
S'factor'
p992
(i__main__
DelphiIdentAccess
p993
(dp994
g401
S'isReproductive'
p995
sg392
(lp996
sbsbsg518
g552
sg519
(idelphi
DelphiNot
p997
(dp998
g992
(i__main__
DelphiIdentAccess
p999
(dp1000
g401
S'isApical'
p1001
sg392
(lp1002
sbsbsbsbsg499
Nsg570
(i__main__
DelphiAssignStatement
p1003
(dp1004
g389
Nsg424
(i__main__
DelphiIdentAccess
p1005
(dp1006
g401
S'self'
p1007
sg392
(lp1008
(idelphi
DelphiFieldEndAccess
p1009
(dp1010
g411
S'setIfActive'
p1011
sba(idelphi
DelphiFunctionEndAccess
p1012
(dp1013
g394
(lp1014
(i__main__
DelphiIdentAccess
p1015
(dp1016
g401
S'true'
p1017
sg392
(lp1018
sbasbasbsbsbasbsg570
(idelphi
DelphiCompoundStatement
p1019
(dp1020
g385
(lp1021
(i__main__
DelphiIncOrDecStatement
p1022
(dp1023
S'incOrDecString'
p1024
S'inc'
p1025
sS'incrementExpression'
p1026
Nsg424
(i__main__
DelphiIdentAccess
p1027
(dp1028
g401
S'self'
p1029
sg392
(lp1030
(idelphi
DelphiFieldEndAccess
p1031
(dp1032
g411
S'daysCreatingThisPlantPart'
p1033
sbasbsba(idelphi
DelphiIfStatement
p1034
(dp1035
g480
(idelphi
DelphiNot
p1036
(dp1037
g992
(i__main__
DelphiIdentAccess
p1038
(dp1039
g401
S'isReproductive'
p1040
sg392
(lp1041
sbsbsg499
(i__main__
DelphiAssignStatement
p1042
(dp1043
g389
Nsg424
(i__main__
DelphiIdentAccess
p1044
(dp1045
g401
S'self'
p1046
sg392
(lp1047
(idelphi
DelphiFieldEndAccess
p1048
(dp1049
g411
S'accumulateOrCreateInflorescence'
p1050
sbasbsbsg570
(i__main__
DelphiAssignStatement
p1051
(dp1052
g389
Nsg424
(i__main__
DelphiIdentAccess
p1053
(dp1054
g401
S'self'
p1055
sg392
(lp1056
(idelphi
DelphiFieldEndAccess
p1057
(dp1058
g411
S'accumulateOrCreatePhytomer'
p1059
sbasbsbsbasbsbasg662
(idelphi
DelphiExceptionHandlers
p1060
(dp1061
g665
(lp1062
(idelphi
DelphiExceptionHandler
p1063
(dp1064
g669
(i__main__
DelphiNamedType
p1065
(dp1066
g35
S'Exception'
p1067
sg61
g1
sg62
Nsbsg401
S'e'
sg673
(i__main__
DelphiAssignStatement
p1068
(dp1069
g389
Nsg424
(i__main__
DelphiIdentAccess
p1070
(dp1071
g401
S'messageForExceptionType'
p1072
sg392
(lp1073
(idelphi
DelphiFunctionEndAccess
p1074
(dp1075
g394
(lp1076
(i__main__
DelphiIdentAccess
p1077
(dp1078
g401
S'e'
sg392
(lp1079
sba(idelphi
DelphiStringAccess
p1080
(dp1081
g392
(lp1082
sg207
(idelphi
DelphiStringValue
p1083
(dp1084
g207
S'PdMeristem.nextDay'
p1085
sbsbasbasbsbsbasg692
(lp1086
sbsbasbsg434
(lp1087
sbsbsS'optimalinitialphytomerbiomass_pctmpb'
p1088
(i__main__
DelphiMethodImplementation
p1089
(dp1090
g363
g83
sg21
g85
sg29
(lp1091
sg365
(lp1092
sg367
(lp1093
sg369
(lp1094
g371
asg372
(dp1095
sg31
S'PdMeristem'
p1096
sg32
(i__main__
DelphiPrimitiveType
p1097
(dp1098
g35
g89
sbsg377
(lp1099
sg37
I0
sg38
g39
sg379
(i__main__
DelphiBlock
p1100
(dp1101
g382
(idelphi
DelphiCompoundStatement
p1102
(dp1103
g385
(lp1104
(i__main__
DelphiAssignStatement
p1105
(dp1106
g389
(idelphi
DelphiAddOp
p1107
(dp1108
S'addOp'
p1109
S'+'
sS'term2'
p1110
(i__main__
DelphiIdentAccess
p1111
(dp1112
g401
S'PdLeaf'
p1113
sg392
(lp1114
(idelphi
DelphiFieldEndAccess
p1115
(dp1116
g411
S'optimalInitialBiomass_pctMPB'
p1117
sba(idelphi
DelphiFunctionEndAccess
p1118
(dp1119
g394
(lp1120
(i__main__
DelphiIdentAccess
p1121
(dp1122
g401
S'plant'
p1123
sg392
(lp1124
sbasbasbsS'term1'
p1125
(i__main__
DelphiIdentAccess
p1126
(dp1127
g401
S'PdInternode'
p1128
sg392
(lp1129
(idelphi
DelphiFieldEndAccess
p1130
(dp1131
g411
S'optimalInitialBiomass_pctMPB'
p1132
sba(idelphi
DelphiFunctionEndAccess
p1133
(dp1134
g394
(lp1135
(i__main__
DelphiIdentAccess
p1136
(dp1137
g401
S'plant'
p1138
sg392
(lp1139
sbasbasbsbsg424
(i__main__
DelphiIdentAccess
p1140
(dp1141
g401
S'result'
p1142
sg392
(lp1143
sbsba(idelphi
DelphiIfStatement
p1144
(dp1145
g480
(idelphi
DelphiRelOp
p1146
(dp1147
g398
(i__main__
DelphiIdentAccess
p1148
(dp1149
g401
S'plant'
p1150
sg392
(lp1151
(idelphi
DelphiFieldEndAccess
p1152
(dp1153
g411
S'pMeristem'
p1154
sba(idelphi
DelphiFieldEndAccess
p1155
(dp1156
g411
S'branchingAndLeafArrangement'
p1157
sbasbsg404
(i__main__
DelphiIdentAccess
p1158
(dp1159
g401
S'kArrangementOpposite'
p1160
sg392
(lp1161
sbsg423
S'='
sbsg499
Nsg570
(i__main__
DelphiAssignStatement
p1162
(dp1163
g389
(idelphi
DelphiAddOp
p1164
(dp1165
g1109
S'+'
sg1110
(i__main__
DelphiIdentAccess
p1166
(dp1167
g401
S'PdLeaf'
p1168
sg392
(lp1169
(idelphi
DelphiFieldEndAccess
p1170
(dp1171
g411
S'optimalInitialBiomass_pctMPB'
p1172
sba(idelphi
DelphiFunctionEndAccess
p1173
(dp1174
g394
(lp1175
(i__main__
DelphiIdentAccess
p1176
(dp1177
g401
S'plant'
p1178
sg392
(lp1179
sbasbasbsg1125
(i__main__
DelphiIdentAccess
p1180
(dp1181
g401
S'result'
p1182
sg392
(lp1183
sbsbsg424
(i__main__
DelphiIdentAccess
p1184
(dp1185
g401
S'result'
p1186
sg392
(lp1187
sbsbsbasbsg434
(lp1188
sbsbsS'setifactive'
p1189
(i__main__
DelphiMethodImplementation
p1190
(dp1191
g363
g91
sg21
g93
sg29
(lp1192
(i__main__
DelphiFormalParameter
p1193
(dp1194
g53
Nsg54
(lp1195
S'active'
p1196
asg57
(i__main__
DelphiPrimitiveType
p1197
(dp1198
g35
g36
sbsg63
Nsbasg365
(lp1199
sg367
(lp1200
sg369
(lp1201
g371
ag1196
asg372
(dp1202
g1196
g1197
ssg31
S'PdMeristem'
p1203
sg32
Nsg377
(lp1204
sg37
I0
sg38
g45
sg379
(i__main__
DelphiBlock
p1205
(dp1206
g382
(idelphi
DelphiCompoundStatement
p1207
(dp1208
g385
(lp1209
(idelphi
DelphiIfStatement
p1210
(dp1211
g480
(idelphi
DelphiRelOp
p1212
(dp1213
g398
(i__main__
DelphiIdentAccess
p1214
(dp1215
g401
S'isActive'
p1216
sg392
(lp1217
sbsg404
(i__main__
DelphiIdentAccess
p1218
(dp1219
g401
S'active'
p1220
sg392
(lp1221
sbsg423
S'<>'
p1222
sbsg499
Nsg570
(idelphi
DelphiCompoundStatement
p1223
(dp1224
g385
(lp1225
(i__main__
DelphiAssignStatement
p1226
(dp1227
g389
(i__main__
DelphiIdentAccess
p1228
(dp1229
g401
S'active'
p1230
sg392
(lp1231
sbsg424
(i__main__
DelphiIdentAccess
p1232
(dp1233
g401
S'isActive'
p1234
sg392
(lp1235
sbsba(idelphi
DelphiIfStatement
p1236
(dp1237
g480
(i__main__
DelphiIdentAccess
p1238
(dp1239
g401
S'isReproductive'
p1240
sg392
(lp1241
sbsg499
Nsg570
(idelphi
DelphiIfStatement
p1242
(dp1243
g480
(i__main__
DelphiIdentAccess
p1244
(dp1245
g401
S'isApical'
p1246
sg392
(lp1247
sbsg499
(idelphi
DelphiCompoundStatement
p1248
(dp1249
g385
(lp1250
(idelphi
DelphiIfStatement
p1251
(dp1252
g480
(i__main__
DelphiIdentAccess
p1253
(dp1254
g401
S'isActive'
p1255
sg392
(lp1256
sbsg499
(idelphi
DelphiCompoundStatement
p1257
(dp1258
g385
(lp1259
(i__main__
DelphiIncOrDecStatement
p1260
(dp1261
g1024
g1025
sg1026
Nsg424
(i__main__
DelphiIdentAccess
p1262
(dp1263
g401
S'plant'
p1264
sg392
(lp1265
(idelphi
DelphiFieldEndAccess
p1266
(dp1267
g411
S'numAxillaryInactiveReproductiveMeristems'
p1268
sbasbsba(i__main__
DelphiIncOrDecStatement
p1269
(dp1270
g1024
S'dec'
p1271
sg1026
Nsg424
(i__main__
DelphiIdentAccess
p1272
(dp1273
g401
S'plant'
p1274
sg392
(lp1275
(idelphi
DelphiFieldEndAccess
p1276
(dp1277
g411
S'numAxillaryActiveReproductiveMeristemsOrInflorescences'
p1278
sbasbsbasbsg570
(idelphi
DelphiCompoundStatement
p1279
(dp1280
g385
(lp1281
(i__main__
DelphiIncOrDecStatement
p1282
(dp1283
g1024
g1025
sg1026
Nsg424
(i__main__
DelphiIdentAccess
p1284
(dp1285
g401
S'plant'
p1286
sg392
(lp1287
(idelphi
DelphiFieldEndAccess
p1288
(dp1289
g411
S'numAxillaryActiveReproductiveMeristemsOrInflorescences'
p1290
sbasbsba(i__main__
DelphiIncOrDecStatement
p1291
(dp1292
g1024
g1271
sg1026
Nsg424
(i__main__
DelphiIdentAccess
p1293
(dp1294
g401
S'plant'
p1295
sg392
(lp1296
(idelphi
DelphiFieldEndAccess
p1297
(dp1298
g411
S'numAxillaryInactiveReproductiveMeristems'
p1299
sbasbsbasg429
(lp1300
S'not isActive'
p1301
asbsbasbsg570
(idelphi
DelphiCompoundStatement
p1302
(dp1303
g385
(lp1304
(idelphi
DelphiIfStatement
p1305
(dp1306
g480
(i__main__
DelphiIdentAccess
p1307
(dp1308
g401
S'isActive'
p1309
sg392
(lp1310
sbsg499
(idelphi
DelphiCompoundStatement
p1311
(dp1312
g385
(lp1313
(i__main__
DelphiIncOrDecStatement
p1314
(dp1315
g1024
g1025
sg1026
Nsg424
(i__main__
DelphiIdentAccess
p1316
(dp1317
g401
S'plant'
p1318
sg392
(lp1319
(idelphi
DelphiFieldEndAccess
p1320
(dp1321
g411
S'numApicalInactiveReproductiveMeristems'
p1322
sbasbsba(i__main__
DelphiIncOrDecStatement
p1323
(dp1324
g1024
g1271
sg1026
Nsg424
(i__main__
DelphiIdentAccess
p1325
(dp1326
g401
S'plant'
p1327
sg392
(lp1328
(idelphi
DelphiFieldEndAccess
p1329
(dp1330
g411
S'numApicalActiveReproductiveMeristemsOrInflorescences'
p1331
sbasbsbasbsg570
(idelphi
DelphiCompoundStatement
p1332
(dp1333
g385
(lp1334
(i__main__
DelphiIncOrDecStatement
p1335
(dp1336
g1024
g1025
sg1026
Nsg424
(i__main__
DelphiIdentAccess
p1337
(dp1338
g401
S'plant'
p1339
sg392
(lp1340
(idelphi
DelphiFieldEndAccess
p1341
(dp1342
g411
S'numApicalActiveReproductiveMeristemsOrInflorescences'
p1343
sbasbsba(i__main__
DelphiIncOrDecStatement
p1344
(dp1345
g1024
g1271
sg1026
Nsg424
(i__main__
DelphiIdentAccess
p1346
(dp1347
g401
S'plant'
p1348
sg392
(lp1349
(idelphi
DelphiFieldEndAccess
p1350
(dp1351
g411
S'numApicalInactiveReproductiveMeristems'
p1352
sbasbsbasg429
(lp1353
S'not isActive'
p1354
asbsbasg429
(lp1355
S'not isApical'
p1356
asbsbsbasbsbasbsg434
(lp1357
sbsbsS'willcreateinflorescence'
p1358
(i__main__
DelphiMethodImplementation
p1359
(dp1360
g363
g102
sg21
g104
sg29
(lp1361
sg365
(lp1362
sg367
(lp1363
sg369
(lp1364
g371
asg372
(dp1365
sg31
S'PdMeristem'
p1366
sg32
(i__main__
DelphiPrimitiveType
p1367
(dp1368
g35
g36
sbsg377
(lp1369
sg37
I0
sg38
g39
sg379
(i__main__
DelphiBlock
p1370
(dp1371
g382
(idelphi
DelphiCompoundStatement
p1372
(dp1373
g385
(lp1374
(idelphi
DelphiTryExceptStatement
p1375
(dp1376
g453
(lp1377
(idelphi
DelphiIfStatement
p1378
(dp1379
g480
(idelphi
DelphiMulOp
p1380
(dp1381
g507
(idelphi
DelphiNestedExpressionListAccess
p1382
(dp1383
g392
(lp1384
sg394
(lp1385
(idelphi
DelphiNot
p1386
(dp1387
g992
(i__main__
DelphiIdentAccess
p1388
(dp1389
g401
S'isApical'
p1390
sg392
(lp1391
sbsbasbsg518
g552
sg519
(idelphi
DelphiNestedExpressionListAccess
p1392
(dp1393
g392
(lp1394
sg394
(lp1395
(i__main__
DelphiIdentAccess
p1396
(dp1397
g401
S'phytomerAttachedTo'
p1398
sg392
(lp1399
(idelphi
DelphiFieldEndAccess
p1400
(dp1401
g411
S'isFirstPhytomer'
p1402
sbasbasbsbsg499
Nsg570
(idelphi
DelphiCompoundStatement
p1403
(dp1404
g385
(lp1405
(i__main__
DelphiAssignStatement
p1406
(dp1407
g389
(i__main__
DelphiIdentAccess
p1408
(dp1409
g401
S'false'
p1410
sg392
(lp1411
sbsg424
(i__main__
DelphiIdentAccess
p1412
(dp1413
g401
S'result'
p1414
sg392
(lp1415
sbsg429
(lp1416
S'Determine probability that this meristem will produce an inflorescence, which is\r'
p1417
aS'  number of inflorescences left to be placed on plant / number of meristems open to develop\r'
p1418
aS'  (apical meristems if flowering is apical, or axillary meristems if flowering is axillary).\r'
p1419
aS'  First phytomer on plant is for seedling leaves and cannot produce inflorescences.'
p1420
asba(i__main__
DelphiExitStatement
p1421
(dp1422
S'proceduralOrMethodImplementation'
p1423
g1359
sbasbsba(idelphi
DelphiIfStatement
p1424
(dp1425
g480
(i__main__
DelphiIdentAccess
p1426
(dp1427
g401
S'isApical'
p1428
sg392
(lp1429
sbsg499
(idelphi
DelphiCompoundStatement
p1430
(dp1431
g385
(lp1432
(i__main__
DelphiAssignStatement
p1433
(dp1434
g389
(i__main__
DelphiIdentAccess
p1435
(dp1436
g401
S'plant'
p1437
sg392
(lp1438
(idelphi
DelphiFieldEndAccess
p1439
(dp1440
g411
S'pGeneral'
p1441
sba(idelphi
DelphiFieldEndAccess
p1442
(dp1443
g411
S'numAxillaryInflors'
p1444
sbasbsg424
(i__main__
DelphiIdentAccess
p1445
(dp1446
g401
S'numExpected'
p1447
sg392
(lp1448
sbsba(i__main__
DelphiAssignStatement
p1449
(dp1450
g389
(i__main__
DelphiIdentAccess
p1451
(dp1452
g401
S'plant'
p1453
sg392
(lp1454
(idelphi
DelphiFieldEndAccess
p1455
(dp1456
g411
S'numAxillaryActiveReproductiveMeristemsOrInflorescences'
p1457
sbasbsg424
(i__main__
DelphiIdentAccess
p1458
(dp1459
g401
S'numAlready'
p1460
sg392
(lp1461
sbsba(i__main__
DelphiAssignStatement
p1462
(dp1463
g389
(i__main__
DelphiIdentAccess
p1464
(dp1465
g401
S'safedivExcept'
p1466
sg392
(lp1467
(idelphi
DelphiFunctionEndAccess
p1468
(dp1469
g394
(lp1470
(idelphi
DelphiAddOp
p1471
(dp1472
g1109
S'-'
sg1110
(i__main__
DelphiIdentAccess
p1473
(dp1474
g401
S'numAlready'
p1475
sg392
(lp1476
sbsg1125
(i__main__
DelphiIdentAccess
p1477
(dp1478
g401
S'numExpected'
p1479
sg392
(lp1480
sbsba(i__main__
DelphiIdentAccess
p1481
(dp1482
g401
S'plant'
p1483
sg392
(lp1484
(idelphi
DelphiFieldEndAccess
p1485
(dp1486
g411
S'numAxillaryInactiveReproductiveMeristems'
p1487
sbasba(idelphi
DelphiIntegerValue
p1488
(dp1489
g207
S'0'
sbasbasbsg424
(i__main__
DelphiIdentAccess
p1490
(dp1491
g401
S'inflorProb'
p1492
sg392
(lp1493
sbsbasbsg570
(idelphi
DelphiCompoundStatement
p1494
(dp1495
g385
(lp1496
(i__main__
DelphiAssignStatement
p1497
(dp1498
g389
(i__main__
DelphiIdentAccess
p1499
(dp1500
g401
S'plant'
p1501
sg392
(lp1502
(idelphi
DelphiFieldEndAccess
p1503
(dp1504
g411
S'pGeneral'
p1505
sba(idelphi
DelphiFieldEndAccess
p1506
(dp1507
g411
S'numApicalInflors'
p1508
sbasbsg424
(i__main__
DelphiIdentAccess
p1509
(dp1510
g401
S'numExpected'
p1511
sg392
(lp1512
sbsba(i__main__
DelphiAssignStatement
p1513
(dp1514
g389
(i__main__
DelphiIdentAccess
p1515
(dp1516
g401
S'plant'
p1517
sg392
(lp1518
(idelphi
DelphiFieldEndAccess
p1519
(dp1520
g411
S'numApicalActiveReproductiveMeristemsOrInflorescences'
p1521
sbasbsg424
(i__main__
DelphiIdentAccess
p1522
(dp1523
g401
S'numAlready'
p1524
sg392
(lp1525
sbsba(i__main__
DelphiAssignStatement
p1526
(dp1527
g389
(i__main__
DelphiIdentAccess
p1528
(dp1529
g401
S'safedivExcept'
p1530
sg392
(lp1531
(idelphi
DelphiFunctionEndAccess
p1532
(dp1533
g394
(lp1534
(idelphi
DelphiAddOp
p1535
(dp1536
g1109
S'-'
sg1110
(i__main__
DelphiIdentAccess
p1537
(dp1538
g401
S'numAlready'
p1539
sg392
(lp1540
sbsg1125
(i__main__
DelphiIdentAccess
p1541
(dp1542
g401
S'numExpected'
p1543
sg392
(lp1544
sbsba(i__main__
DelphiIdentAccess
p1545
(dp1546
g401
S'plant'
p1547
sg392
(lp1548
(idelphi
DelphiFieldEndAccess
p1549
(dp1550
g411
S'numApicalInactiveReproductiveMeristems'
p1551
sbasba(idelphi
DelphiIntegerValue
p1552
(dp1553
g207
S'0'
sbasbasbsg424
(i__main__
DelphiIdentAccess
p1554
(dp1555
g401
S'inflorProb'
p1556
sg392
(lp1557
sbsbasbsba(idelphi
DelphiIfStatement
p1558
(dp1559
g480
(idelphi
DelphiNestedExpressionListAccess
p1560
(dp1561
g392
(lp1562
sg394
(lp1563
(idelphi
DelphiRelOp
p1564
(dp1565
g398
(i__main__
DelphiIdentAccess
p1566
(dp1567
g401
S'numExpected'
p1568
sg392
(lp1569
sbsg404
(idelphi
DelphiIntegerValue
p1570
(dp1571
g207
S'3'
sbsg423
g865
sbasbsg499
Nsg570
(i__main__
DelphiAssignStatement
p1572
(dp1573
g389
(idelphi
DelphiRealValue
p1574
(dp1575
g207
S'1.0'
p1576
sbsg424
(i__main__
DelphiIdentAccess
p1577
(dp1578
g401
S'inflorProb'
p1579
sg392
(lp1580
sbsg429
(lp1581
S"If there are only a few inflorescences on the plant, don't mess with probability; place on\r"
p1582
aS'  first few meristems.'
p1583
asbsba(idelphi
DelphiIfStatement
p1584
(dp1585
g480
(idelphi
DelphiNestedExpressionListAccess
p1586
(dp1587
g392
(lp1588
sg394
(lp1589
(idelphi
DelphiRelOp
p1590
(dp1591
g398
(i__main__
DelphiIdentAccess
p1592
(dp1593
g401
S'plant'
p1594
sg392
(lp1595
(idelphi
DelphiFieldEndAccess
p1596
(dp1597
g411
S'randomNumberGenerator'
p1598
sba(idelphi
DelphiFieldEndAccess
p1599
(dp1600
g411
S'zeroToOne'
p1601
sbasbsg404
(i__main__
DelphiIdentAccess
p1602
(dp1603
g401
S'inflorProb'
p1604
sg392
(lp1605
sbsg423
S'<'
sbasbsg499
(i__main__
DelphiAssignStatement
p1606
(dp1607
g389
(i__main__
DelphiIdentAccess
p1608
(dp1609
g401
S'false'
p1610
sg392
(lp1611
sbsg424
(i__main__
DelphiIdentAccess
p1612
(dp1613
g401
S'result'
p1614
sg392
(lp1615
sbsbsg570
(i__main__
DelphiAssignStatement
p1616
(dp1617
g389
(idelphi
DelphiNestedExpressionListAccess
p1618
(dp1619
g392
(lp1620
sg394
(lp1621
(idelphi
DelphiRelOp
p1622
(dp1623
g398
(i__main__
DelphiIdentAccess
p1624
(dp1625
g401
S'numAlready'
p1626
sg392
(lp1627
sbsg404
(i__main__
DelphiIdentAccess
p1628
(dp1629
g401
S'numExpected'
p1630
sg392
(lp1631
sbsg423
S'<'
sbasbsg424
(i__main__
DelphiIdentAccess
p1632
(dp1633
g401
S'result'
p1634
sg392
(lp1635
sbsg429
(lp1636
S"Check that the expected number of inflorescences hasn't been created already."
p1637
asbsbasg662
(idelphi
DelphiExceptionHandlers
p1638
(dp1639
g665
(lp1640
(idelphi
DelphiExceptionHandler
p1641
(dp1642
g669
(i__main__
DelphiNamedType
p1643
(dp1644
g35
S'Exception'
p1645
sg61
g1
sg62
Nsbsg401
S'e'
sg673
(idelphi
DelphiCompoundStatement
p1646
(dp1647
g385
(lp1648
(i__main__
DelphiAssignStatement
p1649
(dp1650
g389
(i__main__
DelphiIdentAccess
p1651
(dp1652
g401
S'false'
p1653
sg392
(lp1654
sbsg424
(i__main__
DelphiIdentAccess
p1655
(dp1656
g401
S'result'
p1657
sg392
(lp1658
sbsba(i__main__
DelphiAssignStatement
p1659
(dp1660
g389
Nsg424
(i__main__
DelphiIdentAccess
p1661
(dp1662
g401
S'messageForExceptionType'
p1663
sg392
(lp1664
(idelphi
DelphiFunctionEndAccess
p1665
(dp1666
g394
(lp1667
(i__main__
DelphiIdentAccess
p1668
(dp1669
g401
S'e'
sg392
(lp1670
sba(idelphi
DelphiStringAccess
p1671
(dp1672
g392
(lp1673
sg207
(idelphi
DelphiStringValue
p1674
(dp1675
g207
S'PdMeristem.willCreateInflorescence'
p1676
sbsbasbasbsbasbsbasg692
(lp1677
sbsbasbsg434
(lp1678
(i__main__
DelphiVarSection
p1679
(dp1680
g697
I0
sg698
(lp1681
(idelphi
DelphiVarDecl
p1682
(dp1683
g702
Nsg703
(lp1684
S'inflorProb'
p1685
asg57
(i__main__
DelphiPrimitiveType
p1686
(dp1687
g35
g89
sbsba(idelphi
DelphiVarDecl
p1688
(dp1689
g702
Nsg703
(lp1690
S'numExpected'
p1691
asg57
(i__main__
DelphiPrimitiveType
p1692
(dp1693
g35
g89
sbsba(idelphi
DelphiVarDecl
p1694
(dp1695
g702
Nsg703
(lp1696
S'numAlready'
p1697
asg57
(i__main__
DelphiPrimitiveType
p1698
(dp1699
g35
g89
sbsbasbasbsbsS'streamdatawithfiler'
p1700
(i__main__
DelphiMethodImplementation
p1701
(dp1702
g363
g109
sg21
g111
sg29
(lp1703
(i__main__
DelphiFormalParameter
p1704
(dp1705
g53
Nsg54
(lp1706
S'filer'
p1707
asg57
(i__main__
DelphiNamedType
p1708
(dp1709
g35
S'PdFiler'
p1710
sg61
g1
sg62
Nsbsg63
Nsba(i__main__
DelphiFormalParameter
p1711
(dp1712
g53
Nsg54
(lp1713
S'cvir'
p1714
asg57
(i__main__
DelphiNamedType
p1715
(dp1716
g35
S'PdClassAndVersionInformationRecord'
p1717
sg61
g1
sg62
Nsbsg63
g127
sbasg365
(lp1718
sg367
(lp1719
sg369
(lp1720
g371
ag1707
ag1714
asg372
(dp1721
g1707
g1708
sg1714
g1715
ssg31
S'PdMeristem'
p1722
sg32
Nsg377
(lp1723
sg37
I0
sg38
g45
sg379
(i__main__
DelphiBlock
p1724
(dp1725
g382
(idelphi
DelphiCompoundStatement
p1726
(dp1727
g385
(lp1728
(i__main__
DelphiAssignStatement
p1729
(dp1730
g389
Nsg424
(idelphi
DelphiInheritedCall
p1731
(dp1732
g401
S'streamDataWithFiler'
p1733
sg394
(lp1734
(i__main__
DelphiIdentAccess
p1735
(dp1736
g401
S'filer'
p1737
sg392
(lp1738
sba(i__main__
DelphiIdentAccess
p1739
(dp1740
g401
S'cvir'
p1741
sg392
(lp1742
sbasbsba(idelphi
DelphiWithStatement
p1743
(dp1744
g673
(idelphi
DelphiCompoundStatement
p1745
(dp1746
g385
(lp1747
(i__main__
DelphiAssignStatement
p1748
(dp1749
g389
Nsg424
(i__main__
DelphiIdentAccess
p1750
(dp1751
g401
S'streamLongint'
p1752
sg392
(lp1753
(idelphi
DelphiFunctionEndAccess
p1754
(dp1755
g394
(lp1756
(i__main__
DelphiIdentAccess
p1757
(dp1758
g401
S'daysCreatingThisPlantPart'
p1759
sg392
(lp1760
sbasbasbsba(i__main__
DelphiAssignStatement
p1761
(dp1762
g389
Nsg424
(i__main__
DelphiIdentAccess
p1763
(dp1764
g401
S'streamBoolean'
p1765
sg392
(lp1766
(idelphi
DelphiFunctionEndAccess
p1767
(dp1768
g394
(lp1769
(i__main__
DelphiIdentAccess
p1770
(dp1771
g401
S'isActive'
p1772
sg392
(lp1773
sbasbasbsba(i__main__
DelphiAssignStatement
p1774
(dp1775
g389
Nsg424
(i__main__
DelphiIdentAccess
p1776
(dp1777
g401
S'streamBoolean'
p1778
sg392
(lp1779
(idelphi
DelphiFunctionEndAccess
p1780
(dp1781
g394
(lp1782
(i__main__
DelphiIdentAccess
p1783
(dp1784
g401
S'isApical'
p1785
sg392
(lp1786
sbasbasbsba(i__main__
DelphiAssignStatement
p1787
(dp1788
g389
Nsg424
(i__main__
DelphiIdentAccess
p1789
(dp1790
g401
S'streamBoolean'
p1791
sg392
(lp1792
(idelphi
DelphiFunctionEndAccess
p1793
(dp1794
g394
(lp1795
(i__main__
DelphiIdentAccess
p1796
(dp1797
g401
S'isReproductive'
p1798
sg392
(lp1799
sbasbasbsba(i__main__
DelphiAssignStatement
p1800
(dp1801
g389
Nsg424
(i__main__
DelphiIdentAccess
p1802
(dp1803
g401
S'streamSmallint'
p1804
sg392
(lp1805
(idelphi
DelphiFunctionEndAccess
p1806
(dp1807
g394
(lp1808
(i__main__
DelphiIdentAccess
p1809
(dp1810
g401
S'gender'
p1811
sg392
(lp1812
sbasbasbsbasbsS'variableReferenceList'
p1813
(lp1814
(i__main__
DelphiIdentAccess
p1815
(dp1816
g401
S'filer'
p1817
sg392
(lp1818
sbasbasbsg434
(lp1819
sbsbsS'parttype'
p1820
(i__main__
DelphiMethodImplementation
p1821
(dp1822
g363
g129
sg21
g131
sg29
(lp1823
sg365
(lp1824
sg367
(lp1825
sg369
(lp1826
g371
asg372
(dp1827
sg31
S'PdMeristem'
p1828
sg32
(i__main__
DelphiPrimitiveType
p1829
(dp1830
g35
g135
sbsg377
(lp1831
sg37
I0
sg38
g39
sg379
(i__main__
DelphiBlock
p1832
(dp1833
g382
(idelphi
DelphiCompoundStatement
p1834
(dp1835
g385
(lp1836
(i__main__
DelphiAssignStatement
p1837
(dp1838
g389
(i__main__
DelphiIdentAccess
p1839
(dp1840
g401
S'kPartTypeMeristem'
p1841
sg392
(lp1842
sbsg424
(i__main__
DelphiIdentAccess
p1843
(dp1844
g401
S'result'
p1845
sg392
(lp1846
sbsbasbsg434
(lp1847
sbsbsS'startreproduction'
p1848
(i__main__
DelphiMethodImplementation
p1849
(dp1850
g363
g209
sg21
g211
sg29
(lp1851
sg365
(lp1852
sg367
(lp1853
sg369
(lp1854
g371
asg372
(dp1855
sg31
S'PdMeristem'
p1856
sg32
Nsg377
(lp1857
sg37
I0
sg38
g45
sg379
(i__main__
DelphiBlock
p1858
(dp1859
g382
(idelphi
DelphiCompoundStatement
p1860
(dp1861
g385
(lp1862
(idelphi
DelphiIfStatement
p1863
(dp1864
g480
(idelphi
DelphiNestedExpressionListAccess
p1865
(dp1866
g392
(lp1867
sg394
(lp1868
(idelphi
DelphiRelOp
p1869
(dp1870
g398
(i__main__
DelphiIdentAccess
p1871
(dp1872
g401
S'plant'
p1873
sg392
(lp1874
(idelphi
DelphiFieldEndAccess
p1875
(dp1876
g411
S'randomNumberGenerator'
p1877
sba(idelphi
DelphiFieldEndAccess
p1878
(dp1879
g411
S'zeroToOne'
p1880
sbasbsg404
(i__main__
DelphiIdentAccess
p1881
(dp1882
g401
S'plant'
p1883
sg392
(lp1884
(idelphi
DelphiFieldEndAccess
p1885
(dp1886
g411
S'pMeristem'
p1887
sba(idelphi
DelphiFieldEndAccess
p1888
(dp1889
g411
S'determinateProbability'
p1890
sbasbsg423
g865
sbasbsg499
Nsg570
(i__main__
DelphiAssignStatement
p1891
(dp1892
g389
Nsg424
(i__main__
DelphiIdentAccess
p1893
(dp1894
g401
S'self'
p1895
sg392
(lp1896
(idelphi
DelphiFieldEndAccess
p1897
(dp1898
g411
S'setIfReproductive'
p1899
sba(idelphi
DelphiFunctionEndAccess
p1900
(dp1901
g394
(lp1902
(i__main__
DelphiIdentAccess
p1903
(dp1904
g401
S'true'
p1905
sg392
(lp1906
sbasbasbsg429
(lp1907
S'Decide gender and activity based on whether the plant has hermaphroditic or separate flowers, and if\r'
p1908
aS'    hermaphroditic, female and/or male flowers are located terminally or axially.'
p1909
asbsba(idelphi
DelphiIfStatement
p1910
(dp1911
g480
(idelphi
DelphiNot
p1912
(dp1913
g992
(i__main__
DelphiIdentAccess
p1914
(dp1915
g401
S'isReproductive'
p1916
sg392
(lp1917
sbsbsg499
Nsg570
(i__main__
DelphiExitStatement
p1918
(dp1919
g1423
g1849
sbsba(i__main__
DelphiAssignStatement
p1920
(dp1921
g389
Nsg424
(i__main__
DelphiIdentAccess
p1922
(dp1923
g401
S'self'
p1924
sg392
(lp1925
(idelphi
DelphiFieldEndAccess
p1926
(dp1927
g411
S'setIfActive'
p1928
sba(idelphi
DelphiFunctionEndAccess
p1929
(dp1930
g394
(lp1931
(i__main__
DelphiIdentAccess
p1932
(dp1933
g401
S'false'
p1934
sg392
(lp1935
sbasbasbsba(i__main__
DelphiAssignStatement
p1936
(dp1937
g389
(i__main__
DelphiIdentAccess
p1938
(dp1939
g401
S'kGenderFemale'
p1940
sg392
(lp1941
sbsg424
(i__main__
DelphiIdentAccess
p1942
(dp1943
g401
S'gender'
p1944
sg392
(lp1945
sbsba(idelphi
DelphiIfStatement
p1946
(dp1947
g480
(idelphi
DelphiNot
p1948
(dp1949
g992
(i__main__
DelphiIdentAccess
p1950
(dp1951
g401
S'plant'
p1952
sg392
(lp1953
(idelphi
DelphiFieldEndAccess
p1954
(dp1955
g411
S'pGeneral'
p1956
sba(idelphi
DelphiFieldEndAccess
p1957
(dp1958
g411
S'maleFlowersAreSeparate'
p1959
sbasbsbsg499
(idelphi
DelphiCompoundStatement
p1960
(dp1961
g385
(lp1962
(idelphi
DelphiIfStatement
p1963
(dp1964
g480
(i__main__
DelphiIdentAccess
p1965
(dp1966
g401
S'self'
p1967
sg392
(lp1968
(idelphi
DelphiFieldEndAccess
p1969
(dp1970
g411
S'decideIfActiveMale'
p1971
sbasbsg499
Nsg570
(i__main__
DelphiAssignStatement
p1972
(dp1973
g389
(i__main__
DelphiIdentAccess
p1974
(dp1975
g401
S'kGenderMale'
p1976
sg392
(lp1977
sbsg424
(i__main__
DelphiIdentAccess
p1978
(dp1979
g401
S'Gender'
p1980
sg392
(lp1981
sbsbsba(idelphi
DelphiIfStatement
p1982
(dp1983
g480
(i__main__
DelphiIdentAccess
p1984
(dp1985
g401
S'self'
p1986
sg392
(lp1987
(idelphi
DelphiFieldEndAccess
p1988
(dp1989
g411
S'decideIfActiveFemale'
p1990
sbasbsg499
Nsg570
(i__main__
DelphiAssignStatement
p1991
(dp1992
g389
(i__main__
DelphiIdentAccess
p1993
(dp1994
g401
S'kGenderFemale'
p1995
sg392
(lp1996
sbsg424
(i__main__
DelphiIdentAccess
p1997
(dp1998
g401
S'Gender'
p1999
sg392
(lp2000
sbsbsbasbsg570
(idelphi
DelphiCompoundStatement
p2001
(dp2002
g385
(lp2003
(idelphi
DelphiIfStatement
p2004
(dp2005
g480
(i__main__
DelphiIdentAccess
p2006
(dp2007
g401
S'self'
p2008
sg392
(lp2009
(idelphi
DelphiFieldEndAccess
p2010
(dp2011
g411
S'decideIfActiveHermaphroditic'
p2012
sbasbsg499
Nsg570
(i__main__
DelphiAssignStatement
p2013
(dp2014
g389
(i__main__
DelphiIdentAccess
p2015
(dp2016
g401
S'kGenderFemale'
p2017
sg392
(lp2018
sbsg424
(i__main__
DelphiIdentAccess
p2019
(dp2020
g401
S'Gender'
p2021
sg392
(lp2022
sbsbsbasbsba(idelphi
DelphiIfStatement
p2023
(dp2024
g480
(i__main__
DelphiIdentAccess
p2025
(dp2026
g401
S'self'
p2027
sg392
(lp2028
(idelphi
DelphiFieldEndAccess
p2029
(dp2030
g411
S'willCreateInflorescence'
p2031
sbasbsg499
Nsg570
(i__main__
DelphiAssignStatement
p2032
(dp2033
g389
Nsg424
(i__main__
DelphiIdentAccess
p2034
(dp2035
g401
S'self'
p2036
sg392
(lp2037
(idelphi
DelphiFieldEndAccess
p2038
(dp2039
g411
S'setIfActive'
p2040
sba(idelphi
DelphiFunctionEndAccess
p2041
(dp2042
g394
(lp2043
(i__main__
DelphiIdentAccess
p2044
(dp2045
g401
S'true'
p2046
sg392
(lp2047
sbasbasbsbsbasbsg434
(lp2048
sbsbsS'setifreproductive'
p2049
(i__main__
DelphiMethodImplementation
p2050
(dp2051
g363
g137
sg21
g139
sg29
(lp2052
(i__main__
DelphiFormalParameter
p2053
(dp2054
g53
Nsg54
(lp2055
S'reproductive'
p2056
asg57
(i__main__
DelphiPrimitiveType
p2057
(dp2058
g35
g36
sbsg63
Nsbasg365
(lp2059
sg367
(lp2060
sg369
(lp2061
g371
ag2056
asg372
(dp2062
g2056
g2057
ssg31
S'PdMeristem'
p2063
sg32
Nsg377
(lp2064
sg37
I0
sg38
g45
sg379
(i__main__
DelphiBlock
p2065
(dp2066
g382
(idelphi
DelphiCompoundStatement
p2067
(dp2068
g385
(lp2069
(idelphi
DelphiIfStatement
p2070
(dp2071
g480
(idelphi
DelphiRelOp
p2072
(dp2073
g398
(i__main__
DelphiIdentAccess
p2074
(dp2075
g401
S'isReproductive'
p2076
sg392
(lp2077
sbsg404
(i__main__
DelphiIdentAccess
p2078
(dp2079
g401
S'reproductive'
p2080
sg392
(lp2081
sbsg423
g1222
sbsg499
Nsg570
(idelphi
DelphiCompoundStatement
p2082
(dp2083
g385
(lp2084
(i__main__
DelphiAssignStatement
p2085
(dp2086
g389
(i__main__
DelphiIdentAccess
p2087
(dp2088
g401
S'reproductive'
p2089
sg392
(lp2090
sbsg424
(i__main__
DelphiIdentAccess
p2091
(dp2092
g401
S'isReproductive'
p2093
sg392
(lp2094
sbsg429
(lp2095
S'assume can only become reproductive and not go other way'
p2096
asba(idelphi
DelphiIfStatement
p2097
(dp2098
g480
(i__main__
DelphiIdentAccess
p2099
(dp2100
g401
S'isActive'
p2101
sg392
(lp2102
sbsg499
(idelphi
DelphiCompoundStatement
p2103
(dp2104
g385
(lp2105
(idelphi
DelphiIfStatement
p2106
(dp2107
g480
(i__main__
DelphiIdentAccess
p2108
(dp2109
g401
S'isApical'
p2110
sg392
(lp2111
sbsg499
(i__main__
DelphiIncOrDecStatement
p2112
(dp2113
g1024
g1025
sg1026
Nsg424
(i__main__
DelphiIdentAccess
p2114
(dp2115
g401
S'plant'
p2116
sg392
(lp2117
(idelphi
DelphiFieldEndAccess
p2118
(dp2119
g411
S'numAxillaryInactiveReproductiveMeristems'
p2120
sbasbsbsg570
(i__main__
DelphiIncOrDecStatement
p2121
(dp2122
g1024
g1025
sg1026
Nsg424
(i__main__
DelphiIdentAccess
p2123
(dp2124
g401
S'plant'
p2125
sg392
(lp2126
(idelphi
DelphiFieldEndAccess
p2127
(dp2128
g411
S'numApicalInactiveReproductiveMeristems'
p2129
sbasbsg429
(lp2130
S'not isApical'
p2131
asbsbasbsg570
(idelphi
DelphiCompoundStatement
p2132
(dp2133
g385
(lp2134
(idelphi
DelphiIfStatement
p2135
(dp2136
g480
(i__main__
DelphiIdentAccess
p2137
(dp2138
g401
S'isApical'
p2139
sg392
(lp2140
sbsg499
(i__main__
DelphiIncOrDecStatement
p2141
(dp2142
g1024
g1025
sg1026
Nsg424
(i__main__
DelphiIdentAccess
p2143
(dp2144
g401
S'plant'
p2145
sg392
(lp2146
(idelphi
DelphiFieldEndAccess
p2147
(dp2148
g411
S'numAxillaryActiveReproductiveMeristemsOrInflorescences'
p2149
sbasbsbsg570
(i__main__
DelphiIncOrDecStatement
p2150
(dp2151
g1024
g1025
sg1026
Nsg424
(i__main__
DelphiIdentAccess
p2152
(dp2153
g401
S'plant'
p2154
sg392
(lp2155
(idelphi
DelphiFieldEndAccess
p2156
(dp2157
g411
S'numApicalActiveReproductiveMeristemsOrInflorescences'
p2158
sbasbsg429
(lp2159
S'not isApical'
p2160
asbsbasg429
(lp2161
S'not isActive'
p2162
asbsbasbsbasbsg434
(lp2163
sbsbsS'accumulateorcreateinflorescence'
p2164
(i__main__
DelphiMethodImplementation
p2165
(dp2166
g363
g148
sg21
g150
sg29
(lp2167
sg365
(lp2168
sg367
(lp2169
sg369
(lp2170
g371
asg372
(dp2171
sg31
S'PdMeristem'
p2172
sg32
Nsg377
(lp2173
sg37
I0
sg38
g45
sg379
(i__main__
DelphiBlock
p2174
(dp2175
g382
(idelphi
DelphiCompoundStatement
p2176
(dp2177
g385
(lp2178
(idelphi
DelphiTryExceptStatement
p2179
(dp2180
g453
(lp2181
(idelphi
DelphiIfStatement
p2182
(dp2183
g480
(idelphi
DelphiAddOp
p2184
(dp2185
g1109
S'or'
p2186
sg1110
(idelphi
DelphiNot
p2187
(dp2188
g992
(i__main__
DelphiIdentAccess
p2189
(dp2190
g401
S'isActive'
p2191
sg392
(lp2192
sbsbsg1125
(idelphi
DelphiAddOp
p2193
(dp2194
g1109
g2186
sg1110
(idelphi
DelphiNot
p2195
(dp2196
g992
(i__main__
DelphiIdentAccess
p2197
(dp2198
g401
S'isReproductive'
p2199
sg392
(lp2200
sbsbsg1125
(i__main__
DelphiIdentAccess
p2201
(dp2202
g401
S'phytomerAttachedTo'
p2203
sg392
(lp2204
(idelphi
DelphiFieldEndAccess
p2205
(dp2206
g411
S'isFirstPhytomer'
p2207
sbasbsbsbsg499
Nsg570
(i__main__
DelphiExitStatement
p2208
(dp2209
g1423
g2165
sbsba(i__main__
DelphiAssignStatement
p2210
(dp2211
g389
(i__main__
DelphiIdentAccess
p2212
(dp2213
g401
S'false'
p2214
sg392
(lp2215
sbsg424
(i__main__
DelphiIdentAccess
p2216
(dp2217
g401
S'shouldCreateInflorescence'
p2218
sg392
(lp2219
sbsba(i__main__
DelphiAssignStatement
p2220
(dp2221
g389
(i__main__
DelphiIdentAccess
p2222
(dp2223
g401
S'PdInflorescence'
p2224
sg392
(lp2225
(idelphi
DelphiFieldEndAccess
p2226
(dp2227
g411
S'optimalInitialBiomass_pctMPB'
p2228
sba(idelphi
DelphiFunctionEndAccess
p2229
(dp2230
g394
(lp2231
(i__main__
DelphiIdentAccess
p2232
(dp2233
g401
S'plant'
p2234
sg392
(lp2235
sba(i__main__
DelphiIdentAccess
p2236
(dp2237
g401
S'gender'
p2238
sg392
(lp2239
sbasbasbsg424
(i__main__
DelphiIdentAccess
p2240
(dp2241
g401
S'optimalInitialBiomass_pctMPB'
p2242
sg392
(lp2243
sbsba(idelphi
DelphiIfStatement
p2244
(dp2245
g480
(idelphi
DelphiNestedExpressionListAccess
p2246
(dp2247
g392
(lp2248
sg394
(lp2249
(idelphi
DelphiRelOp
p2250
(dp2251
g398
(i__main__
DelphiIdentAccess
p2252
(dp2253
g401
S'self'
p2254
sg392
(lp2255
(idelphi
DelphiFieldEndAccess
p2256
(dp2257
g411
S'liveBiomass_pctMPB'
p2258
sbasbsg404
(i__main__
DelphiIdentAccess
p2259
(dp2260
g401
S'optimalInitialBiomass_pctMPB'
p2261
sg392
(lp2262
sbsg423
g498
sbasbsg499
(idelphi
DelphiCompoundStatement
p2263
(dp2264
g385
(lp2265
(i__main__
DelphiAssignStatement
p2266
(dp2267
g389
(idelphi
DelphiMulOp
p2268
(dp2269
g507
(i__main__
DelphiIdentAccess
p2270
(dp2271
g401
S'plant'
p2272
sg392
(lp2273
(idelphi
DelphiFieldEndAccess
p2274
(dp2275
g411
S'pInternode'
p2276
sba(idelphi
DelphiFieldEndAccess
p2277
(dp2278
g411
S'minFractionOfOptimalInitialBiomassToCreateInternode_frn'
p2279
sbasbsg518
S'*'
sg519
(i__main__
DelphiIdentAccess
p2280
(dp2281
g401
S'optimalInitialBiomass_pctMPB'
p2282
sg392
(lp2283
sbsbsg424
(i__main__
DelphiIdentAccess
p2284
(dp2285
g401
S'minBiomassNeeded_pctMPB'
p2286
sg392
(lp2287
sbsba(idelphi
DelphiIfStatement
p2288
(dp2289
g480
(idelphi
DelphiMulOp
p2290
(dp2291
g507
(idelphi
DelphiNestedExpressionListAccess
p2292
(dp2293
g392
(lp2294
sg394
(lp2295
(idelphi
DelphiRelOp
p2296
(dp2297
g398
(i__main__
DelphiIdentAccess
p2298
(dp2299
g401
S'daysCreatingThisPlantPart'
p2300
sg392
(lp2301
sbsg404
(i__main__
DelphiIdentAccess
p2302
(dp2303
g401
S'plant'
p2304
sg392
(lp2305
(idelphi
DelphiFieldEndAccess
p2306
(dp2307
g411
S'pInflor'
p2308
sba(idelphi
DelphiArrayEndAccess
p2309
(dp2310
g394
(lp2311
(i__main__
DelphiIdentAccess
p2312
(dp2313
g401
S'gender'
p2314
sg392
(lp2315
sbasba(idelphi
DelphiFieldEndAccess
p2316
(dp2317
g411
S'maxDaysToCreateInflorescenceIfOverMinFraction'
p2318
sbasbsg423
g498
sbasbsg518
g552
sg519
(idelphi
DelphiNestedExpressionListAccess
p2319
(dp2320
g392
(lp2321
sg394
(lp2322
(idelphi
DelphiRelOp
p2323
(dp2324
g398
(i__main__
DelphiIdentAccess
p2325
(dp2326
g401
S'self'
p2327
sg392
(lp2328
(idelphi
DelphiFieldEndAccess
p2329
(dp2330
g411
S'liveBiomass_pctMPB'
p2331
sbasbsg404
(i__main__
DelphiIdentAccess
p2332
(dp2333
g401
S'minBiomassNeeded_pctMPB'
p2334
sg392
(lp2335
sbsg423
g498
sbasbsbsg499
Nsg570
(i__main__
DelphiAssignStatement
p2336
(dp2337
g389
(i__main__
DelphiIdentAccess
p2338
(dp2339
g401
S'true'
p2340
sg392
(lp2341
sbsg424
(i__main__
DelphiIdentAccess
p2342
(dp2343
g401
S'shouldCreateInflorescence'
p2344
sg392
(lp2345
sbsbsbasbsg570
(i__main__
DelphiAssignStatement
p2346
(dp2347
g389
(i__main__
DelphiIdentAccess
p2348
(dp2349
g401
S'true'
p2350
sg392
(lp2351
sbsg424
(i__main__
DelphiIdentAccess
p2352
(dp2353
g401
S'shouldCreateInflorescence'
p2354
sg392
(lp2355
sbsbsba(idelphi
DelphiIfStatement
p2356
(dp2357
g480
(i__main__
DelphiIdentAccess
p2358
(dp2359
g401
S'shouldCreateInflorescence'
p2360
sg392
(lp2361
sbsg499
Nsg570
(idelphi
DelphiCompoundStatement
p2362
(dp2363
g385
(lp2364
(i__main__
DelphiAssignStatement
p2365
(dp2366
g389
(i__main__
DelphiIdentAccess
p2367
(dp2368
g401
S'safedivExcept'
p2369
sg392
(lp2370
(idelphi
DelphiFunctionEndAccess
p2371
(dp2372
g394
(lp2373
(i__main__
DelphiIdentAccess
p2374
(dp2375
g401
S'liveBiomass_pctMPB'
p2376
sg392
(lp2377
sba(i__main__
DelphiIdentAccess
p2378
(dp2379
g401
S'optimalInitialBiomass_pctMPB'
p2380
sg392
(lp2381
sba(idelphi
DelphiIntegerValue
p2382
(dp2383
g207
S'0'
sbasbasbsg424
(i__main__
DelphiIdentAccess
p2384
(dp2385
g401
S'fractionOfOptimalSize'
p2386
sg392
(lp2387
sbsba(i__main__
DelphiAssignStatement
p2388
(dp2389
g389
Nsg424
(i__main__
DelphiIdentAccess
p2390
(dp2391
g401
S'self'
p2392
sg392
(lp2393
(idelphi
DelphiFieldEndAccess
p2394
(dp2395
g411
S'createInflorescence'
p2396
sba(idelphi
DelphiFunctionEndAccess
p2397
(dp2398
g394
(lp2399
(i__main__
DelphiIdentAccess
p2400
(dp2401
g401
S'fractionOfOptimalSize'
p2402
sg392
(lp2403
sbasbasbsba(i__main__
DelphiAssignStatement
p2404
(dp2405
g389
(idelphi
DelphiRealValue
p2406
(dp2407
g207
S'0.0'
p2408
sbsg424
(i__main__
DelphiIdentAccess
p2409
(dp2410
g401
S'self'
p2411
sg392
(lp2412
(idelphi
DelphiFieldEndAccess
p2413
(dp2414
g411
S'liveBiomass_pctMPB'
p2415
sbasbsba(i__main__
DelphiAssignStatement
p2416
(dp2417
g389
(idelphi
DelphiIntegerValue
p2418
(dp2419
g207
S'0'
sbsg424
(i__main__
DelphiIdentAccess
p2420
(dp2421
g401
S'self'
p2422
sg392
(lp2423
(idelphi
DelphiFieldEndAccess
p2424
(dp2425
g411
S'daysCreatingThisPlantPart'
p2426
sbasbsbasbsbasg662
(idelphi
DelphiExceptionHandlers
p2427
(dp2428
g665
(lp2429
(idelphi
DelphiExceptionHandler
p2430
(dp2431
g669
(i__main__
DelphiNamedType
p2432
(dp2433
g35
S'Exception'
p2434
sg61
g1
sg62
Nsbsg401
S'e'
sg673
(i__main__
DelphiAssignStatement
p2435
(dp2436
g389
Nsg424
(i__main__
DelphiIdentAccess
p2437
(dp2438
g401
S'messageForExceptionType'
p2439
sg392
(lp2440
(idelphi
DelphiFunctionEndAccess
p2441
(dp2442
g394
(lp2443
(i__main__
DelphiIdentAccess
p2444
(dp2445
g401
S'e'
sg392
(lp2446
sba(idelphi
DelphiStringAccess
p2447
(dp2448
g392
(lp2449
sg207
(idelphi
DelphiStringValue
p2450
(dp2451
g207
S'PdMeristem.accumulateOrCreateInflorescence'
p2452
sbsbasbasbsbsbasg692
(lp2453
sbsbasbsg434
(lp2454
(i__main__
DelphiVarSection
p2455
(dp2456
g697
I0
sg698
(lp2457
(idelphi
DelphiVarDecl
p2458
(dp2459
g702
Nsg703
(lp2460
S'optimalInitialBiomass_pctMPB'
p2461
aS'minBiomassNeeded_pctMPB'
p2462
aS'fractionOfOptimalSize'
p2463
asg57
(i__main__
DelphiPrimitiveType
p2464
(dp2465
g35
g89
sbsba(idelphi
DelphiVarDecl
p2466
(dp2467
g702
Nsg703
(lp2468
S'shouldCreateInflorescence'
p2469
asg57
(i__main__
DelphiPrimitiveType
p2470
(dp2471
g35
g36
sbsbasbasbsbsS'decideifactivefemale'
p2472
(i__main__
DelphiMethodImplementation
p2473
(dp2474
g363
g153
sg21
g155
sg29
(lp2475
sg365
(lp2476
sg367
(lp2477
sg369
(lp2478
g371
asg372
(dp2479
sg31
S'PdMeristem'
p2480
sg32
(i__main__
DelphiPrimitiveType
p2481
(dp2482
g35
g36
sbsg377
(lp2483
sg37
I0
sg38
g39
sg379
(i__main__
DelphiBlock
p2484
(dp2485
g382
(idelphi
DelphiCompoundStatement
p2486
(dp2487
g385
(lp2488
(i__main__
DelphiAssignStatement
p2489
(dp2490
g389
(idelphi
DelphiNestedExpressionListAccess
p2491
(dp2492
g392
(lp2493
sg394
(lp2494
(idelphi
DelphiRelOp
p2495
(dp2496
g398
(i__main__
DelphiIdentAccess
p2497
(dp2498
g401
S'isApical'
p2499
sg392
(lp2500
sbsg404
(i__main__
DelphiIdentAccess
p2501
(dp2502
g401
S'plant'
p2503
sg392
(lp2504
(idelphi
DelphiFieldEndAccess
p2505
(dp2506
g411
S'pInflor'
p2507
sba(idelphi
DelphiArrayEndAccess
p2508
(dp2509
g394
(lp2510
(i__main__
DelphiIdentAccess
p2511
(dp2512
g401
S'kGenderFemale'
p2513
sg392
(lp2514
sbasba(idelphi
DelphiFieldEndAccess
p2515
(dp2516
g411
S'isTerminal'
p2517
sbasbsg423
S'='
sbasbsg424
(i__main__
DelphiIdentAccess
p2518
(dp2519
g401
S'result'
p2520
sg392
(lp2521
sbsg429
(lp2522
S'For the case of separate male and female flowers, decide if this meristem will be able to create\r'
p2523
aS'  a female inflorescence. Called by decideReproductiveGenderAndActivity.'
p2524
aS'If meristem is already male, then both male and female flowers are apical (or axillary).\r'
p2525
aS'  in that case, override with female only half the time.'
p2526
asba(idelphi
DelphiIfStatement
p2527
(dp2528
g480
(idelphi
DelphiMulOp
p2529
(dp2530
g507
(idelphi
DelphiNestedExpressionListAccess
p2531
(dp2532
g392
(lp2533
sg394
(lp2534
(idelphi
DelphiRelOp
p2535
(dp2536
g398
(i__main__
DelphiIdentAccess
p2537
(dp2538
g401
S'gender'
p2539
sg392
(lp2540
sbsg404
(i__main__
DelphiIdentAccess
p2541
(dp2542
g401
S'kGenderMale'
p2543
sg392
(lp2544
sbsg423
S'='
sbasbsg518
g552
sg519
(i__main__
DelphiIdentAccess
p2545
(dp2546
g401
S'result'
p2547
sg392
(lp2548
sbsbsg499
Nsg570
(i__main__
DelphiAssignStatement
p2549
(dp2550
g389
(idelphi
DelphiNestedExpressionListAccess
p2551
(dp2552
g392
(lp2553
sg394
(lp2554
(idelphi
DelphiRelOp
p2555
(dp2556
g398
(i__main__
DelphiIdentAccess
p2557
(dp2558
g401
S'plant'
p2559
sg392
(lp2560
(idelphi
DelphiFieldEndAccess
p2561
(dp2562
g411
S'randomNumberGenerator'
p2563
sba(idelphi
DelphiFieldEndAccess
p2564
(dp2565
g411
S'zeroToOne'
p2566
sbasbsg404
(idelphi
DelphiRealValue
p2567
(dp2568
g207
S'0.5'
p2569
sbsg423
S'<'
sbasbsg424
(i__main__
DelphiIdentAccess
p2570
(dp2571
g401
S'result'
p2572
sg392
(lp2573
sbsbsbasbsg434
(lp2574
sbsbsS'createinflorescence'
p2575
(i__main__
DelphiMethodImplementation
p2576
(dp2577
g363
g160
sg21
g162
sg29
(lp2578
(i__main__
DelphiFormalParameter
p2579
(dp2580
g53
Nsg54
(lp2581
S'fractionOfOptimalSize'
p2582
asg57
(i__main__
DelphiPrimitiveType
p2583
(dp2584
g35
g89
sbsg63
Nsbasg365
(lp2585
sg367
(lp2586
sg369
(lp2587
g371
ag2582
asg372
(dp2588
g2582
g2583
ssg31
S'PdMeristem'
p2589
sg32
Nsg377
(lp2590
sg37
I0
sg38
g45
sg379
(i__main__
DelphiBlock
p2591
(dp2592
g382
(idelphi
DelphiCompoundStatement
p2593
(dp2594
g385
(lp2595
(idelphi
DelphiIfStatement
p2596
(dp2597
g480
(idelphi
DelphiRelOp
p2598
(dp2599
g398
(i__main__
DelphiIdentAccess
p2600
(dp2601
g401
S'plant'
p2602
sg392
(lp2603
(idelphi
DelphiFieldEndAccess
p2604
(dp2605
g411
S'partsCreated'
p2606
sbasbsg404
(idelphi
DelphiMulOp
p2607
(dp2608
g507
(idelphi
DelphiIntegerValue
p2609
(dp2610
g207
S'1000'
p2611
sbsg518
S'*'
sg519
(i__main__
DelphiIdentAccess
p2612
(dp2613
g401
S'domain'
p2614
sg392
(lp2615
(idelphi
DelphiFieldEndAccess
p2616
(dp2617
g411
S'options'
p2618
sba(idelphi
DelphiFieldEndAccess
p2619
(dp2620
g411
S'maxPartsPerPlant_thousands'
p2621
sbasbsbsg423
S'>'
sbsg499
Nsg570
(i__main__
DelphiExitStatement
p2622
(dp2623
g1423
g2576
sg429
(lp2624
S' v1.6b1\r'
p2625
asbsba(i__main__
DelphiAssignStatement
p2626
(dp2627
g389
(i__main__
DelphiIdentAccess
p2628
(dp2629
g401
S'PdInflorescence'
p2630
sg392
(lp2631
(idelphi
DelphiFieldEndAccess
p2632
(dp2633
g411
S'create'
p2634
sbasbsg424
(i__main__
DelphiIdentAccess
p2635
(dp2636
g401
S'newInflorescence'
p2637
sg392
(lp2638
sbsba(i__main__
DelphiAssignStatement
p2639
(dp2640
g389
Nsg424
(i__main__
DelphiIdentAccess
p2641
(dp2642
g401
S'newInflorescence'
p2643
sg392
(lp2644
(idelphi
DelphiFieldEndAccess
p2645
(dp2646
g411
S'InitializeGenderApicalOrAxillary'
p2647
sba(idelphi
DelphiFunctionEndAccess
p2648
(dp2649
g394
(lp2650
(i__main__
DelphiIdentAccess
p2651
(dp2652
g401
S'plant'
p2653
sg392
(lp2654
sba(i__main__
DelphiIdentAccess
p2655
(dp2656
g401
S'gender'
p2657
sg392
(lp2658
sba(i__main__
DelphiIdentAccess
p2659
(dp2660
g401
S'isApical'
p2661
sg392
(lp2662
sba(i__main__
DelphiIdentAccess
p2663
(dp2664
g401
S'fractionOfOptimalSize'
p2665
sg392
(lp2666
sbasbasbsba(i__main__
DelphiAssignStatement
p2667
(dp2668
g389
(i__main__
DelphiIdentAccess
p2669
(dp2670
g401
S'self'
p2671
sg392
(lp2672
sbsg424
(i__main__
DelphiIdentAccess
p2673
(dp2674
g401
S'newInflorescence'
p2675
sg392
(lp2676
(idelphi
DelphiFieldEndAccess
p2677
(dp2678
g411
S'meristemThatCreatedMe'
p2679
sbasbsba(i__main__
DelphiAssignStatement
p2680
(dp2681
g389
(i__main__
DelphiIdentAccess
p2682
(dp2683
g401
S'self'
p2684
sg392
(lp2685
(idelphi
DelphiFieldEndAccess
p2686
(dp2687
g411
S'phytomerAttachedTo'
p2688
sbasbsg424
(i__main__
DelphiIdentAccess
p2689
(dp2690
g401
S'newInflorescence'
p2691
sg392
(lp2692
(idelphi
DelphiFieldEndAccess
p2693
(dp2694
g411
S'phytomerAttachedTo'
p2695
sbasbsba(idelphi
DelphiIfStatement
p2696
(dp2697
g480
(i__main__
DelphiIdentAccess
p2698
(dp2699
g401
S'isApical'
p2700
sg392
(lp2701
sbsg499
(idelphi
DelphiIfStatement
p2702
(dp2703
g480
(idelphi
DelphiRelOp
p2704
(dp2705
g398
(i__main__
DelphiIdentAccess
p2706
(dp2707
g401
S'phytomerAttachedTo'
p2708
sg392
(lp2709
(idelphi
DelphiFieldEndAccess
p2710
(dp2711
g411
S'LeftBranchPlantPart'
p2712
sbasbsg404
(i__main__
DelphiIdentAccess
p2713
(dp2714
g401
S'self'
p2715
sg392
(lp2716
sbsg423
S'='
sbsg499
(idelphi
DelphiIfStatement
p2717
(dp2718
g480
(idelphi
DelphiRelOp
p2719
(dp2720
g398
(i__main__
DelphiIdentAccess
p2721
(dp2722
g401
S'phytomerAttachedTo'
p2723
sg392
(lp2724
(idelphi
DelphiFieldEndAccess
p2725
(dp2726
g411
S'RightBranchPlantPart'
p2727
sbasbsg404
(i__main__
DelphiIdentAccess
p2728
(dp2729
g401
S'self'
p2730
sg392
(lp2731
sbsg423
S'='
sbsg499
(idelphi
DelphiRaiseStatement
p2732
(dp2733
g480
(i__main__
DelphiIdentAccess
p2734
(dp2735
g401
S'Exception'
p2736
sg392
(lp2737
(idelphi
DelphiFieldEndAccess
p2738
(dp2739
g411
S'create'
p2740
sba(idelphi
DelphiFunctionEndAccess
p2741
(dp2742
g394
(lp2743
(idelphi
DelphiStringAccess
p2744
(dp2745
g392
(lp2746
sg207
(idelphi
DelphiStringValue
p2747
(dp2748
g207
S'Problem: Branching incorrect in method PdMeristem.createInflorescence.'
p2749
sbsbasbasbsbsg570
(i__main__
DelphiAssignStatement
p2750
(dp2751
g389
(i__main__
DelphiIdentAccess
p2752
(dp2753
g401
S'newInflorescence'
p2754
sg392
(lp2755
sbsg424
(i__main__
DelphiIdentAccess
p2756
(dp2757
g401
S'phytomerAttachedTo'
p2758
sg392
(lp2759
(idelphi
DelphiFieldEndAccess
p2760
(dp2761
g411
S'RightBranchPlantPart'
p2762
sbasbsbsbsg570
(i__main__
DelphiAssignStatement
p2763
(dp2764
g389
(i__main__
DelphiIdentAccess
p2765
(dp2766
g401
S'newInflorescence'
p2767
sg392
(lp2768
sbsg424
(i__main__
DelphiIdentAccess
p2769
(dp2770
g401
S'phytomerAttachedTo'
p2771
sg392
(lp2772
(idelphi
DelphiFieldEndAccess
p2773
(dp2774
g411
S'LeftBranchPlantPart'
p2775
sbasbsbsbsg570
(i__main__
DelphiAssignStatement
p2776
(dp2777
g389
(i__main__
DelphiIdentAccess
p2778
(dp2779
g401
S'newInflorescence'
p2780
sg392
(lp2781
sbsg424
(i__main__
DelphiIdentAccess
p2782
(dp2783
g401
S'phytomerAttachedTo'
p2784
sg392
(lp2785
(idelphi
DelphiFieldEndAccess
p2786
(dp2787
g411
S'NextPlantPart'
p2788
sbasbsbsba(i__main__
DelphiAssignStatement
p2789
(dp2790
g389
(idelphi
DelphiNilValue
p2791
(dp2792
bsg424
(i__main__
DelphiIdentAccess
p2793
(dp2794
g401
S'PhytomerAttachedTo'
p2795
sg392
(lp2796
sbsbasbsg434
(lp2797
(i__main__
DelphiVarSection
p2798
(dp2799
g697
I0
sg698
(lp2800
(idelphi
DelphiVarDecl
p2801
(dp2802
g702
Nsg703
(lp2803
S'newInflorescence'
p2804
asg57
(i__main__
DelphiNamedType
p2805
(dp2806
g35
S'PdInflorescence'
p2807
sg61
g1
sg62
Nsbsbasbasbsg429
(lp2808
S' create new inflorescence. attach new inflor to phytomer this meristem is attached to,\r'
p2809
aS' then unattach this meristem from the phytomer and tell inflor pointer to self so inflor can free self\r'
p2810
aS' when it is freed.\r'
p2811
asbsS'setifapical'
p2812
(i__main__
DelphiMethodImplementation
p2813
(dp2814
g363
g171
sg21
g173
sg29
(lp2815
(i__main__
DelphiFormalParameter
p2816
(dp2817
g53
Nsg54
(lp2818
S'apical'
p2819
asg57
(i__main__
DelphiPrimitiveType
p2820
(dp2821
g35
g36
sbsg63
Nsbasg365
(lp2822
sg367
(lp2823
sg369
(lp2824
g371
ag2819
asg372
(dp2825
g2819
g2820
ssg31
S'PdMeristem'
p2826
sg32
Nsg377
(lp2827
sg37
I0
sg38
g45
sg379
(i__main__
DelphiBlock
p2828
(dp2829
g382
(idelphi
DelphiCompoundStatement
p2830
(dp2831
g385
(lp2832
(idelphi
DelphiIfStatement
p2833
(dp2834
g480
(idelphi
DelphiRelOp
p2835
(dp2836
g398
(i__main__
DelphiIdentAccess
p2837
(dp2838
g401
S'isApical'
p2839
sg392
(lp2840
sbsg404
(i__main__
DelphiIdentAccess
p2841
(dp2842
g401
S'apical'
p2843
sg392
(lp2844
sbsg423
g1222
sbsg499
Nsg570
(idelphi
DelphiCompoundStatement
p2845
(dp2846
g385
(lp2847
(i__main__
DelphiAssignStatement
p2848
(dp2849
g389
(i__main__
DelphiIdentAccess
p2850
(dp2851
g401
S'apical'
p2852
sg392
(lp2853
sbsg424
(i__main__
DelphiIdentAccess
p2854
(dp2855
g401
S'isApical'
p2856
sg392
(lp2857
sbsba(idelphi
DelphiIfStatement
p2858
(dp2859
g480
(i__main__
DelphiIdentAccess
p2860
(dp2861
g401
S'isReproductive'
p2862
sg392
(lp2863
sbsg499
Nsg570
(idelphi
DelphiIfStatement
p2864
(dp2865
g480
(i__main__
DelphiIdentAccess
p2866
(dp2867
g401
S'isActive'
p2868
sg392
(lp2869
sbsg499
(idelphi
DelphiCompoundStatement
p2870
(dp2871
g385
(lp2872
(idelphi
DelphiIfStatement
p2873
(dp2874
g480
(i__main__
DelphiIdentAccess
p2875
(dp2876
g401
S'isApical'
p2877
sg392
(lp2878
sbsg499
(idelphi
DelphiCompoundStatement
p2879
(dp2880
g385
(lp2881
(i__main__
DelphiIncOrDecStatement
p2882
(dp2883
g1024
g1025
sg1026
Nsg424
(i__main__
DelphiIdentAccess
p2884
(dp2885
g401
S'plant'
p2886
sg392
(lp2887
(idelphi
DelphiFieldEndAccess
p2888
(dp2889
g411
S'numAxillaryInactiveReproductiveMeristems'
p2890
sbasbsba(i__main__
DelphiIncOrDecStatement
p2891
(dp2892
g1024
g1271
sg1026
Nsg424
(i__main__
DelphiIdentAccess
p2893
(dp2894
g401
S'plant'
p2895
sg392
(lp2896
(idelphi
DelphiFieldEndAccess
p2897
(dp2898
g411
S'numApicalInactiveReproductiveMeristems'
p2899
sbasbsbasbsg570
(idelphi
DelphiCompoundStatement
p2900
(dp2901
g385
(lp2902
(i__main__
DelphiIncOrDecStatement
p2903
(dp2904
g1024
g1025
sg1026
Nsg424
(i__main__
DelphiIdentAccess
p2905
(dp2906
g401
S'plant'
p2907
sg392
(lp2908
(idelphi
DelphiFieldEndAccess
p2909
(dp2910
g411
S'numApicalInactiveReproductiveMeristems'
p2911
sbasbsba(i__main__
DelphiIncOrDecStatement
p2912
(dp2913
g1024
g1271
sg1026
Nsg424
(i__main__
DelphiIdentAccess
p2914
(dp2915
g401
S'plant'
p2916
sg392
(lp2917
(idelphi
DelphiFieldEndAccess
p2918
(dp2919
g411
S'numAxillaryInactiveReproductiveMeristems'
p2920
sbasbsbasg429
(lp2921
S'not isApical'
p2922
asbsbasbsg570
(idelphi
DelphiCompoundStatement
p2923
(dp2924
g385
(lp2925
(idelphi
DelphiIfStatement
p2926
(dp2927
g480
(i__main__
DelphiIdentAccess
p2928
(dp2929
g401
S'isApical'
p2930
sg392
(lp2931
sbsg499
(idelphi
DelphiCompoundStatement
p2932
(dp2933
g385
(lp2934
(i__main__
DelphiIncOrDecStatement
p2935
(dp2936
g1024
g1025
sg1026
Nsg424
(i__main__
DelphiIdentAccess
p2937
(dp2938
g401
S'plant'
p2939
sg392
(lp2940
(idelphi
DelphiFieldEndAccess
p2941
(dp2942
g411
S'numAxillaryActiveReproductiveMeristemsOrInflorescences'
p2943
sbasbsba(i__main__
DelphiIncOrDecStatement
p2944
(dp2945
g1024
g1271
sg1026
Nsg424
(i__main__
DelphiIdentAccess
p2946
(dp2947
g401
S'plant'
p2948
sg392
(lp2949
(idelphi
DelphiFieldEndAccess
p2950
(dp2951
g411
S'numApicalActiveReproductiveMeristemsOrInflorescences'
p2952
sbasbsbasbsg570
(idelphi
DelphiCompoundStatement
p2953
(dp2954
g385
(lp2955
(i__main__
DelphiIncOrDecStatement
p2956
(dp2957
g1024
g1025
sg1026
Nsg424
(i__main__
DelphiIdentAccess
p2958
(dp2959
g401
S'plant'
p2960
sg392
(lp2961
(idelphi
DelphiFieldEndAccess
p2962
(dp2963
g411
S'numApicalActiveReproductiveMeristemsOrInflorescences'
p2964
sbasbsba(i__main__
DelphiIncOrDecStatement
p2965
(dp2966
g1024
g1271
sg1026
Nsg424
(i__main__
DelphiIdentAccess
p2967
(dp2968
g401
S'plant'
p2969
sg392
(lp2970
(idelphi
DelphiFieldEndAccess
p2971
(dp2972
g411
S'numAxillaryActiveReproductiveMeristemsOrInflorescences'
p2973
sbasbsbasg429
(lp2974
S'not isApical'
p2975
asbsbasg429
(lp2976
S'not isActive'
p2977
asbsbsbasbsbasbsg434
(lp2978
sbsbsS'destroy'
p2979
(i__main__
DelphiMethodImplementation
p2980
(dp2981
g363
g182
sg21
g184
sg29
(lp2982
sg365
(lp2983
sg367
(lp2984
sg369
(lp2985
g371
asg372
(dp2986
sg31
S'PdMeristem'
p2987
sg32
Nsg377
(lp2988
sg37
I0
sg38
g186
sg379
(i__main__
DelphiBlock
p2989
(dp2990
g382
(idelphi
DelphiCompoundStatement
p2991
(dp2992
g385
(lp2993
(idelphi
DelphiIfStatement
p2994
(dp2995
g480
(i__main__
DelphiIdentAccess
p2996
(dp2997
g401
S'isReproductive'
p2998
sg392
(lp2999
sbsg499
Nsg570
(idelphi
DelphiCompoundStatement
p3000
(dp3001
g385
(lp3002
(idelphi
DelphiIfStatement
p3003
(dp3004
g480
(i__main__
DelphiIdentAccess
p3005
(dp3006
g401
S'isActive'
p3007
sg392
(lp3008
sbsg499
(idelphi
DelphiCompoundStatement
p3009
(dp3010
g385
(lp3011
(idelphi
DelphiIfStatement
p3012
(dp3013
g480
(i__main__
DelphiIdentAccess
p3014
(dp3015
g401
S'isApical'
p3016
sg392
(lp3017
sbsg499
(i__main__
DelphiIncOrDecStatement
p3018
(dp3019
g1024
g1271
sg1026
Nsg424
(i__main__
DelphiIdentAccess
p3020
(dp3021
g401
S'plant'
p3022
sg392
(lp3023
(idelphi
DelphiFieldEndAccess
p3024
(dp3025
g411
S'numAxillaryInactiveReproductiveMeristems'
p3026
sbasbsbsg570
(i__main__
DelphiIncOrDecStatement
p3027
(dp3028
g1024
g1271
sg1026
Nsg424
(i__main__
DelphiIdentAccess
p3029
(dp3030
g401
S'plant'
p3031
sg392
(lp3032
(idelphi
DelphiFieldEndAccess
p3033
(dp3034
g411
S'numApicalInactiveReproductiveMeristems'
p3035
sbasbsg429
(lp3036
S'not isApical'
p3037
asbsbasbsg570
(idelphi
DelphiCompoundStatement
p3038
(dp3039
g385
(lp3040
(idelphi
DelphiIfStatement
p3041
(dp3042
g480
(i__main__
DelphiIdentAccess
p3043
(dp3044
g401
S'isApical'
p3045
sg392
(lp3046
sbsg499
(i__main__
DelphiIncOrDecStatement
p3047
(dp3048
g1024
g1271
sg1026
Nsg424
(i__main__
DelphiIdentAccess
p3049
(dp3050
g401
S'plant'
p3051
sg392
(lp3052
(idelphi
DelphiFieldEndAccess
p3053
(dp3054
g411
S'numAxillaryActiveReproductiveMeristemsOrInflorescences'
p3055
sbasbsbsg570
(i__main__
DelphiIncOrDecStatement
p3056
(dp3057
g1024
g1271
sg1026
Nsg424
(i__main__
DelphiIdentAccess
p3058
(dp3059
g401
S'plant'
p3060
sg392
(lp3061
(idelphi
DelphiFieldEndAccess
p3062
(dp3063
g411
S'numApicalActiveReproductiveMeristemsOrInflorescences'
p3064
sbasbsg429
(lp3065
S'not isApical'
p3066
asbsbasg429
(lp3067
S'not isActive'
p3068
asbsbasbsba(i__main__
DelphiAssignStatement
p3069
(dp3070
g389
Nsg424
(idelphi
DelphiInheritedCall
p3071
(dp3072
g401
S'destroy'
p3073
sg394
Nsbsbasbsg434
(lp3074
sbsbsS'draw'
p3075
(i__main__
DelphiMethodImplementation
p3076
(dp3077
g363
g188
sg21
g190
sg29
(lp3078
sg365
(lp3079
sg367
(lp3080
sg369
(lp3081
g371
asg372
(dp3082
sg31
S'PdMeristem'
p3083
sg32
Nsg377
(lp3084
sg37
I0
sg38
g45
sg379
(i__main__
DelphiBlock
p3085
(dp3086
g382
(idelphi
DelphiCompoundStatement
p3087
(dp3088
g385
(lp3089
(idelphi
DelphiIfStatement
p3090
(dp3091
g480
(idelphi
DelphiNestedExpressionListAccess
p3092
(dp3093
g392
(lp3094
sg394
(lp3095
(idelphi
DelphiRelOp
p3096
(dp3097
g398
(i__main__
DelphiIdentAccess
p3098
(dp3099
g401
S'plant'
p3100
sg392
(lp3101
(idelphi
DelphiFieldEndAccess
p3102
(dp3103
g411
S'paxillaryBud'
p3104
sba(idelphi
DelphiFieldEndAccess
p3105
(dp3106
g411
S'tdoParams'
p3107
sba(idelphi
DelphiFieldEndAccess
p3108
(dp3109
g411
S'scaleAtFullSize'
p3110
sbasbsg404
(idelphi
DelphiIntegerValue
p3111
(dp3112
g207
S'0'
sbsg423
S'='
sbasbsg499
Nsg570
(i__main__
DelphiExitStatement
p3113
(dp3114
g1423
g3076
sbsba(i__main__
DelphiAssignStatement
p3115
(dp3116
g389
(i__main__
DelphiIdentAccess
p3117
(dp3118
g401
S'plant'
p3119
sg392
(lp3120
(idelphi
DelphiFieldEndAccess
p3121
(dp3122
g411
S'turtle'
p3123
sbasbsg424
(i__main__
DelphiIdentAccess
p3124
(dp3125
g401
S'turtle'
p3126
sg392
(lp3127
sbsg429
(lp3128
S'Draw meristem (only if buds are enlarged as in Brussels sprouts). Since this only very rarely happens,\r'
p3129
aS'  have these buds increase to maximum size in a constant number of days (5). Number of sections drawn\r'
p3130
aS'  (of the 3D object being rotated) is also set to a constant (5).'
p3131
asba(idelphi
DelphiIfStatement
p3132
(dp3133
g480
(idelphi
DelphiNestedExpressionListAccess
p3134
(dp3135
g392
(lp3136
sg394
(lp3137
(idelphi
DelphiRelOp
p3138
(dp3139
g398
(i__main__
DelphiIdentAccess
p3140
(dp3141
g401
S'turtle'
p3142
sg392
(lp3143
sbsg404
(idelphi
DelphiNilValue
p3144
(dp3145
bsg423
S'='
sbasbsg499
Nsg570
(i__main__
DelphiExitStatement
p3146
(dp3147
g1423
g3076
sbsba(i__main__
DelphiAssignStatement
p3148
(dp3149
g389
(i__main__
DelphiIdentAccess
p3150
(dp3151
g401
S'Rect'
p3152
sg392
(lp3153
(idelphi
DelphiFunctionEndAccess
p3154
(dp3155
g394
(lp3156
(idelphi
DelphiIntegerValue
p3157
(dp3158
g207
S'0'
sba(idelphi
DelphiIntegerValue
p3159
(dp3160
g207
S'0'
sba(idelphi
DelphiIntegerValue
p3161
(dp3162
g207
S'0'
sba(idelphi
DelphiIntegerValue
p3163
(dp3164
g207
S'0'
sbasbasbsg424
(i__main__
DelphiIdentAccess
p3165
(dp3166
g401
S'self'
p3167
sg392
(lp3168
(idelphi
DelphiFieldEndAccess
p3169
(dp3170
g411
S'boundsRect'
p3171
sbasbsba(idelphi
DelphiIfStatement
p3172
(dp3173
g480
(i__main__
DelphiIdentAccess
p3174
(dp3175
g401
S'self'
p3176
sg392
(lp3177
(idelphi
DelphiFieldEndAccess
p3178
(dp3179
g411
S'hiddenByAmendment'
p3180
sbasbsg499
(i__main__
DelphiAssignStatement
p3181
(dp3182
g389
Nsg424
(i__main__
DelphiIdentAccess
p3183
(dp3184
g401
S'self'
p3185
sg392
(lp3186
(idelphi
DelphiFieldEndAccess
p3187
(dp3188
g411
S'applyAmendmentRotations'
p3189
sbasbsbsg570
(i__main__
DelphiExitStatement
p3190
(dp3191
g1423
g3076
sbsba(i__main__
DelphiAssignStatement
p3192
(dp3193
g389
(idelphi
DelphiIntegerValue
p3194
(dp3195
g207
S'5'
sbsg424
(i__main__
DelphiIdentAccess
p3196
(dp3197
g401
S'daysToFullSize'
p3198
sg392
(lp3199
sbsba(i__main__
DelphiAssignStatement
p3200
(dp3201
g389
(idelphi
DelphiMulOp
p3202
(dp3203
g507
(idelphi
DelphiNestedExpressionListAccess
p3204
(dp3205
g392
(lp3206
sg394
(lp3207
(i__main__
DelphiIdentAccess
p3208
(dp3209
g401
S'Min'
p3210
sg392
(lp3211
(idelphi
DelphiFunctionEndAccess
p3212
(dp3213
g394
(lp3214
(idelphi
DelphiRealValue
p3215
(dp3216
g207
S'1.0'
p3217
sba(i__main__
DelphiIdentAccess
p3218
(dp3219
g401
S'safedivExcept'
p3220
sg392
(lp3221
(idelphi
DelphiFunctionEndAccess
p3222
(dp3223
g394
(lp3224
(i__main__
DelphiIdentAccess
p3225
(dp3226
g401
S'age'
p3227
sg392
(lp3228
sba(i__main__
DelphiIdentAccess
p3229
(dp3230
g401
S'daysToFullSize'
p3231
sg392
(lp3232
sba(idelphi
DelphiIntegerValue
p3233
(dp3234
g207
S'0'
sbasbasbasbasbasbsg518
S'*'
sg519
(idelphi
DelphiNestedExpressionListAccess
p3235
(dp3236
g392
(lp3237
sg394
(lp3238
(idelphi
DelphiMulOp
p3239
(dp3240
g507
(idelphi
DelphiRealValue
p3241
(dp3242
g207
S'100.0'
p3243
sbsg518
S'/'
sg519
(i__main__
DelphiIdentAccess
p3244
(dp3245
g401
S'plant'
p3246
sg392
(lp3247
(idelphi
DelphiFieldEndAccess
p3248
(dp3249
g411
S'pAxillaryBud'
p3250
sba(idelphi
DelphiFieldEndAccess
p3251
(dp3252
g411
S'tdoParams'
p3253
sba(idelphi
DelphiFieldEndAccess
p3254
(dp3255
g411
S'scaleAtFullSize'
p3256
sbasbsbasbsbsg424
(i__main__
DelphiIdentAccess
p3257
(dp3258
g401
S'scale'
p3259
sg392
(lp3260
sbsba(idelphi
DelphiIfStatement
p3261
(dp3262
g480
(i__main__
DelphiIdentAccess
p3263
(dp3264
g401
S'isApical'
p3265
sg392
(lp3266
sbsg499
Nsg570
(i__main__
DelphiExitStatement
p3267
(dp3268
g1423
g3076
sbsba(idelphi
DelphiTryExceptStatement
p3269
(dp3270
g453
(lp3271
(i__main__
DelphiAssignStatement
p3272
(dp3273
g389
(idelphi
DelphiIntegerValue
p3274
(dp3275
g207
S'5'
sbsg424
(i__main__
DelphiIdentAccess
p3276
(dp3277
g401
S'numParts'
p3278
sg392
(lp3279
sbsba(i__main__
DelphiAssignStatement
p3280
(dp3281
g389
(idelphi
DelphiIntegerValue
p3282
(dp3283
g207
S'0'
sbsg424
(i__main__
DelphiIdentAccess
p3284
(dp3285
g401
S'minZ'
p3286
sg392
(lp3287
sbsba(i__main__
DelphiAssignStatement
p3288
(dp3289
g389
(i__main__
DelphiIdentAccess
p3290
(dp3291
g401
S'plant'
p3292
sg392
(lp3293
(idelphi
DelphiFieldEndAccess
p3294
(dp3295
g411
S'pAxillaryBud'
p3296
sba(idelphi
DelphiFieldEndAccess
p3297
(dp3298
g411
S'tdoParams'
p3299
sba(idelphi
DelphiFieldEndAccess
p3300
(dp3301
g411
S'object3D'
p3302
sbasbsg424
(i__main__
DelphiIdentAccess
p3303
(dp3304
g401
S'tdo'
p3305
sg392
(lp3306
sbsba(i__main__
DelphiAssignStatement
p3307
(dp3308
g389
Nsg424
(i__main__
DelphiIdentAccess
p3309
(dp3310
g401
S'turtle'
p3311
sg392
(lp3312
(idelphi
DelphiFieldEndAccess
p3313
(dp3314
g411
S'ifExporting_startPlantPart'
p3315
sba(idelphi
DelphiFunctionEndAccess
p3316
(dp3317
g394
(lp3318
(i__main__
DelphiIdentAccess
p3319
(dp3320
g401
S'self'
p3321
sg392
(lp3322
(idelphi
DelphiFieldEndAccess
p3323
(dp3324
g411
S'longNameForDXFPartConsideringGenderEtc'
p3325
sba(idelphi
DelphiFunctionEndAccess
p3326
(dp3327
g394
(lp3328
(i__main__
DelphiIdentAccess
p3329
(dp3330
g401
S'kExportPartMeristem'
p3331
sg392
(lp3332
sbasbasba(i__main__
DelphiIdentAccess
p3333
(dp3334
g401
S'self'
p3335
sg392
(lp3336
(idelphi
DelphiFieldEndAccess
p3337
(dp3338
g411
S'longNameForDXFPartConsideringGenderEtc'
p3339
sba(idelphi
DelphiFunctionEndAccess
p3340
(dp3341
g394
(lp3342
(i__main__
DelphiIdentAccess
p3343
(dp3344
g401
S'kExportPartMeristem'
p3345
sg392
(lp3346
sbasbasbasbasbsba(idelphi
DelphiIfStatement
p3347
(dp3348
g480
(idelphi
DelphiRelOp
p3349
(dp3350
g398
(i__main__
DelphiIdentAccess
p3351
(dp3352
g401
S'numParts'
p3353
sg392
(lp3354
sbsg404
(idelphi
DelphiIntegerValue
p3355
(dp3356
g207
S'0'
sbsg423
S'>'
sbsg499
Nsg570
(idelphi
DelphiForStatement
p3357
(dp3358
S'variable'
p3359
S'i'
sS'finalValue'
p3360
(idelphi
DelphiAddOp
p3361
(dp3362
g1109
S'-'
sg1110
(idelphi
DelphiIntegerValue
p3363
(dp3364
g207
S'1'
sbsg1125
(i__main__
DelphiIdentAccess
p3365
(dp3366
g401
S'numParts'
p3367
sg392
(lp3368
sbsbsS'direction'
p3369
S'to'
p3370
sg53
(idelphi
DelphiIntegerValue
p3371
(dp3372
g207
S'0'
sbsg673
(idelphi
DelphiCompoundStatement
p3373
(dp3374
g385
(lp3375
(i__main__
DelphiAssignStatement
p3376
(dp3377
g389
Nsg424
(i__main__
DelphiIdentAccess
p3378
(dp3379
g401
S'turtle'
p3380
sg392
(lp3381
(idelphi
DelphiFieldEndAccess
p3382
(dp3383
g411
S'RotateX'
p3384
sba(idelphi
DelphiFunctionEndAccess
p3385
(dp3386
g394
(lp3387
(idelphi
DelphiMulOp
p3388
(dp3389
g507
(i__main__
DelphiIdentAccess
p3390
(dp3391
g401
S'numParts'
p3392
sg392
(lp3393
sbsg518
S'div'
p3394
sg519
(idelphi
DelphiIntegerValue
p3395
(dp3396
g207
S'256'
p3397
sbsbasbasbsba(i__main__
DelphiAssignStatement
p3398
(dp3399
g389
Nsg424
(i__main__
DelphiIdentAccess
p3400
(dp3401
g401
S'turtle'
p3402
sg392
(lp3403
(idelphi
DelphiFieldEndAccess
p3404
(dp3405
g411
S'push'
p3406
sbasbsba(i__main__
DelphiAssignStatement
p3407
(dp3408
g389
Nsg424
(i__main__
DelphiIdentAccess
p3409
(dp3410
g401
S'turtle'
p3411
sg392
(lp3412
(idelphi
DelphiFieldEndAccess
p3413
(dp3414
g411
S'RotateZ'
p3415
sba(idelphi
DelphiFunctionEndAccess
p3416
(dp3417
g394
(lp3418
(idelphi
DelphiSign
p3419
(dp3420
g992
(idelphi
DelphiIntegerValue
p3421
(dp3422
g207
S'64'
p3423
sbsS'sign'
p3424
S'-'
sbasbasbsba(idelphi
DelphiIfStatement
p3425
(dp3426
g480
(idelphi
DelphiRelOp
p3427
(dp3428
g398
(i__main__
DelphiIdentAccess
p3429
(dp3430
g401
S'tdo'
p3431
sg392
(lp3432
sbsg404
(idelphi
DelphiNilValue
p3433
(dp3434
bsg423
g1222
sbsg499
Nsg570
(idelphi
DelphiCompoundStatement
p3435
(dp3436
g385
(lp3437
(i__main__
DelphiAssignStatement
p3438
(dp3439
g389
Nsg424
(i__main__
DelphiIdentAccess
p3440
(dp3441
g401
S'turtle'
p3442
sg392
(lp3443
(idelphi
DelphiFieldEndAccess
p3444
(dp3445
g411
S'rotateX'
p3446
sba(idelphi
DelphiFunctionEndAccess
p3447
(dp3448
g394
(lp3449
(i__main__
DelphiIdentAccess
p3450
(dp3451
g401
S'self'
p3452
sg392
(lp3453
(idelphi
DelphiFieldEndAccess
p3454
(dp3455
g411
S'angleWithSway'
p3456
sba(idelphi
DelphiFunctionEndAccess
p3457
(dp3458
g394
(lp3459
(i__main__
DelphiIdentAccess
p3460
(dp3461
g401
S'plant'
p3462
sg392
(lp3463
(idelphi
DelphiFieldEndAccess
p3464
(dp3465
g411
S'pAxillaryBud'
p3466
sba(idelphi
DelphiFieldEndAccess
p3467
(dp3468
g411
S'tdoParams'
p3469
sba(idelphi
DelphiFieldEndAccess
p3470
(dp3471
g411
S'xRotationBeforeDraw'
p3472
sbasbasbasbasbasbsba(i__main__
DelphiAssignStatement
p3473
(dp3474
g389
Nsg424
(i__main__
DelphiIdentAccess
p3475
(dp3476
g401
S'turtle'
p3477
sg392
(lp3478
(idelphi
DelphiFieldEndAccess
p3479
(dp3480
g411
S'rotateY'
p3481
sba(idelphi
DelphiFunctionEndAccess
p3482
(dp3483
g394
(lp3484
(i__main__
DelphiIdentAccess
p3485
(dp3486
g401
S'self'
p3487
sg392
(lp3488
(idelphi
DelphiFieldEndAccess
p3489
(dp3490
g411
S'angleWithSway'
p3491
sba(idelphi
DelphiFunctionEndAccess
p3492
(dp3493
g394
(lp3494
(i__main__
DelphiIdentAccess
p3495
(dp3496
g401
S'plant'
p3497
sg392
(lp3498
(idelphi
DelphiFieldEndAccess
p3499
(dp3500
g411
S'pAxillaryBud'
p3501
sba(idelphi
DelphiFieldEndAccess
p3502
(dp3503
g411
S'tdoParams'
p3504
sba(idelphi
DelphiFieldEndAccess
p3505
(dp3506
g411
S'yRotationBeforeDraw'
p3507
sbasbasbasbasbasbsba(i__main__
DelphiAssignStatement
p3508
(dp3509
g389
Nsg424
(i__main__
DelphiIdentAccess
p3510
(dp3511
g401
S'turtle'
p3512
sg392
(lp3513
(idelphi
DelphiFieldEndAccess
p3514
(dp3515
g411
S'rotateZ'
p3516
sba(idelphi
DelphiFunctionEndAccess
p3517
(dp3518
g394
(lp3519
(i__main__
DelphiIdentAccess
p3520
(dp3521
g401
S'self'
p3522
sg392
(lp3523
(idelphi
DelphiFieldEndAccess
p3524
(dp3525
g411
S'angleWithSway'
p3526
sba(idelphi
DelphiFunctionEndAccess
p3527
(dp3528
g394
(lp3529
(i__main__
DelphiIdentAccess
p3530
(dp3531
g401
S'plant'
p3532
sg392
(lp3533
(idelphi
DelphiFieldEndAccess
p3534
(dp3535
g411
S'pAxillaryBud'
p3536
sba(idelphi
DelphiFieldEndAccess
p3537
(dp3538
g411
S'tdoParams'
p3539
sba(idelphi
DelphiFieldEndAccess
p3540
(dp3541
g411
S'zRotationBeforeDraw'
p3542
sbasbasbasbasbasbsba(idelphi
DelphiWithStatement
p3543
(dp3544
g673
(i__main__
DelphiAssignStatement
p3545
(dp3546
g389
Nsg424
(i__main__
DelphiIdentAccess
p3547
(dp3548
g401
S'self'
p3549
sg392
(lp3550
(idelphi
DelphiFieldEndAccess
p3551
(dp3552
g411
S'draw3DObject'
p3553
sba(idelphi
DelphiFunctionEndAccess
p3554
(dp3555
g394
(lp3556
(i__main__
DelphiIdentAccess
p3557
(dp3558
g401
S'tdo'
p3559
sg392
(lp3560
sba(i__main__
DelphiIdentAccess
p3561
(dp3562
g401
S'scale'
p3563
sg392
(lp3564
sba(i__main__
DelphiIdentAccess
p3565
(dp3566
g401
S'faceColor'
p3567
sg392
(lp3568
sba(i__main__
DelphiIdentAccess
p3569
(dp3570
g401
S'backfaceColor'
p3571
sg392
(lp3572
sba(i__main__
DelphiIdentAccess
p3573
(dp3574
g401
S'kExportPartMeristem'
p3575
sg392
(lp3576
sbasbasbsbsg1813
(lp3577
(i__main__
DelphiIdentAccess
p3578
(dp3579
g401
S'plant'
p3580
sg392
(lp3581
(idelphi
DelphiFieldEndAccess
p3582
(dp3583
g411
S'pAxillaryBud'
p3584
sba(idelphi
DelphiFieldEndAccess
p3585
(dp3586
g411
S'tdoParams'
p3587
sbasbasba(idelphi
DelphiIfStatement
p3588
(dp3589
g480
(idelphi
DelphiRelOp
p3590
(dp3591
g398
(i__main__
DelphiIdentAccess
p3592
(dp3593
g401
S'i'
sg392
(lp3594
sbsg404
(idelphi
DelphiIntegerValue
p3595
(dp3596
g207
S'1'
sbsg423
S'='
sbsg499
(idelphi
DelphiIfStatement
p3597
(dp3598
g480
(idelphi
DelphiRelOp
p3599
(dp3600
g398
(i__main__
DelphiIdentAccess
p3601
(dp3602
g401
S'tdo'
p3603
sg392
(lp3604
(idelphi
DelphiFieldEndAccess
p3605
(dp3606
g411
S'zForSorting'
p3607
sbasbsg404
(i__main__
DelphiIdentAccess
p3608
(dp3609
g401
S'minZ'
p3610
sg392
(lp3611
sbsg423
S'<'
sbsg499
Nsg570
(i__main__
DelphiAssignStatement
p3612
(dp3613
g389
(i__main__
DelphiIdentAccess
p3614
(dp3615
g401
S'tdo'
p3616
sg392
(lp3617
(idelphi
DelphiFieldEndAccess
p3618
(dp3619
g411
S'zForSorting'
p3620
sbasbsg424
(i__main__
DelphiIdentAccess
p3621
(dp3622
g401
S'minZ'
p3623
sg392
(lp3624
sbsbsbsg570
(i__main__
DelphiAssignStatement
p3625
(dp3626
g389
(i__main__
DelphiIdentAccess
p3627
(dp3628
g401
S'tdo'
p3629
sg392
(lp3630
(idelphi
DelphiFieldEndAccess
p3631
(dp3632
g411
S'zForSorting'
p3633
sbasbsg424
(i__main__
DelphiIdentAccess
p3634
(dp3635
g401
S'minZ'
p3636
sg392
(lp3637
sbsbsbasbsba(i__main__
DelphiAssignStatement
p3638
(dp3639
g389
Nsg424
(i__main__
DelphiIdentAccess
p3640
(dp3641
g401
S'turtle'
p3642
sg392
(lp3643
(idelphi
DelphiFieldEndAccess
p3644
(dp3645
g411
S'pop'
p3646
sbasbsbasbsbsba(idelphi
DelphiIfStatement
p3647
(dp3648
g480
(idelphi
DelphiRelOp
p3649
(dp3650
g398
(i__main__
DelphiIdentAccess
p3651
(dp3652
g401
S'tdo'
p3653
sg392
(lp3654
sbsg404
(idelphi
DelphiNilValue
p3655
(dp3656
bsg423
g1222
sbsg499
Nsg570
(i__main__
DelphiAssignStatement
p3657
(dp3658
g389
(i__main__
DelphiIdentAccess
p3659
(dp3660
g401
S'minZ'
p3661
sg392
(lp3662
sbsg424
(i__main__
DelphiIdentAccess
p3663
(dp3664
g401
S'tdo'
p3665
sg392
(lp3666
(idelphi
DelphiFieldEndAccess
p3667
(dp3668
g411
S'zForSorting'
p3669
sbasbsbsba(i__main__
DelphiAssignStatement
p3670
(dp3671
g389
Nsg424
(i__main__
DelphiIdentAccess
p3672
(dp3673
g401
S'turtle'
p3674
sg392
(lp3675
(idelphi
DelphiFieldEndAccess
p3676
(dp3677
g411
S'ifExporting_endPlantPart'
p3678
sbasbsbasg662
(idelphi
DelphiExceptionHandlers
p3679
(dp3680
g665
(lp3681
(idelphi
DelphiExceptionHandler
p3682
(dp3683
g669
(i__main__
DelphiNamedType
p3684
(dp3685
g35
S'Exception'
p3686
sg61
g1
sg62
Nsbsg401
S'e'
sg673
(i__main__
DelphiAssignStatement
p3687
(dp3688
g389
Nsg424
(i__main__
DelphiIdentAccess
p3689
(dp3690
g401
S'messageForExceptionType'
p3691
sg392
(lp3692
(idelphi
DelphiFunctionEndAccess
p3693
(dp3694
g394
(lp3695
(i__main__
DelphiIdentAccess
p3696
(dp3697
g401
S'e'
sg392
(lp3698
sba(idelphi
DelphiStringAccess
p3699
(dp3700
g392
(lp3701
sg207
(idelphi
DelphiStringValue
p3702
(dp3703
g207
S'PdMeristem.draw'
p3704
sbsbasbasbsbsbasg692
(lp3705
sbsbasbsg434
(lp3706
(i__main__
DelphiVarSection
p3707
(dp3708
g697
I0
sg698
(lp3709
(idelphi
DelphiVarDecl
p3710
(dp3711
g702
Nsg703
(lp3712
S'i'
asg57
(i__main__
DelphiPrimitiveType
p3713
(dp3714
g35
g135
sbsbasba(i__main__
DelphiVarSection
p3715
(dp3716
g697
I0
sg698
(lp3717
(idelphi
DelphiVarDecl
p3718
(dp3719
g702
Nsg703
(lp3720
S'turtle'
p3721
asg57
(i__main__
DelphiNamedType
p3722
(dp3723
g35
S'KfTurtle'
p3724
sg61
g1
sg62
Nsbsba(idelphi
DelphiVarDecl
p3725
(dp3726
g702
Nsg703
(lp3727
S'scale'
p3728
asg57
(i__main__
DelphiPrimitiveType
p3729
(dp3730
g35
g89
sbsba(idelphi
DelphiVarDecl
p3731
(dp3732
g702
Nsg703
(lp3733
S'daysToFullSize'
p3734
asg57
(i__main__
DelphiPrimitiveType
p3735
(dp3736
g35
g89
sbsba(idelphi
DelphiVarDecl
p3737
(dp3738
g702
Nsg703
(lp3739
S'numParts'
p3740
asg57
(i__main__
DelphiPrimitiveType
p3741
(dp3742
g35
g135
sbsba(idelphi
DelphiVarDecl
p3743
(dp3744
g702
Nsg703
(lp3745
S'tdo'
p3746
asg57
(i__main__
DelphiNamedType
p3747
(dp3748
g35
S'KfObject3D'
p3749
sg61
g1
sg62
Nsbsba(idelphi
DelphiVarDecl
p3750
(dp3751
g702
Nsg703
(lp3752
S'minZ'
p3753
asg57
(i__main__
DelphiPrimitiveType
p3754
(dp3755
g35
g89
sbsbasbasbsbsS'createfirstphytomer'
p3756
(i__main__
DelphiMethodImplementation
p3757
(dp3758
g363
g193
sg21
g195
sg29
(lp3759
sg365
(lp3760
sg367
(lp3761
sg369
(lp3762
g371
asg372
(dp3763
sg31
S'PdMeristem'
p3764
sg32
(i__main__
DelphiNamedType
p3765
(dp3766
g35
S'PdInternode'
p3767
sg61
g1
sg62
Nsbsg377
(lp3768
sg37
I0
sg38
g39
sg379
(i__main__
DelphiBlock
p3769
(dp3770
g382
(idelphi
DelphiCompoundStatement
p3771
(dp3772
g385
(lp3773
(i__main__
DelphiAssignStatement
p3774
(dp3775
g389
(idelphi
DelphiNilValue
p3776
(dp3777
bsg424
(i__main__
DelphiIdentAccess
p3778
(dp3779
g401
S'result'
p3780
sg392
(lp3781
sbsba(idelphi
DelphiTryExceptStatement
p3782
(dp3783
g453
(lp3784
(i__main__
DelphiAssignStatement
p3785
(dp3786
g389
Nsg424
(i__main__
DelphiIdentAccess
p3787
(dp3788
g401
S'CreatePhytomer'
p3789
sg392
(lp3790
(idelphi
DelphiFunctionEndAccess
p3791
(dp3792
g394
(lp3793
(idelphi
DelphiRealValue
p3794
(dp3795
g207
S'1.0'
p3796
sbasbasbsg429
(lp3797
S'CreatePhytomer(self.optimalInitialPhytomerBiomass_pctMPB);\r'
p3798
aS' v1.6b1 -- biomass was wrong, should be fraction\r'
p3799
asba(i__main__
DelphiAssignStatement
p3800
(dp3801
g389
(i__main__
DelphiIdentAccess
p3802
(dp3803
g401
S'phytomerAttachedTo'
p3804
sg392
(lp3805
sbsg424
(i__main__
DelphiIdentAccess
p3806
(dp3807
g401
S'result'
p3808
sg392
(lp3809
sbsba(idelphi
DelphiIfStatement
p3810
(dp3811
g480
(i__main__
DelphiIdentAccess
p3812
(dp3813
g401
S'plant'
p3814
sg392
(lp3815
(idelphi
DelphiFieldEndAccess
p3816
(dp3817
g411
S'pGeneral'
p3818
sba(idelphi
DelphiFieldEndAccess
p3819
(dp3820
g411
S'isDicot'
p3821
sbasbsg499
Nsg570
(i__main__
DelphiAssignStatement
p3822
(dp3823
g389
Nsg424
(i__main__
DelphiIdentAccess
p3824
(dp3825
g401
S'result'
p3826
sg392
(lp3827
(idelphi
DelphiFieldEndAccess
p3828
(dp3829
g411
S'makeSecondSeedlingLeaf'
p3830
sba(idelphi
DelphiFunctionEndAccess
p3831
(dp3832
g394
(lp3833
(i__main__
DelphiIdentAccess
p3834
(dp3835
g401
S'self'
p3836
sg392
(lp3837
(idelphi
DelphiFieldEndAccess
p3838
(dp3839
g411
S'optimalInitialPhytomerBiomass_pctMPB'
p3840
sbasbasbasbsbsbasg662
(idelphi
DelphiExceptionHandlers
p3841
(dp3842
g665
(lp3843
(idelphi
DelphiExceptionHandler
p3844
(dp3845
g669
(i__main__
DelphiNamedType
p3846
(dp3847
g35
S'Exception'
p3848
sg61
g1
sg62
Nsbsg401
S'e'
sg673
(i__main__
DelphiAssignStatement
p3849
(dp3850
g389
Nsg424
(i__main__
DelphiIdentAccess
p3851
(dp3852
g401
S'messageForExceptionType'
p3853
sg392
(lp3854
(idelphi
DelphiFunctionEndAccess
p3855
(dp3856
g394
(lp3857
(i__main__
DelphiIdentAccess
p3858
(dp3859
g401
S'e'
sg392
(lp3860
sba(idelphi
DelphiStringAccess
p3861
(dp3862
g392
(lp3863
sg207
(idelphi
DelphiStringValue
p3864
(dp3865
g207
S'PdMeristem.createFirstPhytomer'
p3866
sbsbasbasbsbsbasg692
(lp3867
sbsbasbsg434
(lp3868
sbsg429
(lp3869
S' create first phytomer of plant with optimal biomass. return phytomer created so plant can hold on to it.\r'
p3870
asbsS'getname'
p3871
(i__main__
DelphiMethodImplementation
p3872
(dp3873
g363
g201
sg21
g203
sg29
(lp3874
sg365
(lp3875
sg367
(lp3876
sg369
(lp3877
g371
asg372
(dp3878
sg31
S'PdMeristem'
p3879
sg32
(i__main__
DelphiPrimitiveType
p3880
(dp3881
g35
g207
sbsg377
(lp3882
sg37
I0
sg38
g39
sg379
(i__main__
DelphiBlock
p3883
(dp3884
g382
(idelphi
DelphiCompoundStatement
p3885
(dp3886
g385
(lp3887
(i__main__
DelphiAssignStatement
p3888
(dp3889
g389
(idelphi
DelphiStringAccess
p3890
(dp3891
g392
(lp3892
sg207
(idelphi
DelphiStringValue
p3893
(dp3894
g207
S'meristem'
p3895
sbsbsg424
(i__main__
DelphiIdentAccess
p3896
(dp3897
g401
S'result'
p3898
sg392
(lp3899
sbsbasbsg434
(lp3900
sbsbsS'traverseactivity'
p3901
(i__main__
DelphiMethodImplementation
p3902
(dp3903
g363
g214
sg21
g216
sg29
(lp3904
(i__main__
DelphiFormalParameter
p3905
(dp3906
g53
Nsg54
(lp3907
S'mode'
p3908
asg57
(i__main__
DelphiPrimitiveType
p3909
(dp3910
g35
g135
sbsg63
Nsba(i__main__
DelphiFormalParameter
p3911
(dp3912
g53
Nsg54
(lp3913
S'traverserProxy'
p3914
asg57
(i__main__
DelphiNamedType
p3915
(dp3916
g35
S'TObject'
p3917
sg61
g1
sg62
Nsbsg63
Nsbasg365
(lp3918
sg367
(lp3919
sg369
(lp3920
g371
ag3908
ag3914
asg372
(dp3921
g3914
g3915
sg3908
g3909
ssg31
S'PdMeristem'
p3922
sg32
Nsg377
(lp3923
sg37
I0
sg38
g45
sg379
(i__main__
DelphiBlock
p3924
(dp3925
g382
(idelphi
DelphiCompoundStatement
p3926
(dp3927
g385
(lp3928
(i__main__
DelphiAssignStatement
p3929
(dp3930
g389
Nsg424
(idelphi
DelphiInheritedCall
p3931
(dp3932
g401
S'traverseActivity'
p3933
sg394
(lp3934
(i__main__
DelphiIdentAccess
p3935
(dp3936
g401
S'mode'
p3937
sg392
(lp3938
sba(i__main__
DelphiIdentAccess
p3939
(dp3940
g401
S'traverserProxy'
p3941
sg392
(lp3942
sbasbsba(i__main__
DelphiAssignStatement
p3943
(dp3944
g389
(i__main__
DelphiIdentAccess
p3945
(dp3946
g401
S'PdTraverser'
p3947
sg392
(lp3948
(idelphi
DelphiFunctionEndAccess
p3949
(dp3950
g394
(lp3951
(i__main__
DelphiIdentAccess
p3952
(dp3953
g401
S'traverserProxy'
p3954
sg392
(lp3955
sbasbasbsg424
(i__main__
DelphiIdentAccess
p3956
(dp3957
g401
S'traverser'
p3958
sg392
(lp3959
sbsba(idelphi
DelphiIfStatement
p3960
(dp3961
g480
(idelphi
DelphiRelOp
p3962
(dp3963
g398
(i__main__
DelphiIdentAccess
p3964
(dp3965
g401
S'traverser'
p3966
sg392
(lp3967
sbsg404
(idelphi
DelphiNilValue
p3968
(dp3969
bsg423
S'='
sbsg499
Nsg570
(i__main__
DelphiExitStatement
p3970
(dp3971
g1423
g3902
sbsba(idelphi
DelphiIfStatement
p3972
(dp3973
g480
(idelphi
DelphiMulOp
p3974
(dp3975
g507
(idelphi
DelphiNestedExpressionListAccess
p3976
(dp3977
g392
(lp3978
sg394
(lp3979
(idelphi
DelphiRelOp
p3980
(dp3981
g398
(i__main__
DelphiIdentAccess
p3982
(dp3983
g401
S'mode'
p3984
sg392
(lp3985
sbsg404
(i__main__
DelphiIdentAccess
p3986
(dp3987
g401
S'kActivityFree'
p3988
sg392
(lp3989
sbsg423
g1222
sbasbsg518
g552
sg519
(idelphi
DelphiMulOp
p3990
(dp3991
g507
(idelphi
DelphiNestedExpressionListAccess
p3992
(dp3993
g392
(lp3994
sg394
(lp3995
(idelphi
DelphiRelOp
p3996
(dp3997
g398
(i__main__
DelphiIdentAccess
p3998
(dp3999
g401
S'mode'
p4000
sg392
(lp4001
sbsg404
(i__main__
DelphiIdentAccess
p4002
(dp4003
g401
S'kActivityStream'
p4004
sg392
(lp4005
sbsg423
g1222
sbasbsg518
g552
sg519
(i__main__
DelphiIdentAccess
p4006
(dp4007
g401
S'self'
p4008
sg392
(lp4009
(idelphi
DelphiFieldEndAccess
p4010
(dp4011
g411
S'hasFallenOff'
p4012
sbasbsbsbsg499
Nsg570
(i__main__
DelphiExitStatement
p4013
(dp4014
g1423
g3902
sbsba(idelphi
DelphiTryExceptStatement
p4015
(dp4016
g453
(lp4017
(idelphi
DelphiCaseStatement
p4018
(dp4019
S'elseStatement'
p4020
(idelphi
DelphiRaiseStatement
p4021
(dp4022
g480
(i__main__
DelphiIdentAccess
p4023
(dp4024
g401
S'Exception'
p4025
sg392
(lp4026
(idelphi
DelphiFieldEndAccess
p4027
(dp4028
g411
S'create'
p4029
sba(idelphi
DelphiFunctionEndAccess
p4030
(dp4031
g394
(lp4032
(idelphi
DelphiStringAccess
p4033
(dp4034
g392
(lp4035
sg207
(idelphi
DelphiStringValue
p4036
(dp4037
g207
S'Problem: Unhandled mode in method PdMeristem.traverseActivity.'
p4038
sbsbasbasbsbsg480
(i__main__
DelphiIdentAccess
p4039
(dp4040
g401
S'mode'
p4041
sg392
(lp4042
sbsS'caseSelectorList'
p4043
(lp4044
(idelphi
DelphiCaseSelector
p4045
(dp4046
g673
NsS'caseLabelList'
p4047
(lp4048
(i__main__
DelphiIdentAccess
p4049
(dp4050
g401
S'kActivityNone'
p4051
sg392
(lp4052
sbasba(idelphi
DelphiCaseSelector
p4053
(dp4054
g673
(i__main__
DelphiAssignStatement
p4055
(dp4056
g389
Nsg424
(i__main__
DelphiIdentAccess
p4057
(dp4058
g401
S'self'
p4059
sg392
(lp4060
(idelphi
DelphiFieldEndAccess
p4061
(dp4062
g411
S'nextDay'
p4063
sbasbsbsg4047
(lp4064
(i__main__
DelphiIdentAccess
p4065
(dp4066
g401
S'kActivityNextDay'
p4067
sg392
(lp4068
sbasba(idelphi
DelphiCaseSelector
p4069
(dp4070
g673
(idelphi
DelphiCompoundStatement
p4071
(dp4072
g385
(lp4073
(idelphi
DelphiIfStatement
p4074
(dp4075
g480
(idelphi
DelphiAddOp
p4076
(dp4077
g1109
g2186
sg1110
(idelphi
DelphiNestedExpressionListAccess
p4078
(dp4079
g392
(lp4080
sg394
(lp4081
(i__main__
DelphiIdentAccess
p4082
(dp4083
g401
S'isReproductive'
p4084
sg392
(lp4085
sbasbsg1125
(idelphi
DelphiNestedExpressionListAccess
p4086
(dp4087
g392
(lp4088
sg394
(lp4089
(idelphi
DelphiNot
p4090
(dp4091
g992
(i__main__
DelphiIdentAccess
p4092
(dp4093
g401
S'isActive'
p4094
sg392
(lp4095
sbsbasbsbsg499
Nsg570
(i__main__
DelphiExitStatement
p4096
(dp4097
g1423
g3902
sg429
(lp4098
S' return vegetative demand to create a phytomer. no demand if meristem is inactive, meristem is\r'
p4099
aS' in reproductive mode, or if meristem is axillary and attached to the first phytomer\r'
p4100
aS' and there is NOT sympodial branching.\r'
p4101
asbsba(idelphi
DelphiIfStatement
p4102
(dp4103
g480
(idelphi
DelphiNestedExpressionListAccess
p4104
(dp4105
g392
(lp4106
sg394
(lp4107
(idelphi
DelphiMulOp
p4108
(dp4109
g507
(idelphi
DelphiNestedExpressionListAccess
p4110
(dp4111
g392
(lp4112
sg394
(lp4113
(idelphi
DelphiNot
p4114
(dp4115
g992
(i__main__
DelphiIdentAccess
p4116
(dp4117
g401
S'plant'
p4118
sg392
(lp4119
(idelphi
DelphiFieldEndAccess
p4120
(dp4121
g411
S'pMeristem'
p4122
sba(idelphi
DelphiFieldEndAccess
p4123
(dp4124
g411
S'branchingIsSympodial'
p4125
sbasbsbasbsg518
g552
sg519
(idelphi
DelphiMulOp
p4126
(dp4127
g507
(idelphi
DelphiNestedExpressionListAccess
p4128
(dp4129
g392
(lp4130
sg394
(lp4131
(i__main__
DelphiIdentAccess
p4132
(dp4133
g401
S'phytomerAttachedTo'
p4134
sg392
(lp4135
(idelphi
DelphiFieldEndAccess
p4136
(dp4137
g411
S'isFirstPhytomer'
p4138
sbasbasbsg518
g552
sg519
(idelphi
DelphiNestedExpressionListAccess
p4139
(dp4140
g392
(lp4141
sg394
(lp4142
(idelphi
DelphiNot
p4143
(dp4144
g992
(i__main__
DelphiIdentAccess
p4145
(dp4146
g401
S'isApical'
p4147
sg392
(lp4148
sbsbasbsbsbasbsg499
Nsg570
(i__main__
DelphiExitStatement
p4149
(dp4150
g1423
g3902
sbsba(idelphi
DelphiTryExceptStatement
p4151
(dp4152
g453
(lp4153
(i__main__
DelphiAssignStatement
p4154
(dp4155
g389
(idelphi
DelphiAddOp
p4156
(dp4157
g1109
S'+'
sg1110
(i__main__
DelphiIdentAccess
p4158
(dp4159
g401
S'PdLeaf'
p4160
sg392
(lp4161
(idelphi
DelphiFieldEndAccess
p4162
(dp4163
g411
S'optimalInitialBiomass_pctMPB'
p4164
sba(idelphi
DelphiFunctionEndAccess
p4165
(dp4166
g394
(lp4167
(i__main__
DelphiIdentAccess
p4168
(dp4169
g401
S'plant'
p4170
sg392
(lp4171
sbasbasbsg1125
(i__main__
DelphiIdentAccess
p4172
(dp4173
g401
S'PdInternode'
p4174
sg392
(lp4175
(idelphi
DelphiFieldEndAccess
p4176
(dp4177
g411
S'optimalInitialBiomass_pctMPB'
p4178
sba(idelphi
DelphiFunctionEndAccess
p4179
(dp4180
g394
(lp4181
(i__main__
DelphiIdentAccess
p4182
(dp4183
g401
S'plant'
p4184
sg392
(lp4185
sbasbasbsbsg424
(i__main__
DelphiIdentAccess
p4186
(dp4187
g401
S'optimalBiomass_pctMPB'
p4188
sg392
(lp4189
sbsba(idelphi
DelphiIfStatement
p4190
(dp4191
g480
(idelphi
DelphiRelOp
p4192
(dp4193
g398
(i__main__
DelphiIdentAccess
p4194
(dp4195
g401
S'plant'
p4196
sg392
(lp4197
(idelphi
DelphiFieldEndAccess
p4198
(dp4199
g411
S'pMeristem'
p4200
sba(idelphi
DelphiFieldEndAccess
p4201
(dp4202
g411
S'branchingAndLeafArrangement'
p4203
sbasbsg404
(i__main__
DelphiIdentAccess
p4204
(dp4205
g401
S'kArrangementOpposite'
p4206
sg392
(lp4207
sbsg423
S'='
sbsg499
Nsg570
(i__main__
DelphiAssignStatement
p4208
(dp4209
g389
(idelphi
DelphiAddOp
p4210
(dp4211
g1109
S'+'
sg1110
(i__main__
DelphiIdentAccess
p4212
(dp4213
g401
S'PdLeaf'
p4214
sg392
(lp4215
(idelphi
DelphiFieldEndAccess
p4216
(dp4217
g411
S'optimalInitialBiomass_pctMPB'
p4218
sba(idelphi
DelphiFunctionEndAccess
p4219
(dp4220
g394
(lp4221
(i__main__
DelphiIdentAccess
p4222
(dp4223
g401
S'plant'
p4224
sg392
(lp4225
sbasbasbsg1125
(i__main__
DelphiIdentAccess
p4226
(dp4227
g401
S'optimalBiomass_pctMPB'
p4228
sg392
(lp4229
sbsbsg424
(i__main__
DelphiIdentAccess
p4230
(dp4231
g401
S'optimalBiomass_pctMPB'
p4232
sg392
(lp4233
sbsbsba(i__main__
DelphiAssignStatement
p4234
(dp4235
g389
(i__main__
DelphiIdentAccess
p4236
(dp4237
g401
S'linearGrowthResult'
p4238
sg392
(lp4239
(idelphi
DelphiFunctionEndAccess
p4240
(dp4241
g394
(lp4242
(i__main__
DelphiIdentAccess
p4243
(dp4244
g401
S'self'
p4245
sg392
(lp4246
(idelphi
DelphiFieldEndAccess
p4247
(dp4248
g411
S'liveBiomass_pctMPB'
p4249
sbasba(i__main__
DelphiIdentAccess
p4250
(dp4251
g401
S'optimalBiomass_pctMPB'
p4252
sg392
(lp4253
sba(i__main__
DelphiIdentAccess
p4254
(dp4255
g401
S'plant'
p4256
sg392
(lp4257
(idelphi
DelphiFieldEndAccess
p4258
(dp4259
g411
S'pInternode'
p4260
sba(idelphi
DelphiFieldEndAccess
p4261
(dp4262
g411
S'minDaysToCreateInternode'
p4263
sbasbasbasbsg424
(i__main__
DelphiIdentAccess
p4264
(dp4265
g401
S'self'
p4266
sg392
(lp4267
(idelphi
DelphiFieldEndAccess
p4268
(dp4269
g411
S'biomassDemand_pctMPB'
p4270
sbasbsba(i__main__
DelphiAssignStatement
p4271
(dp4272
g389
(idelphi
DelphiAddOp
p4273
(dp4274
g1109
S'+'
sg1110
(i__main__
DelphiIdentAccess
p4275
(dp4276
g401
S'self'
p4277
sg392
(lp4278
(idelphi
DelphiFieldEndAccess
p4279
(dp4280
g411
S'biomassDemand_pctMPB'
p4281
sbasbsg1125
(i__main__
DelphiIdentAccess
p4282
(dp4283
g401
S'traverser'
p4284
sg392
(lp4285
(idelphi
DelphiFieldEndAccess
p4286
(dp4287
g411
S'total'
p4288
sbasbsbsg424
(i__main__
DelphiIdentAccess
p4289
(dp4290
g401
S'traverser'
p4291
sg392
(lp4292
(idelphi
DelphiFieldEndAccess
p4293
(dp4294
g411
S'total'
p4295
sbasbsbasg662
(idelphi
DelphiExceptionHandlers
p4296
(dp4297
g665
(lp4298
(idelphi
DelphiExceptionHandler
p4299
(dp4300
g669
(i__main__
DelphiNamedType
p4301
(dp4302
g35
S'Exception'
p4303
sg61
g1
sg62
Nsbsg401
S'e'
sg673
(i__main__
DelphiAssignStatement
p4304
(dp4305
g389
Nsg424
(i__main__
DelphiIdentAccess
p4306
(dp4307
g401
S'messageForExceptionType'
p4308
sg392
(lp4309
(idelphi
DelphiFunctionEndAccess
p4310
(dp4311
g394
(lp4312
(i__main__
DelphiIdentAccess
p4313
(dp4314
g401
S'e'
sg392
(lp4315
sba(idelphi
DelphiStringAccess
p4316
(dp4317
g392
(lp4318
sg207
(idelphi
DelphiStringValue
p4319
(dp4320
g207
S'PdMeristem.traverseActivity (vegetative demand)'
p4321
sbsbasbasbsbsbasg692
(lp4322
sbsbasbsg4047
(lp4323
(i__main__
DelphiIdentAccess
p4324
(dp4325
g401
S'kActivityDemandVegetative'
p4326
sg392
(lp4327
sbasba(idelphi
DelphiCaseSelector
p4328
(dp4329
g673
(idelphi
DelphiCompoundStatement
p4330
(dp4331
g385
(lp4332
(idelphi
DelphiIfStatement
p4333
(dp4334
g480
(idelphi
DelphiAddOp
p4335
(dp4336
g1109
g2186
sg1110
(idelphi
DelphiNestedExpressionListAccess
p4337
(dp4338
g392
(lp4339
sg394
(lp4340
(idelphi
DelphiNot
p4341
(dp4342
g992
(i__main__
DelphiIdentAccess
p4343
(dp4344
g401
S'isReproductive'
p4345
sg392
(lp4346
sbsbasbsg1125
(idelphi
DelphiNestedExpressionListAccess
p4347
(dp4348
g392
(lp4349
sg394
(lp4350
(idelphi
DelphiNot
p4351
(dp4352
g992
(i__main__
DelphiIdentAccess
p4353
(dp4354
g401
S'isActive'
p4355
sg392
(lp4356
sbsbasbsbsg499
Nsg570
(i__main__
DelphiExitStatement
p4357
(dp4358
g1423
g3902
sg429
(lp4359
S' return reproductive demand to create an inflorescence. no demand if meristem is inactive,\r'
p4360
aS' if it is in vegetative mode, or if it is attached to the first phytomer.\r'
p4361
asbsba(idelphi
DelphiIfStatement
p4362
(dp4363
g480
(idelphi
DelphiMulOp
p4364
(dp4365
g507
(idelphi
DelphiNestedExpressionListAccess
p4366
(dp4367
g392
(lp4368
sg394
(lp4369
(idelphi
DelphiNot
p4370
(dp4371
g992
(i__main__
DelphiIdentAccess
p4372
(dp4373
g401
S'isApical'
p4374
sg392
(lp4375
sbsbasbsg518
g552
sg519
(idelphi
DelphiNestedExpressionListAccess
p4376
(dp4377
g392
(lp4378
sg394
(lp4379
(i__main__
DelphiIdentAccess
p4380
(dp4381
g401
S'phytomerAttachedTo'
p4382
sg392
(lp4383
(idelphi
DelphiFieldEndAccess
p4384
(dp4385
g411
S'isFirstPhytomer'
p4386
sbasbasbsbsg499
Nsg570
(i__main__
DelphiExitStatement
p4387
(dp4388
g1423
g3902
sbsba(idelphi
DelphiTryExceptStatement
p4389
(dp4390
g453
(lp4391
(idelphi
DelphiWithStatement
p4392
(dp4393
g673
(i__main__
DelphiAssignStatement
p4394
(dp4395
g389
(i__main__
DelphiIdentAccess
p4396
(dp4397
g401
S'linearGrowthResult'
p4398
sg392
(lp4399
(idelphi
DelphiFunctionEndAccess
p4400
(dp4401
g394
(lp4402
(i__main__
DelphiIdentAccess
p4403
(dp4404
g401
S'self'
p4405
sg392
(lp4406
(idelphi
DelphiFieldEndAccess
p4407
(dp4408
g411
S'liveBiomass_pctMPB'
p4409
sbasba(i__main__
DelphiIdentAccess
p4410
(dp4411
g401
S'optimalBiomass_pctMPB'
p4412
sg392
(lp4413
sba(i__main__
DelphiIdentAccess
p4414
(dp4415
g401
S'minDaysToCreateInflorescence'
p4416
sg392
(lp4417
sbasbasbsg424
(i__main__
DelphiIdentAccess
p4418
(dp4419
g401
S'self'
p4420
sg392
(lp4421
(idelphi
DelphiFieldEndAccess
p4422
(dp4423
g411
S'biomassDemand_pctMPB'
p4424
sbasbsbsg1813
(lp4425
(i__main__
DelphiIdentAccess
p4426
(dp4427
g401
S'plant'
p4428
sg392
(lp4429
(idelphi
DelphiFieldEndAccess
p4430
(dp4431
g411
S'pInflor'
p4432
sba(idelphi
DelphiArrayEndAccess
p4433
(dp4434
g394
(lp4435
(i__main__
DelphiIdentAccess
p4436
(dp4437
g401
S'gender'
p4438
sg392
(lp4439
sbasbasbasba(i__main__
DelphiAssignStatement
p4440
(dp4441
g389
(idelphi
DelphiAddOp
p4442
(dp4443
g1109
S'+'
sg1110
(i__main__
DelphiIdentAccess
p4444
(dp4445
g401
S'self'
p4446
sg392
(lp4447
(idelphi
DelphiFieldEndAccess
p4448
(dp4449
g411
S'biomassDemand_pctMPB'
p4450
sbasbsg1125
(i__main__
DelphiIdentAccess
p4451
(dp4452
g401
S'traverser'
p4453
sg392
(lp4454
(idelphi
DelphiFieldEndAccess
p4455
(dp4456
g411
S'total'
p4457
sbasbsbsg424
(i__main__
DelphiIdentAccess
p4458
(dp4459
g401
S'traverser'
p4460
sg392
(lp4461
(idelphi
DelphiFieldEndAccess
p4462
(dp4463
g411
S'total'
p4464
sbasbsbasg662
(idelphi
DelphiExceptionHandlers
p4465
(dp4466
g665
(lp4467
(idelphi
DelphiExceptionHandler
p4468
(dp4469
g669
(i__main__
DelphiNamedType
p4470
(dp4471
g35
S'Exception'
p4472
sg61
g1
sg62
Nsbsg401
S'e'
sg673
(i__main__
DelphiAssignStatement
p4473
(dp4474
g389
Nsg424
(i__main__
DelphiIdentAccess
p4475
(dp4476
g401
S'messageForExceptionType'
p4477
sg392
(lp4478
(idelphi
DelphiFunctionEndAccess
p4479
(dp4480
g394
(lp4481
(i__main__
DelphiIdentAccess
p4482
(dp4483
g401
S'e'
sg392
(lp4484
sba(idelphi
DelphiStringAccess
p4485
(dp4486
g392
(lp4487
sg207
(idelphi
DelphiStringValue
p4488
(dp4489
g207
S'PdMeristem.traverseActivity (reproductive demand)'
p4490
sbsbasbasbsbsbasg692
(lp4491
sbsbasbsg4047
(lp4492
(i__main__
DelphiIdentAccess
p4493
(dp4494
g401
S'kActivityDemandReproductive'
p4495
sg392
(lp4496
sbasba(idelphi
DelphiCaseSelector
p4497
(dp4498
g673
(idelphi
DelphiCompoundStatement
p4499
(dp4500
g385
(lp4501
(idelphi
DelphiIfStatement
p4502
(dp4503
g480
(idelphi
DelphiNot
p4504
(dp4505
g992
(idelphi
DelphiNestedExpressionListAccess
p4506
(dp4507
g392
(lp4508
sg394
(lp4509
(i__main__
DelphiIdentAccess
p4510
(dp4511
g401
S'isActive'
p4512
sg392
(lp4513
sbasbsbsg499
Nsg570
(i__main__
DelphiExitStatement
p4514
(dp4515
g1423
g3902
sg429
(lp4516
S'Allocate new biomass by portion of demand. A phytomer cannot be made before the minimum number\r'
p4517
aS'      of days has passed to make one phytomer.'
p4518
asbsba(idelphi
DelphiIfStatement
p4519
(dp4520
g480
(i__main__
DelphiIdentAccess
p4521
(dp4522
g401
S'isReproductive'
p4523
sg392
(lp4524
sbsg499
Nsg570
(i__main__
DelphiExitStatement
p4525
(dp4526
g1423
g3902
sbsba(idelphi
DelphiTryExceptStatement
p4527
(dp4528
g453
(lp4529
(i__main__
DelphiAssignStatement
p4530
(dp4531
g389
(idelphi
DelphiAddOp
p4532
(dp4533
g1109
S'+'
sg1110
(idelphi
DelphiMulOp
p4534
(dp4535
g507
(i__main__
DelphiIdentAccess
p4536
(dp4537
g401
S'traverser'
p4538
sg392
(lp4539
(idelphi
DelphiFieldEndAccess
p4540
(dp4541
g411
S'fractionOfPotentialBiomass'
p4542
sbasbsg518
S'*'
sg519
(i__main__
DelphiIdentAccess
p4543
(dp4544
g401
S'self'
p4545
sg392
(lp4546
(idelphi
DelphiFieldEndAccess
p4547
(dp4548
g411
S'biomassDemand_pctMPB'
p4549
sbasbsbsg1125
(i__main__
DelphiIdentAccess
p4550
(dp4551
g401
S'self'
p4552
sg392
(lp4553
(idelphi
DelphiFieldEndAccess
p4554
(dp4555
g411
S'liveBiomass_pctMPB'
p4556
sbasbsbsg424
(i__main__
DelphiIdentAccess
p4557
(dp4558
g401
S'self'
p4559
sg392
(lp4560
(idelphi
DelphiFieldEndAccess
p4561
(dp4562
g411
S'liveBiomass_pctMPB'
p4563
sbasbsbasg662
(idelphi
DelphiExceptionHandlers
p4564
(dp4565
g665
(lp4566
(idelphi
DelphiExceptionHandler
p4567
(dp4568
g669
(i__main__
DelphiNamedType
p4569
(dp4570
g35
S'Exception'
p4571
sg61
g1
sg62
Nsbsg401
S'e'
sg673
(i__main__
DelphiAssignStatement
p4572
(dp4573
g389
Nsg424
(i__main__
DelphiIdentAccess
p4574
(dp4575
g401
S'messageForExceptionType'
p4576
sg392
(lp4577
(idelphi
DelphiFunctionEndAccess
p4578
(dp4579
g394
(lp4580
(i__main__
DelphiIdentAccess
p4581
(dp4582
g401
S'e'
sg392
(lp4583
sba(idelphi
DelphiStringAccess
p4584
(dp4585
g392
(lp4586
sg207
(idelphi
DelphiStringValue
p4587
(dp4588
g207
S'PdMeristem.traverseActivity (vegetative growth)'
p4589
sbsbasbasbsbsbasg692
(lp4590
sbsbasbsg4047
(lp4591
(i__main__
DelphiIdentAccess
p4592
(dp4593
g401
S'kActivityGrowVegetative'
p4594
sg392
(lp4595
sbasba(idelphi
DelphiCaseSelector
p4596
(dp4597
g673
(idelphi
DelphiCompoundStatement
p4598
(dp4599
g385
(lp4600
(idelphi
DelphiIfStatement
p4601
(dp4602
g480
(idelphi
DelphiAddOp
p4603
(dp4604
g1109
g2186
sg1110
(idelphi
DelphiNestedExpressionListAccess
p4605
(dp4606
g392
(lp4607
sg394
(lp4608
(idelphi
DelphiNot
p4609
(dp4610
g992
(i__main__
DelphiIdentAccess
p4611
(dp4612
g401
S'isReproductive'
p4613
sg392
(lp4614
sbsbasbsg1125
(idelphi
DelphiNestedExpressionListAccess
p4615
(dp4616
g392
(lp4617
sg394
(lp4618
(idelphi
DelphiNot
p4619
(dp4620
g992
(i__main__
DelphiIdentAccess
p4621
(dp4622
g401
S'isActive'
p4623
sg392
(lp4624
sbsbasbsbsg499
Nsg570
(i__main__
DelphiExitStatement
p4625
(dp4626
g1423
g3902
sbsba(idelphi
DelphiTryExceptStatement
p4627
(dp4628
g453
(lp4629
(i__main__
DelphiAssignStatement
p4630
(dp4631
g389
(idelphi
DelphiAddOp
p4632
(dp4633
g1109
S'+'
sg1110
(idelphi
DelphiMulOp
p4634
(dp4635
g507
(i__main__
DelphiIdentAccess
p4636
(dp4637
g401
S'traverser'
p4638
sg392
(lp4639
(idelphi
DelphiFieldEndAccess
p4640
(dp4641
g411
S'fractionOfPotentialBiomass'
p4642
sbasbsg518
S'*'
sg519
(i__main__
DelphiIdentAccess
p4643
(dp4644
g401
S'self'
p4645
sg392
(lp4646
(idelphi
DelphiFieldEndAccess
p4647
(dp4648
g411
S'biomassDemand_pctMPB'
p4649
sbasbsbsg1125
(i__main__
DelphiIdentAccess
p4650
(dp4651
g401
S'self'
p4652
sg392
(lp4653
(idelphi
DelphiFieldEndAccess
p4654
(dp4655
g411
S'liveBiomass_pctMPB'
p4656
sbasbsbsg424
(i__main__
DelphiIdentAccess
p4657
(dp4658
g401
S'self'
p4659
sg392
(lp4660
(idelphi
DelphiFieldEndAccess
p4661
(dp4662
g411
S'liveBiomass_pctMPB'
p4663
sbasbsbasg662
(idelphi
DelphiExceptionHandlers
p4664
(dp4665
g665
(lp4666
(idelphi
DelphiExceptionHandler
p4667
(dp4668
g669
(i__main__
DelphiNamedType
p4669
(dp4670
g35
S'Exception'
p4671
sg61
g1
sg62
Nsbsg401
S'e'
sg673
(i__main__
DelphiAssignStatement
p4672
(dp4673
g389
Nsg424
(i__main__
DelphiIdentAccess
p4674
(dp4675
g401
S'messageForExceptionType'
p4676
sg392
(lp4677
(idelphi
DelphiFunctionEndAccess
p4678
(dp4679
g394
(lp4680
(i__main__
DelphiIdentAccess
p4681
(dp4682
g401
S'e'
sg392
(lp4683
sba(idelphi
DelphiStringAccess
p4684
(dp4685
g392
(lp4686
sg207
(idelphi
DelphiStringValue
p4687
(dp4688
g207
S'PdMeristem.traverseActivity (reproductive growth)'
p4689
sbsbasbasbsbsbasg692
(lp4690
sbsbasbsg4047
(lp4691
(i__main__
DelphiIdentAccess
p4692
(dp4693
g401
S'kActivityGrowReproductive'
p4694
sg392
(lp4695
sbasba(idelphi
DelphiCaseSelector
p4696
(dp4697
g673
(i__main__
DelphiAssignStatement
p4698
(dp4699
g389
Nsg424
(i__main__
DelphiIdentAccess
p4700
(dp4701
g401
S'self'
p4702
sg392
(lp4703
(idelphi
DelphiFieldEndAccess
p4704
(dp4705
g411
S'startReproduction'
p4706
sbasbsbsg4047
(lp4707
(i__main__
DelphiIdentAccess
p4708
(dp4709
g401
S'kActivityStartReproduction'
p4710
sg392
(lp4711
sbasba(idelphi
DelphiCaseSelector
p4712
(dp4713
g673
(idelphi
DelphiCompoundStatement
p4714
(dp4715
g385
(lp4716
(idelphi
DelphiIfStatement
p4717
(dp4718
g480
(i__main__
DelphiIdentAccess
p4719
(dp4720
g401
S'pointsAreCloseEnough'
p4721
sg392
(lp4722
(idelphi
DelphiFunctionEndAccess
p4723
(dp4724
g394
(lp4725
(i__main__
DelphiIdentAccess
p4726
(dp4727
g401
S'traverser'
p4728
sg392
(lp4729
(idelphi
DelphiFieldEndAccess
p4730
(dp4731
g411
S'point'
p4732
sbasba(i__main__
DelphiIdentAccess
p4733
(dp4734
g401
S'self'
p4735
sg392
(lp4736
(idelphi
DelphiFieldEndAccess
p4737
(dp4738
g411
S'position'
p4739
sbasbasbasbsg499
Nsg570
(idelphi
DelphiCompoundStatement
p4740
(dp4741
g385
(lp4742
(i__main__
DelphiAssignStatement
p4743
(dp4744
g389
(i__main__
DelphiIdentAccess
p4745
(dp4746
g401
S'self'
p4747
sg392
(lp4748
sbsg424
(i__main__
DelphiIdentAccess
p4749
(dp4750
g401
S'traverser'
p4751
sg392
(lp4752
(idelphi
DelphiFieldEndAccess
p4753
(dp4754
g411
S'foundPlantPart'
p4755
sbasbsba(i__main__
DelphiAssignStatement
p4756
(dp4757
g389
(i__main__
DelphiIdentAccess
p4758
(dp4759
g401
S'true'
p4760
sg392
(lp4761
sbsg424
(i__main__
DelphiIdentAccess
p4762
(dp4763
g401
S'traverser'
p4764
sg392
(lp4765
(idelphi
DelphiFieldEndAccess
p4766
(dp4767
g411
S'finished'
p4768
sbasbsbasbsbasbsg4047
(lp4769
(i__main__
DelphiIdentAccess
p4770
(dp4771
g401
S'kActivityFindPlantPartAtPosition'
p4772
sg392
(lp4773
sbasba(idelphi
DelphiCaseSelector
p4774
(dp4775
g673
(i__main__
DelphiAssignStatement
p4776
(dp4777
g389
Nsg424
(i__main__
DelphiIdentAccess
p4778
(dp4779
g401
S'self'
p4780
sg392
(lp4781
(idelphi
DelphiFieldEndAccess
p4782
(dp4783
g411
S'draw'
p4784
sbasbsbsg4047
(lp4785
(i__main__
DelphiIdentAccess
p4786
(dp4787
g401
S'kActivityDraw'
p4788
sg392
(lp4789
sbasba(idelphi
DelphiCaseSelector
p4790
(dp4791
g673
Nsg4047
(lp4792
(i__main__
DelphiIdentAccess
p4793
(dp4794
g401
S'kActivityReport'
p4795
sg392
(lp4796
sbasba(idelphi
DelphiCaseSelector
p4797
(dp4798
g673
Nsg4047
(lp4799
(i__main__
DelphiIdentAccess
p4800
(dp4801
g401
S'kActivityStream'
p4802
sg392
(lp4803
sbasba(idelphi
DelphiCaseSelector
p4804
(dp4805
g673
Nsg4047
(lp4806
(i__main__
DelphiIdentAccess
p4807
(dp4808
g401
S'kActivityFree'
p4809
sg392
(lp4810
sbasba(idelphi
DelphiCaseSelector
p4811
(dp4812
g673
(idelphi
DelphiCompoundStatement
p4813
(dp4814
g385
(lp4815
(idelphi
DelphiIfStatement
p4816
(dp4817
g480
(idelphi
DelphiNot
p4818
(dp4819
g992
(i__main__
DelphiIdentAccess
p4820
(dp4821
g401
S'isActive'
p4822
sg392
(lp4823
sbsbsg499
Nsg570
(i__main__
DelphiExitStatement
p4824
(dp4825
g1423
g3902
sg429
(lp4826
S'called by phytomer'
p4827
aS' free called by phytomer or inflorescence '
p4828
asbsba(idelphi
DelphiIfStatement
p4829
(dp4830
g480
(idelphi
DelphiMulOp
p4831
(dp4832
g507
(idelphi
DelphiNestedExpressionListAccess
p4833
(dp4834
g392
(lp4835
sg394
(lp4836
(i__main__
DelphiIdentAccess
p4837
(dp4838
g401
S'isReproductive'
p4839
sg392
(lp4840
sbasbsg518
g552
sg519
(idelphi
DelphiNestedExpressionListAccess
p4841
(dp4842
g392
(lp4843
sg394
(lp4844
(idelphi
DelphiRelOp
p4845
(dp4846
g398
(i__main__
DelphiIdentAccess
p4847
(dp4848
g401
S'mode'
p4849
sg392
(lp4850
sbsg404
(i__main__
DelphiIdentAccess
p4851
(dp4852
g401
S'kActivityVegetativeBiomassThatCanBeRemoved'
p4853
sg392
(lp4854
sbsg423
S'='
sbasbsbsg499
Nsg570
(i__main__
DelphiExitStatement
p4855
(dp4856
g1423
g3902
sbsba(idelphi
DelphiIfStatement
p4857
(dp4858
g480
(idelphi
DelphiMulOp
p4859
(dp4860
g507
(idelphi
DelphiNestedExpressionListAccess
p4861
(dp4862
g392
(lp4863
sg394
(lp4864
(idelphi
DelphiNot
p4865
(dp4866
g992
(i__main__
DelphiIdentAccess
p4867
(dp4868
g401
S'isReproductive'
p4869
sg392
(lp4870
sbsbasbsg518
g552
sg519
(idelphi
DelphiNestedExpressionListAccess
p4871
(dp4872
g392
(lp4873
sg394
(lp4874
(idelphi
DelphiRelOp
p4875
(dp4876
g398
(i__main__
DelphiIdentAccess
p4877
(dp4878
g401
S'mode'
p4879
sg392
(lp4880
sbsg404
(i__main__
DelphiIdentAccess
p4881
(dp4882
g401
S'kActivityReproductiveBiomassThatCanBeRemoved'
p4883
sg392
(lp4884
sbsg423
S'='
sbasbsbsg499
Nsg570
(i__main__
DelphiExitStatement
p4885
(dp4886
g1423
g3902
sbsba(idelphi
DelphiTryExceptStatement
p4887
(dp4888
g453
(lp4889
(i__main__
DelphiAssignStatement
p4890
(dp4891
g389
(idelphi
DelphiAddOp
p4892
(dp4893
g1109
S'+'
sg1110
(i__main__
DelphiIdentAccess
p4894
(dp4895
g401
S'self'
p4896
sg392
(lp4897
(idelphi
DelphiFieldEndAccess
p4898
(dp4899
g411
S'liveBiomass_pctMPB'
p4900
sbasbsg1125
(i__main__
DelphiIdentAccess
p4901
(dp4902
g401
S'traverser'
p4903
sg392
(lp4904
(idelphi
DelphiFieldEndAccess
p4905
(dp4906
g411
S'total'
p4907
sbasbsbsg424
(i__main__
DelphiIdentAccess
p4908
(dp4909
g401
S'traverser'
p4910
sg392
(lp4911
(idelphi
DelphiFieldEndAccess
p4912
(dp4913
g411
S'total'
p4914
sbasbsg429
(lp4915
S' a meristem can lose all of its biomass '
p4916
asbasg662
(idelphi
DelphiExceptionHandlers
p4917
(dp4918
g665
(lp4919
(idelphi
DelphiExceptionHandler
p4920
(dp4921
g669
(i__main__
DelphiNamedType
p4922
(dp4923
g35
S'Exception'
p4924
sg61
g1
sg62
Nsbsg401
S'e'
sg673
(i__main__
DelphiAssignStatement
p4925
(dp4926
g389
Nsg424
(i__main__
DelphiIdentAccess
p4927
(dp4928
g401
S'messageForExceptionType'
p4929
sg392
(lp4930
(idelphi
DelphiFunctionEndAccess
p4931
(dp4932
g394
(lp4933
(i__main__
DelphiIdentAccess
p4934
(dp4935
g401
S'e'
sg392
(lp4936
sba(idelphi
DelphiStringAccess
p4937
(dp4938
g392
(lp4939
sg207
(idelphi
DelphiStringValue
p4940
(dp4941
g207
S'PdMeristem.traverseActivity (removal request)'
p4942
sbsbasbasbsbsbasg692
(lp4943
sbsbasbsg4047
(lp4944
(i__main__
DelphiIdentAccess
p4945
(dp4946
g401
S'kActivityVegetativeBiomassThatCanBeRemoved'
p4947
sg392
(lp4948
sba(i__main__
DelphiIdentAccess
p4949
(dp4950
g401
S'kActivityReproductiveBiomassThatCanBeRemoved'
p4951
sg392
(lp4952
sbasba(idelphi
DelphiCaseSelector
p4953
(dp4954
g673
(idelphi
DelphiCompoundStatement
p4955
(dp4956
g385
(lp4957
(idelphi
DelphiIfStatement
p4958
(dp4959
g480
(idelphi
DelphiNot
p4960
(dp4961
g992
(i__main__
DelphiIdentAccess
p4962
(dp4963
g401
S'isActive'
p4964
sg392
(lp4965
sbsbsg499
Nsg570
(i__main__
DelphiExitStatement
p4966
(dp4967
g1423
g3902
sbsba(idelphi
DelphiIfStatement
p4968
(dp4969
g480
(idelphi
DelphiMulOp
p4970
(dp4971
g507
(idelphi
DelphiNestedExpressionListAccess
p4972
(dp4973
g392
(lp4974
sg394
(lp4975
(i__main__
DelphiIdentAccess
p4976
(dp4977
g401
S'isReproductive'
p4978
sg392
(lp4979
sbasbsg518
g552
sg519
(idelphi
DelphiNestedExpressionListAccess
p4980
(dp4981
g392
(lp4982
sg394
(lp4983
(idelphi
DelphiRelOp
p4984
(dp4985
g398
(i__main__
DelphiIdentAccess
p4986
(dp4987
g401
S'mode'
p4988
sg392
(lp4989
sbsg404
(i__main__
DelphiIdentAccess
p4990
(dp4991
g401
S'kActivityRemoveVegetativeBiomass'
p4992
sg392
(lp4993
sbsg423
S'='
sbasbsbsg499
Nsg570
(i__main__
DelphiExitStatement
p4994
(dp4995
g1423
g3902
sbsba(idelphi
DelphiIfStatement
p4996
(dp4997
g480
(idelphi
DelphiMulOp
p4998
(dp4999
g507
(idelphi
DelphiNestedExpressionListAccess
p5000
(dp5001
g392
(lp5002
sg394
(lp5003
(idelphi
DelphiNot
p5004
(dp5005
g992
(i__main__
DelphiIdentAccess
p5006
(dp5007
g401
S'isReproductive'
p5008
sg392
(lp5009
sbsbasbsg518
g552
sg519
(idelphi
DelphiNestedExpressionListAccess
p5010
(dp5011
g392
(lp5012
sg394
(lp5013
(idelphi
DelphiRelOp
p5014
(dp5015
g398
(i__main__
DelphiIdentAccess
p5016
(dp5017
g401
S'mode'
p5018
sg392
(lp5019
sbsg404
(i__main__
DelphiIdentAccess
p5020
(dp5021
g401
S'kActivityRemoveReproductiveBiomass'
p5022
sg392
(lp5023
sbsg423
S'='
sbasbsbsg499
Nsg570
(i__main__
DelphiExitStatement
p5024
(dp5025
g1423
g3902
sbsba(idelphi
DelphiTryExceptStatement
p5026
(dp5027
g453
(lp5028
(i__main__
DelphiAssignStatement
p5029
(dp5030
g389
(idelphi
DelphiMulOp
p5031
(dp5032
g507
(i__main__
DelphiIdentAccess
p5033
(dp5034
g401
S'traverser'
p5035
sg392
(lp5036
(idelphi
DelphiFieldEndAccess
p5037
(dp5038
g411
S'fractionOfPotentialBiomass'
p5039
sbasbsg518
S'*'
sg519
(i__main__
DelphiIdentAccess
p5040
(dp5041
g401
S'self'
p5042
sg392
(lp5043
(idelphi
DelphiFieldEndAccess
p5044
(dp5045
g411
S'liveBiomass_pctMPB'
p5046
sbasbsbsg424
(i__main__
DelphiIdentAccess
p5047
(dp5048
g401
S'biomassToRemove_pctMPB'
p5049
sg392
(lp5050
sbsba(i__main__
DelphiAssignStatement
p5051
(dp5052
g389
(idelphi
DelphiAddOp
p5053
(dp5054
g1109
S'-'
sg1110
(i__main__
DelphiIdentAccess
p5055
(dp5056
g401
S'biomassToRemove_pctMPB'
p5057
sg392
(lp5058
sbsg1125
(i__main__
DelphiIdentAccess
p5059
(dp5060
g401
S'self'
p5061
sg392
(lp5062
(idelphi
DelphiFieldEndAccess
p5063
(dp5064
g411
S'liveBiomass_pctMPB'
p5065
sbasbsbsg424
(i__main__
DelphiIdentAccess
p5066
(dp5067
g401
S'self'
p5068
sg392
(lp5069
(idelphi
DelphiFieldEndAccess
p5070
(dp5071
g411
S'liveBiomass_pctMPB'
p5072
sbasbsba(i__main__
DelphiAssignStatement
p5073
(dp5074
g389
(idelphi
DelphiAddOp
p5075
(dp5076
g1109
S'+'
sg1110
(i__main__
DelphiIdentAccess
p5077
(dp5078
g401
S'biomassToRemove_pctMPB'
p5079
sg392
(lp5080
sbsg1125
(i__main__
DelphiIdentAccess
p5081
(dp5082
g401
S'self'
p5083
sg392
(lp5084
(idelphi
DelphiFieldEndAccess
p5085
(dp5086
g411
S'deadBiomass_pctMPB'
p5087
sbasbsbsg424
(i__main__
DelphiIdentAccess
p5088
(dp5089
g401
S'self'
p5090
sg392
(lp5091
(idelphi
DelphiFieldEndAccess
p5092
(dp5093
g411
S'deadBiomass_pctMPB'
p5094
sbasbsbasg662
(idelphi
DelphiExceptionHandlers
p5095
(dp5096
g665
(lp5097
(idelphi
DelphiExceptionHandler
p5098
(dp5099
g669
(i__main__
DelphiNamedType
p5100
(dp5101
g35
S'Exception'
p5102
sg61
g1
sg62
Nsbsg401
S'e'
sg673
(i__main__
DelphiAssignStatement
p5103
(dp5104
g389
Nsg424
(i__main__
DelphiIdentAccess
p5105
(dp5106
g401
S'messageForExceptionType'
p5107
sg392
(lp5108
(idelphi
DelphiFunctionEndAccess
p5109
(dp5110
g394
(lp5111
(i__main__
DelphiIdentAccess
p5112
(dp5113
g401
S'e'
sg392
(lp5114
sba(idelphi
DelphiStringAccess
p5115
(dp5116
g392
(lp5117
sg207
(idelphi
DelphiStringValue
p5118
(dp5119
g207
S'PdMeristem.traverseActivity (removal)'
p5120
sbsbasbasbsbsbasg692
(lp5121
sbsbasbsg4047
(lp5122
(i__main__
DelphiIdentAccess
p5123
(dp5124
g401
S'kActivityRemoveVegetativeBiomass'
p5125
sg392
(lp5126
sba(i__main__
DelphiIdentAccess
p5127
(dp5128
g401
S'kActivityRemoveReproductiveBiomass'
p5129
sg392
(lp5130
sbasba(idelphi
DelphiCaseSelector
p5131
(dp5132
g673
(idelphi
DelphiCompoundStatement
p5133
(dp5134
g385
(lp5135
(i__main__
DelphiAssignStatement
p5136
(dp5137
g389
Nsg424
(i__main__
DelphiIdentAccess
p5138
(dp5139
g401
S'self'
p5140
sg392
(lp5141
(idelphi
DelphiFieldEndAccess
p5142
(dp5143
g411
S'addToStatistics'
p5144
sba(idelphi
DelphiFunctionEndAccess
p5145
(dp5146
g394
(lp5147
(i__main__
DelphiIdentAccess
p5148
(dp5149
g401
S'traverser'
p5150
sg392
(lp5151
(idelphi
DelphiFieldEndAccess
p5152
(dp5153
g411
S'statistics'
p5154
sbasba(i__main__
DelphiIdentAccess
p5155
(dp5156
g401
S'kStatisticsPartTypeAxillaryBud'
p5157
sg392
(lp5158
sbasbasbsba(idelphi
DelphiIfStatement
p5159
(dp5160
g480
(i__main__
DelphiIdentAccess
p5161
(dp5162
g401
S'isReproductive'
p5163
sg392
(lp5164
sbsg499
(i__main__
DelphiAssignStatement
p5165
(dp5166
g389
Nsg424
(i__main__
DelphiIdentAccess
p5167
(dp5168
g401
S'self'
p5169
sg392
(lp5170
(idelphi
DelphiFieldEndAccess
p5171
(dp5172
g411
S'addToStatistics'
p5173
sba(idelphi
DelphiFunctionEndAccess
p5174
(dp5175
g394
(lp5176
(i__main__
DelphiIdentAccess
p5177
(dp5178
g401
S'traverser'
p5179
sg392
(lp5180
(idelphi
DelphiFieldEndAccess
p5181
(dp5182
g411
S'statistics'
p5183
sbasba(i__main__
DelphiIdentAccess
p5184
(dp5185
g401
S'kStatisticsPartTypeAllVegetative'
p5186
sg392
(lp5187
sbasbasbsbsg570
(i__main__
DelphiAssignStatement
p5188
(dp5189
g389
Nsg424
(i__main__
DelphiIdentAccess
p5190
(dp5191
g401
S'self'
p5192
sg392
(lp5193
(idelphi
DelphiFieldEndAccess
p5194
(dp5195
g411
S'addToStatistics'
p5196
sba(idelphi
DelphiFunctionEndAccess
p5197
(dp5198
g394
(lp5199
(i__main__
DelphiIdentAccess
p5200
(dp5201
g401
S'traverser'
p5202
sg392
(lp5203
(idelphi
DelphiFieldEndAccess
p5204
(dp5205
g411
S'statistics'
p5206
sbasba(i__main__
DelphiIdentAccess
p5207
(dp5208
g401
S'kStatisticsPartTypeAllReproductive'
p5209
sg392
(lp5210
sbasbasbsbsbasbsg4047
(lp5211
(i__main__
DelphiIdentAccess
p5212
(dp5213
g401
S'kActivityGatherStatistics'
p5214
sg392
(lp5215
sbasba(idelphi
DelphiCaseSelector
p5216
(dp5217
g673
Nsg4047
(lp5218
(i__main__
DelphiIdentAccess
p5219
(dp5220
g401
S'kActivityCountPlantParts'
p5221
sg392
(lp5222
sbasba(idelphi
DelphiCaseSelector
p5223
(dp5224
g673
Nsg4047
(lp5225
(i__main__
DelphiIdentAccess
p5226
(dp5227
g401
S'kActivityFindPartForPartID'
p5228
sg392
(lp5229
sbasba(idelphi
DelphiCaseSelector
p5230
(dp5231
g673
(i__main__
DelphiIncOrDecStatement
p5232
(dp5233
g1024
g1025
sg1026
(i__main__
DelphiIdentAccess
p5234
(dp5235
g401
S'self'
p5236
sg392
(lp5237
(idelphi
DelphiFieldEndAccess
p5238
(dp5239
g411
S'instanceSize'
p5240
sbasbsg424
(i__main__
DelphiIdentAccess
p5241
(dp5242
g401
S'traverser'
p5243
sg392
(lp5244
(idelphi
DelphiFieldEndAccess
p5245
(dp5246
g411
S'totalMemorySize'
p5247
sbasbsbsg4047
(lp5248
(i__main__
DelphiIdentAccess
p5249
(dp5250
g401
S'kActivityCountTotalMemoryUse'
p5251
sg392
(lp5252
sbasba(idelphi
DelphiCaseSelector
p5253
(dp5254
g673
Nsg4047
(lp5255
(i__main__
DelphiIdentAccess
p5256
(dp5257
g401
S'kActivityCalculateBiomassForGravity'
p5258
sg392
(lp5259
sbasba(idelphi
DelphiCaseSelector
p5260
(dp5261
g673
(idelphi
DelphiCompoundStatement
p5262
(dp5263
g385
(lp5264
(i__main__
DelphiAssignStatement
p5265
(dp5266
g389
Nsg424
(i__main__
DelphiIdentAccess
p5267
(dp5268
g401
S'self'
p5269
sg392
(lp5270
(idelphi
DelphiFieldEndAccess
p5271
(dp5272
g411
S'countPointsAndTrianglesFor3DExportAndAddToTraverserTotals'
p5273
sba(idelphi
DelphiFunctionEndAccess
p5274
(dp5275
g394
(lp5276
(i__main__
DelphiIdentAccess
p5277
(dp5278
g401
S'traverser'
p5279
sg392
(lp5280
sbasbasbsbasbsg4047
(lp5281
(i__main__
DelphiIdentAccess
p5282
(dp5283
g401
S'kActivityCountPointsAndTrianglesFor3DExport'
p5284
sg392
(lp5285
sbasbasbasg662
(idelphi
DelphiExceptionHandlers
p5286
(dp5287
g665
(lp5288
(idelphi
DelphiExceptionHandler
p5289
(dp5290
g669
(i__main__
DelphiNamedType
p5291
(dp5292
g35
S'Exception'
p5293
sg61
g1
sg62
Nsbsg401
S'e'
sg673
(i__main__
DelphiAssignStatement
p5294
(dp5295
g389
Nsg424
(i__main__
DelphiIdentAccess
p5296
(dp5297
g401
S'messageForExceptionType'
p5298
sg392
(lp5299
(idelphi
DelphiFunctionEndAccess
p5300
(dp5301
g394
(lp5302
(i__main__
DelphiIdentAccess
p5303
(dp5304
g401
S'e'
sg392
(lp5305
sba(idelphi
DelphiStringAccess
p5306
(dp5307
g392
(lp5308
sg207
(idelphi
DelphiStringValue
p5309
(dp5310
g207
S'PdMeristem.traverseActivity'
p5311
sbsbasbasbsbsbasg692
(lp5312
sbsbasbsg434
(lp5313
(i__main__
DelphiVarSection
p5314
(dp5315
g697
I0
sg698
(lp5316
(idelphi
DelphiVarDecl
p5317
(dp5318
g702
Nsg703
(lp5319
S'traverser'
p5320
asg57
(i__main__
DelphiNamedType
p5321
(dp5322
g35
S'PdTraverser'
p5323
sg61
g1
sg62
Nsbsba(idelphi
DelphiVarDecl
p5324
(dp5325
g702
Nsg703
(lp5326
S'optimalBiomass_pctMPB'
p5327
aS'biomassToRemove_pctMPB'
p5328
asg57
(i__main__
DelphiPrimitiveType
p5329
(dp5330
g35
g89
sbsbasbasbsbsS'report'
p5331
(i__main__
DelphiMethodImplementation
p5332
(dp5333
g363
g232
sg21
g234
sg29
(lp5334
sg365
(lp5335
sg367
(lp5336
sg369
(lp5337
g371
asg372
(dp5338
sg31
S'PdMeristem'
p5339
sg32
Nsg377
(lp5340
sg37
I0
sg38
g45
sg379
(i__main__
DelphiBlock
p5341
(dp5342
g382
(idelphi
DelphiCompoundStatement
p5343
(dp5344
g385
(lp5345
(i__main__
DelphiAssignStatement
p5346
(dp5347
g389
Nsg424
(idelphi
DelphiInheritedCall
p5348
(dp5349
g401
S'report'
p5350
sg394
Nsbsbasg429
(lp5351
S"debugPrint('meristem, age ' + IntToStr(age) + ' biomass ' + floatToStr(liveBiomass_pctMPB));\r"
p5352
aS"DebugForm.printNested(plant.turtle.stackSize, 'meristem, age ' + IntToStr(age) + ' biomass '\r"
p5353
aS'    + floatToStr(liveBiomass_pctMPB));'
p5354
asbsg434
(lp5355
sbsbsS'countpointsandtrianglesfor3dexportandaddtotraversertotals'
p5356
(i__main__
DelphiMethodImplementation
p5357
(dp5358
g363
g237
sg21
g239
sg29
(lp5359
(i__main__
DelphiFormalParameter
p5360
(dp5361
g53
Nsg54
(lp5362
S'traverser'
p5363
asg57
(i__main__
DelphiNamedType
p5364
(dp5365
g35
S'PdTraverser'
p5366
sg61
g1
sg62
Nsbsg63
Nsbasg365
(lp5367
sg367
(lp5368
sg369
(lp5369
g371
ag5363
asg372
(dp5370
g5363
g5364
ssg31
S'PdMeristem'
p5371
sg32
Nsg377
(lp5372
sg37
I0
sg38
g45
sg379
(i__main__
DelphiBlock
p5373
(dp5374
g382
(idelphi
DelphiCompoundStatement
p5375
(dp5376
g385
(lp5377
(idelphi
DelphiIfStatement
p5378
(dp5379
g480
(idelphi
DelphiRelOp
p5380
(dp5381
g398
(i__main__
DelphiIdentAccess
p5382
(dp5383
g401
S'traverser'
p5384
sg392
(lp5385
sbsg404
(idelphi
DelphiNilValue
p5386
(dp5387
bsg423
S'='
sbsg499
Nsg570
(i__main__
DelphiExitStatement
p5388
(dp5389
g1423
g5357
sbsba(idelphi
DelphiWithStatement
p5390
(dp5391
g673
(idelphi
DelphiIfStatement
p5392
(dp5393
g480
(idelphi
DelphiRelOp
p5394
(dp5395
g398
(i__main__
DelphiIdentAccess
p5396
(dp5397
g401
S'scaleAtFullSize'
p5398
sg392
(lp5399
sbsg404
(idelphi
DelphiIntegerValue
p5400
(dp5401
g207
S'0'
sbsg423
S'>'
sbsg499
Nsg570
(idelphi
DelphiCompoundStatement
p5402
(dp5403
g385
(lp5404
(i__main__
DelphiIncOrDecStatement
p5405
(dp5406
g1024
g1025
sg1026
(idelphi
DelphiMulOp
p5407
(dp5408
g507
(i__main__
DelphiIdentAccess
p5409
(dp5410
g401
S'repetitions'
p5411
sg392
(lp5412
sbsg518
S'*'
sg519
(i__main__
DelphiIdentAccess
p5413
(dp5414
g401
S'object3d'
p5415
sg392
(lp5416
(idelphi
DelphiFieldEndAccess
p5417
(dp5418
g411
S'pointsInUse'
p5419
sbasbsbsg424
(i__main__
DelphiIdentAccess
p5420
(dp5421
g401
S'traverser'
p5422
sg392
(lp5423
(idelphi
DelphiFieldEndAccess
p5424
(dp5425
g411
S'total3DExportPointsIn3DObjects'
p5426
sbasbsba(i__main__
DelphiIncOrDecStatement
p5427
(dp5428
g1024
g1025
sg1026
(idelphi
DelphiMulOp
p5429
(dp5430
g507
(i__main__
DelphiIdentAccess
p5431
(dp5432
g401
S'repetitions'
p5433
sg392
(lp5434
sbsg518
S'*'
sg519
(i__main__
DelphiIdentAccess
p5435
(dp5436
g401
S'object3d'
p5437
sg392
(lp5438
(idelphi
DelphiFieldEndAccess
p5439
(dp5440
g411
S'triangles'
p5441
sba(idelphi
DelphiFieldEndAccess
p5442
(dp5443
g411
S'count'
p5444
sbasbsbsg424
(i__main__
DelphiIdentAccess
p5445
(dp5446
g401
S'traverser'
p5447
sg392
(lp5448
(idelphi
DelphiFieldEndAccess
p5449
(dp5450
g411
S'total3DExportTrianglesIn3DObjects'
p5451
sbasbsba(i__main__
DelphiAssignStatement
p5452
(dp5453
g389
Nsg424
(i__main__
DelphiIdentAccess
p5454
(dp5455
g401
S'addExportMaterial'
p5456
sg392
(lp5457
(idelphi
DelphiFunctionEndAccess
p5458
(dp5459
g394
(lp5460
(i__main__
DelphiIdentAccess
p5461
(dp5462
g401
S'traverser'
p5463
sg392
(lp5464
sba(i__main__
DelphiIdentAccess
p5465
(dp5466
g401
S'kExportPartMeristem'
p5467
sg392
(lp5468
sba(idelphi
DelphiSign
p5469
(dp5470
g992
(idelphi
DelphiIntegerValue
p5471
(dp5472
g207
S'1'
sbsg3424
S'-'
sbasbasbsbasbsbsg1813
(lp5473
(i__main__
DelphiIdentAccess
p5474
(dp5475
g401
S'plant'
p5476
sg392
(lp5477
(idelphi
DelphiFieldEndAccess
p5478
(dp5479
g411
S'pAxillaryBud'
p5480
sba(idelphi
DelphiFieldEndAccess
p5481
(dp5482
g411
S'tdoParams'
p5483
sbasbasbasbsg434
(lp5484
sbsbsS'createphytomer'
p5485
(i__main__
DelphiMethodImplementation
p5486
(dp5487
g363
g249
sg21
g251
sg29
(lp5488
(i__main__
DelphiFormalParameter
p5489
(dp5490
g53
Nsg54
(lp5491
S'fractionOfFullSize'
p5492
asg57
(i__main__
DelphiPrimitiveType
p5493
(dp5494
g35
g89
sbsg63
Nsbasg365
(lp5495
sg367
(lp5496
sg369
(lp5497
g371
ag5492
asg372
(dp5498
g5492
g5493
ssg31
S'PdMeristem'
p5499
sg32
Nsg377
(lp5500
sg37
I0
sg38
g45
sg379
(i__main__
DelphiBlock
p5501
(dp5502
g382
(idelphi
DelphiCompoundStatement
p5503
(dp5504
g385
(lp5505
(idelphi
DelphiIfStatement
p5506
(dp5507
g480
(idelphi
DelphiRelOp
p5508
(dp5509
g398
(i__main__
DelphiIdentAccess
p5510
(dp5511
g401
S'plant'
p5512
sg392
(lp5513
(idelphi
DelphiFieldEndAccess
p5514
(dp5515
g411
S'partsCreated'
p5516
sbasbsg404
(idelphi
DelphiMulOp
p5517
(dp5518
g507
(idelphi
DelphiIntegerValue
p5519
(dp5520
g207
S'1000'
p5521
sbsg518
S'*'
sg519
(i__main__
DelphiIdentAccess
p5522
(dp5523
g401
S'domain'
p5524
sg392
(lp5525
(idelphi
DelphiFieldEndAccess
p5526
(dp5527
g411
S'options'
p5528
sba(idelphi
DelphiFieldEndAccess
p5529
(dp5530
g411
S'maxPartsPerPlant_thousands'
p5531
sbasbsbsg423
S'>'
sbsg499
Nsg570
(i__main__
DelphiExitStatement
p5532
(dp5533
g1423
g5486
sg429
(lp5534
S' create new phytomer. fraction of full size is the amount of biomass the meristem accumulated\r'
p5535
aS' (in the number of days it had to create a phytomer) divided by the optimal biomass of a phytomer.\r'
p5536
aS' v1.6b1\r'
p5537
asbsba(i__main__
DelphiAssignStatement
p5538
(dp5539
g389
(i__main__
DelphiIdentAccess
p5540
(dp5541
g401
S'PdInternode'
p5542
sg392
(lp5543
(idelphi
DelphiFieldEndAccess
p5544
(dp5545
g411
S'NewWithPlantFractionOfInitialOptimalSize'
p5546
sba(idelphi
DelphiFunctionEndAccess
p5547
(dp5548
g394
(lp5549
(i__main__
DelphiIdentAccess
p5550
(dp5551
g401
S'plant'
p5552
sg392
(lp5553
sba(i__main__
DelphiIdentAccess
p5554
(dp5555
g401
S'fractionOfFullSize'
p5556
sg392
(lp5557
sbasbasbsg424
(i__main__
DelphiIdentAccess
p5558
(dp5559
g401
S'newPhytomer'
p5560
sg392
(lp5561
sbsba(i__main__
DelphiAssignStatement
p5562
(dp5563
g389
(i__main__
DelphiIdentAccess
p5564
(dp5565
g401
S'self'
p5566
sg392
(lp5567
(idelphi
DelphiFieldEndAccess
p5568
(dp5569
g411
S'phytomerAttachedTo'
p5570
sbasbsg424
(i__main__
DelphiIdentAccess
p5571
(dp5572
g401
S'newPhytomer'
p5573
sg392
(lp5574
(idelphi
DelphiFieldEndAccess
p5575
(dp5576
g411
S'phytomerAttachedTo'
p5577
sbasbsba(idelphi
DelphiIfStatement
p5578
(dp5579
g480
(idelphi
DelphiNestedExpressionListAccess
p5580
(dp5581
g392
(lp5582
sg394
(lp5583
(idelphi
DelphiRelOp
p5584
(dp5585
g398
(i__main__
DelphiIdentAccess
p5586
(dp5587
g401
S'phytomerAttachedTo'
p5588
sg392
(lp5589
sbsg404
(idelphi
DelphiNilValue
p5590
(dp5591
bsg423
g1222
sbasbsg499
(idelphi
DelphiCompoundStatement
p5592
(dp5593
g385
(lp5594
(i__main__
DelphiAssignStatement
p5595
(dp5596
g389
Nsg424
(i__main__
DelphiIdentAccess
p5597
(dp5598
g401
S'self'
p5599
sg392
(lp5600
(idelphi
DelphiFieldEndAccess
p5601
(dp5602
g411
S'setIfApical'
p5603
sba(idelphi
DelphiFunctionEndAccess
p5604
(dp5605
g394
(lp5606
(i__main__
DelphiIdentAccess
p5607
(dp5608
g401
S'true'
p5609
sg392
(lp5610
sbasbasbsba(i__main__
DelphiAssignStatement
p5611
(dp5612
g389
Nsg424
(i__main__
DelphiIdentAccess
p5613
(dp5614
g401
S'self'
p5615
sg392
(lp5616
(idelphi
DelphiFieldEndAccess
p5617
(dp5618
g411
S'setIfActive'
p5619
sba(idelphi
DelphiFunctionEndAccess
p5620
(dp5621
g394
(lp5622
(idelphi
DelphiNot
p5623
(dp5624
g992
(i__main__
DelphiIdentAccess
p5625
(dp5626
g401
S'plant'
p5627
sg392
(lp5628
(idelphi
DelphiFieldEndAccess
p5629
(dp5630
g411
S'pMeristem'
p5631
sba(idelphi
DelphiFieldEndAccess
p5632
(dp5633
g411
S'branchingIsSympodial'
p5634
sbasbsbasbasbsba(i__main__
DelphiAssignStatement
p5635
(dp5636
g389
(i__main__
DelphiIdentAccess
p5637
(dp5638
g401
S'newPhytomer'
p5639
sg392
(lp5640
sbsg424
(i__main__
DelphiIdentAccess
p5641
(dp5642
g401
S'self'
p5643
sg392
(lp5644
(idelphi
DelphiFieldEndAccess
p5645
(dp5646
g411
S'phytomerAttachedTo'
p5647
sbasbsg429
(lp5648
S' set up pointers\r'
p5649
asba(i__main__
DelphiAssignStatement
p5650
(dp5651
g389
(i__main__
DelphiIdentAccess
p5652
(dp5653
g401
S'self'
p5654
sg392
(lp5655
sbsg424
(i__main__
DelphiIdentAccess
p5656
(dp5657
g401
S'self'
p5658
sg392
(lp5659
(idelphi
DelphiFieldEndAccess
p5660
(dp5661
g411
S'phytomerAttachedTo'
p5662
sba(idelphi
DelphiFieldEndAccess
p5663
(dp5664
g411
S'NextPlantPart'
p5665
sbasbsba(idelphi
DelphiIfStatement
p5666
(dp5667
g480
(i__main__
DelphiIdentAccess
p5668
(dp5669
g401
S'plant'
p5670
sg392
(lp5671
(idelphi
DelphiFieldEndAccess
p5672
(dp5673
g411
S'pMeristem'
p5674
sba(idelphi
DelphiFieldEndAccess
p5675
(dp5676
g411
S'branchingIsSympodial'
p5677
sbasbsg499
Nsg570
(idelphi
DelphiCompoundStatement
p5678
(dp5679
g385
(lp5680
(idelphi
DelphiIfStatement
p5681
(dp5682
g480
(idelphi
DelphiRelOp
p5683
(dp5684
g398
(i__main__
DelphiIdentAccess
p5685
(dp5686
g401
S'plant'
p5687
sg392
(lp5688
(idelphi
DelphiFieldEndAccess
p5689
(dp5690
g411
S'pMeristem'
p5691
sba(idelphi
DelphiFieldEndAccess
p5692
(dp5693
g411
S'branchingAndLeafArrangement'
p5694
sbasbsg404
(i__main__
DelphiIdentAccess
p5695
(dp5696
g401
S'kArrangementAlternate'
p5697
sg392
(lp5698
sbsg423
S'='
sbsg499
(idelphi
DelphiCompoundStatement
p5699
(dp5700
g385
(lp5701
(i__main__
DelphiAssignStatement
p5702
(dp5703
g389
(i__main__
DelphiIdentAccess
p5704
(dp5705
g401
S'CreateAxillaryMeristem'
p5706
sg392
(lp5707
(idelphi
DelphiFunctionEndAccess
p5708
(dp5709
g394
(lp5710
(i__main__
DelphiIdentAccess
p5711
(dp5712
g401
S'kDirectionLeft'
p5713
sg392
(lp5714
sbasbasbsg424
(i__main__
DelphiIdentAccess
p5715
(dp5716
g401
S'leftMeristem'
p5717
sg392
(lp5718
sbsba(i__main__
DelphiAssignStatement
p5719
(dp5720
g389
(i__main__
DelphiIdentAccess
p5721
(dp5722
g401
S'CreateAxillaryMeristem'
p5723
sg392
(lp5724
(idelphi
DelphiFunctionEndAccess
p5725
(dp5726
g394
(lp5727
(i__main__
DelphiIdentAccess
p5728
(dp5729
g401
S'kDirectionRight'
p5730
sg392
(lp5731
sbasbasbsg424
(i__main__
DelphiIdentAccess
p5732
(dp5733
g401
S'rightMeristem'
p5734
sg392
(lp5735
sbsba(idelphi
DelphiIfStatement
p5736
(dp5737
g480
(idelphi
DelphiNestedExpressionListAccess
p5738
(dp5739
g392
(lp5740
sg394
(lp5741
(idelphi
DelphiRelOp
p5742
(dp5743
g398
(i__main__
DelphiIdentAccess
p5744
(dp5745
g401
S'plant'
p5746
sg392
(lp5747
(idelphi
DelphiFieldEndAccess
p5748
(dp5749
g411
S'randomNumberGenerator'
p5750
sba(idelphi
DelphiFieldEndAccess
p5751
(dp5752
g411
S'zeroToOne'
p5753
sbasbsg404
(idelphi
DelphiRealValue
p5754
(dp5755
g207
S'0.5'
p5756
sbsg423
S'<'
sbasbsg499
(i__main__
DelphiAssignStatement
p5757
(dp5758
g389
Nsg424
(i__main__
DelphiIdentAccess
p5759
(dp5760
g401
S'rightMeristem'
p5761
sg392
(lp5762
(idelphi
DelphiFieldEndAccess
p5763
(dp5764
g411
S'setIfActive'
p5765
sba(idelphi
DelphiFunctionEndAccess
p5766
(dp5767
g394
(lp5768
(i__main__
DelphiIdentAccess
p5769
(dp5770
g401
S'true'
p5771
sg392
(lp5772
sbasbasbsbsg570
(i__main__
DelphiAssignStatement
p5773
(dp5774
g389
Nsg424
(i__main__
DelphiIdentAccess
p5775
(dp5776
g401
S'leftMeristem'
p5777
sg392
(lp5778
(idelphi
DelphiFieldEndAccess
p5779
(dp5780
g411
S'setIfActive'
p5781
sba(idelphi
DelphiFunctionEndAccess
p5782
(dp5783
g394
(lp5784
(i__main__
DelphiIdentAccess
p5785
(dp5786
g401
S'true'
p5787
sg392
(lp5788
sbasbasbsbsbasbsg570
(idelphi
DelphiCompoundStatement
p5789
(dp5790
g385
(lp5791
(i__main__
DelphiAssignStatement
p5792
(dp5793
g389
(i__main__
DelphiIdentAccess
p5794
(dp5795
g401
S'CreateAxillaryMeristem'
p5796
sg392
(lp5797
(idelphi
DelphiFunctionEndAccess
p5798
(dp5799
g394
(lp5800
(i__main__
DelphiIdentAccess
p5801
(dp5802
g401
S'kDirectionLeft'
p5803
sg392
(lp5804
sbasbasbsg424
(i__main__
DelphiIdentAccess
p5805
(dp5806
g401
S'leftMeristem'
p5807
sg392
(lp5808
sbsba(i__main__
DelphiAssignStatement
p5809
(dp5810
g389
Nsg424
(i__main__
DelphiIdentAccess
p5811
(dp5812
g401
S'leftMeristem'
p5813
sg392
(lp5814
(idelphi
DelphiFieldEndAccess
p5815
(dp5816
g411
S'setIfActive'
p5817
sba(idelphi
DelphiFunctionEndAccess
p5818
(dp5819
g394
(lp5820
(i__main__
DelphiIdentAccess
p5821
(dp5822
g401
S'true'
p5823
sg392
(lp5824
sbasbasbsbasbsbasbsbasbsg570
(idelphi
DelphiCompoundStatement
p5825
(dp5826
g385
(lp5827
(idelphi
DelphiIfStatement
p5828
(dp5829
g480
(i__main__
DelphiIdentAccess
p5830
(dp5831
g401
S'isApical'
p5832
sg392
(lp5833
sbsg499
(idelphi
DelphiCompoundStatement
p5834
(dp5835
g385
(lp5836
(idelphi
DelphiIfStatement
p5837
(dp5838
g480
(idelphi
DelphiRelOp
p5839
(dp5840
g398
(i__main__
DelphiIdentAccess
p5841
(dp5842
g401
S'phytomerAttachedTo'
p5843
sg392
(lp5844
(idelphi
DelphiFieldEndAccess
p5845
(dp5846
g411
S'LeftBranchPlantPart'
p5847
sbasbsg404
(i__main__
DelphiIdentAccess
p5848
(dp5849
g401
S'self'
p5850
sg392
(lp5851
sbsg423
S'='
sbsg499
(idelphi
DelphiIfStatement
p5852
(dp5853
g480
(idelphi
DelphiRelOp
p5854
(dp5855
g398
(i__main__
DelphiIdentAccess
p5856
(dp5857
g401
S'phytomerAttachedTo'
p5858
sg392
(lp5859
(idelphi
DelphiFieldEndAccess
p5860
(dp5861
g411
S'RightBranchPlantPart'
p5862
sbasbsg404
(i__main__
DelphiIdentAccess
p5863
(dp5864
g401
S'self'
p5865
sg392
(lp5866
sbsg423
S'='
sbsg499
(idelphi
DelphiRaiseStatement
p5867
(dp5868
g480
(i__main__
DelphiIdentAccess
p5869
(dp5870
g401
S'Exception'
p5871
sg392
(lp5872
(idelphi
DelphiFieldEndAccess
p5873
(dp5874
g411
S'create'
p5875
sba(idelphi
DelphiFunctionEndAccess
p5876
(dp5877
g394
(lp5878
(idelphi
DelphiStringAccess
p5879
(dp5880
g392
(lp5881
sg207
(idelphi
DelphiStringValue
p5882
(dp5883
g207
S'Problem: Branching incorrect in method PdMeristem.createPhytomer.'
p5884
sbsbasbasbsbsg570
(i__main__
DelphiAssignStatement
p5885
(dp5886
g389
(i__main__
DelphiIdentAccess
p5887
(dp5888
g401
S'newPhytomer'
p5889
sg392
(lp5890
sbsg424
(i__main__
DelphiIdentAccess
p5891
(dp5892
g401
S'phytomerAttachedTo'
p5893
sg392
(lp5894
(idelphi
DelphiFieldEndAccess
p5895
(dp5896
g411
S'RightBranchPlantPart'
p5897
sbasbsbsbsg570
(i__main__
DelphiAssignStatement
p5898
(dp5899
g389
(i__main__
DelphiIdentAccess
p5900
(dp5901
g401
S'newPhytomer'
p5902
sg392
(lp5903
sbsg424
(i__main__
DelphiIdentAccess
p5904
(dp5905
g401
S'phytomerAttachedTo'
p5906
sg392
(lp5907
(idelphi
DelphiFieldEndAccess
p5908
(dp5909
g411
S'LeftBranchPlantPart'
p5910
sbasbsbsba(i__main__
DelphiAssignStatement
p5911
(dp5912
g389
Nsg424
(i__main__
DelphiIdentAccess
p5913
(dp5914
g401
S'self'
p5915
sg392
(lp5916
(idelphi
DelphiFieldEndAccess
p5917
(dp5918
g411
S'setIfApical'
p5919
sba(idelphi
DelphiFunctionEndAccess
p5920
(dp5921
g394
(lp5922
(i__main__
DelphiIdentAccess
p5923
(dp5924
g401
S'true'
p5925
sg392
(lp5926
sbasbasbsbasbsg570
(idelphi
DelphiCompoundStatement
p5927
(dp5928
g385
(lp5929
(i__main__
DelphiAssignStatement
p5930
(dp5931
g389
(i__main__
DelphiIdentAccess
p5932
(dp5933
g401
S'newPhytomer'
p5934
sg392
(lp5935
sbsg424
(i__main__
DelphiIdentAccess
p5936
(dp5937
g401
S'phytomerAttachedTo'
p5938
sg392
(lp5939
(idelphi
DelphiFieldEndAccess
p5940
(dp5941
g411
S'NextPlantPart'
p5942
sbasbsba(idelphi
DelphiIfStatement
p5943
(dp5944
g480
(idelphi
DelphiNestedExpressionListAccess
p5945
(dp5946
g392
(lp5947
sg394
(lp5948
(i__main__
DelphiIdentAccess
p5949
(dp5950
g401
S'plant'
p5951
sg392
(lp5952
(idelphi
DelphiFieldEndAccess
p5953
(dp5954
g411
S'pMeristem'
p5955
sba(idelphi
DelphiFieldEndAccess
p5956
(dp5957
g411
S'branchingIsSympodial'
p5958
sbasbasbsg499
Nsg570
(i__main__
DelphiAssignStatement
p5959
(dp5960
g389
Nsg424
(i__main__
DelphiIdentAccess
p5961
(dp5962
g401
S'self'
p5963
sg392
(lp5964
(idelphi
DelphiFieldEndAccess
p5965
(dp5966
g411
S'setIfActive'
p5967
sba(idelphi
DelphiFunctionEndAccess
p5968
(dp5969
g394
(lp5970
(i__main__
DelphiIdentAccess
p5971
(dp5972
g401
S'false'
p5973
sg392
(lp5974
sbasbasbsbsbasg429
(lp5975
S' axillary '
p5976
asbsba(i__main__
DelphiAssignStatement
p5977
(dp5978
g389
(i__main__
DelphiIdentAccess
p5979
(dp5980
g401
S'newPhytomer'
p5981
sg392
(lp5982
sbsg424
(i__main__
DelphiIdentAccess
p5983
(dp5984
g401
S'self'
p5985
sg392
(lp5986
(idelphi
DelphiFieldEndAccess
p5987
(dp5988
g411
S'phytomerAttachedTo'
p5989
sbasbsg429
(lp5990
S' set up pointers\r'
p5991
asba(i__main__
DelphiAssignStatement
p5992
(dp5993
g389
(i__main__
DelphiIdentAccess
p5994
(dp5995
g401
S'self'
p5996
sg392
(lp5997
sbsg424
(i__main__
DelphiIdentAccess
p5998
(dp5999
g401
S'self'
p6000
sg392
(lp6001
(idelphi
DelphiFieldEndAccess
p6002
(dp6003
g411
S'phytomerAttachedTo'
p6004
sba(idelphi
DelphiFieldEndAccess
p6005
(dp6006
g411
S'NextPlantPart'
p6007
sbasbsba(idelphi
DelphiIfStatement
p6008
(dp6009
g480
(idelphi
DelphiRelOp
p6010
(dp6011
g398
(i__main__
DelphiIdentAccess
p6012
(dp6013
g401
S'plant'
p6014
sg392
(lp6015
(idelphi
DelphiFieldEndAccess
p6016
(dp6017
g411
S'pMeristem'
p6018
sba(idelphi
DelphiFieldEndAccess
p6019
(dp6020
g411
S'branchingAndLeafArrangement'
p6021
sbasbsg404
(i__main__
DelphiIdentAccess
p6022
(dp6023
g401
S'kArrangementAlternate'
p6024
sg392
(lp6025
sbsg423
S'='
sbsg499
(idelphi
DelphiCompoundStatement
p6026
(dp6027
g385
(lp6028
(i__main__
DelphiAssignStatement
p6029
(dp6030
g389
(i__main__
DelphiIdentAccess
p6031
(dp6032
g401
S'CreateAxillaryMeristem'
p6033
sg392
(lp6034
(idelphi
DelphiFunctionEndAccess
p6035
(dp6036
g394
(lp6037
(i__main__
DelphiIdentAccess
p6038
(dp6039
g401
S'kDirectionLeft'
p6040
sg392
(lp6041
sbasbasbsg424
(i__main__
DelphiIdentAccess
p6042
(dp6043
g401
S'leftMeristem'
p6044
sg392
(lp6045
sbsba(i__main__
DelphiAssignStatement
p6046
(dp6047
g389
(i__main__
DelphiIdentAccess
p6048
(dp6049
g401
S'CreateAxillaryMeristem'
p6050
sg392
(lp6051
(idelphi
DelphiFunctionEndAccess
p6052
(dp6053
g394
(lp6054
(i__main__
DelphiIdentAccess
p6055
(dp6056
g401
S'kDirectionRight'
p6057
sg392
(lp6058
sbasbasbsg424
(i__main__
DelphiIdentAccess
p6059
(dp6060
g401
S'rightMeristem'
p6061
sg392
(lp6062
sbsba(idelphi
DelphiIfStatement
p6063
(dp6064
g480
(i__main__
DelphiIdentAccess
p6065
(dp6066
g401
S'plant'
p6067
sg392
(lp6068
(idelphi
DelphiFieldEndAccess
p6069
(dp6070
g411
S'pMeristem'
p6071
sba(idelphi
DelphiFieldEndAccess
p6072
(dp6073
g411
S'branchingIsSympodial'
p6074
sbasbsg499
Nsg570
(idelphi
DelphiIfStatement
p6075
(dp6076
g480
(idelphi
DelphiNestedExpressionListAccess
p6077
(dp6078
g392
(lp6079
sg394
(lp6080
(idelphi
DelphiRelOp
p6081
(dp6082
g398
(i__main__
DelphiIdentAccess
p6083
(dp6084
g401
S'plant'
p6085
sg392
(lp6086
(idelphi
DelphiFieldEndAccess
p6087
(dp6088
g411
S'randomNumberGenerator'
p6089
sba(idelphi
DelphiFieldEndAccess
p6090
(dp6091
g411
S'zeroToOne'
p6092
sbasbsg404
(idelphi
DelphiRealValue
p6093
(dp6094
g207
S'0.5'
p6095
sbsg423
S'<'
sbasbsg499
(i__main__
DelphiAssignStatement
p6096
(dp6097
g389
Nsg424
(i__main__
DelphiIdentAccess
p6098
(dp6099
g401
S'rightMeristem'
p6100
sg392
(lp6101
(idelphi
DelphiFieldEndAccess
p6102
(dp6103
g411
S'setIfActive'
p6104
sba(idelphi
DelphiFunctionEndAccess
p6105
(dp6106
g394
(lp6107
(i__main__
DelphiIdentAccess
p6108
(dp6109
g401
S'true'
p6110
sg392
(lp6111
sbasbasbsbsg570
(i__main__
DelphiAssignStatement
p6112
(dp6113
g389
Nsg424
(i__main__
DelphiIdentAccess
p6114
(dp6115
g401
S'leftMeristem'
p6116
sg392
(lp6117
(idelphi
DelphiFieldEndAccess
p6118
(dp6119
g411
S'setIfActive'
p6120
sba(idelphi
DelphiFunctionEndAccess
p6121
(dp6122
g394
(lp6123
(i__main__
DelphiIdentAccess
p6124
(dp6125
g401
S'true'
p6126
sg392
(lp6127
sbasbasbsbsbsbasbsg570
(idelphi
DelphiCompoundStatement
p6128
(dp6129
g385
(lp6130
(i__main__
DelphiAssignStatement
p6131
(dp6132
g389
(i__main__
DelphiIdentAccess
p6133
(dp6134
g401
S'CreateAxillaryMeristem'
p6135
sg392
(lp6136
(idelphi
DelphiFunctionEndAccess
p6137
(dp6138
g394
(lp6139
(i__main__
DelphiIdentAccess
p6140
(dp6141
g401
S'kDirectionLeft'
p6142
sg392
(lp6143
sbasbasbsg424
(i__main__
DelphiIdentAccess
p6144
(dp6145
g401
S'leftMeristem'
p6146
sg392
(lp6147
sbsba(idelphi
DelphiIfStatement
p6148
(dp6149
g480
(i__main__
DelphiIdentAccess
p6150
(dp6151
g401
S'plant'
p6152
sg392
(lp6153
(idelphi
DelphiFieldEndAccess
p6154
(dp6155
g411
S'pMeristem'
p6156
sba(idelphi
DelphiFieldEndAccess
p6157
(dp6158
g411
S'branchingIsSympodial'
p6159
sbasbsg499
Nsg570
(i__main__
DelphiAssignStatement
p6160
(dp6161
g389
Nsg424
(i__main__
DelphiIdentAccess
p6162
(dp6163
g401
S'leftMeristem'
p6164
sg392
(lp6165
(idelphi
DelphiFieldEndAccess
p6166
(dp6167
g411
S'setIfActive'
p6168
sba(idelphi
DelphiFunctionEndAccess
p6169
(dp6170
g394
(lp6171
(i__main__
DelphiIdentAccess
p6172
(dp6173
g401
S'true'
p6174
sg392
(lp6175
sbasbasbsbsbasbsbasg429
(lp6176
S' phytomerAttachedTo = nil (means this is first phytomer)\r'
p6177
asbsbasbsg434
(lp6178
(i__main__
DelphiVarSection
p6179
(dp6180
g697
I0
sg698
(lp6181
(idelphi
DelphiVarDecl
p6182
(dp6183
g702
Nsg703
(lp6184
S'newPhytomer'
p6185
asg57
(i__main__
DelphiNamedType
p6186
(dp6187
g35
S'PdInternode'
p6188
sg61
g1
sg62
Nsbsba(idelphi
DelphiVarDecl
p6189
(dp6190
g702
Nsg703
(lp6191
S'leftMeristem'
p6192
aS'rightMeristem'
p6193
asg57
(i__main__
DelphiNamedType
p6194
(dp6195
g35
S'PdMeristem'
p6196
sg61
g1
sg62
NsbsbasbasbsbsS'createaxillarymeristem'
p6197
(i__main__
DelphiMethodImplementation
p6198
(dp6199
g363
g260
sg21
g262
sg29
(lp6200
(i__main__
DelphiFormalParameter
p6201
(dp6202
g53
Nsg54
(lp6203
S'direction'
p6204
asg57
(i__main__
DelphiPrimitiveType
p6205
(dp6206
g35
g135
sbsg63
Nsbasg365
(lp6207
sg367
(lp6208
sg369
(lp6209
g371
ag6204
asg372
(dp6210
g6204
g6205
ssg31
S'PdMeristem'
p6211
sg32
(i__main__
DelphiNamedType
p6212
(dp6213
g35
S'PdMeristem'
p6214
sg61
g1
sg62
Nsbsg377
(lp6215
sg37
I0
sg38
g39
sg379
(i__main__
DelphiBlock
p6216
(dp6217
g382
(idelphi
DelphiCompoundStatement
p6218
(dp6219
g385
(lp6220
(i__main__
DelphiAssignStatement
p6221
(dp6222
g389
(i__main__
DelphiIdentAccess
p6223
(dp6224
g401
S'PdMeristem'
p6225
sg392
(lp6226
(idelphi
DelphiFieldEndAccess
p6227
(dp6228
g411
S'create'
p6229
sbasbsg424
(i__main__
DelphiIdentAccess
p6230
(dp6231
g401
S'newMeristem'
p6232
sg392
(lp6233
sbsg429
(lp6234
S' create new axillary meristem attached to the same phytomer as this apical meristem is attached to.\r'
p6235
asba(i__main__
DelphiAssignStatement
p6236
(dp6237
g389
Nsg424
(i__main__
DelphiIdentAccess
p6238
(dp6239
g401
S'newMeristem'
p6240
sg392
(lp6241
(idelphi
DelphiFieldEndAccess
p6242
(dp6243
g411
S'InitializeWithPlant'
p6244
sba(idelphi
DelphiFunctionEndAccess
p6245
(dp6246
g394
(lp6247
(i__main__
DelphiIdentAccess
p6248
(dp6249
g401
S'plant'
p6250
sg392
(lp6251
sbasbasbsba(i__main__
DelphiAssignStatement
p6252
(dp6253
g389
Nsg424
(i__main__
DelphiIdentAccess
p6254
(dp6255
g401
S'newMeristem'
p6256
sg392
(lp6257
(idelphi
DelphiFieldEndAccess
p6258
(dp6259
g411
S'setIfApical'
p6260
sba(idelphi
DelphiFunctionEndAccess
p6261
(dp6262
g394
(lp6263
(i__main__
DelphiIdentAccess
p6264
(dp6265
g401
S'false'
p6266
sg392
(lp6267
sbasbasbsba(i__main__
DelphiAssignStatement
p6268
(dp6269
g389
(i__main__
DelphiIdentAccess
p6270
(dp6271
g401
S'phytomerAttachedTo'
p6272
sg392
(lp6273
sbsg424
(i__main__
DelphiIdentAccess
p6274
(dp6275
g401
S'newMeristem'
p6276
sg392
(lp6277
(idelphi
DelphiFieldEndAccess
p6278
(dp6279
g411
S'PhytomerAttachedTo'
p6280
sbasbsba(idelphi
DelphiIfStatement
p6281
(dp6282
g480
(idelphi
DelphiNestedExpressionListAccess
p6283
(dp6284
g392
(lp6285
sg394
(lp6286
(idelphi
DelphiRelOp
p6287
(dp6288
g398
(i__main__
DelphiIdentAccess
p6289
(dp6290
g401
S'direction'
p6291
sg392
(lp6292
sbsg404
(i__main__
DelphiIdentAccess
p6293
(dp6294
g401
S'kDirectionLeft'
p6295
sg392
(lp6296
sbsg423
S'='
sbasbsg499
(i__main__
DelphiAssignStatement
p6297
(dp6298
g389
(i__main__
DelphiIdentAccess
p6299
(dp6300
g401
S'newMeristem'
p6301
sg392
(lp6302
sbsg424
(i__main__
DelphiIdentAccess
p6303
(dp6304
g401
S'phytomerAttachedTo'
p6305
sg392
(lp6306
(idelphi
DelphiFieldEndAccess
p6307
(dp6308
g411
S'RightBranchPlantPart'
p6309
sbasbsbsg570
(i__main__
DelphiAssignStatement
p6310
(dp6311
g389
(i__main__
DelphiIdentAccess
p6312
(dp6313
g401
S'newMeristem'
p6314
sg392
(lp6315
sbsg424
(i__main__
DelphiIdentAccess
p6316
(dp6317
g401
S'phytomerAttachedTo'
p6318
sg392
(lp6319
(idelphi
DelphiFieldEndAccess
p6320
(dp6321
g411
S'LeftBranchPlantPart'
p6322
sbasbsbsba(i__main__
DelphiAssignStatement
p6323
(dp6324
g389
(i__main__
DelphiIdentAccess
p6325
(dp6326
g401
S'newMeristem'
p6327
sg392
(lp6328
sbsg424
(i__main__
DelphiIdentAccess
p6329
(dp6330
g401
S'result'
p6331
sg392
(lp6332
sbsbasbsg434
(lp6333
(i__main__
DelphiVarSection
p6334
(dp6335
g697
I0
sg698
(lp6336
(idelphi
DelphiVarDecl
p6337
(dp6338
g702
Nsg703
(lp6339
S'newMeristem'
p6340
asg57
(i__main__
DelphiNamedType
p6341
(dp6342
g35
S'PdMeristem'
p6343
sg61
g1
sg62
NsbsbasbasbsbsS'contemplatebranching'
p6344
(i__main__
DelphiMethodImplementation
p6345
(dp6346
g363
g274
sg21
g276
sg29
(lp6347
sg365
(lp6348
sg367
(lp6349
sg369
(lp6350
g371
asg372
(dp6351
sg31
S'PdMeristem'
p6352
sg32
(i__main__
DelphiPrimitiveType
p6353
(dp6354
g35
g36
sbsg377
(lp6355
sg37
I0
sg38
g39
sg379
(i__main__
DelphiBlock
p6356
(dp6357
g382
(idelphi
DelphiCompoundStatement
p6358
(dp6359
g385
(lp6360
(idelphi
DelphiIfStatement
p6361
(dp6362
g480
(idelphi
DelphiRelOp
p6363
(dp6364
g398
(i__main__
DelphiIdentAccess
p6365
(dp6366
g401
S'plant'
p6367
sg392
(lp6368
(idelphi
DelphiFieldEndAccess
p6369
(dp6370
g411
S'pMeristem'
p6371
sba(idelphi
DelphiFieldEndAccess
p6372
(dp6373
g411
S'branchingIndex'
p6374
sbasbsg404
(idelphi
DelphiIntegerValue
p6375
(dp6376
g207
S'0'
sbsg423
S'='
sbsg499
Nsg570
(idelphi
DelphiCompoundStatement
p6377
(dp6378
g385
(lp6379
(i__main__
DelphiAssignStatement
p6380
(dp6381
g389
(i__main__
DelphiIdentAccess
p6382
(dp6383
g401
S'false'
p6384
sg392
(lp6385
sbsg424
(i__main__
DelphiIdentAccess
p6386
(dp6387
g401
S'result'
p6388
sg392
(lp6389
sbsg429
(lp6390
S'Decide if this meristem is going to become active and branch (start demanding photosynthate).\r'
p6391
aS'This method is called once per day to create a large pool of random tests, each with\r'
p6392
aS'very small probability, leading to a small number of occurrences with small variation.\r'
p6393
asba(i__main__
DelphiExitStatement
p6394
(dp6395
g1423
g6345
sbasbsba(idelphi
DelphiIfStatement
p6396
(dp6397
g480
(idelphi
DelphiNot
p6398
(dp6399
g992
(i__main__
DelphiIdentAccess
p6400
(dp6401
g401
S'plant'
p6402
sg392
(lp6403
(idelphi
DelphiFieldEndAccess
p6404
(dp6405
g411
S'pMeristem'
p6406
sba(idelphi
DelphiFieldEndAccess
p6407
(dp6408
g411
S'secondaryBranchingIsAllowed'
p6409
sbasbsbsg499
Nsg570
(idelphi
DelphiCompoundStatement
p6410
(dp6411
g385
(lp6412
(i__main__
DelphiAssignStatement
p6413
(dp6414
g389
(i__main__
DelphiIdentAccess
p6415
(dp6416
g401
S'phytomerAttachedTo'
p6417
sg392
(lp6418
(idelphi
DelphiFieldEndAccess
p6419
(dp6420
g411
S'firstPhytomerOnBranch'
p6421
sbasbsg424
(i__main__
DelphiIdentAccess
p6422
(dp6423
g401
S'firstOnBranch'
p6424
sg392
(lp6425
sbsba(idelphi
DelphiIfStatement
p6426
(dp6427
g480
(idelphi
DelphiNestedExpressionListAccess
p6428
(dp6429
g392
(lp6430
sg394
(lp6431
(idelphi
DelphiRelOp
p6432
(dp6433
g398
(i__main__
DelphiIdentAccess
p6434
(dp6435
g401
S'firstOnBranch'
p6436
sg392
(lp6437
sbsg404
(i__main__
DelphiIdentAccess
p6438
(dp6439
g401
S'plant'
p6440
sg392
(lp6441
(idelphi
DelphiFieldEndAccess
p6442
(dp6443
g411
S'firstPhytomer'
p6444
sbasbsg423
g1222
sbasbsg499
Nsg570
(idelphi
DelphiCompoundStatement
p6445
(dp6446
g385
(lp6447
(i__main__
DelphiAssignStatement
p6448
(dp6449
g389
(i__main__
DelphiIdentAccess
p6450
(dp6451
g401
S'false'
p6452
sg392
(lp6453
sbsg424
(i__main__
DelphiIdentAccess
p6454
(dp6455
g401
S'result'
p6456
sg392
(lp6457
sbsba(i__main__
DelphiExitStatement
p6458
(dp6459
g1423
g6345
sbasbsbasbsba(idelphi
DelphiIfStatement
p6460
(dp6461
g480
(idelphi
DelphiRelOp
p6462
(dp6463
g398
(i__main__
DelphiIdentAccess
p6464
(dp6465
g401
S'plant'
p6466
sg392
(lp6467
(idelphi
DelphiFieldEndAccess
p6468
(dp6469
g411
S'pMeristem'
p6470
sba(idelphi
DelphiFieldEndAccess
p6471
(dp6472
g411
S'branchingIndex'
p6473
sbasbsg404
(idelphi
DelphiIntegerValue
p6474
(dp6475
g207
S'100'
p6476
sbsg423
S'='
sbsg499
Nsg570
(idelphi
DelphiCompoundStatement
p6477
(dp6478
g385
(lp6479
(i__main__
DelphiAssignStatement
p6480
(dp6481
g389
(i__main__
DelphiIdentAccess
p6482
(dp6483
g401
S'true'
p6484
sg392
(lp6485
sbsg424
(i__main__
DelphiIdentAccess
p6486
(dp6487
g401
S'result'
p6488
sg392
(lp6489
sbsba(i__main__
DelphiExitStatement
p6490
(dp6491
g1423
g6345
sbasbsba(idelphi
DelphiIfStatement
p6492
(dp6493
g480
(idelphi
DelphiRelOp
p6494
(dp6495
g398
(i__main__
DelphiIdentAccess
p6496
(dp6497
g401
S'phytomerAttachedTo'
p6498
sg392
(lp6499
(idelphi
DelphiFieldEndAccess
p6500
(dp6501
g411
S'distanceFromApicalMeristem'
p6502
sbasbsg404
(i__main__
DelphiIdentAccess
p6503
(dp6504
g401
S'plant'
p6505
sg392
(lp6506
(idelphi
DelphiFieldEndAccess
p6507
(dp6508
g411
S'pMeristem'
p6509
sba(idelphi
DelphiFieldEndAccess
p6510
(dp6511
g411
S'branchingDistance'
p6512
sbasbsg423
S'<'
sbsg499
(idelphi
DelphiCompoundStatement
p6513
(dp6514
g385
(lp6515
(i__main__
DelphiAssignStatement
p6516
(dp6517
g389
(i__main__
DelphiIdentAccess
p6518
(dp6519
g401
S'plant'
p6520
sg392
(lp6521
(idelphi
DelphiFieldEndAccess
p6522
(dp6523
g411
S'pMeristem'
p6524
sba(idelphi
DelphiFieldEndAccess
p6525
(dp6526
g411
S'branchingIndex'
p6527
sbasbsg424
(i__main__
DelphiIdentAccess
p6528
(dp6529
g401
S'decisionPercent'
p6530
sg392
(lp6531
sbsba(i__main__
DelphiAssignStatement
p6532
(dp6533
g389
(i__main__
DelphiIdentAccess
p6534
(dp6535
g401
S'plant'
p6536
sg392
(lp6537
(idelphi
DelphiFieldEndAccess
p6538
(dp6539
g411
S'randomNumberGenerator'
p6540
sba(idelphi
DelphiFieldEndAccess
p6541
(dp6542
g411
S'randomPercent'
p6543
sbasbsg424
(i__main__
DelphiIdentAccess
p6544
(dp6545
g401
S'randomPercent'
p6546
sg392
(lp6547
sbsba(i__main__
DelphiAssignStatement
p6548
(dp6549
g389
(idelphi
DelphiRelOp
p6550
(dp6551
g398
(i__main__
DelphiIdentAccess
p6552
(dp6553
g401
S'randomPercent'
p6554
sg392
(lp6555
sbsg404
(i__main__
DelphiIdentAccess
p6556
(dp6557
g401
S'decisionPercent'
p6558
sg392
(lp6559
sbsg423
S'<'
sbsg424
(i__main__
DelphiIdentAccess
p6560
(dp6561
g401
S'result'
p6562
sg392
(lp6563
sbsbasbsg570
(idelphi
DelphiCompoundStatement
p6564
(dp6565
g385
(lp6566
(idelphi
DelphiIfStatement
p6567
(dp6568
g480
(idelphi
DelphiRelOp
p6569
(dp6570
g398
(i__main__
DelphiIdentAccess
p6571
(dp6572
g401
S'plant'
p6573
sg392
(lp6574
(idelphi
DelphiFieldEndAccess
p6575
(dp6576
g411
S'pMeristem'
p6577
sba(idelphi
DelphiFieldEndAccess
p6578
(dp6579
g411
S'branchingDistance'
p6580
sbasbsg404
(idelphi
DelphiIntegerValue
p6581
(dp6582
g207
S'0'
sbsg423
S'='
sbsg499
(i__main__
DelphiAssignStatement
p6583
(dp6584
g389
(idelphi
DelphiMulOp
p6585
(dp6586
g507
(i__main__
DelphiIdentAccess
p6587
(dp6588
g401
S'min'
p6589
sg392
(lp6590
(idelphi
DelphiFunctionEndAccess
p6591
(dp6592
g394
(lp6593
(idelphi
DelphiRealValue
p6594
(dp6595
g207
S'1.0'
p6596
sba(i__main__
DelphiIdentAccess
p6597
(dp6598
g401
S'max'
p6599
sg392
(lp6600
(idelphi
DelphiFunctionEndAccess
p6601
(dp6602
g394
(lp6603
(idelphi
DelphiRealValue
p6604
(dp6605
g207
S'0.0'
p6606
sba(i__main__
DelphiIdentAccess
p6607
(dp6608
g401
S'safedivExcept'
p6609
sg392
(lp6610
(idelphi
DelphiFunctionEndAccess
p6611
(dp6612
g394
(lp6613
(i__main__
DelphiIdentAccess
p6614
(dp6615
g401
S'phytomerAttachedTo'
p6616
sg392
(lp6617
(idelphi
DelphiFieldEndAccess
p6618
(dp6619
g411
S'distanceFromApicalMeristem'
p6620
sbasba(i__main__
DelphiIdentAccess
p6621
(dp6622
g401
S'plant'
p6623
sg392
(lp6624
(idelphi
DelphiFieldEndAccess
p6625
(dp6626
g411
S'pMeristem'
p6627
sba(idelphi
DelphiFieldEndAccess
p6628
(dp6629
g411
S'branchingDistance'
p6630
sbasba(idelphi
DelphiIntegerValue
p6631
(dp6632
g207
S'0'
sbasbasbasbasbasbasbsg518
S'*'
sg519
(i__main__
DelphiIdentAccess
p6633
(dp6634
g401
S'plant'
p6635
sg392
(lp6636
(idelphi
DelphiFieldEndAccess
p6637
(dp6638
g411
S'pMeristem'
p6639
sba(idelphi
DelphiFieldEndAccess
p6640
(dp6641
g411
S'branchingIndex'
p6642
sbasbsbsg424
(i__main__
DelphiIdentAccess
p6643
(dp6644
g401
S'decisionPercent'
p6645
sg392
(lp6646
sbsbsg570
(i__main__
DelphiAssignStatement
p6647
(dp6648
g389
(i__main__
DelphiIdentAccess
p6649
(dp6650
g401
S'plant'
p6651
sg392
(lp6652
(idelphi
DelphiFieldEndAccess
p6653
(dp6654
g411
S'pMeristem'
p6655
sba(idelphi
DelphiFieldEndAccess
p6656
(dp6657
g411
S'branchingIndex'
p6658
sbasbsg424
(i__main__
DelphiIdentAccess
p6659
(dp6660
g401
S'decisionPercent'
p6661
sg392
(lp6662
sbsbsba(i__main__
DelphiAssignStatement
p6663
(dp6664
g389
(i__main__
DelphiIdentAccess
p6665
(dp6666
g401
S'plant'
p6667
sg392
(lp6668
(idelphi
DelphiFieldEndAccess
p6669
(dp6670
g411
S'randomNumberGenerator'
p6671
sba(idelphi
DelphiFieldEndAccess
p6672
(dp6673
g411
S'randomPercent'
p6674
sbasbsg424
(i__main__
DelphiIdentAccess
p6675
(dp6676
g401
S'randomPercent'
p6677
sg392
(lp6678
sbsba(i__main__
DelphiAssignStatement
p6679
(dp6680
g389
(idelphi
DelphiRelOp
p6681
(dp6682
g398
(i__main__
DelphiIdentAccess
p6683
(dp6684
g401
S'randomPercent'
p6685
sg392
(lp6686
sbsg404
(i__main__
DelphiIdentAccess
p6687
(dp6688
g401
S'decisionPercent'
p6689
sg392
(lp6690
sbsg423
S'<'
sbsg424
(i__main__
DelphiIdentAccess
p6691
(dp6692
g401
S'result'
p6693
sg392
(lp6694
sbsbasbsbasbsg434
(lp6695
(i__main__
DelphiVarSection
p6696
(dp6697
g697
I0
sg698
(lp6698
(idelphi
DelphiVarDecl
p6699
(dp6700
g702
Nsg703
(lp6701
S'decisionPercent'
p6702
aS'randomPercent'
p6703
asg57
(i__main__
DelphiPrimitiveType
p6704
(dp6705
g35
g89
sbsba(idelphi
DelphiVarDecl
p6706
(dp6707
g702
Nsg703
(lp6708
S'firstOnBranch'
p6709
asg57
(i__main__
DelphiNamedType
p6710
(dp6711
g35
S'PdInternode'
p6712
sg61
g1
sg62
NsbsbasbasbsbsS'decideifactivemale'
p6713
(i__main__
DelphiMethodImplementation
p6714
(dp6715
g363
g281
sg21
g283
sg29
(lp6716
sg365
(lp6717
sg367
(lp6718
sg369
(lp6719
g371
asg372
(dp6720
sg31
S'PdMeristem'
p6721
sg32
(i__main__
DelphiPrimitiveType
p6722
(dp6723
g35
g36
sbsg377
(lp6724
sg37
I0
sg38
g39
sg379
(i__main__
DelphiBlock
p6725
(dp6726
g382
(idelphi
DelphiCompoundStatement
p6727
(dp6728
g385
(lp6729
(i__main__
DelphiAssignStatement
p6730
(dp6731
g389
(idelphi
DelphiNestedExpressionListAccess
p6732
(dp6733
g392
(lp6734
sg394
(lp6735
(idelphi
DelphiRelOp
p6736
(dp6737
g398
(i__main__
DelphiIdentAccess
p6738
(dp6739
g401
S'isApical'
p6740
sg392
(lp6741
sbsg404
(i__main__
DelphiIdentAccess
p6742
(dp6743
g401
S'plant'
p6744
sg392
(lp6745
(idelphi
DelphiFieldEndAccess
p6746
(dp6747
g411
S'pInflor'
p6748
sba(idelphi
DelphiArrayEndAccess
p6749
(dp6750
g394
(lp6751
(i__main__
DelphiIdentAccess
p6752
(dp6753
g401
S'kGenderMale'
p6754
sg392
(lp6755
sbasba(idelphi
DelphiFieldEndAccess
p6756
(dp6757
g411
S'isTerminal'
p6758
sbasbsg423
S'='
sbasbsg424
(i__main__
DelphiIdentAccess
p6759
(dp6760
g401
S'result'
p6761
sg392
(lp6762
sbsg429
(lp6763
S'For the case of separate male and female flowers, decide if this meristem will be able to create\r'
p6764
aS'  a male inflorescence. Called by decideReproductiveGenderAndActivity.'
p6765
asbasbsg434
(lp6766
sbsbsS'newwithplant'
p6767
(i__main__
DelphiMethodImplementation
p6768
(dp6769
g363
g288
sg21
g290
sg29
(lp6770
(i__main__
DelphiFormalParameter
p6771
(dp6772
g53
Nsg54
(lp6773
S'aPlant'
p6774
asg57
(i__main__
DelphiNamedType
p6775
(dp6776
g35
S'PdPlant'
p6777
sg61
g1
sg62
Nsbsg63
Nsbasg365
(lp6778
sg367
(lp6779
sg369
(lp6780
g371
ag6774
asg372
(dp6781
g6774
g6775
ssg31
S'PdMeristem'
p6782
sg32
Nsg377
(lp6783
sg37
I0
sg38
g299
sg379
(i__main__
DelphiBlock
p6784
(dp6785
g382
(idelphi
DelphiCompoundStatement
p6786
(dp6787
g385
(lp6788
(i__main__
DelphiAssignStatement
p6789
(dp6790
g389
Nsg424
(i__main__
DelphiIdentAccess
p6791
(dp6792
g401
S'self'
p6793
sg392
(lp6794
(idelphi
DelphiFieldEndAccess
p6795
(dp6796
g411
S'create'
p6797
sbasbsba(i__main__
DelphiAssignStatement
p6798
(dp6799
g389
Nsg424
(i__main__
DelphiIdentAccess
p6800
(dp6801
g401
S'self'
p6802
sg392
(lp6803
(idelphi
DelphiFieldEndAccess
p6804
(dp6805
g411
S'InitializeWithPlant'
p6806
sba(idelphi
DelphiFunctionEndAccess
p6807
(dp6808
g394
(lp6809
(i__main__
DelphiIdentAccess
p6810
(dp6811
g401
S'aPlant'
p6812
sg392
(lp6813
sbasbasbsbasbsg434
(lp6814
sbsbssS'propertyDeclarations'
p6815
(dp6816
sS'variableNamesInDeclaredOrder'
p6817
(lp6818
g12
ag18
ag20
ag10
ag16
ag14
asbasS'includedUnits'
p6819
NsS'implementationUses'
p6820
(lp6821
S'SysUtils'
p6822
aS'Dialogs'
p6823
aS'Classes'
p6824
aS'udebug'
p6825
aS'uturtle'
p6826
aS'u3dexport'
p6827
aS'udomain'
p6828
aS'utdo'
p6829
aS'umath'
p6830
aS'uinflor'
p6831
aS'uleaf'
p6832
aS'uclasses'
p6833
aS'usupport'
p6834
asg21
S'umerist'
p6835
sS'constSections'
p6836
(lp6837
sS'globalsInProperCase'
p6838
NsS'interfaceUses'
p6839
(lp6840
S'delphi_compatability'
p6841
aS'WinProcs'
p6842
aS'WinTypes'
p6843
aS'upart'
p6844
aS'uintern'
p6845
aS'uplant'
p6846
aS'ufiler'
p6847
aS'utravers'
p6848
asS'finalCommentToken'
p6849
(i__main__
PassStatement
p6850
(dp6851
g434
(lp6852
sbsS'varSections'
p6853
(lp6854
sS'globals'
p6855
NsS'originalFileName'
p6856
S'../../PlantStudioInPython/converted_source/used/umerist.pas'
p6857
sS'proceduralImplementations'
p6858
(dp6859
sS'fileName'
p6860
S'/Users/pdf/Documents/workspace/PlantStudioInPython/converted_source/used/umerist.pas'
p6861
sS'proceduralDeclarations'
p6862
(dp6863
sS'types'
p6864
(dp6865
S'pdmeristem'
p6866
g5
ssb.