(i__main__
DelphiUnit
p1
(dp2
S'sectionsInOrderDefined'
p3
(lp4
(i__main__
DelphiConstSection
p5
(dp6
S'constDeclList'
p7
(lp8
(idelphi
DelphiConstDeclaration
p9
(dp10
S'constExpression'
p11
(idelphi
DelphiIntegerValue
p12
(dp13
S'string'
p14
S'0'
sbsS'ident'
p15
S'kFieldUndefined'
p16
sS'theType'
p17
(idelphi
DelphiPrimitiveType
p18
(dp19
S'typeName'
p20
S'UNDEFINED_NEEDS_CALCULATION'
p21
sbsba(idelphi
DelphiConstDeclaration
p22
(dp23
g11
(idelphi
DelphiIntegerValue
p24
(dp25
g14
S'1'
sbsg15
S'kFieldFloat'
p26
sg17
(idelphi
DelphiPrimitiveType
p27
(dp28
g20
g21
sbsba(idelphi
DelphiConstDeclaration
p29
(dp30
g11
(idelphi
DelphiIntegerValue
p31
(dp32
g14
S'2'
sbsg15
S'kFieldSmallint'
p33
sg17
(idelphi
DelphiPrimitiveType
p34
(dp35
g20
g21
sbsba(idelphi
DelphiConstDeclaration
p36
(dp37
g11
(idelphi
DelphiIntegerValue
p38
(dp39
g14
S'3'
sbsg15
S'kFieldColor'
p40
sg17
(idelphi
DelphiPrimitiveType
p41
(dp42
g20
g21
sbsba(idelphi
DelphiConstDeclaration
p43
(dp44
g11
(idelphi
DelphiIntegerValue
p45
(dp46
g14
S'4'
sbsg15
S'kFieldBoolean'
p47
sg17
(idelphi
DelphiPrimitiveType
p48
(dp49
g20
g21
sbsba(idelphi
DelphiConstDeclaration
p50
(dp51
g11
(idelphi
DelphiIntegerValue
p52
(dp53
g14
S'5'
sbsg15
S'kFieldThreeDObject'
p54
sg17
(idelphi
DelphiPrimitiveType
p55
(dp56
g20
g21
sbsba(idelphi
DelphiConstDeclaration
p57
(dp58
g11
(idelphi
DelphiIntegerValue
p59
(dp60
g14
S'6'
sbsg15
S'kFieldEnumeratedList'
p61
sg17
(idelphi
DelphiPrimitiveType
p62
(dp63
g20
g21
sbsba(idelphi
DelphiConstDeclaration
p64
(dp65
g11
(idelphi
DelphiIntegerValue
p66
(dp67
g14
S'7'
sbsg15
S'kFieldHeader'
p68
sg17
(idelphi
DelphiPrimitiveType
p69
(dp70
g20
g21
sbsba(idelphi
DelphiConstDeclaration
p71
(dp72
g11
(idelphi
DelphiIntegerValue
p73
(dp74
g14
S'8'
sbsg15
S'kFieldLongint'
p75
sg17
(idelphi
DelphiPrimitiveType
p76
(dp77
g20
g21
sbsba(idelphi
DelphiConstDeclaration
p78
(dp79
g11
(idelphi
DelphiIntegerValue
p80
(dp81
g14
S'0'
sbsg15
S'kIndexTypeUndefined'
p82
sg17
(idelphi
DelphiPrimitiveType
p83
(dp84
g20
g21
sbsba(idelphi
DelphiConstDeclaration
p85
(dp86
g11
(idelphi
DelphiIntegerValue
p87
(dp88
g14
S'1'
sbsg15
S'kIndexTypeNone'
p89
sg17
(idelphi
DelphiPrimitiveType
p90
(dp91
g20
g21
sbsba(idelphi
DelphiConstDeclaration
p92
(dp93
g11
(idelphi
DelphiIntegerValue
p94
(dp95
g14
S'3'
sbsg15
S'kIndexTypeSCurve'
p96
sg17
(idelphi
DelphiPrimitiveType
p97
(dp98
g20
g21
sbsba(idelphi
DelphiConstDeclaration
p99
(dp100
g11
(idelphi
DelphiIntegerValue
p101
(dp102
g14
S'0'
sbsg15
S'kTransferTypeUndefined'
p103
sg17
(idelphi
DelphiPrimitiveType
p104
(dp105
g20
g21
sbsba(idelphi
DelphiConstDeclaration
p106
(dp107
g11
(idelphi
DelphiIntegerValue
p108
(dp109
g14
S'1'
sbsg15
S'kTransferTypeMFD'
p110
sg17
(idelphi
DelphiPrimitiveType
p111
(dp112
g20
g21
sbsba(idelphi
DelphiConstDeclaration
p113
(dp114
g11
(idelphi
DelphiIntegerValue
p115
(dp116
g14
S'2'
sbsg15
S'kTransferTypeGetSetSCurve'
p117
sg17
(idelphi
DelphiPrimitiveType
p118
(dp119
g20
g21
sbsba(idelphi
DelphiConstDeclaration
p120
(dp121
g11
(idelphi
DelphiIntegerValue
p122
(dp123
g14
S'3'
sbsg15
S'kTransferTypeObject3D'
p124
sg17
(idelphi
DelphiPrimitiveType
p125
(dp126
g20
g21
sbsba(idelphi
DelphiConstDeclaration
p127
(dp128
g11
(idelphi
DelphiSignedValue
p129
(dp130
S'value'
p131
(idelphi
DelphiIntegerValue
p132
(dp133
g14
S'1'
sbsS'sign'
p134
S'-'
sbsg15
S'kNotArray'
p135
sg17
(idelphi
DelphiPrimitiveType
p136
(dp137
g20
g21
sbsbasS'atTopLevel'
p138
I1
sba(i__main__
DelphiClass
p139
(dp140
S'variableNamesInProperCase'
p141
(dp142
S'valuehasbeenreadforcurrentplant'
p143
S'valueHasBeenReadForCurrentPlant'
p144
sS'upperboundoriginal'
p145
S'upperBoundOriginal'
p146
sS'defaultvaluestringoverride'
p147
S'defaultValueStringOverride'
p148
sS'regrow'
p149
S'regrow'
p150
sS'originalsectionname'
p151
S'originalSectionName'
p152
sS'accessstring'
p153
S'accessString'
p154
sS'unitmetric'
p155
S'unitMetric'
p156
sS'transfertype'
p157
S'transferType'
p158
sS'hint'
p159
S'hint'
p160
sS'cannotoverride'
p161
S'cannotOverride'
p162
sS'readonly'
p163
S'readOnly'
p164
sS'lowerboundoriginal'
p165
S'lowerBoundOriginal'
p166
sS'unitset'
p167
S'unitSet'
p168
sS'isoverridden'
p169
S'isOverridden'
p170
sS'collapsed'
p171
S'collapsed'
p172
sS'lowerboundoverride'
p173
S'lowerBoundOverride'
p174
sS'name'
p175
S'name'
p176
sS'unitenglish'
p177
S'unitEnglish'
p178
sS'upperboundoverride'
p179
S'upperBoundOverride'
p180
sS'unitmodel'
p181
S'unitModel'
p182
sS'fieldnumber'
p183
S'fieldNumber'
p184
sS'fieldtype'
p185
S'fieldType'
p186
sS'defaultvaluestringoriginal'
p187
S'defaultValueStringOriginal'
p188
sS'fieldid'
p189
S'fieldID'
p190
sS'indextype'
p191
S'indexType'
p192
ssS'name'
p193
S'PdParameter'
p194
sS'methodDeclarations'
p195
(dp196
S'lowerbound'
p197
(i__main__
DelphiMethodDeclaration
p198
(dp199
g193
S'lowerBound'
p200
sS'formalParameters'
p201
(lp202
sS'className'
p203
g194
sS'resultType'
p204
(i__main__
DelphiPrimitiveType
p205
(dp206
g20
S'single'
p207
sbsS'isClassMethod'
p208
I0
sS'methodType'
p209
S'function'
p210
sbsS'getname'
p211
(i__main__
DelphiMethodDeclaration
p212
(dp213
g193
S'getName'
p214
sg201
(lp215
sg203
g194
sg204
(i__main__
DelphiPrimitiveType
p216
(dp217
g20
g14
sbsg208
I0
sg209
g210
sbsS'setname'
p218
(i__main__
DelphiMethodDeclaration
p219
(dp220
g193
S'setName'
p221
sg201
(lp222
(i__main__
DelphiFormalParameter
p223
(dp224
S'initialValue'
p225
NsS'names'
p226
(lp227
S'newName'
p228
asg17
(i__main__
DelphiPrimitiveType
p229
(dp230
g20
g14
sbsS'parameterVariety'
p231
Nsbasg203
g194
sg204
Nsg208
I0
sg209
S'procedure'
p232
sbsS'create'
p233
(i__main__
DelphiMethodDeclaration
p234
(dp235
g193
S'create'
p236
sg201
(lp237
sg203
g194
sg204
Nsg208
I0
sg209
S'constructor'
p238
sS'commentLinesBefore'
p239
(lp240
S'must be whole string to allow for tdos'
p241
aS' v2.1\r'
p242
aS' ---------------------------------------------------------- PdParameter '
p243
asbsS'defaultvaluestring'
p244
(i__main__
DelphiMethodDeclaration
p245
(dp246
g193
S'defaultValueString'
p247
sg201
(lp248
sg203
g194
sg204
(i__main__
DelphiPrimitiveType
p249
(dp250
g20
g14
sbsg208
I0
sg209
g210
sbsS'upperbound'
p251
(i__main__
DelphiMethodDeclaration
p252
(dp253
g193
S'upperBound'
p254
sg201
(lp255
sg203
g194
sg204
(i__main__
DelphiPrimitiveType
p256
(dp257
g20
g207
sbsg208
I0
sg209
g210
sbsS'gethint'
p258
(i__main__
DelphiMethodDeclaration
p259
(dp260
g193
S'getHint'
p261
sg201
(lp262
sg203
g194
sg204
(i__main__
DelphiPrimitiveType
p263
(dp264
g20
g14
sbsg208
I0
sg209
g210
sbsS'indexcount'
p265
(i__main__
DelphiMethodDeclaration
p266
(dp267
g193
S'indexCount'
p268
sg201
(lp269
sg203
g194
sg204
(i__main__
DelphiPrimitiveType
p270
(dp271
g20
S'integer'
p272
sbsg208
I0
sg209
g210
sbsS'make'
p273
(i__main__
DelphiMethodDeclaration
p274
(dp275
g193
S'make'
p276
sg201
(lp277
(i__main__
DelphiFormalParameter
p278
(dp279
g225
Nsg226
(lp280
S'aFieldNumber'
p281
asg17
(i__main__
DelphiPrimitiveType
p282
(dp283
g20
S'smallint'
p284
sbsg231
Nsba(i__main__
DelphiFormalParameter
p285
(dp286
g225
Nsg226
(lp287
S'aFieldID'
p288
asg17
(i__main__
DelphiPrimitiveType
p289
(dp290
g20
g14
sbsg231
Nsba(i__main__
DelphiFormalParameter
p291
(dp292
g225
Nsg226
(lp293
S'aName'
p294
asg17
(i__main__
DelphiPrimitiveType
p295
(dp296
g20
g14
sbsg231
Nsba(i__main__
DelphiFormalParameter
p297
(dp298
g225
Nsg226
(lp299
S'aFieldType'
p300
aS'anIndexType'
p301
asg17
(i__main__
DelphiPrimitiveType
p302
(dp303
g20
g284
sbsg231
Nsba(i__main__
DelphiFormalParameter
p304
(dp305
g225
Nsg226
(lp306
S'aUnitSet'
p307
aS'aUnitModel'
p308
aS'aUnitMetric'
p309
aS'aUnitEnglish'
p310
asg17
(i__main__
DelphiPrimitiveType
p311
(dp312
g20
g284
sbsg231
Nsba(i__main__
DelphiFormalParameter
p313
(dp314
g225
Nsg226
(lp315
S'aLowerBound'
p316
aS'anUpperBound'
p317
asg17
(i__main__
DelphiPrimitiveType
p318
(dp319
g20
g207
sbsg231
Nsba(i__main__
DelphiFormalParameter
p320
(dp321
g225
Nsg226
(lp322
S'aDefaultValueString'
p323
asg17
(i__main__
DelphiPrimitiveType
p324
(dp325
g20
g14
sbsg231
Nsba(i__main__
DelphiFormalParameter
p326
(dp327
g225
Nsg226
(lp328
S'aRegrow'
p329
aS'aReadOnly'
p330
asg17
(i__main__
DelphiPrimitiveType
p331
(dp332
g20
S'boolean'
p333
sbsg231
Nsba(i__main__
DelphiFormalParameter
p334
(dp335
g225
Nsg226
(lp336
S'anAccessString'
p337
asg17
(i__main__
DelphiPrimitiveType
p338
(dp339
g20
g14
sbsg231
Nsba(i__main__
DelphiFormalParameter
p340
(dp341
g225
Nsg226
(lp342
S'aTransferType'
p343
asg17
(i__main__
DelphiPrimitiveType
p344
(dp345
g20
g284
sbsg231
Nsba(i__main__
DelphiFormalParameter
p346
(dp347
g225
Nsg226
(lp348
S'aHint'
p349
asg17
(i__main__
DelphiPrimitiveType
p350
(dp351
g20
g14
sbsg231
Nsbasg203
g194
sg204
Nsg208
I0
sg209
g238
sbssS'superclassNamedTypes'
p352
(lp353
(i__main__
DelphiNamedType
p354
(dp355
g20
S'TObject'
p356
sS'unitDefinedIn'
p357
g1
sS'unitName'
p358
NsbasS'variableNames'
p359
(dp360
S'valuehasbeenreadforcurrentplant'
p361
(i__main__
DelphiPrimitiveType
p362
(dp363
g20
g333
sbsS'upperboundoriginal'
p364
(i__main__
DelphiPrimitiveType
p365
(dp366
g20
g207
sbsS'defaultvaluestringoverride'
p367
(i__main__
DelphiPrimitiveType
p368
(dp369
g20
g14
sbsS'regrow'
p370
(i__main__
DelphiPrimitiveType
p371
(dp372
g20
g333
sbsS'originalsectionname'
p373
(i__main__
DelphiPrimitiveType
p374
(dp375
g20
g14
sbsS'accessstring'
p376
(i__main__
DelphiPrimitiveType
p377
(dp378
g20
g14
sbsS'unitmetric'
p379
(i__main__
DelphiPrimitiveType
p380
(dp381
g20
g284
sbsS'transfertype'
p382
(i__main__
DelphiPrimitiveType
p383
(dp384
g20
g284
sbsS'hint'
p385
(i__main__
DelphiPrimitiveType
p386
(dp387
g20
g14
sbsS'cannotoverride'
p388
(i__main__
DelphiPrimitiveType
p389
(dp390
g20
g333
sbsS'readonly'
p391
g371
sS'lowerboundoriginal'
p392
g365
sS'unitset'
p393
g380
sS'isoverridden'
p394
g389
sS'collapsed'
p395
(i__main__
DelphiPrimitiveType
p396
(dp397
g20
g333
sbsS'lowerboundoverride'
p398
(i__main__
DelphiPrimitiveType
p399
(dp400
g20
g207
sbsS'name'
p401
(i__main__
DelphiPrimitiveType
p402
(dp403
g20
g14
sbsS'unitenglish'
p404
g380
sS'upperboundoverride'
p405
g399
sS'unitmodel'
p406
g380
sS'fieldnumber'
p407
(i__main__
DelphiPrimitiveType
p408
(dp409
g20
g284
sbsS'fieldtype'
p410
(i__main__
DelphiPrimitiveType
p411
(dp412
g20
g284
sbsS'defaultvaluestringoriginal'
p413
(i__main__
DelphiPrimitiveType
p414
(dp415
g20
g14
sbsS'fieldid'
p416
(i__main__
DelphiPrimitiveType
p417
(dp418
g20
g14
sbsS'indextype'
p419
g411
ssS'methodNamesInDefinedOrder'
p420
(lp421
S'create'
p422
aS'make'
p423
aS'indexcount'
p424
aS'getname'
p425
aS'setname'
p426
aS'lowerbound'
p427
aS'upperbound'
p428
aS'defaultvaluestring'
p429
aS'gethint'
p430
asS'methodImplementations'
p431
(dp432
S'lowerbound'
p433
(i__main__
DelphiMethodImplementation
p434
(dp435
S'originalDeclaration'
p436
g198
sg193
g200
sg201
(lp437
sS'varParamIndexes'
p438
(lp439
sS'varParamsSkipped'
p440
(lp441
sS'argNames'
p442
(lp443
S'self'
p444
asS'argTypes'
p445
(dp446
sg203
S'PdParameter'
p447
sg204
(i__main__
DelphiPrimitiveType
p448
(dp449
g20
g207
sbsS'varParamNames'
p450
(lp451
sg208
I0
sg209
g210
sS'block'
p452
(i__main__
DelphiBlock
p453
(dp454
S'compoundStatement'
p455
(idelphi
DelphiCompoundStatement
p456
(dp457
S'statements'
p458
(lp459
(idelphi
DelphiIfStatement
p460
(dp461
S'expression'
p462
(idelphi
DelphiMulOp
p463
(dp464
S'signedFactor2'
p465
(idelphi
DelphiNestedExpressionListAccess
p466
(dp467
S'endAccessList'
p468
(lp469
sS'expressionList'
p470
(lp471
(i__main__
DelphiIdentAccess
p472
(dp473
g15
S'isOverridden'
p474
sg468
(lp475
sbasbsS'mulOp'
p476
S'and'
p477
sS'signedFactor1'
p478
(idelphi
DelphiNestedExpressionListAccess
p479
(dp480
g468
(lp481
sg470
(lp482
(idelphi
DelphiNot
p483
(dp484
S'factor'
p485
(i__main__
DelphiIdentAccess
p486
(dp487
g15
S'cannotOverride'
p488
sg468
(lp489
sbsbasbsbsS'ifFalseStatement'
p490
(i__main__
DelphiAssignStatement
p491
(dp492
S'newValueExpression'
p493
(i__main__
DelphiIdentAccess
p494
(dp495
g15
S'lowerBoundOriginal'
p496
sg468
(lp497
sbsS'destinationExpression'
p498
(i__main__
DelphiIdentAccess
p499
(dp500
g15
S'result'
p501
sg468
(lp502
sbsbsS'ifTrueStatement'
p503
(i__main__
DelphiAssignStatement
p504
(dp505
g493
(i__main__
DelphiIdentAccess
p506
(dp507
g15
S'lowerBoundOverride'
p508
sg468
(lp509
sbsg498
(i__main__
DelphiIdentAccess
p510
(dp511
g15
S'result'
p512
sg468
(lp513
sbsbsbasbsS'limitedDeclSectionList'
p514
(lp515
sbsbsS'setname'
p516
(i__main__
DelphiMethodImplementation
p517
(dp518
g436
g219
sg193
g221
sg201
(lp519
(i__main__
DelphiFormalParameter
p520
(dp521
g225
Nsg226
(lp522
S'newName'
p523
asg17
(i__main__
DelphiPrimitiveType
p524
(dp525
g20
g14
sbsg231
Nsbasg438
(lp526
sg440
(lp527
sg442
(lp528
g444
ag523
asg445
(dp529
g523
g524
ssg203
S'PdParameter'
p530
sg204
Nsg450
(lp531
sg208
I0
sg209
g232
sg452
(i__main__
DelphiBlock
p532
(dp533
g455
(idelphi
DelphiCompoundStatement
p534
(dp535
g458
(lp536
(i__main__
DelphiAssignStatement
p537
(dp538
g493
(i__main__
DelphiIdentAccess
p539
(dp540
g15
S'copy'
p541
sg468
(lp542
(idelphi
DelphiFunctionEndAccess
p543
(dp544
g470
(lp545
(i__main__
DelphiIdentAccess
p546
(dp547
g15
S'newName'
p548
sg468
(lp549
sba(idelphi
DelphiIntegerValue
p550
(dp551
g14
S'1'
sba(idelphi
DelphiIntegerValue
p552
(dp553
g14
S'80'
p554
sbasbasbsg498
(i__main__
DelphiIdentAccess
p555
(dp556
g15
S'name'
p557
sg468
(lp558
sbsbasbsg514
(lp559
sbsbsS'create'
p560
(i__main__
DelphiMethodImplementation
p561
(dp562
g436
g234
sg193
g236
sg201
(lp563
sg438
(lp564
sg440
(lp565
sg442
(lp566
g444
asg445
(dp567
sg203
S'PdParameter'
p568
sg204
Nsg450
(lp569
sg208
I0
sg209
g238
sg452
(i__main__
DelphiBlock
p570
(dp571
g455
(idelphi
DelphiCompoundStatement
p572
(dp573
g458
(lp574
(i__main__
DelphiAssignStatement
p575
(dp576
g493
(i__main__
DelphiIdentAccess
p577
(dp578
g15
S'true'
p579
sg468
(lp580
sbsg498
(i__main__
DelphiIdentAccess
p581
(dp582
g15
S'collapsed'
p583
sg468
(lp584
sbsbasbsg514
(lp585
sbsg239
g240
sbsS'defaultvaluestring'
p586
(i__main__
DelphiMethodImplementation
p587
(dp588
g436
g245
sg193
g247
sg201
(lp589
sg438
(lp590
sg440
(lp591
sg442
(lp592
g444
asg445
(dp593
sg203
S'PdParameter'
p594
sg204
(i__main__
DelphiPrimitiveType
p595
(dp596
g20
g14
sbsg450
(lp597
sg208
I0
sg209
g210
sg452
(i__main__
DelphiBlock
p598
(dp599
g455
(idelphi
DelphiCompoundStatement
p600
(dp601
g458
(lp602
(idelphi
DelphiIfStatement
p603
(dp604
g462
(idelphi
DelphiMulOp
p605
(dp606
g465
(idelphi
DelphiNestedExpressionListAccess
p607
(dp608
g468
(lp609
sg470
(lp610
(i__main__
DelphiIdentAccess
p611
(dp612
g15
S'isOverridden'
p613
sg468
(lp614
sbasbsg476
g477
sg478
(idelphi
DelphiNestedExpressionListAccess
p615
(dp616
g468
(lp617
sg470
(lp618
(idelphi
DelphiNot
p619
(dp620
g485
(i__main__
DelphiIdentAccess
p621
(dp622
g15
S'cannotOverride'
p623
sg468
(lp624
sbsbasbsbsg490
(i__main__
DelphiAssignStatement
p625
(dp626
g493
(i__main__
DelphiIdentAccess
p627
(dp628
g15
S'defaultValueStringOriginal'
p629
sg468
(lp630
sbsg498
(i__main__
DelphiIdentAccess
p631
(dp632
g15
S'result'
p633
sg468
(lp634
sbsbsg503
(i__main__
DelphiAssignStatement
p635
(dp636
g493
(i__main__
DelphiIdentAccess
p637
(dp638
g15
S'defaultValueStringOverride'
p639
sg468
(lp640
sbsg498
(i__main__
DelphiIdentAccess
p641
(dp642
g15
S'result'
p643
sg468
(lp644
sbsbsbasbsg514
(lp645
sbsbsS'upperbound'
p646
(i__main__
DelphiMethodImplementation
p647
(dp648
g436
g252
sg193
g254
sg201
(lp649
sg438
(lp650
sg440
(lp651
sg442
(lp652
g444
asg445
(dp653
sg203
S'PdParameter'
p654
sg204
(i__main__
DelphiPrimitiveType
p655
(dp656
g20
g207
sbsg450
(lp657
sg208
I0
sg209
g210
sg452
(i__main__
DelphiBlock
p658
(dp659
g455
(idelphi
DelphiCompoundStatement
p660
(dp661
g458
(lp662
(idelphi
DelphiIfStatement
p663
(dp664
g462
(idelphi
DelphiMulOp
p665
(dp666
g465
(idelphi
DelphiNestedExpressionListAccess
p667
(dp668
g468
(lp669
sg470
(lp670
(i__main__
DelphiIdentAccess
p671
(dp672
g15
S'isOverridden'
p673
sg468
(lp674
sbasbsg476
g477
sg478
(idelphi
DelphiNestedExpressionListAccess
p675
(dp676
g468
(lp677
sg470
(lp678
(idelphi
DelphiNot
p679
(dp680
g485
(i__main__
DelphiIdentAccess
p681
(dp682
g15
S'cannotOverride'
p683
sg468
(lp684
sbsbasbsbsg490
(i__main__
DelphiAssignStatement
p685
(dp686
g493
(i__main__
DelphiIdentAccess
p687
(dp688
g15
S'upperBoundOriginal'
p689
sg468
(lp690
sbsg498
(i__main__
DelphiIdentAccess
p691
(dp692
g15
S'result'
p693
sg468
(lp694
sbsbsg503
(i__main__
DelphiAssignStatement
p695
(dp696
g493
(i__main__
DelphiIdentAccess
p697
(dp698
g15
S'upperBoundOverride'
p699
sg468
(lp700
sbsg498
(i__main__
DelphiIdentAccess
p701
(dp702
g15
S'result'
p703
sg468
(lp704
sbsbsbasbsg514
(lp705
sbsbsS'gethint'
p706
(i__main__
DelphiMethodImplementation
p707
(dp708
g436
g259
sg193
g261
sg201
(lp709
sg438
(lp710
sg440
(lp711
sg442
(lp712
g444
asg445
(dp713
sg203
S'PdParameter'
p714
sg204
(i__main__
DelphiPrimitiveType
p715
(dp716
g20
g14
sbsg450
(lp717
sg208
I0
sg209
g210
sg452
(i__main__
DelphiBlock
p718
(dp719
g455
(idelphi
DelphiCompoundStatement
p720
(dp721
g458
(lp722
(i__main__
DelphiAssignStatement
p723
(dp724
g493
(i__main__
DelphiIdentAccess
p725
(dp726
g15
S'self'
p727
sg468
(lp728
(idelphi
DelphiFieldEndAccess
p729
(dp730
S'field'
p731
S'hint'
p732
sbasbsg498
(i__main__
DelphiIdentAccess
p733
(dp734
g15
S'result'
p735
sg468
(lp736
sbsbasbsg514
(lp737
sbsbsS'indexcount'
p738
(i__main__
DelphiMethodImplementation
p739
(dp740
g436
g266
sg193
g268
sg201
(lp741
sg438
(lp742
sg440
(lp743
sg442
(lp744
g444
asg445
(dp745
sg203
S'PdParameter'
p746
sg204
(i__main__
DelphiPrimitiveType
p747
(dp748
g20
g272
sbsg450
(lp749
sg208
I0
sg209
g210
sg452
(i__main__
DelphiBlock
p750
(dp751
g455
(idelphi
DelphiCompoundStatement
p752
(dp753
g458
(lp754
(i__main__
DelphiAssignStatement
p755
(dp756
g493
(idelphi
DelphiIntegerValue
p757
(dp758
g14
S'1'
sbsg498
(i__main__
DelphiIdentAccess
p759
(dp760
g15
S'result'
p761
sg468
(lp762
sbsba(idelphi
DelphiCaseStatement
p763
(dp764
S'elseStatement'
p765
(idelphi
DelphiRaiseStatement
p766
(dp767
g462
(i__main__
DelphiIdentAccess
p768
(dp769
g15
S'Exception'
p770
sg468
(lp771
(idelphi
DelphiFieldEndAccess
p772
(dp773
g731
S'create'
p774
sba(idelphi
DelphiFunctionEndAccess
p775
(dp776
g470
(lp777
(idelphi
DelphiStringAccess
p778
(dp779
g468
(lp780
sg14
(idelphi
DelphiStringValue
p781
(dp782
g14
S'Problem: Unexpected index type in method PdParameter.indexCount.'
p783
sbsbasbasbsbsg462
(i__main__
DelphiIdentAccess
p784
(dp785
g15
S'indexType'
p786
sg468
(lp787
sbsS'caseSelectorList'
p788
(lp789
(idelphi
DelphiCaseSelector
p790
(dp791
S'statement'
p792
(i__main__
DelphiAssignStatement
p793
(dp794
g493
(idelphi
DelphiIntegerValue
p795
(dp796
g14
S'1'
sbsg498
(i__main__
DelphiIdentAccess
p797
(dp798
g15
S'result'
p799
sg468
(lp800
sbsbsS'caseLabelList'
p801
(lp802
(i__main__
DelphiIdentAccess
p803
(dp804
g15
S'kIndexTypeUndefined'
p805
sg468
(lp806
sbasba(idelphi
DelphiCaseSelector
p807
(dp808
g792
(i__main__
DelphiAssignStatement
p809
(dp810
g493
(idelphi
DelphiIntegerValue
p811
(dp812
g14
S'1'
sbsg498
(i__main__
DelphiIdentAccess
p813
(dp814
g15
S'result'
p815
sg468
(lp816
sbsbsg801
(lp817
(i__main__
DelphiIdentAccess
p818
(dp819
g15
S'kIndexTypeNone'
p820
sg468
(lp821
sbasba(idelphi
DelphiCaseSelector
p822
(dp823
g792
(i__main__
DelphiAssignStatement
p824
(dp825
g493
(idelphi
DelphiIntegerValue
p826
(dp827
g14
S'4'
sbsg498
(i__main__
DelphiIdentAccess
p828
(dp829
g15
S'result'
p830
sg468
(lp831
sbsbsg801
(lp832
(i__main__
DelphiIdentAccess
p833
(dp834
g15
S'kIndexTypeSCurve'
p835
sg468
(lp836
sbasbasbasbsg514
(lp837
sbsbsS'getname'
p838
(i__main__
DelphiMethodImplementation
p839
(dp840
g436
g212
sg193
g214
sg201
(lp841
sg438
(lp842
sg440
(lp843
sg442
(lp844
g444
asg445
(dp845
sg203
S'PdParameter'
p846
sg204
(i__main__
DelphiPrimitiveType
p847
(dp848
g20
g14
sbsg450
(lp849
sg208
I0
sg209
g210
sg452
(i__main__
DelphiBlock
p850
(dp851
g455
(idelphi
DelphiCompoundStatement
p852
(dp853
g458
(lp854
(i__main__
DelphiAssignStatement
p855
(dp856
g493
(i__main__
DelphiIdentAccess
p857
(dp858
g15
S'self'
p859
sg468
(lp860
(idelphi
DelphiFieldEndAccess
p861
(dp862
g731
S'name'
p863
sbasbsg498
(i__main__
DelphiIdentAccess
p864
(dp865
g15
S'result'
p866
sg468
(lp867
sbsbasbsg514
(lp868
sbsbsS'make'
p869
(i__main__
DelphiMethodImplementation
p870
(dp871
g436
g274
sg193
g276
sg201
(lp872
(i__main__
DelphiFormalParameter
p873
(dp874
g225
Nsg226
(lp875
S'aFieldNumber'
p876
asg17
(i__main__
DelphiPrimitiveType
p877
(dp878
g20
g284
sbsg231
Nsba(i__main__
DelphiFormalParameter
p879
(dp880
g225
Nsg226
(lp881
S'aFieldID'
p882
asg17
(i__main__
DelphiPrimitiveType
p883
(dp884
g20
g14
sbsg231
Nsba(i__main__
DelphiFormalParameter
p885
(dp886
g225
Nsg226
(lp887
S'aName'
p888
asg17
(i__main__
DelphiPrimitiveType
p889
(dp890
g20
g14
sbsg231
Nsba(i__main__
DelphiFormalParameter
p891
(dp892
g225
Nsg226
(lp893
S'aFieldType'
p894
aS'anIndexType'
p895
asg17
(i__main__
DelphiPrimitiveType
p896
(dp897
g20
g284
sbsg231
Nsba(i__main__
DelphiFormalParameter
p898
(dp899
g225
Nsg226
(lp900
S'aUnitSet'
p901
aS'aUnitModel'
p902
aS'aUnitMetric'
p903
aS'aUnitEnglish'
p904
asg17
(i__main__
DelphiPrimitiveType
p905
(dp906
g20
g284
sbsg231
Nsba(i__main__
DelphiFormalParameter
p907
(dp908
g225
Nsg226
(lp909
S'aLowerBound'
p910
aS'anUpperBound'
p911
asg17
(i__main__
DelphiPrimitiveType
p912
(dp913
g20
g207
sbsg231
Nsba(i__main__
DelphiFormalParameter
p914
(dp915
g225
Nsg226
(lp916
S'aDefaultValueString'
p917
asg17
(i__main__
DelphiPrimitiveType
p918
(dp919
g20
g14
sbsg231
Nsba(i__main__
DelphiFormalParameter
p920
(dp921
g225
Nsg226
(lp922
S'aRegrow'
p923
aS'aReadOnly'
p924
asg17
(i__main__
DelphiPrimitiveType
p925
(dp926
g20
g333
sbsg231
Nsba(i__main__
DelphiFormalParameter
p927
(dp928
g225
Nsg226
(lp929
S'anAccessString'
p930
asg17
(i__main__
DelphiPrimitiveType
p931
(dp932
g20
g14
sbsg231
Nsba(i__main__
DelphiFormalParameter
p933
(dp934
g225
Nsg226
(lp935
S'aTransferType'
p936
asg17
(i__main__
DelphiPrimitiveType
p937
(dp938
g20
g284
sbsg231
Nsba(i__main__
DelphiFormalParameter
p939
(dp940
g225
Nsg226
(lp941
S'aHint'
p942
asg17
(i__main__
DelphiPrimitiveType
p943
(dp944
g20
g14
sbsg231
Nsbasg438
(lp945
sg440
(lp946
sg442
(lp947
g444
ag876
ag882
ag888
ag894
ag895
ag901
ag902
ag903
ag904
ag910
ag911
ag917
ag923
ag924
ag930
ag936
ag942
asg445
(dp948
g902
g905
sg917
g918
sg903
g905
sg930
g931
sg904
g905
sg911
g912
sg901
g905
sg894
g896
sg882
g883
sg910
g912
sg876
g877
sg936
g937
sg923
g925
sg942
g943
sg924
g925
sg895
g896
sg888
g889
ssg203
S'PdParameter'
p949
sg204
Nsg450
(lp950
sg208
I0
sg209
g238
sg452
(i__main__
DelphiBlock
p951
(dp952
g455
(idelphi
DelphiCompoundStatement
p953
(dp954
g458
(lp955
(i__main__
DelphiAssignStatement
p956
(dp957
g493
Nsg498
(i__main__
DelphiIdentAccess
p958
(dp959
g15
S'self'
p960
sg468
(lp961
(idelphi
DelphiFieldEndAccess
p962
(dp963
g731
S'create'
p964
sbasbsba(i__main__
DelphiAssignStatement
p965
(dp966
g493
(i__main__
DelphiIdentAccess
p967
(dp968
g15
S'aFieldNumber'
p969
sg468
(lp970
sbsg498
(i__main__
DelphiIdentAccess
p971
(dp972
g15
S'fieldNumber'
p973
sg468
(lp974
sbsba(i__main__
DelphiAssignStatement
p975
(dp976
g493
(i__main__
DelphiIdentAccess
p977
(dp978
g15
S'copy'
p979
sg468
(lp980
(idelphi
DelphiFunctionEndAccess
p981
(dp982
g470
(lp983
(i__main__
DelphiIdentAccess
p984
(dp985
g15
S'aFieldID'
p986
sg468
(lp987
sba(idelphi
DelphiIntegerValue
p988
(dp989
g14
S'1'
sba(idelphi
DelphiIntegerValue
p990
(dp991
g14
S'80'
p992
sbasbasbsg498
(i__main__
DelphiIdentAccess
p993
(dp994
g15
S'fieldID'
p995
sg468
(lp996
sbsba(i__main__
DelphiAssignStatement
p997
(dp998
g493
(i__main__
DelphiIdentAccess
p999
(dp1000
g15
S'copy'
p1001
sg468
(lp1002
(idelphi
DelphiFunctionEndAccess
p1003
(dp1004
g470
(lp1005
(i__main__
DelphiIdentAccess
p1006
(dp1007
g15
S'aName'
p1008
sg468
(lp1009
sba(idelphi
DelphiIntegerValue
p1010
(dp1011
g14
S'1'
sba(idelphi
DelphiIntegerValue
p1012
(dp1013
g14
S'80'
p1014
sbasbasbsg498
(i__main__
DelphiIdentAccess
p1015
(dp1016
g15
S'name'
p1017
sg468
(lp1018
sbsba(i__main__
DelphiAssignStatement
p1019
(dp1020
g493
(i__main__
DelphiIdentAccess
p1021
(dp1022
g15
S'aFieldType'
p1023
sg468
(lp1024
sbsg498
(i__main__
DelphiIdentAccess
p1025
(dp1026
g15
S'fieldType'
p1027
sg468
(lp1028
sbsba(i__main__
DelphiAssignStatement
p1029
(dp1030
g493
(i__main__
DelphiIdentAccess
p1031
(dp1032
g15
S'aHint'
p1033
sg468
(lp1034
sbsg498
(i__main__
DelphiIdentAccess
p1035
(dp1036
g15
S'hint'
p1037
sg468
(lp1038
sbsg239
(lp1039
S' v2.0 headers can have hints\r'
p1040
asba(idelphi
DelphiIfStatement
p1041
(dp1042
g462
(idelphi
DelphiRelOp
p1043
(dp1044
S'simpleExpression1'
p1045
(i__main__
DelphiIdentAccess
p1046
(dp1047
g15
S'fieldType'
p1048
sg468
(lp1049
sbsS'simpleExpression2'
p1050
(i__main__
DelphiIdentAccess
p1051
(dp1052
g15
S'kFieldHeader'
p1053
sg468
(lp1054
sbsS'relOp'
p1055
S'='
sbsg490
Nsg503
(i__main__
DelphiExitStatement
p1056
(dp1057
S'proceduralOrMethodImplementation'
p1058
g870
sbsba(i__main__
DelphiAssignStatement
p1059
(dp1060
g493
(i__main__
DelphiIdentAccess
p1061
(dp1062
g15
S'anIndexType'
p1063
sg468
(lp1064
sbsg498
(i__main__
DelphiIdentAccess
p1065
(dp1066
g15
S'indexType'
p1067
sg468
(lp1068
sbsba(i__main__
DelphiAssignStatement
p1069
(dp1070
g493
(i__main__
DelphiIdentAccess
p1071
(dp1072
g15
S'aUnitSet'
p1073
sg468
(lp1074
sbsg498
(i__main__
DelphiIdentAccess
p1075
(dp1076
g15
S'unitSet'
p1077
sg468
(lp1078
sbsba(i__main__
DelphiAssignStatement
p1079
(dp1080
g493
(i__main__
DelphiIdentAccess
p1081
(dp1082
g15
S'aUnitModel'
p1083
sg468
(lp1084
sbsg498
(i__main__
DelphiIdentAccess
p1085
(dp1086
g15
S'unitModel'
p1087
sg468
(lp1088
sbsba(i__main__
DelphiAssignStatement
p1089
(dp1090
g493
(i__main__
DelphiIdentAccess
p1091
(dp1092
g15
S'aUnitMetric'
p1093
sg468
(lp1094
sbsg498
(i__main__
DelphiIdentAccess
p1095
(dp1096
g15
S'unitMetric'
p1097
sg468
(lp1098
sbsba(i__main__
DelphiAssignStatement
p1099
(dp1100
g493
(i__main__
DelphiIdentAccess
p1101
(dp1102
g15
S'aUnitEnglish'
p1103
sg468
(lp1104
sbsg498
(i__main__
DelphiIdentAccess
p1105
(dp1106
g15
S'unitEnglish'
p1107
sg468
(lp1108
sbsba(i__main__
DelphiAssignStatement
p1109
(dp1110
g493
(i__main__
DelphiIdentAccess
p1111
(dp1112
g15
S'aLowerBound'
p1113
sg468
(lp1114
sbsg498
(i__main__
DelphiIdentAccess
p1115
(dp1116
g15
S'lowerBoundOriginal'
p1117
sg468
(lp1118
sbsba(i__main__
DelphiAssignStatement
p1119
(dp1120
g493
(i__main__
DelphiIdentAccess
p1121
(dp1122
g15
S'anUpperBound'
p1123
sg468
(lp1124
sbsg498
(i__main__
DelphiIdentAccess
p1125
(dp1126
g15
S'upperBoundOriginal'
p1127
sg468
(lp1128
sbsba(i__main__
DelphiAssignStatement
p1129
(dp1130
g493
(i__main__
DelphiIdentAccess
p1131
(dp1132
g15
S'aDefaultValueString'
p1133
sg468
(lp1134
sbsg498
(i__main__
DelphiIdentAccess
p1135
(dp1136
g15
S'defaultValueStringOriginal'
p1137
sg468
(lp1138
sbsba(i__main__
DelphiAssignStatement
p1139
(dp1140
g493
(i__main__
DelphiIdentAccess
p1141
(dp1142
g15
S'aRegrow'
p1143
sg468
(lp1144
sbsg498
(i__main__
DelphiIdentAccess
p1145
(dp1146
g15
S'regrow'
p1147
sg468
(lp1148
sbsba(i__main__
DelphiAssignStatement
p1149
(dp1150
g493
(i__main__
DelphiIdentAccess
p1151
(dp1152
g15
S'aReadOnly'
p1153
sg468
(lp1154
sbsg498
(i__main__
DelphiIdentAccess
p1155
(dp1156
g15
S'readOnly'
p1157
sg468
(lp1158
sbsba(i__main__
DelphiAssignStatement
p1159
(dp1160
g493
(i__main__
DelphiIdentAccess
p1161
(dp1162
g15
S'copy'
p1163
sg468
(lp1164
(idelphi
DelphiFunctionEndAccess
p1165
(dp1166
g470
(lp1167
(i__main__
DelphiIdentAccess
p1168
(dp1169
g15
S'anAccessString'
p1170
sg468
(lp1171
sba(idelphi
DelphiIntegerValue
p1172
(dp1173
g14
S'1'
sba(idelphi
DelphiIntegerValue
p1174
(dp1175
g14
S'80'
p1176
sbasbasbsg498
(i__main__
DelphiIdentAccess
p1177
(dp1178
g15
S'accessString'
p1179
sg468
(lp1180
sbsba(i__main__
DelphiAssignStatement
p1181
(dp1182
g493
(i__main__
DelphiIdentAccess
p1183
(dp1184
g15
S'aTransferType'
p1185
sg468
(lp1186
sbsg498
(i__main__
DelphiIdentAccess
p1187
(dp1188
g15
S'transferType'
p1189
sg468
(lp1190
sbsbasg239
(lp1191
S'hint := aHint;\r'
p1192
asbsg514
(lp1193
sbsbssS'propertyDeclarations'
p1194
(dp1195
sS'variableNamesInDeclaredOrder'
p1196
(lp1197
g184
ag190
ag176
ag186
ag192
ag168
ag182
ag156
ag178
ag166
ag146
ag188
ag162
ag170
ag174
ag180
ag148
ag150
ag164
ag154
ag158
ag160
ag144
ag172
ag152
asg239
(lp1198
S' FieldType '
p1199
aS'note: the longint type is NOT for use for parameters (in param panels or breeding).\r'
p1200
aS'     if you want to use a longint for a parameter, you have to\r'
p1201
aS'     update the breeding method and the method that creates param panels. the smallint panel will not\r'
p1202
aS'     work correctly with a longint as it is now (but you could subclass it if you need one).'
p1203
aS' IndexType - for arrays '
p1204
aS' transferType - how data is transferred to and from model object '
p1205
aS'mfd is short for MoveFieldData'
p1206
asba(i__main__
DelphiClass
p1207
(dp1208
g141
(dp1209
S'parameters'
p1210
S'parameters'
p1211
ssg193
S'PdParameterManager'
p1212
sg195
(dp1213
S'setallreadflagstofalse'
p1214
(i__main__
DelphiMethodDeclaration
p1215
(dp1216
g193
S'setAllReadFlagsToFalse'
p1217
sg201
(lp1218
sg203
g1212
sg204
Nsg208
I0
sg209
g232
sbsS'parameterindexforfieldid'
p1219
(i__main__
DelphiMethodDeclaration
p1220
(dp1221
g193
S'parameterIndexForFieldID'
p1222
sg201
(lp1223
(i__main__
DelphiFormalParameter
p1224
(dp1225
g225
Nsg226
(lp1226
S'fieldID'
p1227
asg17
(i__main__
DelphiPrimitiveType
p1228
(dp1229
g20
g14
sbsg231
Nsbasg203
g1212
sg204
(i__main__
DelphiPrimitiveType
p1230
(dp1231
g20
g272
sbsg208
I0
sg209
g210
sbsS'parameterforname'
p1232
(i__main__
DelphiMethodDeclaration
p1233
(dp1234
g193
S'parameterForName'
p1235
sg201
(lp1236
(i__main__
DelphiFormalParameter
p1237
(dp1238
g225
Nsg226
(lp1239
S'name'
p1240
asg17
(i__main__
DelphiPrimitiveType
p1241
(dp1242
g20
g14
sbsg231
Nsbasg203
g1212
sg204
(i__main__
DelphiNamedType
p1243
(dp1244
g20
S'PdParameter'
p1245
sg357
g1
sg358
Nsbsg208
I0
sg209
g210
sbsS'clearparameters'
p1246
(i__main__
DelphiMethodDeclaration
p1247
(dp1248
g193
S'clearParameters'
p1249
sg201
(lp1250
sg203
g1212
sg204
Nsg208
I0
sg209
g232
sbsS'fieldtypename'
p1251
(i__main__
DelphiMethodDeclaration
p1252
(dp1253
g193
S'fieldTypeName'
p1254
sg201
(lp1255
(i__main__
DelphiFormalParameter
p1256
(dp1257
g225
Nsg226
(lp1258
S'fieldType'
p1259
asg17
(i__main__
DelphiPrimitiveType
p1260
(dp1261
g20
g272
sbsg231
Nsbasg203
g1212
sg204
(i__main__
DelphiPrimitiveType
p1262
(dp1263
g20
g14
sbsg208
I1
sg209
g210
sbsS'create'
p1264
(i__main__
DelphiMethodDeclaration
p1265
(dp1266
g193
S'create'
p1267
sg201
(lp1268
sg203
g1212
sg204
Nsg208
I0
sg209
g238
sbsS'parameterforfieldid'
p1269
(i__main__
DelphiMethodDeclaration
p1270
(dp1271
g193
S'parameterForFieldID'
p1272
sg201
(lp1273
(i__main__
DelphiFormalParameter
p1274
(dp1275
g225
Nsg226
(lp1276
S'fieldID'
p1277
asg17
(i__main__
DelphiPrimitiveType
p1278
(dp1279
g20
g14
sbsg231
Nsbasg203
g1212
sg204
(i__main__
DelphiNamedType
p1280
(dp1281
g20
S'PdParameter'
p1282
sg357
g1
sg358
Nsbsg208
I0
sg209
g210
sbsS'addparameterforsection'
p1283
(i__main__
DelphiMethodDeclaration
p1284
(dp1285
g193
S'addParameterForSection'
p1286
sg201
(lp1287
(i__main__
DelphiFormalParameter
p1288
(dp1289
g225
Nsg226
(lp1290
S'sectionName'
p1291
asg17
(i__main__
DelphiPrimitiveType
p1292
(dp1293
g20
g14
sbsg231
Nsba(i__main__
DelphiFormalParameter
p1294
(dp1295
g225
Nsg226
(lp1296
S'orthogonalSectionName'
p1297
asg17
(i__main__
DelphiPrimitiveType
p1298
(dp1299
g20
g14
sbsg231
Nsba(i__main__
DelphiFormalParameter
p1300
(dp1301
g225
Nsg226
(lp1302
S'newParameter'
p1303
asg17
(i__main__
DelphiNamedType
p1304
(dp1305
g20
S'PdParameter'
p1306
sg357
g1
sg358
Nsbsg231
Nsbasg203
g1212
sg204
Nsg208
I0
sg209
g232
sbsS'makeparameters'
p1307
(i__main__
DelphiMethodDeclaration
p1308
(dp1309
g193
S'makeParameters'
p1310
sg201
(lp1311
sg203
g1212
sg204
Nsg208
I0
sg209
g232
sbsS'addparameter'
p1312
(i__main__
DelphiMethodDeclaration
p1313
(dp1314
g193
S'addParameter'
p1315
sg201
(lp1316
(i__main__
DelphiFormalParameter
p1317
(dp1318
g225
Nsg226
(lp1319
S'newParameter'
p1320
asg17
(i__main__
DelphiNamedType
p1321
(dp1322
g20
S'PdParameter'
p1323
sg357
g1
sg358
Nsbsg231
Nsbasg203
g1212
sg204
Nsg208
I0
sg209
g232
sbsS'parameterindexforfieldnumber'
p1324
(i__main__
DelphiMethodDeclaration
p1325
(dp1326
g193
S'parameterIndexForFieldNumber'
p1327
sg201
(lp1328
(i__main__
DelphiFormalParameter
p1329
(dp1330
g225
Nsg226
(lp1331
S'fieldNumber'
p1332
asg17
(i__main__
DelphiPrimitiveType
p1333
(dp1334
g20
S'longint'
p1335
sbsg231
Nsbasg203
g1212
sg204
(i__main__
DelphiPrimitiveType
p1336
(dp1337
g20
g272
sbsg208
I0
sg209
g210
sbsS'indextypename'
p1338
(i__main__
DelphiMethodDeclaration
p1339
(dp1340
g193
S'indexTypeName'
p1341
sg201
(lp1342
(i__main__
DelphiFormalParameter
p1343
(dp1344
g225
Nsg226
(lp1345
S'indexType'
p1346
asg17
(i__main__
DelphiPrimitiveType
p1347
(dp1348
g20
g272
sbsg231
Nsbasg203
g1212
sg204
(i__main__
DelphiPrimitiveType
p1349
(dp1350
g20
g14
sbsg208
I1
sg209
g210
sbsS'destroy'
p1351
(i__main__
DelphiMethodDeclaration
p1352
(dp1353
g193
S'destroy'
p1354
sg201
(lp1355
sg203
g1212
sg204
Nsg208
I0
sg209
S'destructor'
p1356
sbsS'parameterforindex'
p1357
(i__main__
DelphiMethodDeclaration
p1358
(dp1359
g193
S'parameterForIndex'
p1360
sg201
(lp1361
(i__main__
DelphiFormalParameter
p1362
(dp1363
g225
Nsg226
(lp1364
S'index'
p1365
asg17
(i__main__
DelphiPrimitiveType
p1366
(dp1367
g20
g1335
sbsg231
Nsbasg203
g1212
sg204
(i__main__
DelphiNamedType
p1368
(dp1369
g20
S'PdParameter'
p1370
sg357
g1
sg358
Nsbsg208
I0
sg209
g210
sbsS'parameterforfieldnumber'
p1371
(i__main__
DelphiMethodDeclaration
p1372
(dp1373
g193
S'parameterForFieldNumber'
p1374
sg201
(lp1375
(i__main__
DelphiFormalParameter
p1376
(dp1377
g225
Nsg226
(lp1378
S'fieldNumber'
p1379
asg17
(i__main__
DelphiPrimitiveType
p1380
(dp1381
g20
g1335
sbsg231
Nsbasg203
g1212
sg204
(i__main__
DelphiNamedType
p1382
(dp1383
g20
S'PdParameter'
p1384
sg357
g1
sg358
Nsbsg208
I0
sg209
g210
sbssg352
(lp1385
(i__main__
DelphiNamedType
p1386
(dp1387
g20
g356
sg357
g1
sg358
Nsbasg359
(dp1388
S'parameters'
p1389
(i__main__
DelphiNamedType
p1390
(dp1391
g20
S'TListCollection'
p1392
sg357
g1
sg358
Nsbssg420
(lp1393
S'create'
p1394
aS'destroy'
p1395
aS'addparameter'
p1396
aS'addparameterforsection'
p1397
aS'fieldtypename'
p1398
aS'indextypename'
p1399
aS'parameterforindex'
p1400
aS'clearparameters'
p1401
aS'setallreadflagstofalse'
p1402
aS'parameterforfieldnumber'
p1403
aS'parameterforfieldid'
p1404
aS'parameterforname'
p1405
aS'parameterindexforfieldnumber'
p1406
aS'parameterindexforfieldid'
p1407
aS'makeparameters'
p1408
asg431
(dp1409
S'makeparameters'
p1410
(i__main__
DelphiMethodImplementation
p1411
(dp1412
g436
g1308
sg193
g1310
sg201
(lp1413
sg438
(lp1414
sg440
(lp1415
sg442
(lp1416
g444
asg445
(dp1417
sg203
S'PdParameterManager'
p1418
sg204
Nsg450
(lp1419
sg208
I0
sg209
g232
sg452
(i__main__
DelphiBlock
p1420
(dp1421
g455
(idelphi
DelphiCompoundStatement
p1422
(dp1423
g458
(lp1424
(i__main__
DelphiAssignStatement
p1425
(dp1426
g493
Nsg498
(i__main__
DelphiIdentAccess
p1427
(dp1428
g15
S'CreateParameters'
p1429
sg468
(lp1430
(idelphi
DelphiFunctionEndAccess
p1431
(dp1432
g470
(lp1433
(i__main__
DelphiIdentAccess
p1434
(dp1435
g15
S'self'
p1436
sg468
(lp1437
sbasbasbsba(i__main__
DelphiAssignStatement
p1438
(dp1439
g493
Nsg498
(i__main__
DelphiIdentAccess
p1440
(dp1441
g15
S'CreateParameters_SecondHalf'
p1442
sg468
(lp1443
(idelphi
DelphiFunctionEndAccess
p1444
(dp1445
g470
(lp1446
(i__main__
DelphiIdentAccess
p1447
(dp1448
g15
S'self'
p1449
sg468
(lp1450
sbasbasbsbasbsg514
(lp1451
sbsbsS'parameterindexforfieldid'
p1452
(i__main__
DelphiMethodImplementation
p1453
(dp1454
g436
g1220
sg193
g1222
sg201
(lp1455
(i__main__
DelphiFormalParameter
p1456
(dp1457
g225
Nsg226
(lp1458
S'fieldID'
p1459
asg17
(i__main__
DelphiPrimitiveType
p1460
(dp1461
g20
g14
sbsg231
Nsbasg438
(lp1462
sg440
(lp1463
sg442
(lp1464
g444
ag1459
asg445
(dp1465
g1459
g1460
ssg203
S'PdParameterManager'
p1466
sg204
(i__main__
DelphiPrimitiveType
p1467
(dp1468
g20
g272
sbsg450
(lp1469
sg208
I0
sg209
g210
sg452
(i__main__
DelphiBlock
p1470
(dp1471
g455
(idelphi
DelphiCompoundStatement
p1472
(dp1473
g458
(lp1474
(i__main__
DelphiAssignStatement
p1475
(dp1476
g493
(idelphi
DelphiIntegerValue
p1477
(dp1478
g14
S'0'
sbsg498
(i__main__
DelphiIdentAccess
p1479
(dp1480
g15
S'result'
p1481
sg468
(lp1482
sbsba(idelphi
DelphiIfStatement
p1483
(dp1484
g462
(idelphi
DelphiRelOp
p1485
(dp1486
g1045
(i__main__
DelphiIdentAccess
p1487
(dp1488
g15
S'parameters'
p1489
sg468
(lp1490
(idelphi
DelphiFieldEndAccess
p1491
(dp1492
g731
S'count'
p1493
sbasbsg1050
(idelphi
DelphiIntegerValue
p1494
(dp1495
g14
S'0'
sbsg1055
S'>'
sbsg490
Nsg503
(idelphi
DelphiForStatement
p1496
(dp1497
S'variable'
p1498
S'i'
sS'finalValue'
p1499
(idelphi
DelphiAddOp
p1500
(dp1501
S'addOp'
p1502
S'-'
sS'term2'
p1503
(idelphi
DelphiIntegerValue
p1504
(dp1505
g14
S'1'
sbsS'term1'
p1506
(i__main__
DelphiIdentAccess
p1507
(dp1508
g15
S'parameters'
p1509
sg468
(lp1510
(idelphi
DelphiFieldEndAccess
p1511
(dp1512
g731
S'count'
p1513
sbasbsbsS'direction'
p1514
S'to'
p1515
sg225
(idelphi
DelphiIntegerValue
p1516
(dp1517
g14
S'0'
sbsg792
(idelphi
DelphiCompoundStatement
p1518
(dp1519
g458
(lp1520
(i__main__
DelphiAssignStatement
p1521
(dp1522
g493
(i__main__
DelphiIdentAccess
p1523
(dp1524
g15
S'PdParameter'
p1525
sg468
(lp1526
(idelphi
DelphiFunctionEndAccess
p1527
(dp1528
g470
(lp1529
(i__main__
DelphiIdentAccess
p1530
(dp1531
g15
S'parameters'
p1532
sg468
(lp1533
(idelphi
DelphiFieldEndAccess
p1534
(dp1535
g731
S'items'
p1536
sba(idelphi
DelphiArrayEndAccess
p1537
(dp1538
g470
(lp1539
(i__main__
DelphiIdentAccess
p1540
(dp1541
g15
S'i'
sg468
(lp1542
sbasbasbasbasbsg498
(i__main__
DelphiIdentAccess
p1543
(dp1544
g15
S'parameter'
p1545
sg468
(lp1546
sbsba(idelphi
DelphiIfStatement
p1547
(dp1548
g462
(idelphi
DelphiRelOp
p1549
(dp1550
g1045
(i__main__
DelphiIdentAccess
p1551
(dp1552
g15
S'trim'
p1553
sg468
(lp1554
(idelphi
DelphiFunctionEndAccess
p1555
(dp1556
g470
(lp1557
(i__main__
DelphiIdentAccess
p1558
(dp1559
g15
S'upperCase'
p1560
sg468
(lp1561
(idelphi
DelphiFunctionEndAccess
p1562
(dp1563
g470
(lp1564
(i__main__
DelphiIdentAccess
p1565
(dp1566
g15
S'fieldID'
p1567
sg468
(lp1568
sbasbasbasbasbsg1050
(i__main__
DelphiIdentAccess
p1569
(dp1570
g15
S'trim'
p1571
sg468
(lp1572
(idelphi
DelphiFunctionEndAccess
p1573
(dp1574
g470
(lp1575
(i__main__
DelphiIdentAccess
p1576
(dp1577
g15
S'upperCase'
p1578
sg468
(lp1579
(idelphi
DelphiFunctionEndAccess
p1580
(dp1581
g470
(lp1582
(i__main__
DelphiIdentAccess
p1583
(dp1584
g15
S'parameter'
p1585
sg468
(lp1586
(idelphi
DelphiFieldEndAccess
p1587
(dp1588
g731
S'fieldID'
p1589
sbasbasbasbasbasbsg1055
S'='
sbsg490
Nsg503
(idelphi
DelphiCompoundStatement
p1590
(dp1591
g458
(lp1592
(i__main__
DelphiAssignStatement
p1593
(dp1594
g493
(i__main__
DelphiIdentAccess
p1595
(dp1596
g15
S'i'
sg468
(lp1597
sbsg498
(i__main__
DelphiIdentAccess
p1598
(dp1599
g15
S'result'
p1600
sg468
(lp1601
sbsba(i__main__
DelphiExitStatement
p1602
(dp1603
g1058
g1453
sbasbsbasbsbsba(idelphi
DelphiRaiseStatement
p1604
(dp1605
g462
(i__main__
DelphiIdentAccess
p1606
(dp1607
g15
S'Exception'
p1608
sg468
(lp1609
(idelphi
DelphiFieldEndAccess
p1610
(dp1611
g731
S'create'
p1612
sba(idelphi
DelphiFunctionEndAccess
p1613
(dp1614
g470
(lp1615
(idelphi
DelphiAddOp
p1616
(dp1617
g1502
S'+'
sg1503
(idelphi
DelphiStringAccess
p1618
(dp1619
g468
(lp1620
sg14
(idelphi
DelphiStringValue
p1621
(dp1622
g14
S' in method PdParameterManager.parameterIndexForFieldID.'
p1623
sbsbsg1506
(idelphi
DelphiAddOp
p1624
(dp1625
g1502
S'+'
sg1503
(i__main__
DelphiIdentAccess
p1626
(dp1627
g15
S'fieldID'
p1628
sg468
(lp1629
sbsg1506
(idelphi
DelphiStringAccess
p1630
(dp1631
g468
(lp1632
sg14
(idelphi
DelphiStringValue
p1633
(dp1634
g14
S'Problem: Parameter index not found for field ID '
p1635
sbsbsbsbasbasbsbasbsg514
(lp1636
(i__main__
DelphiVarSection
p1637
(dp1638
g138
I0
sS'varDeclList'
p1639
(lp1640
(idelphi
DelphiVarDecl
p1641
(dp1642
g11
NsS'identList'
p1643
(lp1644
S'i'
asg17
(i__main__
DelphiPrimitiveType
p1645
(dp1646
g20
g284
sbsba(idelphi
DelphiVarDecl
p1647
(dp1648
g11
Nsg1643
(lp1649
S'parameter'
p1650
asg17
(i__main__
DelphiNamedType
p1651
(dp1652
g20
S'PdParameter'
p1653
sg357
g1
sg358
NsbsbasbasbsbsS'parameterforname'
p1654
(i__main__
DelphiMethodImplementation
p1655
(dp1656
g436
g1233
sg193
g1235
sg201
(lp1657
(i__main__
DelphiFormalParameter
p1658
(dp1659
g225
Nsg226
(lp1660
S'name'
p1661
asg17
(i__main__
DelphiPrimitiveType
p1662
(dp1663
g20
g14
sbsg231
Nsbasg438
(lp1664
sg440
(lp1665
sg442
(lp1666
g444
ag1661
asg445
(dp1667
g1661
g1662
ssg203
S'PdParameterManager'
p1668
sg204
(i__main__
DelphiNamedType
p1669
(dp1670
g20
S'PdParameter'
p1671
sg357
g1
sg358
Nsbsg450
(lp1672
sg208
I0
sg209
g210
sg452
(i__main__
DelphiBlock
p1673
(dp1674
g455
(idelphi
DelphiCompoundStatement
p1675
(dp1676
g458
(lp1677
(i__main__
DelphiAssignStatement
p1678
(dp1679
g493
(idelphi
DelphiNilValue
p1680
(dp1681
bsg498
(i__main__
DelphiIdentAccess
p1682
(dp1683
g15
S'result'
p1684
sg468
(lp1685
sbsba(idelphi
DelphiIfStatement
p1686
(dp1687
g462
(idelphi
DelphiRelOp
p1688
(dp1689
g1045
(i__main__
DelphiIdentAccess
p1690
(dp1691
g15
S'parameters'
p1692
sg468
(lp1693
(idelphi
DelphiFieldEndAccess
p1694
(dp1695
g731
S'count'
p1696
sbasbsg1050
(idelphi
DelphiIntegerValue
p1697
(dp1698
g14
S'0'
sbsg1055
S'>'
sbsg490
Nsg503
(idelphi
DelphiForStatement
p1699
(dp1700
g1498
S'i'
sg1499
(idelphi
DelphiAddOp
p1701
(dp1702
g1502
S'-'
sg1503
(idelphi
DelphiIntegerValue
p1703
(dp1704
g14
S'1'
sbsg1506
(i__main__
DelphiIdentAccess
p1705
(dp1706
g15
S'parameters'
p1707
sg468
(lp1708
(idelphi
DelphiFieldEndAccess
p1709
(dp1710
g731
S'count'
p1711
sbasbsbsg1514
g1515
sg225
(idelphi
DelphiIntegerValue
p1712
(dp1713
g14
S'0'
sbsg792
(idelphi
DelphiCompoundStatement
p1714
(dp1715
g458
(lp1716
(i__main__
DelphiAssignStatement
p1717
(dp1718
g493
(i__main__
DelphiIdentAccess
p1719
(dp1720
g15
S'PdParameter'
p1721
sg468
(lp1722
(idelphi
DelphiFunctionEndAccess
p1723
(dp1724
g470
(lp1725
(i__main__
DelphiIdentAccess
p1726
(dp1727
g15
S'parameters'
p1728
sg468
(lp1729
(idelphi
DelphiFieldEndAccess
p1730
(dp1731
g731
S'items'
p1732
sba(idelphi
DelphiArrayEndAccess
p1733
(dp1734
g470
(lp1735
(i__main__
DelphiIdentAccess
p1736
(dp1737
g15
S'i'
sg468
(lp1738
sbasbasbasbasbsg498
(i__main__
DelphiIdentAccess
p1739
(dp1740
g15
S'parameter'
p1741
sg468
(lp1742
sbsba(idelphi
DelphiIfStatement
p1743
(dp1744
g462
(idelphi
DelphiRelOp
p1745
(dp1746
g1045
(i__main__
DelphiIdentAccess
p1747
(dp1748
g15
S'trim'
p1749
sg468
(lp1750
(idelphi
DelphiFunctionEndAccess
p1751
(dp1752
g470
(lp1753
(i__main__
DelphiIdentAccess
p1754
(dp1755
g15
S'upperCase'
p1756
sg468
(lp1757
(idelphi
DelphiFunctionEndAccess
p1758
(dp1759
g470
(lp1760
(i__main__
DelphiIdentAccess
p1761
(dp1762
g15
S'name'
p1763
sg468
(lp1764
sbasbasbasbasbsg1050
(i__main__
DelphiIdentAccess
p1765
(dp1766
g15
S'trim'
p1767
sg468
(lp1768
(idelphi
DelphiFunctionEndAccess
p1769
(dp1770
g470
(lp1771
(i__main__
DelphiIdentAccess
p1772
(dp1773
g15
S'upperCase'
p1774
sg468
(lp1775
(idelphi
DelphiFunctionEndAccess
p1776
(dp1777
g470
(lp1778
(i__main__
DelphiIdentAccess
p1779
(dp1780
g15
S'parameter'
p1781
sg468
(lp1782
(idelphi
DelphiFieldEndAccess
p1783
(dp1784
g731
S'name'
p1785
sbasbasbasbasbasbsg1055
S'='
sbsg490
Nsg503
(idelphi
DelphiCompoundStatement
p1786
(dp1787
g458
(lp1788
(i__main__
DelphiAssignStatement
p1789
(dp1790
g493
(i__main__
DelphiIdentAccess
p1791
(dp1792
g15
S'parameter'
p1793
sg468
(lp1794
sbsg498
(i__main__
DelphiIdentAccess
p1795
(dp1796
g15
S'result'
p1797
sg468
(lp1798
sbsba(i__main__
DelphiExitStatement
p1799
(dp1800
g1058
g1655
sbasbsbasbsbsba(idelphi
DelphiRaiseStatement
p1801
(dp1802
g462
(i__main__
DelphiIdentAccess
p1803
(dp1804
g15
S'Exception'
p1805
sg468
(lp1806
(idelphi
DelphiFieldEndAccess
p1807
(dp1808
g731
S'create'
p1809
sba(idelphi
DelphiFunctionEndAccess
p1810
(dp1811
g470
(lp1812
(idelphi
DelphiAddOp
p1813
(dp1814
g1502
S'+'
sg1503
(idelphi
DelphiStringAccess
p1815
(dp1816
g468
(lp1817
sg14
(idelphi
DelphiStringValue
p1818
(dp1819
g14
S' in method PdParameterManager.parameterForName.'
p1820
sbsbsg1506
(idelphi
DelphiAddOp
p1821
(dp1822
g1502
S'+'
sg1503
(i__main__
DelphiIdentAccess
p1823
(dp1824
g15
S'name'
p1825
sg468
(lp1826
sbsg1506
(idelphi
DelphiStringAccess
p1827
(dp1828
g468
(lp1829
sg14
(idelphi
DelphiStringValue
p1830
(dp1831
g14
S'Problem: Parameter not found for name '
p1832
sbsbsbsbasbasbsbasbsg514
(lp1833
(i__main__
DelphiVarSection
p1834
(dp1835
g138
I0
sg1639
(lp1836
(idelphi
DelphiVarDecl
p1837
(dp1838
g11
Nsg1643
(lp1839
S'i'
asg17
(i__main__
DelphiPrimitiveType
p1840
(dp1841
g20
g284
sbsba(idelphi
DelphiVarDecl
p1842
(dp1843
g11
Nsg1643
(lp1844
S'parameter'
p1845
asg17
(i__main__
DelphiNamedType
p1846
(dp1847
g20
S'PdParameter'
p1848
sg357
g1
sg358
NsbsbasbasbsbsS'clearparameters'
p1849
(i__main__
DelphiMethodImplementation
p1850
(dp1851
g436
g1247
sg193
g1249
sg201
(lp1852
sg438
(lp1853
sg440
(lp1854
sg442
(lp1855
g444
asg445
(dp1856
sg203
S'PdParameterManager'
p1857
sg204
Nsg450
(lp1858
sg208
I0
sg209
g232
sg452
(i__main__
DelphiBlock
p1859
(dp1860
g455
(idelphi
DelphiCompoundStatement
p1861
(dp1862
g458
(lp1863
(i__main__
DelphiAssignStatement
p1864
(dp1865
g493
Nsg498
(i__main__
DelphiIdentAccess
p1866
(dp1867
g15
S'parameters'
p1868
sg468
(lp1869
(idelphi
DelphiFieldEndAccess
p1870
(dp1871
g731
S'clear'
p1872
sbasbsbasbsg514
(lp1873
sbsbsS'fieldtypename'
p1874
(i__main__
DelphiMethodImplementation
p1875
(dp1876
g436
g1252
sg193
g1254
sg201
(lp1877
(i__main__
DelphiFormalParameter
p1878
(dp1879
g225
Nsg226
(lp1880
S'fieldType'
p1881
asg17
(i__main__
DelphiPrimitiveType
p1882
(dp1883
g20
g272
sbsg231
Nsbasg438
(lp1884
sg440
(lp1885
sg442
(lp1886
g444
ag1881
asg445
(dp1887
g1881
g1882
ssg203
S'PdParameterManager'
p1888
sg204
(i__main__
DelphiPrimitiveType
p1889
(dp1890
g20
g14
sbsg450
(lp1891
sg208
I0
sg209
g210
sg452
(i__main__
DelphiBlock
p1892
(dp1893
g455
(idelphi
DelphiCompoundStatement
p1894
(dp1895
g458
(lp1896
(idelphi
DelphiCaseStatement
p1897
(dp1898
g765
(i__main__
DelphiAssignStatement
p1899
(dp1900
g493
(idelphi
DelphiStringAccess
p1901
(dp1902
g468
(lp1903
sg14
(idelphi
DelphiStringValue
p1904
(dp1905
g14
S'not in list'
p1906
sbsbsg498
(i__main__
DelphiIdentAccess
p1907
(dp1908
g15
S'result'
p1909
sg468
(lp1910
sbsbsg462
(i__main__
DelphiIdentAccess
p1911
(dp1912
g15
S'fieldType'
p1913
sg468
(lp1914
sbsg788
(lp1915
(idelphi
DelphiCaseSelector
p1916
(dp1917
g792
(i__main__
DelphiAssignStatement
p1918
(dp1919
g493
(idelphi
DelphiStringAccess
p1920
(dp1921
g468
(lp1922
sg14
(idelphi
DelphiStringValue
p1923
(dp1924
g14
S'Undefined'
p1925
sbsbsg498
(i__main__
DelphiIdentAccess
p1926
(dp1927
g15
S'result'
p1928
sg468
(lp1929
sbsbsg801
(lp1930
(i__main__
DelphiIdentAccess
p1931
(dp1932
g15
S'kFieldUndefined'
p1933
sg468
(lp1934
sbasba(idelphi
DelphiCaseSelector
p1935
(dp1936
g792
(i__main__
DelphiAssignStatement
p1937
(dp1938
g493
(idelphi
DelphiStringAccess
p1939
(dp1940
g468
(lp1941
sg14
(idelphi
DelphiStringValue
p1942
(dp1943
g14
S'Single'
p1944
sbsbsg498
(i__main__
DelphiIdentAccess
p1945
(dp1946
g15
S'result'
p1947
sg468
(lp1948
sbsbsg801
(lp1949
(i__main__
DelphiIdentAccess
p1950
(dp1951
g15
S'kFieldFloat'
p1952
sg468
(lp1953
sbasba(idelphi
DelphiCaseSelector
p1954
(dp1955
g792
(i__main__
DelphiAssignStatement
p1956
(dp1957
g493
(idelphi
DelphiStringAccess
p1958
(dp1959
g468
(lp1960
sg14
(idelphi
DelphiStringValue
p1961
(dp1962
g14
S'Smallint'
p1963
sbsbsg498
(i__main__
DelphiIdentAccess
p1964
(dp1965
g15
S'result'
p1966
sg468
(lp1967
sbsbsg801
(lp1968
(i__main__
DelphiIdentAccess
p1969
(dp1970
g15
S'kFieldSmallint'
p1971
sg468
(lp1972
sbasba(idelphi
DelphiCaseSelector
p1973
(dp1974
g792
(i__main__
DelphiAssignStatement
p1975
(dp1976
g493
(idelphi
DelphiStringAccess
p1977
(dp1978
g468
(lp1979
sg14
(idelphi
DelphiStringValue
p1980
(dp1981
g14
S'Color'
p1982
sbsbsg498
(i__main__
DelphiIdentAccess
p1983
(dp1984
g15
S'result'
p1985
sg468
(lp1986
sbsbsg801
(lp1987
(i__main__
DelphiIdentAccess
p1988
(dp1989
g15
S'kFieldColor'
p1990
sg468
(lp1991
sbasba(idelphi
DelphiCaseSelector
p1992
(dp1993
g792
(i__main__
DelphiAssignStatement
p1994
(dp1995
g493
(idelphi
DelphiStringAccess
p1996
(dp1997
g468
(lp1998
sg14
(idelphi
DelphiStringValue
p1999
(dp2000
g14
S'Boolean'
p2001
sbsbsg498
(i__main__
DelphiIdentAccess
p2002
(dp2003
g15
S'result'
p2004
sg468
(lp2005
sbsbsg801
(lp2006
(i__main__
DelphiIdentAccess
p2007
(dp2008
g15
S'kFieldBoolean'
p2009
sg468
(lp2010
sbasba(idelphi
DelphiCaseSelector
p2011
(dp2012
g792
(i__main__
DelphiAssignStatement
p2013
(dp2014
g493
(idelphi
DelphiStringAccess
p2015
(dp2016
g468
(lp2017
sg14
(idelphi
DelphiStringValue
p2018
(dp2019
g14
S'3D object'
p2020
sbsbsg498
(i__main__
DelphiIdentAccess
p2021
(dp2022
g15
S'result'
p2023
sg468
(lp2024
sbsbsg801
(lp2025
(i__main__
DelphiIdentAccess
p2026
(dp2027
g15
S'kFieldThreeDObject'
p2028
sg468
(lp2029
sbasba(idelphi
DelphiCaseSelector
p2030
(dp2031
g792
(i__main__
DelphiAssignStatement
p2032
(dp2033
g493
(idelphi
DelphiStringAccess
p2034
(dp2035
g468
(lp2036
sg14
(idelphi
DelphiStringValue
p2037
(dp2038
g14
S'List of choices'
p2039
sbsbsg498
(i__main__
DelphiIdentAccess
p2040
(dp2041
g15
S'result'
p2042
sg468
(lp2043
sbsbsg801
(lp2044
(i__main__
DelphiIdentAccess
p2045
(dp2046
g15
S'kFieldEnumeratedList'
p2047
sg468
(lp2048
sbasba(idelphi
DelphiCaseSelector
p2049
(dp2050
g792
(i__main__
DelphiAssignStatement
p2051
(dp2052
g493
(idelphi
DelphiStringAccess
p2053
(dp2054
g468
(lp2055
sg14
(idelphi
DelphiStringValue
p2056
(dp2057
g14
S'Longint'
p2058
sbsbsg498
(i__main__
DelphiIdentAccess
p2059
(dp2060
g15
S'result'
p2061
sg468
(lp2062
sbsbsg801
(lp2063
(i__main__
DelphiIdentAccess
p2064
(dp2065
g15
S'kFieldLongint'
p2066
sg468
(lp2067
sbasbasbasbsg514
(lp2068
sbsbsS'create'
p2069
(i__main__
DelphiMethodImplementation
p2070
(dp2071
g436
g1265
sg193
g1267
sg201
(lp2072
sg438
(lp2073
sg440
(lp2074
sg442
(lp2075
g444
asg445
(dp2076
sg203
S'PdParameterManager'
p2077
sg204
Nsg450
(lp2078
sg208
I0
sg209
g238
sg452
(i__main__
DelphiBlock
p2079
(dp2080
g455
(idelphi
DelphiCompoundStatement
p2081
(dp2082
g458
(lp2083
(i__main__
DelphiAssignStatement
p2084
(dp2085
g493
Nsg498
(idelphi
DelphiInheritedCall
p2086
(dp2087
g15
S'create'
p2088
sg470
Nsbsba(i__main__
DelphiAssignStatement
p2089
(dp2090
g493
(i__main__
DelphiIdentAccess
p2091
(dp2092
g15
S'TListCollection'
p2093
sg468
(lp2094
(idelphi
DelphiFieldEndAccess
p2095
(dp2096
g731
S'create'
p2097
sbasbsg498
(i__main__
DelphiIdentAccess
p2098
(dp2099
g15
S'parameters'
p2100
sg468
(lp2101
sbsbasbsg514
(lp2102
sbsg239
(lp2103
S' ---------------------------------------------------- PdParameterManager '
p2104
asbsS'parameterforfieldid'
p2105
(i__main__
DelphiMethodImplementation
p2106
(dp2107
g436
g1270
sg193
g1272
sg201
(lp2108
(i__main__
DelphiFormalParameter
p2109
(dp2110
g225
Nsg226
(lp2111
S'fieldID'
p2112
asg17
(i__main__
DelphiPrimitiveType
p2113
(dp2114
g20
g14
sbsg231
Nsbasg438
(lp2115
sg440
(lp2116
sg442
(lp2117
g444
ag2112
asg445
(dp2118
g2112
g2113
ssg203
S'PdParameterManager'
p2119
sg204
(i__main__
DelphiNamedType
p2120
(dp2121
g20
S'PdParameter'
p2122
sg357
g1
sg358
Nsbsg450
(lp2123
sg208
I0
sg209
g210
sg452
(i__main__
DelphiBlock
p2124
(dp2125
g455
(idelphi
DelphiCompoundStatement
p2126
(dp2127
g458
(lp2128
(i__main__
DelphiAssignStatement
p2129
(dp2130
g493
(idelphi
DelphiNilValue
p2131
(dp2132
bsg498
(i__main__
DelphiIdentAccess
p2133
(dp2134
g15
S'result'
p2135
sg468
(lp2136
sbsba(idelphi
DelphiIfStatement
p2137
(dp2138
g462
(idelphi
DelphiRelOp
p2139
(dp2140
g1045
(i__main__
DelphiIdentAccess
p2141
(dp2142
g15
S'parameters'
p2143
sg468
(lp2144
(idelphi
DelphiFieldEndAccess
p2145
(dp2146
g731
S'count'
p2147
sbasbsg1050
(idelphi
DelphiIntegerValue
p2148
(dp2149
g14
S'0'
sbsg1055
S'>'
sbsg490
Nsg503
(idelphi
DelphiForStatement
p2150
(dp2151
g1498
S'i'
sg1499
(idelphi
DelphiAddOp
p2152
(dp2153
g1502
S'-'
sg1503
(idelphi
DelphiIntegerValue
p2154
(dp2155
g14
S'1'
sbsg1506
(i__main__
DelphiIdentAccess
p2156
(dp2157
g15
S'parameters'
p2158
sg468
(lp2159
(idelphi
DelphiFieldEndAccess
p2160
(dp2161
g731
S'count'
p2162
sbasbsbsg1514
g1515
sg225
(idelphi
DelphiIntegerValue
p2163
(dp2164
g14
S'0'
sbsg792
(idelphi
DelphiCompoundStatement
p2165
(dp2166
g458
(lp2167
(i__main__
DelphiAssignStatement
p2168
(dp2169
g493
(i__main__
DelphiIdentAccess
p2170
(dp2171
g15
S'PdParameter'
p2172
sg468
(lp2173
(idelphi
DelphiFunctionEndAccess
p2174
(dp2175
g470
(lp2176
(i__main__
DelphiIdentAccess
p2177
(dp2178
g15
S'parameters'
p2179
sg468
(lp2180
(idelphi
DelphiFieldEndAccess
p2181
(dp2182
g731
S'items'
p2183
sba(idelphi
DelphiArrayEndAccess
p2184
(dp2185
g470
(lp2186
(i__main__
DelphiIdentAccess
p2187
(dp2188
g15
S'i'
sg468
(lp2189
sbasbasbasbasbsg498
(i__main__
DelphiIdentAccess
p2190
(dp2191
g15
S'parameter'
p2192
sg468
(lp2193
sbsba(idelphi
DelphiIfStatement
p2194
(dp2195
g462
(idelphi
DelphiRelOp
p2196
(dp2197
g1045
(i__main__
DelphiIdentAccess
p2198
(dp2199
g15
S'trim'
p2200
sg468
(lp2201
(idelphi
DelphiFunctionEndAccess
p2202
(dp2203
g470
(lp2204
(i__main__
DelphiIdentAccess
p2205
(dp2206
g15
S'upperCase'
p2207
sg468
(lp2208
(idelphi
DelphiFunctionEndAccess
p2209
(dp2210
g470
(lp2211
(i__main__
DelphiIdentAccess
p2212
(dp2213
g15
S'fieldID'
p2214
sg468
(lp2215
sbasbasbasbasbsg1050
(i__main__
DelphiIdentAccess
p2216
(dp2217
g15
S'trim'
p2218
sg468
(lp2219
(idelphi
DelphiFunctionEndAccess
p2220
(dp2221
g470
(lp2222
(i__main__
DelphiIdentAccess
p2223
(dp2224
g15
S'upperCase'
p2225
sg468
(lp2226
(idelphi
DelphiFunctionEndAccess
p2227
(dp2228
g470
(lp2229
(i__main__
DelphiIdentAccess
p2230
(dp2231
g15
S'parameter'
p2232
sg468
(lp2233
(idelphi
DelphiFieldEndAccess
p2234
(dp2235
g731
S'fieldID'
p2236
sbasbasbasbasbasbsg1055
S'='
sbsg490
Nsg503
(idelphi
DelphiCompoundStatement
p2237
(dp2238
g458
(lp2239
(i__main__
DelphiAssignStatement
p2240
(dp2241
g493
(i__main__
DelphiIdentAccess
p2242
(dp2243
g15
S'parameter'
p2244
sg468
(lp2245
sbsg498
(i__main__
DelphiIdentAccess
p2246
(dp2247
g15
S'result'
p2248
sg468
(lp2249
sbsba(i__main__
DelphiExitStatement
p2250
(dp2251
g1058
g2106
sbasbsbasbsbsba(idelphi
DelphiRaiseStatement
p2252
(dp2253
g462
(i__main__
DelphiIdentAccess
p2254
(dp2255
g15
S'Exception'
p2256
sg468
(lp2257
(idelphi
DelphiFieldEndAccess
p2258
(dp2259
g731
S'create'
p2260
sba(idelphi
DelphiFunctionEndAccess
p2261
(dp2262
g470
(lp2263
(idelphi
DelphiAddOp
p2264
(dp2265
g1502
S'+'
sg1503
(idelphi
DelphiStringAccess
p2266
(dp2267
g468
(lp2268
sg14
(idelphi
DelphiStringValue
p2269
(dp2270
g14
S' in method PdParameterManager.parameterForFieldID.'
p2271
sbsbsg1506
(idelphi
DelphiAddOp
p2272
(dp2273
g1502
S'+'
sg1503
(i__main__
DelphiIdentAccess
p2274
(dp2275
g15
S'fieldID'
p2276
sg468
(lp2277
sbsg1506
(idelphi
DelphiStringAccess
p2278
(dp2279
g468
(lp2280
sg14
(idelphi
DelphiStringValue
p2281
(dp2282
g14
S'Problem: Parameter not found for field ID '
p2283
sbsbsbsbasbasbsbasbsg514
(lp2284
(i__main__
DelphiVarSection
p2285
(dp2286
g138
I0
sg1639
(lp2287
(idelphi
DelphiVarDecl
p2288
(dp2289
g11
Nsg1643
(lp2290
S'i'
asg17
(i__main__
DelphiPrimitiveType
p2291
(dp2292
g20
g284
sbsba(idelphi
DelphiVarDecl
p2293
(dp2294
g11
Nsg1643
(lp2295
S'parameter'
p2296
asg17
(i__main__
DelphiNamedType
p2297
(dp2298
g20
S'PdParameter'
p2299
sg357
g1
sg358
NsbsbasbasbsbsS'addparameterforsection'
p2300
(i__main__
DelphiMethodImplementation
p2301
(dp2302
g436
g1284
sg193
g1286
sg201
(lp2303
(i__main__
DelphiFormalParameter
p2304
(dp2305
g225
Nsg226
(lp2306
S'sectionName'
p2307
asg17
(i__main__
DelphiPrimitiveType
p2308
(dp2309
g20
g14
sbsg231
Nsba(i__main__
DelphiFormalParameter
p2310
(dp2311
g225
Nsg226
(lp2312
S'orthogonalSectionName'
p2313
asg17
(i__main__
DelphiPrimitiveType
p2314
(dp2315
g20
g14
sbsg231
Nsba(i__main__
DelphiFormalParameter
p2316
(dp2317
g225
Nsg226
(lp2318
S'newParameter'
p2319
asg17
(i__main__
DelphiNamedType
p2320
(dp2321
g20
S'PdParameter'
p2322
sg357
g1
sg358
Nsbsg231
Nsbasg438
(lp2323
sg440
(lp2324
sg442
(lp2325
g444
ag2307
ag2313
ag2319
asg445
(dp2326
g2319
g2320
sg2313
g2314
sg2307
g2308
ssg203
S'PdParameterManager'
p2327
sg204
Nsg450
(lp2328
sg208
I0
sg209
g232
sg452
(i__main__
DelphiBlock
p2329
(dp2330
g455
(idelphi
DelphiCompoundStatement
p2331
(dp2332
g458
(lp2333
(i__main__
DelphiAssignStatement
p2334
(dp2335
g493
(idelphi
DelphiNilValue
p2336
(dp2337
bsg498
(i__main__
DelphiIdentAccess
p2338
(dp2339
g15
S'section'
p2340
sg468
(lp2341
sbsba(i__main__
DelphiAssignStatement
p2342
(dp2343
g493
(i__main__
DelphiIdentAccess
p2344
(dp2345
g15
S'domain'
p2346
sg468
(lp2347
(idelphi
DelphiFieldEndAccess
p2348
(dp2349
g731
S'sectionManager'
p2350
sba(idelphi
DelphiFieldEndAccess
p2351
(dp2352
g731
S'sectionForName'
p2353
sba(idelphi
DelphiFunctionEndAccess
p2354
(dp2355
g470
(lp2356
(i__main__
DelphiIdentAccess
p2357
(dp2358
g15
S'sectionName'
p2359
sg468
(lp2360
sbasbasbsg498
(i__main__
DelphiIdentAccess
p2361
(dp2362
g15
S'section'
p2363
sg468
(lp2364
sbsba(idelphi
DelphiIfStatement
p2365
(dp2366
g462
(idelphi
DelphiRelOp
p2367
(dp2368
g1045
(i__main__
DelphiIdentAccess
p2369
(dp2370
g15
S'section'
p2371
sg468
(lp2372
sbsg1050
(idelphi
DelphiNilValue
p2373
(dp2374
bsg1055
S'='
sbsg490
Nsg503
(idelphi
DelphiCompoundStatement
p2375
(dp2376
g458
(lp2377
(i__main__
DelphiAssignStatement
p2378
(dp2379
g493
(i__main__
DelphiIdentAccess
p2380
(dp2381
g15
S'domain'
p2382
sg468
(lp2383
(idelphi
DelphiFieldEndAccess
p2384
(dp2385
g731
S'sectionManager'
p2386
sba(idelphi
DelphiFieldEndAccess
p2387
(dp2388
g731
S'addSection'
p2389
sba(idelphi
DelphiFunctionEndAccess
p2390
(dp2391
g470
(lp2392
(i__main__
DelphiIdentAccess
p2393
(dp2394
g15
S'sectionName'
p2395
sg468
(lp2396
sbasbasbsg498
(i__main__
DelphiIdentAccess
p2397
(dp2398
g15
S'section'
p2399
sg468
(lp2400
sbsba(i__main__
DelphiAssignStatement
p2401
(dp2402
g493
(idelphi
DelphiNot
p2403
(dp2404
g485
(idelphi
DelphiNestedExpressionListAccess
p2405
(dp2406
g468
(lp2407
sg470
(lp2408
(idelphi
DelphiRelOp
p2409
(dp2410
g1045
(i__main__
DelphiIdentAccess
p2411
(dp2412
g15
S'upperCase'
p2413
sg468
(lp2414
(idelphi
DelphiFunctionEndAccess
p2415
(dp2416
g470
(lp2417
(i__main__
DelphiIdentAccess
p2418
(dp2419
g15
S'sectionName'
p2420
sg468
(lp2421
sbasbasbsg1050
(i__main__
DelphiIdentAccess
p2422
(dp2423
g15
S'upperCase'
p2424
sg468
(lp2425
(idelphi
DelphiFunctionEndAccess
p2426
(dp2427
g470
(lp2428
(idelphi
DelphiStringAccess
p2429
(dp2430
g468
(lp2431
sg14
(idelphi
DelphiStringValue
p2432
(dp2433
g14
S'(no section)'
p2434
sbsbasbasbsg1055
S'='
sbasbsbsg498
(i__main__
DelphiIdentAccess
p2435
(dp2436
g15
S'section'
p2437
sg468
(lp2438
(idelphi
DelphiFieldEndAccess
p2439
(dp2440
g731
S'showInParametersWindow'
p2441
sbasbsg239
(lp2442
S" the 'no section' section is hidden from the parameters window but we still want the section for writing out "
p2443
asbasbsba(i__main__
DelphiAssignStatement
p2444
(dp2445
g493
Nsg498
(i__main__
DelphiIdentAccess
p2446
(dp2447
g15
S'self'
p2448
sg468
(lp2449
(idelphi
DelphiFieldEndAccess
p2450
(dp2451
g731
S'addParameter'
p2452
sba(idelphi
DelphiFunctionEndAccess
p2453
(dp2454
g470
(lp2455
(i__main__
DelphiIdentAccess
p2456
(dp2457
g15
S'newParameter'
p2458
sg468
(lp2459
sbasbasbsba(idelphi
DelphiIfStatement
p2460
(dp2461
g462
(idelphi
DelphiRelOp
p2462
(dp2463
g1045
(i__main__
DelphiIdentAccess
p2464
(dp2465
g15
S'section'
p2466
sg468
(lp2467
sbsg1050
(idelphi
DelphiNilValue
p2468
(dp2469
bsg1055
S'<>'
p2470
sbsg490
Nsg503
(idelphi
DelphiCompoundStatement
p2471
(dp2472
g458
(lp2473
(i__main__
DelphiAssignStatement
p2474
(dp2475
g493
(i__main__
DelphiIdentAccess
p2476
(dp2477
g15
S'sectionName'
p2478
sg468
(lp2479
sbsg498
(i__main__
DelphiIdentAccess
p2480
(dp2481
g15
S'newParameter'
p2482
sg468
(lp2483
(idelphi
DelphiFieldEndAccess
p2484
(dp2485
g731
S'originalSectionName'
p2486
sbasbsba(i__main__
DelphiAssignStatement
p2487
(dp2488
g493
Nsg498
(i__main__
DelphiIdentAccess
p2489
(dp2490
g15
S'section'
p2491
sg468
(lp2492
(idelphi
DelphiFieldEndAccess
p2493
(dp2494
g731
S'addSectionItem'
p2495
sba(idelphi
DelphiFunctionEndAccess
p2496
(dp2497
g470
(lp2498
(i__main__
DelphiIdentAccess
p2499
(dp2500
g15
S'newParameter'
p2501
sg468
(lp2502
(idelphi
DelphiFieldEndAccess
p2503
(dp2504
g731
S'fieldNumber'
p2505
sbasbasbasbsbasbsba(i__main__
DelphiAssignStatement
p2506
(dp2507
g493
(i__main__
DelphiIdentAccess
p2508
(dp2509
g15
S'trim'
p2510
sg468
(lp2511
(idelphi
DelphiFunctionEndAccess
p2512
(dp2513
g470
(lp2514
(i__main__
DelphiIdentAccess
p2515
(dp2516
g15
S'orthogonalSectionName'
p2517
sg468
(lp2518
sbasbasbsg498
(i__main__
DelphiIdentAccess
p2519
(dp2520
g15
S'orthogonalSectionName'
p2521
sg468
(lp2522
sbsg239
(lp2523
S' v2.1 orthogonal sections\r'
p2524
aS' limitation - each param can only have one orthogonal section specified\r'
p2525
aS' if want to add more later, use delimiter and parse\r'
p2526
asba(idelphi
DelphiIfStatement
p2527
(dp2528
g462
(idelphi
DelphiRelOp
p2529
(dp2530
g1045
(i__main__
DelphiIdentAccess
p2531
(dp2532
g15
S'orthogonalSectionName'
p2533
sg468
(lp2534
sbsg1050
(idelphi
DelphiStringAccess
p2535
(dp2536
g468
(lp2537
sg14
(idelphi
DelphiStringValue
p2538
(dp2539
g14
S''
sbsbsg1055
g2470
sbsg490
Nsg503
(idelphi
DelphiCompoundStatement
p2540
(dp2541
g458
(lp2542
(i__main__
DelphiAssignStatement
p2543
(dp2544
g493
(idelphi
DelphiNilValue
p2545
(dp2546
bsg498
(i__main__
DelphiIdentAccess
p2547
(dp2548
g15
S'section'
p2549
sg468
(lp2550
sbsba(i__main__
DelphiAssignStatement
p2551
(dp2552
g493
(i__main__
DelphiIdentAccess
p2553
(dp2554
g15
S'domain'
p2555
sg468
(lp2556
(idelphi
DelphiFieldEndAccess
p2557
(dp2558
g731
S'sectionManager'
p2559
sba(idelphi
DelphiFieldEndAccess
p2560
(dp2561
g731
S'sectionForName'
p2562
sba(idelphi
DelphiFunctionEndAccess
p2563
(dp2564
g470
(lp2565
(i__main__
DelphiIdentAccess
p2566
(dp2567
g15
S'orthogonalSectionName'
p2568
sg468
(lp2569
sbasbasbsg498
(i__main__
DelphiIdentAccess
p2570
(dp2571
g15
S'section'
p2572
sg468
(lp2573
sbsba(idelphi
DelphiIfStatement
p2574
(dp2575
g462
(idelphi
DelphiRelOp
p2576
(dp2577
g1045
(i__main__
DelphiIdentAccess
p2578
(dp2579
g15
S'section'
p2580
sg468
(lp2581
sbsg1050
(idelphi
DelphiNilValue
p2582
(dp2583
bsg1055
S'='
sbsg490
Nsg503
(idelphi
DelphiCompoundStatement
p2584
(dp2585
g458
(lp2586
(i__main__
DelphiAssignStatement
p2587
(dp2588
g493
(i__main__
DelphiIdentAccess
p2589
(dp2590
g15
S'domain'
p2591
sg468
(lp2592
(idelphi
DelphiFieldEndAccess
p2593
(dp2594
g731
S'sectionManager'
p2595
sba(idelphi
DelphiFieldEndAccess
p2596
(dp2597
g731
S'addOrthogonalSection'
p2598
sba(idelphi
DelphiFunctionEndAccess
p2599
(dp2600
g470
(lp2601
(i__main__
DelphiIdentAccess
p2602
(dp2603
g15
S'orthogonalSectionName'
p2604
sg468
(lp2605
sbasbasbsg498
(i__main__
DelphiIdentAccess
p2606
(dp2607
g15
S'section'
p2608
sg468
(lp2609
sbsba(i__main__
DelphiAssignStatement
p2610
(dp2611
g493
(i__main__
DelphiIdentAccess
p2612
(dp2613
g15
S'true'
p2614
sg468
(lp2615
sbsg498
(i__main__
DelphiIdentAccess
p2616
(dp2617
g15
S'section'
p2618
sg468
(lp2619
(idelphi
DelphiFieldEndAccess
p2620
(dp2621
g731
S'showInParametersWindow'
p2622
sbasbsba(i__main__
DelphiAssignStatement
p2623
(dp2624
g493
(i__main__
DelphiIdentAccess
p2625
(dp2626
g15
S'true'
p2627
sg468
(lp2628
sbsg498
(i__main__
DelphiIdentAccess
p2629
(dp2630
g15
S'section'
p2631
sg468
(lp2632
(idelphi
DelphiFieldEndAccess
p2633
(dp2634
g731
S'isOrthogonal'
p2635
sbasbsbasbsba(idelphi
DelphiIfStatement
p2636
(dp2637
g462
(idelphi
DelphiRelOp
p2638
(dp2639
g1045
(i__main__
DelphiIdentAccess
p2640
(dp2641
g15
S'section'
p2642
sg468
(lp2643
sbsg1050
(idelphi
DelphiNilValue
p2644
(dp2645
bsg1055
g2470
sbsg490
Nsg503
(i__main__
DelphiAssignStatement
p2646
(dp2647
g493
Nsg498
(i__main__
DelphiIdentAccess
p2648
(dp2649
g15
S'section'
p2650
sg468
(lp2651
(idelphi
DelphiFieldEndAccess
p2652
(dp2653
g731
S'addSectionItem'
p2654
sba(idelphi
DelphiFunctionEndAccess
p2655
(dp2656
g470
(lp2657
(i__main__
DelphiIdentAccess
p2658
(dp2659
g15
S'newParameter'
p2660
sg468
(lp2661
(idelphi
DelphiFieldEndAccess
p2662
(dp2663
g731
S'fieldNumber'
p2664
sbasbasbasbsbsbasbsbasbsg514
(lp2665
(i__main__
DelphiVarSection
p2666
(dp2667
g138
I0
sg1639
(lp2668
(idelphi
DelphiVarDecl
p2669
(dp2670
g11
Nsg1643
(lp2671
S'section'
p2672
asg17
(i__main__
DelphiNamedType
p2673
(dp2674
g20
S'PdSection'
p2675
sg357
g1
sg358
NsbsbasbasbsbsS'setallreadflagstofalse'
p2676
(i__main__
DelphiMethodImplementation
p2677
(dp2678
g436
g1215
sg193
g1217
sg201
(lp2679
sg438
(lp2680
sg440
(lp2681
sg442
(lp2682
g444
asg445
(dp2683
sg203
S'PdParameterManager'
p2684
sg204
Nsg450
(lp2685
sg208
I0
sg209
g232
sg452
(i__main__
DelphiBlock
p2686
(dp2687
g455
(idelphi
DelphiCompoundStatement
p2688
(dp2689
g458
(lp2690
(idelphi
DelphiIfStatement
p2691
(dp2692
g462
(idelphi
DelphiRelOp
p2693
(dp2694
g1045
(i__main__
DelphiIdentAccess
p2695
(dp2696
g15
S'parameters'
p2697
sg468
(lp2698
(idelphi
DelphiFieldEndAccess
p2699
(dp2700
g731
S'count'
p2701
sbasbsg1050
(idelphi
DelphiIntegerValue
p2702
(dp2703
g14
S'0'
sbsg1055
S'>'
sbsg490
Nsg503
(idelphi
DelphiForStatement
p2704
(dp2705
g1498
S'i'
sg1499
(idelphi
DelphiAddOp
p2706
(dp2707
g1502
S'-'
sg1503
(idelphi
DelphiIntegerValue
p2708
(dp2709
g14
S'1'
sbsg1506
(i__main__
DelphiIdentAccess
p2710
(dp2711
g15
S'parameters'
p2712
sg468
(lp2713
(idelphi
DelphiFieldEndAccess
p2714
(dp2715
g731
S'count'
p2716
sbasbsbsg1514
g1515
sg225
(idelphi
DelphiIntegerValue
p2717
(dp2718
g14
S'0'
sbsg792
(i__main__
DelphiAssignStatement
p2719
(dp2720
g493
(i__main__
DelphiIdentAccess
p2721
(dp2722
g15
S'false'
p2723
sg468
(lp2724
sbsg498
(i__main__
DelphiIdentAccess
p2725
(dp2726
g15
S'PdParameter'
p2727
sg468
(lp2728
(idelphi
DelphiFunctionEndAccess
p2729
(dp2730
g470
(lp2731
(i__main__
DelphiIdentAccess
p2732
(dp2733
g15
S'parameters'
p2734
sg468
(lp2735
(idelphi
DelphiFieldEndAccess
p2736
(dp2737
g731
S'items'
p2738
sba(idelphi
DelphiArrayEndAccess
p2739
(dp2740
g470
(lp2741
(i__main__
DelphiIdentAccess
p2742
(dp2743
g15
S'i'
sg468
(lp2744
sbasbasbasba(idelphi
DelphiFieldEndAccess
p2745
(dp2746
g731
S'valueHasBeenReadForCurrentPlant'
p2747
sbasbsbsbsbasbsg514
(lp2748
(i__main__
DelphiVarSection
p2749
(dp2750
g138
I0
sg1639
(lp2751
(idelphi
DelphiVarDecl
p2752
(dp2753
g11
Nsg1643
(lp2754
S'i'
asg17
(i__main__
DelphiPrimitiveType
p2755
(dp2756
g20
g284
sbsbasbasbsbsS'addparameter'
p2757
(i__main__
DelphiMethodImplementation
p2758
(dp2759
g436
g1313
sg193
g1315
sg201
(lp2760
(i__main__
DelphiFormalParameter
p2761
(dp2762
g225
Nsg226
(lp2763
S'newParameter'
p2764
asg17
(i__main__
DelphiNamedType
p2765
(dp2766
g20
S'PdParameter'
p2767
sg357
g1
sg358
Nsbsg231
Nsbasg438
(lp2768
sg440
(lp2769
sg442
(lp2770
g444
ag2764
asg445
(dp2771
g2764
g2765
ssg203
S'PdParameterManager'
p2772
sg204
Nsg450
(lp2773
sg208
I0
sg209
g232
sg452
(i__main__
DelphiBlock
p2774
(dp2775
g455
(idelphi
DelphiCompoundStatement
p2776
(dp2777
g458
(lp2778
(idelphi
DelphiIfStatement
p2779
(dp2780
g462
(idelphi
DelphiRelOp
p2781
(dp2782
g1045
(i__main__
DelphiIdentAccess
p2783
(dp2784
g15
S'newParameter'
p2785
sg468
(lp2786
sbsg1050
(idelphi
DelphiNilValue
p2787
(dp2788
bsg1055
g2470
sbsg490
Nsg503
(i__main__
DelphiAssignStatement
p2789
(dp2790
g493
Nsg498
(i__main__
DelphiIdentAccess
p2791
(dp2792
g15
S'parameters'
p2793
sg468
(lp2794
(idelphi
DelphiFieldEndAccess
p2795
(dp2796
g731
S'add'
p2797
sba(idelphi
DelphiFunctionEndAccess
p2798
(dp2799
g470
(lp2800
(i__main__
DelphiIdentAccess
p2801
(dp2802
g15
S'newParameter'
p2803
sg468
(lp2804
sbasbasbsbsbasbsg514
(lp2805
sbsbsS'parameterindexforfieldnumber'
p2806
(i__main__
DelphiMethodImplementation
p2807
(dp2808
g436
g1325
sg193
g1327
sg201
(lp2809
(i__main__
DelphiFormalParameter
p2810
(dp2811
g225
Nsg226
(lp2812
S'fieldNumber'
p2813
asg17
(i__main__
DelphiPrimitiveType
p2814
(dp2815
g20
g1335
sbsg231
Nsbasg438
(lp2816
sg440
(lp2817
sg442
(lp2818
g444
ag2813
asg445
(dp2819
g2813
g2814
ssg203
S'PdParameterManager'
p2820
sg204
(i__main__
DelphiPrimitiveType
p2821
(dp2822
g20
g272
sbsg450
(lp2823
sg208
I0
sg209
g210
sg452
(i__main__
DelphiBlock
p2824
(dp2825
g455
(idelphi
DelphiCompoundStatement
p2826
(dp2827
g458
(lp2828
(i__main__
DelphiAssignStatement
p2829
(dp2830
g493
(idelphi
DelphiIntegerValue
p2831
(dp2832
g14
S'0'
sbsg498
(i__main__
DelphiIdentAccess
p2833
(dp2834
g15
S'result'
p2835
sg468
(lp2836
sbsba(idelphi
DelphiIfStatement
p2837
(dp2838
g462
(idelphi
DelphiRelOp
p2839
(dp2840
g1045
(i__main__
DelphiIdentAccess
p2841
(dp2842
g15
S'parameters'
p2843
sg468
(lp2844
(idelphi
DelphiFieldEndAccess
p2845
(dp2846
g731
S'count'
p2847
sbasbsg1050
(idelphi
DelphiIntegerValue
p2848
(dp2849
g14
S'0'
sbsg1055
S'>'
sbsg490
Nsg503
(idelphi
DelphiForStatement
p2850
(dp2851
g1498
S'i'
sg1499
(idelphi
DelphiAddOp
p2852
(dp2853
g1502
S'-'
sg1503
(idelphi
DelphiIntegerValue
p2854
(dp2855
g14
S'1'
sbsg1506
(i__main__
DelphiIdentAccess
p2856
(dp2857
g15
S'parameters'
p2858
sg468
(lp2859
(idelphi
DelphiFieldEndAccess
p2860
(dp2861
g731
S'count'
p2862
sbasbsbsg1514
g1515
sg225
(idelphi
DelphiIntegerValue
p2863
(dp2864
g14
S'0'
sbsg792
(idelphi
DelphiCompoundStatement
p2865
(dp2866
g458
(lp2867
(i__main__
DelphiAssignStatement
p2868
(dp2869
g493
(i__main__
DelphiIdentAccess
p2870
(dp2871
g15
S'PdParameter'
p2872
sg468
(lp2873
(idelphi
DelphiFunctionEndAccess
p2874
(dp2875
g470
(lp2876
(i__main__
DelphiIdentAccess
p2877
(dp2878
g15
S'parameters'
p2879
sg468
(lp2880
(idelphi
DelphiFieldEndAccess
p2881
(dp2882
g731
S'items'
p2883
sba(idelphi
DelphiArrayEndAccess
p2884
(dp2885
g470
(lp2886
(i__main__
DelphiIdentAccess
p2887
(dp2888
g15
S'i'
sg468
(lp2889
sbasbasbasbasbsg498
(i__main__
DelphiIdentAccess
p2890
(dp2891
g15
S'parameter'
p2892
sg468
(lp2893
sbsba(idelphi
DelphiIfStatement
p2894
(dp2895
g462
(idelphi
DelphiRelOp
p2896
(dp2897
g1045
(i__main__
DelphiIdentAccess
p2898
(dp2899
g15
S'fieldNumber'
p2900
sg468
(lp2901
sbsg1050
(i__main__
DelphiIdentAccess
p2902
(dp2903
g15
S'parameter'
p2904
sg468
(lp2905
(idelphi
DelphiFieldEndAccess
p2906
(dp2907
g731
S'fieldNumber'
p2908
sbasbsg1055
S'='
sbsg490
Nsg503
(idelphi
DelphiCompoundStatement
p2909
(dp2910
g458
(lp2911
(i__main__
DelphiAssignStatement
p2912
(dp2913
g493
(i__main__
DelphiIdentAccess
p2914
(dp2915
g15
S'i'
sg468
(lp2916
sbsg498
(i__main__
DelphiIdentAccess
p2917
(dp2918
g15
S'result'
p2919
sg468
(lp2920
sbsba(i__main__
DelphiExitStatement
p2921
(dp2922
g1058
g2807
sbasbsbasbsbsba(idelphi
DelphiRaiseStatement
p2923
(dp2924
g462
(i__main__
DelphiIdentAccess
p2925
(dp2926
g15
S'Exception'
p2927
sg468
(lp2928
(idelphi
DelphiFieldEndAccess
p2929
(dp2930
g731
S'create'
p2931
sba(idelphi
DelphiFunctionEndAccess
p2932
(dp2933
g470
(lp2934
(idelphi
DelphiAddOp
p2935
(dp2936
g1502
S'+'
sg1503
(idelphi
DelphiStringAccess
p2937
(dp2938
g468
(lp2939
sg14
(idelphi
DelphiStringValue
p2940
(dp2941
g14
S' in method PdParameterManager.parameterIndexForFieldNumber.'
p2942
sbsbsg1506
(idelphi
DelphiAddOp
p2943
(dp2944
g1502
S'+'
sg1503
(i__main__
DelphiIdentAccess
p2945
(dp2946
g15
S'intToStr'
p2947
sg468
(lp2948
(idelphi
DelphiFunctionEndAccess
p2949
(dp2950
g470
(lp2951
(i__main__
DelphiIdentAccess
p2952
(dp2953
g15
S'fieldNumber'
p2954
sg468
(lp2955
sbasbasbsg1506
(idelphi
DelphiStringAccess
p2956
(dp2957
g468
(lp2958
sg14
(idelphi
DelphiStringValue
p2959
(dp2960
g14
S'Problem: Parameter index not found for field number '
p2961
sbsbsbsbasbasbsbasbsg514
(lp2962
(i__main__
DelphiVarSection
p2963
(dp2964
g138
I0
sg1639
(lp2965
(idelphi
DelphiVarDecl
p2966
(dp2967
g11
Nsg1643
(lp2968
S'i'
asg17
(i__main__
DelphiPrimitiveType
p2969
(dp2970
g20
g284
sbsba(idelphi
DelphiVarDecl
p2971
(dp2972
g11
Nsg1643
(lp2973
S'parameter'
p2974
asg17
(i__main__
DelphiNamedType
p2975
(dp2976
g20
S'PdParameter'
p2977
sg357
g1
sg358
NsbsbasbasbsbsS'indextypename'
p2978
(i__main__
DelphiMethodImplementation
p2979
(dp2980
g436
g1339
sg193
g1341
sg201
(lp2981
(i__main__
DelphiFormalParameter
p2982
(dp2983
g225
Nsg226
(lp2984
S'indexType'
p2985
asg17
(i__main__
DelphiPrimitiveType
p2986
(dp2987
g20
g272
sbsg231
Nsbasg438
(lp2988
sg440
(lp2989
sg442
(lp2990
g444
ag2985
asg445
(dp2991
g2985
g2986
ssg203
S'PdParameterManager'
p2992
sg204
(i__main__
DelphiPrimitiveType
p2993
(dp2994
g20
g14
sbsg450
(lp2995
sg208
I0
sg209
g210
sg452
(i__main__
DelphiBlock
p2996
(dp2997
g455
(idelphi
DelphiCompoundStatement
p2998
(dp2999
g458
(lp3000
(idelphi
DelphiCaseStatement
p3001
(dp3002
g765
(i__main__
DelphiAssignStatement
p3003
(dp3004
g493
(idelphi
DelphiStringAccess
p3005
(dp3006
g468
(lp3007
sg14
(idelphi
DelphiStringValue
p3008
(dp3009
g14
S'not in list'
p3010
sbsbsg498
(i__main__
DelphiIdentAccess
p3011
(dp3012
g15
S'result'
p3013
sg468
(lp3014
sbsbsg462
(i__main__
DelphiIdentAccess
p3015
(dp3016
g15
S'indexType'
p3017
sg468
(lp3018
sbsg788
(lp3019
(idelphi
DelphiCaseSelector
p3020
(dp3021
g792
(i__main__
DelphiAssignStatement
p3022
(dp3023
g493
(idelphi
DelphiStringAccess
p3024
(dp3025
g468
(lp3026
sg14
(idelphi
DelphiStringValue
p3027
(dp3028
g14
S'Undefined'
p3029
sbsbsg498
(i__main__
DelphiIdentAccess
p3030
(dp3031
g15
S'result'
p3032
sg468
(lp3033
sbsbsg801
(lp3034
(i__main__
DelphiIdentAccess
p3035
(dp3036
g15
S'kIndexTypeUndefined'
p3037
sg468
(lp3038
sbasba(idelphi
DelphiCaseSelector
p3039
(dp3040
g792
(i__main__
DelphiAssignStatement
p3041
(dp3042
g493
(idelphi
DelphiStringAccess
p3043
(dp3044
g468
(lp3045
sg14
(idelphi
DelphiStringValue
p3046
(dp3047
g14
S'None'
p3048
sbsbsg498
(i__main__
DelphiIdentAccess
p3049
(dp3050
g15
S'result'
p3051
sg468
(lp3052
sbsbsg801
(lp3053
(i__main__
DelphiIdentAccess
p3054
(dp3055
g15
S'kIndexTypeNone'
p3056
sg468
(lp3057
sbasba(idelphi
DelphiCaseSelector
p3058
(dp3059
g792
(i__main__
DelphiAssignStatement
p3060
(dp3061
g493
(idelphi
DelphiStringAccess
p3062
(dp3063
g468
(lp3064
sg14
(idelphi
DelphiStringValue
p3065
(dp3066
g14
S'S curve'
p3067
sbsbsg498
(i__main__
DelphiIdentAccess
p3068
(dp3069
g15
S'result'
p3070
sg468
(lp3071
sbsbsg801
(lp3072
(i__main__
DelphiIdentAccess
p3073
(dp3074
g15
S'kIndexTypeSCurve'
p3075
sg468
(lp3076
sbasbasbasbsg514
(lp3077
sbsbsS'destroy'
p3078
(i__main__
DelphiMethodImplementation
p3079
(dp3080
g436
g1352
sg193
g1354
sg201
(lp3081
sg438
(lp3082
sg440
(lp3083
sg442
(lp3084
g444
asg445
(dp3085
sg203
S'PdParameterManager'
p3086
sg204
Nsg450
(lp3087
sg208
I0
sg209
g1356
sg452
(i__main__
DelphiBlock
p3088
(dp3089
g455
(idelphi
DelphiCompoundStatement
p3090
(dp3091
g458
(lp3092
(i__main__
DelphiAssignStatement
p3093
(dp3094
g493
Nsg498
(i__main__
DelphiIdentAccess
p3095
(dp3096
g15
S'parameters'
p3097
sg468
(lp3098
(idelphi
DelphiFieldEndAccess
p3099
(dp3100
g731
S'free'
p3101
sbasbsba(i__main__
DelphiAssignStatement
p3102
(dp3103
g493
(idelphi
DelphiNilValue
p3104
(dp3105
bsg498
(i__main__
DelphiIdentAccess
p3106
(dp3107
g15
S'parameters'
p3108
sg468
(lp3109
sbsba(i__main__
DelphiAssignStatement
p3110
(dp3111
g493
Nsg498
(idelphi
DelphiInheritedCall
p3112
(dp3113
g15
S'destroy'
p3114
sg470
Nsbsbasbsg514
(lp3115
sbsbsS'parameterforindex'
p3116
(i__main__
DelphiMethodImplementation
p3117
(dp3118
g436
g1358
sg193
g1360
sg201
(lp3119
(i__main__
DelphiFormalParameter
p3120
(dp3121
g225
Nsg226
(lp3122
g1365
asg17
(i__main__
DelphiPrimitiveType
p3123
(dp3124
g20
g1335
sbsg231
Nsbasg438
(lp3125
sg440
(lp3126
sg442
(lp3127
g444
ag1365
asg445
(dp3128
g1365
g3123
ssg203
S'PdParameterManager'
p3129
sg204
(i__main__
DelphiNamedType
p3130
(dp3131
g20
S'PdParameter'
p3132
sg357
g1
sg358
Nsbsg450
(lp3133
sg208
I0
sg209
g210
sg452
(i__main__
DelphiBlock
p3134
(dp3135
g455
(idelphi
DelphiCompoundStatement
p3136
(dp3137
g458
(lp3138
(i__main__
DelphiAssignStatement
p3139
(dp3140
g493
(i__main__
DelphiIdentAccess
p3141
(dp3142
g15
S'parameters'
p3143
sg468
(lp3144
(idelphi
DelphiFieldEndAccess
p3145
(dp3146
g731
S'items'
p3147
sba(idelphi
DelphiArrayEndAccess
p3148
(dp3149
g470
(lp3150
(i__main__
DelphiIdentAccess
p3151
(dp3152
g15
g1365
sg468
(lp3153
sbasbasbsg498
(i__main__
DelphiIdentAccess
p3154
(dp3155
g15
S'result'
p3156
sg468
(lp3157
sbsbasbsg514
(lp3158
sbsbsS'parameterforfieldnumber'
p3159
(i__main__
DelphiMethodImplementation
p3160
(dp3161
g436
g1372
sg193
g1374
sg201
(lp3162
(i__main__
DelphiFormalParameter
p3163
(dp3164
g225
Nsg226
(lp3165
S'fieldNumber'
p3166
asg17
(i__main__
DelphiPrimitiveType
p3167
(dp3168
g20
g1335
sbsg231
Nsbasg438
(lp3169
sg440
(lp3170
sg442
(lp3171
g444
ag3166
asg445
(dp3172
g3166
g3167
ssg203
S'PdParameterManager'
p3173
sg204
(i__main__
DelphiNamedType
p3174
(dp3175
g20
S'PdParameter'
p3176
sg357
g1
sg358
Nsbsg450
(lp3177
sg208
I0
sg209
g210
sg452
(i__main__
DelphiBlock
p3178
(dp3179
g455
(idelphi
DelphiCompoundStatement
p3180
(dp3181
g458
(lp3182
(i__main__
DelphiAssignStatement
p3183
(dp3184
g493
(idelphi
DelphiNilValue
p3185
(dp3186
bsg498
(i__main__
DelphiIdentAccess
p3187
(dp3188
g15
S'result'
p3189
sg468
(lp3190
sbsba(idelphi
DelphiIfStatement
p3191
(dp3192
g462
(idelphi
DelphiRelOp
p3193
(dp3194
g1045
(i__main__
DelphiIdentAccess
p3195
(dp3196
g15
S'parameters'
p3197
sg468
(lp3198
(idelphi
DelphiFieldEndAccess
p3199
(dp3200
g731
S'count'
p3201
sbasbsg1050
(idelphi
DelphiIntegerValue
p3202
(dp3203
g14
S'0'
sbsg1055
S'>'
sbsg490
Nsg503
(idelphi
DelphiForStatement
p3204
(dp3205
g1498
S'i'
sg1499
(idelphi
DelphiAddOp
p3206
(dp3207
g1502
S'-'
sg1503
(idelphi
DelphiIntegerValue
p3208
(dp3209
g14
S'1'
sbsg1506
(i__main__
DelphiIdentAccess
p3210
(dp3211
g15
S'parameters'
p3212
sg468
(lp3213
(idelphi
DelphiFieldEndAccess
p3214
(dp3215
g731
S'count'
p3216
sbasbsbsg1514
g1515
sg225
(idelphi
DelphiIntegerValue
p3217
(dp3218
g14
S'0'
sbsg792
(idelphi
DelphiCompoundStatement
p3219
(dp3220
g458
(lp3221
(i__main__
DelphiAssignStatement
p3222
(dp3223
g493
(i__main__
DelphiIdentAccess
p3224
(dp3225
g15
S'PdParameter'
p3226
sg468
(lp3227
(idelphi
DelphiFunctionEndAccess
p3228
(dp3229
g470
(lp3230
(i__main__
DelphiIdentAccess
p3231
(dp3232
g15
S'parameters'
p3233
sg468
(lp3234
(idelphi
DelphiFieldEndAccess
p3235
(dp3236
g731
S'items'
p3237
sba(idelphi
DelphiArrayEndAccess
p3238
(dp3239
g470
(lp3240
(i__main__
DelphiIdentAccess
p3241
(dp3242
g15
S'i'
sg468
(lp3243
sbasbasbasbasbsg498
(i__main__
DelphiIdentAccess
p3244
(dp3245
g15
S'parameter'
p3246
sg468
(lp3247
sbsba(idelphi
DelphiIfStatement
p3248
(dp3249
g462
(idelphi
DelphiRelOp
p3250
(dp3251
g1045
(i__main__
DelphiIdentAccess
p3252
(dp3253
g15
S'fieldNumber'
p3254
sg468
(lp3255
sbsg1050
(i__main__
DelphiIdentAccess
p3256
(dp3257
g15
S'parameter'
p3258
sg468
(lp3259
(idelphi
DelphiFieldEndAccess
p3260
(dp3261
g731
S'fieldNumber'
p3262
sbasbsg1055
S'='
sbsg490
Nsg503
(idelphi
DelphiCompoundStatement
p3263
(dp3264
g458
(lp3265
(i__main__
DelphiAssignStatement
p3266
(dp3267
g493
(i__main__
DelphiIdentAccess
p3268
(dp3269
g15
S'parameter'
p3270
sg468
(lp3271
sbsg498
(i__main__
DelphiIdentAccess
p3272
(dp3273
g15
S'result'
p3274
sg468
(lp3275
sbsba(i__main__
DelphiExitStatement
p3276
(dp3277
g1058
g3160
sbasbsbasbsbsba(idelphi
DelphiRaiseStatement
p3278
(dp3279
g462
(i__main__
DelphiIdentAccess
p3280
(dp3281
g15
S'Exception'
p3282
sg468
(lp3283
(idelphi
DelphiFieldEndAccess
p3284
(dp3285
g731
S'create'
p3286
sba(idelphi
DelphiFunctionEndAccess
p3287
(dp3288
g470
(lp3289
(idelphi
DelphiAddOp
p3290
(dp3291
g1502
S'+'
sg1503
(idelphi
DelphiStringAccess
p3292
(dp3293
g468
(lp3294
sg14
(idelphi
DelphiStringValue
p3295
(dp3296
g14
S' in method PdParameterManager.parameterForFieldNumber.'
p3297
sbsbsg1506
(idelphi
DelphiAddOp
p3298
(dp3299
g1502
S'+'
sg1503
(i__main__
DelphiIdentAccess
p3300
(dp3301
g15
S'intToStr'
p3302
sg468
(lp3303
(idelphi
DelphiFunctionEndAccess
p3304
(dp3305
g470
(lp3306
(i__main__
DelphiIdentAccess
p3307
(dp3308
g15
S'fieldNumber'
p3309
sg468
(lp3310
sbasbasbsg1506
(idelphi
DelphiStringAccess
p3311
(dp3312
g468
(lp3313
sg14
(idelphi
DelphiStringValue
p3314
(dp3315
g14
S'Problem: Parameter not found for field number '
p3316
sbsbsbsbasbasbsbasbsg514
(lp3317
(i__main__
DelphiVarSection
p3318
(dp3319
g138
I0
sg1639
(lp3320
(idelphi
DelphiVarDecl
p3321
(dp3322
g11
Nsg1643
(lp3323
S'i'
asg17
(i__main__
DelphiPrimitiveType
p3324
(dp3325
g20
g284
sbsba(idelphi
DelphiVarDecl
p3326
(dp3327
g11
Nsg1643
(lp3328
S'parameter'
p3329
asg17
(i__main__
DelphiNamedType
p3330
(dp3331
g20
S'PdParameter'
p3332
sg357
g1
sg358
Nsbsbasbasbsbssg1194
(dp3333
sg1196
(lp3334
g1211
asbasS'includedUnits'
p3335
NsS'implementationUses'
p3336
(lp3337
S'SysUtils'
p3338
aS'Windows'
p3339
aS'Dialogs'
p3340
aS'uexcept'
p3341
aS'usupport'
p3342
aS'usection'
p3343
aS'uunits'
p3344
aS'umakepm'
p3345
aS'udomain'
p3346
asg193
S'Uparams'
p3347
sS'constSections'
p3348
(lp3349
g5
asS'globalsInProperCase'
p3350
NsS'interfaceUses'
p3351
(lp3352
S'delphi_compatability'
p3353
aS'ucollect'
p3354
asS'finalCommentToken'
p3355
(i__main__
PassStatement
p3356
(dp3357
g514
(lp3358
sbsS'varSections'
p3359
(lp3360
sS'globals'
p3361
NsS'originalFileName'
p3362
S'../../PlantStudioInPython/converted_source/used/Uparams.pas'
p3363
sS'proceduralImplementations'
p3364
(dp3365
sS'fileName'
p3366
S'/Users/pdf/Documents/workspace/PlantStudioInPython/converted_source/used/Uparams.pas'
p3367
sS'proceduralDeclarations'
p3368
(dp3369
sS'types'
p3370
(dp3371
S'pdparameter'
p3372
g139
sS'pdparametermanager'
p3373
g1207
ssb.