(i__main__
DelphiUnit
p1
(dp2
S'sectionsInOrderDefined'
p3
(lp4
(i__main__
DelphiConstSection
p5
(dp6
S'constDeclList'
p7
(lp8
(idelphi
DelphiConstDeclaration
p9
(dp10
S'constExpression'
p11
(i__main__
DelphiIdentAccess
p12
(dp13
S'ident'
p14
S'true'
p15
sS'endAccessList'
p16
(lp17
sbsg14
S'kAddingBiomassToPlant'
p18
sS'theType'
p19
(idelphi
DelphiPrimitiveType
p20
(dp21
S'typeName'
p22
S'UNDEFINED_NEEDS_CALCULATION'
p23
sbsba(idelphi
DelphiConstDeclaration
p24
(dp25
g11
(i__main__
DelphiIdentAccess
p26
(dp27
g14
S'false'
p28
sg16
(lp29
sbsg14
S'kRemovingBiomassFromPlant'
p30
sg19
(idelphi
DelphiPrimitiveType
p31
(dp32
g22
g23
sbsba(idelphi
DelphiConstDeclaration
p33
(dp34
g11
(idelphi
DelphiSignedValue
p35
(dp36
S'value'
p37
(idelphi
DelphiRealValue
p38
(dp39
S'string'
p40
S'1.0'
p41
sbsS'sign'
p42
S'-'
sbsg14
S'kDontTaper'
p43
sg19
(idelphi
DelphiPrimitiveType
p44
(dp45
g22
g23
sbsba(idelphi
DelphiConstDeclaration
p46
(dp47
g11
(i__main__
DelphiIdentAccess
p48
(dp49
g14
S'true'
p50
sg16
(lp51
sbsg14
S'kUseAmendment'
p52
sg19
(idelphi
DelphiPrimitiveType
p53
(dp54
g22
g23
sbsba(idelphi
DelphiConstDeclaration
p55
(dp56
g11
(i__main__
DelphiIdentAccess
p57
(dp58
g14
S'false'
p59
sg16
(lp60
sbsg14
S'kDontUseAmendment'
p61
sg19
(idelphi
DelphiPrimitiveType
p62
(dp63
g22
g23
sbsbasS'atTopLevel'
p64
I1
sba(i__main__
DelphiClass
p65
(dp66
S'variableNamesInProperCase'
p67
(dp68
S'amendment'
p69
S'amendment'
p70
sS'plant'
p71
S'plant'
p72
sS'randomswayindex'
p73
S'randomSwayIndex'
p74
sS'partid'
p75
S'partID'
p76
sS'biomassdemand_pctmpb'
p77
S'biomassDemand_pctMPB'
p78
sS'parentamendment'
p79
S'parentAmendment'
p80
sS'livebiomass_pctmpb'
p81
S'liveBiomass_pctMPB'
p82
sS'age'
p83
S'age'
p84
sS'biomassofmeandallpartsaboveme_pctmpb'
p85
S'biomassOfMeAndAllPartsAboveMe_pctMPB'
p86
sS'isseedlingleaf'
p87
S'isSeedlingLeaf'
p88
sS'deadbiomass_pctmpb'
p89
S'deadBiomass_pctMPB'
p90
sS'gender'
p91
S'gender'
p92
sS'boundsrect'
p93
S'boundsRect'
p94
sS'hasfallenoff'
p95
S'hasFallenOff'
p96
ssS'name'
p97
S'PdPlantPart'
p98
sS'methodDeclarations'
p99
(dp100
S'write3dexportline'
p101
(i__main__
DelphiMethodDeclaration
p102
(dp103
g97
S'write3DExportLine'
p104
sS'formalParameters'
p105
(lp106
(i__main__
DelphiFormalParameter
p107
(dp108
S'initialValue'
p109
NsS'names'
p110
(lp111
S'partID'
p112
asg19
(i__main__
DelphiPrimitiveType
p113
(dp114
g22
S'smallint'
p115
sbsS'parameterVariety'
p116
Nsba(i__main__
DelphiFormalParameter
p117
(dp118
g109
Nsg110
(lp119
S'length'
p120
aS'startWidth'
p121
aS'endWidth'
p122
asg19
(i__main__
DelphiPrimitiveType
p123
(dp124
g22
S'single'
p125
sbsg116
Nsba(i__main__
DelphiFormalParameter
p126
(dp127
g109
Nsg110
(lp128
S'segmentNumber'
p129
asg19
(i__main__
DelphiPrimitiveType
p130
(dp131
g22
g115
sbsg116
NsbasS'className'
p132
g98
sS'resultType'
p133
NsS'isClassMethod'
p134
I0
sS'methodType'
p135
S'procedure'
p136
sbsS'genderstring'
p137
(i__main__
DelphiMethodDeclaration
p138
(dp139
g97
S'genderString'
p140
sg105
(lp141
sg132
g98
sg133
(i__main__
DelphiPrimitiveType
p142
(dp143
g22
g40
sbsg134
I0
sg135
S'function'
p144
sbsS'classandversioninformation'
p145
(i__main__
DelphiMethodDeclaration
p146
(dp147
g97
S'classAndVersionInformation'
p148
sg105
(lp149
(i__main__
DelphiFormalParameter
p150
(dp151
g109
Nsg110
(lp152
S'cvir'
p153
asg19
(i__main__
DelphiNamedType
p154
(dp155
g22
S'PdClassAndVersionInformationRecord'
p156
sS'unitDefinedIn'
p157
g1
sS'unitName'
p158
Nsbsg116
S'var'
p159
sbasg132
g98
sg133
Nsg134
I0
sg135
g136
sbsS'report'
p160
(i__main__
DelphiMethodDeclaration
p161
(dp162
g97
S'report'
p163
sg105
(lp164
sg132
g98
sg133
Nsg134
I0
sg135
g136
sbsS'draw3dobject'
p165
(i__main__
DelphiMethodDeclaration
p166
(dp167
g97
S'draw3DObject'
p168
sg105
(lp169
(i__main__
DelphiFormalParameter
p170
(dp171
g109
Nsg110
(lp172
S'tdo'
p173
asg19
(i__main__
DelphiNamedType
p174
(dp175
g22
S'KfObject3D'
p176
sg157
g1
sg158
Nsbsg116
Nsba(i__main__
DelphiFormalParameter
p177
(dp178
g109
Nsg110
(lp179
S'scale'
p180
asg19
(i__main__
DelphiPrimitiveType
p181
(dp182
g22
g125
sbsg116
Nsba(i__main__
DelphiFormalParameter
p183
(dp184
g109
Nsg110
(lp185
S'faceColor'
p186
aS'backfaceColor'
p187
asg19
(i__main__
DelphiNamedType
p188
(dp189
g22
S'TColorRef'
p190
sg157
g1
sg158
Nsbsg116
Nsba(i__main__
DelphiFormalParameter
p191
(dp192
g109
Nsg110
(lp193
S'dxfIndex'
p194
asg19
(i__main__
DelphiPrimitiveType
p195
(dp196
g22
g115
sbsg116
Nsbasg132
g98
sg133
Nsg134
I0
sg135
g136
sbsS'nextday'
p197
(i__main__
DelphiMethodDeclaration
p198
(dp199
g97
S'nextDay'
p200
sg105
(lp201
sg132
g98
sg133
Nsg134
I0
sg135
g136
sbsS'setcolorstoparameters'
p202
(i__main__
DelphiMethodDeclaration
p203
(dp204
g97
S'setColorsToParameters'
p205
sg105
(lp206
sg132
g98
sg133
Nsg134
I0
sg135
g136
sbsS'hiddenbyamendment'
p207
(i__main__
DelphiMethodDeclaration
p208
(dp209
g97
S'hiddenByAmendment'
p210
sg105
(lp211
sg132
g98
sg133
(i__main__
DelphiPrimitiveType
p212
(dp213
g22
S'boolean'
p214
sbsg134
I0
sg135
g144
sbsS'determineamendmentandalsoforchildrenifany'
p215
(i__main__
DelphiMethodDeclaration
p216
(dp217
g97
S'determineAmendmentAndAlsoForChildrenIfAny'
p218
sg105
(lp219
sg132
g98
sg133
Nsg134
I0
sg135
g136
sbsS'addexportmaterial'
p220
(i__main__
DelphiMethodDeclaration
p221
(dp222
g97
S'addExportMaterial'
p223
sg105
(lp224
(i__main__
DelphiFormalParameter
p225
(dp226
g109
Nsg110
(lp227
S'traverserProxy'
p228
asg19
(i__main__
DelphiNamedType
p229
(dp230
g22
S'TObject'
p231
sg157
g1
sg158
Nsbsg116
Nsba(i__main__
DelphiFormalParameter
p232
(dp233
g109
Nsg110
(lp234
S'femaleIndex'
p235
aS'maleIndex'
p236
asg19
(i__main__
DelphiPrimitiveType
p237
(dp238
g22
g115
sbsg116
Nsbasg132
g98
sg133
Nsg134
I0
sg135
g136
sbsS'totalbiomass_pctmpb'
p239
(i__main__
DelphiMethodDeclaration
p240
(dp241
g97
S'totalBiomass_pctMPB'
p242
sg105
(lp243
sg132
g98
sg133
(i__main__
DelphiPrimitiveType
p244
(dp245
g22
g125
sbsg134
I0
sg135
g144
sbsS'streamdatawithfiler'
p246
(i__main__
DelphiMethodDeclaration
p247
(dp248
g97
S'streamDataWithFiler'
p249
sg105
(lp250
(i__main__
DelphiFormalParameter
p251
(dp252
g109
Nsg110
(lp253
S'filer'
p254
asg19
(i__main__
DelphiNamedType
p255
(dp256
g22
S'PdFiler'
p257
sg157
g1
sg158
Nsbsg116
Nsba(i__main__
DelphiFormalParameter
p258
(dp259
g109
Nsg110
(lp260
S'cvir'
p261
asg19
(i__main__
DelphiNamedType
p262
(dp263
g22
S'PdClassAndVersionInformationRecord'
p264
sg157
g1
sg158
Nsbsg116
S'const'
p265
sbasg132
g98
sg133
Nsg134
I0
sg135
g136
sbsS'addorremove'
p266
(i__main__
DelphiMethodDeclaration
p267
(dp268
g97
S'addOrRemove'
p269
sg105
(lp270
(i__main__
DelphiFormalParameter
p271
(dp272
g109
Nsg110
(lp273
S'addOrRemoveFlag'
p274
asg19
(i__main__
DelphiPrimitiveType
p275
(dp276
g22
g214
sbsg116
Nsbasg132
g98
sg133
Nsg134
I0
sg135
g136
sbsS'calculatecolors'
p277
(i__main__
DelphiMethodDeclaration
p278
(dp279
g97
S'calculateColors'
p280
sg105
(lp281
sg132
g98
sg133
Nsg134
I0
sg135
g136
sbsS'tdotosortlineswith'
p282
(i__main__
DelphiMethodDeclaration
p283
(dp284
g97
S'tdoToSortLinesWith'
p285
sg105
(lp286
sg132
g98
sg133
(i__main__
DelphiNamedType
p287
(dp288
g22
S'KfObject3D'
p289
sg157
g1
sg158
Nsbsg134
I0
sg135
g144
sbsS'widthmultiplierconsideringamendments'
p290
(i__main__
DelphiMethodDeclaration
p291
(dp292
g97
S'widthMultiplierConsideringAmendments'
p293
sg105
(lp294
sg132
g98
sg133
(i__main__
DelphiPrimitiveType
p295
(dp296
g22
g125
sbsg134
I0
sg135
g144
sbsS'adddependentpartstolist'
p297
(i__main__
DelphiMethodDeclaration
p298
(dp299
g97
S'addDependentPartsToList'
p300
sg105
(lp301
(i__main__
DelphiFormalParameter
p302
(dp303
g109
Nsg110
(lp304
S'aList'
p305
asg19
(i__main__
DelphiNamedType
p306
(dp307
g22
S'TList'
p308
sg157
g1
sg158
Nsbsg116
Nsbasg132
g98
sg133
Nsg134
I0
sg135
g136
sbsS'lengthmultiplierconsideringamendments'
p309
(i__main__
DelphiMethodDeclaration
p310
(dp311
g97
S'lengthMultiplierConsideringAmendments'
p312
sg105
(lp313
sg132
g98
sg133
(i__main__
DelphiPrimitiveType
p314
(dp315
g22
g125
sbsg134
I0
sg135
g144
sbsS'draw'
p316
(i__main__
DelphiMethodDeclaration
p317
(dp318
g97
S'draw'
p319
sg105
(lp320
sg132
g98
sg133
Nsg134
I0
sg135
g136
sbsS'parttype'
p321
(i__main__
DelphiMethodDeclaration
p322
(dp323
g97
S'partType'
p324
sg105
(lp325
sg132
g98
sg133
(i__main__
DelphiPrimitiveType
p326
(dp327
g22
S'integer'
p328
sbsg134
I0
sg135
g144
sbsS'shortnamefordxfpartconsideringgenderetc'
p329
(i__main__
DelphiMethodDeclaration
p330
(dp331
g97
S'shortNameForDXFPartConsideringGenderEtc'
p332
sg105
(lp333
(i__main__
DelphiFormalParameter
p334
(dp335
g109
Nsg110
(lp336
S'index'
p337
asg19
(i__main__
DelphiPrimitiveType
p338
(dp339
g22
g115
sbsg116
Nsbasg132
g98
sg133
(i__main__
DelphiPrimitiveType
p340
(dp341
g22
g40
sbsg134
I0
sg135
g144
sbsS'blendcolorsstrength'
p342
(i__main__
DelphiMethodDeclaration
p343
(dp344
g97
S'blendColorsStrength'
p345
sg105
(lp346
(i__main__
DelphiFormalParameter
p347
(dp348
g109
Nsg110
(lp349
S'aColor'
p350
asg19
(i__main__
DelphiNamedType
p351
(dp352
g22
S'TColorRef'
p353
sg157
g1
sg158
Nsbsg116
Nsba(i__main__
DelphiFormalParameter
p354
(dp355
g109
Nsg110
(lp356
S'aStrength'
p357
asg19
(i__main__
DelphiPrimitiveType
p358
(dp359
g22
g125
sbsg116
Nsbasg132
g98
sg133
Nsg134
I0
sg135
g136
sbsS'getname'
p360
(i__main__
DelphiMethodDeclaration
p361
(dp362
g97
S'getName'
p363
sg105
(lp364
sg132
g98
sg133
(i__main__
DelphiPrimitiveType
p365
(dp366
g22
g40
sbsg134
I0
sg135
g144
sbsS'fractionlive'
p367
(i__main__
DelphiMethodDeclaration
p368
(dp369
g97
S'fractionLive'
p370
sg105
(lp371
sg132
g98
sg133
(i__main__
DelphiPrimitiveType
p372
(dp373
g22
g125
sbsg134
I0
sg135
g144
sbsS'anglewithsway'
p374
(i__main__
DelphiMethodDeclaration
p375
(dp376
g97
S'angleWithSway'
p377
sg105
(lp378
(i__main__
DelphiFormalParameter
p379
(dp380
g109
Nsg110
(lp381
S'angle'
p382
asg19
(i__main__
DelphiPrimitiveType
p383
(dp384
g22
g125
sbsg116
Nsbasg132
g98
sg133
(i__main__
DelphiPrimitiveType
p385
(dp386
g22
g125
sbsg134
I0
sg135
g144
sbsS'traverseactivity'
p387
(i__main__
DelphiMethodDeclaration
p388
(dp389
g97
S'traverseActivity'
p390
sg105
(lp391
(i__main__
DelphiFormalParameter
p392
(dp393
g109
Nsg110
(lp394
S'mode'
p395
asg19
(i__main__
DelphiPrimitiveType
p396
(dp397
g22
g328
sbsg116
Nsba(i__main__
DelphiFormalParameter
p398
(dp399
g109
Nsg110
(lp400
S'traverserProxy'
p401
asg19
(i__main__
DelphiNamedType
p402
(dp403
g22
S'TObject'
p404
sg157
g1
sg158
Nsbsg116
Nsbasg132
g98
sg133
Nsg134
I0
sg135
g136
sbsS'setcolorswithamendmentandreturntrueifnooverrides'
p405
(i__main__
DelphiMethodDeclaration
p406
(dp407
g97
S'setColorsWithAmendmentAndReturnTrueIfNoOverrides'
p408
sg105
(lp409
(i__main__
DelphiFormalParameter
p410
(dp411
g109
Nsg110
(lp412
S'drawingTdo'
p413
asg19
(i__main__
DelphiPrimitiveType
p414
(dp415
g22
g214
sbsg116
Nsbasg132
g98
sg133
(i__main__
DelphiPrimitiveType
p416
(dp417
g22
g214
sbsg134
I0
sg135
g144
sbsS'initialize'
p418
(i__main__
DelphiMethodDeclaration
p419
(dp420
g97
S'initialize'
p421
sg105
(lp422
(i__main__
DelphiFormalParameter
p423
(dp424
g109
Nsg110
(lp425
S'thePlant'
p426
asg19
(i__main__
DelphiNamedType
p427
(dp428
g22
S'PdPlant'
p429
sg157
g1
sg158
Nsbsg116
Nsbasg132
g98
sg133
Nsg134
I0
sg135
g136
sbsS'longnamefordxfpartconsideringgenderetc'
p430
(i__main__
DelphiMethodDeclaration
p431
(dp432
g97
S'longNameForDXFPartConsideringGenderEtc'
p433
sg105
(lp434
(i__main__
DelphiFormalParameter
p435
(dp436
g109
Nsg110
(lp437
g337
asg19
(i__main__
DelphiPrimitiveType
p438
(dp439
g22
g115
sbsg116
Nsbasg132
g98
sg133
(i__main__
DelphiPrimitiveType
p440
(dp441
g22
g40
sbsg134
I0
sg135
g144
sbsS'drawstemsegment'
p442
(i__main__
DelphiMethodDeclaration
p443
(dp444
g97
S'drawStemSegment'
p445
sg105
(lp446
(i__main__
DelphiFormalParameter
p447
(dp448
g109
Nsg110
(lp449
S'length'
p450
aS'width'
p451
aS'angleZ'
p452
aS'angleY'
p453
asg19
(i__main__
DelphiPrimitiveType
p454
(dp455
g22
g125
sbsg116
Nsba(i__main__
DelphiFormalParameter
p456
(dp457
g109
Nsg110
(lp458
S'color'
p459
asg19
(i__main__
DelphiNamedType
p460
(dp461
g22
S'TColorRef'
p462
sg157
g1
sg158
Nsbsg116
Nsba(i__main__
DelphiFormalParameter
p463
(dp464
g109
Nsg110
(lp465
S'taperIndex'
p466
asg19
(i__main__
DelphiPrimitiveType
p467
(dp468
g22
g125
sbsg116
Nsba(i__main__
DelphiFormalParameter
p469
(dp470
g109
Nsg110
(lp471
S'dxfIndex'
p472
asg19
(i__main__
DelphiPrimitiveType
p473
(dp474
g22
g115
sbsg116
Nsba(i__main__
DelphiFormalParameter
p475
(dp476
g109
Nsg110
(lp477
S'useAmendment'
p478
asg19
(i__main__
DelphiPrimitiveType
p479
(dp480
g22
g214
sbsg116
Nsbasg132
g98
sg133
Nsg134
I0
sg135
g136
sbsS'rotateangleconsideringamendment'
p481
(i__main__
DelphiMethodDeclaration
p482
(dp483
g97
S'rotateAngleConsideringAmendment'
p484
sg105
(lp485
(i__main__
DelphiFormalParameter
p486
(dp487
g109
Nsg110
(lp488
S'rotateWhat'
p489
asg19
(i__main__
DelphiPrimitiveType
p490
(dp491
g22
g115
sbsg116
Nsba(i__main__
DelphiFormalParameter
p492
(dp493
g109
Nsg110
(lp494
S'useAmendment'
p495
asg19
(i__main__
DelphiPrimitiveType
p496
(dp497
g22
g214
sbsg116
Nsba(i__main__
DelphiFormalParameter
p498
(dp499
g109
Nsg110
(lp500
S'angle'
p501
asg19
(i__main__
DelphiPrimitiveType
p502
(dp503
g22
g125
sbsg116
Nsbasg132
g98
sg133
(i__main__
DelphiPrimitiveType
p504
(dp505
g22
g125
sbsg134
I0
sg135
g144
sbsS'realdxfindexforbasedxfpart'
p506
(i__main__
DelphiMethodDeclaration
p507
(dp508
g97
S'realDxfIndexForBaseDXFPart'
p509
sg105
(lp510
(i__main__
DelphiFormalParameter
p511
(dp512
g109
Nsg110
(lp513
g337
asg19
(i__main__
DelphiPrimitiveType
p514
(dp515
g22
g115
sbsg116
Nsbasg132
g98
sg133
(i__main__
DelphiPrimitiveType
p516
(dp517
g22
g115
sbsg134
I0
sg135
g144
sbsS'addtostatistics'
p518
(i__main__
DelphiMethodDeclaration
p519
(dp520
g97
S'addToStatistics'
p521
sg105
(lp522
(i__main__
DelphiFormalParameter
p523
(dp524
g109
Nsg110
(lp525
S'statisticsProxy'
p526
asg19
(i__main__
DelphiNamedType
p527
(dp528
g22
S'TObject'
p529
sg157
g1
sg158
Nsbsg116
Nsba(i__main__
DelphiFormalParameter
p530
(dp531
g109
Nsg110
(lp532
S'partType'
p533
asg19
(i__main__
DelphiPrimitiveType
p534
(dp535
g22
g115
sbsg116
Nsbasg132
g98
sg133
Nsg134
I0
sg135
g136
sbsS'applyamendmentrotations'
p536
(i__main__
DelphiMethodDeclaration
p537
(dp538
g97
S'applyAmendmentRotations'
p539
sg105
(lp540
sg132
g98
sg133
Nsg134
I0
sg135
g136
sbsS'isphytomer'
p541
(i__main__
DelphiMethodDeclaration
p542
(dp543
g97
S'isPhytomer'
p544
sg105
(lp545
sg132
g98
sg133
(i__main__
DelphiPrimitiveType
p546
(dp547
g22
g214
sbsg134
I0
sg135
g144
sbsS'getfullname'
p548
(i__main__
DelphiMethodDeclaration
p549
(dp550
g97
S'getFullName'
p551
sg105
(lp552
sg132
g98
sg133
(i__main__
DelphiPrimitiveType
p553
(dp554
g22
g40
sbsg134
I0
sg135
g144
sbsS'scalemultiplierconsideringamendments'
p555
(i__main__
DelphiMethodDeclaration
p556
(dp557
g97
S'scaleMultiplierConsideringAmendments'
p558
sg105
(lp559
sg132
g98
sg133
(i__main__
DelphiPrimitiveType
p560
(dp561
g22
g125
sbsg134
I0
sg135
g144
sbsS'position'
p562
(i__main__
DelphiMethodDeclaration
p563
(dp564
g97
S'position'
p565
sg105
(lp566
sg132
g98
sg133
(i__main__
DelphiNamedType
p567
(dp568
g22
S'TPoint'
p569
sg157
g1
sg158
Nsbsg134
I0
sg135
g144
sS'commentLinesBefore'
p570
(lp571
S' procedure fillInInfoForDXFPart(index: smallint; var realIndex: smallint; var longName: string; var shortName: string);\r'
p572
asbssS'superclassNamedTypes'
p573
(lp574
(i__main__
DelphiNamedType
p575
(dp576
g22
S'PdStreamableObject'
p577
sg157
g1
sg158
NsbasS'variableNames'
p578
(dp579
S'amendment'
p580
(i__main__
DelphiNamedType
p581
(dp582
g22
S'PdPlantDrawingAmendment'
p583
sg157
g1
sg158
NsbsS'plant'
p584
(i__main__
DelphiNamedType
p585
(dp586
g22
S'PdPlant'
p587
sg157
g1
sg158
NsbsS'randomswayindex'
p588
(i__main__
DelphiPrimitiveType
p589
(dp590
g22
g125
sbsS'partid'
p591
(i__main__
DelphiPrimitiveType
p592
(dp593
g22
S'longint'
p594
sbsS'biomassdemand_pctmpb'
p595
(i__main__
DelphiPrimitiveType
p596
(dp597
g22
g125
sbsS'parentamendment'
p598
(i__main__
DelphiNamedType
p599
(dp600
g22
S'PdPlantDrawingAmendment'
p601
sg157
g1
sg158
NsbsS'livebiomass_pctmpb'
p602
(i__main__
DelphiPrimitiveType
p603
(dp604
g22
g125
sbsS'age'
p605
(i__main__
DelphiPrimitiveType
p606
(dp607
g22
g594
sbsS'biomassofmeandallpartsaboveme_pctmpb'
p608
(i__main__
DelphiPrimitiveType
p609
(dp610
g22
g125
sbsS'isseedlingleaf'
p611
(i__main__
DelphiPrimitiveType
p612
(dp613
g22
g214
sbsS'deadbiomass_pctmpb'
p614
(i__main__
DelphiPrimitiveType
p615
(dp616
g22
g125
sbsS'gender'
p617
(i__main__
DelphiPrimitiveType
p618
(dp619
g22
g115
sbsS'boundsrect'
p620
(i__main__
DelphiNamedType
p621
(dp622
g22
S'TRect'
p623
sg157
g1
sg158
NsbsS'hasfallenoff'
p624
(i__main__
DelphiPrimitiveType
p625
(dp626
g22
g214
sbssS'methodNamesInDefinedOrder'
p627
(lp628
S'initialize'
p629
aS'nextday'
p630
aS'getname'
p631
aS'getfullname'
p632
aS'traverseactivity'
p633
aS'position'
p634
aS'addexportmaterial'
p635
aS'addtostatistics'
p636
aS'totalbiomass_pctmpb'
p637
aS'fractionlive'
p638
aS'draw'
p639
aS'isphytomer'
p640
aS'addorremove'
p641
aS'setcolorstoparameters'
p642
aS'genderstring'
p643
aS'report'
p644
aS'draw3dobject'
p645
aS'drawstemsegment'
p646
aS'write3dexportline'
p647
aS'tdotosortlineswith'
p648
aS'parttype'
p649
aS'anglewithsway'
p650
aS'determineamendmentandalsoforchildrenifany'
p651
aS'hiddenbyamendment'
p652
aS'applyamendmentrotations'
p653
aS'setcolorswithamendmentandreturntrueifnooverrides'
p654
aS'rotateangleconsideringamendment'
p655
aS'scalemultiplierconsideringamendments'
p656
aS'lengthmultiplierconsideringamendments'
p657
aS'widthmultiplierconsideringamendments'
p658
aS'classandversioninformation'
p659
aS'streamdatawithfiler'
p660
aS'adddependentpartstolist'
p661
aS'blendcolorsstrength'
p662
aS'calculatecolors'
p663
aS'longnamefordxfpartconsideringgenderetc'
p664
aS'shortnamefordxfpartconsideringgenderetc'
p665
aS'realdxfindexforbasedxfpart'
p666
asS'methodImplementations'
p667
(dp668
S'write3dexportline'
p669
(i__main__
DelphiMethodImplementation
p670
(dp671
S'originalDeclaration'
p672
g102
sg97
g104
sg105
(lp673
(i__main__
DelphiFormalParameter
p674
(dp675
g109
Nsg110
(lp676
S'partID'
p677
asg19
(i__main__
DelphiPrimitiveType
p678
(dp679
g22
g115
sbsg116
Nsba(i__main__
DelphiFormalParameter
p680
(dp681
g109
Nsg110
(lp682
S'length'
p683
aS'startWidth'
p684
aS'endWidth'
p685
asg19
(i__main__
DelphiPrimitiveType
p686
(dp687
g22
g125
sbsg116
Nsba(i__main__
DelphiFormalParameter
p688
(dp689
g109
Nsg110
(lp690
S'segmentNumber'
p691
asg19
(i__main__
DelphiPrimitiveType
p692
(dp693
g22
g115
sbsg116
NsbasS'varParamIndexes'
p694
(lp695
sS'varParamsSkipped'
p696
(lp697
sS'argNames'
p698
(lp699
S'self'
p700
ag677
ag683
ag684
ag685
ag691
asS'argTypes'
p701
(dp702
g691
g692
sg683
g686
sg684
g686
sg677
g678
sg685
g686
ssg132
S'PdPlantPart'
p703
sg133
NsS'varParamNames'
p704
(lp705
sg134
I0
sg135
g136
sS'block'
p706
(i__main__
DelphiBlock
p707
(dp708
S'compoundStatement'
p709
(idelphi
DelphiCompoundStatement
p710
(dp711
S'statements'
p712
(lp713
(i__main__
DelphiAssignStatement
p714
(dp715
S'newValueExpression'
p716
(i__main__
DelphiIdentAccess
p717
(dp718
g14
S'plant'
p719
sg16
(lp720
(idelphi
DelphiFieldEndAccess
p721
(dp722
S'field'
p723
S'turtle'
p724
sbasbsS'destinationExpression'
p725
(i__main__
DelphiIdentAccess
p726
(dp727
g14
S'turtle'
p728
sg16
(lp729
sbsba(idelphi
DelphiIfStatement
p730
(dp731
S'expression'
p732
(idelphi
DelphiRelOp
p733
(dp734
S'simpleExpression1'
p735
(i__main__
DelphiIdentAccess
p736
(dp737
g14
S'turtle'
p738
sg16
(lp739
sbsS'simpleExpression2'
p740
(idelphi
DelphiNilValue
p741
(dp742
bsS'relOp'
p743
S'='
sbsS'ifFalseStatement'
p744
NsS'ifTrueStatement'
p745
(i__main__
DelphiExitStatement
p746
(dp747
S'proceduralOrMethodImplementation'
p748
g670
sbsba(idelphi
DelphiIfStatement
p749
(dp750
g732
(i__main__
DelphiIdentAccess
p751
(dp752
g14
S'turtle'
p753
sg16
(lp754
(idelphi
DelphiFieldEndAccess
p755
(dp756
g723
S'writingToPOV'
p757
sbasbsg744
Nsg745
(idelphi
DelphiCompoundStatement
p758
(dp759
g712
(lp760
(i__main__
DelphiAssignStatement
p761
(dp762
g716
Nsg725
(i__main__
DelphiIdentAccess
p763
(dp764
g14
S'turtle'
p765
sg16
(lp766
(idelphi
DelphiFieldEndAccess
p767
(dp768
g723
S'drawInMillimeters'
p769
sba(idelphi
DelphiFunctionEndAccess
p770
(dp771
S'expressionList'
p772
(lp773
(i__main__
DelphiIdentAccess
p774
(dp775
g14
S'length'
p776
sg16
(lp777
sba(i__main__
DelphiIdentAccess
p778
(dp779
g14
S'partID'
p780
sg16
(lp781
sbasbasbsg570
(lp782
S' POV draws cylinders directly, not with faces\r'
p783
asba(i__main__
DelphiExitStatement
p784
(dp785
g748
g670
sbasbsba(i__main__
DelphiAssignStatement
p786
(dp787
g716
(i__main__
DelphiIdentAccess
p788
(dp789
g14
S'turtle'
p790
sg16
(lp791
(idelphi
DelphiFieldEndAccess
p792
(dp793
g723
S'ifExporting_stemCylinderFaces'
p794
sbasbsg725
(i__main__
DelphiIdentAccess
p795
(dp796
g14
S'faces'
p797
sg16
(lp798
sbsba(idelphi
DelphiIfStatement
p799
(dp800
g732
(idelphi
DelphiRelOp
p801
(dp802
g735
(i__main__
DelphiIdentAccess
p803
(dp804
g14
S'faces'
p805
sg16
(lp806
sbsg740
(idelphi
DelphiIntegerValue
p807
(dp808
g40
S'0'
sbsg743
S'='
sbsg744
Nsg745
(i__main__
DelphiExitStatement
p809
(dp810
g748
g670
sbsba(idelphi
DelphiIfStatement
p811
(dp812
g732
(idelphi
DelphiRelOp
p813
(dp814
g735
(i__main__
DelphiIdentAccess
p815
(dp816
g14
S'segmentNumber'
p817
sg16
(lp818
sbsg740
(idelphi
DelphiIntegerValue
p819
(dp820
g40
S'0'
sbsg743
S'<='
p821
sbsg744
(idelphi
DelphiForStatement
p822
(dp823
S'variable'
p824
S'i'
sS'finalValue'
p825
(idelphi
DelphiAddOp
p826
(dp827
S'addOp'
p828
S'-'
sS'term2'
p829
(idelphi
DelphiIntegerValue
p830
(dp831
g40
S'1'
sbsS'term1'
p832
(i__main__
DelphiIdentAccess
p833
(dp834
g14
S'faces'
p835
sg16
(lp836
sbsbsS'direction'
p837
S'to'
p838
sg109
(idelphi
DelphiIntegerValue
p839
(dp840
g40
S'0'
sbsS'statement'
p841
(i__main__
DelphiAssignStatement
p842
(dp843
g716
(i__main__
DelphiIdentAccess
p844
(dp845
g14
S'endPoints'
p846
sg16
(lp847
(idelphi
DelphiArrayEndAccess
p848
(dp849
g772
(lp850
(i__main__
DelphiIdentAccess
p851
(dp852
g14
S'i'
sg16
(lp853
sbasbasbsg725
(i__main__
DelphiIdentAccess
p854
(dp855
g14
S'startPoints'
p856
sg16
(lp857
(idelphi
DelphiArrayEndAccess
p858
(dp859
g772
(lp860
(i__main__
DelphiIdentAccess
p861
(dp862
g14
S'i'
sg16
(lp863
sbasbasbsbsbsg745
(idelphi
DelphiCompoundStatement
p864
(dp865
g712
(lp866
(i__main__
DelphiAssignStatement
p867
(dp868
g716
(idelphi
DelphiMulOp
p869
(dp870
S'signedFactor2'
p871
(i__main__
DelphiIdentAccess
p872
(dp873
g14
S'startWidth'
p874
sg16
(lp875
sbsS'mulOp'
p876
S'*'
sS'signedFactor1'
p877
(idelphi
DelphiRealValue
p878
(dp879
g40
S'0.5'
p880
sbsbsg725
(i__main__
DelphiIdentAccess
p881
(dp882
g14
S'pipeRadius'
p883
sg16
(lp884
sbsg570
(lp885
S' get startWidth points; if done before, copy from last endWidth points\r'
p886
asba(idelphi
DelphiForStatement
p887
(dp888
g824
S'i'
sg825
(idelphi
DelphiAddOp
p889
(dp890
g828
S'-'
sg829
(idelphi
DelphiIntegerValue
p891
(dp892
g40
S'1'
sbsg832
(i__main__
DelphiIdentAccess
p893
(dp894
g14
S'faces'
p895
sg16
(lp896
sbsbsg837
g838
sg109
(idelphi
DelphiIntegerValue
p897
(dp898
g40
S'0'
sbsg841
(idelphi
DelphiCompoundStatement
p899
(dp900
g712
(lp901
(i__main__
DelphiAssignStatement
p902
(dp903
g716
Nsg725
(i__main__
DelphiIdentAccess
p904
(dp905
g14
S'turtle'
p906
sg16
(lp907
(idelphi
DelphiFieldEndAccess
p908
(dp909
g723
S'push'
p910
sbasbsba(i__main__
DelphiAssignStatement
p911
(dp912
g716
Nsg725
(i__main__
DelphiIdentAccess
p913
(dp914
g14
S'turtle'
p915
sg16
(lp916
(idelphi
DelphiFieldEndAccess
p917
(dp918
g723
S'rotateX'
p919
sba(idelphi
DelphiFunctionEndAccess
p920
(dp921
g772
(lp922
(idelphi
DelphiMulOp
p923
(dp924
g871
(i__main__
DelphiIdentAccess
p925
(dp926
g14
S'faces'
p927
sg16
(lp928
sbsg876
S'/'
sg877
(idelphi
DelphiMulOp
p929
(dp930
g871
(idelphi
DelphiIntegerValue
p931
(dp932
g40
S'256'
p933
sbsg876
S'*'
sg877
(i__main__
DelphiIdentAccess
p934
(dp935
g14
S'i'
sg16
(lp936
sbsbsbasbasbsba(i__main__
DelphiAssignStatement
p937
(dp938
g716
Nsg725
(i__main__
DelphiIdentAccess
p939
(dp940
g14
S'turtle'
p941
sg16
(lp942
(idelphi
DelphiFieldEndAccess
p943
(dp944
g723
S'rotateZ'
p945
sba(idelphi
DelphiFunctionEndAccess
p946
(dp947
g772
(lp948
(idelphi
DelphiIntegerValue
p949
(dp950
g40
S'64'
p951
sbasbasbsba(i__main__
DelphiAssignStatement
p952
(dp953
g716
Nsg725
(i__main__
DelphiIdentAccess
p954
(dp955
g14
S'turtle'
p956
sg16
(lp957
(idelphi
DelphiFieldEndAccess
p958
(dp959
g723
S'moveInMillimeters'
p960
sba(idelphi
DelphiFunctionEndAccess
p961
(dp962
g772
(lp963
(i__main__
DelphiIdentAccess
p964
(dp965
g14
S'pipeRadius'
p966
sg16
(lp967
sbasbasbsba(i__main__
DelphiAssignStatement
p968
(dp969
g716
(i__main__
DelphiIdentAccess
p970
(dp971
g14
S'turtle'
p972
sg16
(lp973
(idelphi
DelphiFieldEndAccess
p974
(dp975
g723
S'position'
p976
sbasbsg725
(i__main__
DelphiIdentAccess
p977
(dp978
g14
S'startPoints'
p979
sg16
(lp980
(idelphi
DelphiArrayEndAccess
p981
(dp982
g772
(lp983
(i__main__
DelphiIdentAccess
p984
(dp985
g14
S'i'
sg16
(lp986
sbasbasbsba(i__main__
DelphiAssignStatement
p987
(dp988
g716
Nsg725
(i__main__
DelphiIdentAccess
p989
(dp990
g14
S'turtle'
p991
sg16
(lp992
(idelphi
DelphiFieldEndAccess
p993
(dp994
g723
S'pop'
p995
sbasbsbasbsbasbsba(i__main__
DelphiAssignStatement
p996
(dp997
g716
Nsg725
(i__main__
DelphiIdentAccess
p998
(dp999
g14
S'turtle'
p1000
sg16
(lp1001
(idelphi
DelphiFieldEndAccess
p1002
(dp1003
g723
S'moveInMillimeters'
p1004
sba(idelphi
DelphiFunctionEndAccess
p1005
(dp1006
g772
(lp1007
(i__main__
DelphiIdentAccess
p1008
(dp1009
g14
S'length'
p1010
sg16
(lp1011
sbasbasbsba(i__main__
DelphiAssignStatement
p1012
(dp1013
g716
(idelphi
DelphiMulOp
p1014
(dp1015
g871
(i__main__
DelphiIdentAccess
p1016
(dp1017
g14
S'endWidth'
p1018
sg16
(lp1019
sbsg876
S'*'
sg877
(idelphi
DelphiRealValue
p1020
(dp1021
g40
S'0.5'
p1022
sbsbsg725
(i__main__
DelphiIdentAccess
p1023
(dp1024
g14
S'pipeRadius'
p1025
sg16
(lp1026
sbsg570
(lp1027
S' get endWidth points\r'
p1028
asba(idelphi
DelphiForStatement
p1029
(dp1030
g824
S'i'
sg825
(idelphi
DelphiAddOp
p1031
(dp1032
g828
S'-'
sg829
(idelphi
DelphiIntegerValue
p1033
(dp1034
g40
S'1'
sbsg832
(i__main__
DelphiIdentAccess
p1035
(dp1036
g14
S'faces'
p1037
sg16
(lp1038
sbsbsg837
g838
sg109
(idelphi
DelphiIntegerValue
p1039
(dp1040
g40
S'0'
sbsg841
(idelphi
DelphiCompoundStatement
p1041
(dp1042
g712
(lp1043
(i__main__
DelphiAssignStatement
p1044
(dp1045
g716
Nsg725
(i__main__
DelphiIdentAccess
p1046
(dp1047
g14
S'turtle'
p1048
sg16
(lp1049
(idelphi
DelphiFieldEndAccess
p1050
(dp1051
g723
S'push'
p1052
sbasbsba(i__main__
DelphiAssignStatement
p1053
(dp1054
g716
Nsg725
(i__main__
DelphiIdentAccess
p1055
(dp1056
g14
S'turtle'
p1057
sg16
(lp1058
(idelphi
DelphiFieldEndAccess
p1059
(dp1060
g723
S'rotateX'
p1061
sba(idelphi
DelphiFunctionEndAccess
p1062
(dp1063
g772
(lp1064
(idelphi
DelphiMulOp
p1065
(dp1066
g871
(i__main__
DelphiIdentAccess
p1067
(dp1068
g14
S'faces'
p1069
sg16
(lp1070
sbsg876
S'/'
sg877
(idelphi
DelphiMulOp
p1071
(dp1072
g871
(idelphi
DelphiIntegerValue
p1073
(dp1074
g40
S'256'
p1075
sbsg876
S'*'
sg877
(i__main__
DelphiIdentAccess
p1076
(dp1077
g14
S'i'
sg16
(lp1078
sbsbsbasbasbsba(i__main__
DelphiAssignStatement
p1079
(dp1080
g716
Nsg725
(i__main__
DelphiIdentAccess
p1081
(dp1082
g14
S'turtle'
p1083
sg16
(lp1084
(idelphi
DelphiFieldEndAccess
p1085
(dp1086
g723
S'rotateZ'
p1087
sba(idelphi
DelphiFunctionEndAccess
p1088
(dp1089
g772
(lp1090
(idelphi
DelphiIntegerValue
p1091
(dp1092
g40
S'64'
p1093
sbasbasbsba(i__main__
DelphiAssignStatement
p1094
(dp1095
g716
Nsg725
(i__main__
DelphiIdentAccess
p1096
(dp1097
g14
S'turtle'
p1098
sg16
(lp1099
(idelphi
DelphiFieldEndAccess
p1100
(dp1101
g723
S'moveInMillimeters'
p1102
sba(idelphi
DelphiFunctionEndAccess
p1103
(dp1104
g772
(lp1105
(i__main__
DelphiIdentAccess
p1106
(dp1107
g14
S'pipeRadius'
p1108
sg16
(lp1109
sbasbasbsba(i__main__
DelphiAssignStatement
p1110
(dp1111
g716
(i__main__
DelphiIdentAccess
p1112
(dp1113
g14
S'turtle'
p1114
sg16
(lp1115
(idelphi
DelphiFieldEndAccess
p1116
(dp1117
g723
S'position'
p1118
sbasbsg725
(i__main__
DelphiIdentAccess
p1119
(dp1120
g14
S'endPoints'
p1121
sg16
(lp1122
(idelphi
DelphiArrayEndAccess
p1123
(dp1124
g772
(lp1125
(i__main__
DelphiIdentAccess
p1126
(dp1127
g14
S'i'
sg16
(lp1128
sbasbasbsba(i__main__
DelphiAssignStatement
p1129
(dp1130
g716
Nsg725
(i__main__
DelphiIdentAccess
p1131
(dp1132
g14
S'turtle'
p1133
sg16
(lp1134
(idelphi
DelphiFieldEndAccess
p1135
(dp1136
g723
S'pop'
p1137
sbasbsbasbsba(i__main__
DelphiAssignStatement
p1138
(dp1139
g716
Nsg725
(i__main__
DelphiIdentAccess
p1140
(dp1141
g14
S'turtle'
p1142
sg16
(lp1143
(idelphi
DelphiFieldEndAccess
p1144
(dp1145
g723
S'drawFileExportPipeFaces'
p1146
sba(idelphi
DelphiFunctionEndAccess
p1147
(dp1148
g772
(lp1149
(i__main__
DelphiIdentAccess
p1150
(dp1151
g14
S'startPoints'
p1152
sg16
(lp1153
sba(i__main__
DelphiIdentAccess
p1154
(dp1155
g14
S'endPoints'
p1156
sg16
(lp1157
sba(i__main__
DelphiIdentAccess
p1158
(dp1159
g14
S'faces'
p1160
sg16
(lp1161
sba(i__main__
DelphiIdentAccess
p1162
(dp1163
g14
S'segmentNumber'
p1164
sg16
(lp1165
sbasbasbsg570
(lp1166
S' draw pipe faces from stored points\r'
p1167
asbasbsS'limitedDeclSectionList'
p1168
(lp1169
(i__main__
DelphiVarSection
p1170
(dp1171
g64
I0
sS'varDeclList'
p1172
(lp1173
(idelphi
DelphiVarDecl
p1174
(dp1175
g11
NsS'identList'
p1176
(lp1177
S'turtle'
p1178
asg19
(i__main__
DelphiNamedType
p1179
(dp1180
g22
S'KfTurtle'
p1181
sg157
g1
sg158
Nsbsba(idelphi
DelphiVarDecl
p1182
(dp1183
g11
Nsg1176
(lp1184
S'angle'
p1185
aS'pipeRadius'
p1186
aS'faceWidth'
p1187
asg19
(i__main__
DelphiPrimitiveType
p1188
(dp1189
g22
g125
sbsba(idelphi
DelphiVarDecl
p1190
(dp1191
g11
Nsg1176
(lp1192
S'i'
aS'faces'
p1193
asg19
(i__main__
DelphiPrimitiveType
p1194
(dp1195
g22
g115
sbsba(idelphi
DelphiVarDecl
p1196
(dp1197
g11
Nsg1176
(lp1198
S'startPoints'
p1199
aS'endPoints'
p1200
asg19
(i__main__
DelphiArrayType
p1201
(dp1202
g19
(i__main__
DelphiNamedType
p1203
(dp1204
g22
S'KfPoint3D'
p1205
sg157
g1
sg158
NsbsS'sizes'
p1206
(lp1207
(idelphi
DelphiSubrange
p1208
(dp1209
S'high'
p1210
(i__main__
DelphiIdentAccess
p1211
(dp1212
g14
S'kMaxLineOutputPoints'
p1213
sg16
(lp1214
sbsS'low'
p1215
(idelphi
DelphiIntegerValue
p1216
(dp1217
g40
S'0'
sbsg97
S''
sbasbsbasbasbsbsS'genderstring'
p1218
(i__main__
DelphiMethodImplementation
p1219
(dp1220
g672
g138
sg97
g140
sg105
(lp1221
sg694
(lp1222
sg696
(lp1223
sg698
(lp1224
g700
asg701
(dp1225
sg132
S'PdPlantPart'
p1226
sg133
(i__main__
DelphiPrimitiveType
p1227
(dp1228
g22
g40
sbsg704
(lp1229
sg134
I0
sg135
g144
sg706
(i__main__
DelphiBlock
p1230
(dp1231
g709
(idelphi
DelphiCompoundStatement
p1232
(dp1233
g712
(lp1234
(idelphi
DelphiIfStatement
p1235
(dp1236
g732
(idelphi
DelphiRelOp
p1237
(dp1238
g735
(i__main__
DelphiIdentAccess
p1239
(dp1240
g14
S'self'
p1241
sg16
(lp1242
(idelphi
DelphiFieldEndAccess
p1243
(dp1244
g723
S'gender'
p1245
sbasbsg740
(i__main__
DelphiIdentAccess
p1246
(dp1247
g14
S'kGenderFemale'
p1248
sg16
(lp1249
sbsg743
S'='
sbsg744
(i__main__
DelphiAssignStatement
p1250
(dp1251
g716
(idelphi
DelphiStringAccess
p1252
(dp1253
g16
(lp1254
sg40
(idelphi
DelphiStringValue
p1255
(dp1256
g40
S'secondary'
p1257
sbsbsg725
(i__main__
DelphiIdentAccess
p1258
(dp1259
g14
S'result'
p1260
sg16
(lp1261
sbsbsg745
(i__main__
DelphiAssignStatement
p1262
(dp1263
g716
(idelphi
DelphiStringAccess
p1264
(dp1265
g16
(lp1266
sg40
(idelphi
DelphiStringValue
p1267
(dp1268
g40
S'primary'
p1269
sbsbsg725
(i__main__
DelphiIdentAccess
p1270
(dp1271
g14
S'result'
p1272
sg16
(lp1273
sbsbsbasbsg1168
(lp1274
sbsbsS'classandversioninformation'
p1275
(i__main__
DelphiMethodImplementation
p1276
(dp1277
g672
g146
sg97
g148
sg105
(lp1278
(i__main__
DelphiFormalParameter
p1279
(dp1280
g109
Nsg110
(lp1281
S'cvir'
p1282
asg19
(i__main__
DelphiNamedType
p1283
(dp1284
g22
S'PdClassAndVersionInformationRecord'
p1285
sg157
g1
sg158
Nsbsg116
g159
sbasg694
(lp1286
sg696
(lp1287
g1282
asg698
(lp1288
g700
ag1282
asg701
(dp1289
g1282
g1283
ssg132
S'PdPlantPart'
p1290
sg133
Nsg704
(lp1291
sg134
I0
sg135
g136
sg706
(i__main__
DelphiBlock
p1292
(dp1293
g709
(idelphi
DelphiCompoundStatement
p1294
(dp1295
g712
(lp1296
(i__main__
DelphiAssignStatement
p1297
(dp1298
g716
(i__main__
DelphiIdentAccess
p1299
(dp1300
g14
S'kPdPlantPart'
p1301
sg16
(lp1302
sbsg725
(i__main__
DelphiIdentAccess
p1303
(dp1304
g14
S'cvir'
p1305
sg16
(lp1306
(idelphi
DelphiFieldEndAccess
p1307
(dp1308
g723
S'classNumber'
p1309
sbasbsba(i__main__
DelphiAssignStatement
p1310
(dp1311
g716
(idelphi
DelphiIntegerValue
p1312
(dp1313
g40
S'0'
sbsg725
(i__main__
DelphiIdentAccess
p1314
(dp1315
g14
S'cvir'
p1316
sg16
(lp1317
(idelphi
DelphiFieldEndAccess
p1318
(dp1319
g723
S'versionNumber'
p1320
sbasbsba(i__main__
DelphiAssignStatement
p1321
(dp1322
g716
(idelphi
DelphiIntegerValue
p1323
(dp1324
g40
S'0'
sbsg725
(i__main__
DelphiIdentAccess
p1325
(dp1326
g14
S'cvir'
p1327
sg16
(lp1328
(idelphi
DelphiFieldEndAccess
p1329
(dp1330
g723
S'additionNumber'
p1331
sbasbsbasbsg1168
(lp1332
sbsg570
(lp1333
S' ---------------------------------------------------------------------------------- streaming '
p1334
asbsS'initialize'
p1335
(i__main__
DelphiMethodImplementation
p1336
(dp1337
g672
g419
sg97
g421
sg105
(lp1338
(i__main__
DelphiFormalParameter
p1339
(dp1340
g109
Nsg110
(lp1341
S'thePlant'
p1342
asg19
(i__main__
DelphiNamedType
p1343
(dp1344
g22
S'PdPlant'
p1345
sg157
g1
sg158
Nsbsg116
Nsbasg694
(lp1346
sg696
(lp1347
sg698
(lp1348
g700
ag1342
asg701
(dp1349
g1342
g1343
ssg132
S'PdPlantPart'
p1350
sg133
Nsg704
(lp1351
sg134
I0
sg135
g136
sg706
(i__main__
DelphiBlock
p1352
(dp1353
g709
(idelphi
DelphiCompoundStatement
p1354
(dp1355
g712
(lp1356
(i__main__
DelphiAssignStatement
p1357
(dp1358
g716
(i__main__
DelphiIdentAccess
p1359
(dp1360
g14
S'thePlant'
p1361
sg16
(lp1362
sbsg725
(i__main__
DelphiIdentAccess
p1363
(dp1364
g14
S'plant'
p1365
sg16
(lp1366
sbsg570
(lp1367
S'initialize generic plant part'
p1368
asba(i__main__
DelphiIncOrDecStatement
p1369
(dp1370
S'incOrDecString'
p1371
S'inc'
p1372
sS'incrementExpression'
p1373
Nsg725
(i__main__
DelphiIdentAccess
p1374
(dp1375
g14
S'plant'
p1376
sg16
(lp1377
(idelphi
DelphiFieldEndAccess
p1378
(dp1379
g723
S'partsCreated'
p1380
sbasbsg570
(lp1381
S' v1.6b1\r'
p1382
asba(i__main__
DelphiAssignStatement
p1383
(dp1384
g716
(i__main__
DelphiIdentAccess
p1385
(dp1386
g14
S'plant'
p1387
sg16
(lp1388
(idelphi
DelphiFieldEndAccess
p1389
(dp1390
g723
S'partsCreated'
p1391
sbasbsg725
(i__main__
DelphiIdentAccess
p1392
(dp1393
g14
S'partID'
p1394
sg16
(lp1395
sbsba(i__main__
DelphiAssignStatement
p1396
(dp1397
g716
(idelphi
DelphiIntegerValue
p1398
(dp1399
g40
S'0'
sbsg725
(i__main__
DelphiIdentAccess
p1400
(dp1401
g14
S'age'
p1402
sg16
(lp1403
sbsba(i__main__
DelphiAssignStatement
p1404
(dp1405
g716
(i__main__
DelphiIdentAccess
p1406
(dp1407
g14
S'kGenderFemale'
p1408
sg16
(lp1409
sbsg725
(i__main__
DelphiIdentAccess
p1410
(dp1411
g14
S'gender'
p1412
sg16
(lp1413
sbsba(i__main__
DelphiAssignStatement
p1414
(dp1415
g716
(i__main__
DelphiIdentAccess
p1416
(dp1417
g14
S'false'
p1418
sg16
(lp1419
sbsg725
(i__main__
DelphiIdentAccess
p1420
(dp1421
g14
S'hasFallenOff'
p1422
sg16
(lp1423
sbsba(i__main__
DelphiAssignStatement
p1424
(dp1425
g716
(i__main__
DelphiIdentAccess
p1426
(dp1427
g14
S'plant'
p1428
sg16
(lp1429
(idelphi
DelphiFieldEndAccess
p1430
(dp1431
g723
S'randomNumberGenerator'
p1432
sba(idelphi
DelphiFieldEndAccess
p1433
(dp1434
g723
S'zeroToOne'
p1435
sbasbsg725
(i__main__
DelphiIdentAccess
p1436
(dp1437
g14
S'randomSwayIndex'
p1438
sg16
(lp1439
sbsbasbsg1168
(lp1440
sbsg570
(lp1441
S' ---------------------------------------------------------------------------------- initialize '
p1442
asbsS'draw3dobject'
p1443
(i__main__
DelphiMethodImplementation
p1444
(dp1445
g672
g166
sg97
g168
sg105
(lp1446
(i__main__
DelphiFormalParameter
p1447
(dp1448
g109
Nsg110
(lp1449
S'tdo'
p1450
asg19
(i__main__
DelphiNamedType
p1451
(dp1452
g22
S'KfObject3D'
p1453
sg157
g1
sg158
Nsbsg116
Nsba(i__main__
DelphiFormalParameter
p1454
(dp1455
g109
Nsg110
(lp1456
S'scale'
p1457
asg19
(i__main__
DelphiPrimitiveType
p1458
(dp1459
g22
g125
sbsg116
Nsba(i__main__
DelphiFormalParameter
p1460
(dp1461
g109
Nsg110
(lp1462
S'faceColor'
p1463
aS'backfaceColor'
p1464
asg19
(i__main__
DelphiNamedType
p1465
(dp1466
g22
S'TColorRef'
p1467
sg157
g1
sg158
Nsbsg116
Nsba(i__main__
DelphiFormalParameter
p1468
(dp1469
g109
Nsg110
(lp1470
S'dxfIndex'
p1471
asg19
(i__main__
DelphiPrimitiveType
p1472
(dp1473
g22
g115
sbsg116
Nsbasg694
(lp1474
sg696
(lp1475
sg698
(lp1476
g700
ag1450
ag1457
ag1463
ag1464
ag1471
asg701
(dp1477
g1464
g1465
sg1457
g1458
sg1450
g1451
sg1463
g1465
sg1471
g1472
ssg132
S'PdPlantPart'
p1478
sg133
Nsg704
(lp1479
sg134
I0
sg135
g136
sg706
(i__main__
DelphiBlock
p1480
(dp1481
g709
(idelphi
DelphiCompoundStatement
p1482
(dp1483
g712
(lp1484
(idelphi
DelphiIfStatement
p1485
(dp1486
g732
(idelphi
DelphiRelOp
p1487
(dp1488
g735
(i__main__
DelphiIdentAccess
p1489
(dp1490
g14
S'tdo'
p1491
sg16
(lp1492
sbsg740
(idelphi
DelphiNilValue
p1493
(dp1494
bsg743
S'='
sbsg744
Nsg745
(i__main__
DelphiExitStatement
p1495
(dp1496
g748
g1444
sbsba(i__main__
DelphiAssignStatement
p1497
(dp1498
g716
(i__main__
DelphiIdentAccess
p1499
(dp1500
g14
S'plant'
p1501
sg16
(lp1502
(idelphi
DelphiFieldEndAccess
p1503
(dp1504
g723
S'turtle'
p1505
sbasbsg725
(i__main__
DelphiIdentAccess
p1506
(dp1507
g14
S'turtle'
p1508
sg16
(lp1509
sbsba(idelphi
DelphiIfStatement
p1510
(dp1511
g732
(idelphi
DelphiNestedExpressionListAccess
p1512
(dp1513
g16
(lp1514
sg772
(lp1515
(idelphi
DelphiRelOp
p1516
(dp1517
g735
(i__main__
DelphiIdentAccess
p1518
(dp1519
g14
S'turtle'
p1520
sg16
(lp1521
sbsg740
(idelphi
DelphiNilValue
p1522
(dp1523
bsg743
S'='
sbasbsg744
Nsg745
(i__main__
DelphiExitStatement
p1524
(dp1525
g748
g1444
sbsba(idelphi
DelphiIfStatement
p1526
(dp1527
g732
(i__main__
DelphiIdentAccess
p1528
(dp1529
g14
S'self'
p1530
sg16
(lp1531
(idelphi
DelphiFieldEndAccess
p1532
(dp1533
g723
S'setColorsWithAmendmentAndReturnTrueIfNoOverrides'
p1534
sba(idelphi
DelphiFunctionEndAccess
p1535
(dp1536
g772
(lp1537
(i__main__
DelphiIdentAccess
p1538
(dp1539
g14
S'kDrawingTdo'
p1540
sg16
(lp1541
sbasbasbsg744
Nsg745
(idelphi
DelphiCompoundStatement
p1542
(dp1543
g712
(lp1544
(i__main__
DelphiAssignStatement
p1545
(dp1546
g716
Nsg725
(i__main__
DelphiIdentAccess
p1547
(dp1548
g14
S'turtle'
p1549
sg16
(lp1550
(idelphi
DelphiFieldEndAccess
p1551
(dp1552
g723
S'setForeColorBackColor'
p1553
sba(idelphi
DelphiFunctionEndAccess
p1554
(dp1555
g772
(lp1556
(i__main__
DelphiIdentAccess
p1557
(dp1558
g14
S'faceColor'
p1559
sg16
(lp1560
sba(i__main__
DelphiIdentAccess
p1561
(dp1562
g14
S'backfaceColor'
p1563
sg16
(lp1564
sbasbasbsba(i__main__
DelphiAssignStatement
p1565
(dp1566
g716
Nsg725
(i__main__
DelphiIdentAccess
p1567
(dp1568
g14
S'turtle'
p1569
sg16
(lp1570
(idelphi
DelphiFieldEndAccess
p1571
(dp1572
g723
S'setLineColor'
p1573
sba(idelphi
DelphiFunctionEndAccess
p1574
(dp1575
g772
(lp1576
(i__main__
DelphiIdentAccess
p1577
(dp1578
g14
S'darkerColor'
p1579
sg16
(lp1580
(idelphi
DelphiFunctionEndAccess
p1581
(dp1582
g772
(lp1583
(i__main__
DelphiIdentAccess
p1584
(dp1585
g14
S'faceColor'
p1586
sg16
(lp1587
sbasbasbasbasbsbasbsba(i__main__
DelphiAssignStatement
p1588
(dp1589
g716
(idelphi
DelphiMulOp
p1590
(dp1591
g871
(i__main__
DelphiIdentAccess
p1592
(dp1593
g14
S'self'
p1594
sg16
(lp1595
(idelphi
DelphiFieldEndAccess
p1596
(dp1597
g723
S'scaleMultiplierConsideringAmendments'
p1598
sbasbsg876
S'*'
sg877
(i__main__
DelphiIdentAccess
p1599
(dp1600
g14
S'scale'
p1601
sg16
(lp1602
sbsbsg725
(i__main__
DelphiIdentAccess
p1603
(dp1604
g14
S'realScale'
p1605
sg16
(lp1606
sbsba(i__main__
DelphiAssignStatement
p1607
(dp1608
g716
Nsg725
(i__main__
DelphiIdentAccess
p1609
(dp1610
g14
S'turtle'
p1611
sg16
(lp1612
(idelphi
DelphiFieldEndAccess
p1613
(dp1614
g723
S'setLineWidth'
p1615
sba(idelphi
DelphiFunctionEndAccess
p1616
(dp1617
g772
(lp1618
(idelphi
DelphiRealValue
p1619
(dp1620
g40
S'1.0'
p1621
sbasbasbsba(i__main__
DelphiAssignStatement
p1622
(dp1623
g716
Nsg725
(i__main__
DelphiIdentAccess
p1624
(dp1625
g14
S'tdo'
p1626
sg16
(lp1627
(idelphi
DelphiFieldEndAccess
p1628
(dp1629
g723
S'draw'
p1630
sba(idelphi
DelphiFunctionEndAccess
p1631
(dp1632
g772
(lp1633
(i__main__
DelphiIdentAccess
p1634
(dp1635
g14
S'turtle'
p1636
sg16
(lp1637
sba(i__main__
DelphiIdentAccess
p1638
(dp1639
g14
S'realScale'
p1640
sg16
(lp1641
sba(i__main__
DelphiIdentAccess
p1642
(dp1643
g14
S'self'
p1644
sg16
(lp1645
(idelphi
DelphiFieldEndAccess
p1646
(dp1647
g723
S'longNameForDXFPartConsideringGenderEtc'
p1648
sba(idelphi
DelphiFunctionEndAccess
p1649
(dp1650
g772
(lp1651
(i__main__
DelphiIdentAccess
p1652
(dp1653
g14
S'dxfIndex'
p1654
sg16
(lp1655
sbasbasba(i__main__
DelphiIdentAccess
p1656
(dp1657
g14
S'self'
p1658
sg16
(lp1659
(idelphi
DelphiFieldEndAccess
p1660
(dp1661
g723
S'shortNameForDXFPartConsideringGenderEtc'
p1662
sba(idelphi
DelphiFunctionEndAccess
p1663
(dp1664
g772
(lp1665
(i__main__
DelphiIdentAccess
p1666
(dp1667
g14
S'dxfIndex'
p1668
sg16
(lp1669
sbasbasba(i__main__
DelphiIdentAccess
p1670
(dp1671
g14
S'self'
p1672
sg16
(lp1673
(idelphi
DelphiFieldEndAccess
p1674
(dp1675
g723
S'realDxfIndexForBaseDXFPart'
p1676
sba(idelphi
DelphiFunctionEndAccess
p1677
(dp1678
g772
(lp1679
(i__main__
DelphiIdentAccess
p1680
(dp1681
g14
S'dxfIndex'
p1682
sg16
(lp1683
sbasbasba(i__main__
DelphiIdentAccess
p1684
(dp1685
g14
S'self'
p1686
sg16
(lp1687
(idelphi
DelphiFieldEndAccess
p1688
(dp1689
g723
S'partID'
p1690
sbasbasbasbsbasbsg1168
(lp1691
(i__main__
DelphiVarSection
p1692
(dp1693
g64
I0
sg1172
(lp1694
(idelphi
DelphiVarDecl
p1695
(dp1696
g11
Nsg1176
(lp1697
S'realScale'
p1698
asg19
(i__main__
DelphiPrimitiveType
p1699
(dp1700
g22
g125
sbsba(idelphi
DelphiVarDecl
p1701
(dp1702
g11
Nsg1176
(lp1703
S'turtle'
p1704
asg19
(i__main__
DelphiNamedType
p1705
(dp1706
g22
S'KfTurtle'
p1707
sg157
g1
sg158
Nsbsbasbasbsg570
(lp1708
S' ---------------------------------------------------------------------------------- drawing '
p1709
asbsS'nextday'
p1710
(i__main__
DelphiMethodImplementation
p1711
(dp1712
g672
g198
sg97
g200
sg105
(lp1713
sg694
(lp1714
sg696
(lp1715
sg698
(lp1716
g700
asg701
(dp1717
sg132
S'PdPlantPart'
p1718
sg133
Nsg704
(lp1719
sg134
I0
sg135
g136
sg706
(i__main__
DelphiBlock
p1720
(dp1721
g709
(idelphi
DelphiCompoundStatement
p1722
(dp1723
g712
(lp1724
(i__main__
DelphiIncOrDecStatement
p1725
(dp1726
g1371
g1372
sg1373
Nsg725
(i__main__
DelphiIdentAccess
p1727
(dp1728
g14
S'age'
p1729
sg16
(lp1730
sbsg570
(lp1731
S'next day procedure for generic plant part'
p1732
asbasbsg1168
(lp1733
sbsbsS'setcolorstoparameters'
p1734
(i__main__
DelphiMethodImplementation
p1735
(dp1736
g672
g203
sg97
g205
sg105
(lp1737
sg694
(lp1738
sg696
(lp1739
sg698
(lp1740
g700
asg701
(dp1741
sg132
S'PdPlantPart'
p1742
sg133
Nsg704
(lp1743
sg134
I0
sg135
g136
sg706
(i__main__
DelphiBlock
p1744
(dp1745
g709
(idelphi
DelphiCompoundStatement
p1746
(dp1747
g712
Nsg570
(lp1748
S'subclasses can override'
p1749
asbsg1168
(lp1750
sbsbsS'hiddenbyamendment'
p1751
(i__main__
DelphiMethodImplementation
p1752
(dp1753
g672
g208
sg97
g210
sg105
(lp1754
sg694
(lp1755
sg696
(lp1756
sg698
(lp1757
g700
asg701
(dp1758
sg132
S'PdPlantPart'
p1759
sg133
(i__main__
DelphiPrimitiveType
p1760
(dp1761
g22
g214
sbsg704
(lp1762
sg134
I0
sg135
g144
sg706
(i__main__
DelphiBlock
p1763
(dp1764
g709
(idelphi
DelphiCompoundStatement
p1765
(dp1766
g712
(lp1767
(i__main__
DelphiAssignStatement
p1768
(dp1769
g716
(i__main__
DelphiIdentAccess
p1770
(dp1771
g14
S'false'
p1772
sg16
(lp1773
sbsg725
(i__main__
DelphiIdentAccess
p1774
(dp1775
g14
S'result'
p1776
sg16
(lp1777
sbsba(idelphi
DelphiIfStatement
p1778
(dp1779
g732
(idelphi
DelphiNot
p1780
(dp1781
S'factor'
p1782
(i__main__
DelphiIdentAccess
p1783
(dp1784
g14
S'domain'
p1785
sg16
(lp1786
(idelphi
DelphiFieldEndAccess
p1787
(dp1788
g723
S'options'
p1789
sba(idelphi
DelphiFieldEndAccess
p1790
(dp1791
g723
S'showPosingAtAll'
p1792
sbasbsbsg744
Nsg745
(i__main__
DelphiExitStatement
p1793
(dp1794
g748
g1752
sbsba(idelphi
DelphiIfStatement
p1795
(dp1796
g732
(idelphi
DelphiRelOp
p1797
(dp1798
g735
(i__main__
DelphiIdentAccess
p1799
(dp1800
g14
S'plant'
p1801
sg16
(lp1802
(idelphi
DelphiFieldEndAccess
p1803
(dp1804
g723
S'turtle'
p1805
sbasbsg740
(idelphi
DelphiNilValue
p1806
(dp1807
bsg743
S'='
sbsg744
Nsg745
(i__main__
DelphiExitStatement
p1808
(dp1809
g748
g1752
sbsba(i__main__
DelphiAssignStatement
p1810
(dp1811
g716
(idelphi
DelphiRelOp
p1812
(dp1813
g735
(i__main__
DelphiIdentAccess
p1814
(dp1815
g14
S'amendment'
p1816
sg16
(lp1817
sbsg740
(idelphi
DelphiNilValue
p1818
(dp1819
bsg743
S'<>'
p1820
sbsg725
(i__main__
DelphiIdentAccess
p1821
(dp1822
g14
S'iHaveAnAmendment'
p1823
sg16
(lp1824
sbsba(i__main__
DelphiAssignStatement
p1825
(dp1826
g716
(idelphi
DelphiRelOp
p1827
(dp1828
g735
(i__main__
DelphiIdentAccess
p1829
(dp1830
g14
S'amendment'
p1831
sg16
(lp1832
sbsg740
(idelphi
DelphiNilValue
p1833
(dp1834
bsg743
S'='
sbsg725
(i__main__
DelphiIdentAccess
p1835
(dp1836
g14
S'iDontHaveAnAmendment'
p1837
sg16
(lp1838
sbsba(i__main__
DelphiAssignStatement
p1839
(dp1840
g716
(idelphi
DelphiRelOp
p1841
(dp1842
g735
(i__main__
DelphiIdentAccess
p1843
(dp1844
g14
S'parentAmendment'
p1845
sg16
(lp1846
sbsg740
(idelphi
DelphiNilValue
p1847
(dp1848
bsg743
g1820
sbsg725
(i__main__
DelphiIdentAccess
p1849
(dp1850
g14
S'myParentHasAnAmendment'
p1851
sg16
(lp1852
sbsba(i__main__
DelphiAssignStatement
p1853
(dp1854
g716
(idelphi
DelphiMulOp
p1855
(dp1856
g871
(idelphi
DelphiNestedExpressionListAccess
p1857
(dp1858
g16
(lp1859
sg772
(lp1860
(i__main__
DelphiIdentAccess
p1861
(dp1862
g14
S'amendment'
p1863
sg16
(lp1864
(idelphi
DelphiFieldEndAccess
p1865
(dp1866
g723
S'hide'
p1867
sbasbasbsg876
S'and'
p1868
sg877
(idelphi
DelphiNestedExpressionListAccess
p1869
(dp1870
g16
(lp1871
sg772
(lp1872
(idelphi
DelphiRelOp
p1873
(dp1874
g735
(i__main__
DelphiIdentAccess
p1875
(dp1876
g14
S'amendment'
p1877
sg16
(lp1878
sbsg740
(idelphi
DelphiNilValue
p1879
(dp1880
bsg743
g1820
sbasbsbsg725
(i__main__
DelphiIdentAccess
p1881
(dp1882
g14
S'myAmendmentSaysIAmHidden'
p1883
sg16
(lp1884
sbsba(i__main__
DelphiAssignStatement
p1885
(dp1886
g716
(idelphi
DelphiMulOp
p1887
(dp1888
g871
(idelphi
DelphiNestedExpressionListAccess
p1889
(dp1890
g16
(lp1891
sg772
(lp1892
(i__main__
DelphiIdentAccess
p1893
(dp1894
g14
S'parentAmendment'
p1895
sg16
(lp1896
(idelphi
DelphiFieldEndAccess
p1897
(dp1898
g723
S'hide'
p1899
sbasbasbsg876
g1868
sg877
(idelphi
DelphiNestedExpressionListAccess
p1900
(dp1901
g16
(lp1902
sg772
(lp1903
(idelphi
DelphiRelOp
p1904
(dp1905
g735
(i__main__
DelphiIdentAccess
p1906
(dp1907
g14
S'parentAmendment'
p1908
sg16
(lp1909
sbsg740
(idelphi
DelphiNilValue
p1910
(dp1911
bsg743
g1820
sbasbsbsg725
(i__main__
DelphiIdentAccess
p1912
(dp1913
g14
S'myParentsAmendmentSaysIAmHidden'
p1914
sg16
(lp1915
sbsba(i__main__
DelphiAssignStatement
p1916
(dp1917
g716
(idelphi
DelphiMulOp
p1918
(dp1919
g871
(idelphi
DelphiNestedExpressionListAccess
p1920
(dp1921
g16
(lp1922
sg772
(lp1923
(idelphi
DelphiNot
p1924
(dp1925
g1782
(i__main__
DelphiIdentAccess
p1926
(dp1927
g14
S'domain'
p1928
sg16
(lp1929
(idelphi
DelphiFieldEndAccess
p1930
(dp1931
g723
S'drawingToMakeCopyBitmap'
p1932
sbasbsbasbsg876
g1868
sg877
(idelphi
DelphiNestedExpressionListAccess
p1933
(dp1934
g16
(lp1935
sg772
(lp1936
(idelphi
DelphiRelOp
p1937
(dp1938
g735
(i__main__
DelphiIdentAccess
p1939
(dp1940
g14
S'plant'
p1941
sg16
(lp1942
(idelphi
DelphiFieldEndAccess
p1943
(dp1944
g723
S'turtle'
p1945
sba(idelphi
DelphiFieldEndAccess
p1946
(dp1947
g723
S'writingTo'
p1948
sbasbsg740
(i__main__
DelphiIdentAccess
p1949
(dp1950
g14
S'kScreen'
p1951
sg16
(lp1952
sbsg743
S'='
sbasbsbsg725
(i__main__
DelphiIdentAccess
p1953
(dp1954
g14
S'drawingToMainWindow'
p1955
sg16
(lp1956
sbsba(idelphi
DelphiIfStatement
p1957
(dp1958
g732
(idelphi
DelphiAddOp
p1959
(dp1960
g828
S'or'
p1961
sg829
(idelphi
DelphiNestedExpressionListAccess
p1962
(dp1963
g16
(lp1964
sg772
(lp1965
(idelphi
DelphiMulOp
p1966
(dp1967
g871
(i__main__
DelphiIdentAccess
p1968
(dp1969
g14
S'myParentsAmendmentSaysIAmHidden'
p1970
sg16
(lp1971
sbsg876
g1868
sg877
(idelphi
DelphiMulOp
p1972
(dp1973
g871
(i__main__
DelphiIdentAccess
p1974
(dp1975
g14
S'myParentHasAnAmendment'
p1976
sg16
(lp1977
sbsg876
g1868
sg877
(i__main__
DelphiIdentAccess
p1978
(dp1979
g14
S'iDontHaveAnAmendment'
p1980
sg16
(lp1981
sbsbsbasbsg832
(idelphi
DelphiNestedExpressionListAccess
p1982
(dp1983
g16
(lp1984
sg772
(lp1985
(idelphi
DelphiMulOp
p1986
(dp1987
g871
(i__main__
DelphiIdentAccess
p1988
(dp1989
g14
S'myAmendmentSaysIAmHidden'
p1990
sg16
(lp1991
sbsg876
g1868
sg877
(i__main__
DelphiIdentAccess
p1992
(dp1993
g14
S'iHaveAnAmendment'
p1994
sg16
(lp1995
sbsbasbsbsg744
Nsg745
(idelphi
DelphiIfStatement
p1996
(dp1997
g732
(i__main__
DelphiIdentAccess
p1998
(dp1999
g14
S'drawingToMainWindow'
p2000
sg16
(lp2001
sbsg744
(i__main__
DelphiAssignStatement
p2002
(dp2003
g716
(i__main__
DelphiIdentAccess
p2004
(dp2005
g14
S'true'
p2006
sg16
(lp2007
sbsg725
(i__main__
DelphiIdentAccess
p2008
(dp2009
g14
S'result'
p2010
sg16
(lp2011
sbsbsg745
(i__main__
DelphiAssignStatement
p2012
(dp2013
g716
(idelphi
DelphiNot
p2014
(dp2015
g1782
(i__main__
DelphiIdentAccess
p2016
(dp2017
g14
S'domain'
p2018
sg16
(lp2019
(idelphi
DelphiFieldEndAccess
p2020
(dp2021
g723
S'options'
p2022
sba(idelphi
DelphiFieldEndAccess
p2023
(dp2024
g723
S'showGhostingForHiddenParts'
p2025
sbasbsbsg725
(i__main__
DelphiIdentAccess
p2026
(dp2027
g14
S'result'
p2028
sg16
(lp2029
sbsbsbsbasbsg1168
(lp2030
(i__main__
DelphiVarSection
p2031
(dp2032
g64
I0
sg1172
(lp2033
(idelphi
DelphiVarDecl
p2034
(dp2035
g11
Nsg1176
(lp2036
S'iHaveAnAmendment'
p2037
aS'iDontHaveAnAmendment'
p2038
aS'myParentHasAnAmendment'
p2039
aS'myAmendmentSaysIAmHidden'
p2040
aS'myParentsAmendmentSaysIAmHidden'
p2041
aS'drawingToMainWindow'
p2042
asg19
(i__main__
DelphiPrimitiveType
p2043
(dp2044
g22
g214
sbsbasbasbsbsS'determineamendmentandalsoforchildrenifany'
p2045
(i__main__
DelphiMethodImplementation
p2046
(dp2047
g672
g216
sg97
g218
sg105
(lp2048
sg694
(lp2049
sg696
(lp2050
sg698
(lp2051
g700
asg701
(dp2052
sg132
S'PdPlantPart'
p2053
sg133
Nsg704
(lp2054
sg134
I0
sg135
g136
sg706
(i__main__
DelphiBlock
p2055
(dp2056
g709
(idelphi
DelphiCompoundStatement
p2057
(dp2058
g712
(lp2059
(i__main__
DelphiAssignStatement
p2060
(dp2061
g716
(i__main__
DelphiIdentAccess
p2062
(dp2063
g14
S'plant'
p2064
sg16
(lp2065
(idelphi
DelphiFieldEndAccess
p2066
(dp2067
g723
S'amendmentForPartID'
p2068
sba(idelphi
DelphiFunctionEndAccess
p2069
(dp2070
g772
(lp2071
(i__main__
DelphiIdentAccess
p2072
(dp2073
g14
S'partID'
p2074
sg16
(lp2075
sbasbasbsg725
(i__main__
DelphiIdentAccess
p2076
(dp2077
g14
S'amendment'
p2078
sg16
(lp2079
sbsbasbsg1168
(lp2080
sbsg570
(lp2081
S' ---------------------------------------------------------------------------------- amendments '
p2082
asbsS'addexportmaterial'
p2083
(i__main__
DelphiMethodImplementation
p2084
(dp2085
g672
g221
sg97
g223
sg105
(lp2086
(i__main__
DelphiFormalParameter
p2087
(dp2088
g109
Nsg110
(lp2089
S'traverserProxy'
p2090
asg19
(i__main__
DelphiNamedType
p2091
(dp2092
g22
S'TObject'
p2093
sg157
g1
sg158
Nsbsg116
Nsba(i__main__
DelphiFormalParameter
p2094
(dp2095
g109
Nsg110
(lp2096
S'femaleIndex'
p2097
aS'maleIndex'
p2098
asg19
(i__main__
DelphiPrimitiveType
p2099
(dp2100
g22
g115
sbsg116
Nsbasg694
(lp2101
sg696
(lp2102
sg698
(lp2103
g700
ag2090
ag2097
ag2098
asg701
(dp2104
g2098
g2099
sg2090
g2091
sg2097
g2099
ssg132
S'PdPlantPart'
p2105
sg133
Nsg704
(lp2106
sg134
I0
sg135
g136
sg706
(i__main__
DelphiBlock
p2107
(dp2108
g709
(idelphi
DelphiCompoundStatement
p2109
(dp2110
g712
(lp2111
(i__main__
DelphiAssignStatement
p2112
(dp2113
g716
(i__main__
DelphiIdentAccess
p2114
(dp2115
g14
S'PdTraverser'
p2116
sg16
(lp2117
(idelphi
DelphiFunctionEndAccess
p2118
(dp2119
g772
(lp2120
(i__main__
DelphiIdentAccess
p2121
(dp2122
g14
S'traverserProxy'
p2123
sg16
(lp2124
sbasbasbsg725
(i__main__
DelphiIdentAccess
p2125
(dp2126
g14
S'traverser'
p2127
sg16
(lp2128
sbsg570
(lp2129
S' remember that this is not a true count; each part only adds at LEAST one\r'
p2130
aS' if you wanted to use this for a true export-type-part count you would have to amend some code\r'
p2131
asba(idelphi
DelphiIfStatement
p2132
(dp2133
g732
(idelphi
DelphiRelOp
p2134
(dp2135
g735
(i__main__
DelphiIdentAccess
p2136
(dp2137
g14
S'traverser'
p2138
sg16
(lp2139
sbsg740
(idelphi
DelphiNilValue
p2140
(dp2141
bsg743
S'='
sbsg744
Nsg745
(i__main__
DelphiExitStatement
p2142
(dp2143
g748
g2084
sbsba(idelphi
DelphiIfStatement
p2144
(dp2145
g732
(idelphi
DelphiRelOp
p2146
(dp2147
g735
(i__main__
DelphiIdentAccess
p2148
(dp2149
g14
S'maleIndex'
p2150
sg16
(lp2151
sbsg740
(idelphi
DelphiIntegerValue
p2152
(dp2153
g40
S'0'
sbsg743
S'<'
sbsg744
(idelphi
DelphiIfStatement
p2154
(dp2155
g732
(idelphi
DelphiRelOp
p2156
(dp2157
g735
(i__main__
DelphiIdentAccess
p2158
(dp2159
g14
S'self'
p2160
sg16
(lp2161
(idelphi
DelphiFieldEndAccess
p2162
(dp2163
g723
S'gender'
p2164
sbasbsg740
(i__main__
DelphiIdentAccess
p2165
(dp2166
g14
S'kGenderFemale'
p2167
sg16
(lp2168
sbsg743
S'='
sbsg744
(i__main__
DelphiIncOrDecStatement
p2169
(dp2170
g1371
g1372
sg1373
Nsg725
(i__main__
DelphiIdentAccess
p2171
(dp2172
g14
S'traverser'
p2173
sg16
(lp2174
(idelphi
DelphiFieldEndAccess
p2175
(dp2176
g723
S'exportTypeCounts'
p2177
sba(idelphi
DelphiArrayEndAccess
p2178
(dp2179
g772
(lp2180
(i__main__
DelphiIdentAccess
p2181
(dp2182
g14
S'maleIndex'
p2183
sg16
(lp2184
sbasbasbsbsg745
(i__main__
DelphiIncOrDecStatement
p2185
(dp2186
g1371
g1372
sg1373
Nsg725
(i__main__
DelphiIdentAccess
p2187
(dp2188
g14
S'traverser'
p2189
sg16
(lp2190
(idelphi
DelphiFieldEndAccess
p2191
(dp2192
g723
S'exportTypeCounts'
p2193
sba(idelphi
DelphiArrayEndAccess
p2194
(dp2195
g772
(lp2196
(i__main__
DelphiIdentAccess
p2197
(dp2198
g14
S'femaleIndex'
p2199
sg16
(lp2200
sbasbasbsbsbsg745
(i__main__
DelphiIncOrDecStatement
p2201
(dp2202
g1371
g1372
sg1373
Nsg725
(i__main__
DelphiIdentAccess
p2203
(dp2204
g14
S'traverser'
p2205
sg16
(lp2206
(idelphi
DelphiFieldEndAccess
p2207
(dp2208
g723
S'exportTypeCounts'
p2209
sba(idelphi
DelphiArrayEndAccess
p2210
(dp2211
g772
(lp2212
(i__main__
DelphiIdentAccess
p2213
(dp2214
g14
S'femaleIndex'
p2215
sg16
(lp2216
sbasbasbsg570
(lp2217
S' means to ignore gender\r'
p2218
asbsbasbsg1168
(lp2219
(i__main__
DelphiVarSection
p2220
(dp2221
g64
I0
sg1172
(lp2222
(idelphi
DelphiVarDecl
p2223
(dp2224
g11
Nsg1176
(lp2225
S'traverser'
p2226
asg19
(i__main__
DelphiNamedType
p2227
(dp2228
g22
S'PdTraverser'
p2229
sg157
g1
sg158
NsbsbasbasbsbsS'totalbiomass_pctmpb'
p2230
(i__main__
DelphiMethodImplementation
p2231
(dp2232
g672
g240
sg97
g242
sg105
(lp2233
sg694
(lp2234
sg696
(lp2235
sg698
(lp2236
g700
asg701
(dp2237
sg132
S'PdPlantPart'
p2238
sg133
(i__main__
DelphiPrimitiveType
p2239
(dp2240
g22
g125
sbsg704
(lp2241
sg134
I0
sg135
g144
sg706
(i__main__
DelphiBlock
p2242
(dp2243
g709
(idelphi
DelphiCompoundStatement
p2244
(dp2245
g712
(lp2246
(i__main__
DelphiAssignStatement
p2247
(dp2248
g716
(idelphi
DelphiAddOp
p2249
(dp2250
g828
S'+'
sg829
(i__main__
DelphiIdentAccess
p2251
(dp2252
g14
S'deadBiomass_pctMPB'
p2253
sg16
(lp2254
sbsg832
(i__main__
DelphiIdentAccess
p2255
(dp2256
g14
S'liveBiomass_pctMPB'
p2257
sg16
(lp2258
sbsbsg725
(i__main__
DelphiIdentAccess
p2259
(dp2260
g14
S'result'
p2261
sg16
(lp2262
sbsbasbsg1168
(lp2263
sbsbsS'streamdatawithfiler'
p2264
(i__main__
DelphiMethodImplementation
p2265
(dp2266
g672
g247
sg97
g249
sg105
(lp2267
(i__main__
DelphiFormalParameter
p2268
(dp2269
g109
Nsg110
(lp2270
S'filer'
p2271
asg19
(i__main__
DelphiNamedType
p2272
(dp2273
g22
S'PdFiler'
p2274
sg157
g1
sg158
Nsbsg116
Nsba(i__main__
DelphiFormalParameter
p2275
(dp2276
g109
Nsg110
(lp2277
S'cvir'
p2278
asg19
(i__main__
DelphiNamedType
p2279
(dp2280
g22
S'PdClassAndVersionInformationRecord'
p2281
sg157
g1
sg158
Nsbsg116
g265
sbasg694
(lp2282
sg696
(lp2283
sg698
(lp2284
g700
ag2271
ag2278
asg701
(dp2285
g2271
g2272
sg2278
g2279
ssg132
S'PdPlantPart'
p2286
sg133
Nsg704
(lp2287
sg134
I0
sg135
g136
sg706
(i__main__
DelphiBlock
p2288
(dp2289
g709
(idelphi
DelphiCompoundStatement
p2290
(dp2291
g712
(lp2292
(i__main__
DelphiAssignStatement
p2293
(dp2294
g716
Nsg725
(idelphi
DelphiInheritedCall
p2295
(dp2296
g14
S'streamDataWithFiler'
p2297
sg772
(lp2298
(i__main__
DelphiIdentAccess
p2299
(dp2300
g14
S'filer'
p2301
sg16
(lp2302
sba(i__main__
DelphiIdentAccess
p2303
(dp2304
g14
S'cvir'
p2305
sg16
(lp2306
sbasbsba(i__main__
DelphiAssignStatement
p2307
(dp2308
g716
Nsg725
(i__main__
DelphiIdentAccess
p2309
(dp2310
g14
S'filer'
p2311
sg16
(lp2312
(idelphi
DelphiFieldEndAccess
p2313
(dp2314
g723
S'streamSingle'
p2315
sba(idelphi
DelphiFunctionEndAccess
p2316
(dp2317
g772
(lp2318
(i__main__
DelphiIdentAccess
p2319
(dp2320
g14
S'liveBiomass_pctMPB'
p2321
sg16
(lp2322
sbasbasbsba(i__main__
DelphiAssignStatement
p2323
(dp2324
g716
Nsg725
(i__main__
DelphiIdentAccess
p2325
(dp2326
g14
S'filer'
p2327
sg16
(lp2328
(idelphi
DelphiFieldEndAccess
p2329
(dp2330
g723
S'streamSingle'
p2331
sba(idelphi
DelphiFunctionEndAccess
p2332
(dp2333
g772
(lp2334
(i__main__
DelphiIdentAccess
p2335
(dp2336
g14
S'deadBiomass_pctMPB'
p2337
sg16
(lp2338
sbasbasbsba(i__main__
DelphiAssignStatement
p2339
(dp2340
g716
Nsg725
(i__main__
DelphiIdentAccess
p2341
(dp2342
g14
S'filer'
p2343
sg16
(lp2344
(idelphi
DelphiFieldEndAccess
p2345
(dp2346
g723
S'streamSingle'
p2347
sba(idelphi
DelphiFunctionEndAccess
p2348
(dp2349
g772
(lp2350
(i__main__
DelphiIdentAccess
p2351
(dp2352
g14
S'biomassDemand_pctMPB'
p2353
sg16
(lp2354
sbasbasbsba(i__main__
DelphiAssignStatement
p2355
(dp2356
g716
Nsg725
(i__main__
DelphiIdentAccess
p2357
(dp2358
g14
S'filer'
p2359
sg16
(lp2360
(idelphi
DelphiFieldEndAccess
p2361
(dp2362
g723
S'streamSmallint'
p2363
sba(idelphi
DelphiFunctionEndAccess
p2364
(dp2365
g772
(lp2366
(i__main__
DelphiIdentAccess
p2367
(dp2368
g14
S'gender'
p2369
sg16
(lp2370
sbasbasbsba(i__main__
DelphiAssignStatement
p2371
(dp2372
g716
Nsg725
(i__main__
DelphiIdentAccess
p2373
(dp2374
g14
S'filer'
p2375
sg16
(lp2376
(idelphi
DelphiFieldEndAccess
p2377
(dp2378
g723
S'streamLongint'
p2379
sba(idelphi
DelphiFunctionEndAccess
p2380
(dp2381
g772
(lp2382
(i__main__
DelphiIdentAccess
p2383
(dp2384
g14
S'age'
p2385
sg16
(lp2386
sbasbasbsba(i__main__
DelphiAssignStatement
p2387
(dp2388
g716
Nsg725
(i__main__
DelphiIdentAccess
p2389
(dp2390
g14
S'filer'
p2391
sg16
(lp2392
(idelphi
DelphiFieldEndAccess
p2393
(dp2394
g723
S'streamBoolean'
p2395
sba(idelphi
DelphiFunctionEndAccess
p2396
(dp2397
g772
(lp2398
(i__main__
DelphiIdentAccess
p2399
(dp2400
g14
S'hasFallenOff'
p2401
sg16
(lp2402
sbasbasbsba(i__main__
DelphiAssignStatement
p2403
(dp2404
g716
Nsg725
(i__main__
DelphiIdentAccess
p2405
(dp2406
g14
S'filer'
p2407
sg16
(lp2408
(idelphi
DelphiFieldEndAccess
p2409
(dp2410
g723
S'streamBoolean'
p2411
sba(idelphi
DelphiFunctionEndAccess
p2412
(dp2413
g772
(lp2414
(i__main__
DelphiIdentAccess
p2415
(dp2416
g14
S'isSeedlingLeaf'
p2417
sg16
(lp2418
sbasbasbsba(i__main__
DelphiAssignStatement
p2419
(dp2420
g716
Nsg725
(i__main__
DelphiIdentAccess
p2421
(dp2422
g14
S'filer'
p2423
sg16
(lp2424
(idelphi
DelphiFieldEndAccess
p2425
(dp2426
g723
S'streamLongint'
p2427
sba(idelphi
DelphiFunctionEndAccess
p2428
(dp2429
g772
(lp2430
(i__main__
DelphiIdentAccess
p2431
(dp2432
g14
S'partID'
p2433
sg16
(lp2434
sbasbasbsba(i__main__
DelphiAssignStatement
p2435
(dp2436
g716
Nsg725
(i__main__
DelphiIdentAccess
p2437
(dp2438
g14
S'filer'
p2439
sg16
(lp2440
(idelphi
DelphiFieldEndAccess
p2441
(dp2442
g723
S'streamSingle'
p2443
sba(idelphi
DelphiFunctionEndAccess
p2444
(dp2445
g772
(lp2446
(i__main__
DelphiIdentAccess
p2447
(dp2448
g14
S'biomassOfMeAndAllPartsAboveMe_pctMPB'
p2449
sg16
(lp2450
sbasbasbsba(i__main__
DelphiAssignStatement
p2451
(dp2452
g716
Nsg725
(i__main__
DelphiIdentAccess
p2453
(dp2454
g14
S'filer'
p2455
sg16
(lp2456
(idelphi
DelphiFieldEndAccess
p2457
(dp2458
g723
S'streamSingle'
p2459
sba(idelphi
DelphiFunctionEndAccess
p2460
(dp2461
g772
(lp2462
(i__main__
DelphiIdentAccess
p2463
(dp2464
g14
S'randomSwayIndex'
p2465
sg16
(lp2466
sbasbasbsbasbsg1168
(lp2467
sbsg570
(lp2468
S'this will stream entire the entire object -\r'
p2469
aS'but the included object references need to be fixed up afterwards\r'
p2470
aS'or the objects streamed out separately afterwards - subclasses overrides\r'
p2471
aS'need to call inherited to get this behavior'
p2472
asbsS'addorremove'
p2473
(i__main__
DelphiMethodImplementation
p2474
(dp2475
g672
g267
sg97
g269
sg105
(lp2476
(i__main__
DelphiFormalParameter
p2477
(dp2478
g109
Nsg110
(lp2479
S'addOrRemoveFlag'
p2480
asg19
(i__main__
DelphiPrimitiveType
p2481
(dp2482
g22
g214
sbsg116
Nsbasg694
(lp2483
sg696
(lp2484
sg698
(lp2485
g700
ag2480
asg701
(dp2486
g2480
g2481
ssg132
S'PdPlantPart'
p2487
sg133
Nsg704
(lp2488
sg134
I0
sg135
g136
sg706
(i__main__
DelphiBlock
p2489
(dp2490
g709
(idelphi
DelphiCompoundStatement
p2491
(dp2492
g712
(lp2493
(idelphi
DelphiIfStatement
p2494
(dp2495
g732
(idelphi
DelphiRelOp
p2496
(dp2497
g735
(i__main__
DelphiIdentAccess
p2498
(dp2499
g14
S'addOrRemoveFlag'
p2500
sg16
(lp2501
sbsg740
(i__main__
DelphiIdentAccess
p2502
(dp2503
g14
S'kAddingBiomassToPlant'
p2504
sg16
(lp2505
sbsg743
S'='
sbsg744
(i__main__
DelphiAssignStatement
p2506
(dp2507
g716
(i__main__
DelphiIdentAccess
p2508
(dp2509
g14
S'true'
p2510
sg16
(lp2511
sbsg725
(i__main__
DelphiIdentAccess
p2512
(dp2513
g14
S'hasFallenOff'
p2514
sg16
(lp2515
sbsbsg745
(i__main__
DelphiAssignStatement
p2516
(dp2517
g716
(i__main__
DelphiIdentAccess
p2518
(dp2519
g14
S'false'
p2520
sg16
(lp2521
sbsg725
(i__main__
DelphiIdentAccess
p2522
(dp2523
g14
S'hasFallenOff'
p2524
sg16
(lp2525
sbsbsbasbsg1168
(lp2526
sbsbsS'calculatecolors'
p2527
(i__main__
DelphiMethodImplementation
p2528
(dp2529
g672
g278
sg97
g280
sg105
(lp2530
sg694
(lp2531
sg696
(lp2532
sg698
(lp2533
g700
asg701
(dp2534
sg132
S'PdPlantPart'
p2535
sg133
Nsg704
(lp2536
sg134
I0
sg135
g136
sg706
(i__main__
DelphiBlock
p2537
(dp2538
g709
(idelphi
DelphiCompoundStatement
p2539
(dp2540
g712
(lp2541
(i__main__
DelphiAssignStatement
p2542
(dp2543
g716
Nsg725
(i__main__
DelphiIdentAccess
p2544
(dp2545
g14
S'setColorsToParameters'
p2546
sg16
(lp2547
sbsbasbsg1168
(lp2548
sbsbsS'tdotosortlineswith'
p2549
(i__main__
DelphiMethodImplementation
p2550
(dp2551
g672
g283
sg97
g285
sg105
(lp2552
sg694
(lp2553
sg696
(lp2554
sg698
(lp2555
g700
asg701
(dp2556
sg132
S'PdPlantPart'
p2557
sg133
(i__main__
DelphiNamedType
p2558
(dp2559
g22
S'KfObject3D'
p2560
sg157
g1
sg158
Nsbsg704
(lp2561
sg134
I0
sg135
g144
sg706
(i__main__
DelphiBlock
p2562
(dp2563
g709
(idelphi
DelphiCompoundStatement
p2564
(dp2565
g712
(lp2566
(i__main__
DelphiAssignStatement
p2567
(dp2568
g716
(idelphi
DelphiNilValue
p2569
(dp2570
bsg725
(i__main__
DelphiIdentAccess
p2571
(dp2572
g14
S'result'
p2573
sg16
(lp2574
sbsg570
(lp2575
S' subclasses can override\r'
p2576
asbasbsg1168
(lp2577
sbsbsS'widthmultiplierconsideringamendments'
p2578
(i__main__
DelphiMethodImplementation
p2579
(dp2580
g672
g291
sg97
g293
sg105
(lp2581
sg694
(lp2582
sg696
(lp2583
sg698
(lp2584
g700
asg701
(dp2585
sg132
S'PdPlantPart'
p2586
sg133
(i__main__
DelphiPrimitiveType
p2587
(dp2588
g22
g125
sbsg704
(lp2589
sg134
I0
sg135
g144
sg706
(i__main__
DelphiBlock
p2590
(dp2591
g709
(idelphi
DelphiCompoundStatement
p2592
(dp2593
g712
(lp2594
(i__main__
DelphiAssignStatement
p2595
(dp2596
g716
(idelphi
DelphiRealValue
p2597
(dp2598
g40
S'1.0'
p2599
sbsg725
(i__main__
DelphiIdentAccess
p2600
(dp2601
g14
S'result'
p2602
sg16
(lp2603
sbsba(idelphi
DelphiIfStatement
p2604
(dp2605
g732
(idelphi
DelphiNot
p2606
(dp2607
g1782
(i__main__
DelphiIdentAccess
p2608
(dp2609
g14
S'domain'
p2610
sg16
(lp2611
(idelphi
DelphiFieldEndAccess
p2612
(dp2613
g723
S'options'
p2614
sba(idelphi
DelphiFieldEndAccess
p2615
(dp2616
g723
S'showPosingAtAll'
p2617
sbasbsbsg744
Nsg745
(i__main__
DelphiExitStatement
p2618
(dp2619
g748
g2579
sbsba(idelphi
DelphiIfStatement
p2620
(dp2621
g732
(idelphi
DelphiAddOp
p2622
(dp2623
g828
g1961
sg829
(idelphi
DelphiNestedExpressionListAccess
p2624
(dp2625
g16
(lp2626
sg772
(lp2627
(idelphi
DelphiRelOp
p2628
(dp2629
g735
(i__main__
DelphiIdentAccess
p2630
(dp2631
g14
S'parentAmendment'
p2632
sg16
(lp2633
sbsg740
(idelphi
DelphiNilValue
p2634
(dp2635
bsg743
g1820
sbasbsg832
(idelphi
DelphiNestedExpressionListAccess
p2636
(dp2637
g16
(lp2638
sg772
(lp2639
(idelphi
DelphiRelOp
p2640
(dp2641
g735
(i__main__
DelphiIdentAccess
p2642
(dp2643
g14
S'amendment'
p2644
sg16
(lp2645
sbsg740
(idelphi
DelphiNilValue
p2646
(dp2647
bsg743
g1820
sbasbsbsg744
Nsg745
(idelphi
DelphiIfStatement
p2648
(dp2649
g732
(idelphi
DelphiAddOp
p2650
(dp2651
g828
g1961
sg829
(idelphi
DelphiNestedExpressionListAccess
p2652
(dp2653
g16
(lp2654
sg772
(lp2655
(idelphi
DelphiMulOp
p2656
(dp2657
g871
(idelphi
DelphiNestedExpressionListAccess
p2658
(dp2659
g16
(lp2660
sg772
(lp2661
(i__main__
DelphiIdentAccess
p2662
(dp2663
g14
S'parentAmendment'
p2664
sg16
(lp2665
(idelphi
DelphiFieldEndAccess
p2666
(dp2667
g723
S'propagateScale'
p2668
sbasbasbsg876
g1868
sg877
(idelphi
DelphiMulOp
p2669
(dp2670
g871
(idelphi
DelphiNestedExpressionListAccess
p2671
(dp2672
g16
(lp2673
sg772
(lp2674
(i__main__
DelphiIdentAccess
p2675
(dp2676
g14
S'parentAmendment'
p2677
sg16
(lp2678
(idelphi
DelphiFieldEndAccess
p2679
(dp2680
g723
S'multiplyScale'
p2681
sbasbasbsg876
g1868
sg877
(idelphi
DelphiNestedExpressionListAccess
p2682
(dp2683
g16
(lp2684
sg772
(lp2685
(idelphi
DelphiRelOp
p2686
(dp2687
g735
(i__main__
DelphiIdentAccess
p2688
(dp2689
g14
S'parentAmendment'
p2690
sg16
(lp2691
sbsg740
(idelphi
DelphiNilValue
p2692
(dp2693
bsg743
g1820
sbasbsbsbasbsg832
(idelphi
DelphiNestedExpressionListAccess
p2694
(dp2695
g16
(lp2696
sg772
(lp2697
(idelphi
DelphiMulOp
p2698
(dp2699
g871
(idelphi
DelphiNestedExpressionListAccess
p2700
(dp2701
g16
(lp2702
sg772
(lp2703
(i__main__
DelphiIdentAccess
p2704
(dp2705
g14
S'amendment'
p2706
sg16
(lp2707
(idelphi
DelphiFieldEndAccess
p2708
(dp2709
g723
S'multiplyScale'
p2710
sbasbasbsg876
g1868
sg877
(idelphi
DelphiNestedExpressionListAccess
p2711
(dp2712
g16
(lp2713
sg772
(lp2714
(idelphi
DelphiRelOp
p2715
(dp2716
g735
(i__main__
DelphiIdentAccess
p2717
(dp2718
g14
S'amendment'
p2719
sg16
(lp2720
sbsg740
(idelphi
DelphiNilValue
p2721
(dp2722
bsg743
g1820
sbasbsbasbsbsg744
Nsg745
(idelphi
DelphiCompoundStatement
p2723
(dp2724
g712
(lp2725
(idelphi
DelphiIfStatement
p2726
(dp2727
g732
(idelphi
DelphiRelOp
p2728
(dp2729
g735
(i__main__
DelphiIdentAccess
p2730
(dp2731
g14
S'amendment'
p2732
sg16
(lp2733
sbsg740
(idelphi
DelphiNilValue
p2734
(dp2735
bsg743
g1820
sbsg744
(i__main__
DelphiAssignStatement
p2736
(dp2737
g716
(i__main__
DelphiIdentAccess
p2738
(dp2739
g14
S'parentAmendment'
p2740
sg16
(lp2741
sbsg725
(i__main__
DelphiIdentAccess
p2742
(dp2743
g14
S'amendmentToUse'
p2744
sg16
(lp2745
sbsbsg745
(i__main__
DelphiAssignStatement
p2746
(dp2747
g716
(i__main__
DelphiIdentAccess
p2748
(dp2749
g14
S'amendment'
p2750
sg16
(lp2751
sbsg725
(i__main__
DelphiIdentAccess
p2752
(dp2753
g14
S'amendmentToUse'
p2754
sg16
(lp2755
sbsbsba(i__main__
DelphiAssignStatement
p2756
(dp2757
g716
(idelphi
DelphiMulOp
p2758
(dp2759
g871
(idelphi
DelphiRealValue
p2760
(dp2761
g40
S'100.0'
p2762
sbsg876
S'/'
sg877
(idelphi
DelphiMulOp
p2763
(dp2764
g871
(i__main__
DelphiIdentAccess
p2765
(dp2766
g14
S'amendmentToUse'
p2767
sg16
(lp2768
(idelphi
DelphiFieldEndAccess
p2769
(dp2770
g723
S'widthMultiplier_pct'
p2771
sbasbsg876
S'*'
sg877
(idelphi
DelphiRealValue
p2772
(dp2773
g40
S'1.0'
p2774
sbsbsbsg725
(i__main__
DelphiIdentAccess
p2775
(dp2776
g14
S'result'
p2777
sg16
(lp2778
sbsbasbsbsbasbsg1168
(lp2779
(i__main__
DelphiVarSection
p2780
(dp2781
g64
I0
sg1172
(lp2782
(idelphi
DelphiVarDecl
p2783
(dp2784
g11
Nsg1176
(lp2785
S'amendmentToUse'
p2786
asg19
(i__main__
DelphiNamedType
p2787
(dp2788
g22
S'PdPlantDrawingAmendment'
p2789
sg157
g1
sg158
NsbsbasbasbsbsS'adddependentpartstolist'
p2790
(i__main__
DelphiMethodImplementation
p2791
(dp2792
g672
g298
sg97
g300
sg105
(lp2793
(i__main__
DelphiFormalParameter
p2794
(dp2795
g109
Nsg110
(lp2796
S'aList'
p2797
asg19
(i__main__
DelphiNamedType
p2798
(dp2799
g22
S'TList'
p2800
sg157
g1
sg158
Nsbsg116
Nsbasg694
(lp2801
sg696
(lp2802
sg698
(lp2803
g700
ag2797
asg701
(dp2804
g2797
g2798
ssg132
S'PdPlantPart'
p2805
sg133
Nsg704
(lp2806
sg134
I0
sg135
g136
sg706
(i__main__
DelphiBlock
p2807
(dp2808
g709
(idelphi
DelphiCompoundStatement
p2809
(dp2810
g712
Nsg570
(lp2811
S' subclasses can override '
p2812
asbsg1168
(lp2813
sbsbsS'lengthmultiplierconsideringamendments'
p2814
(i__main__
DelphiMethodImplementation
p2815
(dp2816
g672
g310
sg97
g312
sg105
(lp2817
sg694
(lp2818
sg696
(lp2819
sg698
(lp2820
g700
asg701
(dp2821
sg132
S'PdPlantPart'
p2822
sg133
(i__main__
DelphiPrimitiveType
p2823
(dp2824
g22
g125
sbsg704
(lp2825
sg134
I0
sg135
g144
sg706
(i__main__
DelphiBlock
p2826
(dp2827
g709
(idelphi
DelphiCompoundStatement
p2828
(dp2829
g712
(lp2830
(i__main__
DelphiAssignStatement
p2831
(dp2832
g716
(idelphi
DelphiRealValue
p2833
(dp2834
g40
S'1.0'
p2835
sbsg725
(i__main__
DelphiIdentAccess
p2836
(dp2837
g14
S'result'
p2838
sg16
(lp2839
sbsba(idelphi
DelphiIfStatement
p2840
(dp2841
g732
(idelphi
DelphiNot
p2842
(dp2843
g1782
(i__main__
DelphiIdentAccess
p2844
(dp2845
g14
S'domain'
p2846
sg16
(lp2847
(idelphi
DelphiFieldEndAccess
p2848
(dp2849
g723
S'options'
p2850
sba(idelphi
DelphiFieldEndAccess
p2851
(dp2852
g723
S'showPosingAtAll'
p2853
sbasbsbsg744
Nsg745
(i__main__
DelphiExitStatement
p2854
(dp2855
g748
g2815
sbsba(idelphi
DelphiIfStatement
p2856
(dp2857
g732
(idelphi
DelphiAddOp
p2858
(dp2859
g828
g1961
sg829
(idelphi
DelphiNestedExpressionListAccess
p2860
(dp2861
g16
(lp2862
sg772
(lp2863
(idelphi
DelphiRelOp
p2864
(dp2865
g735
(i__main__
DelphiIdentAccess
p2866
(dp2867
g14
S'parentAmendment'
p2868
sg16
(lp2869
sbsg740
(idelphi
DelphiNilValue
p2870
(dp2871
bsg743
g1820
sbasbsg832
(idelphi
DelphiNestedExpressionListAccess
p2872
(dp2873
g16
(lp2874
sg772
(lp2875
(idelphi
DelphiRelOp
p2876
(dp2877
g735
(i__main__
DelphiIdentAccess
p2878
(dp2879
g14
S'amendment'
p2880
sg16
(lp2881
sbsg740
(idelphi
DelphiNilValue
p2882
(dp2883
bsg743
g1820
sbasbsbsg744
Nsg745
(idelphi
DelphiIfStatement
p2884
(dp2885
g732
(idelphi
DelphiAddOp
p2886
(dp2887
g828
g1961
sg829
(idelphi
DelphiNestedExpressionListAccess
p2888
(dp2889
g16
(lp2890
sg772
(lp2891
(idelphi
DelphiMulOp
p2892
(dp2893
g871
(idelphi
DelphiNestedExpressionListAccess
p2894
(dp2895
g16
(lp2896
sg772
(lp2897
(i__main__
DelphiIdentAccess
p2898
(dp2899
g14
S'parentAmendment'
p2900
sg16
(lp2901
(idelphi
DelphiFieldEndAccess
p2902
(dp2903
g723
S'propagateScale'
p2904
sbasbasbsg876
g1868
sg877
(idelphi
DelphiMulOp
p2905
(dp2906
g871
(idelphi
DelphiNestedExpressionListAccess
p2907
(dp2908
g16
(lp2909
sg772
(lp2910
(i__main__
DelphiIdentAccess
p2911
(dp2912
g14
S'parentAmendment'
p2913
sg16
(lp2914
(idelphi
DelphiFieldEndAccess
p2915
(dp2916
g723
S'multiplyScale'
p2917
sbasbasbsg876
g1868
sg877
(idelphi
DelphiNestedExpressionListAccess
p2918
(dp2919
g16
(lp2920
sg772
(lp2921
(idelphi
DelphiRelOp
p2922
(dp2923
g735
(i__main__
DelphiIdentAccess
p2924
(dp2925
g14
S'parentAmendment'
p2926
sg16
(lp2927
sbsg740
(idelphi
DelphiNilValue
p2928
(dp2929
bsg743
g1820
sbasbsbsbasbsg832
(idelphi
DelphiNestedExpressionListAccess
p2930
(dp2931
g16
(lp2932
sg772
(lp2933
(idelphi
DelphiMulOp
p2934
(dp2935
g871
(idelphi
DelphiNestedExpressionListAccess
p2936
(dp2937
g16
(lp2938
sg772
(lp2939
(i__main__
DelphiIdentAccess
p2940
(dp2941
g14
S'amendment'
p2942
sg16
(lp2943
(idelphi
DelphiFieldEndAccess
p2944
(dp2945
g723
S'multiplyScale'
p2946
sbasbasbsg876
g1868
sg877
(idelphi
DelphiNestedExpressionListAccess
p2947
(dp2948
g16
(lp2949
sg772
(lp2950
(idelphi
DelphiRelOp
p2951
(dp2952
g735
(i__main__
DelphiIdentAccess
p2953
(dp2954
g14
S'amendment'
p2955
sg16
(lp2956
sbsg740
(idelphi
DelphiNilValue
p2957
(dp2958
bsg743
g1820
sbasbsbasbsbsg744
Nsg745
(idelphi
DelphiCompoundStatement
p2959
(dp2960
g712
(lp2961
(idelphi
DelphiIfStatement
p2962
(dp2963
g732
(idelphi
DelphiRelOp
p2964
(dp2965
g735
(i__main__
DelphiIdentAccess
p2966
(dp2967
g14
S'amendment'
p2968
sg16
(lp2969
sbsg740
(idelphi
DelphiNilValue
p2970
(dp2971
bsg743
g1820
sbsg744
(i__main__
DelphiAssignStatement
p2972
(dp2973
g716
(i__main__
DelphiIdentAccess
p2974
(dp2975
g14
S'parentAmendment'
p2976
sg16
(lp2977
sbsg725
(i__main__
DelphiIdentAccess
p2978
(dp2979
g14
S'amendmentToUse'
p2980
sg16
(lp2981
sbsbsg745
(i__main__
DelphiAssignStatement
p2982
(dp2983
g716
(i__main__
DelphiIdentAccess
p2984
(dp2985
g14
S'amendment'
p2986
sg16
(lp2987
sbsg725
(i__main__
DelphiIdentAccess
p2988
(dp2989
g14
S'amendmentToUse'
p2990
sg16
(lp2991
sbsbsba(i__main__
DelphiAssignStatement
p2992
(dp2993
g716
(idelphi
DelphiMulOp
p2994
(dp2995
g871
(idelphi
DelphiRealValue
p2996
(dp2997
g40
S'100.0'
p2998
sbsg876
S'/'
sg877
(idelphi
DelphiMulOp
p2999
(dp3000
g871
(i__main__
DelphiIdentAccess
p3001
(dp3002
g14
S'amendmentToUse'
p3003
sg16
(lp3004
(idelphi
DelphiFieldEndAccess
p3005
(dp3006
g723
S'lengthMultiplier_pct'
p3007
sbasbsg876
S'*'
sg877
(idelphi
DelphiRealValue
p3008
(dp3009
g40
S'1.0'
p3010
sbsbsbsg725
(i__main__
DelphiIdentAccess
p3011
(dp3012
g14
S'result'
p3013
sg16
(lp3014
sbsbasbsbsbasbsg1168
(lp3015
(i__main__
DelphiVarSection
p3016
(dp3017
g64
I0
sg1172
(lp3018
(idelphi
DelphiVarDecl
p3019
(dp3020
g11
Nsg1176
(lp3021
S'amendmentToUse'
p3022
asg19
(i__main__
DelphiNamedType
p3023
(dp3024
g22
S'PdPlantDrawingAmendment'
p3025
sg157
g1
sg158
NsbsbasbasbsbsS'draw'
p3026
(i__main__
DelphiMethodImplementation
p3027
(dp3028
g672
g317
sg97
g319
sg105
(lp3029
sg694
(lp3030
sg696
(lp3031
sg698
(lp3032
g700
asg701
(dp3033
sg132
S'PdPlantPart'
p3034
sg133
Nsg704
(lp3035
sg134
I0
sg135
g136
sg706
(i__main__
DelphiBlock
p3036
(dp3037
g709
(idelphi
DelphiCompoundStatement
p3038
(dp3039
g712
Nsg570
(lp3040
S' implemented by subclasses '
p3041
asbsg1168
(lp3042
sbsbsS'parttype'
p3043
(i__main__
DelphiMethodImplementation
p3044
(dp3045
g672
g322
sg97
g324
sg105
(lp3046
sg694
(lp3047
sg696
(lp3048
sg698
(lp3049
g700
asg701
(dp3050
sg132
S'PdPlantPart'
p3051
sg133
(i__main__
DelphiPrimitiveType
p3052
(dp3053
g22
g328
sbsg704
(lp3054
sg134
I0
sg135
g144
sg706
(i__main__
DelphiBlock
p3055
(dp3056
g709
(idelphi
DelphiCompoundStatement
p3057
(dp3058
g712
(lp3059
(i__main__
DelphiAssignStatement
p3060
(dp3061
g716
(idelphi
DelphiIntegerValue
p3062
(dp3063
g40
S'0'
sbsg725
(i__main__
DelphiIdentAccess
p3064
(dp3065
g14
S'result'
p3066
sg16
(lp3067
sbsg570
(lp3068
S' implemented by subclasses '
p3069
asbasbsg1168
(lp3070
sbsbsS'shortnamefordxfpartconsideringgenderetc'
p3071
(i__main__
DelphiMethodImplementation
p3072
(dp3073
g672
g330
sg97
g332
sg105
(lp3074
(i__main__
DelphiFormalParameter
p3075
(dp3076
g109
Nsg110
(lp3077
g337
asg19
(i__main__
DelphiPrimitiveType
p3078
(dp3079
g22
g115
sbsg116
Nsbasg694
(lp3080
sg696
(lp3081
sg698
(lp3082
g700
ag337
asg701
(dp3083
g337
g3078
ssg132
S'PdPlantPart'
p3084
sg133
(i__main__
DelphiPrimitiveType
p3085
(dp3086
g22
g40
sbsg704
(lp3087
sg134
I0
sg135
g144
sg706
(i__main__
DelphiBlock
p3088
(dp3089
g709
(idelphi
DelphiCompoundStatement
p3090
(dp3091
g712
(lp3092
(i__main__
DelphiAssignStatement
p3093
(dp3094
g716
(i__main__
DelphiIdentAccess
p3095
(dp3096
g14
S'shortNameForDXFPartType'
p3097
sg16
(lp3098
(idelphi
DelphiFunctionEndAccess
p3099
(dp3100
g772
(lp3101
(i__main__
DelphiIdentAccess
p3102
(dp3103
g14
S'self'
p3104
sg16
(lp3105
(idelphi
DelphiFieldEndAccess
p3106
(dp3107
g723
S'realDxfIndexForBaseDXFPart'
p3108
sba(idelphi
DelphiFunctionEndAccess
p3109
(dp3110
g772
(lp3111
(i__main__
DelphiIdentAccess
p3112
(dp3113
g14
g337
sg16
(lp3114
sbasbasbasbasbsg725
(i__main__
DelphiIdentAccess
p3115
(dp3116
g14
S'result'
p3117
sg16
(lp3118
sbsbasbsg1168
(lp3119
sbsbsS'blendcolorsstrength'
p3120
(i__main__
DelphiMethodImplementation
p3121
(dp3122
g672
g343
sg97
g345
sg105
(lp3123
(i__main__
DelphiFormalParameter
p3124
(dp3125
g109
Nsg110
(lp3126
S'aColor'
p3127
asg19
(i__main__
DelphiNamedType
p3128
(dp3129
g22
S'TColorRef'
p3130
sg157
g1
sg158
Nsbsg116
Nsba(i__main__
DelphiFormalParameter
p3131
(dp3132
g109
Nsg110
(lp3133
S'aStrength'
p3134
asg19
(i__main__
DelphiPrimitiveType
p3135
(dp3136
g22
g125
sbsg116
Nsbasg694
(lp3137
sg696
(lp3138
sg698
(lp3139
g700
ag3127
ag3134
asg701
(dp3140
g3127
g3128
sg3134
g3135
ssg132
S'PdPlantPart'
p3141
sg133
Nsg704
(lp3142
sg134
I0
sg135
g136
sg706
(i__main__
DelphiBlock
p3143
(dp3144
g709
(idelphi
DelphiCompoundStatement
p3145
(dp3146
g712
Nsg570
(lp3147
S'subclasses can override'
p3148
asbsg1168
(lp3149
sbsbsS'getname'
p3150
(i__main__
DelphiMethodImplementation
p3151
(dp3152
g672
g361
sg97
g363
sg105
(lp3153
sg694
(lp3154
sg696
(lp3155
sg698
(lp3156
g700
asg701
(dp3157
sg132
S'PdPlantPart'
p3158
sg133
(i__main__
DelphiPrimitiveType
p3159
(dp3160
g22
g40
sbsg704
(lp3161
sg134
I0
sg135
g144
sg706
(i__main__
DelphiBlock
p3162
(dp3163
g709
(idelphi
DelphiCompoundStatement
p3164
(dp3165
g712
(lp3166
(i__main__
DelphiAssignStatement
p3167
(dp3168
g716
(idelphi
DelphiStringAccess
p3169
(dp3170
g16
(lp3171
sg40
(idelphi
DelphiStringValue
p3172
(dp3173
g40
S'plant part'
p3174
sbsbsg725
(i__main__
DelphiIdentAccess
p3175
(dp3176
g14
S'result'
p3177
sg16
(lp3178
sbsg570
(lp3179
S' subclasses should override\r'
p3180
asbasbsg1168
(lp3181
sbsbsS'fractionlive'
p3182
(i__main__
DelphiMethodImplementation
p3183
(dp3184
g672
g368
sg97
g370
sg105
(lp3185
sg694
(lp3186
sg696
(lp3187
sg698
(lp3188
g700
asg701
(dp3189
sg132
S'PdPlantPart'
p3190
sg133
(i__main__
DelphiPrimitiveType
p3191
(dp3192
g22
g125
sbsg704
(lp3193
sg134
I0
sg135
g144
sg706
(i__main__
DelphiBlock
p3194
(dp3195
g709
(idelphi
DelphiCompoundStatement
p3196
(dp3197
g712
(lp3198
(i__main__
DelphiAssignStatement
p3199
(dp3200
g716
(idelphi
DelphiRealValue
p3201
(dp3202
g40
S'0.0'
p3203
sbsg725
(i__main__
DelphiIdentAccess
p3204
(dp3205
g14
S'result'
p3206
sg16
(lp3207
sbsba(idelphi
DelphiTryExceptStatement
p3208
(dp3209
S'tryStatements'
p3210
(lp3211
(idelphi
DelphiIfStatement
p3212
(dp3213
g732
(idelphi
DelphiRelOp
p3214
(dp3215
g735
(i__main__
DelphiIdentAccess
p3216
(dp3217
g14
S'self'
p3218
sg16
(lp3219
(idelphi
DelphiFieldEndAccess
p3220
(dp3221
g723
S'totalBiomass_pctMPB'
p3222
sbasbsg740
(idelphi
DelphiRealValue
p3223
(dp3224
g40
S'0.0'
p3225
sbsg743
S'>'
sbsg744
(i__main__
DelphiAssignStatement
p3226
(dp3227
g716
(idelphi
DelphiRealValue
p3228
(dp3229
g40
S'0.0'
p3230
sbsg725
(i__main__
DelphiIdentAccess
p3231
(dp3232
g14
S'result'
p3233
sg16
(lp3234
sbsbsg745
(i__main__
DelphiAssignStatement
p3235
(dp3236
g716
(i__main__
DelphiIdentAccess
p3237
(dp3238
g14
S'safedivExcept'
p3239
sg16
(lp3240
(idelphi
DelphiFunctionEndAccess
p3241
(dp3242
g772
(lp3243
(i__main__
DelphiIdentAccess
p3244
(dp3245
g14
S'self'
p3246
sg16
(lp3247
(idelphi
DelphiFieldEndAccess
p3248
(dp3249
g723
S'liveBiomass_pctMPB'
p3250
sbasba(i__main__
DelphiIdentAccess
p3251
(dp3252
g14
S'self'
p3253
sg16
(lp3254
(idelphi
DelphiFieldEndAccess
p3255
(dp3256
g723
S'totalBiomass_pctMPB'
p3257
sbasba(idelphi
DelphiIntegerValue
p3258
(dp3259
g40
S'0'
sbasbasbsg725
(i__main__
DelphiIdentAccess
p3260
(dp3261
g14
S'result'
p3262
sg16
(lp3263
sbsbsbasS'exceptionHandlers'
p3264
(idelphi
DelphiExceptionHandlers
p3265
(dp3266
S'exceptionHandlerList'
p3267
(lp3268
(idelphi
DelphiExceptionHandler
p3269
(dp3270
S'classTypeIdentifier'
p3271
(i__main__
DelphiNamedType
p3272
(dp3273
g22
S'Exception'
p3274
sg157
g1
sg158
Nsbsg14
S'e'
sg841
(i__main__
DelphiAssignStatement
p3275
(dp3276
g716
Nsg725
(i__main__
DelphiIdentAccess
p3277
(dp3278
g14
S'messageForExceptionType'
p3279
sg16
(lp3280
(idelphi
DelphiFunctionEndAccess
p3281
(dp3282
g772
(lp3283
(i__main__
DelphiIdentAccess
p3284
(dp3285
g14
S'e'
sg16
(lp3286
sba(idelphi
DelphiStringAccess
p3287
(dp3288
g16
(lp3289
sg40
(idelphi
DelphiStringValue
p3290
(dp3291
g40
S'PdPlantPart.fractionLive'
p3292
sbsbasbasbsbsbasS'statementList'
p3293
(lp3294
sbsbasbsg1168
(lp3295
sbsbsS'anglewithsway'
p3296
(i__main__
DelphiMethodImplementation
p3297
(dp3298
g672
g375
sg97
g377
sg105
(lp3299
(i__main__
DelphiFormalParameter
p3300
(dp3301
g109
Nsg110
(lp3302
S'angle'
p3303
asg19
(i__main__
DelphiPrimitiveType
p3304
(dp3305
g22
g125
sbsg116
Nsbasg694
(lp3306
sg696
(lp3307
sg698
(lp3308
g700
ag3303
asg701
(dp3309
g3303
g3304
ssg132
S'PdPlantPart'
p3310
sg133
(i__main__
DelphiPrimitiveType
p3311
(dp3312
g22
g125
sbsg704
(lp3313
sg134
I0
sg135
g144
sg706
(i__main__
DelphiBlock
p3314
(dp3315
g709
(idelphi
DelphiCompoundStatement
p3316
(dp3317
g712
(lp3318
(i__main__
DelphiAssignStatement
p3319
(dp3320
g716
(i__main__
DelphiIdentAccess
p3321
(dp3322
g14
S'angle'
p3323
sg16
(lp3324
sbsg725
(i__main__
DelphiIdentAccess
p3325
(dp3326
g14
S'result'
p3327
sg16
(lp3328
sbsba(idelphi
DelphiIfStatement
p3329
(dp3330
g732
(idelphi
DelphiRelOp
p3331
(dp3332
g735
(i__main__
DelphiIdentAccess
p3333
(dp3334
g14
S'plant'
p3335
sg16
(lp3336
sbsg740
(idelphi
DelphiNilValue
p3337
(dp3338
bsg743
S'='
sbsg744
Nsg745
(i__main__
DelphiExitStatement
p3339
(dp3340
g748
g3297
sbsba(i__main__
DelphiAssignStatement
p3341
(dp3342
g716
(idelphi
DelphiAddOp
p3343
(dp3344
g828
S'+'
sg829
(idelphi
DelphiNestedExpressionListAccess
p3345
(dp3346
g16
(lp3347
sg772
(lp3348
(idelphi
DelphiMulOp
p3349
(dp3350
g871
(i__main__
DelphiIdentAccess
p3351
(dp3352
g14
S'plant'
p3353
sg16
(lp3354
(idelphi
DelphiFieldEndAccess
p3355
(dp3356
g723
S'pGeneral'
p3357
sba(idelphi
DelphiFieldEndAccess
p3358
(dp3359
g723
S'randomSway'
p3360
sbasbsg876
S'*'
sg877
(idelphi
DelphiNestedExpressionListAccess
p3361
(dp3362
g16
(lp3363
sg772
(lp3364
(idelphi
DelphiAddOp
p3365
(dp3366
g828
S'-'
sg829
(idelphi
DelphiRealValue
p3367
(dp3368
g40
S'0.5'
p3369
sbsg832
(i__main__
DelphiIdentAccess
p3370
(dp3371
g14
S'self'
p3372
sg16
(lp3373
(idelphi
DelphiFieldEndAccess
p3374
(dp3375
g723
S'randomSwayIndex'
p3376
sbasbsbasbsbasbsg832
(i__main__
DelphiIdentAccess
p3377
(dp3378
g14
S'angle'
p3379
sg16
(lp3380
sbsbsg725
(i__main__
DelphiIdentAccess
p3381
(dp3382
g14
S'result'
p3383
sg16
(lp3384
sbsbasbsg1168
(lp3385
sbsbsS'traverseactivity'
p3386
(i__main__
DelphiMethodImplementation
p3387
(dp3388
g672
g388
sg97
g390
sg105
(lp3389
(i__main__
DelphiFormalParameter
p3390
(dp3391
g109
Nsg110
(lp3392
S'mode'
p3393
asg19
(i__main__
DelphiPrimitiveType
p3394
(dp3395
g22
g328
sbsg116
Nsba(i__main__
DelphiFormalParameter
p3396
(dp3397
g109
Nsg110
(lp3398
S'traverserProxy'
p3399
asg19
(i__main__
DelphiNamedType
p3400
(dp3401
g22
S'TObject'
p3402
sg157
g1
sg158
Nsbsg116
Nsbasg694
(lp3403
sg696
(lp3404
sg698
(lp3405
g700
ag3393
ag3399
asg701
(dp3406
g3399
g3400
sg3393
g3394
ssg132
S'PdPlantPart'
p3407
sg133
Nsg704
(lp3408
sg134
I0
sg135
g136
sg706
(i__main__
DelphiBlock
p3409
(dp3410
g709
(idelphi
DelphiCompoundStatement
p3411
(dp3412
g712
(lp3413
(i__main__
DelphiAssignStatement
p3414
(dp3415
g716
(i__main__
DelphiIdentAccess
p3416
(dp3417
g14
S'PdTraverser'
p3418
sg16
(lp3419
(idelphi
DelphiFunctionEndAccess
p3420
(dp3421
g772
(lp3422
(i__main__
DelphiIdentAccess
p3423
(dp3424
g14
S'traverserProxy'
p3425
sg16
(lp3426
sbasbasbsg725
(i__main__
DelphiIdentAccess
p3427
(dp3428
g14
S'traverser'
p3429
sg16
(lp3430
sbsba(idelphi
DelphiIfStatement
p3431
(dp3432
g732
(idelphi
DelphiRelOp
p3433
(dp3434
g735
(i__main__
DelphiIdentAccess
p3435
(dp3436
g14
S'traverser'
p3437
sg16
(lp3438
sbsg740
(idelphi
DelphiNilValue
p3439
(dp3440
bsg743
S'='
sbsg744
Nsg745
(i__main__
DelphiExitStatement
p3441
(dp3442
g748
g3387
sbsba(idelphi
DelphiCaseStatement
p3443
(dp3444
S'elseStatement'
p3445
(idelphi
DelphiRaiseStatement
p3446
(dp3447
g732
(i__main__
DelphiIdentAccess
p3448
(dp3449
g14
S'Exception'
p3450
sg16
(lp3451
(idelphi
DelphiFieldEndAccess
p3452
(dp3453
g723
S'create'
p3454
sba(idelphi
DelphiFunctionEndAccess
p3455
(dp3456
g772
(lp3457
(idelphi
DelphiStringAccess
p3458
(dp3459
g16
(lp3460
sg40
(idelphi
DelphiStringValue
p3461
(dp3462
g40
S'Problem: Unhandled mode in method PdPlantPart.traverseActivity.'
p3463
sbsbasbasbsbsg732
(i__main__
DelphiIdentAccess
p3464
(dp3465
g14
S'mode'
p3466
sg16
(lp3467
sbsS'caseSelectorList'
p3468
(lp3469
(idelphi
DelphiCaseSelector
p3470
(dp3471
g841
NsS'caseLabelList'
p3472
(lp3473
(i__main__
DelphiIdentAccess
p3474
(dp3475
g14
S'kActivityNone'
p3476
sg16
(lp3477
sbasba(idelphi
DelphiCaseSelector
p3478
(dp3479
g841
Nsg3472
(lp3480
(i__main__
DelphiIdentAccess
p3481
(dp3482
g14
S'kActivityNextDay'
p3483
sg16
(lp3484
sbasba(idelphi
DelphiCaseSelector
p3485
(dp3486
g841
(i__main__
DelphiAssignStatement
p3487
(dp3488
g716
(idelphi
DelphiRealValue
p3489
(dp3490
g40
S'0.0'
p3491
sbsg725
(i__main__
DelphiIdentAccess
p3492
(dp3493
g14
S'self'
p3494
sg16
(lp3495
(idelphi
DelphiFieldEndAccess
p3496
(dp3497
g723
S'biomassDemand_pctMPB'
p3498
sbasbsg570
(lp3499
S'inc(traverser.totalPlantParts)'
p3500
asbsg3472
(lp3501
(i__main__
DelphiIdentAccess
p3502
(dp3503
g14
S'kActivityDemandVegetative'
p3504
sg16
(lp3505
sbasba(idelphi
DelphiCaseSelector
p3506
(dp3507
g841
(i__main__
DelphiAssignStatement
p3508
(dp3509
g716
(idelphi
DelphiRealValue
p3510
(dp3511
g40
S'0.0'
p3512
sbsg725
(i__main__
DelphiIdentAccess
p3513
(dp3514
g14
S'self'
p3515
sg16
(lp3516
(idelphi
DelphiFieldEndAccess
p3517
(dp3518
g723
S'biomassDemand_pctMPB'
p3519
sbasbsbsg3472
(lp3520
(i__main__
DelphiIdentAccess
p3521
(dp3522
g14
S'kActivityDemandReproductive'
p3523
sg16
(lp3524
sbasba(idelphi
DelphiCaseSelector
p3525
(dp3526
g841
Nsg3472
(lp3527
(i__main__
DelphiIdentAccess
p3528
(dp3529
g14
S'kActivityGrowVegetative'
p3530
sg16
(lp3531
sbasba(idelphi
DelphiCaseSelector
p3532
(dp3533
g841
Nsg3472
(lp3534
(i__main__
DelphiIdentAccess
p3535
(dp3536
g14
S'kActivityGrowReproductive'
p3537
sg16
(lp3538
sbasba(idelphi
DelphiCaseSelector
p3539
(dp3540
g841
Nsg3472
(lp3541
(i__main__
DelphiIdentAccess
p3542
(dp3543
g14
S'kActivityStartReproduction'
p3544
sg16
(lp3545
sbasba(idelphi
DelphiCaseSelector
p3546
(dp3547
g841
Nsg3472
(lp3548
(i__main__
DelphiIdentAccess
p3549
(dp3550
g14
S'kActivityFindPlantPartAtPosition'
p3551
sg16
(lp3552
sbasba(idelphi
DelphiCaseSelector
p3553
(dp3554
g841
(idelphi
DelphiCompoundStatement
p3555
(dp3556
g712
(lp3557
(i__main__
DelphiIncOrDecStatement
p3558
(dp3559
g1371
g1372
sg1373
Nsg725
(i__main__
DelphiIdentAccess
p3560
(dp3561
g14
S'traverser'
p3562
sg16
(lp3563
(idelphi
DelphiFieldEndAccess
p3564
(dp3565
g723
S'totalPlantParts'
p3566
sbasbsba(i__main__
DelphiAssignStatement
p3567
(dp3568
g716
Nsg725
(i__main__
DelphiIdentAccess
p3569
(dp3570
g14
S'self'
p3571
sg16
(lp3572
(idelphi
DelphiFieldEndAccess
p3573
(dp3574
g723
S'determineAmendmentAndAlsoForChildrenIfAny'
p3575
sbasbsbasbsg3472
(lp3576
(i__main__
DelphiIdentAccess
p3577
(dp3578
g14
S'kActivityDraw'
p3579
sg16
(lp3580
sbasba(idelphi
DelphiCaseSelector
p3581
(dp3582
g841
(i__main__
DelphiAssignStatement
p3583
(dp3584
g716
Nsg725
(i__main__
DelphiIdentAccess
p3585
(dp3586
g14
S'self'
p3587
sg16
(lp3588
(idelphi
DelphiFieldEndAccess
p3589
(dp3590
g723
S'report'
p3591
sbasbsbsg3472
(lp3592
(i__main__
DelphiIdentAccess
p3593
(dp3594
g14
S'kActivityReport'
p3595
sg16
(lp3596
sbasba(idelphi
DelphiCaseSelector
p3597
(dp3598
g841
Nsg3472
(lp3599
(i__main__
DelphiIdentAccess
p3600
(dp3601
g14
S'kActivityStream'
p3602
sg16
(lp3603
sbasba(idelphi
DelphiCaseSelector
p3604
(dp3605
g841
Nsg3472
(lp3606
(i__main__
DelphiIdentAccess
p3607
(dp3608
g14
S'kActivityFree'
p3609
sg16
(lp3610
sbasba(idelphi
DelphiCaseSelector
p3611
(dp3612
g841
Nsg3472
(lp3613
(i__main__
DelphiIdentAccess
p3614
(dp3615
g14
S'kActivityVegetativeBiomassThatCanBeRemoved'
p3616
sg16
(lp3617
sbasba(idelphi
DelphiCaseSelector
p3618
(dp3619
g841
Nsg3472
(lp3620
(i__main__
DelphiIdentAccess
p3621
(dp3622
g14
S'kActivityRemoveVegetativeBiomass'
p3623
sg16
(lp3624
sbasba(idelphi
DelphiCaseSelector
p3625
(dp3626
g841
Nsg3472
(lp3627
(i__main__
DelphiIdentAccess
p3628
(dp3629
g14
S'kActivityReproductiveBiomassThatCanBeRemoved'
p3630
sg16
(lp3631
sbasba(idelphi
DelphiCaseSelector
p3632
(dp3633
g841
Nsg3472
(lp3634
(i__main__
DelphiIdentAccess
p3635
(dp3636
g14
S'kActivityRemoveReproductiveBiomass'
p3637
sg16
(lp3638
sbasba(idelphi
DelphiCaseSelector
p3639
(dp3640
g841
(i__main__
DelphiAssignStatement
p3641
(dp3642
g716
(idelphi
DelphiAddOp
p3643
(dp3644
g828
S'+'
sg829
(i__main__
DelphiIdentAccess
p3645
(dp3646
g14
S'self'
p3647
sg16
(lp3648
(idelphi
DelphiFieldEndAccess
p3649
(dp3650
g723
S'deadBiomass_pctMPB'
p3651
sbasbsg832
(i__main__
DelphiIdentAccess
p3652
(dp3653
g14
S'traverser'
p3654
sg16
(lp3655
(idelphi
DelphiFieldEndAccess
p3656
(dp3657
g723
S'total'
p3658
sbasbsbsg725
(i__main__
DelphiIdentAccess
p3659
(dp3660
g14
S'traverser'
p3661
sg16
(lp3662
(idelphi
DelphiFieldEndAccess
p3663
(dp3664
g723
S'total'
p3665
sbasbsbsg3472
(lp3666
(i__main__
DelphiIdentAccess
p3667
(dp3668
g14
S'kActivityStandingDeadBiomassThatCanBeRemoved'
p3669
sg16
(lp3670
sbasba(idelphi
DelphiCaseSelector
p3671
(dp3672
g841
(idelphi
DelphiCompoundStatement
p3673
(dp3674
g712
(lp3675
(i__main__
DelphiAssignStatement
p3676
(dp3677
g716
(idelphi
DelphiMulOp
p3678
(dp3679
g871
(i__main__
DelphiIdentAccess
p3680
(dp3681
g14
S'traverser'
p3682
sg16
(lp3683
(idelphi
DelphiFieldEndAccess
p3684
(dp3685
g723
S'fractionOfPotentialBiomass'
p3686
sbasbsg876
S'*'
sg877
(i__main__
DelphiIdentAccess
p3687
(dp3688
g14
S'self'
p3689
sg16
(lp3690
(idelphi
DelphiFieldEndAccess
p3691
(dp3692
g723
S'deadBiomass_pctMPB'
p3693
sbasbsbsg725
(i__main__
DelphiIdentAccess
p3694
(dp3695
g14
S'biomassToRemove_pctMPB'
p3696
sg16
(lp3697
sbsba(i__main__
DelphiAssignStatement
p3698
(dp3699
g716
(idelphi
DelphiAddOp
p3700
(dp3701
g828
S'-'
sg829
(i__main__
DelphiIdentAccess
p3702
(dp3703
g14
S'biomassToRemove_pctMPB'
p3704
sg16
(lp3705
sbsg832
(i__main__
DelphiIdentAccess
p3706
(dp3707
g14
S'self'
p3708
sg16
(lp3709
(idelphi
DelphiFieldEndAccess
p3710
(dp3711
g723
S'deadBiomass_pctMPB'
p3712
sbasbsbsg725
(i__main__
DelphiIdentAccess
p3713
(dp3714
g14
S'self'
p3715
sg16
(lp3716
(idelphi
DelphiFieldEndAccess
p3717
(dp3718
g723
S'deadBiomass_pctMPB'
p3719
sbasbsbasbsg3472
(lp3720
(i__main__
DelphiIdentAccess
p3721
(dp3722
g14
S'kActivityRemoveStandingDeadBiomass'
p3723
sg16
(lp3724
sbasba(idelphi
DelphiCaseSelector
p3725
(dp3726
g841
Nsg3472
(lp3727
(i__main__
DelphiIdentAccess
p3728
(dp3729
g14
S'kActivityGatherStatistics'
p3730
sg16
(lp3731
sbasba(idelphi
DelphiCaseSelector
p3732
(dp3733
g841
(i__main__
DelphiIncOrDecStatement
p3734
(dp3735
g1371
g1372
sg1373
Nsg725
(i__main__
DelphiIdentAccess
p3736
(dp3737
g14
S'traverser'
p3738
sg16
(lp3739
(idelphi
DelphiFieldEndAccess
p3740
(dp3741
g723
S'totalPlantParts'
p3742
sbasbsbsg3472
(lp3743
(i__main__
DelphiIdentAccess
p3744
(dp3745
g14
S'kActivityCountPlantParts'
p3746
sg16
(lp3747
sbasba(idelphi
DelphiCaseSelector
p3748
(dp3749
g841
(idelphi
DelphiIfStatement
p3750
(dp3751
g732
(idelphi
DelphiRelOp
p3752
(dp3753
g735
(i__main__
DelphiIdentAccess
p3754
(dp3755
g14
S'traverser'
p3756
sg16
(lp3757
(idelphi
DelphiFieldEndAccess
p3758
(dp3759
g723
S'partID'
p3760
sbasbsg740
(i__main__
DelphiIdentAccess
p3761
(dp3762
g14
S'self'
p3763
sg16
(lp3764
(idelphi
DelphiFieldEndAccess
p3765
(dp3766
g723
S'partID'
p3767
sbasbsg743
S'='
sbsg744
Nsg745
(idelphi
DelphiCompoundStatement
p3768
(dp3769
g712
(lp3770
(i__main__
DelphiAssignStatement
p3771
(dp3772
g716
(i__main__
DelphiIdentAccess
p3773
(dp3774
g14
S'self'
p3775
sg16
(lp3776
sbsg725
(i__main__
DelphiIdentAccess
p3777
(dp3778
g14
S'traverser'
p3779
sg16
(lp3780
(idelphi
DelphiFieldEndAccess
p3781
(dp3782
g723
S'foundPlantPart'
p3783
sbasbsba(i__main__
DelphiAssignStatement
p3784
(dp3785
g716
(i__main__
DelphiIdentAccess
p3786
(dp3787
g14
S'true'
p3788
sg16
(lp3789
sbsg725
(i__main__
DelphiIdentAccess
p3790
(dp3791
g14
S'traverser'
p3792
sg16
(lp3793
(idelphi
DelphiFieldEndAccess
p3794
(dp3795
g723
S'finished'
p3796
sbasbsbasbsbsg3472
(lp3797
(i__main__
DelphiIdentAccess
p3798
(dp3799
g14
S'kActivityFindPartForPartID'
p3800
sg16
(lp3801
sbasba(idelphi
DelphiCaseSelector
p3802
(dp3803
g841
Nsg3472
(lp3804
(i__main__
DelphiIdentAccess
p3805
(dp3806
g14
S'kActivityCountTotalMemoryUse'
p3807
sg16
(lp3808
sbasba(idelphi
DelphiCaseSelector
p3809
(dp3810
g841
(i__main__
DelphiAssignStatement
p3811
(dp3812
g716
(i__main__
DelphiIdentAccess
p3813
(dp3814
g14
S'self'
p3815
sg16
(lp3816
(idelphi
DelphiFieldEndAccess
p3817
(dp3818
g723
S'totalBiomass_pctMPB'
p3819
sbasbsg725
(i__main__
DelphiIdentAccess
p3820
(dp3821
g14
S'self'
p3822
sg16
(lp3823
(idelphi
DelphiFieldEndAccess
p3824
(dp3825
g723
S'biomassOfMeAndAllPartsAboveMe_pctMPB'
p3826
sbasbsbsg3472
(lp3827
(i__main__
DelphiIdentAccess
p3828
(dp3829
g14
S'kActivityCalculateBiomassForGravity'
p3830
sg16
(lp3831
sbasba(idelphi
DelphiCaseSelector
p3832
(dp3833
g841
(i__main__
DelphiIncOrDecStatement
p3834
(dp3835
g1371
g1372
sg1373
Nsg725
(i__main__
DelphiIdentAccess
p3836
(dp3837
g14
S'traverser'
p3838
sg16
(lp3839
(idelphi
DelphiFieldEndAccess
p3840
(dp3841
g723
S'totalPlantParts'
p3842
sbasbsbsg3472
(lp3843
(i__main__
DelphiIdentAccess
p3844
(dp3845
g14
S'kActivityCountPointsAndTrianglesFor3DExport'
p3846
sg16
(lp3847
sbasbasbasbsg1168
(lp3848
(i__main__
DelphiVarSection
p3849
(dp3850
g64
I0
sg1172
(lp3851
(idelphi
DelphiVarDecl
p3852
(dp3853
g11
Nsg1176
(lp3854
S'traverser'
p3855
asg19
(i__main__
DelphiNamedType
p3856
(dp3857
g22
S'PdTraverser'
p3858
sg157
g1
sg158
Nsbsba(idelphi
DelphiVarDecl
p3859
(dp3860
g11
Nsg1176
(lp3861
S'biomassToRemove_pctMPB'
p3862
asg19
(i__main__
DelphiPrimitiveType
p3863
(dp3864
g22
g125
sbsbasbasbsg570
(lp3865
S' ---------------------------------------------------------------------------------- traversing '
p3866
asbsS'setcolorswithamendmentandreturntrueifnooverrides'
p3867
(i__main__
DelphiMethodImplementation
p3868
(dp3869
g672
g406
sg97
g408
sg105
(lp3870
(i__main__
DelphiFormalParameter
p3871
(dp3872
g109
Nsg110
(lp3873
S'drawingTdo'
p3874
asg19
(i__main__
DelphiPrimitiveType
p3875
(dp3876
g22
g214
sbsg116
Nsbasg694
(lp3877
sg696
(lp3878
sg698
(lp3879
g700
ag3874
asg701
(dp3880
g3874
g3875
ssg132
S'PdPlantPart'
p3881
sg133
(i__main__
DelphiPrimitiveType
p3882
(dp3883
g22
g214
sbsg704
(lp3884
sg134
I0
sg135
g144
sg706
(i__main__
DelphiBlock
p3885
(dp3886
g709
(idelphi
DelphiCompoundStatement
p3887
(dp3888
g712
(lp3889
(i__main__
DelphiAssignStatement
p3890
(dp3891
g716
(i__main__
DelphiIdentAccess
p3892
(dp3893
g14
S'true'
p3894
sg16
(lp3895
sbsg725
(i__main__
DelphiIdentAccess
p3896
(dp3897
g14
S'result'
p3898
sg16
(lp3899
sbsba(idelphi
DelphiIfStatement
p3900
(dp3901
g732
(idelphi
DelphiNot
p3902
(dp3903
g1782
(i__main__
DelphiIdentAccess
p3904
(dp3905
g14
S'domain'
p3906
sg16
(lp3907
(idelphi
DelphiFieldEndAccess
p3908
(dp3909
g723
S'options'
p3910
sba(idelphi
DelphiFieldEndAccess
p3911
(dp3912
g723
S'showPosingAtAll'
p3913
sbasbsbsg744
Nsg745
(i__main__
DelphiExitStatement
p3914
(dp3915
g748
g3868
sbsba(idelphi
DelphiIfStatement
p3916
(dp3917
g732
(idelphi
DelphiRelOp
p3918
(dp3919
g735
(i__main__
DelphiIdentAccess
p3920
(dp3921
g14
S'plant'
p3922
sg16
(lp3923
(idelphi
DelphiFieldEndAccess
p3924
(dp3925
g723
S'turtle'
p3926
sbasbsg740
(idelphi
DelphiNilValue
p3927
(dp3928
bsg743
S'='
sbsg744
Nsg745
(i__main__
DelphiExitStatement
p3929
(dp3930
g748
g3868
sbsba(i__main__
DelphiAssignStatement
p3931
(dp3932
g716
(idelphi
DelphiIntegerValue
p3933
(dp3934
g40
S'0'
sbsg725
(i__main__
DelphiIdentAccess
p3935
(dp3936
g14
S'color'
p3937
sg16
(lp3938
sbsba(i__main__
DelphiAssignStatement
p3939
(dp3940
g716
(idelphi
DelphiIntegerValue
p3941
(dp3942
g40
S'0'
sbsg725
(i__main__
DelphiIdentAccess
p3943
(dp3944
g14
S'backFaceColor'
p3945
sg16
(lp3946
sbsba(i__main__
DelphiAssignStatement
p3947
(dp3948
g716
(idelphi
DelphiIntegerValue
p3949
(dp3950
g40
S'0'
sbsg725
(i__main__
DelphiIdentAccess
p3951
(dp3952
g14
S'lineColor'
p3953
sg16
(lp3954
sbsba(i__main__
DelphiAssignStatement
p3955
(dp3956
g716
(idelphi
DelphiRelOp
p3957
(dp3958
g735
(i__main__
DelphiIdentAccess
p3959
(dp3960
g14
S'amendment'
p3961
sg16
(lp3962
sbsg740
(idelphi
DelphiNilValue
p3963
(dp3964
bsg743
g1820
sbsg725
(i__main__
DelphiIdentAccess
p3965
(dp3966
g14
S'iHaveAnAmendment'
p3967
sg16
(lp3968
sbsba(i__main__
DelphiAssignStatement
p3969
(dp3970
g716
(idelphi
DelphiRelOp
p3971
(dp3972
g735
(i__main__
DelphiIdentAccess
p3973
(dp3974
g14
S'amendment'
p3975
sg16
(lp3976
sbsg740
(idelphi
DelphiNilValue
p3977
(dp3978
bsg743
S'='
sbsg725
(i__main__
DelphiIdentAccess
p3979
(dp3980
g14
S'iDontHaveAnAmendment'
p3981
sg16
(lp3982
sbsba(i__main__
DelphiAssignStatement
p3983
(dp3984
g716
(idelphi
DelphiRelOp
p3985
(dp3986
g735
(i__main__
DelphiIdentAccess
p3987
(dp3988
g14
S'parentAmendment'
p3989
sg16
(lp3990
sbsg740
(idelphi
DelphiNilValue
p3991
(dp3992
bsg743
g1820
sbsg725
(i__main__
DelphiIdentAccess
p3993
(dp3994
g14
S'myParentHasAnAmendment'
p3995
sg16
(lp3996
sbsba(i__main__
DelphiAssignStatement
p3997
(dp3998
g716
(idelphi
DelphiMulOp
p3999
(dp4000
g871
(idelphi
DelphiNestedExpressionListAccess
p4001
(dp4002
g16
(lp4003
sg772
(lp4004
(i__main__
DelphiIdentAccess
p4005
(dp4006
g14
S'amendment'
p4007
sg16
(lp4008
(idelphi
DelphiFieldEndAccess
p4009
(dp4010
g723
S'hide'
p4011
sbasbasbsg876
g1868
sg877
(idelphi
DelphiNestedExpressionListAccess
p4012
(dp4013
g16
(lp4014
sg772
(lp4015
(idelphi
DelphiRelOp
p4016
(dp4017
g735
(i__main__
DelphiIdentAccess
p4018
(dp4019
g14
S'amendment'
p4020
sg16
(lp4021
sbsg740
(idelphi
DelphiNilValue
p4022
(dp4023
bsg743
g1820
sbasbsbsg725
(i__main__
DelphiIdentAccess
p4024
(dp4025
g14
S'myAmendmentSaysIAmHidden'
p4026
sg16
(lp4027
sbsba(i__main__
DelphiAssignStatement
p4028
(dp4029
g716
(idelphi
DelphiMulOp
p4030
(dp4031
g871
(idelphi
DelphiNestedExpressionListAccess
p4032
(dp4033
g16
(lp4034
sg772
(lp4035
(i__main__
DelphiIdentAccess
p4036
(dp4037
g14
S'parentAmendment'
p4038
sg16
(lp4039
(idelphi
DelphiFieldEndAccess
p4040
(dp4041
g723
S'hide'
p4042
sbasbasbsg876
g1868
sg877
(idelphi
DelphiNestedExpressionListAccess
p4043
(dp4044
g16
(lp4045
sg772
(lp4046
(idelphi
DelphiRelOp
p4047
(dp4048
g735
(i__main__
DelphiIdentAccess
p4049
(dp4050
g14
S'parentAmendment'
p4051
sg16
(lp4052
sbsg740
(idelphi
DelphiNilValue
p4053
(dp4054
bsg743
g1820
sbasbsbsg725
(i__main__
DelphiIdentAccess
p4055
(dp4056
g14
S'myParentsAmendmentSaysIAmHidden'
p4057
sg16
(lp4058
sbsba(i__main__
DelphiAssignStatement
p4059
(dp4060
g716
(idelphi
DelphiMulOp
p4061
(dp4062
g871
(idelphi
DelphiNestedExpressionListAccess
p4063
(dp4064
g16
(lp4065
sg772
(lp4066
(idelphi
DelphiRelOp
p4067
(dp4068
g735
(i__main__
DelphiIdentAccess
p4069
(dp4070
g14
S'MainForm'
p4071
sg16
(lp4072
(idelphi
DelphiFieldEndAccess
p4073
(dp4074
g723
S'focusedPlant'
p4075
sbasbsg740
(i__main__
DelphiIdentAccess
p4076
(dp4077
g14
S'plant'
p4078
sg16
(lp4079
sbsg743
S'='
sbasbsg876
g1868
sg877
(idelphi
DelphiNestedExpressionListAccess
p4080
(dp4081
g16
(lp4082
sg772
(lp4083
(idelphi
DelphiRelOp
p4084
(dp4085
g735
(i__main__
DelphiIdentAccess
p4086
(dp4087
g14
S'self'
p4088
sg16
(lp4089
(idelphi
DelphiFieldEndAccess
p4090
(dp4091
g723
S'partID'
p4092
sbasbsg740
(i__main__
DelphiIdentAccess
p4093
(dp4094
g14
S'MainForm'
p4095
sg16
(lp4096
(idelphi
DelphiFieldEndAccess
p4097
(dp4098
g723
S'selectedPlantPartID'
p4099
sbasbsg743
S'='
sbasbsbsg725
(i__main__
DelphiIdentAccess
p4100
(dp4101
g14
S'iAmSelectedInTheMainWindow'
p4102
sg16
(lp4103
sbsba(i__main__
DelphiAssignStatement
p4104
(dp4105
g716
(idelphi
DelphiMulOp
p4106
(dp4107
g871
(idelphi
DelphiNestedExpressionListAccess
p4108
(dp4109
g16
(lp4110
sg772
(lp4111
(idelphi
DelphiNot
p4112
(dp4113
g1782
(i__main__
DelphiIdentAccess
p4114
(dp4115
g14
S'plant'
p4116
sg16
(lp4117
(idelphi
DelphiFieldEndAccess
p4118
(dp4119
g723
S'drawingIntoPreviewCache'
p4120
sbasbsbasbsg876
g1868
sg877
(idelphi
DelphiMulOp
p4121
(dp4122
g871
(idelphi
DelphiNestedExpressionListAccess
p4123
(dp4124
g16
(lp4125
sg772
(lp4126
(idelphi
DelphiNot
p4127
(dp4128
g1782
(i__main__
DelphiIdentAccess
p4129
(dp4130
g14
S'domain'
p4131
sg16
(lp4132
(idelphi
DelphiFieldEndAccess
p4133
(dp4134
g723
S'drawingToMakeCopyBitmap'
p4135
sbasbsbasbsg876
g1868
sg877
(idelphi
DelphiMulOp
p4136
(dp4137
g871
(idelphi
DelphiNestedExpressionListAccess
p4138
(dp4139
g16
(lp4140
sg772
(lp4141
(idelphi
DelphiRelOp
p4142
(dp4143
g735
(i__main__
DelphiIdentAccess
p4144
(dp4145
g14
S'plant'
p4146
sg16
(lp4147
(idelphi
DelphiFieldEndAccess
p4148
(dp4149
g723
S'turtle'
p4150
sba(idelphi
DelphiFieldEndAccess
p4151
(dp4152
g723
S'writingTo'
p4153
sbasbsg740
(i__main__
DelphiIdentAccess
p4154
(dp4155
g14
S'kScreen'
p4156
sg16
(lp4157
sbsg743
S'='
sbasbsg876
g1868
sg877
(i__main__
DelphiIdentAccess
p4158
(dp4159
g14
S'domain'
p4160
sg16
(lp4161
(idelphi
DelphiFieldEndAccess
p4162
(dp4163
g723
S'options'
p4164
sba(idelphi
DelphiFieldEndAccess
p4165
(dp4166
g723
S'showHighlightingForNonHiddenPosedParts'
p4167
sbasbsbsbsbsg725
(i__main__
DelphiIdentAccess
p4168
(dp4169
g14
S'showHighlights'
p4170
sg16
(lp4171
sbsba(idelphi
DelphiIfStatement
p4172
(dp4173
g732
(idelphi
DelphiAddOp
p4174
(dp4175
g828
g1961
sg829
(i__main__
DelphiIdentAccess
p4176
(dp4177
g14
S'myParentHasAnAmendment'
p4178
sg16
(lp4179
sbsg832
(i__main__
DelphiIdentAccess
p4180
(dp4181
g14
S'iHaveAnAmendment'
p4182
sg16
(lp4183
sbsbsg744
Nsg745
(idelphi
DelphiCompoundStatement
p4184
(dp4185
g712
(lp4186
(i__main__
DelphiAssignStatement
p4187
(dp4188
g716
(i__main__
DelphiIdentAccess
p4189
(dp4190
g14
S'false'
p4191
sg16
(lp4192
sbsg725
(i__main__
DelphiIdentAccess
p4193
(dp4194
g14
S'result'
p4195
sg16
(lp4196
sbsba(idelphi
DelphiIfStatement
p4197
(dp4198
g732
(idelphi
DelphiNestedExpressionListAccess
p4199
(dp4200
g16
(lp4201
sg772
(lp4202
(idelphi
DelphiMulOp
p4203
(dp4204
g871
(i__main__
DelphiIdentAccess
p4205
(dp4206
g14
S'showHighlights'
p4207
sg16
(lp4208
sbsg876
g1868
sg877
(idelphi
DelphiMulOp
p4209
(dp4210
g871
(i__main__
DelphiIdentAccess
p4211
(dp4212
g14
S'iAmSelectedInTheMainWindow'
p4213
sg16
(lp4214
sbsg876
g1868
sg877
(i__main__
DelphiIdentAccess
p4215
(dp4216
g14
S'iHaveAnAmendment'
p4217
sg16
(lp4218
sbsbsbasbsg744
(idelphi
DelphiIfStatement
p4219
(dp4220
g732
(idelphi
DelphiAddOp
p4221
(dp4222
g828
g1961
sg829
(idelphi
DelphiNestedExpressionListAccess
p4223
(dp4224
g16
(lp4225
sg772
(lp4226
(idelphi
DelphiMulOp
p4227
(dp4228
g871
(i__main__
DelphiIdentAccess
p4229
(dp4230
g14
S'myParentsAmendmentSaysIAmHidden'
p4231
sg16
(lp4232
sbsg876
g1868
sg877
(idelphi
DelphiMulOp
p4233
(dp4234
g871
(i__main__
DelphiIdentAccess
p4235
(dp4236
g14
S'myParentHasAnAmendment'
p4237
sg16
(lp4238
sbsg876
g1868
sg877
(i__main__
DelphiIdentAccess
p4239
(dp4240
g14
S'iDontHaveAnAmendment'
p4241
sg16
(lp4242
sbsbsbasbsg832
(idelphi
DelphiNestedExpressionListAccess
p4243
(dp4244
g16
(lp4245
sg772
(lp4246
(idelphi
DelphiMulOp
p4247
(dp4248
g871
(i__main__
DelphiIdentAccess
p4249
(dp4250
g14
S'myAmendmentSaysIAmHidden'
p4251
sg16
(lp4252
sbsg876
g1868
sg877
(i__main__
DelphiIdentAccess
p4253
(dp4254
g14
S'iHaveAnAmendment'
p4255
sg16
(lp4256
sbsbasbsbsg744
(idelphi
DelphiIfStatement
p4257
(dp4258
g732
(idelphi
DelphiNestedExpressionListAccess
p4259
(dp4260
g16
(lp4261
sg772
(lp4262
(idelphi
DelphiMulOp
p4263
(dp4264
g871
(i__main__
DelphiIdentAccess
p4265
(dp4266
g14
S'showHighlights'
p4267
sg16
(lp4268
sbsg876
g1868
sg877
(i__main__
DelphiIdentAccess
p4269
(dp4270
g14
S'iHaveAnAmendment'
p4271
sg16
(lp4272
sbsbasbsg744
(i__main__
DelphiAssignStatement
p4273
(dp4274
g716
(i__main__
DelphiIdentAccess
p4275
(dp4276
g14
S'true'
p4277
sg16
(lp4278
sbsg725
(i__main__
DelphiIdentAccess
p4279
(dp4280
g14
S'result'
p4281
sg16
(lp4282
sbsbsg745
(i__main__
DelphiAssignStatement
p4283
(dp4284
g716
(i__main__
DelphiIdentAccess
p4285
(dp4286
g14
S'domain'
p4287
sg16
(lp4288
(idelphi
DelphiFieldEndAccess
p4289
(dp4290
g723
S'options'
p4291
sba(idelphi
DelphiFieldEndAccess
p4292
(dp4293
g723
S'nonHiddenPosedColor'
p4294
sbasbsg725
(i__main__
DelphiIdentAccess
p4295
(dp4296
g14
S'color'
p4297
sg16
(lp4298
sbsbsbsg745
(i__main__
DelphiAssignStatement
p4299
(dp4300
g716
(i__main__
DelphiIdentAccess
p4301
(dp4302
g14
S'domain'
p4303
sg16
(lp4304
(idelphi
DelphiFieldEndAccess
p4305
(dp4306
g723
S'options'
p4307
sba(idelphi
DelphiFieldEndAccess
p4308
(dp4309
g723
S'ghostingColor'
p4310
sbasbsg725
(i__main__
DelphiIdentAccess
p4311
(dp4312
g14
S'color'
p4313
sg16
(lp4314
sbsbsbsg745
(i__main__
DelphiAssignStatement
p4315
(dp4316
g716
(i__main__
DelphiIdentAccess
p4317
(dp4318
g14
S'domain'
p4319
sg16
(lp4320
(idelphi
DelphiFieldEndAccess
p4321
(dp4322
g723
S'options'
p4323
sba(idelphi
DelphiFieldEndAccess
p4324
(dp4325
g723
S'selectedPosedColor'
p4326
sbasbsg725
(i__main__
DelphiIdentAccess
p4327
(dp4328
g14
S'color'
p4329
sg16
(lp4330
sbsbsbasbsba(idelphi
DelphiIfStatement
p4331
(dp4332
g732
(idelphi
DelphiRelOp
p4333
(dp4334
g735
(i__main__
DelphiIdentAccess
p4335
(dp4336
g14
S'result'
p4337
sg16
(lp4338
sbsg740
(i__main__
DelphiIdentAccess
p4339
(dp4340
g14
S'false'
p4341
sg16
(lp4342
sbsg743
S'='
sbsg744
Nsg745
(idelphi
DelphiCompoundStatement
p4343
(dp4344
g712
(lp4345
(idelphi
DelphiIfStatement
p4346
(dp4347
g732
(idelphi
DelphiRelOp
p4348
(dp4349
g735
(i__main__
DelphiIdentAccess
p4350
(dp4351
g14
S'backFaceColor'
p4352
sg16
(lp4353
sbsg740
(idelphi
DelphiIntegerValue
p4354
(dp4355
g40
S'0'
sbsg743
S'='
sbsg744
Nsg745
(i__main__
DelphiAssignStatement
p4356
(dp4357
g716
(i__main__
DelphiIdentAccess
p4358
(dp4359
g14
S'color'
p4360
sg16
(lp4361
sbsg725
(i__main__
DelphiIdentAccess
p4362
(dp4363
g14
S'backFaceColor'
p4364
sg16
(lp4365
sbsbsba(idelphi
DelphiIfStatement
p4366
(dp4367
g732
(idelphi
DelphiRelOp
p4368
(dp4369
g735
(i__main__
DelphiIdentAccess
p4370
(dp4371
g14
S'lineColor'
p4372
sg16
(lp4373
sbsg740
(idelphi
DelphiIntegerValue
p4374
(dp4375
g40
S'0'
sbsg743
S'='
sbsg744
Nsg745
(i__main__
DelphiAssignStatement
p4376
(dp4377
g716
(i__main__
DelphiIdentAccess
p4378
(dp4379
g14
S'color'
p4380
sg16
(lp4381
sbsg725
(i__main__
DelphiIdentAccess
p4382
(dp4383
g14
S'lineColor'
p4384
sg16
(lp4385
sbsbsba(idelphi
DelphiIfStatement
p4386
(dp4387
g732
(i__main__
DelphiIdentAccess
p4388
(dp4389
g14
S'drawingTdo'
p4390
sg16
(lp4391
sbsg744
(i__main__
DelphiAssignStatement
p4392
(dp4393
g716
Nsg725
(i__main__
DelphiIdentAccess
p4394
(dp4395
g14
S'plant'
p4396
sg16
(lp4397
(idelphi
DelphiFieldEndAccess
p4398
(dp4399
g723
S'turtle'
p4400
sba(idelphi
DelphiFieldEndAccess
p4401
(dp4402
g723
S'setLineColor'
p4403
sba(idelphi
DelphiFunctionEndAccess
p4404
(dp4405
g772
(lp4406
(i__main__
DelphiIdentAccess
p4407
(dp4408
g14
S'lineColor'
p4409
sg16
(lp4410
sbasbasbsbsg745
(idelphi
DelphiCompoundStatement
p4411
(dp4412
g712
(lp4413
(i__main__
DelphiAssignStatement
p4414
(dp4415
g716
Nsg725
(i__main__
DelphiIdentAccess
p4416
(dp4417
g14
S'plant'
p4418
sg16
(lp4419
(idelphi
DelphiFieldEndAccess
p4420
(dp4421
g723
S'turtle'
p4422
sba(idelphi
DelphiFieldEndAccess
p4423
(dp4424
g723
S'setForeColorBackColor'
p4425
sba(idelphi
DelphiFunctionEndAccess
p4426
(dp4427
g772
(lp4428
(i__main__
DelphiIdentAccess
p4429
(dp4430
g14
S'color'
p4431
sg16
(lp4432
sba(i__main__
DelphiIdentAccess
p4433
(dp4434
g14
S'backFaceColor'
p4435
sg16
(lp4436
sbasbasbsba(i__main__
DelphiAssignStatement
p4437
(dp4438
g716
Nsg725
(i__main__
DelphiIdentAccess
p4439
(dp4440
g14
S'plant'
p4441
sg16
(lp4442
(idelphi
DelphiFieldEndAccess
p4443
(dp4444
g723
S'turtle'
p4445
sba(idelphi
DelphiFieldEndAccess
p4446
(dp4447
g723
S'setLineColor'
p4448
sba(idelphi
DelphiFunctionEndAccess
p4449
(dp4450
g772
(lp4451
(i__main__
DelphiIdentAccess
p4452
(dp4453
g14
S'darkerColor'
p4454
sg16
(lp4455
(idelphi
DelphiFunctionEndAccess
p4456
(dp4457
g772
(lp4458
(i__main__
DelphiIdentAccess
p4459
(dp4460
g14
S'color'
p4461
sg16
(lp4462
sbasbasbasbasbsbasbsbasbsbasbsg1168
(lp4463
(i__main__
DelphiVarSection
p4464
(dp4465
g64
I0
sg1172
(lp4466
(idelphi
DelphiVarDecl
p4467
(dp4468
g11
Nsg1176
(lp4469
S'amendmentToUse'
p4470
asg19
(i__main__
DelphiNamedType
p4471
(dp4472
g22
S'PdPlantDrawingAmendment'
p4473
sg157
g1
sg158
Nsbsba(idelphi
DelphiVarDecl
p4474
(dp4475
g11
Nsg1176
(lp4476
S'color'
p4477
aS'backfaceColor'
p4478
aS'lineColor'
p4479
asg19
(i__main__
DelphiNamedType
p4480
(dp4481
g22
S'TColorRef'
p4482
sg157
g1
sg158
Nsbsba(idelphi
DelphiVarDecl
p4483
(dp4484
g11
Nsg1176
(lp4485
S'iHaveAnAmendment'
p4486
aS'iDontHaveAnAmendment'
p4487
aS'myParentHasAnAmendment'
p4488
aS'myAmendmentSaysIAmHidden'
p4489
aS'myParentsAmendmentSaysIAmHidden'
p4490
aS'iAmSelectedInTheMainWindow'
p4491
aS'showHighlights'
p4492
asg19
(i__main__
DelphiPrimitiveType
p4493
(dp4494
g22
g214
sbsbasbasbsbsS'report'
p4495
(i__main__
DelphiMethodImplementation
p4496
(dp4497
g672
g161
sg97
g163
sg105
(lp4498
sg694
(lp4499
sg696
(lp4500
sg698
(lp4501
g700
asg701
(dp4502
sg132
S'PdPlantPart'
p4503
sg133
Nsg704
(lp4504
sg134
I0
sg135
g136
sg706
(i__main__
DelphiBlock
p4505
(dp4506
g709
(idelphi
DelphiCompoundStatement
p4507
(dp4508
g712
(lp4509
(idelphi
DelphiCaseStatement
p4510
(dp4511
g3445
Nsg732
(i__main__
DelphiIdentAccess
p4512
(dp4513
g14
S'self'
p4514
sg16
(lp4515
(idelphi
DelphiFieldEndAccess
p4516
(dp4517
g723
S'partType'
p4518
sbasbsg3468
(lp4519
(idelphi
DelphiCaseSelector
p4520
(dp4521
g841
(i__main__
DelphiAssignStatement
p4522
(dp4523
g716
(idelphi
DelphiStringAccess
p4524
(dp4525
g16
(lp4526
sg40
(idelphi
DelphiStringValue
p4527
(dp4528
g40
S'flower/fruit'
p4529
sbsbsg725
(i__main__
DelphiIdentAccess
p4530
(dp4531
g14
S'partName'
p4532
sg16
(lp4533
sbsbsg3472
(lp4534
(i__main__
DelphiIdentAccess
p4535
(dp4536
g14
S'kPartTypeFlowerFruit'
p4537
sg16
(lp4538
sbasba(idelphi
DelphiCaseSelector
p4539
(dp4540
g841
(i__main__
DelphiAssignStatement
p4541
(dp4542
g716
(idelphi
DelphiStringAccess
p4543
(dp4544
g16
(lp4545
sg40
(idelphi
DelphiStringValue
p4546
(dp4547
g40
S'inflorescence'
p4548
sbsbsg725
(i__main__
DelphiIdentAccess
p4549
(dp4550
g14
S'partName'
p4551
sg16
(lp4552
sbsbsg3472
(lp4553
(i__main__
DelphiIdentAccess
p4554
(dp4555
g14
S'kPartTypeInflorescence'
p4556
sg16
(lp4557
sbasba(idelphi
DelphiCaseSelector
p4558
(dp4559
g841
(i__main__
DelphiAssignStatement
p4560
(dp4561
g716
(idelphi
DelphiStringAccess
p4562
(dp4563
g16
(lp4564
sg40
(idelphi
DelphiStringValue
p4565
(dp4566
g40
S'meristem'
p4567
sbsbsg725
(i__main__
DelphiIdentAccess
p4568
(dp4569
g14
S'partName'
p4570
sg16
(lp4571
sbsbsg3472
(lp4572
(i__main__
DelphiIdentAccess
p4573
(dp4574
g14
S'kPartTypeMeristem'
p4575
sg16
(lp4576
sbasba(idelphi
DelphiCaseSelector
p4577
(dp4578
g841
(i__main__
DelphiAssignStatement
p4579
(dp4580
g716
(idelphi
DelphiStringAccess
p4581
(dp4582
g16
(lp4583
sg40
(idelphi
DelphiStringValue
p4584
(dp4585
g40
S'internode'
p4586
sbsbsg725
(i__main__
DelphiIdentAccess
p4587
(dp4588
g14
S'partName'
p4589
sg16
(lp4590
sbsbsg3472
(lp4591
(i__main__
DelphiIdentAccess
p4592
(dp4593
g14
S'kPartTypePhytomer'
p4594
sg16
(lp4595
sbasba(idelphi
DelphiCaseSelector
p4596
(dp4597
g841
(i__main__
DelphiAssignStatement
p4598
(dp4599
g716
(idelphi
DelphiStringAccess
p4600
(dp4601
g16
(lp4602
sg40
(idelphi
DelphiStringValue
p4603
(dp4604
g40
S'leaf'
p4605
sbsbsg725
(i__main__
DelphiIdentAccess
p4606
(dp4607
g14
S'partName'
p4608
sg16
(lp4609
sbsbsg3472
(lp4610
(i__main__
DelphiIdentAccess
p4611
(dp4612
g14
S'kPartTypeLeaf'
p4613
sg16
(lp4614
sbasbasba(i__main__
DelphiAssignStatement
p4615
(dp4616
g716
Nsg725
(i__main__
DelphiIdentAccess
p4617
(dp4618
g14
S'debugPrint'
p4619
sg16
(lp4620
(idelphi
DelphiFunctionEndAccess
p4621
(dp4622
g772
(lp4623
(idelphi
DelphiAddOp
p4624
(dp4625
g828
S'+'
sg829
(i__main__
DelphiIdentAccess
p4626
(dp4627
g14
S'partName'
p4628
sg16
(lp4629
sbsg832
(idelphi
DelphiAddOp
p4630
(dp4631
g828
S'+'
sg829
(idelphi
DelphiStringAccess
p4632
(dp4633
g16
(lp4634
sg40
(idelphi
DelphiStringValue
p4635
(dp4636
g40
S', '
p4637
sbsbsg832
(idelphi
DelphiAddOp
p4638
(dp4639
g828
S'+'
sg829
(i__main__
DelphiIdentAccess
p4640
(dp4641
g14
S'intToStr'
p4642
sg16
(lp4643
(idelphi
DelphiFunctionEndAccess
p4644
(dp4645
g772
(lp4646
(i__main__
DelphiIdentAccess
p4647
(dp4648
g14
S'self'
p4649
sg16
(lp4650
(idelphi
DelphiFieldEndAccess
p4651
(dp4652
g723
S'partID'
p4653
sbasbasbasbsg832
(idelphi
DelphiStringAccess
p4654
(dp4655
g16
(lp4656
sg40
(idelphi
DelphiStringValue
p4657
(dp4658
g40
S'Part '
p4659
sbsbsbsbsbasbasbsbasbsg1168
(lp4660
(i__main__
DelphiVarSection
p4661
(dp4662
g64
I0
sg1172
(lp4663
(idelphi
DelphiVarDecl
p4664
(dp4665
g11
Nsg1176
(lp4666
S'partName'
p4667
asg19
(i__main__
DelphiPrimitiveType
p4668
(dp4669
g22
g40
sbsbasbasbsbsS'longnamefordxfpartconsideringgenderetc'
p4670
(i__main__
DelphiMethodImplementation
p4671
(dp4672
g672
g431
sg97
g433
sg105
(lp4673
(i__main__
DelphiFormalParameter
p4674
(dp4675
g109
Nsg110
(lp4676
g337
asg19
(i__main__
DelphiPrimitiveType
p4677
(dp4678
g22
g115
sbsg116
Nsbasg694
(lp4679
sg696
(lp4680
sg698
(lp4681
g700
ag337
asg701
(dp4682
g337
g4677
ssg132
S'PdPlantPart'
p4683
sg133
(i__main__
DelphiPrimitiveType
p4684
(dp4685
g22
g40
sbsg704
(lp4686
sg134
I0
sg135
g144
sg706
(i__main__
DelphiBlock
p4687
(dp4688
g709
(idelphi
DelphiCompoundStatement
p4689
(dp4690
g712
(lp4691
(i__main__
DelphiAssignStatement
p4692
(dp4693
g716
(i__main__
DelphiIdentAccess
p4694
(dp4695
g14
S'longNameForDXFPartType'
p4696
sg16
(lp4697
(idelphi
DelphiFunctionEndAccess
p4698
(dp4699
g772
(lp4700
(i__main__
DelphiIdentAccess
p4701
(dp4702
g14
S'self'
p4703
sg16
(lp4704
(idelphi
DelphiFieldEndAccess
p4705
(dp4706
g723
S'realDxfIndexForBaseDXFPart'
p4707
sba(idelphi
DelphiFunctionEndAccess
p4708
(dp4709
g772
(lp4710
(i__main__
DelphiIdentAccess
p4711
(dp4712
g14
g337
sg16
(lp4713
sbasbasbasbasbsg725
(i__main__
DelphiIdentAccess
p4714
(dp4715
g14
S'result'
p4716
sg16
(lp4717
sbsbasbsg1168
(lp4718
sbsbsS'drawstemsegment'
p4719
(i__main__
DelphiMethodImplementation
p4720
(dp4721
g672
g443
sg97
g445
sg105
(lp4722
(i__main__
DelphiFormalParameter
p4723
(dp4724
g109
Nsg110
(lp4725
S'length'
p4726
aS'width'
p4727
aS'angleZ'
p4728
aS'angleY'
p4729
asg19
(i__main__
DelphiPrimitiveType
p4730
(dp4731
g22
g125
sbsg116
Nsba(i__main__
DelphiFormalParameter
p4732
(dp4733
g109
Nsg110
(lp4734
S'color'
p4735
asg19
(i__main__
DelphiNamedType
p4736
(dp4737
g22
S'TColorRef'
p4738
sg157
g1
sg158
Nsbsg116
Nsba(i__main__
DelphiFormalParameter
p4739
(dp4740
g109
Nsg110
(lp4741
S'taperIndex'
p4742
asg19
(i__main__
DelphiPrimitiveType
p4743
(dp4744
g22
g125
sbsg116
Nsba(i__main__
DelphiFormalParameter
p4745
(dp4746
g109
Nsg110
(lp4747
S'dxfIndex'
p4748
asg19
(i__main__
DelphiPrimitiveType
p4749
(dp4750
g22
g115
sbsg116
Nsba(i__main__
DelphiFormalParameter
p4751
(dp4752
g109
Nsg110
(lp4753
S'useAmendment'
p4754
asg19
(i__main__
DelphiPrimitiveType
p4755
(dp4756
g22
g214
sbsg116
Nsbasg694
(lp4757
sg696
(lp4758
sg698
(lp4759
g700
ag4726
ag4727
ag4728
ag4729
ag4735
ag4742
ag4748
ag4754
asg701
(dp4760
g4735
g4736
sg4727
g4730
sg4726
g4730
sg4742
g4743
sg4754
g4755
sg4729
g4730
sg4748
g4749
sg4728
g4730
ssg132
S'PdPlantPart'
p4761
sg133
Nsg704
(lp4762
sg134
I0
sg135
g136
sg706
(i__main__
DelphiBlock
p4763
(dp4764
g709
(idelphi
DelphiCompoundStatement
p4765
(dp4766
g712
(lp4767
(i__main__
DelphiAssignStatement
p4768
(dp4769
g716
(i__main__
DelphiIdentAccess
p4770
(dp4771
g14
S'plant'
p4772
sg16
(lp4773
(idelphi
DelphiFieldEndAccess
p4774
(dp4775
g723
S'turtle'
p4776
sbasbsg725
(i__main__
DelphiIdentAccess
p4777
(dp4778
g14
S'turtle'
p4779
sg16
(lp4780
sbsba(idelphi
DelphiIfStatement
p4781
(dp4782
g732
(idelphi
DelphiNestedExpressionListAccess
p4783
(dp4784
g16
(lp4785
sg772
(lp4786
(idelphi
DelphiRelOp
p4787
(dp4788
g735
(i__main__
DelphiIdentAccess
p4789
(dp4790
g14
S'turtle'
p4791
sg16
(lp4792
sbsg740
(idelphi
DelphiNilValue
p4793
(dp4794
bsg743
S'='
sbasbsg744
Nsg745
(i__main__
DelphiExitStatement
p4795
(dp4796
g748
g4720
sbsba(idelphi
DelphiIfStatement
p4797
(dp4798
g732
(i__main__
DelphiIdentAccess
p4799
(dp4800
g14
S'turtle'
p4801
sg16
(lp4802
(idelphi
DelphiFieldEndAccess
p4803
(dp4804
g723
S'ifExporting_ExcludeStem'
p4805
sba(idelphi
DelphiFunctionEndAccess
p4806
(dp4807
g772
(lp4808
(i__main__
DelphiIdentAccess
p4809
(dp4810
g14
S'length'
p4811
sg16
(lp4812
sbasbasbsg744
Nsg745
(i__main__
DelphiExitStatement
p4813
(dp4814
g748
g4720
sbsba(idelphi
DelphiIfStatement
p4815
(dp4816
g732
(i__main__
DelphiIdentAccess
p4817
(dp4818
g14
S'self'
p4819
sg16
(lp4820
(idelphi
DelphiFieldEndAccess
p4821
(dp4822
g723
S'setColorsWithAmendmentAndReturnTrueIfNoOverrides'
p4823
sba(idelphi
DelphiFunctionEndAccess
p4824
(dp4825
g772
(lp4826
(i__main__
DelphiIdentAccess
p4827
(dp4828
g14
S'kDrawingLine'
p4829
sg16
(lp4830
sbasbasbsg744
Nsg745
(i__main__
DelphiAssignStatement
p4831
(dp4832
g716
Nsg725
(i__main__
DelphiIdentAccess
p4833
(dp4834
g14
S'turtle'
p4835
sg16
(lp4836
(idelphi
DelphiFieldEndAccess
p4837
(dp4838
g723
S'setLineColor'
p4839
sba(idelphi
DelphiFunctionEndAccess
p4840
(dp4841
g772
(lp4842
(i__main__
DelphiIdentAccess
p4843
(dp4844
g14
S'color'
p4845
sg16
(lp4846
sbasbasbsbsba(i__main__
DelphiAssignStatement
p4847
(dp4848
g716
(idelphi
DelphiMulOp
p4849
(dp4850
g871
(i__main__
DelphiIdentAccess
p4851
(dp4852
g14
S'self'
p4853
sg16
(lp4854
(idelphi
DelphiFieldEndAccess
p4855
(dp4856
g723
S'lengthMultiplierConsideringAmendments'
p4857
sbasbsg876
S'*'
sg877
(i__main__
DelphiIdentAccess
p4858
(dp4859
g14
S'length'
p4860
sg16
(lp4861
sbsbsg725
(i__main__
DelphiIdentAccess
p4862
(dp4863
g14
S'realLength'
p4864
sg16
(lp4865
sbsba(i__main__
DelphiAssignStatement
p4866
(dp4867
g716
(idelphi
DelphiMulOp
p4868
(dp4869
g871
(i__main__
DelphiIdentAccess
p4870
(dp4871
g14
S'self'
p4872
sg16
(lp4873
(idelphi
DelphiFieldEndAccess
p4874
(dp4875
g723
S'widthMultiplierConsideringAmendments'
p4876
sbasbsg876
S'*'
sg877
(i__main__
DelphiIdentAccess
p4877
(dp4878
g14
S'width'
p4879
sg16
(lp4880
sbsbsg725
(i__main__
DelphiIdentAccess
p4881
(dp4882
g14
S'realWidth'
p4883
sg16
(lp4884
sbsba(i__main__
DelphiAssignStatement
p4885
(dp4886
g716
Nsg725
(i__main__
DelphiIdentAccess
p4887
(dp4888
g14
S'turtle'
p4889
sg16
(lp4890
(idelphi
DelphiFieldEndAccess
p4891
(dp4892
g723
S'ifExporting_startStemSegment'
p4893
sba(idelphi
DelphiFunctionEndAccess
p4894
(dp4895
g772
(lp4896
(i__main__
DelphiIdentAccess
p4897
(dp4898
g14
S'self'
p4899
sg16
(lp4900
(idelphi
DelphiFieldEndAccess
p4901
(dp4902
g723
S'longNameForDXFPartConsideringGenderEtc'
p4903
sba(idelphi
DelphiFunctionEndAccess
p4904
(dp4905
g772
(lp4906
(i__main__
DelphiIdentAccess
p4907
(dp4908
g14
S'dxfIndex'
p4909
sg16
(lp4910
sbasbasba(i__main__
DelphiIdentAccess
p4911
(dp4912
g14
S'self'
p4913
sg16
(lp4914
(idelphi
DelphiFieldEndAccess
p4915
(dp4916
g723
S'shortNameForDXFPartConsideringGenderEtc'
p4917
sba(idelphi
DelphiFunctionEndAccess
p4918
(dp4919
g772
(lp4920
(i__main__
DelphiIdentAccess
p4921
(dp4922
g14
S'dxfIndex'
p4923
sg16
(lp4924
sbasbasba(i__main__
DelphiIdentAccess
p4925
(dp4926
g14
S'color'
p4927
sg16
(lp4928
sba(idelphi
DelphiMulOp
p4929
(dp4930
g871
(idelphi
DelphiRealValue
p4931
(dp4932
g40
S'2.0'
p4933
sbsg876
S'/'
sg877
(i__main__
DelphiIdentAccess
p4934
(dp4935
g14
S'realWidth'
p4936
sg16
(lp4937
sbsba(i__main__
DelphiIdentAccess
p4938
(dp4939
g14
S'dxfIndex'
p4940
sg16
(lp4941
sbasbasbsg570
(lp4942
S' set up for export\r'
p4943
aS'for POV you want radius not diameter'
p4944
asba(idelphi
DelphiIfStatement
p4945
(dp4946
g732
(i__main__
DelphiIdentAccess
p4947
(dp4948
g14
S'turtle'
p4949
sg16
(lp4950
(idelphi
DelphiFieldEndAccess
p4951
(dp4952
g723
S'drawOptions'
p4953
sba(idelphi
DelphiFieldEndAccess
p4954
(dp4955
g723
S'straightLinesOnly'
p4956
sbasbsg744
(i__main__
DelphiAssignStatement
p4957
(dp4958
g716
(i__main__
DelphiIdentAccess
p4959
(dp4960
g14
S'plant'
p4961
sg16
(lp4962
(idelphi
DelphiFieldEndAccess
p4963
(dp4964
g723
S'pGeneral'
p4965
sba(idelphi
DelphiFieldEndAccess
p4966
(dp4967
g723
S'lineDivisions'
p4968
sbasbsg725
(i__main__
DelphiIdentAccess
p4969
(dp4970
g14
S'lineDivisions'
p4971
sg16
(lp4972
sbsbsg745
(i__main__
DelphiAssignStatement
p4973
(dp4974
g716
(idelphi
DelphiIntegerValue
p4975
(dp4976
g40
S'1'
sbsg725
(i__main__
DelphiIdentAccess
p4977
(dp4978
g14
S'lineDivisions'
p4979
sg16
(lp4980
sbsg570
(lp4981
S' get number of segments\r'
p4982
asbsba(i__main__
DelphiAssignStatement
p4983
(dp4984
g716
(i__main__
DelphiIdentAccess
p4985
(dp4986
g14
S'self'
p4987
sg16
(lp4988
(idelphi
DelphiFieldEndAccess
p4989
(dp4990
g723
S'rotateAngleConsideringAmendment'
p4991
sba(idelphi
DelphiFunctionEndAccess
p4992
(dp4993
g772
(lp4994
(i__main__
DelphiIdentAccess
p4995
(dp4996
g14
S'kRotateX'
p4997
sg16
(lp4998
sba(i__main__
DelphiIdentAccess
p4999
(dp5000
g14
S'useAmendment'
p5001
sg16
(lp5002
sba(idelphi
DelphiIntegerValue
p5003
(dp5004
g40
S'0'
sbasbasbsg725
(i__main__
DelphiIdentAccess
p5005
(dp5006
g14
S'realAngleX'
p5007
sg16
(lp5008
sbsg570
(lp5009
S' figure length and turn of each segment\r'
p5010
asba(i__main__
DelphiAssignStatement
p5011
(dp5012
g716
(i__main__
DelphiIdentAccess
p5013
(dp5014
g14
S'self'
p5015
sg16
(lp5016
(idelphi
DelphiFieldEndAccess
p5017
(dp5018
g723
S'rotateAngleConsideringAmendment'
p5019
sba(idelphi
DelphiFunctionEndAccess
p5020
(dp5021
g772
(lp5022
(i__main__
DelphiIdentAccess
p5023
(dp5024
g14
S'kRotateY'
p5025
sg16
(lp5026
sba(i__main__
DelphiIdentAccess
p5027
(dp5028
g14
S'useAmendment'
p5029
sg16
(lp5030
sba(i__main__
DelphiIdentAccess
p5031
(dp5032
g14
S'angleY'
p5033
sg16
(lp5034
sbasbasbsg725
(i__main__
DelphiIdentAccess
p5035
(dp5036
g14
S'realAngleY'
p5037
sg16
(lp5038
sbsba(i__main__
DelphiAssignStatement
p5039
(dp5040
g716
(i__main__
DelphiIdentAccess
p5041
(dp5042
g14
S'self'
p5043
sg16
(lp5044
(idelphi
DelphiFieldEndAccess
p5045
(dp5046
g723
S'rotateAngleConsideringAmendment'
p5047
sba(idelphi
DelphiFunctionEndAccess
p5048
(dp5049
g772
(lp5050
(i__main__
DelphiIdentAccess
p5051
(dp5052
g14
S'kRotateZ'
p5053
sg16
(lp5054
sba(i__main__
DelphiIdentAccess
p5055
(dp5056
g14
S'useAmendment'
p5057
sg16
(lp5058
sba(i__main__
DelphiIdentAccess
p5059
(dp5060
g14
S'angleZ'
p5061
sg16
(lp5062
sbasbasbsg725
(i__main__
DelphiIdentAccess
p5063
(dp5064
g14
S'realAngleZ'
p5065
sg16
(lp5066
sbsba(idelphi
DelphiIfStatement
p5067
(dp5068
g732
(idelphi
DelphiRelOp
p5069
(dp5070
g735
(i__main__
DelphiIdentAccess
p5071
(dp5072
g14
S'lineDivisions'
p5073
sg16
(lp5074
sbsg740
(idelphi
DelphiIntegerValue
p5075
(dp5076
g40
S'1'
sbsg743
S'>'
sbsg744
(idelphi
DelphiCompoundStatement
p5077
(dp5078
g712
(lp5079
(i__main__
DelphiAssignStatement
p5080
(dp5081
g716
(i__main__
DelphiIdentAccess
p5082
(dp5083
g14
S'realAngleZ'
p5084
sg16
(lp5085
sbsg725
(i__main__
DelphiIdentAccess
p5086
(dp5087
g14
S'turnPortionZ'
p5088
sg16
(lp5089
sbsba(i__main__
DelphiAssignStatement
p5090
(dp5091
g716
(i__main__
DelphiIdentAccess
p5092
(dp5093
g14
S'realAngleY'
p5094
sg16
(lp5095
sbsg725
(i__main__
DelphiIdentAccess
p5096
(dp5097
g14
S'turnPortionY'
p5098
sg16
(lp5099
sbsba(i__main__
DelphiAssignStatement
p5100
(dp5101
g716
(i__main__
DelphiIdentAccess
p5102
(dp5103
g14
S'realLength'
p5104
sg16
(lp5105
sbsg725
(i__main__
DelphiIdentAccess
p5106
(dp5107
g14
S'drawPortion'
p5108
sg16
(lp5109
sbsbasbsg745
(idelphi
DelphiCompoundStatement
p5110
(dp5111
g712
(lp5112
(i__main__
DelphiAssignStatement
p5113
(dp5114
g716
(idelphi
DelphiMulOp
p5115
(dp5116
g871
(i__main__
DelphiIdentAccess
p5117
(dp5118
g14
S'lineDivisions'
p5119
sg16
(lp5120
sbsg876
S'/'
sg877
(i__main__
DelphiIdentAccess
p5121
(dp5122
g14
S'realAngleZ'
p5123
sg16
(lp5124
sbsbsg725
(i__main__
DelphiIdentAccess
p5125
(dp5126
g14
S'turnPortionZ'
p5127
sg16
(lp5128
sbsba(i__main__
DelphiAssignStatement
p5129
(dp5130
g716
(idelphi
DelphiMulOp
p5131
(dp5132
g871
(i__main__
DelphiIdentAccess
p5133
(dp5134
g14
S'lineDivisions'
p5135
sg16
(lp5136
sbsg876
S'/'
sg877
(i__main__
DelphiIdentAccess
p5137
(dp5138
g14
S'realAngleY'
p5139
sg16
(lp5140
sbsbsg725
(i__main__
DelphiIdentAccess
p5141
(dp5142
g14
S'turnPortionY'
p5143
sg16
(lp5144
sbsba(i__main__
DelphiAssignStatement
p5145
(dp5146
g716
(idelphi
DelphiMulOp
p5147
(dp5148
g871
(i__main__
DelphiIdentAccess
p5149
(dp5150
g14
S'lineDivisions'
p5151
sg16
(lp5152
sbsg876
S'/'
sg877
(i__main__
DelphiIdentAccess
p5153
(dp5154
g14
S'realLength'
p5155
sg16
(lp5156
sbsbsg725
(i__main__
DelphiIdentAccess
p5157
(dp5158
g14
S'drawPortion'
p5159
sg16
(lp5160
sbsbasbsba(i__main__
DelphiAssignStatement
p5161
(dp5162
g716
(i__main__
DelphiIdentAccess
p5163
(dp5164
g14
S'realWidth'
p5165
sg16
(lp5166
sbsg725
(i__main__
DelphiIdentAccess
p5167
(dp5168
g14
S'startWidth'
p5169
sg16
(lp5170
sbsg570
(lp5171
S' figure width for tapering\r'
p5172
asba(idelphi
DelphiIfStatement
p5173
(dp5174
g732
(idelphi
DelphiRelOp
p5175
(dp5176
g735
(i__main__
DelphiIdentAccess
p5177
(dp5178
g14
S'taperIndex'
p5179
sg16
(lp5180
sbsg740
(idelphi
DelphiIntegerValue
p5181
(dp5182
g40
S'0'
sbsg743
S'>'
sbsg744
(i__main__
DelphiAssignStatement
p5183
(dp5184
g716
(i__main__
DelphiIdentAccess
p5185
(dp5186
g14
S'realWidth'
p5187
sg16
(lp5188
sbsg725
(i__main__
DelphiIdentAccess
p5189
(dp5190
g14
S'endWidth'
p5191
sg16
(lp5192
sbsbsg745
(i__main__
DelphiAssignStatement
p5193
(dp5194
g716
(idelphi
DelphiMulOp
p5195
(dp5196
g871
(idelphi
DelphiRealValue
p5197
(dp5198
g40
S'100.0'
p5199
sbsg876
S'/'
sg877
(idelphi
DelphiMulOp
p5200
(dp5201
g871
(i__main__
DelphiIdentAccess
p5202
(dp5203
g14
S'taperIndex'
p5204
sg16
(lp5205
sbsg876
S'*'
sg877
(i__main__
DelphiIdentAccess
p5206
(dp5207
g14
S'startWidth'
p5208
sg16
(lp5209
sbsbsbsg725
(i__main__
DelphiIdentAccess
p5210
(dp5211
g14
S'endWidth'
p5212
sg16
(lp5213
sbsbsba(i__main__
DelphiAssignStatement
p5214
(dp5215
g716
(i__main__
DelphiIdentAccess
p5216
(dp5217
g14
S'startWidth'
p5218
sg16
(lp5219
sbsg725
(i__main__
DelphiIdentAccess
p5220
(dp5221
g14
S'startPortionWidth'
p5222
sg16
(lp5223
sbsba(i__main__
DelphiAssignStatement
p5224
(dp5225
g716
(i__main__
DelphiIdentAccess
p5226
(dp5227
g14
S'startPortionWidth'
p5228
sg16
(lp5229
sbsg725
(i__main__
DelphiIdentAccess
p5230
(dp5231
g14
S'endPortionWidth'
p5232
sg16
(lp5233
sbsba(idelphi
DelphiIfStatement
p5234
(dp5235
g732
(idelphi
DelphiRelOp
p5236
(dp5237
g735
(i__main__
DelphiIdentAccess
p5238
(dp5239
g14
S'realAngleX'
p5240
sg16
(lp5241
sbsg740
(idelphi
DelphiIntegerValue
p5242
(dp5243
g40
S'0'
sbsg743
g1820
sbsg744
Nsg745
(i__main__
DelphiAssignStatement
p5244
(dp5245
g716
Nsg725
(i__main__
DelphiIdentAccess
p5246
(dp5247
g14
S'turtle'
p5248
sg16
(lp5249
(idelphi
DelphiFieldEndAccess
p5250
(dp5251
g723
S'rotateX'
p5252
sba(idelphi
DelphiFunctionEndAccess
p5253
(dp5254
g772
(lp5255
(i__main__
DelphiIdentAccess
p5256
(dp5257
g14
S'realAngleX'
p5258
sg16
(lp5259
sbasbasbsbsba(idelphi
DelphiForStatement
p5260
(dp5261
g824
S'i'
sg825
(idelphi
DelphiAddOp
p5262
(dp5263
g828
S'-'
sg829
(idelphi
DelphiIntegerValue
p5264
(dp5265
g40
S'1'
sbsg832
(i__main__
DelphiIdentAccess
p5266
(dp5267
g14
S'lineDivisions'
p5268
sg16
(lp5269
sbsbsg837
g838
sg109
(idelphi
DelphiIntegerValue
p5270
(dp5271
g40
S'0'
sbsg841
(idelphi
DelphiCompoundStatement
p5272
(dp5273
g712
(lp5274
(i__main__
DelphiAssignStatement
p5275
(dp5276
g716
(idelphi
DelphiNestedExpressionListAccess
p5277
(dp5278
g16
(lp5279
sg772
(lp5280
(idelphi
DelphiRelOp
p5281
(dp5282
g735
(i__main__
DelphiIdentAccess
p5283
(dp5284
g14
S'i'
sg16
(lp5285
sbsg740
(idelphi
DelphiAddOp
p5286
(dp5287
g828
S'-'
sg829
(idelphi
DelphiIntegerValue
p5288
(dp5289
g40
S'1'
sbsg832
(i__main__
DelphiIdentAccess
p5290
(dp5291
g14
S'lineDivisions'
p5292
sg16
(lp5293
sbsbsg743
S'>='
p5294
sbasbsg725
(i__main__
DelphiIdentAccess
p5295
(dp5296
g14
S'isLastSegment'
p5297
sg16
(lp5298
sbsba(idelphi
DelphiIfStatement
p5299
(dp5300
g732
(idelphi
DelphiNot
p5301
(dp5302
g1782
(i__main__
DelphiIdentAccess
p5303
(dp5304
g14
S'isLastSegment'
p5305
sg16
(lp5306
sbsbsg744
(idelphi
DelphiCompoundStatement
p5307
(dp5308
g712
(lp5309
(i__main__
DelphiAssignStatement
p5310
(dp5311
g716
(idelphi
DelphiNestedExpressionListAccess
p5312
(dp5313
g16
(lp5314
sg772
(lp5315
(idelphi
DelphiAddOp
p5316
(dp5317
g828
S'-'
sg829
(idelphi
DelphiNestedExpressionListAccess
p5318
(dp5319
g16
(lp5320
sg772
(lp5321
(idelphi
DelphiMulOp
p5322
(dp5323
g871
(idelphi
DelphiNestedExpressionListAccess
p5324
(dp5325
g16
(lp5326
sg772
(lp5327
(idelphi
DelphiAddOp
p5328
(dp5329
g828
S'-'
sg829
(idelphi
DelphiIntegerValue
p5330
(dp5331
g40
S'1'
sbsg832
(i__main__
DelphiIdentAccess
p5332
(dp5333
g14
S'lineDivisions'
p5334
sg16
(lp5335
sbsbasbsg876
S'*'
sg877
(i__main__
DelphiIdentAccess
p5336
(dp5337
g14
S'turnPortionZ'
p5338
sg16
(lp5339
sbsbasbsg832
(i__main__
DelphiIdentAccess
p5340
(dp5341
g14
S'realAngleZ'
p5342
sg16
(lp5343
sbsbasbsg725
(i__main__
DelphiIdentAccess
p5344
(dp5345
g14
S'segmentTurnZ'
p5346
sg16
(lp5347
sbsba(i__main__
DelphiAssignStatement
p5348
(dp5349
g716
(idelphi
DelphiNestedExpressionListAccess
p5350
(dp5351
g16
(lp5352
sg772
(lp5353
(idelphi
DelphiAddOp
p5354
(dp5355
g828
S'-'
sg829
(idelphi
DelphiNestedExpressionListAccess
p5356
(dp5357
g16
(lp5358
sg772
(lp5359
(idelphi
DelphiMulOp
p5360
(dp5361
g871
(idelphi
DelphiNestedExpressionListAccess
p5362
(dp5363
g16
(lp5364
sg772
(lp5365
(idelphi
DelphiAddOp
p5366
(dp5367
g828
S'-'
sg829
(idelphi
DelphiIntegerValue
p5368
(dp5369
g40
S'1'
sbsg832
(i__main__
DelphiIdentAccess
p5370
(dp5371
g14
S'lineDivisions'
p5372
sg16
(lp5373
sbsbasbsg876
S'*'
sg877
(i__main__
DelphiIdentAccess
p5374
(dp5375
g14
S'turnPortionY'
p5376
sg16
(lp5377
sbsbasbsg832
(i__main__
DelphiIdentAccess
p5378
(dp5379
g14
S'realAngleY'
p5380
sg16
(lp5381
sbsbasbsg725
(i__main__
DelphiIdentAccess
p5382
(dp5383
g14
S'segmentTurnY'
p5384
sg16
(lp5385
sbsba(i__main__
DelphiAssignStatement
p5386
(dp5387
g716
(idelphi
DelphiNestedExpressionListAccess
p5388
(dp5389
g16
(lp5390
sg772
(lp5391
(idelphi
DelphiAddOp
p5392
(dp5393
g828
S'-'
sg829
(idelphi
DelphiNestedExpressionListAccess
p5394
(dp5395
g16
(lp5396
sg772
(lp5397
(idelphi
DelphiMulOp
p5398
(dp5399
g871
(idelphi
DelphiNestedExpressionListAccess
p5400
(dp5401
g16
(lp5402
sg772
(lp5403
(idelphi
DelphiAddOp
p5404
(dp5405
g828
S'-'
sg829
(idelphi
DelphiIntegerValue
p5406
(dp5407
g40
S'1'
sbsg832
(i__main__
DelphiIdentAccess
p5408
(dp5409
g14
S'lineDivisions'
p5410
sg16
(lp5411
sbsbasbsg876
S'*'
sg877
(i__main__
DelphiIdentAccess
p5412
(dp5413
g14
S'drawPortion'
p5414
sg16
(lp5415
sbsbasbsg832
(i__main__
DelphiIdentAccess
p5416
(dp5417
g14
S'realLength'
p5418
sg16
(lp5419
sbsbasbsg725
(i__main__
DelphiIdentAccess
p5420
(dp5421
g14
S'segmentLength'
p5422
sg16
(lp5423
sbsbasbsg745
(idelphi
DelphiCompoundStatement
p5424
(dp5425
g712
(lp5426
(i__main__
DelphiAssignStatement
p5427
(dp5428
g716
(i__main__
DelphiIdentAccess
p5429
(dp5430
g14
S'turnPortionZ'
p5431
sg16
(lp5432
sbsg725
(i__main__
DelphiIdentAccess
p5433
(dp5434
g14
S'segmentTurnZ'
p5435
sg16
(lp5436
sbsg570
(lp5437
S' because of rounding, last segment uses leftover, not equal portion\r'
p5438
asba(i__main__
DelphiAssignStatement
p5439
(dp5440
g716
(i__main__
DelphiIdentAccess
p5441
(dp5442
g14
S'turnPortionY'
p5443
sg16
(lp5444
sbsg725
(i__main__
DelphiIdentAccess
p5445
(dp5446
g14
S'segmentTurnY'
p5447
sg16
(lp5448
sbsba(i__main__
DelphiAssignStatement
p5449
(dp5450
g716
(i__main__
DelphiIdentAccess
p5451
(dp5452
g14
S'drawPortion'
p5453
sg16
(lp5454
sbsg725
(i__main__
DelphiIdentAccess
p5455
(dp5456
g14
S'segmentLength'
p5457
sg16
(lp5458
sbsbasbsba(idelphi
DelphiIfStatement
p5459
(dp5460
g732
(idelphi
DelphiMulOp
p5461
(dp5462
g871
(idelphi
DelphiNestedExpressionListAccess
p5463
(dp5464
g16
(lp5465
sg772
(lp5466
(idelphi
DelphiRelOp
p5467
(dp5468
g735
(i__main__
DelphiIdentAccess
p5469
(dp5470
g14
S'lineDivisions'
p5471
sg16
(lp5472
sbsg740
(idelphi
DelphiIntegerValue
p5473
(dp5474
g40
S'1'
sbsg743
S'>'
sbasbsg876
g1868
sg877
(idelphi
DelphiNestedExpressionListAccess
p5475
(dp5476
g16
(lp5477
sg772
(lp5478
(idelphi
DelphiRelOp
p5479
(dp5480
g735
(i__main__
DelphiIdentAccess
p5481
(dp5482
g14
S'taperIndex'
p5483
sg16
(lp5484
sbsg740
(idelphi
DelphiIntegerValue
p5485
(dp5486
g40
S'0'
sbsg743
S'>'
sbasbsbsg744
Nsg745
(idelphi
DelphiCompoundStatement
p5487
(dp5488
g712
(lp5489
(i__main__
DelphiAssignStatement
p5490
(dp5491
g716
(idelphi
DelphiAddOp
p5492
(dp5493
g828
S'-'
sg829
(idelphi
DelphiMulOp
p5494
(dp5495
g871
(idelphi
DelphiNestedExpressionListAccess
p5496
(dp5497
g16
(lp5498
sg772
(lp5499
(idelphi
DelphiAddOp
p5500
(dp5501
g828
S'-'
sg829
(i__main__
DelphiIdentAccess
p5502
(dp5503
g14
S'endWidth'
p5504
sg16
(lp5505
sbsg832
(i__main__
DelphiIdentAccess
p5506
(dp5507
g14
S'startWidth'
p5508
sg16
(lp5509
sbsbasbsg876
S'*'
sg877
(idelphi
DelphiNestedExpressionListAccess
p5510
(dp5511
g16
(lp5512
sg772
(lp5513
(idelphi
DelphiMulOp
p5514
(dp5515
g871
(idelphi
DelphiNestedExpressionListAccess
p5516
(dp5517
g16
(lp5518
sg772
(lp5519
(idelphi
DelphiAddOp
p5520
(dp5521
g828
S'-'
sg829
(idelphi
DelphiIntegerValue
p5522
(dp5523
g40
S'1'
sbsg832
(i__main__
DelphiIdentAccess
p5524
(dp5525
g14
S'lineDivisions'
p5526
sg16
(lp5527
sbsbasbsg876
S'/'
sg877
(i__main__
DelphiIdentAccess
p5528
(dp5529
g14
S'i'
sg16
(lp5530
sbsbasbsbsg832
(i__main__
DelphiIdentAccess
p5531
(dp5532
g14
S'startWidth'
p5533
sg16
(lp5534
sbsbsg725
(i__main__
DelphiIdentAccess
p5535
(dp5536
g14
S'startPortionWidth'
p5537
sg16
(lp5538
sbsg570
(lp5539
S' figure tapering for section\r'
p5540
aS' lineDivisions part added in v1.6b3\r'
p5541
asba(idelphi
DelphiIfStatement
p5542
(dp5543
g732
(idelphi
DelphiNot
p5544
(dp5545
g1782
(i__main__
DelphiIdentAccess
p5546
(dp5547
g14
S'isLastSegment'
p5548
sg16
(lp5549
sbsbsg744
(i__main__
DelphiAssignStatement
p5550
(dp5551
g716
(i__main__
DelphiIdentAccess
p5552
(dp5553
g14
S'endWidth'
p5554
sg16
(lp5555
sbsg725
(i__main__
DelphiIdentAccess
p5556
(dp5557
g14
S'endPortionWidth'
p5558
sg16
(lp5559
sbsbsg745
(i__main__
DelphiAssignStatement
p5560
(dp5561
g716
(idelphi
DelphiAddOp
p5562
(dp5563
g828
S'-'
sg829
(idelphi
DelphiMulOp
p5564
(dp5565
g871
(idelphi
DelphiNestedExpressionListAccess
p5566
(dp5567
g16
(lp5568
sg772
(lp5569
(idelphi
DelphiAddOp
p5570
(dp5571
g828
S'-'
sg829
(i__main__
DelphiIdentAccess
p5572
(dp5573
g14
S'endWidth'
p5574
sg16
(lp5575
sbsg832
(i__main__
DelphiIdentAccess
p5576
(dp5577
g14
S'startWidth'
p5578
sg16
(lp5579
sbsbasbsg876
S'*'
sg877
(idelphi
DelphiNestedExpressionListAccess
p5580
(dp5581
g16
(lp5582
sg772
(lp5583
(idelphi
DelphiMulOp
p5584
(dp5585
g871
(idelphi
DelphiNestedExpressionListAccess
p5586
(dp5587
g16
(lp5588
sg772
(lp5589
(idelphi
DelphiAddOp
p5590
(dp5591
g828
S'-'
sg829
(idelphi
DelphiIntegerValue
p5592
(dp5593
g40
S'1'
sbsg832
(i__main__
DelphiIdentAccess
p5594
(dp5595
g14
S'lineDivisions'
p5596
sg16
(lp5597
sbsbasbsg876
S'/'
sg877
(idelphi
DelphiNestedExpressionListAccess
p5598
(dp5599
g16
(lp5600
sg772
(lp5601
(idelphi
DelphiAddOp
p5602
(dp5603
g828
S'+'
sg829
(idelphi
DelphiIntegerValue
p5604
(dp5605
g40
S'1'
sbsg832
(i__main__
DelphiIdentAccess
p5606
(dp5607
g14
S'i'
sg16
(lp5608
sbsbasbsbasbsbsg832
(i__main__
DelphiIdentAccess
p5609
(dp5610
g14
S'startWidth'
p5611
sg16
(lp5612
sbsbsg725
(i__main__
DelphiIdentAccess
p5613
(dp5614
g14
S'endPortionWidth'
p5615
sg16
(lp5616
sbsbsbasbsba(i__main__
DelphiAssignStatement
p5617
(dp5618
g716
Nsg725
(i__main__
DelphiIdentAccess
p5619
(dp5620
g14
S'turtle'
p5621
sg16
(lp5622
(idelphi
DelphiFieldEndAccess
p5623
(dp5624
g723
S'setLineWidth'
p5625
sba(idelphi
DelphiFunctionEndAccess
p5626
(dp5627
g772
(lp5628
(i__main__
DelphiIdentAccess
p5629
(dp5630
g14
S'startPortionWidth'
p5631
sg16
(lp5632
sbasbasbsg570
(lp5633
S' set width, rotate, draw line\r'
p5634
asba(i__main__
DelphiAssignStatement
p5635
(dp5636
g716
Nsg725
(i__main__
DelphiIdentAccess
p5637
(dp5638
g14
S'turtle'
p5639
sg16
(lp5640
(idelphi
DelphiFieldEndAccess
p5641
(dp5642
g723
S'RotateY'
p5643
sba(idelphi
DelphiFunctionEndAccess
p5644
(dp5645
g772
(lp5646
(i__main__
DelphiIdentAccess
p5647
(dp5648
g14
S'segmentTurnY'
p5649
sg16
(lp5650
sbasbasbsba(i__main__
DelphiAssignStatement
p5651
(dp5652
g716
Nsg725
(i__main__
DelphiIdentAccess
p5653
(dp5654
g14
S'turtle'
p5655
sg16
(lp5656
(idelphi
DelphiFieldEndAccess
p5657
(dp5658
g723
S'RotateZ'
p5659
sba(idelphi
DelphiFunctionEndAccess
p5660
(dp5661
g772
(lp5662
(i__main__
DelphiIdentAccess
p5663
(dp5664
g14
S'segmentTurnZ'
p5665
sg16
(lp5666
sbasbasbsba(idelphi
DelphiIfStatement
p5667
(dp5668
g732
(i__main__
DelphiIdentAccess
p5669
(dp5670
g14
S'turtle'
p5671
sg16
(lp5672
(idelphi
DelphiFieldEndAccess
p5673
(dp5674
g723
S'exportingToFile'
p5675
sbasbsg744
(idelphi
DelphiCompoundStatement
p5676
(dp5677
g712
(lp5678
(i__main__
DelphiAssignStatement
p5679
(dp5680
g716
(i__main__
DelphiIdentAccess
p5681
(dp5682
g14
S'turtle'
p5683
sg16
(lp5684
(idelphi
DelphiFieldEndAccess
p5685
(dp5686
g723
S'drawInMillimeters'
p5687
sba(idelphi
DelphiFunctionEndAccess
p5688
(dp5689
g772
(lp5690
(i__main__
DelphiIdentAccess
p5691
(dp5692
g14
S'segmentLength'
p5693
sg16
(lp5694
sba(i__main__
DelphiIdentAccess
p5695
(dp5696
g14
S'self'
p5697
sg16
(lp5698
(idelphi
DelphiFieldEndAccess
p5699
(dp5700
g723
S'partID'
p5701
sbasbasbasbsg725
(i__main__
DelphiIdentAccess
p5702
(dp5703
g14
S'triangleMade'
p5704
sg16
(lp5705
sbsba(idelphi
DelphiIfStatement
p5706
(dp5707
g732
(idelphi
DelphiMulOp
p5708
(dp5709
g871
(idelphi
DelphiNestedExpressionListAccess
p5710
(dp5711
g16
(lp5712
sg772
(lp5713
(idelphi
DelphiRelOp
p5714
(dp5715
g735
(i__main__
DelphiIdentAccess
p5716
(dp5717
g14
S'triangleMade'
p5718
sg16
(lp5719
sbsg740
(idelphi
DelphiNilValue
p5720
(dp5721
bsg743
g1820
sbasbsg876
g1868
sg877
(idelphi
DelphiNestedExpressionListAccess
p5722
(dp5723
g16
(lp5724
sg772
(lp5725
(i__main__
DelphiIdentAccess
p5726
(dp5727
g14
S'turtle'
p5728
sg16
(lp5729
(idelphi
DelphiFieldEndAccess
p5730
(dp5731
g723
S'drawOptions'
p5732
sba(idelphi
DelphiFieldEndAccess
p5733
(dp5734
g723
S'sortTdosAsOneItem'
p5735
sbasbasbsbsg744
Nsg745
(i__main__
DelphiAssignStatement
p5736
(dp5737
g716
(i__main__
DelphiIdentAccess
p5738
(dp5739
g14
S'self'
p5740
sg16
(lp5741
(idelphi
DelphiFieldEndAccess
p5742
(dp5743
g723
S'tdoToSortLinesWith'
p5744
sbasbsg725
(i__main__
DelphiIdentAccess
p5745
(dp5746
g14
S'triangleMade'
p5747
sg16
(lp5748
(idelphi
DelphiFieldEndAccess
p5749
(dp5750
g723
S'tdo'
p5751
sbasbsbsbasbsg745
(i__main__
DelphiAssignStatement
p5752
(dp5753
g716
Nsg725
(i__main__
DelphiIdentAccess
p5754
(dp5755
g14
S'self'
p5756
sg16
(lp5757
(idelphi
DelphiFieldEndAccess
p5758
(dp5759
g723
S'write3DExportLine'
p5760
sba(idelphi
DelphiFunctionEndAccess
p5761
(dp5762
g772
(lp5763
(i__main__
DelphiIdentAccess
p5764
(dp5765
g14
S'self'
p5766
sg16
(lp5767
(idelphi
DelphiFieldEndAccess
p5768
(dp5769
g723
S'partID'
p5770
sbasba(i__main__
DelphiIdentAccess
p5771
(dp5772
g14
S'segmentLength'
p5773
sg16
(lp5774
sba(i__main__
DelphiIdentAccess
p5775
(dp5776
g14
S'startPortionWidth'
p5777
sg16
(lp5778
sba(i__main__
DelphiIdentAccess
p5779
(dp5780
g14
S'endPortionWidth'
p5781
sg16
(lp5782
sba(i__main__
DelphiIdentAccess
p5783
(dp5784
g14
S'i'
sg16
(lp5785
sbasbasbsbsbasbsba(i__main__
DelphiAssignStatement
p5786
(dp5787
g716
Nsg725
(i__main__
DelphiIdentAccess
p5788
(dp5789
g14
S'turtle'
p5790
sg16
(lp5791
(idelphi
DelphiFieldEndAccess
p5792
(dp5793
g723
S'ifExporting_endStemSegment'
p5794
sbasbsbasbsg1168
(lp5795
(i__main__
DelphiVarSection
p5796
(dp5797
g64
I0
sg1172
(lp5798
(idelphi
DelphiVarDecl
p5799
(dp5800
g11
Nsg1176
(lp5801
S'turtle'
p5802
asg19
(i__main__
DelphiNamedType
p5803
(dp5804
g22
S'KfTurtle'
p5805
sg157
g1
sg158
Nsbsba(idelphi
DelphiVarDecl
p5806
(dp5807
g11
Nsg1176
(lp5808
S'turnPortionZ'
p5809
aS'turnPortionY'
p5810
aS'drawPortion'
p5811
aS'segmentLength'
p5812
aS'segmentTurnZ'
p5813
aS'segmentTurnY'
p5814
asg19
(i__main__
DelphiPrimitiveType
p5815
(dp5816
g22
g125
sbsba(idelphi
DelphiVarDecl
p5817
(dp5818
g11
Nsg1176
(lp5819
S'realAngleX'
p5820
aS'realAngleY'
p5821
aS'realAngleZ'
p5822
asg19
(i__main__
DelphiPrimitiveType
p5823
(dp5824
g22
g125
sbsba(idelphi
DelphiVarDecl
p5825
(dp5826
g11
Nsg1176
(lp5827
S'lineDivisions'
p5828
aS'i'
asg19
(i__main__
DelphiPrimitiveType
p5829
(dp5830
g22
g115
sbsba(idelphi
DelphiVarDecl
p5831
(dp5832
g11
Nsg1176
(lp5833
S'triangleMade'
p5834
asg19
(i__main__
DelphiNamedType
p5835
(dp5836
g22
S'KfTriangle'
p5837
sg157
g1
sg158
Nsbsba(idelphi
DelphiVarDecl
p5838
(dp5839
g11
Nsg1176
(lp5840
S'startWidth'
p5841
aS'endWidth'
p5842
aS'startPortionWidth'
p5843
aS'endPortionWidth'
p5844
asg19
(i__main__
DelphiPrimitiveType
p5845
(dp5846
g22
g125
sbsba(idelphi
DelphiVarDecl
p5847
(dp5848
g11
Nsg1176
(lp5849
S'isLastSegment'
p5850
asg19
(i__main__
DelphiPrimitiveType
p5851
(dp5852
g22
g214
sbsba(idelphi
DelphiVarDecl
p5853
(dp5854
g11
Nsg1176
(lp5855
S'realLength'
p5856
aS'realWidth'
p5857
asg19
(i__main__
DelphiPrimitiveType
p5858
(dp5859
g22
g125
sbsbasbasbsbsS'rotateangleconsideringamendment'
p5860
(i__main__
DelphiMethodImplementation
p5861
(dp5862
g672
g482
sg97
g484
sg105
(lp5863
(i__main__
DelphiFormalParameter
p5864
(dp5865
g109
Nsg110
(lp5866
S'rotateWhat'
p5867
asg19
(i__main__
DelphiPrimitiveType
p5868
(dp5869
g22
g115
sbsg116
Nsba(i__main__
DelphiFormalParameter
p5870
(dp5871
g109
Nsg110
(lp5872
S'useAmendment'
p5873
asg19
(i__main__
DelphiPrimitiveType
p5874
(dp5875
g22
g214
sbsg116
Nsba(i__main__
DelphiFormalParameter
p5876
(dp5877
g109
Nsg110
(lp5878
S'angle'
p5879
asg19
(i__main__
DelphiPrimitiveType
p5880
(dp5881
g22
g125
sbsg116
Nsbasg694
(lp5882
sg696
(lp5883
sg698
(lp5884
g700
ag5867
ag5873
ag5879
asg701
(dp5885
g5879
g5880
sg5867
g5868
sg5873
g5874
ssg132
S'PdPlantPart'
p5886
sg133
(i__main__
DelphiPrimitiveType
p5887
(dp5888
g22
g125
sbsg704
(lp5889
sg134
I0
sg135
g144
sg706
(i__main__
DelphiBlock
p5890
(dp5891
g709
(idelphi
DelphiCompoundStatement
p5892
(dp5893
g712
(lp5894
(i__main__
DelphiAssignStatement
p5895
(dp5896
g716
(i__main__
DelphiIdentAccess
p5897
(dp5898
g14
S'angle'
p5899
sg16
(lp5900
sbsg725
(i__main__
DelphiIdentAccess
p5901
(dp5902
g14
S'result'
p5903
sg16
(lp5904
sbsba(idelphi
DelphiIfStatement
p5905
(dp5906
g732
(idelphi
DelphiMulOp
p5907
(dp5908
g871
(idelphi
DelphiNestedExpressionListAccess
p5909
(dp5910
g16
(lp5911
sg772
(lp5912
(i__main__
DelphiIdentAccess
p5913
(dp5914
g14
S'domain'
p5915
sg16
(lp5916
(idelphi
DelphiFieldEndAccess
p5917
(dp5918
g723
S'options'
p5919
sba(idelphi
DelphiFieldEndAccess
p5920
(dp5921
g723
S'showPosingAtAll'
p5922
sbasbasbsg876
g1868
sg877
(idelphi
DelphiMulOp
p5923
(dp5924
g871
(idelphi
DelphiNestedExpressionListAccess
p5925
(dp5926
g16
(lp5927
sg772
(lp5928
(i__main__
DelphiIdentAccess
p5929
(dp5930
g14
S'self'
p5931
sg16
(lp5932
(idelphi
DelphiFieldEndAccess
p5933
(dp5934
g723
S'amendment'
p5935
sba(idelphi
DelphiFieldEndAccess
p5936
(dp5937
g723
S'addRotations'
p5938
sbasbasbsg876
g1868
sg877
(idelphi
DelphiMulOp
p5939
(dp5940
g871
(idelphi
DelphiNestedExpressionListAccess
p5941
(dp5942
g16
(lp5943
sg772
(lp5944
(idelphi
DelphiRelOp
p5945
(dp5946
g735
(i__main__
DelphiIdentAccess
p5947
(dp5948
g14
S'self'
p5949
sg16
(lp5950
(idelphi
DelphiFieldEndAccess
p5951
(dp5952
g723
S'amendment'
p5953
sbasbsg740
(idelphi
DelphiNilValue
p5954
(dp5955
bsg743
g1820
sbasbsg876
g1868
sg877
(idelphi
DelphiNestedExpressionListAccess
p5956
(dp5957
g16
(lp5958
sg772
(lp5959
(i__main__
DelphiIdentAccess
p5960
(dp5961
g14
S'useAmendment'
p5962
sg16
(lp5963
sbasbsbsbsbsg744
Nsg745
(idelphi
DelphiCaseStatement
p5964
(dp5965
g3445
Nsg732
(i__main__
DelphiIdentAccess
p5966
(dp5967
g14
S'rotateWhat'
p5968
sg16
(lp5969
sbsg3468
(lp5970
(idelphi
DelphiCaseSelector
p5971
(dp5972
g841
(i__main__
DelphiAssignStatement
p5973
(dp5974
g716
(idelphi
DelphiAddOp
p5975
(dp5976
g828
S'+'
sg829
(idelphi
DelphiMulOp
p5977
(dp5978
g871
(idelphi
DelphiIntegerValue
p5979
(dp5980
g40
S'360'
p5981
sbsg876
S'/'
sg877
(idelphi
DelphiMulOp
p5982
(dp5983
g871
(idelphi
DelphiIntegerValue
p5984
(dp5985
g40
S'256'
p5986
sbsg876
S'*'
sg877
(i__main__
DelphiIdentAccess
p5987
(dp5988
g14
S'self'
p5989
sg16
(lp5990
(idelphi
DelphiFieldEndAccess
p5991
(dp5992
g723
S'amendment'
p5993
sba(idelphi
DelphiFieldEndAccess
p5994
(dp5995
g723
S'xRotation'
p5996
sbasbsbsbsg832
(i__main__
DelphiIdentAccess
p5997
(dp5998
g14
S'angle'
p5999
sg16
(lp6000
sbsbsg725
(i__main__
DelphiIdentAccess
p6001
(dp6002
g14
S'result'
p6003
sg16
(lp6004
sbsbsg3472
(lp6005
(i__main__
DelphiIdentAccess
p6006
(dp6007
g14
S'kRotateX'
p6008
sg16
(lp6009
sbasba(idelphi
DelphiCaseSelector
p6010
(dp6011
g841
(i__main__
DelphiAssignStatement
p6012
(dp6013
g716
(idelphi
DelphiAddOp
p6014
(dp6015
g828
S'+'
sg829
(idelphi
DelphiMulOp
p6016
(dp6017
g871
(idelphi
DelphiIntegerValue
p6018
(dp6019
g40
S'360'
p6020
sbsg876
S'/'
sg877
(idelphi
DelphiMulOp
p6021
(dp6022
g871
(idelphi
DelphiIntegerValue
p6023
(dp6024
g40
S'256'
p6025
sbsg876
S'*'
sg877
(i__main__
DelphiIdentAccess
p6026
(dp6027
g14
S'self'
p6028
sg16
(lp6029
(idelphi
DelphiFieldEndAccess
p6030
(dp6031
g723
S'amendment'
p6032
sba(idelphi
DelphiFieldEndAccess
p6033
(dp6034
g723
S'yRotation'
p6035
sbasbsbsbsg832
(i__main__
DelphiIdentAccess
p6036
(dp6037
g14
S'angle'
p6038
sg16
(lp6039
sbsbsg725
(i__main__
DelphiIdentAccess
p6040
(dp6041
g14
S'result'
p6042
sg16
(lp6043
sbsbsg3472
(lp6044
(i__main__
DelphiIdentAccess
p6045
(dp6046
g14
S'kRotateY'
p6047
sg16
(lp6048
sbasba(idelphi
DelphiCaseSelector
p6049
(dp6050
g841
(i__main__
DelphiAssignStatement
p6051
(dp6052
g716
(idelphi
DelphiAddOp
p6053
(dp6054
g828
S'+'
sg829
(idelphi
DelphiMulOp
p6055
(dp6056
g871
(idelphi
DelphiIntegerValue
p6057
(dp6058
g40
S'360'
p6059
sbsg876
S'/'
sg877
(idelphi
DelphiMulOp
p6060
(dp6061
g871
(idelphi
DelphiIntegerValue
p6062
(dp6063
g40
S'256'
p6064
sbsg876
S'*'
sg877
(i__main__
DelphiIdentAccess
p6065
(dp6066
g14
S'self'
p6067
sg16
(lp6068
(idelphi
DelphiFieldEndAccess
p6069
(dp6070
g723
S'amendment'
p6071
sba(idelphi
DelphiFieldEndAccess
p6072
(dp6073
g723
S'zRotation'
p6074
sbasbsbsbsg832
(i__main__
DelphiIdentAccess
p6075
(dp6076
g14
S'angle'
p6077
sg16
(lp6078
sbsbsg725
(i__main__
DelphiIdentAccess
p6079
(dp6080
g14
S'result'
p6081
sg16
(lp6082
sbsbsg3472
(lp6083
(i__main__
DelphiIdentAccess
p6084
(dp6085
g14
S'kRotateZ'
p6086
sg16
(lp6087
sbasbasbsbasbsg1168
(lp6088
sbsg570
(lp6089
S' posed color part > if put this back, put it AFTER ghostingColor and BEFORE nonHiddenPosedColor\r'
p6090
aS'\r'
aS'    else if ((amendment <> nil) and (amendment.changeColors))\r'
p6091
aS'        or ((parentAmendment <> nil) and (parentAmendment.changeColors) and (parentAmendment.propagateColors)) then\r'
p6092
aS'      begin\r'
p6093
aS'      // directly changed colors take precedence over highlighting\r'
p6094
aS'      if amendment <> nil then amendmentToUse := amendment else amendmentToUse := parentAmendment;\r'
p6095
aS'      color := amendmentToUse.faceColor;\r'
p6096
aS'      backFaceColor := amendmentToUse.backfaceColor;\r'
p6097
aS'      lineColor := amendmentToUse.lineColor;\r'
p6098
aS'      end\r'
p6099
aS'      '
p6100
asbsS'realdxfindexforbasedxfpart'
p6101
(i__main__
DelphiMethodImplementation
p6102
(dp6103
g672
g507
sg97
g509
sg105
(lp6104
(i__main__
DelphiFormalParameter
p6105
(dp6106
g109
Nsg110
(lp6107
g337
asg19
(i__main__
DelphiPrimitiveType
p6108
(dp6109
g22
g115
sbsg116
Nsbasg694
(lp6110
sg696
(lp6111
sg698
(lp6112
g700
ag337
asg701
(dp6113
g337
g6108
ssg132
S'PdPlantPart'
p6114
sg133
(i__main__
DelphiPrimitiveType
p6115
(dp6116
g22
g115
sbsg704
(lp6117
sg134
I0
sg135
g144
sg706
(i__main__
DelphiBlock
p6118
(dp6119
g709
(idelphi
DelphiCompoundStatement
p6120
(dp6121
g712
(lp6122
(i__main__
DelphiAssignStatement
p6123
(dp6124
g716
(i__main__
DelphiIdentAccess
p6125
(dp6126
g14
g337
sg16
(lp6127
sbsg725
(i__main__
DelphiIdentAccess
p6128
(dp6129
g14
S'result'
p6130
sg16
(lp6131
sbsba(idelphi
DelphiCaseStatement
p6132
(dp6133
g3445
Nsg732
(i__main__
DelphiIdentAccess
p6134
(dp6135
g14
g337
sg16
(lp6136
sbsg3468
(lp6137
(idelphi
DelphiCaseSelector
p6138
(dp6139
g841
(idelphi
DelphiIfStatement
p6140
(dp6141
g732
(i__main__
DelphiIdentAccess
p6142
(dp6143
g14
S'self'
p6144
sg16
(lp6145
(idelphi
DelphiFieldEndAccess
p6146
(dp6147
g723
S'isSeedlingLeaf'
p6148
sbasbsg744
Nsg745
(i__main__
DelphiAssignStatement
p6149
(dp6150
g716
(i__main__
DelphiIdentAccess
p6151
(dp6152
g14
S'kExportPartSeedlingLeaf'
p6153
sg16
(lp6154
sbsg725
(i__main__
DelphiIdentAccess
p6155
(dp6156
g14
S'result'
p6157
sg16
(lp6158
sbsbsbsg3472
(lp6159
(i__main__
DelphiIdentAccess
p6160
(dp6161
g14
S'kExportPartLeaf'
p6162
sg16
(lp6163
sbasba(idelphi
DelphiCaseSelector
p6164
(dp6165
g841
(idelphi
DelphiIfStatement
p6166
(dp6167
g732
(i__main__
DelphiIdentAccess
p6168
(dp6169
g14
S'self'
p6170
sg16
(lp6171
(idelphi
DelphiFieldEndAccess
p6172
(dp6173
g723
S'isSeedlingLeaf'
p6174
sbasbsg744
Nsg745
(i__main__
DelphiAssignStatement
p6175
(dp6176
g716
(i__main__
DelphiIdentAccess
p6177
(dp6178
g14
S'kExportPartFirstPetiole'
p6179
sg16
(lp6180
sbsg725
(i__main__
DelphiIdentAccess
p6181
(dp6182
g14
S'result'
p6183
sg16
(lp6184
sbsbsbsg3472
(lp6185
(i__main__
DelphiIdentAccess
p6186
(dp6187
g14
S'kExportPartPetiole'
p6188
sg16
(lp6189
sbasba(idelphi
DelphiCaseSelector
p6190
(dp6191
g841
(idelphi
DelphiIfStatement
p6192
(dp6193
g732
(idelphi
DelphiRelOp
p6194
(dp6195
g735
(i__main__
DelphiIdentAccess
p6196
(dp6197
g14
S'self'
p6198
sg16
(lp6199
(idelphi
DelphiFieldEndAccess
p6200
(dp6201
g723
S'gender'
p6202
sbasbsg740
(i__main__
DelphiIdentAccess
p6203
(dp6204
g14
S'kGenderMale'
p6205
sg16
(lp6206
sbsg743
S'='
sbsg744
Nsg745
(i__main__
DelphiAssignStatement
p6207
(dp6208
g716
(i__main__
DelphiIdentAccess
p6209
(dp6210
g14
S'kExportPartInflorescenceStalkMale'
p6211
sg16
(lp6212
sbsg725
(i__main__
DelphiIdentAccess
p6213
(dp6214
g14
S'result'
p6215
sg16
(lp6216
sbsbsbsg3472
(lp6217
(i__main__
DelphiIdentAccess
p6218
(dp6219
g14
S'kExportPartInflorescenceStalkFemale'
p6220
sg16
(lp6221
sbasba(idelphi
DelphiCaseSelector
p6222
(dp6223
g841
(idelphi
DelphiIfStatement
p6224
(dp6225
g732
(idelphi
DelphiRelOp
p6226
(dp6227
g735
(i__main__
DelphiIdentAccess
p6228
(dp6229
g14
S'self'
p6230
sg16
(lp6231
(idelphi
DelphiFieldEndAccess
p6232
(dp6233
g723
S'gender'
p6234
sbasbsg740
(i__main__
DelphiIdentAccess
p6235
(dp6236
g14
S'kGenderMale'
p6237
sg16
(lp6238
sbsg743
S'='
sbsg744
Nsg745
(i__main__
DelphiAssignStatement
p6239
(dp6240
g716
(i__main__
DelphiIdentAccess
p6241
(dp6242
g14
S'kExportPartInflorescenceInternodeMale'
p6243
sg16
(lp6244
sbsg725
(i__main__
DelphiIdentAccess
p6245
(dp6246
g14
S'result'
p6247
sg16
(lp6248
sbsbsbsg3472
(lp6249
(i__main__
DelphiIdentAccess
p6250
(dp6251
g14
S'kExportPartInflorescenceInternodeFemale'
p6252
sg16
(lp6253
sbasba(idelphi
DelphiCaseSelector
p6254
(dp6255
g841
(idelphi
DelphiIfStatement
p6256
(dp6257
g732
(idelphi
DelphiRelOp
p6258
(dp6259
g735
(i__main__
DelphiIdentAccess
p6260
(dp6261
g14
S'self'
p6262
sg16
(lp6263
(idelphi
DelphiFieldEndAccess
p6264
(dp6265
g723
S'gender'
p6266
sbasbsg740
(i__main__
DelphiIdentAccess
p6267
(dp6268
g14
S'kGenderMale'
p6269
sg16
(lp6270
sbsg743
S'='
sbsg744
Nsg745
(i__main__
DelphiAssignStatement
p6271
(dp6272
g716
(i__main__
DelphiIdentAccess
p6273
(dp6274
g14
S'kExportPartInflorescenceBractMale'
p6275
sg16
(lp6276
sbsg725
(i__main__
DelphiIdentAccess
p6277
(dp6278
g14
S'result'
p6279
sg16
(lp6280
sbsbsbsg3472
(lp6281
(i__main__
DelphiIdentAccess
p6282
(dp6283
g14
S'kExportPartInflorescenceBractFemale'
p6284
sg16
(lp6285
sbasba(idelphi
DelphiCaseSelector
p6286
(dp6287
g841
(idelphi
DelphiIfStatement
p6288
(dp6289
g732
(idelphi
DelphiRelOp
p6290
(dp6291
g735
(i__main__
DelphiIdentAccess
p6292
(dp6293
g14
S'self'
p6294
sg16
(lp6295
(idelphi
DelphiFieldEndAccess
p6296
(dp6297
g723
S'gender'
p6298
sbasbsg740
(i__main__
DelphiIdentAccess
p6299
(dp6300
g14
S'kGenderMale'
p6301
sg16
(lp6302
sbsg743
S'='
sbsg744
Nsg745
(i__main__
DelphiAssignStatement
p6303
(dp6304
g716
(i__main__
DelphiIdentAccess
p6305
(dp6306
g14
S'kExportPartPedicelMale'
p6307
sg16
(lp6308
sbsg725
(i__main__
DelphiIdentAccess
p6309
(dp6310
g14
S'result'
p6311
sg16
(lp6312
sbsbsbsg3472
(lp6313
(i__main__
DelphiIdentAccess
p6314
(dp6315
g14
S'kExportPartPedicelFemale'
p6316
sg16
(lp6317
sbasba(idelphi
DelphiCaseSelector
p6318
(dp6319
g841
(idelphi
DelphiIfStatement
p6320
(dp6321
g732
(idelphi
DelphiRelOp
p6322
(dp6323
g735
(i__main__
DelphiIdentAccess
p6324
(dp6325
g14
S'self'
p6326
sg16
(lp6327
(idelphi
DelphiFieldEndAccess
p6328
(dp6329
g723
S'gender'
p6330
sbasbsg740
(i__main__
DelphiIdentAccess
p6331
(dp6332
g14
S'kGenderMale'
p6333
sg16
(lp6334
sbsg743
S'='
sbsg744
Nsg745
(i__main__
DelphiAssignStatement
p6335
(dp6336
g716
(i__main__
DelphiIdentAccess
p6337
(dp6338
g14
S'kExportPartFlowerBudMale'
p6339
sg16
(lp6340
sbsg725
(i__main__
DelphiIdentAccess
p6341
(dp6342
g14
S'result'
p6343
sg16
(lp6344
sbsbsbsg3472
(lp6345
(i__main__
DelphiIdentAccess
p6346
(dp6347
g14
S'kExportPartFlowerBudFemale'
p6348
sg16
(lp6349
sbasba(idelphi
DelphiCaseSelector
p6350
(dp6351
g841
(idelphi
DelphiIfStatement
p6352
(dp6353
g732
(idelphi
DelphiRelOp
p6354
(dp6355
g735
(i__main__
DelphiIdentAccess
p6356
(dp6357
g14
S'self'
p6358
sg16
(lp6359
(idelphi
DelphiFieldEndAccess
p6360
(dp6361
g723
S'gender'
p6362
sbasbsg740
(i__main__
DelphiIdentAccess
p6363
(dp6364
g14
S'kGenderMale'
p6365
sg16
(lp6366
sbsg743
S'='
sbsg744
Nsg745
(i__main__
DelphiAssignStatement
p6367
(dp6368
g716
(i__main__
DelphiIdentAccess
p6369
(dp6370
g14
S'kExportPartFilamentMale'
p6371
sg16
(lp6372
sbsg725
(i__main__
DelphiIdentAccess
p6373
(dp6374
g14
S'result'
p6375
sg16
(lp6376
sbsbsbsg3472
(lp6377
(i__main__
DelphiIdentAccess
p6378
(dp6379
g14
S'kExportPartFilamentFemale'
p6380
sg16
(lp6381
sbasba(idelphi
DelphiCaseSelector
p6382
(dp6383
g841
(idelphi
DelphiIfStatement
p6384
(dp6385
g732
(idelphi
DelphiRelOp
p6386
(dp6387
g735
(i__main__
DelphiIdentAccess
p6388
(dp6389
g14
S'self'
p6390
sg16
(lp6391
(idelphi
DelphiFieldEndAccess
p6392
(dp6393
g723
S'gender'
p6394
sbasbsg740
(i__main__
DelphiIdentAccess
p6395
(dp6396
g14
S'kGenderMale'
p6397
sg16
(lp6398
sbsg743
S'='
sbsg744
Nsg745
(i__main__
DelphiAssignStatement
p6399
(dp6400
g716
(i__main__
DelphiIdentAccess
p6401
(dp6402
g14
S'kExportPartAntherMale'
p6403
sg16
(lp6404
sbsg725
(i__main__
DelphiIdentAccess
p6405
(dp6406
g14
S'result'
p6407
sg16
(lp6408
sbsbsbsg3472
(lp6409
(i__main__
DelphiIdentAccess
p6410
(dp6411
g14
S'kExportPartAntherFemale'
p6412
sg16
(lp6413
sbasba(idelphi
DelphiCaseSelector
p6414
(dp6415
g841
(idelphi
DelphiIfStatement
p6416
(dp6417
g732
(idelphi
DelphiRelOp
p6418
(dp6419
g735
(i__main__
DelphiIdentAccess
p6420
(dp6421
g14
S'self'
p6422
sg16
(lp6423
(idelphi
DelphiFieldEndAccess
p6424
(dp6425
g723
S'gender'
p6426
sbasbsg740
(i__main__
DelphiIdentAccess
p6427
(dp6428
g14
S'kGenderMale'
p6429
sg16
(lp6430
sbsg743
S'='
sbsg744
Nsg745
(i__main__
DelphiAssignStatement
p6431
(dp6432
g716
(i__main__
DelphiIdentAccess
p6433
(dp6434
g14
S'kExportPartFirstPetalsMale'
p6435
sg16
(lp6436
sbsg725
(i__main__
DelphiIdentAccess
p6437
(dp6438
g14
S'result'
p6439
sg16
(lp6440
sbsbsbsg3472
(lp6441
(i__main__
DelphiIdentAccess
p6442
(dp6443
g14
S'kExportPartFirstPetalsFemale'
p6444
sg16
(lp6445
sbasba(idelphi
DelphiCaseSelector
p6446
(dp6447
g841
(idelphi
DelphiIfStatement
p6448
(dp6449
g732
(idelphi
DelphiRelOp
p6450
(dp6451
g735
(i__main__
DelphiIdentAccess
p6452
(dp6453
g14
S'self'
p6454
sg16
(lp6455
(idelphi
DelphiFieldEndAccess
p6456
(dp6457
g723
S'gender'
p6458
sbasbsg740
(i__main__
DelphiIdentAccess
p6459
(dp6460
g14
S'kGenderMale'
p6461
sg16
(lp6462
sbsg743
S'='
sbsg744
Nsg745
(i__main__
DelphiAssignStatement
p6463
(dp6464
g716
(i__main__
DelphiIdentAccess
p6465
(dp6466
g14
S'kExportPartSepalsMale'
p6467
sg16
(lp6468
sbsg725
(i__main__
DelphiIdentAccess
p6469
(dp6470
g14
S'result'
p6471
sg16
(lp6472
sbsbsbsg3472
(lp6473
(i__main__
DelphiIdentAccess
p6474
(dp6475
g14
S'kExportPartSepalsFemale'
p6476
sg16
(lp6477
sbasbasbasbsg1168
(lp6478
sbsbsS'addtostatistics'
p6479
(i__main__
DelphiMethodImplementation
p6480
(dp6481
g672
g519
sg97
g521
sg105
(lp6482
(i__main__
DelphiFormalParameter
p6483
(dp6484
g109
Nsg110
(lp6485
S'statisticsProxy'
p6486
asg19
(i__main__
DelphiNamedType
p6487
(dp6488
g22
S'TObject'
p6489
sg157
g1
sg158
Nsbsg116
Nsba(i__main__
DelphiFormalParameter
p6490
(dp6491
g109
Nsg110
(lp6492
S'partType'
p6493
asg19
(i__main__
DelphiPrimitiveType
p6494
(dp6495
g22
g115
sbsg116
Nsbasg694
(lp6496
sg696
(lp6497
sg698
(lp6498
g700
ag6486
ag6493
asg701
(dp6499
g6486
g6487
sg6493
g6494
ssg132
S'PdPlantPart'
p6500
sg133
Nsg704
(lp6501
sg134
I0
sg135
g136
sg706
(i__main__
DelphiBlock
p6502
(dp6503
g709
(idelphi
DelphiCompoundStatement
p6504
(dp6505
g712
(lp6506
(i__main__
DelphiAssignStatement
p6507
(dp6508
g716
(i__main__
DelphiIdentAccess
p6509
(dp6510
g14
S'PdPlantStatistics'
p6511
sg16
(lp6512
(idelphi
DelphiFunctionEndAccess
p6513
(dp6514
g772
(lp6515
(i__main__
DelphiIdentAccess
p6516
(dp6517
g14
S'statisticsProxy'
p6518
sg16
(lp6519
sbasbasbsg725
(i__main__
DelphiIdentAccess
p6520
(dp6521
g14
S'statistics'
p6522
sg16
(lp6523
sbsba(idelphi
DelphiIfStatement
p6524
(dp6525
g732
(idelphi
DelphiRelOp
p6526
(dp6527
g735
(i__main__
DelphiIdentAccess
p6528
(dp6529
g14
S'statistics'
p6530
sg16
(lp6531
sbsg740
(idelphi
DelphiNilValue
p6532
(dp6533
bsg743
S'='
sbsg744
Nsg745
(i__main__
DelphiExitStatement
p6534
(dp6535
g748
g6480
sbsba(idelphi
DelphiIfStatement
p6536
(dp6537
g732
(i__main__
DelphiIdentAccess
p6538
(dp6539
g14
S'hasFallenOff'
p6540
sg16
(lp6541
sbsg744
Nsg745
(i__main__
DelphiExitStatement
p6542
(dp6543
g748
g6480
sbsba(idelphi
DelphiWithStatement
p6544
(dp6545
g841
(idelphi
DelphiCompoundStatement
p6546
(dp6547
g712
(lp6548
(i__main__
DelphiAssignStatement
p6549
(dp6550
g716
(idelphi
DelphiAddOp
p6551
(dp6552
g828
S'+'
sg829
(idelphi
DelphiIntegerValue
p6553
(dp6554
g40
S'1'
sbsg832
(i__main__
DelphiIdentAccess
p6555
(dp6556
g14
S'count'
p6557
sg16
(lp6558
(idelphi
DelphiArrayEndAccess
p6559
(dp6560
g772
(lp6561
(i__main__
DelphiIdentAccess
p6562
(dp6563
g14
S'partType'
p6564
sg16
(lp6565
sbasbasbsbsg725
(i__main__
DelphiIdentAccess
p6566
(dp6567
g14
S'count'
p6568
sg16
(lp6569
(idelphi
DelphiArrayEndAccess
p6570
(dp6571
g772
(lp6572
(i__main__
DelphiIdentAccess
p6573
(dp6574
g14
S'partType'
p6575
sg16
(lp6576
sbasbasbsba(i__main__
DelphiAssignStatement
p6577
(dp6578
g716
(idelphi
DelphiAddOp
p6579
(dp6580
g828
S'+'
sg829
(i__main__
DelphiIdentAccess
p6581
(dp6582
g14
S'self'
p6583
sg16
(lp6584
(idelphi
DelphiFieldEndAccess
p6585
(dp6586
g723
S'liveBiomass_pctMPB'
p6587
sbasbsg832
(i__main__
DelphiIdentAccess
p6588
(dp6589
g14
S'liveBiomass_pctMPB'
p6590
sg16
(lp6591
(idelphi
DelphiArrayEndAccess
p6592
(dp6593
g772
(lp6594
(i__main__
DelphiIdentAccess
p6595
(dp6596
g14
S'partType'
p6597
sg16
(lp6598
sbasbasbsbsg725
(i__main__
DelphiIdentAccess
p6599
(dp6600
g14
S'liveBiomass_pctMPB'
p6601
sg16
(lp6602
(idelphi
DelphiArrayEndAccess
p6603
(dp6604
g772
(lp6605
(i__main__
DelphiIdentAccess
p6606
(dp6607
g14
S'partType'
p6608
sg16
(lp6609
sbasbasbsba(i__main__
DelphiAssignStatement
p6610
(dp6611
g716
(idelphi
DelphiAddOp
p6612
(dp6613
g828
S'+'
sg829
(i__main__
DelphiIdentAccess
p6614
(dp6615
g14
S'self'
p6616
sg16
(lp6617
(idelphi
DelphiFieldEndAccess
p6618
(dp6619
g723
S'deadBiomass_pctMPB'
p6620
sbasbsg832
(i__main__
DelphiIdentAccess
p6621
(dp6622
g14
S'deadBiomass_pctMPB'
p6623
sg16
(lp6624
(idelphi
DelphiArrayEndAccess
p6625
(dp6626
g772
(lp6627
(i__main__
DelphiIdentAccess
p6628
(dp6629
g14
S'partType'
p6630
sg16
(lp6631
sbasbasbsbsg725
(i__main__
DelphiIdentAccess
p6632
(dp6633
g14
S'deadBiomass_pctMPB'
p6634
sg16
(lp6635
(idelphi
DelphiArrayEndAccess
p6636
(dp6637
g772
(lp6638
(i__main__
DelphiIdentAccess
p6639
(dp6640
g14
S'partType'
p6641
sg16
(lp6642
sbasbasbsbasbsS'variableReferenceList'
p6643
(lp6644
(i__main__
DelphiIdentAccess
p6645
(dp6646
g14
S'statistics'
p6647
sg16
(lp6648
sbasbasbsg1168
(lp6649
(i__main__
DelphiVarSection
p6650
(dp6651
g64
I0
sg1172
(lp6652
(idelphi
DelphiVarDecl
p6653
(dp6654
g11
Nsg1176
(lp6655
S'statistics'
p6656
asg19
(i__main__
DelphiNamedType
p6657
(dp6658
g22
S'PdPlantStatistics'
p6659
sg157
g1
sg158
NsbsbasbasbsbsS'applyamendmentrotations'
p6660
(i__main__
DelphiMethodImplementation
p6661
(dp6662
g672
g537
sg97
g539
sg105
(lp6663
sg694
(lp6664
sg696
(lp6665
sg698
(lp6666
g700
asg701
(dp6667
sg132
S'PdPlantPart'
p6668
sg133
Nsg704
(lp6669
sg134
I0
sg135
g136
sg706
(i__main__
DelphiBlock
p6670
(dp6671
g709
(idelphi
DelphiCompoundStatement
p6672
(dp6673
g712
(lp6674
(idelphi
DelphiIfStatement
p6675
(dp6676
g732
(idelphi
DelphiMulOp
p6677
(dp6678
g871
(idelphi
DelphiNestedExpressionListAccess
p6679
(dp6680
g16
(lp6681
sg772
(lp6682
(i__main__
DelphiIdentAccess
p6683
(dp6684
g14
S'domain'
p6685
sg16
(lp6686
(idelphi
DelphiFieldEndAccess
p6687
(dp6688
g723
S'options'
p6689
sba(idelphi
DelphiFieldEndAccess
p6690
(dp6691
g723
S'showPosingAtAll'
p6692
sbasbasbsg876
g1868
sg877
(idelphi
DelphiMulOp
p6693
(dp6694
g871
(idelphi
DelphiNestedExpressionListAccess
p6695
(dp6696
g16
(lp6697
sg772
(lp6698
(i__main__
DelphiIdentAccess
p6699
(dp6700
g14
S'amendment'
p6701
sg16
(lp6702
(idelphi
DelphiFieldEndAccess
p6703
(dp6704
g723
S'addRotations'
p6705
sbasbasbsg876
g1868
sg877
(idelphi
DelphiNestedExpressionListAccess
p6706
(dp6707
g16
(lp6708
sg772
(lp6709
(idelphi
DelphiRelOp
p6710
(dp6711
g735
(i__main__
DelphiIdentAccess
p6712
(dp6713
g14
S'amendment'
p6714
sg16
(lp6715
sbsg740
(idelphi
DelphiNilValue
p6716
(dp6717
bsg743
g1820
sbasbsbsbsg744
Nsg745
(idelphi
DelphiCompoundStatement
p6718
(dp6719
g712
(lp6720
(i__main__
DelphiAssignStatement
p6721
(dp6722
g716
Nsg725
(i__main__
DelphiIdentAccess
p6723
(dp6724
g14
S'plant'
p6725
sg16
(lp6726
(idelphi
DelphiFieldEndAccess
p6727
(dp6728
g723
S'turtle'
p6729
sba(idelphi
DelphiFieldEndAccess
p6730
(dp6731
g723
S'rotateX'
p6732
sba(idelphi
DelphiFunctionEndAccess
p6733
(dp6734
g772
(lp6735
(idelphi
DelphiMulOp
p6736
(dp6737
g871
(idelphi
DelphiIntegerValue
p6738
(dp6739
g40
S'360'
p6740
sbsg876
S'/'
sg877
(idelphi
DelphiMulOp
p6741
(dp6742
g871
(idelphi
DelphiIntegerValue
p6743
(dp6744
g40
S'256'
p6745
sbsg876
S'*'
sg877
(i__main__
DelphiIdentAccess
p6746
(dp6747
g14
S'amendment'
p6748
sg16
(lp6749
(idelphi
DelphiFieldEndAccess
p6750
(dp6751
g723
S'xRotation'
p6752
sbasbsbsbasbasbsba(i__main__
DelphiAssignStatement
p6753
(dp6754
g716
Nsg725
(i__main__
DelphiIdentAccess
p6755
(dp6756
g14
S'plant'
p6757
sg16
(lp6758
(idelphi
DelphiFieldEndAccess
p6759
(dp6760
g723
S'turtle'
p6761
sba(idelphi
DelphiFieldEndAccess
p6762
(dp6763
g723
S'rotateY'
p6764
sba(idelphi
DelphiFunctionEndAccess
p6765
(dp6766
g772
(lp6767
(idelphi
DelphiMulOp
p6768
(dp6769
g871
(idelphi
DelphiIntegerValue
p6770
(dp6771
g40
S'360'
p6772
sbsg876
S'/'
sg877
(idelphi
DelphiMulOp
p6773
(dp6774
g871
(idelphi
DelphiIntegerValue
p6775
(dp6776
g40
S'256'
p6777
sbsg876
S'*'
sg877
(i__main__
DelphiIdentAccess
p6778
(dp6779
g14
S'amendment'
p6780
sg16
(lp6781
(idelphi
DelphiFieldEndAccess
p6782
(dp6783
g723
S'yRotation'
p6784
sbasbsbsbasbasbsba(i__main__
DelphiAssignStatement
p6785
(dp6786
g716
Nsg725
(i__main__
DelphiIdentAccess
p6787
(dp6788
g14
S'plant'
p6789
sg16
(lp6790
(idelphi
DelphiFieldEndAccess
p6791
(dp6792
g723
S'turtle'
p6793
sba(idelphi
DelphiFieldEndAccess
p6794
(dp6795
g723
S'rotateZ'
p6796
sba(idelphi
DelphiFunctionEndAccess
p6797
(dp6798
g772
(lp6799
(idelphi
DelphiMulOp
p6800
(dp6801
g871
(idelphi
DelphiIntegerValue
p6802
(dp6803
g40
S'360'
p6804
sbsg876
S'/'
sg877
(idelphi
DelphiMulOp
p6805
(dp6806
g871
(idelphi
DelphiIntegerValue
p6807
(dp6808
g40
S'256'
p6809
sbsg876
S'*'
sg877
(i__main__
DelphiIdentAccess
p6810
(dp6811
g14
S'amendment'
p6812
sg16
(lp6813
(idelphi
DelphiFieldEndAccess
p6814
(dp6815
g723
S'zRotation'
p6816
sbasbsbsbasbasbsbasbsbasbsg1168
(lp6817
sbsbsS'isphytomer'
p6818
(i__main__
DelphiMethodImplementation
p6819
(dp6820
g672
g542
sg97
g544
sg105
(lp6821
sg694
(lp6822
sg696
(lp6823
sg698
(lp6824
g700
asg701
(dp6825
sg132
S'PdPlantPart'
p6826
sg133
(i__main__
DelphiPrimitiveType
p6827
(dp6828
g22
g214
sbsg704
(lp6829
sg134
I0
sg135
g144
sg706
(i__main__
DelphiBlock
p6830
(dp6831
g709
(idelphi
DelphiCompoundStatement
p6832
(dp6833
g712
(lp6834
(i__main__
DelphiAssignStatement
p6835
(dp6836
g716
(i__main__
DelphiIdentAccess
p6837
(dp6838
g14
S'false'
p6839
sg16
(lp6840
sbsg725
(i__main__
DelphiIdentAccess
p6841
(dp6842
g14
S'result'
p6843
sg16
(lp6844
sbsbasbsg1168
(lp6845
sbsbsS'getfullname'
p6846
(i__main__
DelphiMethodImplementation
p6847
(dp6848
g672
g549
sg97
g551
sg105
(lp6849
sg694
(lp6850
sg696
(lp6851
sg698
(lp6852
g700
asg701
(dp6853
sg132
S'PdPlantPart'
p6854
sg133
(i__main__
DelphiPrimitiveType
p6855
(dp6856
g22
g40
sbsg704
(lp6857
sg134
I0
sg135
g144
sg706
(i__main__
DelphiBlock
p6858
(dp6859
g709
(idelphi
DelphiCompoundStatement
p6860
(dp6861
g712
(lp6862
(i__main__
DelphiAssignStatement
p6863
(dp6864
g716
(idelphi
DelphiAddOp
p6865
(dp6866
g828
S'+'
sg829
(idelphi
DelphiStringAccess
p6867
(dp6868
g16
(lp6869
sg40
(idelphi
DelphiStringValue
p6870
(dp6871
g40
S')'
sbsbsg832
(idelphi
DelphiAddOp
p6872
(dp6873
g828
S'+'
sg829
(i__main__
DelphiIdentAccess
p6874
(dp6875
g14
S'self'
p6876
sg16
(lp6877
(idelphi
DelphiFieldEndAccess
p6878
(dp6879
g723
S'getName'
p6880
sbasbsg832
(idelphi
DelphiAddOp
p6881
(dp6882
g828
S'+'
sg829
(idelphi
DelphiStringAccess
p6883
(dp6884
g16
(lp6885
sg40
(idelphi
DelphiStringValue
p6886
(dp6887
g40
S' ('
p6888
sbsbsg832
(idelphi
DelphiAddOp
p6889
(dp6890
g828
S'+'
sg829
(i__main__
DelphiIdentAccess
p6891
(dp6892
g14
S'intToStr'
p6893
sg16
(lp6894
(idelphi
DelphiFunctionEndAccess
p6895
(dp6896
g772
(lp6897
(i__main__
DelphiIdentAccess
p6898
(dp6899
g14
S'self'
p6900
sg16
(lp6901
(idelphi
DelphiFieldEndAccess
p6902
(dp6903
g723
S'partID'
p6904
sbasbasbasbsg832
(idelphi
DelphiStringAccess
p6905
(dp6906
g16
(lp6907
sg40
(idelphi
DelphiStringValue
p6908
(dp6909
g40
S'part '
p6910
sbsbsbsbsbsbsg725
(i__main__
DelphiIdentAccess
p6911
(dp6912
g14
S'result'
p6913
sg16
(lp6914
sbsbasbsg1168
(lp6915
sbsbsS'scalemultiplierconsideringamendments'
p6916
(i__main__
DelphiMethodImplementation
p6917
(dp6918
g672
g556
sg97
g558
sg105
(lp6919
sg694
(lp6920
sg696
(lp6921
sg698
(lp6922
g700
asg701
(dp6923
sg132
S'PdPlantPart'
p6924
sg133
(i__main__
DelphiPrimitiveType
p6925
(dp6926
g22
g125
sbsg704
(lp6927
sg134
I0
sg135
g144
sg706
(i__main__
DelphiBlock
p6928
(dp6929
g709
(idelphi
DelphiCompoundStatement
p6930
(dp6931
g712
(lp6932
(i__main__
DelphiAssignStatement
p6933
(dp6934
g716
(idelphi
DelphiRealValue
p6935
(dp6936
g40
S'1.0'
p6937
sbsg725
(i__main__
DelphiIdentAccess
p6938
(dp6939
g14
S'result'
p6940
sg16
(lp6941
sbsba(idelphi
DelphiIfStatement
p6942
(dp6943
g732
(idelphi
DelphiNot
p6944
(dp6945
g1782
(i__main__
DelphiIdentAccess
p6946
(dp6947
g14
S'domain'
p6948
sg16
(lp6949
(idelphi
DelphiFieldEndAccess
p6950
(dp6951
g723
S'options'
p6952
sba(idelphi
DelphiFieldEndAccess
p6953
(dp6954
g723
S'showPosingAtAll'
p6955
sbasbsbsg744
Nsg745
(i__main__
DelphiExitStatement
p6956
(dp6957
g748
g6917
sbsba(idelphi
DelphiIfStatement
p6958
(dp6959
g732
(idelphi
DelphiAddOp
p6960
(dp6961
g828
g1961
sg829
(idelphi
DelphiNestedExpressionListAccess
p6962
(dp6963
g16
(lp6964
sg772
(lp6965
(idelphi
DelphiRelOp
p6966
(dp6967
g735
(i__main__
DelphiIdentAccess
p6968
(dp6969
g14
S'parentAmendment'
p6970
sg16
(lp6971
sbsg740
(idelphi
DelphiNilValue
p6972
(dp6973
bsg743
g1820
sbasbsg832
(idelphi
DelphiNestedExpressionListAccess
p6974
(dp6975
g16
(lp6976
sg772
(lp6977
(idelphi
DelphiRelOp
p6978
(dp6979
g735
(i__main__
DelphiIdentAccess
p6980
(dp6981
g14
S'amendment'
p6982
sg16
(lp6983
sbsg740
(idelphi
DelphiNilValue
p6984
(dp6985
bsg743
g1820
sbasbsbsg744
Nsg745
(idelphi
DelphiIfStatement
p6986
(dp6987
g732
(idelphi
DelphiAddOp
p6988
(dp6989
g828
g1961
sg829
(idelphi
DelphiNestedExpressionListAccess
p6990
(dp6991
g16
(lp6992
sg772
(lp6993
(idelphi
DelphiMulOp
p6994
(dp6995
g871
(idelphi
DelphiNestedExpressionListAccess
p6996
(dp6997
g16
(lp6998
sg772
(lp6999
(i__main__
DelphiIdentAccess
p7000
(dp7001
g14
S'parentAmendment'
p7002
sg16
(lp7003
(idelphi
DelphiFieldEndAccess
p7004
(dp7005
g723
S'propagateScale'
p7006
sbasbasbsg876
g1868
sg877
(idelphi
DelphiMulOp
p7007
(dp7008
g871
(idelphi
DelphiNestedExpressionListAccess
p7009
(dp7010
g16
(lp7011
sg772
(lp7012
(i__main__
DelphiIdentAccess
p7013
(dp7014
g14
S'parentAmendment'
p7015
sg16
(lp7016
(idelphi
DelphiFieldEndAccess
p7017
(dp7018
g723
S'multiplyScale'
p7019
sbasbasbsg876
g1868
sg877
(idelphi
DelphiNestedExpressionListAccess
p7020
(dp7021
g16
(lp7022
sg772
(lp7023
(idelphi
DelphiRelOp
p7024
(dp7025
g735
(i__main__
DelphiIdentAccess
p7026
(dp7027
g14
S'parentAmendment'
p7028
sg16
(lp7029
sbsg740
(idelphi
DelphiNilValue
p7030
(dp7031
bsg743
g1820
sbasbsbsbasbsg832
(idelphi
DelphiNestedExpressionListAccess
p7032
(dp7033
g16
(lp7034
sg772
(lp7035
(idelphi
DelphiMulOp
p7036
(dp7037
g871
(idelphi
DelphiNestedExpressionListAccess
p7038
(dp7039
g16
(lp7040
sg772
(lp7041
(i__main__
DelphiIdentAccess
p7042
(dp7043
g14
S'amendment'
p7044
sg16
(lp7045
(idelphi
DelphiFieldEndAccess
p7046
(dp7047
g723
S'multiplyScale'
p7048
sbasbasbsg876
g1868
sg877
(idelphi
DelphiNestedExpressionListAccess
p7049
(dp7050
g16
(lp7051
sg772
(lp7052
(idelphi
DelphiRelOp
p7053
(dp7054
g735
(i__main__
DelphiIdentAccess
p7055
(dp7056
g14
S'amendment'
p7057
sg16
(lp7058
sbsg740
(idelphi
DelphiNilValue
p7059
(dp7060
bsg743
g1820
sbasbsbasbsbsg744
Nsg745
(idelphi
DelphiCompoundStatement
p7061
(dp7062
g712
(lp7063
(idelphi
DelphiIfStatement
p7064
(dp7065
g732
(idelphi
DelphiRelOp
p7066
(dp7067
g735
(i__main__
DelphiIdentAccess
p7068
(dp7069
g14
S'amendment'
p7070
sg16
(lp7071
sbsg740
(idelphi
DelphiNilValue
p7072
(dp7073
bsg743
g1820
sbsg744
(i__main__
DelphiAssignStatement
p7074
(dp7075
g716
(i__main__
DelphiIdentAccess
p7076
(dp7077
g14
S'parentAmendment'
p7078
sg16
(lp7079
sbsg725
(i__main__
DelphiIdentAccess
p7080
(dp7081
g14
S'amendmentToUse'
p7082
sg16
(lp7083
sbsbsg745
(i__main__
DelphiAssignStatement
p7084
(dp7085
g716
(i__main__
DelphiIdentAccess
p7086
(dp7087
g14
S'amendment'
p7088
sg16
(lp7089
sbsg725
(i__main__
DelphiIdentAccess
p7090
(dp7091
g14
S'amendmentToUse'
p7092
sg16
(lp7093
sbsbsba(i__main__
DelphiAssignStatement
p7094
(dp7095
g716
(idelphi
DelphiMulOp
p7096
(dp7097
g871
(idelphi
DelphiRealValue
p7098
(dp7099
g40
S'100.0'
p7100
sbsg876
S'/'
sg877
(idelphi
DelphiMulOp
p7101
(dp7102
g871
(i__main__
DelphiIdentAccess
p7103
(dp7104
g14
S'amendmentToUse'
p7105
sg16
(lp7106
(idelphi
DelphiFieldEndAccess
p7107
(dp7108
g723
S'scaleMultiplier_pct'
p7109
sbasbsg876
S'*'
sg877
(idelphi
DelphiRealValue
p7110
(dp7111
g40
S'1.0'
p7112
sbsbsbsg725
(i__main__
DelphiIdentAccess
p7113
(dp7114
g14
S'result'
p7115
sg16
(lp7116
sbsbasbsbsbasbsg1168
(lp7117
(i__main__
DelphiVarSection
p7118
(dp7119
g64
I0
sg1172
(lp7120
(idelphi
DelphiVarDecl
p7121
(dp7122
g11
Nsg1176
(lp7123
S'amendmentToUse'
p7124
asg19
(i__main__
DelphiNamedType
p7125
(dp7126
g22
S'PdPlantDrawingAmendment'
p7127
sg157
g1
sg158
NsbsbasbasbsbsS'position'
p7128
(i__main__
DelphiMethodImplementation
p7129
(dp7130
g672
g563
sg97
g565
sg105
(lp7131
sg694
(lp7132
sg696
(lp7133
sg698
(lp7134
g700
asg701
(dp7135
sg132
S'PdPlantPart'
p7136
sg133
(i__main__
DelphiNamedType
p7137
(dp7138
g22
S'TPoint'
p7139
sg157
g1
sg158
Nsbsg704
(lp7140
sg134
I0
sg135
g144
sg706
(i__main__
DelphiBlock
p7141
(dp7142
g709
(idelphi
DelphiCompoundStatement
p7143
(dp7144
g712
(lp7145
(idelphi
DelphiWithStatement
p7146
(dp7147
g841
(i__main__
DelphiAssignStatement
p7148
(dp7149
g716
(i__main__
DelphiIdentAccess
p7150
(dp7151
g14
S'Point'
p7152
sg16
(lp7153
(idelphi
DelphiFunctionEndAccess
p7154
(dp7155
g772
(lp7156
(idelphi
DelphiAddOp
p7157
(dp7158
g828
S'+'
sg829
(idelphi
DelphiMulOp
p7159
(dp7160
g871
(idelphi
DelphiIntegerValue
p7161
(dp7162
g40
S'2'
sbsg876
S'div'
p7163
sg877
(idelphi
DelphiNestedExpressionListAccess
p7164
(dp7165
g16
(lp7166
sg772
(lp7167
(idelphi
DelphiAddOp
p7168
(dp7169
g828
S'-'
sg829
(i__main__
DelphiIdentAccess
p7170
(dp7171
g14
S'left'
p7172
sg16
(lp7173
sbsg832
(i__main__
DelphiIdentAccess
p7174
(dp7175
g14
S'right'
p7176
sg16
(lp7177
sbsbasbsbsg832
(i__main__
DelphiIdentAccess
p7178
(dp7179
g14
S'left'
p7180
sg16
(lp7181
sbsba(idelphi
DelphiAddOp
p7182
(dp7183
g828
S'+'
sg829
(idelphi
DelphiMulOp
p7184
(dp7185
g871
(idelphi
DelphiIntegerValue
p7186
(dp7187
g40
S'2'
sbsg876
g7163
sg877
(idelphi
DelphiNestedExpressionListAccess
p7188
(dp7189
g16
(lp7190
sg772
(lp7191
(idelphi
DelphiAddOp
p7192
(dp7193
g828
S'-'
sg829
(i__main__
DelphiIdentAccess
p7194
(dp7195
g14
S'top'
p7196
sg16
(lp7197
sbsg832
(i__main__
DelphiIdentAccess
p7198
(dp7199
g14
S'bottom'
p7200
sg16
(lp7201
sbsbasbsbsg832
(i__main__
DelphiIdentAccess
p7202
(dp7203
g14
S'top'
p7204
sg16
(lp7205
sbsbasbasbsg725
(i__main__
DelphiIdentAccess
p7206
(dp7207
g14
S'result'
p7208
sg16
(lp7209
sbsbsg6643
(lp7210
(i__main__
DelphiIdentAccess
p7211
(dp7212
g14
S'self'
p7213
sg16
(lp7214
(idelphi
DelphiFieldEndAccess
p7215
(dp7216
g723
S'boundsRect'
p7217
sbasbasbasbsg1168
(lp7218
sbsg570
g571
sbssS'propertyDeclarations'
p7219
(dp7220
sS'variableNamesInDeclaredOrder'
p7221
(lp7222
g72
ag82
ag90
ag78
ag92
ag84
ag74
ag96
ag88
ag76
ag94
ag70
ag80
ag86
asba(i__main__
DelphiConstSection
p7223
(dp7224
g7
(lp7225
(idelphi
DelphiConstDeclaration
p7226
(dp7227
g11
(i__main__
DelphiIdentAccess
p7228
(dp7229
g14
S'true'
p7230
sg16
(lp7231
sbsg14
S'kDrawingTdo'
p7232
sg19
(idelphi
DelphiPrimitiveType
p7233
(dp7234
g22
g23
sbsba(idelphi
DelphiConstDeclaration
p7235
(dp7236
g11
(i__main__
DelphiIdentAccess
p7237
(dp7238
g14
S'false'
p7239
sg16
(lp7240
sbsg14
S'kDrawingLine'
p7241
sg19
(idelphi
DelphiPrimitiveType
p7242
(dp7243
g22
g23
sbsba(idelphi
DelphiConstDeclaration
p7244
(dp7245
g11
(idelphi
DelphiIntegerValue
p7246
(dp7247
g40
S'0'
sbsg14
S'kRotateX'
p7248
sg19
(idelphi
DelphiPrimitiveType
p7249
(dp7250
g22
g23
sbsba(idelphi
DelphiConstDeclaration
p7251
(dp7252
g11
(idelphi
DelphiIntegerValue
p7253
(dp7254
g40
S'1'
sbsg14
S'kRotateY'
p7255
sg19
(idelphi
DelphiPrimitiveType
p7256
(dp7257
g22
g23
sbsba(idelphi
DelphiConstDeclaration
p7258
(dp7259
g11
(idelphi
DelphiIntegerValue
p7260
(dp7261
g40
S'2'
sbsg14
S'kRotateZ'
p7262
sg19
(idelphi
DelphiPrimitiveType
p7263
(dp7264
g22
g23
sbsbasg64
I1
sba(i__main__
DelphiConstSection
p7265
(dp7266
g7
(lp7267
(idelphi
DelphiConstDeclaration
p7268
(dp7269
g11
(idelphi
DelphiIntegerValue
p7270
(dp7271
g40
S'200'
p7272
sbsg14
S'kMaxLineOutputPoints'
p7273
sg19
(idelphi
DelphiPrimitiveType
p7274
(dp7275
g22
g23
sbsbasg64
I1
sbasS'includedUnits'
p7276
NsS'implementationUses'
p7277
(lp7278
S'SysUtils'
p7279
aS'Graphics'
p7280
aS'utravers'
p7281
aS'uturtle'
p7282
aS'u3dexport'
p7283
aS'u3dsupport'
p7284
aS'uclasses'
p7285
aS'udomain'
p7286
aS'udebug'
p7287
aS'umain'
p7288
asg97
S'upart'
p7289
sS'constSections'
p7290
(lp7291
g5
ag7223
ag7265
asS'globalsInProperCase'
p7292
NsS'interfaceUses'
p7293
(lp7294
S'delphi_compatability'
p7295
aS'Windows'
p7296
aS'Classes'
p7297
aS'uplant'
p7298
aS'umath'
p7299
aS'usupport'
p7300
aS'ufiler'
p7301
aS'utdo'
p7302
aS'uamendmt'
p7303
asS'finalCommentToken'
p7304
(i__main__
PassStatement
p7305
(dp7306
g1168
(lp7307
sbsS'varSections'
p7308
(lp7309
sS'globals'
p7310
NsS'originalFileName'
p7311
S'../../PlantStudioInPython/converted_source/used/Upart.pas'
p7312
sS'proceduralImplementations'
p7313
(dp7314
sS'fileName'
p7315
S'/Users/pdf/Documents/workspace/PlantStudioInPython/converted_source/used/Upart.pas'
p7316
sS'proceduralDeclarations'
p7317
(dp7318
sS'types'
p7319
(dp7320
S'pdplantpart'
p7321
g65
ssb.