(i__main__
DelphiUnit
p1
(dp2
S'sectionsInOrderDefined'
p3
(lp4
(i__main__
DelphiClass
p5
(dp6
S'variableNamesInProperCase'
p7
(dp8
S'seed'
p9
S'seed'
p10
ssS'name'
p11
S'PdRandom'
p12
sS'methodDeclarations'
p13
(dp14
S'streamdatawithfiler'
p15
(i__main__
DelphiMethodDeclaration
p16
(dp17
g11
S'streamDataWithFiler'
p18
sS'formalParameters'
p19
(lp20
(i__main__
DelphiFormalParameter
p21
(dp22
S'initialValue'
p23
NsS'names'
p24
(lp25
S'filer'
p26
asS'theType'
p27
(i__main__
DelphiNamedType
p28
(dp29
S'typeName'
p30
S'PdFiler'
p31
sS'unitDefinedIn'
p32
g1
sS'unitName'
p33
NsbsS'parameterVariety'
p34
Nsba(i__main__
DelphiFormalParameter
p35
(dp36
g23
Nsg24
(lp37
S'cvir'
p38
asg27
(i__main__
DelphiNamedType
p39
(dp40
g30
S'PdClassAndVersionInformationRecord'
p41
sg32
g1
sg33
Nsbsg34
S'const'
p42
sbasS'className'
p43
g12
sS'resultType'
p44
NsS'isClassMethod'
p45
I0
sS'methodType'
p46
S'procedure'
p47
sbsS'randomnormalpercent'
p48
(i__main__
DelphiMethodDeclaration
p49
(dp50
g11
S'randomNormalPercent'
p51
sg19
(lp52
(i__main__
DelphiFormalParameter
p53
(dp54
g23
Nsg24
(lp55
S'mean'
p56
asg27
(i__main__
DelphiPrimitiveType
p57
(dp58
g30
S'single'
p59
sbsg34
Nsbasg43
g12
sg44
(i__main__
DelphiPrimitiveType
p60
(dp61
g30
g59
sbsg45
I0
sg46
S'function'
p62
sbsS'randomnormalwithstddev'
p63
(i__main__
DelphiMethodDeclaration
p64
(dp65
g11
S'randomNormalWithStdDev'
p66
sg19
(lp67
(i__main__
DelphiFormalParameter
p68
(dp69
g23
Nsg24
(lp70
S'mean'
p71
aS'stdDev'
p72
asg27
(i__main__
DelphiPrimitiveType
p73
(dp74
g30
g59
sbsg34
Nsbasg43
g12
sg44
(i__main__
DelphiPrimitiveType
p75
(dp76
g30
g59
sbsg45
I0
sg46
g62
sbsS'randomseedfromtime'
p77
(i__main__
DelphiMethodDeclaration
p78
(dp79
g11
S'randomSeedFromTime'
p80
sg19
(lp81
sg43
g12
sg44
(i__main__
DelphiPrimitiveType
p82
(dp83
g30
S'longint'
p84
sbsg45
I0
sg46
g62
sbsS'setseed'
p85
(i__main__
DelphiMethodDeclaration
p86
(dp87
g11
S'setSeed'
p88
sg19
(lp89
(i__main__
DelphiFormalParameter
p90
(dp91
g23
Nsg24
(lp92
S'aSeed'
p93
asg27
(i__main__
DelphiPrimitiveType
p94
(dp95
g30
g84
sbsg34
Nsbasg43
g12
sg44
Nsg45
I0
sg46
g47
sbsS'createfromtime'
p96
(i__main__
DelphiMethodDeclaration
p97
(dp98
g11
S'createFromTime'
p99
sg19
(lp100
sg43
g12
sg44
Nsg45
I0
sg46
S'constructor'
p101
sbsS'randomnormalboundedzerotoone'
p102
(i__main__
DelphiMethodDeclaration
p103
(dp104
g11
S'randomNormalBoundedZeroToOne'
p105
sg19
(lp106
(i__main__
DelphiFormalParameter
p107
(dp108
g23
Nsg24
(lp109
S'mean'
p110
asg27
(i__main__
DelphiPrimitiveType
p111
(dp112
g30
g59
sbsg34
Nsbasg43
g12
sg44
(i__main__
DelphiPrimitiveType
p113
(dp114
g30
g59
sbsg45
I0
sg46
g62
sbsS'setseedfromsmallint'
p115
(i__main__
DelphiMethodDeclaration
p116
(dp117
g11
S'setSeedFromSmallint'
p118
sg19
(lp119
(i__main__
DelphiFormalParameter
p120
(dp121
g23
Nsg24
(lp122
S'aSeed'
p123
asg27
(i__main__
DelphiPrimitiveType
p124
(dp125
g30
S'smallint'
p126
sbsg34
Nsbasg43
g12
sg44
Nsg45
I0
sg46
g47
sbsS'zerotoone'
p127
(i__main__
DelphiMethodDeclaration
p128
(dp129
g11
S'zeroToOne'
p130
sg19
(lp131
sg43
g12
sg44
(i__main__
DelphiPrimitiveType
p132
(dp133
g30
g59
sbsg45
I0
sg46
g62
sbsS'randomsmallintseedfromtime'
p134
(i__main__
DelphiMethodDeclaration
p135
(dp136
g11
S'randomSmallintSeedFromTime'
p137
sg19
(lp138
sg43
g12
sg44
(i__main__
DelphiPrimitiveType
p139
(dp140
g30
g126
sbsg45
I0
sg46
g62
sbsS'initialize'
p141
(i__main__
DelphiMethodDeclaration
p142
(dp143
g11
S'initialize'
p144
sg19
(lp145
(i__main__
DelphiFormalParameter
p146
(dp147
g23
Nsg24
(lp148
S'aLong'
p149
asg27
(i__main__
DelphiPrimitiveType
p150
(dp151
g30
g84
sbsg34
Nsbasg43
g12
sg44
Nsg45
I0
sg46
g47
sbsS'randompercent'
p152
(i__main__
DelphiMethodDeclaration
p153
(dp154
g11
S'randomPercent'
p155
sg19
(lp156
sg43
g12
sg44
(i__main__
DelphiPrimitiveType
p157
(dp158
g30
g59
sbsg45
I0
sg46
g62
sbsS'classandversioninformation'
p159
(i__main__
DelphiMethodDeclaration
p160
(dp161
g11
S'classAndVersionInformation'
p162
sg19
(lp163
(i__main__
DelphiFormalParameter
p164
(dp165
g23
Nsg24
(lp166
S'cvir'
p167
asg27
(i__main__
DelphiNamedType
p168
(dp169
g30
S'PdClassAndVersionInformationRecord'
p170
sg32
g1
sg33
Nsbsg34
S'var'
p171
sbasg43
g12
sg44
Nsg45
I0
sg46
g47
sbsS'randomnormal'
p172
(i__main__
DelphiMethodDeclaration
p173
(dp174
g11
S'randomNormal'
p175
sg19
(lp176
(i__main__
DelphiFormalParameter
p177
(dp178
g23
Nsg24
(lp179
S'mean'
p180
asg27
(i__main__
DelphiPrimitiveType
p181
(dp182
g30
g59
sbsg34
Nsbasg43
g12
sg44
(i__main__
DelphiPrimitiveType
p183
(dp184
g30
g59
sbsg45
I0
sg46
g62
sbssS'superclassNamedTypes'
p185
(lp186
(i__main__
DelphiNamedType
p187
(dp188
g30
S'PdStreamableObject'
p189
sg32
g1
sg33
NsbasS'variableNames'
p190
(dp191
S'seed'
p192
(i__main__
DelphiPrimitiveType
p193
(dp194
g30
g84
sbssS'methodNamesInDefinedOrder'
p195
(lp196
S'createfromtime'
p197
aS'setseed'
p198
aS'setseedfromsmallint'
p199
aS'randomseedfromtime'
p200
aS'randomsmallintseedfromtime'
p201
aS'initialize'
p202
aS'randomnormalwithstddev'
p203
aS'randomnormal'
p204
aS'randomnormalboundedzerotoone'
p205
aS'randomnormalpercent'
p206
aS'randompercent'
p207
aS'zerotoone'
p208
aS'classandversioninformation'
p209
aS'streamdatawithfiler'
p210
asS'methodImplementations'
p211
(dp212
S'streamdatawithfiler'
p213
(i__main__
DelphiMethodImplementation
p214
(dp215
S'originalDeclaration'
p216
g16
sg11
g18
sg19
(lp217
(i__main__
DelphiFormalParameter
p218
(dp219
g23
Nsg24
(lp220
S'filer'
p221
asg27
(i__main__
DelphiNamedType
p222
(dp223
g30
S'PdFiler'
p224
sg32
g1
sg33
Nsbsg34
Nsba(i__main__
DelphiFormalParameter
p225
(dp226
g23
Nsg24
(lp227
S'cvir'
p228
asg27
(i__main__
DelphiNamedType
p229
(dp230
g30
S'PdClassAndVersionInformationRecord'
p231
sg32
g1
sg33
Nsbsg34
g42
sbasS'varParamIndexes'
p232
(lp233
sS'varParamsSkipped'
p234
(lp235
sS'argNames'
p236
(lp237
S'self'
p238
ag221
ag228
asS'argTypes'
p239
(dp240
g221
g222
sg228
g229
ssg43
S'PdRandom'
p241
sg44
NsS'varParamNames'
p242
(lp243
sg45
I0
sg46
g47
sS'block'
p244
(i__main__
DelphiBlock
p245
(dp246
S'compoundStatement'
p247
(idelphi
DelphiCompoundStatement
p248
(dp249
S'statements'
p250
(lp251
(i__main__
DelphiAssignStatement
p252
(dp253
S'newValueExpression'
p254
NsS'destinationExpression'
p255
(i__main__
DelphiIdentAccess
p256
(dp257
S'ident'
p258
S'filer'
p259
sS'endAccessList'
p260
(lp261
(idelphi
DelphiFieldEndAccess
p262
(dp263
S'field'
p264
S'streamLongint'
p265
sba(idelphi
DelphiFunctionEndAccess
p266
(dp267
S'expressionList'
p268
(lp269
(i__main__
DelphiIdentAccess
p270
(dp271
g258
S'seed'
p272
sg260
(lp273
sbasbasbsbasbsS'limitedDeclSectionList'
p274
(lp275
sbsbsS'randomnormalpercent'
p276
(i__main__
DelphiMethodImplementation
p277
(dp278
g216
g49
sg11
g51
sg19
(lp279
(i__main__
DelphiFormalParameter
p280
(dp281
g23
Nsg24
(lp282
S'mean'
p283
asg27
(i__main__
DelphiPrimitiveType
p284
(dp285
g30
g59
sbsg34
Nsbasg232
(lp286
sg234
(lp287
sg236
(lp288
g238
ag283
asg239
(dp289
g283
g284
ssg43
S'PdRandom'
p290
sg44
(i__main__
DelphiPrimitiveType
p291
(dp292
g30
g59
sbsg242
(lp293
sg45
I0
sg46
g62
sg244
(i__main__
DelphiBlock
p294
(dp295
g247
(idelphi
DelphiCompoundStatement
p296
(dp297
g250
(lp298
(i__main__
DelphiAssignStatement
p299
(dp300
g254
(i__main__
DelphiIdentAccess
p301
(dp302
g258
S'max'
p303
sg260
(lp304
(idelphi
DelphiFunctionEndAccess
p305
(dp306
g268
(lp307
(idelphi
DelphiIntegerValue
p308
(dp309
S'string'
p310
S'0'
sba(idelphi
DelphiNestedExpressionListAccess
p311
(dp312
g260
(lp313
sg268
(lp314
(i__main__
DelphiIdentAccess
p315
(dp316
g258
S'min'
p317
sg260
(lp318
(idelphi
DelphiFunctionEndAccess
p319
(dp320
g268
(lp321
(idelphi
DelphiIntegerValue
p322
(dp323
g310
S'100'
p324
sba(i__main__
DelphiIdentAccess
p325
(dp326
g258
S'round'
p327
sg260
(lp328
(idelphi
DelphiFunctionEndAccess
p329
(dp330
g268
(lp331
(idelphi
DelphiMulOp
p332
(dp333
S'signedFactor2'
p334
(idelphi
DelphiRealValue
p335
(dp336
g310
S'100.0'
p337
sbsS'mulOp'
p338
S'*'
sS'signedFactor1'
p339
(i__main__
DelphiIdentAccess
p340
(dp341
g258
S'randomNormal'
p342
sg260
(lp343
(idelphi
DelphiFunctionEndAccess
p344
(dp345
g268
(lp346
(idelphi
DelphiMulOp
p347
(dp348
g334
(idelphi
DelphiRealValue
p349
(dp350
g310
S'100.0'
p351
sbsg338
S'/'
sg339
(i__main__
DelphiIdentAccess
p352
(dp353
g258
S'mean'
p354
sg260
(lp355
sbsbasbasbsbasbasbasbasbasbasbasbsg255
(i__main__
DelphiIdentAccess
p356
(dp357
g258
S'result'
p358
sg260
(lp359
sbsS'commentLinesBefore'
p360
(lp361
S'return normal random number based on mean (and std dev of half mean) bounded at 0 and 100'
p362
asbasbsg274
(lp363
sbsbsS'randomnormalwithstddev'
p364
(i__main__
DelphiMethodImplementation
p365
(dp366
g216
g64
sg11
g66
sg19
(lp367
(i__main__
DelphiFormalParameter
p368
(dp369
g23
Nsg24
(lp370
S'mean'
p371
aS'stdDev'
p372
asg27
(i__main__
DelphiPrimitiveType
p373
(dp374
g30
g59
sbsg34
Nsbasg232
(lp375
sg234
(lp376
sg236
(lp377
g238
ag371
ag372
asg239
(dp378
g372
g373
sg371
g373
ssg43
S'PdRandom'
p379
sg44
(i__main__
DelphiPrimitiveType
p380
(dp381
g30
g59
sbsg242
(lp382
sg45
I0
sg46
g62
sg244
(i__main__
DelphiBlock
p383
(dp384
g247
(idelphi
DelphiCompoundStatement
p385
(dp386
g250
(lp387
(i__main__
DelphiAssignStatement
p388
(dp389
g254
(idelphi
DelphiRealValue
p390
(dp391
g310
S'0.0'
p392
sbsg255
(i__main__
DelphiIdentAccess
p393
(dp394
g258
S'randomNumber'
p395
sg260
(lp396
sbsba(idelphi
DelphiForStatement
p397
(dp398
S'variable'
p399
S'i'
sS'finalValue'
p400
(idelphi
DelphiIntegerValue
p401
(dp402
g310
S'12'
p403
sbsS'direction'
p404
S'to'
p405
sg23
(idelphi
DelphiIntegerValue
p406
(dp407
g310
S'1'
sbsS'statement'
p408
(idelphi
DelphiCompoundStatement
p409
(dp410
g250
(lp411
(i__main__
DelphiAssignStatement
p412
(dp413
g254
(idelphi
DelphiAddOp
p414
(dp415
S'addOp'
p416
S'+'
sS'term2'
p417
(i__main__
DelphiIdentAccess
p418
(dp419
g258
S'zeroToOne'
p420
sg260
(lp421
sbsS'term1'
p422
(i__main__
DelphiIdentAccess
p423
(dp424
g258
S'randomNumber'
p425
sg260
(lp426
sbsbsg255
(i__main__
DelphiIdentAccess
p427
(dp428
g258
S'randomNumber'
p429
sg260
(lp430
sbsbasbsba(i__main__
DelphiAssignStatement
p431
(dp432
g254
(idelphi
DelphiAddOp
p433
(dp434
g416
S'+'
sg417
(i__main__
DelphiIdentAccess
p435
(dp436
g258
S'mean'
p437
sg260
(lp438
sbsg422
(idelphi
DelphiMulOp
p439
(dp440
g334
(i__main__
DelphiIdentAccess
p441
(dp442
g258
S'stdDev'
p443
sg260
(lp444
sbsg338
S'*'
sg339
(idelphi
DelphiNestedExpressionListAccess
p445
(dp446
g260
(lp447
sg268
(lp448
(idelphi
DelphiAddOp
p449
(dp450
g416
S'-'
sg417
(idelphi
DelphiRealValue
p451
(dp452
g310
S'6.0'
p453
sbsg422
(i__main__
DelphiIdentAccess
p454
(dp455
g258
S'randomNumber'
p456
sg260
(lp457
sbsbasbsbsbsg255
(i__main__
DelphiIdentAccess
p458
(dp459
g258
S'result'
p460
sg260
(lp461
sbsbasbsg274
(lp462
(i__main__
DelphiVarSection
p463
(dp464
S'atTopLevel'
p465
I0
sS'varDeclList'
p466
(lp467
(idelphi
DelphiVarDecl
p468
(dp469
S'constExpression'
p470
NsS'identList'
p471
(lp472
S'randomNumber'
p473
asg27
(i__main__
DelphiPrimitiveType
p474
(dp475
g30
g59
sbsba(idelphi
DelphiVarDecl
p476
(dp477
g470
Nsg471
(lp478
S'i'
asg27
(i__main__
DelphiPrimitiveType
p479
(dp480
g30
S'integer'
p481
sbsbasbasbsbsS'randomseedfromtime'
p482
(i__main__
DelphiMethodImplementation
p483
(dp484
g216
g78
sg11
g80
sg19
(lp485
sg232
(lp486
sg234
(lp487
sg236
(lp488
g238
asg239
(dp489
sg43
S'PdRandom'
p490
sg44
(i__main__
DelphiPrimitiveType
p491
(dp492
g30
g84
sbsg242
(lp493
sg45
I0
sg46
g62
sg244
(i__main__
DelphiBlock
p494
(dp495
g247
(idelphi
DelphiCompoundStatement
p496
(dp497
g250
(lp498
(i__main__
DelphiAssignStatement
p499
(dp500
g254
(i__main__
DelphiIdentAccess
p501
(dp502
g258
S'Now'
p503
sg260
(lp504
sbsg255
(i__main__
DelphiIdentAccess
p505
(dp506
g258
S'Present'
p507
sg260
(lp508
sbsba(i__main__
DelphiAssignStatement
p509
(dp510
g254
Nsg255
(i__main__
DelphiIdentAccess
p511
(dp512
g258
S'DecodeDate'
p513
sg260
(lp514
(idelphi
DelphiFunctionEndAccess
p515
(dp516
g268
(lp517
(i__main__
DelphiIdentAccess
p518
(dp519
g258
S'Present'
p520
sg260
(lp521
sba(i__main__
DelphiIdentAccess
p522
(dp523
g258
S'Year'
p524
sg260
(lp525
sba(i__main__
DelphiIdentAccess
p526
(dp527
g258
S'Month'
p528
sg260
(lp529
sba(i__main__
DelphiIdentAccess
p530
(dp531
g258
S'Day'
p532
sg260
(lp533
sbasbasbsba(i__main__
DelphiAssignStatement
p534
(dp535
g254
Nsg255
(i__main__
DelphiIdentAccess
p536
(dp537
g258
S'DecodeTime'
p538
sg260
(lp539
(idelphi
DelphiFunctionEndAccess
p540
(dp541
g268
(lp542
(i__main__
DelphiIdentAccess
p543
(dp544
g258
S'Present'
p545
sg260
(lp546
sba(i__main__
DelphiIdentAccess
p547
(dp548
g258
S'Hour'
p549
sg260
(lp550
sba(i__main__
DelphiIdentAccess
p551
(dp552
g258
S'Min'
p553
sg260
(lp554
sba(i__main__
DelphiIdentAccess
p555
(dp556
g258
S'Sec'
p557
sg260
(lp558
sba(i__main__
DelphiIdentAccess
p559
(dp560
g258
S'MSec'
p561
sg260
(lp562
sbasbasbsba(i__main__
DelphiAssignStatement
p563
(dp564
g254
(idelphi
DelphiIntegerValue
p565
(dp566
g310
S'1'
sbsg255
(i__main__
DelphiIdentAccess
p567
(dp568
g258
S'longintVar'
p569
sg260
(lp570
sbsg360
(lp571
S' was (Hour * 24 * 60 * 60 * 100) + '
p572
asba(i__main__
DelphiAssignStatement
p573
(dp574
g254
(idelphi
DelphiAddOp
p575
(dp576
g416
S'+'
sg417
(idelphi
DelphiMulOp
p577
(dp578
g334
(i__main__
DelphiIdentAccess
p579
(dp580
g258
S'MSec'
p581
sg260
(lp582
sbsg338
S'*'
sg339
(i__main__
DelphiIdentAccess
p583
(dp584
g258
S'longintVar'
p585
sg260
(lp586
sbsbsg422
(idelphi
DelphiAddOp
p587
(dp588
g416
S'+'
sg417
(idelphi
DelphiMulOp
p589
(dp590
g334
(idelphi
DelphiIntegerValue
p591
(dp592
g310
S'100'
p593
sbsg338
S'*'
sg339
(idelphi
DelphiMulOp
p594
(dp595
g334
(i__main__
DelphiIdentAccess
p596
(dp597
g258
S'Sec'
p598
sg260
(lp599
sbsg338
S'*'
sg339
(i__main__
DelphiIdentAccess
p600
(dp601
g258
S'longintVar'
p602
sg260
(lp603
sbsbsbsg422
(idelphi
DelphiAddOp
p604
(dp605
g416
S'+'
sg417
(idelphi
DelphiMulOp
p606
(dp607
g334
(idelphi
DelphiIntegerValue
p608
(dp609
g310
S'100'
p610
sbsg338
S'*'
sg339
(idelphi
DelphiMulOp
p611
(dp612
g334
(idelphi
DelphiIntegerValue
p613
(dp614
g310
S'60'
p615
sbsg338
S'*'
sg339
(idelphi
DelphiMulOp
p616
(dp617
g334
(idelphi
DelphiIntegerValue
p618
(dp619
g310
S'60'
p620
sbsg338
S'*'
sg339
(idelphi
DelphiMulOp
p621
(dp622
g334
(i__main__
DelphiIdentAccess
p623
(dp624
g258
S'Min'
p625
sg260
(lp626
sbsg338
S'*'
sg339
(i__main__
DelphiIdentAccess
p627
(dp628
g258
S'longintVar'
p629
sg260
(lp630
sbsbsbsbsbsg422
(idelphi
DelphiMulOp
p631
(dp632
g334
(idelphi
DelphiIntegerValue
p633
(dp634
g310
S'60'
p635
sbsg338
S'*'
sg339
(idelphi
DelphiMulOp
p636
(dp637
g334
(idelphi
DelphiIntegerValue
p638
(dp639
g310
S'60'
p640
sbsg338
S'*'
sg339
(idelphi
DelphiMulOp
p641
(dp642
g334
(idelphi
DelphiIntegerValue
p643
(dp644
g310
S'24'
p645
sbsg338
S'*'
sg339
(idelphi
DelphiMulOp
p646
(dp647
g334
(i__main__
DelphiIdentAccess
p648
(dp649
g258
S'Hour'
p650
sg260
(lp651
sbsg338
S'*'
sg339
(i__main__
DelphiIdentAccess
p652
(dp653
g258
S'longintVar'
p654
sg260
(lp655
sbsbsbsbsbsbsbsbsg255
(i__main__
DelphiIdentAccess
p656
(dp657
g258
S'result'
p658
sg260
(lp659
sbsbasbsg274
(lp660
(i__main__
DelphiVarSection
p661
(dp662
g465
I0
sg466
(lp663
(idelphi
DelphiVarDecl
p664
(dp665
g470
Nsg471
(lp666
S'Present'
p667
asg27
(i__main__
DelphiNamedType
p668
(dp669
g30
S'TDateTime'
p670
sg32
g1
sg33
Nsbsba(idelphi
DelphiVarDecl
p671
(dp672
g470
Nsg471
(lp673
S'Year'
p674
aS'Month'
p675
aS'Day'
p676
aS'Hour'
p677
aS'Min'
p678
aS'Sec'
p679
aS'MSec'
p680
asg27
(i__main__
DelphiPrimitiveType
p681
(dp682
g30
S'word'
p683
sbsba(idelphi
DelphiVarDecl
p684
(dp685
g470
Nsg471
(lp686
S'longintVar'
p687
asg27
(i__main__
DelphiPrimitiveType
p688
(dp689
g30
g84
sbsbasbasbsbsS'setseed'
p690
(i__main__
DelphiMethodImplementation
p691
(dp692
g216
g86
sg11
g88
sg19
(lp693
(i__main__
DelphiFormalParameter
p694
(dp695
g23
Nsg24
(lp696
S'aSeed'
p697
asg27
(i__main__
DelphiPrimitiveType
p698
(dp699
g30
g84
sbsg34
Nsbasg232
(lp700
sg234
(lp701
sg236
(lp702
g238
ag697
asg239
(dp703
g697
g698
ssg43
S'PdRandom'
p704
sg44
Nsg242
(lp705
sg45
I0
sg46
g47
sg244
(i__main__
DelphiBlock
p706
(dp707
g247
(idelphi
DelphiCompoundStatement
p708
(dp709
g250
(lp710
(i__main__
DelphiAssignStatement
p711
(dp712
g254
(i__main__
DelphiIdentAccess
p713
(dp714
g258
S'aSeed'
p715
sg260
(lp716
sbsg255
(i__main__
DelphiIdentAccess
p717
(dp718
g258
S'self'
p719
sg260
(lp720
(idelphi
DelphiFieldEndAccess
p721
(dp722
g264
S'seed'
p723
sbasbsbasbsg274
(lp724
sbsbsS'createfromtime'
p725
(i__main__
DelphiMethodImplementation
p726
(dp727
g216
g97
sg11
g99
sg19
(lp728
sg232
(lp729
sg234
(lp730
sg236
(lp731
g238
asg239
(dp732
sg43
S'PdRandom'
p733
sg44
Nsg242
(lp734
sg45
I0
sg46
g101
sg244
(i__main__
DelphiBlock
p735
(dp736
g247
(idelphi
DelphiCompoundStatement
p737
(dp738
g250
(lp739
(i__main__
DelphiAssignStatement
p740
(dp741
g254
Nsg255
(i__main__
DelphiIdentAccess
p742
(dp743
g258
S'self'
p744
sg260
(lp745
(idelphi
DelphiFieldEndAccess
p746
(dp747
g264
S'create'
p748
sbasbsba(i__main__
DelphiAssignStatement
p749
(dp750
g254
(i__main__
DelphiIdentAccess
p751
(dp752
g258
S'self'
p753
sg260
(lp754
(idelphi
DelphiFieldEndAccess
p755
(dp756
g264
S'randomSeedFromTime'
p757
sbasbsg255
(i__main__
DelphiIdentAccess
p758
(dp759
g258
S'self'
p760
sg260
(lp761
(idelphi
DelphiFieldEndAccess
p762
(dp763
g264
S'seed'
p764
sbasbsbasbsg274
(lp765
sbsbsS'randomnormalboundedzerotoone'
p766
(i__main__
DelphiMethodImplementation
p767
(dp768
g216
g103
sg11
g105
sg19
(lp769
(i__main__
DelphiFormalParameter
p770
(dp771
g23
Nsg24
(lp772
S'mean'
p773
asg27
(i__main__
DelphiPrimitiveType
p774
(dp775
g30
g59
sbsg34
Nsbasg232
(lp776
sg234
(lp777
sg236
(lp778
g238
ag773
asg239
(dp779
g773
g774
ssg43
S'PdRandom'
p780
sg44
(i__main__
DelphiPrimitiveType
p781
(dp782
g30
g59
sbsg242
(lp783
sg45
I0
sg46
g62
sg244
(i__main__
DelphiBlock
p784
(dp785
g247
(idelphi
DelphiCompoundStatement
p786
(dp787
g250
(lp788
(i__main__
DelphiAssignStatement
p789
(dp790
g254
(i__main__
DelphiIdentAccess
p791
(dp792
g258
S'max'
p793
sg260
(lp794
(idelphi
DelphiFunctionEndAccess
p795
(dp796
g268
(lp797
(idelphi
DelphiRealValue
p798
(dp799
g310
S'0.0'
p800
sba(idelphi
DelphiNestedExpressionListAccess
p801
(dp802
g260
(lp803
sg268
(lp804
(i__main__
DelphiIdentAccess
p805
(dp806
g258
S'min'
p807
sg260
(lp808
(idelphi
DelphiFunctionEndAccess
p809
(dp810
g268
(lp811
(idelphi
DelphiRealValue
p812
(dp813
g310
S'1.0'
p814
sba(idelphi
DelphiNestedExpressionListAccess
p815
(dp816
g260
(lp817
sg268
(lp818
(i__main__
DelphiIdentAccess
p819
(dp820
g258
S'randomNormal'
p821
sg260
(lp822
(idelphi
DelphiFunctionEndAccess
p823
(dp824
g268
(lp825
(i__main__
DelphiIdentAccess
p826
(dp827
g258
S'mean'
p828
sg260
(lp829
sbasbasbasbasbasbasbasbasbsg255
(i__main__
DelphiIdentAccess
p830
(dp831
g258
S'result'
p832
sg260
(lp833
sbsg360
(lp834
S'return normal random number based on mean (and std dev of half mean)'
p835
asbasbsg274
(lp836
sbsbsS'setseedfromsmallint'
p837
(i__main__
DelphiMethodImplementation
p838
(dp839
g216
g116
sg11
g118
sg19
(lp840
(i__main__
DelphiFormalParameter
p841
(dp842
g23
Nsg24
(lp843
S'aSeed'
p844
asg27
(i__main__
DelphiPrimitiveType
p845
(dp846
g30
g126
sbsg34
Nsbasg232
(lp847
sg234
(lp848
sg236
(lp849
g238
ag844
asg239
(dp850
g844
g845
ssg43
S'PdRandom'
p851
sg44
Nsg242
(lp852
sg45
I0
sg46
g47
sg244
(i__main__
DelphiBlock
p853
(dp854
g247
(idelphi
DelphiCompoundStatement
p855
(dp856
g250
(lp857
(i__main__
DelphiAssignStatement
p858
(dp859
g254
(i__main__
DelphiIdentAccess
p860
(dp861
g258
S'aSeed'
p862
sg260
(lp863
sbsg255
(i__main__
DelphiIdentAccess
p864
(dp865
g258
S'self'
p866
sg260
(lp867
(idelphi
DelphiFieldEndAccess
p868
(dp869
g264
S'seed'
p870
sbasbsg360
(lp871
S'same as setSeed but making conversion here from smallint to longint'
p872
asbasbsg274
(lp873
sbsbsS'zerotoone'
p874
(i__main__
DelphiMethodImplementation
p875
(dp876
g216
g128
sg11
g130
sg19
(lp877
sg232
(lp878
sg234
(lp879
sg236
(lp880
g238
asg239
(dp881
sg43
S'PdRandom'
p882
sg44
(i__main__
DelphiPrimitiveType
p883
(dp884
g30
g59
sbsg242
(lp885
sg45
I0
sg46
g62
sg244
(i__main__
DelphiBlock
p886
(dp887
g247
(idelphi
DelphiCompoundStatement
p888
(dp889
g250
(lp890
(i__main__
DelphiAssignStatement
p891
(dp892
g254
(i__main__
DelphiIdentAccess
p893
(dp894
g258
S'round'
p895
sg260
(lp896
(idelphi
DelphiFunctionEndAccess
p897
(dp898
g268
(lp899
(idelphi
DelphiMulOp
p900
(dp901
g334
(idelphi
DelphiIntegerValue
p902
(dp903
g310
S'127773'
p904
sbsg338
S'/'
sg339
(i__main__
DelphiIdentAccess
p905
(dp906
g258
S'seed'
p907
sg260
(lp908
sbsbasbasbsg255
(i__main__
DelphiIdentAccess
p909
(dp910
g258
S'k'
sg260
(lp911
sbsba(i__main__
DelphiAssignStatement
p912
(dp913
g254
(i__main__
DelphiIdentAccess
p914
(dp915
g258
S'round'
p916
sg260
(lp917
(idelphi
DelphiFunctionEndAccess
p918
(dp919
g268
(lp920
(idelphi
DelphiAddOp
p921
(dp922
g416
S'-'
sg417
(idelphi
DelphiNestedExpressionListAccess
p923
(dp924
g260
(lp925
sg268
(lp926
(idelphi
DelphiMulOp
p927
(dp928
g334
(idelphi
DelphiIntegerValue
p929
(dp930
g310
S'2846'
p931
sbsg338
S'*'
sg339
(i__main__
DelphiIdentAccess
p932
(dp933
g258
S'k'
sg260
(lp934
sbsbasbsg422
(idelphi
DelphiNestedExpressionListAccess
p935
(dp936
g260
(lp937
sg268
(lp938
(idelphi
DelphiMulOp
p939
(dp940
g334
(idelphi
DelphiNestedExpressionListAccess
p941
(dp942
g260
(lp943
sg268
(lp944
(idelphi
DelphiAddOp
p945
(dp946
g416
S'-'
sg417
(idelphi
DelphiNestedExpressionListAccess
p947
(dp948
g260
(lp949
sg268
(lp950
(idelphi
DelphiMulOp
p951
(dp952
g334
(idelphi
DelphiIntegerValue
p953
(dp954
g310
S'127773'
p955
sbsg338
S'*'
sg339
(i__main__
DelphiIdentAccess
p956
(dp957
g258
S'k'
sg260
(lp958
sbsbasbsg422
(i__main__
DelphiIdentAccess
p959
(dp960
g258
S'seed'
p961
sg260
(lp962
sbsbasbsg338
S'*'
sg339
(idelphi
DelphiIntegerValue
p963
(dp964
g310
S'16807'
p965
sbsbasbsbasbasbsg255
(i__main__
DelphiIdentAccess
p966
(dp967
g258
S'seed'
p968
sg260
(lp969
sbsba(idelphi
DelphiIfStatement
p970
(dp971
S'expression'
p972
(idelphi
DelphiNestedExpressionListAccess
p973
(dp974
g260
(lp975
sg268
(lp976
(idelphi
DelphiRelOp
p977
(dp978
S'simpleExpression1'
p979
(i__main__
DelphiIdentAccess
p980
(dp981
g258
S'seed'
p982
sg260
(lp983
sbsS'simpleExpression2'
p984
(idelphi
DelphiRealValue
p985
(dp986
g310
S'0.0'
p987
sbsS'relOp'
p988
S'<'
sbasbsS'ifFalseStatement'
p989
NsS'ifTrueStatement'
p990
(i__main__
DelphiAssignStatement
p991
(dp992
g254
(idelphi
DelphiAddOp
p993
(dp994
g416
S'+'
sg417
(idelphi
DelphiIntegerValue
p995
(dp996
g310
S'2147483647'
p997
sbsg422
(i__main__
DelphiIdentAccess
p998
(dp999
g258
S'seed'
p1000
sg260
(lp1001
sbsbsg255
(i__main__
DelphiIdentAccess
p1002
(dp1003
g258
S'seed'
p1004
sg260
(lp1005
sbsbsba(i__main__
DelphiAssignStatement
p1006
(dp1007
g254
(idelphi
DelphiMulOp
p1008
(dp1009
g334
(idelphi
DelphiRealValue
p1010
(dp1011
g310
S'1.0'
p1012
sbsg338
S'*'
sg339
(idelphi
DelphiNestedExpressionListAccess
p1013
(dp1014
g260
(lp1015
sg268
(lp1016
(i__main__
DelphiIdentAccess
p1017
(dp1018
g258
S'max'
p1019
sg260
(lp1020
(idelphi
DelphiFunctionEndAccess
p1021
(dp1022
g268
(lp1023
(idelphi
DelphiRealValue
p1024
(dp1025
g310
S'0.0'
p1026
sba(idelphi
DelphiNestedExpressionListAccess
p1027
(dp1028
g260
(lp1029
sg268
(lp1030
(i__main__
DelphiIdentAccess
p1031
(dp1032
g258
S'min'
p1033
sg260
(lp1034
(idelphi
DelphiFunctionEndAccess
p1035
(dp1036
g268
(lp1037
(idelphi
DelphiRealValue
p1038
(dp1039
g310
S'1.0'
p1040
sba(idelphi
DelphiNestedExpressionListAccess
p1041
(dp1042
g260
(lp1043
sg268
(lp1044
(idelphi
DelphiMulOp
p1045
(dp1046
g334
(idelphi
DelphiRealValue
p1047
(dp1048
g310
S'0.0000000004656612875'
p1049
sbsg338
S'*'
sg339
(i__main__
DelphiIdentAccess
p1050
(dp1051
g258
S'seed'
p1052
sg260
(lp1053
sbsbasbasbasbasbasbasbasbsbsg255
(i__main__
DelphiIdentAccess
p1054
(dp1055
g258
S'result'
p1056
sg260
(lp1057
sbsbasbsg274
(lp1058
(i__main__
DelphiVarSection
p1059
(dp1060
g465
I0
sg466
(lp1061
(idelphi
DelphiVarDecl
p1062
(dp1063
g470
Nsg471
(lp1064
S'k'
asg27
(i__main__
DelphiPrimitiveType
p1065
(dp1066
g30
g59
sbsbasbasbsbsS'randomsmallintseedfromtime'
p1067
(i__main__
DelphiMethodImplementation
p1068
(dp1069
g216
g135
sg11
g137
sg19
(lp1070
sg232
(lp1071
sg234
(lp1072
sg236
(lp1073
g238
asg239
(dp1074
sg43
S'PdRandom'
p1075
sg44
(i__main__
DelphiPrimitiveType
p1076
(dp1077
g30
g126
sbsg242
(lp1078
sg45
I0
sg46
g62
sg244
(i__main__
DelphiBlock
p1079
(dp1080
g247
(idelphi
DelphiCompoundStatement
p1081
(dp1082
g250
(lp1083
(i__main__
DelphiAssignStatement
p1084
(dp1085
g254
(i__main__
DelphiIdentAccess
p1086
(dp1087
g258
S'Now'
p1088
sg260
(lp1089
sbsg255
(i__main__
DelphiIdentAccess
p1090
(dp1091
g258
S'Present'
p1092
sg260
(lp1093
sbsba(i__main__
DelphiAssignStatement
p1094
(dp1095
g254
Nsg255
(i__main__
DelphiIdentAccess
p1096
(dp1097
g258
S'DecodeDate'
p1098
sg260
(lp1099
(idelphi
DelphiFunctionEndAccess
p1100
(dp1101
g268
(lp1102
(i__main__
DelphiIdentAccess
p1103
(dp1104
g258
S'Present'
p1105
sg260
(lp1106
sba(i__main__
DelphiIdentAccess
p1107
(dp1108
g258
S'Year'
p1109
sg260
(lp1110
sba(i__main__
DelphiIdentAccess
p1111
(dp1112
g258
S'Month'
p1113
sg260
(lp1114
sba(i__main__
DelphiIdentAccess
p1115
(dp1116
g258
S'Day'
p1117
sg260
(lp1118
sbasbasbsba(i__main__
DelphiAssignStatement
p1119
(dp1120
g254
Nsg255
(i__main__
DelphiIdentAccess
p1121
(dp1122
g258
S'DecodeTime'
p1123
sg260
(lp1124
(idelphi
DelphiFunctionEndAccess
p1125
(dp1126
g268
(lp1127
(i__main__
DelphiIdentAccess
p1128
(dp1129
g258
S'Present'
p1130
sg260
(lp1131
sba(i__main__
DelphiIdentAccess
p1132
(dp1133
g258
S'Hour'
p1134
sg260
(lp1135
sba(i__main__
DelphiIdentAccess
p1136
(dp1137
g258
S'Min'
p1138
sg260
(lp1139
sba(i__main__
DelphiIdentAccess
p1140
(dp1141
g258
S'Sec'
p1142
sg260
(lp1143
sba(i__main__
DelphiIdentAccess
p1144
(dp1145
g258
S'MSec'
p1146
sg260
(lp1147
sbasbasbsba(i__main__
DelphiAssignStatement
p1148
(dp1149
g254
(idelphi
DelphiIntegerValue
p1150
(dp1151
g310
S'1'
sbsg255
(i__main__
DelphiIdentAccess
p1152
(dp1153
g258
S'smallintVar'
p1154
sg260
(lp1155
sbsba(i__main__
DelphiAssignStatement
p1156
(dp1157
g254
(idelphi
DelphiAddOp
p1158
(dp1159
g416
S'+'
sg417
(idelphi
DelphiMulOp
p1160
(dp1161
g334
(i__main__
DelphiIdentAccess
p1162
(dp1163
g258
S'MSec'
p1164
sg260
(lp1165
sbsg338
S'*'
sg339
(i__main__
DelphiIdentAccess
p1166
(dp1167
g258
S'smallintVar'
p1168
sg260
(lp1169
sbsbsg422
(idelphi
DelphiMulOp
p1170
(dp1171
g334
(idelphi
DelphiIntegerValue
p1172
(dp1173
g310
S'100'
p1174
sbsg338
S'*'
sg339
(idelphi
DelphiMulOp
p1175
(dp1176
g334
(i__main__
DelphiIdentAccess
p1177
(dp1178
g258
S'Sec'
p1179
sg260
(lp1180
sbsg338
S'*'
sg339
(i__main__
DelphiIdentAccess
p1181
(dp1182
g258
S'smallintVar'
p1183
sg260
(lp1184
sbsbsbsbsg255
(i__main__
DelphiIdentAccess
p1185
(dp1186
g258
S'result'
p1187
sg260
(lp1188
sbsba(i__main__
DelphiAssignStatement
p1189
(dp1190
g254
(i__main__
DelphiIdentAccess
p1191
(dp1192
g258
S'round'
p1193
sg260
(lp1194
(idelphi
DelphiFunctionEndAccess
p1195
(dp1196
g268
(lp1197
(idelphi
DelphiMulOp
p1198
(dp1199
g334
(i__main__
DelphiIdentAccess
p1200
(dp1201
g258
S'self'
p1202
sg260
(lp1203
(idelphi
DelphiFieldEndAccess
p1204
(dp1205
g264
S'zeroToOne'
p1206
sbasbsg338
S'*'
sg339
(i__main__
DelphiIdentAccess
p1207
(dp1208
g258
S'result'
p1209
sg260
(lp1210
sbsbasbasbsg255
(i__main__
DelphiIdentAccess
p1211
(dp1212
g258
S'result'
p1213
sg260
(lp1214
sbsg360
(lp1215
S' so things too close in time are not too similar, modify it randomly '
p1216
asbasbsg274
(lp1217
(i__main__
DelphiVarSection
p1218
(dp1219
g465
I0
sg466
(lp1220
(idelphi
DelphiVarDecl
p1221
(dp1222
g470
Nsg471
(lp1223
S'Present'
p1224
asg27
(i__main__
DelphiNamedType
p1225
(dp1226
g30
S'TDateTime'
p1227
sg32
g1
sg33
Nsbsba(idelphi
DelphiVarDecl
p1228
(dp1229
g470
Nsg471
(lp1230
S'Year'
p1231
aS'Month'
p1232
aS'Day'
p1233
aS'Hour'
p1234
aS'Min'
p1235
aS'Sec'
p1236
aS'MSec'
p1237
asg27
(i__main__
DelphiPrimitiveType
p1238
(dp1239
g30
g683
sbsba(idelphi
DelphiVarDecl
p1240
(dp1241
g470
Nsg471
(lp1242
S'smallintVar'
p1243
asg27
(i__main__
DelphiPrimitiveType
p1244
(dp1245
g30
g126
sbsbasbasbsbsS'initialize'
p1246
(i__main__
DelphiMethodImplementation
p1247
(dp1248
g216
g142
sg11
g144
sg19
(lp1249
(i__main__
DelphiFormalParameter
p1250
(dp1251
g23
Nsg24
(lp1252
S'aLong'
p1253
asg27
(i__main__
DelphiPrimitiveType
p1254
(dp1255
g30
g84
sbsg34
Nsbasg232
(lp1256
sg234
(lp1257
sg236
(lp1258
g238
ag1253
asg239
(dp1259
g1253
g1254
ssg43
S'PdRandom'
p1260
sg44
Nsg242
(lp1261
sg45
I0
sg46
g47
sg244
(i__main__
DelphiBlock
p1262
(dp1263
g247
(idelphi
DelphiCompoundStatement
p1264
(dp1265
g250
(lp1266
(i__main__
DelphiAssignStatement
p1267
(dp1268
g254
(i__main__
DelphiIdentAccess
p1269
(dp1270
g258
S'aLong'
p1271
sg260
(lp1272
sbsg255
(i__main__
DelphiIdentAccess
p1273
(dp1274
g258
S'seed'
p1275
sg260
(lp1276
sbsbasbsg274
(lp1277
sbsbsS'randompercent'
p1278
(i__main__
DelphiMethodImplementation
p1279
(dp1280
g216
g153
sg11
g155
sg19
(lp1281
sg232
(lp1282
sg234
(lp1283
sg236
(lp1284
g238
asg239
(dp1285
sg43
S'PdRandom'
p1286
sg44
(i__main__
DelphiPrimitiveType
p1287
(dp1288
g30
g59
sbsg242
(lp1289
sg45
I0
sg46
g62
sg244
(i__main__
DelphiBlock
p1290
(dp1291
g247
(idelphi
DelphiCompoundStatement
p1292
(dp1293
g250
(lp1294
(i__main__
DelphiAssignStatement
p1295
(dp1296
g254
(i__main__
DelphiIdentAccess
p1297
(dp1298
g258
S'round'
p1299
sg260
(lp1300
(idelphi
DelphiFunctionEndAccess
p1301
(dp1302
g268
(lp1303
(idelphi
DelphiMulOp
p1304
(dp1305
g334
(idelphi
DelphiIntegerValue
p1306
(dp1307
g310
S'127773'
p1308
sbsg338
S'/'
sg339
(i__main__
DelphiIdentAccess
p1309
(dp1310
g258
S'seed'
p1311
sg260
(lp1312
sbsbasbasbsg255
(i__main__
DelphiIdentAccess
p1313
(dp1314
g258
S'k'
sg260
(lp1315
sbsba(i__main__
DelphiAssignStatement
p1316
(dp1317
g254
(i__main__
DelphiIdentAccess
p1318
(dp1319
g258
S'round'
p1320
sg260
(lp1321
(idelphi
DelphiFunctionEndAccess
p1322
(dp1323
g268
(lp1324
(idelphi
DelphiAddOp
p1325
(dp1326
g416
S'-'
sg417
(idelphi
DelphiNestedExpressionListAccess
p1327
(dp1328
g260
(lp1329
sg268
(lp1330
(idelphi
DelphiMulOp
p1331
(dp1332
g334
(idelphi
DelphiIntegerValue
p1333
(dp1334
g310
S'2846'
p1335
sbsg338
S'*'
sg339
(i__main__
DelphiIdentAccess
p1336
(dp1337
g258
S'k'
sg260
(lp1338
sbsbasbsg422
(idelphi
DelphiNestedExpressionListAccess
p1339
(dp1340
g260
(lp1341
sg268
(lp1342
(idelphi
DelphiMulOp
p1343
(dp1344
g334
(idelphi
DelphiNestedExpressionListAccess
p1345
(dp1346
g260
(lp1347
sg268
(lp1348
(idelphi
DelphiAddOp
p1349
(dp1350
g416
S'-'
sg417
(idelphi
DelphiNestedExpressionListAccess
p1351
(dp1352
g260
(lp1353
sg268
(lp1354
(idelphi
DelphiMulOp
p1355
(dp1356
g334
(idelphi
DelphiIntegerValue
p1357
(dp1358
g310
S'127773'
p1359
sbsg338
S'*'
sg339
(i__main__
DelphiIdentAccess
p1360
(dp1361
g258
S'k'
sg260
(lp1362
sbsbasbsg422
(i__main__
DelphiIdentAccess
p1363
(dp1364
g258
S'seed'
p1365
sg260
(lp1366
sbsbasbsg338
S'*'
sg339
(idelphi
DelphiIntegerValue
p1367
(dp1368
g310
S'16807'
p1369
sbsbasbsbasbasbsg255
(i__main__
DelphiIdentAccess
p1370
(dp1371
g258
S'seed'
p1372
sg260
(lp1373
sbsba(idelphi
DelphiIfStatement
p1374
(dp1375
g972
(idelphi
DelphiNestedExpressionListAccess
p1376
(dp1377
g260
(lp1378
sg268
(lp1379
(idelphi
DelphiRelOp
p1380
(dp1381
g979
(i__main__
DelphiIdentAccess
p1382
(dp1383
g258
S'seed'
p1384
sg260
(lp1385
sbsg984
(idelphi
DelphiRealValue
p1386
(dp1387
g310
S'0.0'
p1388
sbsg988
S'<'
sbasbsg989
Nsg990
(i__main__
DelphiAssignStatement
p1389
(dp1390
g254
(idelphi
DelphiAddOp
p1391
(dp1392
g416
S'+'
sg417
(idelphi
DelphiIntegerValue
p1393
(dp1394
g310
S'2147483647'
p1395
sbsg422
(i__main__
DelphiIdentAccess
p1396
(dp1397
g258
S'seed'
p1398
sg260
(lp1399
sbsbsg255
(i__main__
DelphiIdentAccess
p1400
(dp1401
g258
S'seed'
p1402
sg260
(lp1403
sbsbsba(i__main__
DelphiAssignStatement
p1404
(dp1405
g254
(i__main__
DelphiIdentAccess
p1406
(dp1407
g258
S'round'
p1408
sg260
(lp1409
(idelphi
DelphiFunctionEndAccess
p1410
(dp1411
g268
(lp1412
(i__main__
DelphiIdentAccess
p1413
(dp1414
g258
S'max'
p1415
sg260
(lp1416
(idelphi
DelphiFunctionEndAccess
p1417
(dp1418
g268
(lp1419
(idelphi
DelphiIntegerValue
p1420
(dp1421
g310
S'0'
sba(idelphi
DelphiNestedExpressionListAccess
p1422
(dp1423
g260
(lp1424
sg268
(lp1425
(i__main__
DelphiIdentAccess
p1426
(dp1427
g258
S'min'
p1428
sg260
(lp1429
(idelphi
DelphiFunctionEndAccess
p1430
(dp1431
g268
(lp1432
(idelphi
DelphiIntegerValue
p1433
(dp1434
g310
S'100'
p1435
sba(idelphi
DelphiNestedExpressionListAccess
p1436
(dp1437
g260
(lp1438
sg268
(lp1439
(idelphi
DelphiMulOp
p1440
(dp1441
g334
(idelphi
DelphiRealValue
p1442
(dp1443
g310
S'100.0'
p1444
sbsg338
S'*'
sg339
(idelphi
DelphiMulOp
p1445
(dp1446
g334
(idelphi
DelphiRealValue
p1447
(dp1448
g310
S'0.0000000004656612875'
p1449
sbsg338
S'*'
sg339
(i__main__
DelphiIdentAccess
p1450
(dp1451
g258
S'seed'
p1452
sg260
(lp1453
sbsbsbasbasbasbasbasbasbasbasbsg255
(i__main__
DelphiIdentAccess
p1454
(dp1455
g258
S'result'
p1456
sg260
(lp1457
sbsbasbsg274
(lp1458
(i__main__
DelphiVarSection
p1459
(dp1460
g465
I0
sg466
(lp1461
(idelphi
DelphiVarDecl
p1462
(dp1463
g470
Nsg471
(lp1464
S'k'
asg27
(i__main__
DelphiPrimitiveType
p1465
(dp1466
g30
g59
sbsbasbasbsbsS'classandversioninformation'
p1467
(i__main__
DelphiMethodImplementation
p1468
(dp1469
g216
g160
sg11
g162
sg19
(lp1470
(i__main__
DelphiFormalParameter
p1471
(dp1472
g23
Nsg24
(lp1473
S'cvir'
p1474
asg27
(i__main__
DelphiNamedType
p1475
(dp1476
g30
S'PdClassAndVersionInformationRecord'
p1477
sg32
g1
sg33
Nsbsg34
g171
sbasg232
(lp1478
sg234
(lp1479
g1474
asg236
(lp1480
g238
ag1474
asg239
(dp1481
g1474
g1475
ssg43
S'PdRandom'
p1482
sg44
Nsg242
(lp1483
sg45
I0
sg46
g47
sg244
(i__main__
DelphiBlock
p1484
(dp1485
g247
(idelphi
DelphiCompoundStatement
p1486
(dp1487
g250
(lp1488
(i__main__
DelphiAssignStatement
p1489
(dp1490
g254
(i__main__
DelphiIdentAccess
p1491
(dp1492
g258
S'KPdRandom'
p1493
sg260
(lp1494
sbsg255
(i__main__
DelphiIdentAccess
p1495
(dp1496
g258
S'cvir'
p1497
sg260
(lp1498
(idelphi
DelphiFieldEndAccess
p1499
(dp1500
g264
S'classNumber'
p1501
sbasbsba(i__main__
DelphiAssignStatement
p1502
(dp1503
g254
(idelphi
DelphiIntegerValue
p1504
(dp1505
g310
S'0'
sbsg255
(i__main__
DelphiIdentAccess
p1506
(dp1507
g258
S'cvir'
p1508
sg260
(lp1509
(idelphi
DelphiFieldEndAccess
p1510
(dp1511
g264
S'versionNumber'
p1512
sbasbsba(i__main__
DelphiAssignStatement
p1513
(dp1514
g254
(idelphi
DelphiIntegerValue
p1515
(dp1516
g310
S'0'
sbsg255
(i__main__
DelphiIdentAccess
p1517
(dp1518
g258
S'cvir'
p1519
sg260
(lp1520
(idelphi
DelphiFieldEndAccess
p1521
(dp1522
g264
S'additionNumber'
p1523
sbasbsbasbsg274
(lp1524
sbsbsS'randomnormal'
p1525
(i__main__
DelphiMethodImplementation
p1526
(dp1527
g216
g173
sg11
g175
sg19
(lp1528
(i__main__
DelphiFormalParameter
p1529
(dp1530
g23
Nsg24
(lp1531
S'mean'
p1532
asg27
(i__main__
DelphiPrimitiveType
p1533
(dp1534
g30
g59
sbsg34
Nsbasg232
(lp1535
sg234
(lp1536
sg236
(lp1537
g238
ag1532
asg239
(dp1538
g1532
g1533
ssg43
S'PdRandom'
p1539
sg44
(i__main__
DelphiPrimitiveType
p1540
(dp1541
g30
g59
sbsg242
(lp1542
sg45
I0
sg46
g62
sg244
(i__main__
DelphiBlock
p1543
(dp1544
g247
(idelphi
DelphiCompoundStatement
p1545
(dp1546
g250
(lp1547
(i__main__
DelphiAssignStatement
p1548
(dp1549
g254
(idelphi
DelphiRealValue
p1550
(dp1551
g310
S'0.0'
p1552
sbsg255
(i__main__
DelphiIdentAccess
p1553
(dp1554
g258
S'randomNumber'
p1555
sg260
(lp1556
sbsg360
(lp1557
S'return normal random number based on mean (and std dev of half mean)'
p1558
asba(idelphi
DelphiForStatement
p1559
(dp1560
g399
S'i'
sg400
(idelphi
DelphiIntegerValue
p1561
(dp1562
g310
S'12'
p1563
sbsg404
g405
sg23
(idelphi
DelphiIntegerValue
p1564
(dp1565
g310
S'1'
sbsg408
(idelphi
DelphiCompoundStatement
p1566
(dp1567
g250
(lp1568
(i__main__
DelphiAssignStatement
p1569
(dp1570
g254
(idelphi
DelphiAddOp
p1571
(dp1572
g416
S'+'
sg417
(i__main__
DelphiIdentAccess
p1573
(dp1574
g258
S'zeroToOne'
p1575
sg260
(lp1576
sbsg422
(i__main__
DelphiIdentAccess
p1577
(dp1578
g258
S'randomNumber'
p1579
sg260
(lp1580
sbsbsg255
(i__main__
DelphiIdentAccess
p1581
(dp1582
g258
S'randomNumber'
p1583
sg260
(lp1584
sbsbasbsba(i__main__
DelphiAssignStatement
p1585
(dp1586
g254
(idelphi
DelphiAddOp
p1587
(dp1588
g416
S'+'
sg417
(i__main__
DelphiIdentAccess
p1589
(dp1590
g258
S'mean'
p1591
sg260
(lp1592
sbsg422
(idelphi
DelphiMulOp
p1593
(dp1594
g334
(idelphi
DelphiNestedExpressionListAccess
p1595
(dp1596
g260
(lp1597
sg268
(lp1598
(idelphi
DelphiMulOp
p1599
(dp1600
g334
(idelphi
DelphiRealValue
p1601
(dp1602
g310
S'2.0'
p1603
sbsg338
S'/'
sg339
(i__main__
DelphiIdentAccess
p1604
(dp1605
g258
S'mean'
p1606
sg260
(lp1607
sbsbasbsg338
S'*'
sg339
(idelphi
DelphiNestedExpressionListAccess
p1608
(dp1609
g260
(lp1610
sg268
(lp1611
(idelphi
DelphiAddOp
p1612
(dp1613
g416
S'-'
sg417
(idelphi
DelphiRealValue
p1614
(dp1615
g310
S'6.0'
p1616
sbsg422
(i__main__
DelphiIdentAccess
p1617
(dp1618
g258
S'randomNumber'
p1619
sg260
(lp1620
sbsbasbsbsbsg255
(i__main__
DelphiIdentAccess
p1621
(dp1622
g258
S'result'
p1623
sg260
(lp1624
sbsbasbsg274
(lp1625
(i__main__
DelphiVarSection
p1626
(dp1627
g465
I0
sg466
(lp1628
(idelphi
DelphiVarDecl
p1629
(dp1630
g470
Nsg471
(lp1631
S'randomNumber'
p1632
asg27
(i__main__
DelphiPrimitiveType
p1633
(dp1634
g30
g59
sbsba(idelphi
DelphiVarDecl
p1635
(dp1636
g470
Nsg471
(lp1637
S'i'
asg27
(i__main__
DelphiPrimitiveType
p1638
(dp1639
g30
g481
sbsbasbasbsbssS'propertyDeclarations'
p1640
(dp1641
sS'variableNamesInDeclaredOrder'
p1642
(lp1643
g10
asbasS'includedUnits'
p1644
NsS'implementationUses'
p1645
(lp1646
S'SysUtils'
p1647
aS'umath'
p1648
aS'uclasses'
p1649
asg11
S'Urandom'
p1650
sS'constSections'
p1651
(lp1652
sS'globalsInProperCase'
p1653
NsS'interfaceUses'
p1654
(lp1655
S'delphi_compatability'
p1656
aS'ufiler'
p1657
asS'finalCommentToken'
p1658
(i__main__
PassStatement
p1659
(dp1660
g274
(lp1661
sbsS'varSections'
p1662
(lp1663
sS'globals'
p1664
NsS'originalFileName'
p1665
S'../../PlantStudioInPython/converted_source/used/urandom.pas'
p1666
sS'proceduralImplementations'
p1667
(dp1668
sS'fileName'
p1669
S'/Users/pdf/Documents/workspace/PlantStudioInPython/converted_source/used/urandom.pas'
p1670
sS'proceduralDeclarations'
p1671
(dp1672
sS'types'
p1673
(dp1674
S'pdrandom'
p1675
g5
ssb.