(i__main__
DelphiUnit
p1
(dp2
S'sectionsInOrderDefined'
p3
(lp4
(i__main__
DelphiConstSection
p5
(dp6
S'constDeclList'
p7
(lp8
(idelphi
DelphiConstDeclaration
p9
(dp10
S'constExpression'
p11
(idelphi
DelphiIntegerValue
p12
(dp13
S'string'
p14
S'200'
p15
sbsS'ident'
p16
S'kMaxSectionItems'
p17
sS'theType'
p18
(idelphi
DelphiPrimitiveType
p19
(dp20
S'typeName'
p21
S'UNDEFINED_NEEDS_CALCULATION'
p22
sbsbasS'atTopLevel'
p23
I1
sba(i__main__
DelphiClass
p24
(dp25
S'variableNamesInProperCase'
p26
(dp27
S'showinparameterswindow'
p28
S'showInParametersWindow'
p29
sS'name'
p30
S'name'
p31
sS'expanded'
p32
S'expanded'
p33
sS'sectionitems'
p34
S'sectionItems'
p35
sS'isorthogonal'
p36
S'isOrthogonal'
p37
sS'numsectionitems'
p38
S'numSectionItems'
p39
ssS'name'
p40
S'PdSection'
p41
sS'methodDeclarations'
p42
(dp43
S'addsectionitem'
p44
(i__main__
DelphiMethodDeclaration
p45
(dp46
g40
S'addSectionItem'
p47
sS'formalParameters'
p48
(lp49
(i__main__
DelphiFormalParameter
p50
(dp51
S'initialValue'
p52
NsS'names'
p53
(lp54
S'newSectionItem'
p55
asg18
(i__main__
DelphiPrimitiveType
p56
(dp57
g21
S'smallint'
p58
sbsS'parameterVariety'
p59
NsbasS'className'
p60
g41
sS'resultType'
p61
NsS'isClassMethod'
p62
I0
sS'methodType'
p63
S'procedure'
p64
sS'commentLinesBefore'
p65
(lp66
S' v2.1\r'
p67
aS' ----------------------------------------------------------------- PdSection '
p68
asbsS'getname'
p69
(i__main__
DelphiMethodDeclaration
p70
(dp71
g40
S'getName'
p72
sg48
(lp73
sg60
g41
sg61
(i__main__
DelphiPrimitiveType
p74
(dp75
g21
g14
sbsg62
I0
sg63
S'function'
p76
sbsS'setname'
p77
(i__main__
DelphiMethodDeclaration
p78
(dp79
g40
S'setName'
p80
sg48
(lp81
(i__main__
DelphiFormalParameter
p82
(dp83
g52
Nsg53
(lp84
S'newName'
p85
asg18
(i__main__
DelphiPrimitiveType
p86
(dp87
g21
g14
sbsg59
Nsbasg60
g41
sg61
Nsg62
I0
sg63
g64
sbssS'superclassNamedTypes'
p88
(lp89
(i__main__
DelphiNamedType
p90
(dp91
g21
S'TObject'
p92
sS'unitDefinedIn'
p93
g1
sS'unitName'
p94
NsbasS'variableNames'
p95
(dp96
S'showinparameterswindow'
p97
(i__main__
DelphiPrimitiveType
p98
(dp99
g21
S'boolean'
p100
sbsS'name'
p101
(i__main__
DelphiPrimitiveType
p102
(dp103
g21
g14
sbsS'expanded'
p104
(i__main__
DelphiPrimitiveType
p105
(dp106
g21
g100
sbsS'sectionitems'
p107
(i__main__
DelphiArrayType
p108
(dp109
g18
(i__main__
DelphiPrimitiveType
p110
(dp111
g21
g58
sbsS'sizes'
p112
(lp113
(idelphi
DelphiSubrange
p114
(dp115
S'high'
p116
(i__main__
DelphiIdentAccess
p117
(dp118
g16
S'kMaxSectionItems'
p119
sS'endAccessList'
p120
(lp121
sbsS'low'
p122
(idelphi
DelphiIntegerValue
p123
(dp124
g14
S'0'
sbsg40
S''
sbasbsS'isorthogonal'
p125
(i__main__
DelphiPrimitiveType
p126
(dp127
g21
g100
sbsS'numsectionitems'
p128
(i__main__
DelphiPrimitiveType
p129
(dp130
g21
g58
sbssS'methodNamesInDefinedOrder'
p131
(lp132
S'addsectionitem'
p133
aS'getname'
p134
aS'setname'
p135
asS'methodImplementations'
p136
(dp137
S'addsectionitem'
p138
(i__main__
DelphiMethodImplementation
p139
(dp140
S'originalDeclaration'
p141
g45
sg40
g47
sg48
(lp142
(i__main__
DelphiFormalParameter
p143
(dp144
g52
Nsg53
(lp145
S'newSectionItem'
p146
asg18
(i__main__
DelphiPrimitiveType
p147
(dp148
g21
g58
sbsg59
NsbasS'varParamIndexes'
p149
(lp150
sS'varParamsSkipped'
p151
(lp152
sS'argNames'
p153
(lp154
S'self'
p155
ag146
asS'argTypes'
p156
(dp157
g146
g147
ssg60
S'PdSection'
p158
sg61
NsS'varParamNames'
p159
(lp160
sg62
I0
sg63
g64
sS'block'
p161
(i__main__
DelphiBlock
p162
(dp163
S'compoundStatement'
p164
(idelphi
DelphiCompoundStatement
p165
(dp166
S'statements'
p167
(lp168
(i__main__
DelphiIncOrDecStatement
p169
(dp170
S'incOrDecString'
p171
S'inc'
p172
sS'incrementExpression'
p173
NsS'destinationExpression'
p174
(i__main__
DelphiIdentAccess
p175
(dp176
g16
S'numSectionItems'
p177
sg120
(lp178
sbsba(i__main__
DelphiAssignStatement
p179
(dp180
S'newValueExpression'
p181
(i__main__
DelphiIdentAccess
p182
(dp183
g16
S'newSectionItem'
p184
sg120
(lp185
sbsg174
(i__main__
DelphiIdentAccess
p186
(dp187
g16
S'sectionItems'
p188
sg120
(lp189
(idelphi
DelphiArrayEndAccess
p190
(dp191
S'expressionList'
p192
(lp193
(idelphi
DelphiAddOp
p194
(dp195
S'addOp'
p196
S'-'
sS'term2'
p197
(idelphi
DelphiIntegerValue
p198
(dp199
g14
S'1'
sbsS'term1'
p200
(i__main__
DelphiIdentAccess
p201
(dp202
g16
S'numSectionItems'
p203
sg120
(lp204
sbsbasbasbsbasbsS'limitedDeclSectionList'
p205
(lp206
sbsg65
g66
sbsS'getname'
p207
(i__main__
DelphiMethodImplementation
p208
(dp209
g141
g70
sg40
g72
sg48
(lp210
sg149
(lp211
sg151
(lp212
sg153
(lp213
g155
asg156
(dp214
sg60
S'PdSection'
p215
sg61
(i__main__
DelphiPrimitiveType
p216
(dp217
g21
g14
sbsg159
(lp218
sg62
I0
sg63
g76
sg161
(i__main__
DelphiBlock
p219
(dp220
g164
(idelphi
DelphiCompoundStatement
p221
(dp222
g167
(lp223
(i__main__
DelphiAssignStatement
p224
(dp225
g181
(i__main__
DelphiIdentAccess
p226
(dp227
g16
S'self'
p228
sg120
(lp229
(idelphi
DelphiFieldEndAccess
p230
(dp231
S'field'
p232
S'name'
p233
sbasbsg174
(i__main__
DelphiIdentAccess
p234
(dp235
g16
S'result'
p236
sg120
(lp237
sbsbasbsg205
(lp238
sbsbsS'setname'
p239
(i__main__
DelphiMethodImplementation
p240
(dp241
g141
g78
sg40
g80
sg48
(lp242
(i__main__
DelphiFormalParameter
p243
(dp244
g52
Nsg53
(lp245
S'newName'
p246
asg18
(i__main__
DelphiPrimitiveType
p247
(dp248
g21
g14
sbsg59
Nsbasg149
(lp249
sg151
(lp250
sg153
(lp251
g155
ag246
asg156
(dp252
g246
g247
ssg60
S'PdSection'
p253
sg61
Nsg159
(lp254
sg62
I0
sg63
g64
sg161
(i__main__
DelphiBlock
p255
(dp256
g164
(idelphi
DelphiCompoundStatement
p257
(dp258
g167
(lp259
(i__main__
DelphiAssignStatement
p260
(dp261
g181
(i__main__
DelphiIdentAccess
p262
(dp263
g16
S'newName'
p264
sg120
(lp265
sbsg174
(i__main__
DelphiIdentAccess
p266
(dp267
g16
S'name'
p268
sg120
(lp269
sbsbasbsg205
(lp270
sbsbssS'propertyDeclarations'
p271
(dp272
sS'variableNamesInDeclaredOrder'
p273
(lp274
g39
ag35
ag31
ag29
ag33
ag37
asg65
(lp275
S' v2.0 increased\r'
p276
asba(i__main__
DelphiClass
p277
(dp278
g26
(dp279
S'orthogonalsections'
p280
S'orthogonalSections'
p281
sS'sections'
p282
S'sections'
p283
ssg40
S'PdSectionManager'
p284
sg42
(dp285
S'addsection'
p286
(i__main__
DelphiMethodDeclaration
p287
(dp288
g40
S'addSection'
p289
sg48
(lp290
(i__main__
DelphiFormalParameter
p291
(dp292
g52
Nsg53
(lp293
S'aName'
p294
asg18
(i__main__
DelphiPrimitiveType
p295
(dp296
g21
g14
sbsg59
Nsbasg60
g284
sg61
(i__main__
DelphiNamedType
p297
(dp298
g21
S'PdSection'
p299
sg93
g1
sg94
Nsbsg62
I0
sg63
g76
sbsS'addorthogonalsection'
p300
(i__main__
DelphiMethodDeclaration
p301
(dp302
g40
S'addOrthogonalSection'
p303
sg48
(lp304
(i__main__
DelphiFormalParameter
p305
(dp306
g52
Nsg53
(lp307
S'aName'
p308
asg18
(i__main__
DelphiPrimitiveType
p309
(dp310
g21
g14
sbsg59
Nsbasg60
g284
sg61
(i__main__
DelphiNamedType
p311
(dp312
g21
S'PdSection'
p313
sg93
g1
sg94
Nsbsg62
I0
sg63
g76
sbsS'create'
p314
(i__main__
DelphiMethodDeclaration
p315
(dp316
g40
S'create'
p317
sg48
(lp318
sg60
g284
sg61
Nsg62
I0
sg63
S'constructor'
p319
sbsS'parameterforsectionandname'
p320
(i__main__
DelphiMethodDeclaration
p321
(dp322
g40
S'parameterForSectionAndName'
p323
sg48
(lp324
(i__main__
DelphiFormalParameter
p325
(dp326
g52
Nsg53
(lp327
S'aSectionName'
p328
aS'aParameterName'
p329
asg18
(i__main__
DelphiPrimitiveType
p330
(dp331
g21
g14
sbsg59
Nsbasg60
g284
sg61
(i__main__
DelphiNamedType
p332
(dp333
g21
S'PdParameter'
p334
sg93
g1
sg94
Nsbsg62
I0
sg63
g76
sbsS'sectionforname'
p335
(i__main__
DelphiMethodDeclaration
p336
(dp337
g40
S'sectionForName'
p338
sg48
(lp339
(i__main__
DelphiFormalParameter
p340
(dp341
g52
Nsg53
(lp342
S'aName'
p343
asg18
(i__main__
DelphiPrimitiveType
p344
(dp345
g21
g14
sbsg59
Nsbasg60
g284
sg61
(i__main__
DelphiNamedType
p346
(dp347
g21
S'PdSection'
p348
sg93
g1
sg94
Nsbsg62
I0
sg63
g76
sbsS'destroy'
p349
(i__main__
DelphiMethodDeclaration
p350
(dp351
g40
S'destroy'
p352
sg48
(lp353
sg60
g284
sg61
Nsg62
I0
sg63
S'destructor'
p354
sbssg88
(lp355
(i__main__
DelphiNamedType
p356
(dp357
g21
g92
sg93
g1
sg94
Nsbasg95
(dp358
S'orthogonalsections'
p359
(i__main__
DelphiNamedType
p360
(dp361
g21
S'TListCollection'
p362
sg93
g1
sg94
NsbsS'sections'
p363
(i__main__
DelphiNamedType
p364
(dp365
g21
S'TListCollection'
p366
sg93
g1
sg94
Nsbssg131
(lp367
S'create'
p368
aS'destroy'
p369
aS'addsection'
p370
aS'addorthogonalsection'
p371
aS'sectionforname'
p372
aS'parameterforsectionandname'
p373
asg136
(dp374
S'addsection'
p375
(i__main__
DelphiMethodImplementation
p376
(dp377
g141
g287
sg40
g289
sg48
(lp378
(i__main__
DelphiFormalParameter
p379
(dp380
g52
Nsg53
(lp381
S'aName'
p382
asg18
(i__main__
DelphiPrimitiveType
p383
(dp384
g21
g14
sbsg59
Nsbasg149
(lp385
sg151
(lp386
sg153
(lp387
g155
ag382
asg156
(dp388
g382
g383
ssg60
S'PdSectionManager'
p389
sg61
(i__main__
DelphiNamedType
p390
(dp391
g21
S'PdSection'
p392
sg93
g1
sg94
Nsbsg159
(lp393
sg62
I0
sg63
g76
sg161
(i__main__
DelphiBlock
p394
(dp395
g164
(idelphi
DelphiCompoundStatement
p396
(dp397
g167
(lp398
(i__main__
DelphiAssignStatement
p399
(dp400
g181
(i__main__
DelphiIdentAccess
p401
(dp402
g16
S'PdSection'
p403
sg120
(lp404
(idelphi
DelphiFieldEndAccess
p405
(dp406
g232
S'create'
p407
sbasbsg174
(i__main__
DelphiIdentAccess
p408
(dp409
g16
S'section'
p410
sg120
(lp411
sbsba(i__main__
DelphiAssignStatement
p412
(dp413
g181
(i__main__
DelphiIdentAccess
p414
(dp415
g16
S'aName'
p416
sg120
(lp417
sbsg174
(i__main__
DelphiIdentAccess
p418
(dp419
g16
S'section'
p420
sg120
(lp421
(idelphi
DelphiFieldEndAccess
p422
(dp423
g232
S'name'
p424
sbasbsba(i__main__
DelphiAssignStatement
p425
(dp426
g181
Nsg174
(i__main__
DelphiIdentAccess
p427
(dp428
g16
S'sections'
p429
sg120
(lp430
(idelphi
DelphiFieldEndAccess
p431
(dp432
g232
S'add'
p433
sba(idelphi
DelphiFunctionEndAccess
p434
(dp435
g192
(lp436
(i__main__
DelphiIdentAccess
p437
(dp438
g16
S'section'
p439
sg120
(lp440
sbasbasbsba(i__main__
DelphiAssignStatement
p441
(dp442
g181
(i__main__
DelphiIdentAccess
p443
(dp444
g16
S'section'
p445
sg120
(lp446
sbsg174
(i__main__
DelphiIdentAccess
p447
(dp448
g16
S'result'
p449
sg120
(lp450
sbsbasbsg205
(lp451
(i__main__
DelphiVarSection
p452
(dp453
g23
I0
sS'varDeclList'
p454
(lp455
(idelphi
DelphiVarDecl
p456
(dp457
g11
NsS'identList'
p458
(lp459
S'section'
p460
asg18
(i__main__
DelphiNamedType
p461
(dp462
g21
S'PdSection'
p463
sg93
g1
sg94
NsbsbasbasbsbsS'addorthogonalsection'
p464
(i__main__
DelphiMethodImplementation
p465
(dp466
g141
g301
sg40
g303
sg48
(lp467
(i__main__
DelphiFormalParameter
p468
(dp469
g52
Nsg53
(lp470
S'aName'
p471
asg18
(i__main__
DelphiPrimitiveType
p472
(dp473
g21
g14
sbsg59
Nsbasg149
(lp474
sg151
(lp475
sg153
(lp476
g155
ag471
asg156
(dp477
g471
g472
ssg60
S'PdSectionManager'
p478
sg61
(i__main__
DelphiNamedType
p479
(dp480
g21
S'PdSection'
p481
sg93
g1
sg94
Nsbsg159
(lp482
sg62
I0
sg63
g76
sg161
(i__main__
DelphiBlock
p483
(dp484
g164
(idelphi
DelphiCompoundStatement
p485
(dp486
g167
(lp487
(i__main__
DelphiAssignStatement
p488
(dp489
g181
(i__main__
DelphiIdentAccess
p490
(dp491
g16
S'PdSection'
p492
sg120
(lp493
(idelphi
DelphiFieldEndAccess
p494
(dp495
g232
S'create'
p496
sbasbsg174
(i__main__
DelphiIdentAccess
p497
(dp498
g16
S'section'
p499
sg120
(lp500
sbsba(i__main__
DelphiAssignStatement
p501
(dp502
g181
(i__main__
DelphiIdentAccess
p503
(dp504
g16
S'aName'
p505
sg120
(lp506
sbsg174
(i__main__
DelphiIdentAccess
p507
(dp508
g16
S'section'
p509
sg120
(lp510
(idelphi
DelphiFieldEndAccess
p511
(dp512
g232
S'name'
p513
sbasbsba(i__main__
DelphiAssignStatement
p514
(dp515
g181
Nsg174
(i__main__
DelphiIdentAccess
p516
(dp517
g16
S'orthogonalSections'
p518
sg120
(lp519
(idelphi
DelphiFieldEndAccess
p520
(dp521
g232
S'add'
p522
sba(idelphi
DelphiFunctionEndAccess
p523
(dp524
g192
(lp525
(i__main__
DelphiIdentAccess
p526
(dp527
g16
S'section'
p528
sg120
(lp529
sbasbasbsba(i__main__
DelphiAssignStatement
p530
(dp531
g181
Nsg174
(i__main__
DelphiIdentAccess
p532
(dp533
g16
S'domain'
p534
sg120
(lp535
(idelphi
DelphiFieldEndAccess
p536
(dp537
g232
S'parameterManager'
p538
sba(idelphi
DelphiFieldEndAccess
p539
(dp540
g232
S'addParameterForSection'
p541
sba(idelphi
DelphiFunctionEndAccess
p542
(dp543
g192
(lp544
(i__main__
DelphiIdentAccess
p545
(dp546
g16
S'section'
p547
sg120
(lp548
(idelphi
DelphiFieldEndAccess
p549
(dp550
g232
S'name'
p551
sbasba(idelphi
DelphiStringAccess
p552
(dp553
g120
(lp554
sg14
(idelphi
DelphiStringValue
p555
(dp556
g14
S''
sbsba(i__main__
DelphiIdentAccess
p557
(dp558
g16
S'PdParameter'
p559
sg120
(lp560
(idelphi
DelphiFieldEndAccess
p561
(dp562
g232
S'make'
p563
sba(idelphi
DelphiFunctionEndAccess
p564
(dp565
g192
(lp566
(idelphi
DelphiAddOp
p567
(dp568
g196
S'+'
sg197
(i__main__
DelphiIdentAccess
p569
(dp570
g16
S'orthogonalSections'
p571
sg120
(lp572
(idelphi
DelphiFieldEndAccess
p573
(dp574
g232
S'count'
p575
sbasbsg200
(idelphi
DelphiIntegerValue
p576
(dp577
g14
S'1000'
p578
sbsba(idelphi
DelphiStringAccess
p579
(dp580
g120
(lp581
sg14
(idelphi
DelphiStringValue
p582
(dp583
g14
S'header'
p584
sbsba(i__main__
DelphiIdentAccess
p585
(dp586
g16
S'section'
p587
sg120
(lp588
(idelphi
DelphiFieldEndAccess
p589
(dp590
g232
S'name'
p591
sbasba(idelphi
DelphiIntegerValue
p592
(dp593
g14
S'7'
sba(idelphi
DelphiIntegerValue
p594
(dp595
g14
S'0'
sba(idelphi
DelphiIntegerValue
p596
(dp597
g14
S'0'
sba(idelphi
DelphiIntegerValue
p598
(dp599
g14
S'0'
sba(idelphi
DelphiIntegerValue
p600
(dp601
g14
S'0'
sba(idelphi
DelphiIntegerValue
p602
(dp603
g14
S'0'
sba(idelphi
DelphiRealValue
p604
(dp605
g14
S'0.00000000'
p606
sba(idelphi
DelphiRealValue
p607
(dp608
g14
S'0.00000000'
p609
sba(idelphi
DelphiStringAccess
p610
(dp611
g120
(lp612
sg14
(idelphi
DelphiStringValue
p613
(dp614
g14
S''
sbsba(i__main__
DelphiIdentAccess
p615
(dp616
g16
S'false'
p617
sg120
(lp618
sba(i__main__
DelphiIdentAccess
p619
(dp620
g16
S'false'
p621
sg120
(lp622
sba(idelphi
DelphiStringAccess
p623
(dp624
g120
(lp625
sg14
(idelphi
DelphiStringValue
p626
(dp627
g14
S''
sbsba(idelphi
DelphiIntegerValue
p628
(dp629
g14
S'0'
sba(idelphi
DelphiStringAccess
p630
(dp631
g120
(lp632
sg14
(idelphi
DelphiStringValue
p633
(dp634
g14
S'These parameters can also be found in other (main) sections, but you may want to look at together here.'
p635
sbsbasbasbasbasbsg65
(lp636
S' put in one header param so they can easily open and close all the items\r'
p637
aS'header type'
p638
asba(i__main__
DelphiAssignStatement
p639
(dp640
g181
(i__main__
DelphiIdentAccess
p641
(dp642
g16
S'section'
p643
sg120
(lp644
sbsg174
(i__main__
DelphiIdentAccess
p645
(dp646
g16
S'result'
p647
sg120
(lp648
sbsbasbsg205
(lp649
(i__main__
DelphiVarSection
p650
(dp651
g23
I0
sg454
(lp652
(idelphi
DelphiVarDecl
p653
(dp654
g11
Nsg458
(lp655
S'section'
p656
asg18
(i__main__
DelphiNamedType
p657
(dp658
g21
S'PdSection'
p659
sg93
g1
sg94
Nsbsba(idelphi
DelphiVarDecl
p660
(dp661
g11
Nsg458
(lp662
S'i'
asg18
(i__main__
DelphiPrimitiveType
p663
(dp664
g21
g58
sbsbasbasbsg65
(lp665
S' v2.1\r'
p666
asbsS'create'
p667
(i__main__
DelphiMethodImplementation
p668
(dp669
g141
g315
sg40
g317
sg48
(lp670
sg149
(lp671
sg151
(lp672
sg153
(lp673
g155
asg156
(dp674
sg60
S'PdSectionManager'
p675
sg61
Nsg159
(lp676
sg62
I0
sg63
g319
sg161
(i__main__
DelphiBlock
p677
(dp678
g164
(idelphi
DelphiCompoundStatement
p679
(dp680
g167
(lp681
(i__main__
DelphiAssignStatement
p682
(dp683
g181
Nsg174
(idelphi
DelphiInheritedCall
p684
(dp685
g16
S'create'
p686
sg192
Nsbsba(i__main__
DelphiAssignStatement
p687
(dp688
g181
(i__main__
DelphiIdentAccess
p689
(dp690
g16
S'TListCollection'
p691
sg120
(lp692
(idelphi
DelphiFieldEndAccess
p693
(dp694
g232
S'create'
p695
sbasbsg174
(i__main__
DelphiIdentAccess
p696
(dp697
g16
S'sections'
p698
sg120
(lp699
sbsba(i__main__
DelphiAssignStatement
p700
(dp701
g181
(i__main__
DelphiIdentAccess
p702
(dp703
g16
S'TListCollection'
p704
sg120
(lp705
(idelphi
DelphiFieldEndAccess
p706
(dp707
g232
S'create'
p708
sbasbsg174
(i__main__
DelphiIdentAccess
p709
(dp710
g16
S'orthogonalSections'
p711
sg120
(lp712
sbsg65
(lp713
S' v2.1\r'
p714
asbasbsg205
(lp715
sbsg65
(lp716
S' ----------------------------------------------------------------- PdSectionManager '
p717
asbsS'parameterforsectionandname'
p718
(i__main__
DelphiMethodImplementation
p719
(dp720
g141
g321
sg40
g323
sg48
(lp721
(i__main__
DelphiFormalParameter
p722
(dp723
g52
Nsg53
(lp724
S'aSectionName'
p725
aS'aParameterName'
p726
asg18
(i__main__
DelphiPrimitiveType
p727
(dp728
g21
g14
sbsg59
Nsbasg149
(lp729
sg151
(lp730
sg153
(lp731
g155
ag725
ag726
asg156
(dp732
g725
g727
sg726
g727
ssg60
S'PdSectionManager'
p733
sg61
(i__main__
DelphiNamedType
p734
(dp735
g21
S'PdParameter'
p736
sg93
g1
sg94
Nsbsg159
(lp737
sg62
I0
sg63
g76
sg161
(i__main__
DelphiBlock
p738
(dp739
g164
(idelphi
DelphiCompoundStatement
p740
(dp741
g167
(lp742
(i__main__
DelphiAssignStatement
p743
(dp744
g181
(idelphi
DelphiNilValue
p745
(dp746
bsg174
(i__main__
DelphiIdentAccess
p747
(dp748
g16
S'result'
p749
sg120
(lp750
sbsba(idelphi
DelphiIfStatement
p751
(dp752
S'expression'
p753
(idelphi
DelphiRelOp
p754
(dp755
S'simpleExpression1'
p756
(i__main__
DelphiIdentAccess
p757
(dp758
g16
S'aSectionName'
p759
sg120
(lp760
sbsS'simpleExpression2'
p761
(idelphi
DelphiStringAccess
p762
(dp763
g120
(lp764
sg14
(idelphi
DelphiStringValue
p765
(dp766
g14
S''
sbsbsS'relOp'
p767
S'='
sbsS'ifFalseStatement'
p768
(idelphi
DelphiIfStatement
p769
(dp770
g753
(idelphi
DelphiRelOp
p771
(dp772
g756
(i__main__
DelphiIdentAccess
p773
(dp774
g16
S'sections'
p775
sg120
(lp776
(idelphi
DelphiFieldEndAccess
p777
(dp778
g232
S'count'
p779
sbasbsg761
(idelphi
DelphiIntegerValue
p780
(dp781
g14
S'0'
sbsg767
S'>'
sbsg768
NsS'ifTrueStatement'
p782
(idelphi
DelphiForStatement
p783
(dp784
S'variable'
p785
S'i'
sS'finalValue'
p786
(idelphi
DelphiAddOp
p787
(dp788
g196
S'-'
sg197
(idelphi
DelphiIntegerValue
p789
(dp790
g14
S'1'
sbsg200
(i__main__
DelphiIdentAccess
p791
(dp792
g16
S'sections'
p793
sg120
(lp794
(idelphi
DelphiFieldEndAccess
p795
(dp796
g232
S'count'
p797
sbasbsbsS'direction'
p798
S'to'
p799
sg52
(idelphi
DelphiIntegerValue
p800
(dp801
g14
S'0'
sbsS'statement'
p802
(idelphi
DelphiCompoundStatement
p803
(dp804
g167
(lp805
(i__main__
DelphiAssignStatement
p806
(dp807
g181
(i__main__
DelphiIdentAccess
p808
(dp809
g16
S'PdSection'
p810
sg120
(lp811
(idelphi
DelphiFunctionEndAccess
p812
(dp813
g192
(lp814
(i__main__
DelphiIdentAccess
p815
(dp816
g16
S'sections'
p817
sg120
(lp818
(idelphi
DelphiFieldEndAccess
p819
(dp820
g232
S'items'
p821
sba(idelphi
DelphiArrayEndAccess
p822
(dp823
g192
(lp824
(i__main__
DelphiIdentAccess
p825
(dp826
g16
S'i'
sg120
(lp827
sbasbasbasbasbsg174
(i__main__
DelphiIdentAccess
p828
(dp829
g16
S'section'
p830
sg120
(lp831
sbsba(idelphi
DelphiIfStatement
p832
(dp833
g753
(idelphi
DelphiRelOp
p834
(dp835
g756
(i__main__
DelphiIdentAccess
p836
(dp837
g16
S'aSectionName'
p838
sg120
(lp839
sbsg761
(i__main__
DelphiIdentAccess
p840
(dp841
g16
S'section'
p842
sg120
(lp843
(idelphi
DelphiFieldEndAccess
p844
(dp845
g232
S'name'
p846
sbasbsg767
S'='
sbsg768
Nsg782
(idelphi
DelphiCompoundStatement
p847
(dp848
g167
(lp849
(idelphi
DelphiForStatement
p850
(dp851
g785
S'j'
sg786
(idelphi
DelphiAddOp
p852
(dp853
g196
S'-'
sg197
(idelphi
DelphiIntegerValue
p854
(dp855
g14
S'1'
sbsg200
(i__main__
DelphiIdentAccess
p856
(dp857
g16
S'section'
p858
sg120
(lp859
(idelphi
DelphiFieldEndAccess
p860
(dp861
g232
S'numSectionItems'
p862
sbasbsbsg798
g799
sg52
(idelphi
DelphiIntegerValue
p863
(dp864
g14
S'0'
sbsg802
(idelphi
DelphiCompoundStatement
p865
(dp866
g167
(lp867
(i__main__
DelphiAssignStatement
p868
(dp869
g181
(i__main__
DelphiIdentAccess
p870
(dp871
g16
S'section'
p872
sg120
(lp873
(idelphi
DelphiFieldEndAccess
p874
(dp875
g232
S'sectionItems'
p876
sba(idelphi
DelphiArrayEndAccess
p877
(dp878
g192
(lp879
(i__main__
DelphiIdentAccess
p880
(dp881
g16
S'j'
sg120
(lp882
sbasbasbsg174
(i__main__
DelphiIdentAccess
p883
(dp884
g16
S'fieldNumber'
p885
sg120
(lp886
sbsba(i__main__
DelphiAssignStatement
p887
(dp888
g181
(idelphi
DelphiNilValue
p889
(dp890
bsg174
(i__main__
DelphiIdentAccess
p891
(dp892
g16
S'parameter'
p893
sg120
(lp894
sbsba(i__main__
DelphiAssignStatement
p895
(dp896
g181
(i__main__
DelphiIdentAccess
p897
(dp898
g16
S'domain'
p899
sg120
(lp900
(idelphi
DelphiFieldEndAccess
p901
(dp902
g232
S'parameterManager'
p903
sba(idelphi
DelphiFieldEndAccess
p904
(dp905
g232
S'parameterForFieldNumber'
p906
sba(idelphi
DelphiFunctionEndAccess
p907
(dp908
g192
(lp909
(i__main__
DelphiIdentAccess
p910
(dp911
g16
S'fieldNumber'
p912
sg120
(lp913
sbasbasbsg174
(i__main__
DelphiIdentAccess
p914
(dp915
g16
S'parameter'
p916
sg120
(lp917
sbsba(idelphi
DelphiIfStatement
p918
(dp919
g753
(idelphi
DelphiMulOp
p920
(dp921
S'signedFactor2'
p922
(idelphi
DelphiNestedExpressionListAccess
p923
(dp924
g120
(lp925
sg192
(lp926
(idelphi
DelphiRelOp
p927
(dp928
g756
(i__main__
DelphiIdentAccess
p929
(dp930
g16
S'parameter'
p931
sg120
(lp932
(idelphi
DelphiFieldEndAccess
p933
(dp934
g232
S'name'
p935
sbasbsg761
(i__main__
DelphiIdentAccess
p936
(dp937
g16
S'aParameterName'
p938
sg120
(lp939
sbsg767
S'='
sbasbsS'mulOp'
p940
S'and'
p941
sS'signedFactor1'
p942
(idelphi
DelphiNestedExpressionListAccess
p943
(dp944
g120
(lp945
sg192
(lp946
(idelphi
DelphiRelOp
p947
(dp948
g756
(i__main__
DelphiIdentAccess
p949
(dp950
g16
S'parameter'
p951
sg120
(lp952
sbsg761
(idelphi
DelphiNilValue
p953
(dp954
bsg767
S'<>'
p955
sbasbsbsg768
Nsg782
(idelphi
DelphiCompoundStatement
p956
(dp957
g167
(lp958
(i__main__
DelphiAssignStatement
p959
(dp960
g181
(i__main__
DelphiIdentAccess
p961
(dp962
g16
S'parameter'
p963
sg120
(lp964
sbsg174
(i__main__
DelphiIdentAccess
p965
(dp966
g16
S'result'
p967
sg120
(lp968
sbsba(i__main__
DelphiExitStatement
p969
(dp970
S'proceduralOrMethodImplementation'
p971
g719
sbasbsbasbsbasbsbasbsbsbsg782
(idelphi
DelphiCompoundStatement
p972
(dp973
g167
(lp974
(i__main__
DelphiAssignStatement
p975
(dp976
g181
(idelphi
DelphiNilValue
p977
(dp978
bsg174
(i__main__
DelphiIdentAccess
p979
(dp980
g16
S'parameter'
p981
sg120
(lp982
sbsg65
(lp983
S' a stab at backward compatibility - if no section name, try to find param anyway\r'
p984
asba(i__main__
DelphiAssignStatement
p985
(dp986
g181
(i__main__
DelphiIdentAccess
p987
(dp988
g16
S'domain'
p989
sg120
(lp990
(idelphi
DelphiFieldEndAccess
p991
(dp992
g232
S'parameterManager'
p993
sba(idelphi
DelphiFieldEndAccess
p994
(dp995
g232
S'parameterForName'
p996
sba(idelphi
DelphiFunctionEndAccess
p997
(dp998
g192
(lp999
(i__main__
DelphiIdentAccess
p1000
(dp1001
g16
S'aParameterName'
p1002
sg120
(lp1003
sbasbasbsg174
(i__main__
DelphiIdentAccess
p1004
(dp1005
g16
S'parameter'
p1006
sg120
(lp1007
sbsba(idelphi
DelphiIfStatement
p1008
(dp1009
g753
(idelphi
DelphiRelOp
p1010
(dp1011
g756
(i__main__
DelphiIdentAccess
p1012
(dp1013
g16
S'parameter'
p1014
sg120
(lp1015
sbsg761
(idelphi
DelphiNilValue
p1016
(dp1017
bsg767
g955
sbsg768
Nsg782
(idelphi
DelphiCompoundStatement
p1018
(dp1019
g167
(lp1020
(i__main__
DelphiAssignStatement
p1021
(dp1022
g181
(i__main__
DelphiIdentAccess
p1023
(dp1024
g16
S'parameter'
p1025
sg120
(lp1026
sbsg174
(i__main__
DelphiIdentAccess
p1027
(dp1028
g16
S'result'
p1029
sg120
(lp1030
sbsba(i__main__
DelphiExitStatement
p1031
(dp1032
g971
g719
sbasbsbasbsbasbsg205
(lp1033
(i__main__
DelphiVarSection
p1034
(dp1035
g23
I0
sg454
(lp1036
(idelphi
DelphiVarDecl
p1037
(dp1038
g11
Nsg458
(lp1039
S'i'
aS'j'
aS'fieldNumber'
p1040
asg18
(i__main__
DelphiPrimitiveType
p1041
(dp1042
g21
g58
sbsba(idelphi
DelphiVarDecl
p1043
(dp1044
g11
Nsg458
(lp1045
S'section'
p1046
asg18
(i__main__
DelphiNamedType
p1047
(dp1048
g21
S'PdSection'
p1049
sg93
g1
sg94
Nsbsba(idelphi
DelphiVarDecl
p1050
(dp1051
g11
Nsg458
(lp1052
S'parameter'
p1053
asg18
(i__main__
DelphiNamedType
p1054
(dp1055
g21
S'PdParameter'
p1056
sg93
g1
sg94
Nsbsbasbasbsg65
(lp1057
S' v2.1 override changed to use section and parameter name\r'
p1058
asbsS'sectionforname'
p1059
(i__main__
DelphiMethodImplementation
p1060
(dp1061
g141
g336
sg40
g338
sg48
(lp1062
(i__main__
DelphiFormalParameter
p1063
(dp1064
g52
Nsg53
(lp1065
S'aName'
p1066
asg18
(i__main__
DelphiPrimitiveType
p1067
(dp1068
g21
g14
sbsg59
Nsbasg149
(lp1069
sg151
(lp1070
sg153
(lp1071
g155
ag1066
asg156
(dp1072
g1066
g1067
ssg60
S'PdSectionManager'
p1073
sg61
(i__main__
DelphiNamedType
p1074
(dp1075
g21
S'PdSection'
p1076
sg93
g1
sg94
Nsbsg159
(lp1077
sg62
I0
sg63
g76
sg161
(i__main__
DelphiBlock
p1078
(dp1079
g164
(idelphi
DelphiCompoundStatement
p1080
(dp1081
g167
(lp1082
(i__main__
DelphiAssignStatement
p1083
(dp1084
g181
(idelphi
DelphiNilValue
p1085
(dp1086
bsg174
(i__main__
DelphiIdentAccess
p1087
(dp1088
g16
S'result'
p1089
sg120
(lp1090
sbsba(idelphi
DelphiIfStatement
p1091
(dp1092
g753
(idelphi
DelphiRelOp
p1093
(dp1094
g756
(i__main__
DelphiIdentAccess
p1095
(dp1096
g16
S'sections'
p1097
sg120
(lp1098
(idelphi
DelphiFieldEndAccess
p1099
(dp1100
g232
S'count'
p1101
sbasbsg761
(idelphi
DelphiIntegerValue
p1102
(dp1103
g14
S'0'
sbsg767
S'>'
sbsg768
Nsg782
(idelphi
DelphiForStatement
p1104
(dp1105
g785
S'i'
sg786
(idelphi
DelphiAddOp
p1106
(dp1107
g196
S'-'
sg197
(idelphi
DelphiIntegerValue
p1108
(dp1109
g14
S'1'
sbsg200
(i__main__
DelphiIdentAccess
p1110
(dp1111
g16
S'sections'
p1112
sg120
(lp1113
(idelphi
DelphiFieldEndAccess
p1114
(dp1115
g232
S'count'
p1116
sbasbsbsg798
g799
sg52
(idelphi
DelphiIntegerValue
p1117
(dp1118
g14
S'0'
sbsg802
(idelphi
DelphiCompoundStatement
p1119
(dp1120
g167
(lp1121
(i__main__
DelphiAssignStatement
p1122
(dp1123
g181
(i__main__
DelphiIdentAccess
p1124
(dp1125
g16
S'PdSection'
p1126
sg120
(lp1127
(idelphi
DelphiFunctionEndAccess
p1128
(dp1129
g192
(lp1130
(i__main__
DelphiIdentAccess
p1131
(dp1132
g16
S'sections'
p1133
sg120
(lp1134
(idelphi
DelphiFieldEndAccess
p1135
(dp1136
g232
S'items'
p1137
sba(idelphi
DelphiArrayEndAccess
p1138
(dp1139
g192
(lp1140
(i__main__
DelphiIdentAccess
p1141
(dp1142
g16
S'i'
sg120
(lp1143
sbasbasbasbasbsg174
(i__main__
DelphiIdentAccess
p1144
(dp1145
g16
S'section'
p1146
sg120
(lp1147
sbsba(idelphi
DelphiIfStatement
p1148
(dp1149
g753
(idelphi
DelphiRelOp
p1150
(dp1151
g756
(i__main__
DelphiIdentAccess
p1152
(dp1153
g16
S'aName'
p1154
sg120
(lp1155
sbsg761
(i__main__
DelphiIdentAccess
p1156
(dp1157
g16
S'section'
p1158
sg120
(lp1159
(idelphi
DelphiFieldEndAccess
p1160
(dp1161
g232
S'name'
p1162
sbasbsg767
S'='
sbsg768
Nsg782
(idelphi
DelphiCompoundStatement
p1163
(dp1164
g167
(lp1165
(i__main__
DelphiAssignStatement
p1166
(dp1167
g181
(i__main__
DelphiIdentAccess
p1168
(dp1169
g16
S'section'
p1170
sg120
(lp1171
sbsg174
(i__main__
DelphiIdentAccess
p1172
(dp1173
g16
S'result'
p1174
sg120
(lp1175
sbsba(i__main__
DelphiExitStatement
p1176
(dp1177
g971
g1060
sbasbsbasbsbsba(idelphi
DelphiIfStatement
p1178
(dp1179
g753
(idelphi
DelphiRelOp
p1180
(dp1181
g756
(i__main__
DelphiIdentAccess
p1182
(dp1183
g16
S'orthogonalSections'
p1184
sg120
(lp1185
(idelphi
DelphiFieldEndAccess
p1186
(dp1187
g232
S'count'
p1188
sbasbsg761
(idelphi
DelphiIntegerValue
p1189
(dp1190
g14
S'0'
sbsg767
S'>'
sbsg768
Nsg782
(idelphi
DelphiForStatement
p1191
(dp1192
g785
S'i'
sg786
(idelphi
DelphiAddOp
p1193
(dp1194
g196
S'-'
sg197
(idelphi
DelphiIntegerValue
p1195
(dp1196
g14
S'1'
sbsg200
(i__main__
DelphiIdentAccess
p1197
(dp1198
g16
S'orthogonalSections'
p1199
sg120
(lp1200
(idelphi
DelphiFieldEndAccess
p1201
(dp1202
g232
S'count'
p1203
sbasbsbsg798
g799
sg52
(idelphi
DelphiIntegerValue
p1204
(dp1205
g14
S'0'
sbsg802
(idelphi
DelphiCompoundStatement
p1206
(dp1207
g167
(lp1208
(i__main__
DelphiAssignStatement
p1209
(dp1210
g181
(i__main__
DelphiIdentAccess
p1211
(dp1212
g16
S'PdSection'
p1213
sg120
(lp1214
(idelphi
DelphiFunctionEndAccess
p1215
(dp1216
g192
(lp1217
(i__main__
DelphiIdentAccess
p1218
(dp1219
g16
S'orthogonalSections'
p1220
sg120
(lp1221
(idelphi
DelphiFieldEndAccess
p1222
(dp1223
g232
S'items'
p1224
sba(idelphi
DelphiArrayEndAccess
p1225
(dp1226
g192
(lp1227
(i__main__
DelphiIdentAccess
p1228
(dp1229
g16
S'i'
sg120
(lp1230
sbasbasbasbasbsg174
(i__main__
DelphiIdentAccess
p1231
(dp1232
g16
S'section'
p1233
sg120
(lp1234
sbsg65
(lp1235
S' v2.1\r'
p1236
asba(idelphi
DelphiIfStatement
p1237
(dp1238
g753
(idelphi
DelphiRelOp
p1239
(dp1240
g756
(i__main__
DelphiIdentAccess
p1241
(dp1242
g16
S'aName'
p1243
sg120
(lp1244
sbsg761
(i__main__
DelphiIdentAccess
p1245
(dp1246
g16
S'section'
p1247
sg120
(lp1248
(idelphi
DelphiFieldEndAccess
p1249
(dp1250
g232
S'name'
p1251
sbasbsg767
S'='
sbsg768
Nsg782
(idelphi
DelphiCompoundStatement
p1252
(dp1253
g167
(lp1254
(i__main__
DelphiAssignStatement
p1255
(dp1256
g181
(i__main__
DelphiIdentAccess
p1257
(dp1258
g16
S'section'
p1259
sg120
(lp1260
sbsg174
(i__main__
DelphiIdentAccess
p1261
(dp1262
g16
S'result'
p1263
sg120
(lp1264
sbsba(i__main__
DelphiExitStatement
p1265
(dp1266
g971
g1060
sbasbsbasbsbsbasbsg205
(lp1267
(i__main__
DelphiVarSection
p1268
(dp1269
g23
I0
sg454
(lp1270
(idelphi
DelphiVarDecl
p1271
(dp1272
g11
Nsg458
(lp1273
S'i'
asg18
(i__main__
DelphiPrimitiveType
p1274
(dp1275
g21
g58
sbsba(idelphi
DelphiVarDecl
p1276
(dp1277
g11
Nsg458
(lp1278
S'section'
p1279
asg18
(i__main__
DelphiNamedType
p1280
(dp1281
g21
S'PdSection'
p1282
sg93
g1
sg94
NsbsbasbasbsbsS'destroy'
p1283
(i__main__
DelphiMethodImplementation
p1284
(dp1285
g141
g350
sg40
g352
sg48
(lp1286
sg149
(lp1287
sg151
(lp1288
sg153
(lp1289
g155
asg156
(dp1290
sg60
S'PdSectionManager'
p1291
sg61
Nsg159
(lp1292
sg62
I0
sg63
g354
sg161
(i__main__
DelphiBlock
p1293
(dp1294
g164
(idelphi
DelphiCompoundStatement
p1295
(dp1296
g167
(lp1297
(i__main__
DelphiAssignStatement
p1298
(dp1299
g181
Nsg174
(i__main__
DelphiIdentAccess
p1300
(dp1301
g16
S'sections'
p1302
sg120
(lp1303
(idelphi
DelphiFieldEndAccess
p1304
(dp1305
g232
S'free'
p1306
sbasbsba(i__main__
DelphiAssignStatement
p1307
(dp1308
g181
(idelphi
DelphiNilValue
p1309
(dp1310
bsg174
(i__main__
DelphiIdentAccess
p1311
(dp1312
g16
S'sections'
p1313
sg120
(lp1314
sbsba(i__main__
DelphiAssignStatement
p1315
(dp1316
g181
Nsg174
(i__main__
DelphiIdentAccess
p1317
(dp1318
g16
S'orthogonalSections'
p1319
sg120
(lp1320
(idelphi
DelphiFieldEndAccess
p1321
(dp1322
g232
S'free'
p1323
sbasbsg65
(lp1324
S' v2.1\r'
p1325
asba(i__main__
DelphiAssignStatement
p1326
(dp1327
g181
(idelphi
DelphiNilValue
p1328
(dp1329
bsg174
(i__main__
DelphiIdentAccess
p1330
(dp1331
g16
S'orthogonalSections'
p1332
sg120
(lp1333
sbsba(i__main__
DelphiAssignStatement
p1334
(dp1335
g181
Nsg174
(idelphi
DelphiInheritedCall
p1336
(dp1337
g16
S'destroy'
p1338
sg192
Nsbsbasbsg205
(lp1339
sbsbssg271
(dp1340
sg273
(lp1341
g283
ag281
asbasS'includedUnits'
p1342
NsS'implementationUses'
p1343
(lp1344
S'SysUtils'
p1345
aS'udomain'
p1346
aS'udebug'
p1347
asg40
S'Usection'
p1348
sS'constSections'
p1349
(lp1350
g5
asS'globalsInProperCase'
p1351
NsS'interfaceUses'
p1352
(lp1353
S'delphi_compatability'
p1354
aS'ucollect'
p1355
aS'uparams'
p1356
asS'finalCommentToken'
p1357
(i__main__
PassStatement
p1358
(dp1359
g205
(lp1360
sbsS'varSections'
p1361
(lp1362
sS'globals'
p1363
NsS'originalFileName'
p1364
S'../../PlantStudioInPython/converted_source/used/usection.pas'
p1365
sS'proceduralImplementations'
p1366
(dp1367
sS'fileName'
p1368
S'/Users/pdf/Documents/workspace/PlantStudioInPython/converted_source/used/usection.pas'
p1369
sS'proceduralDeclarations'
p1370
(dp1371
sS'types'
p1372
(dp1373
S'pdsection'
p1374
g24
sS'pdsectionmanager'
p1375
g277
ssb.