(i__main__
DelphiUnit
p1
(dp2
S'sectionsInOrderDefined'
p3
(lp4
(i__main__
DelphiClass
p5
(dp6
S'variableNamesInProperCase'
p7
(dp8
S'source'
p9
S'source'
p10
sS'remainder'
p11
S'remainder'
p12
sS'separator'
p13
S'separator'
p14
ssS'name'
p15
S'KfStringStream'
p16
sS'methodDeclarations'
p17
(dp18
S'nextinteger'
p19
(i__main__
DelphiMethodDeclaration
p20
(dp21
g15
S'nextInteger'
p22
sS'formalParameters'
p23
(lp24
sS'className'
p25
g16
sS'resultType'
p26
(i__main__
DelphiPrimitiveType
p27
(dp28
S'typeName'
p29
S'longint'
p30
sbsS'isClassMethod'
p31
I0
sS'methodType'
p32
S'function'
p33
sbsS'onstring'
p34
(i__main__
DelphiMethodDeclaration
p35
(dp36
g15
S'onString'
p37
sg23
(lp38
(i__main__
DelphiFormalParameter
p39
(dp40
S'initialValue'
p41
NsS'names'
p42
(lp43
S'aString'
p44
asS'theType'
p45
(i__main__
DelphiPrimitiveType
p46
(dp47
g29
S'string'
p48
sbsS'parameterVariety'
p49
Nsbasg25
g16
sg26
Nsg31
I0
sg32
S'procedure'
p50
sbsS'onstringseparator'
p51
(i__main__
DelphiMethodDeclaration
p52
(dp53
g15
S'onStringSeparator'
p54
sg23
(lp55
(i__main__
DelphiFormalParameter
p56
(dp57
g41
Nsg42
(lp58
S'aString'
p59
asg45
(i__main__
DelphiPrimitiveType
p60
(dp61
g29
g48
sbsg49
Nsba(i__main__
DelphiFormalParameter
p62
(dp63
g41
Nsg42
(lp64
S'aSeparator'
p65
asg45
(i__main__
DelphiPrimitiveType
p66
(dp67
g29
g48
sbsg49
Nsbasg25
g16
sg26
Nsg31
I0
sg32
g50
sbsS'skipwhitespace'
p68
(i__main__
DelphiMethodDeclaration
p69
(dp70
g15
S'skipWhiteSpace'
p71
sg23
(lp72
sg25
g16
sg26
Nsg31
I0
sg32
g50
sbsS'nextsingle'
p73
(i__main__
DelphiMethodDeclaration
p74
(dp75
g15
S'nextSingle'
p76
sg23
(lp77
sg25
g16
sg26
(i__main__
DelphiPrimitiveType
p78
(dp79
g29
S'single'
p80
sbsg31
I0
sg32
g33
sbsS'createfromstring'
p81
(i__main__
DelphiMethodDeclaration
p82
(dp83
g15
S'createFromString'
p84
sg23
(lp85
(i__main__
DelphiFormalParameter
p86
(dp87
g41
Nsg42
(lp88
S'aString'
p89
asg45
(i__main__
DelphiPrimitiveType
p90
(dp91
g29
g48
sbsg49
Nsbasg25
g16
sg26
Nsg31
I0
sg32
S'constructor'
p92
sbsS'nextcharacter'
p93
(i__main__
DelphiMethodDeclaration
p94
(dp95
g15
S'nextCharacter'
p96
sg23
(lp97
sg25
g16
sg26
(i__main__
DelphiPrimitiveType
p98
(dp99
g29
S'char'
p100
sbsg31
I0
sg32
g33
sbsS'empty'
p101
(i__main__
DelphiMethodDeclaration
p102
(dp103
g15
S'empty'
p104
sg23
(lp105
sg25
g16
sg26
(i__main__
DelphiPrimitiveType
p106
(dp107
g29
S'boolean'
p108
sbsg31
I0
sg32
g33
sbsS'skipspaces'
p109
(i__main__
DelphiMethodDeclaration
p110
(dp111
g15
S'skipSpaces'
p112
sg23
(lp113
sg25
g16
sg26
Nsg31
I0
sg32
g50
sbsS'nexttoken'
p114
(i__main__
DelphiMethodDeclaration
p115
(dp116
g15
S'nextToken'
p117
sg23
(lp118
sg25
g16
sg26
(i__main__
DelphiPrimitiveType
p119
(dp120
g29
g48
sbsg31
I0
sg32
g33
sbsS'spaceseparator'
p121
(i__main__
DelphiMethodDeclaration
p122
(dp123
g15
S'spaceSeparator'
p124
sg23
(lp125
sg25
g16
sg26
Nsg31
I0
sg32
g50
sbsS'match'
p126
(i__main__
DelphiMethodDeclaration
p127
(dp128
g15
S'match'
p129
sg23
(lp130
(i__main__
DelphiFormalParameter
p131
(dp132
g41
Nsg42
(lp133
S'aString'
p134
asg45
(i__main__
DelphiPrimitiveType
p135
(dp136
g29
g48
sbsg49
Nsbasg25
g16
sg26
(i__main__
DelphiPrimitiveType
p137
(dp138
g29
g108
sbsg31
I0
sg32
g33
sbssS'superclassNamedTypes'
p139
(lp140
(i__main__
DelphiNamedType
p141
(dp142
g29
S'TObject'
p143
sS'unitDefinedIn'
p144
g1
sS'unitName'
p145
NsbasS'variableNames'
p146
(dp147
S'source'
p148
(i__main__
DelphiPrimitiveType
p149
(dp150
g29
g48
sbsS'remainder'
p151
(i__main__
DelphiPrimitiveType
p152
(dp153
g29
g48
sbsS'separator'
p154
(i__main__
DelphiPrimitiveType
p155
(dp156
g29
g48
sbssS'methodNamesInDefinedOrder'
p157
(lp158
S'createfromstring'
p159
aS'onstring'
p160
aS'onstringseparator'
p161
aS'spaceseparator'
p162
aS'skipspaces'
p163
aS'nexttoken'
p164
aS'nextinteger'
p165
aS'nextsingle'
p166
aS'nextcharacter'
p167
aS'match'
p168
aS'skipwhitespace'
p169
aS'empty'
p170
asS'methodImplementations'
p171
(dp172
S'nextinteger'
p173
(i__main__
DelphiMethodImplementation
p174
(dp175
S'originalDeclaration'
p176
g20
sg15
g22
sg23
(lp177
sS'varParamIndexes'
p178
(lp179
sS'varParamsSkipped'
p180
(lp181
sS'argNames'
p182
(lp183
S'self'
p184
asS'argTypes'
p185
(dp186
sg25
S'KfStringStream'
p187
sg26
(i__main__
DelphiPrimitiveType
p188
(dp189
g29
g30
sbsS'varParamNames'
p190
(lp191
sg31
I0
sg32
g33
sS'block'
p192
(i__main__
DelphiBlock
p193
(dp194
S'compoundStatement'
p195
(idelphi
DelphiCompoundStatement
p196
(dp197
S'statements'
p198
(lp199
(i__main__
DelphiAssignStatement
p200
(dp201
S'newValueExpression'
p202
(i__main__
DelphiIdentAccess
p203
(dp204
S'ident'
p205
S'self'
p206
sS'endAccessList'
p207
(lp208
(idelphi
DelphiFieldEndAccess
p209
(dp210
S'field'
p211
S'nextToken'
p212
sbasbsS'destinationExpression'
p213
(i__main__
DelphiIdentAccess
p214
(dp215
g205
S'token'
p216
sg207
(lp217
sbsba(i__main__
DelphiAssignStatement
p218
(dp219
g202
(i__main__
DelphiIdentAccess
p220
(dp221
g205
S'StrToIntDef'
p222
sg207
(lp223
(idelphi
DelphiFunctionEndAccess
p224
(dp225
S'expressionList'
p226
(lp227
(i__main__
DelphiIdentAccess
p228
(dp229
g205
S'token'
p230
sg207
(lp231
sba(idelphi
DelphiIntegerValue
p232
(dp233
g48
S'0'
sbasbasbsg213
(i__main__
DelphiIdentAccess
p234
(dp235
g205
S'result'
p236
sg207
(lp237
sbsbasbsS'limitedDeclSectionList'
p238
(lp239
(i__main__
DelphiVarSection
p240
(dp241
S'atTopLevel'
p242
I0
sS'varDeclList'
p243
(lp244
(idelphi
DelphiVarDecl
p245
(dp246
S'constExpression'
p247
NsS'identList'
p248
(lp249
S'token'
p250
asg45
(i__main__
DelphiPrimitiveType
p251
(dp252
g29
g48
sbsbasbasbsbsS'onstring'
p253
(i__main__
DelphiMethodImplementation
p254
(dp255
g176
g35
sg15
g37
sg23
(lp256
(i__main__
DelphiFormalParameter
p257
(dp258
g41
Nsg42
(lp259
S'aString'
p260
asg45
(i__main__
DelphiPrimitiveType
p261
(dp262
g29
g48
sbsg49
Nsbasg178
(lp263
sg180
(lp264
sg182
(lp265
g184
ag260
asg185
(dp266
g260
g261
ssg25
S'KfStringStream'
p267
sg26
Nsg190
(lp268
sg31
I0
sg32
g50
sg192
(i__main__
DelphiBlock
p269
(dp270
g195
(idelphi
DelphiCompoundStatement
p271
(dp272
g198
(lp273
(i__main__
DelphiAssignStatement
p274
(dp275
g202
(i__main__
DelphiIdentAccess
p276
(dp277
g205
S'aString'
p278
sg207
(lp279
sbsg213
(i__main__
DelphiIdentAccess
p280
(dp281
g205
S'source'
p282
sg207
(lp283
sbsba(i__main__
DelphiAssignStatement
p284
(dp285
g202
(i__main__
DelphiIdentAccess
p286
(dp287
g205
S'aString'
p288
sg207
(lp289
sbsg213
(i__main__
DelphiIdentAccess
p290
(dp291
g205
S'remainder'
p292
sg207
(lp293
sbsbasbsg238
(lp294
sbsbsS'onstringseparator'
p295
(i__main__
DelphiMethodImplementation
p296
(dp297
g176
g52
sg15
g54
sg23
(lp298
(i__main__
DelphiFormalParameter
p299
(dp300
g41
Nsg42
(lp301
S'aString'
p302
asg45
(i__main__
DelphiPrimitiveType
p303
(dp304
g29
g48
sbsg49
Nsba(i__main__
DelphiFormalParameter
p305
(dp306
g41
Nsg42
(lp307
S'aSeparator'
p308
asg45
(i__main__
DelphiPrimitiveType
p309
(dp310
g29
g48
sbsg49
Nsbasg178
(lp311
sg180
(lp312
sg182
(lp313
g184
ag302
ag308
asg185
(dp314
g308
g309
sg302
g303
ssg25
S'KfStringStream'
p315
sg26
Nsg190
(lp316
sg31
I0
sg32
g50
sg192
(i__main__
DelphiBlock
p317
(dp318
g195
(idelphi
DelphiCompoundStatement
p319
(dp320
g198
(lp321
(i__main__
DelphiAssignStatement
p322
(dp323
g202
(i__main__
DelphiIdentAccess
p324
(dp325
g205
S'aString'
p326
sg207
(lp327
sbsg213
(i__main__
DelphiIdentAccess
p328
(dp329
g205
S'source'
p330
sg207
(lp331
sbsba(i__main__
DelphiAssignStatement
p332
(dp333
g202
(i__main__
DelphiIdentAccess
p334
(dp335
g205
S'aString'
p336
sg207
(lp337
sbsg213
(i__main__
DelphiIdentAccess
p338
(dp339
g205
S'remainder'
p340
sg207
(lp341
sbsba(i__main__
DelphiAssignStatement
p342
(dp343
g202
(i__main__
DelphiIdentAccess
p344
(dp345
g205
S'aSeparator'
p346
sg207
(lp347
sbsg213
(i__main__
DelphiIdentAccess
p348
(dp349
g205
S'separator'
p350
sg207
(lp351
sbsbasbsg238
(lp352
sbsbsS'skipwhitespace'
p353
(i__main__
DelphiMethodImplementation
p354
(dp355
g176
g69
sg15
g71
sg23
(lp356
sg178
(lp357
sg180
(lp358
sg182
(lp359
g184
asg185
(dp360
sg25
S'KfStringStream'
p361
sg26
Nsg190
(lp362
sg31
I0
sg32
g50
sg192
(i__main__
DelphiBlock
p363
(dp364
g195
(idelphi
DelphiCompoundStatement
p365
(dp366
g198
(lp367
(idelphi
DelphiWhileStatement
p368
(dp369
S'statement'
p370
(i__main__
DelphiAssignStatement
p371
(dp372
g202
(i__main__
DelphiIdentAccess
p373
(dp374
g205
S'copy'
p375
sg207
(lp376
(idelphi
DelphiFunctionEndAccess
p377
(dp378
g226
(lp379
(i__main__
DelphiIdentAccess
p380
(dp381
g205
S'remainder'
p382
sg207
(lp383
sba(idelphi
DelphiIntegerValue
p384
(dp385
g48
S'2'
sba(idelphi
DelphiIntegerValue
p386
(dp387
g48
S'255'
p388
sbasbasbsg213
(i__main__
DelphiIdentAccess
p389
(dp390
g205
S'remainder'
p391
sg207
(lp392
sbsS'commentLinesBefore'
p393
(lp394
S'tab'
p395
asbsS'whileExpression'
p396
(idelphi
DelphiAddOp
p397
(dp398
S'addOp'
p399
S'or'
p400
sS'term2'
p401
(idelphi
DelphiNestedExpressionListAccess
p402
(dp403
g207
(lp404
sg226
(lp405
(idelphi
DelphiRelOp
p406
(dp407
S'simpleExpression1'
p408
(i__main__
DelphiIdentAccess
p409
(dp410
g205
S'remainder'
p411
sg207
(lp412
(idelphi
DelphiArrayEndAccess
p413
(dp414
g226
(lp415
(idelphi
DelphiIntegerValue
p416
(dp417
g48
S'1'
sbasbasbsS'simpleExpression2'
p418
(i__main__
DelphiIdentAccess
p419
(dp420
g205
S'chr'
p421
sg207
(lp422
(idelphi
DelphiFunctionEndAccess
p423
(dp424
g226
(lp425
(idelphi
DelphiIntegerValue
p426
(dp427
g48
S'9'
sbasbasbsS'relOp'
p428
S'='
sbasbsS'term1'
p429
(idelphi
DelphiNestedExpressionListAccess
p430
(dp431
g207
(lp432
sg226
(lp433
(idelphi
DelphiRelOp
p434
(dp435
g408
(i__main__
DelphiIdentAccess
p436
(dp437
g205
S'remainder'
p438
sg207
(lp439
(idelphi
DelphiArrayEndAccess
p440
(dp441
g226
(lp442
(idelphi
DelphiIntegerValue
p443
(dp444
g48
S'1'
sbasbasbsg418
(idelphi
DelphiStringAccess
p445
(dp446
g207
(lp447
sg48
(idelphi
DelphiStringValue
p448
(dp449
g48
S' '
sbsbsg428
S'='
sbasbsbsbasbsg238
(lp450
sbsbsS'nextsingle'
p451
(i__main__
DelphiMethodImplementation
p452
(dp453
g176
g74
sg15
g76
sg23
(lp454
sg178
(lp455
sg180
(lp456
sg182
(lp457
g184
asg185
(dp458
sg25
S'KfStringStream'
p459
sg26
(i__main__
DelphiPrimitiveType
p460
(dp461
g29
g80
sbsg190
(lp462
sg31
I0
sg32
g33
sg192
(i__main__
DelphiBlock
p463
(dp464
g195
(idelphi
DelphiCompoundStatement
p465
(dp466
g198
(lp467
(i__main__
DelphiAssignStatement
p468
(dp469
g202
(idelphi
DelphiRealValue
p470
(dp471
g48
S'0.0'
p472
sbsg213
(i__main__
DelphiIdentAccess
p473
(dp474
g205
S'result'
p475
sg207
(lp476
sbsba(i__main__
DelphiAssignStatement
p477
(dp478
g202
(i__main__
DelphiIdentAccess
p479
(dp480
g205
S'self'
p481
sg207
(lp482
(idelphi
DelphiFieldEndAccess
p483
(dp484
g211
S'nextToken'
p485
sbasbsg213
(i__main__
DelphiIdentAccess
p486
(dp487
g205
S'token'
p488
sg207
(lp489
sbsba(idelphi
DelphiTryExceptStatement
p490
(dp491
S'tryStatements'
p492
(lp493
(i__main__
DelphiAssignStatement
p494
(dp495
g202
(i__main__
DelphiIdentAccess
p496
(dp497
g205
S'strToFloat'
p498
sg207
(lp499
(idelphi
DelphiFunctionEndAccess
p500
(dp501
g226
(lp502
(i__main__
DelphiIdentAccess
p503
(dp504
g205
S'token'
p505
sg207
(lp506
sbasbasbsg213
(i__main__
DelphiIdentAccess
p507
(dp508
g205
S'result'
p509
sg207
(lp510
sbsbasS'exceptionHandlers'
p511
(idelphi
DelphiExceptionHandlers
p512
(dp513
S'exceptionHandlerList'
p514
(lp515
(idelphi
DelphiExceptionHandler
p516
(dp517
S'classTypeIdentifier'
p518
(i__main__
DelphiNamedType
p519
(dp520
g29
S'EConvertError'
p521
sg144
g1
sg145
Nsbsg205
Nsg370
(i__main__
DelphiAssignStatement
p522
(dp523
g202
(idelphi
DelphiRealValue
p524
(dp525
g48
S'0.0'
p526
sbsg213
(i__main__
DelphiIdentAccess
p527
(dp528
g205
S'result'
p529
sg207
(lp530
sbsbsbasS'statementList'
p531
(lp532
sbsbasbsg238
(lp533
(i__main__
DelphiVarSection
p534
(dp535
g242
I0
sg243
(lp536
(idelphi
DelphiVarDecl
p537
(dp538
g247
Nsg248
(lp539
S'token'
p540
asg45
(i__main__
DelphiPrimitiveType
p541
(dp542
g29
g48
sbsbasbasbsbsS'createfromstring'
p543
(i__main__
DelphiMethodImplementation
p544
(dp545
g176
g82
sg15
g84
sg23
(lp546
(i__main__
DelphiFormalParameter
p547
(dp548
g41
Nsg42
(lp549
S'aString'
p550
asg45
(i__main__
DelphiPrimitiveType
p551
(dp552
g29
g48
sbsg49
Nsbasg178
(lp553
sg180
(lp554
sg182
(lp555
g184
ag550
asg185
(dp556
g550
g551
ssg25
S'KfStringStream'
p557
sg26
Nsg190
(lp558
sg31
I0
sg32
g92
sg192
(i__main__
DelphiBlock
p559
(dp560
g195
(idelphi
DelphiCompoundStatement
p561
(dp562
g198
(lp563
(i__main__
DelphiAssignStatement
p564
(dp565
g202
Nsg213
(i__main__
DelphiIdentAccess
p566
(dp567
g205
S'self'
p568
sg207
(lp569
(idelphi
DelphiFieldEndAccess
p570
(dp571
g211
S'create'
p572
sbasbsba(i__main__
DelphiAssignStatement
p573
(dp574
g202
Nsg213
(i__main__
DelphiIdentAccess
p575
(dp576
g205
S'self'
p577
sg207
(lp578
(idelphi
DelphiFieldEndAccess
p579
(dp580
g211
S'onStringSeparator'
p581
sba(idelphi
DelphiFunctionEndAccess
p582
(dp583
g226
(lp584
(i__main__
DelphiIdentAccess
p585
(dp586
g205
S'aString'
p587
sg207
(lp588
sba(idelphi
DelphiStringAccess
p589
(dp590
g207
(lp591
sg48
(idelphi
DelphiStringValue
p592
(dp593
g48
S' '
sbsbasbasbsbasbsg238
(lp594
sbsbsS'nextcharacter'
p595
(i__main__
DelphiMethodImplementation
p596
(dp597
g176
g94
sg15
g96
sg23
(lp598
sg178
(lp599
sg180
(lp600
sg182
(lp601
g184
asg185
(dp602
sg25
S'KfStringStream'
p603
sg26
(i__main__
DelphiPrimitiveType
p604
(dp605
g29
g100
sbsg190
(lp606
sg31
I0
sg32
g33
sg192
(i__main__
DelphiBlock
p607
(dp608
g195
(idelphi
DelphiCompoundStatement
p609
(dp610
g198
(lp611
(i__main__
DelphiAssignStatement
p612
(dp613
g202
(i__main__
DelphiIdentAccess
p614
(dp615
g205
S'remainder'
p616
sg207
(lp617
(idelphi
DelphiArrayEndAccess
p618
(dp619
g226
(lp620
(idelphi
DelphiIntegerValue
p621
(dp622
g48
S'1'
sbasbasbsg213
(i__main__
DelphiIdentAccess
p623
(dp624
g205
S'result'
p625
sg207
(lp626
sbsba(i__main__
DelphiAssignStatement
p627
(dp628
g202
(i__main__
DelphiIdentAccess
p629
(dp630
g205
S'copy'
p631
sg207
(lp632
(idelphi
DelphiFunctionEndAccess
p633
(dp634
g226
(lp635
(i__main__
DelphiIdentAccess
p636
(dp637
g205
S'remainder'
p638
sg207
(lp639
sba(idelphi
DelphiIntegerValue
p640
(dp641
g48
S'2'
sba(idelphi
DelphiIntegerValue
p642
(dp643
g48
S'255'
p644
sbasbasbsg213
(i__main__
DelphiIdentAccess
p645
(dp646
g205
S'remainder'
p647
sg207
(lp648
sbsbasbsg238
(lp649
sbsbsS'empty'
p650
(i__main__
DelphiMethodImplementation
p651
(dp652
g176
g102
sg15
g104
sg23
(lp653
sg178
(lp654
sg180
(lp655
sg182
(lp656
g184
asg185
(dp657
sg25
S'KfStringStream'
p658
sg26
(i__main__
DelphiPrimitiveType
p659
(dp660
g29
g108
sbsg190
(lp661
sg31
I0
sg32
g33
sg192
(i__main__
DelphiBlock
p662
(dp663
g195
(idelphi
DelphiCompoundStatement
p664
(dp665
g198
(lp666
(i__main__
DelphiAssignStatement
p667
(dp668
g202
(idelphi
DelphiNestedExpressionListAccess
p669
(dp670
g207
(lp671
sg226
(lp672
(idelphi
DelphiRelOp
p673
(dp674
g408
(i__main__
DelphiIdentAccess
p675
(dp676
g205
S'remainder'
p677
sg207
(lp678
sbsg418
(idelphi
DelphiStringAccess
p679
(dp680
g207
(lp681
sg48
(idelphi
DelphiStringValue
p682
(dp683
g48
S''
sbsbsg428
S'='
sbasbsg213
(i__main__
DelphiIdentAccess
p684
(dp685
g205
S'result'
p686
sg207
(lp687
sbsbasbsg238
(lp688
sbsbsS'skipspaces'
p689
(i__main__
DelphiMethodImplementation
p690
(dp691
g176
g110
sg15
g112
sg23
(lp692
sg178
(lp693
sg180
(lp694
sg182
(lp695
g184
asg185
(dp696
sg25
S'KfStringStream'
p697
sg26
Nsg190
(lp698
sg31
I0
sg32
g50
sg192
(i__main__
DelphiBlock
p699
(dp700
g195
(idelphi
DelphiCompoundStatement
p701
(dp702
g198
(lp703
(idelphi
DelphiWhileStatement
p704
(dp705
g370
(i__main__
DelphiAssignStatement
p706
(dp707
g202
(i__main__
DelphiIdentAccess
p708
(dp709
g205
S'copy'
p710
sg207
(lp711
(idelphi
DelphiFunctionEndAccess
p712
(dp713
g226
(lp714
(i__main__
DelphiIdentAccess
p715
(dp716
g205
S'remainder'
p717
sg207
(lp718
sba(idelphi
DelphiIntegerValue
p719
(dp720
g48
S'2'
sba(idelphi
DelphiIntegerValue
p721
(dp722
g48
S'255'
p723
sbasbasbsg213
(i__main__
DelphiIdentAccess
p724
(dp725
g205
S'remainder'
p726
sg207
(lp727
sbsbsg396
(idelphi
DelphiNestedExpressionListAccess
p728
(dp729
g207
(lp730
sg226
(lp731
(idelphi
DelphiRelOp
p732
(dp733
g408
(i__main__
DelphiIdentAccess
p734
(dp735
g205
S'copy'
p736
sg207
(lp737
(idelphi
DelphiFunctionEndAccess
p738
(dp739
g226
(lp740
(i__main__
DelphiIdentAccess
p741
(dp742
g205
S'remainder'
p743
sg207
(lp744
sba(idelphi
DelphiIntegerValue
p745
(dp746
g48
S'1'
sba(idelphi
DelphiIntegerValue
p747
(dp748
g48
S'1'
sbasbasbsg418
(idelphi
DelphiStringAccess
p749
(dp750
g207
(lp751
sg48
(idelphi
DelphiStringValue
p752
(dp753
g48
S' '
sbsbsg428
S'='
sbasbsbasbsg238
(lp754
sbsbsS'nexttoken'
p755
(i__main__
DelphiMethodImplementation
p756
(dp757
g176
g115
sg15
g117
sg23
(lp758
sg178
(lp759
sg180
(lp760
sg182
(lp761
g184
asg185
(dp762
sg25
S'KfStringStream'
p763
sg26
(i__main__
DelphiPrimitiveType
p764
(dp765
g29
g48
sbsg190
(lp766
sg31
I0
sg32
g33
sg192
(i__main__
DelphiBlock
p767
(dp768
g195
(idelphi
DelphiCompoundStatement
p769
(dp770
g198
(lp771
(i__main__
DelphiAssignStatement
p772
(dp773
g202
Nsg213
(i__main__
DelphiIdentAccess
p774
(dp775
g205
S'self'
p776
sg207
(lp777
(idelphi
DelphiFieldEndAccess
p778
(dp779
g211
S'skipSpaces'
p780
sbasbsba(i__main__
DelphiAssignStatement
p781
(dp782
g202
(i__main__
DelphiIdentAccess
p783
(dp784
g205
S'pos'
p785
sg207
(lp786
(idelphi
DelphiFunctionEndAccess
p787
(dp788
g226
(lp789
(i__main__
DelphiIdentAccess
p790
(dp791
g205
S'separator'
p792
sg207
(lp793
sba(i__main__
DelphiIdentAccess
p794
(dp795
g205
S'remainder'
p796
sg207
(lp797
sbasbasbsg213
(i__main__
DelphiIdentAccess
p798
(dp799
g205
S'location'
p800
sg207
(lp801
sbsba(idelphi
DelphiIfStatement
p802
(dp803
S'expression'
p804
(idelphi
DelphiRelOp
p805
(dp806
g408
(i__main__
DelphiIdentAccess
p807
(dp808
g205
S'location'
p809
sg207
(lp810
sbsg418
(idelphi
DelphiIntegerValue
p811
(dp812
g48
S'0'
sbsg428
S'<>'
p813
sbsS'ifFalseStatement'
p814
(idelphi
DelphiCompoundStatement
p815
(dp816
g198
(lp817
(i__main__
DelphiAssignStatement
p818
(dp819
g202
(i__main__
DelphiIdentAccess
p820
(dp821
g205
S'remainder'
p822
sg207
(lp823
sbsg213
(i__main__
DelphiIdentAccess
p824
(dp825
g205
S'result'
p826
sg207
(lp827
sbsba(i__main__
DelphiAssignStatement
p828
(dp829
g202
(idelphi
DelphiStringAccess
p830
(dp831
g207
(lp832
sg48
(idelphi
DelphiStringValue
p833
(dp834
g48
S''
sbsbsg213
(i__main__
DelphiIdentAccess
p835
(dp836
g205
S'remainder'
p837
sg207
(lp838
sbsbasbsS'ifTrueStatement'
p839
(idelphi
DelphiCompoundStatement
p840
(dp841
g198
(lp842
(i__main__
DelphiAssignStatement
p843
(dp844
g202
(i__main__
DelphiIdentAccess
p845
(dp846
g205
S'copy'
p847
sg207
(lp848
(idelphi
DelphiFunctionEndAccess
p849
(dp850
g226
(lp851
(i__main__
DelphiIdentAccess
p852
(dp853
g205
S'remainder'
p854
sg207
(lp855
sba(idelphi
DelphiIntegerValue
p856
(dp857
g48
S'1'
sba(idelphi
DelphiAddOp
p858
(dp859
g399
S'-'
sg401
(idelphi
DelphiIntegerValue
p860
(dp861
g48
S'1'
sbsg429
(i__main__
DelphiIdentAccess
p862
(dp863
g205
S'location'
p864
sg207
(lp865
sbsbasbasbsg213
(i__main__
DelphiIdentAccess
p866
(dp867
g205
S'result'
p868
sg207
(lp869
sbsba(i__main__
DelphiAssignStatement
p870
(dp871
g202
(i__main__
DelphiIdentAccess
p872
(dp873
g205
S'copy'
p874
sg207
(lp875
(idelphi
DelphiFunctionEndAccess
p876
(dp877
g226
(lp878
(i__main__
DelphiIdentAccess
p879
(dp880
g205
S'remainder'
p881
sg207
(lp882
sba(idelphi
DelphiAddOp
p883
(dp884
g399
S'+'
sg401
(i__main__
DelphiIdentAccess
p885
(dp886
g205
S'length'
p887
sg207
(lp888
(idelphi
DelphiFunctionEndAccess
p889
(dp890
g226
(lp891
(i__main__
DelphiIdentAccess
p892
(dp893
g205
S'separator'
p894
sg207
(lp895
sbasbasbsg429
(i__main__
DelphiIdentAccess
p896
(dp897
g205
S'location'
p898
sg207
(lp899
sbsba(idelphi
DelphiIntegerValue
p900
(dp901
g48
S'255'
p902
sbasbasbsg213
(i__main__
DelphiIdentAccess
p903
(dp904
g205
S'remainder'
p905
sg207
(lp906
sbsbasbsbasbsg238
(lp907
(i__main__
DelphiVarSection
p908
(dp909
g242
I0
sg243
(lp910
(idelphi
DelphiVarDecl
p911
(dp912
g247
Nsg248
(lp913
S'location'
p914
asg45
(i__main__
DelphiPrimitiveType
p915
(dp916
g29
g30
sbsbasbasbsbsS'spaceseparator'
p917
(i__main__
DelphiMethodImplementation
p918
(dp919
g176
g122
sg15
g124
sg23
(lp920
sg178
(lp921
sg180
(lp922
sg182
(lp923
g184
asg185
(dp924
sg25
S'KfStringStream'
p925
sg26
Nsg190
(lp926
sg31
I0
sg32
g50
sg192
(i__main__
DelphiBlock
p927
(dp928
g195
(idelphi
DelphiCompoundStatement
p929
(dp930
g198
(lp931
(i__main__
DelphiAssignStatement
p932
(dp933
g202
(idelphi
DelphiStringAccess
p934
(dp935
g207
(lp936
sg48
(idelphi
DelphiStringValue
p937
(dp938
g48
S' '
sbsbsg213
(i__main__
DelphiIdentAccess
p939
(dp940
g205
S'separator'
p941
sg207
(lp942
sbsbasbsg238
(lp943
sbsbsS'match'
p944
(i__main__
DelphiMethodImplementation
p945
(dp946
g176
g127
sg15
g129
sg23
(lp947
(i__main__
DelphiFormalParameter
p948
(dp949
g41
Nsg42
(lp950
S'aString'
p951
asg45
(i__main__
DelphiPrimitiveType
p952
(dp953
g29
g48
sbsg49
Nsbasg178
(lp954
sg180
(lp955
sg182
(lp956
g184
ag951
asg185
(dp957
g951
g952
ssg25
S'KfStringStream'
p958
sg26
(i__main__
DelphiPrimitiveType
p959
(dp960
g29
g108
sbsg190
(lp961
sg31
I0
sg32
g33
sg192
(i__main__
DelphiBlock
p962
(dp963
g195
(idelphi
DelphiCompoundStatement
p964
(dp965
g198
(lp966
(i__main__
DelphiAssignStatement
p967
(dp968
g202
(idelphi
DelphiNestedExpressionListAccess
p969
(dp970
g207
(lp971
sg226
(lp972
(idelphi
DelphiRelOp
p973
(dp974
g408
(i__main__
DelphiIdentAccess
p975
(dp976
g205
S'pos'
p977
sg207
(lp978
(idelphi
DelphiFunctionEndAccess
p979
(dp980
g226
(lp981
(i__main__
DelphiIdentAccess
p982
(dp983
g205
S'aString'
p984
sg207
(lp985
sba(i__main__
DelphiIdentAccess
p986
(dp987
g205
S'remainder'
p988
sg207
(lp989
sbasbasbsg418
(idelphi
DelphiIntegerValue
p990
(dp991
g48
S'1'
sbsg428
S'='
sbasbsg213
(i__main__
DelphiIdentAccess
p992
(dp993
g205
S'result'
p994
sg207
(lp995
sbsbasbsg238
(lp996
sbsg393
(lp997
S'return true if next few characters match string'
p998
asbssS'propertyDeclarations'
p999
(dp1000
sS'variableNamesInDeclaredOrder'
p1001
(lp1002
g10
ag12
ag14
asba(i__main__
DelphiProceduralImplementation
p1003
(dp1004
g176
(i__main__
DelphiProceduralDeclaration
p1005
(dp1006
g23
(lp1007
(i__main__
DelphiFormalParameter
p1008
(dp1009
g41
Nsg42
(lp1010
S'fileStream'
p1011
asg45
(i__main__
DelphiNamedType
p1012
(dp1013
g29
S'TextFile'
p1014
sg144
g1
sg145
Nsbsg49
S'var'
p1015
sba(i__main__
DelphiFormalParameter
p1016
(dp1017
g41
Nsg42
(lp1018
S'section'
p1019
asg45
(i__main__
DelphiPrimitiveType
p1020
(dp1021
g29
g48
sbsg49
Nsbasg15
S'skipToProfileSection'
p1022
sg26
(i__main__
DelphiPrimitiveType
p1023
(dp1024
g29
g108
sbsbsg15
g1022
sg26
(i__main__
DelphiPrimitiveType
p1025
(dp1026
g29
g108
sbsg178
(lp1027
sg180
(lp1028
S'fileStream'
p1029
asg182
(lp1030
g1029
aS'section'
p1031
asg185
(dp1032
g1029
(i__main__
DelphiNamedType
p1033
(dp1034
g29
S'TextFile'
p1035
sg144
g1
sg145
Nsbsg1031
(i__main__
DelphiPrimitiveType
p1036
(dp1037
g29
g48
sbssg23
(lp1038
(i__main__
DelphiFormalParameter
p1039
(dp1040
g41
Nsg42
(lp1041
g1029
asg45
g1033
sg49
g1015
sba(i__main__
DelphiFormalParameter
p1042
(dp1043
g41
Nsg42
(lp1044
g1031
asg45
g1036
sg49
Nsbasg190
(lp1045
sg192
(i__main__
DelphiBlock
p1046
(dp1047
g195
(idelphi
DelphiCompoundStatement
p1048
(dp1049
g198
(lp1050
(i__main__
DelphiAssignStatement
p1051
(dp1052
g202
(i__main__
DelphiIdentAccess
p1053
(dp1054
g205
S'KfStringStream'
p1055
sg207
(lp1056
(idelphi
DelphiFieldEndAccess
p1057
(dp1058
g211
S'create'
p1059
sbasbsg213
(i__main__
DelphiIdentAccess
p1060
(dp1061
g205
S'stream'
p1062
sg207
(lp1063
sbsba(i__main__
DelphiAssignStatement
p1064
(dp1065
g202
(idelphi
DelphiStringAccess
p1066
(dp1067
g207
(lp1068
sg48
(idelphi
DelphiStringValue
p1069
(dp1070
g48
S']'
sbsbsg213
(i__main__
DelphiIdentAccess
p1071
(dp1072
g205
S'stream'
p1073
sg207
(lp1074
(idelphi
DelphiFieldEndAccess
p1075
(dp1076
g211
S'separator'
p1077
sbasbsg393
(lp1078
S"set separator to ']' so can read sections"
p1079
asba(i__main__
DelphiAssignStatement
p1080
(dp1081
g202
(i__main__
DelphiIdentAccess
p1082
(dp1083
g205
S'false'
p1084
sg207
(lp1085
sbsg213
(i__main__
DelphiIdentAccess
p1086
(dp1087
g205
S'result'
p1088
sg207
(lp1089
sbsba(idelphi
DelphiWhileStatement
p1090
(dp1091
g370
(idelphi
DelphiCompoundStatement
p1092
(dp1093
g198
(lp1094
(i__main__
DelphiAssignStatement
p1095
(dp1096
g202
Nsg213
(i__main__
DelphiIdentAccess
p1097
(dp1098
g205
S'readln'
p1099
sg207
(lp1100
(idelphi
DelphiFunctionEndAccess
p1101
(dp1102
g226
(lp1103
(i__main__
DelphiIdentAccess
p1104
(dp1105
g205
S'fileStream'
p1106
sg207
(lp1107
sba(i__main__
DelphiIdentAccess
p1108
(dp1109
g205
S'inputLine'
p1110
sg207
(lp1111
sbasbasbsba(i__main__
DelphiAssignStatement
p1112
(dp1113
g202
Nsg213
(i__main__
DelphiIdentAccess
p1114
(dp1115
g205
S'stream'
p1116
sg207
(lp1117
(idelphi
DelphiFieldEndAccess
p1118
(dp1119
g211
S'onString'
p1120
sba(idelphi
DelphiFunctionEndAccess
p1121
(dp1122
g226
(lp1123
(i__main__
DelphiIdentAccess
p1124
(dp1125
g205
S'inputLine'
p1126
sg207
(lp1127
sbasbasbsba(i__main__
DelphiAssignStatement
p1128
(dp1129
g202
Nsg213
(i__main__
DelphiIdentAccess
p1130
(dp1131
g205
S'stream'
p1132
sg207
(lp1133
(idelphi
DelphiFieldEndAccess
p1134
(dp1135
g211
S'skipSpaces'
p1136
sbasbsba(idelphi
DelphiIfStatement
p1137
(dp1138
g804
(idelphi
DelphiRelOp
p1139
(dp1140
g408
(i__main__
DelphiIdentAccess
p1141
(dp1142
g205
S'stream'
p1143
sg207
(lp1144
(idelphi
DelphiFieldEndAccess
p1145
(dp1146
g211
S'nextCharacter'
p1147
sbasbsg418
(idelphi
DelphiStringAccess
p1148
(dp1149
g207
(lp1150
sg48
(idelphi
DelphiStringValue
p1151
(dp1152
g48
S'['
sbsbsg428
S'='
sbsg814
Nsg839
(idelphi
DelphiCompoundStatement
p1153
(dp1154
g198
(lp1155
(idelphi
DelphiIfStatement
p1156
(dp1157
g804
(idelphi
DelphiRelOp
p1158
(dp1159
g408
(i__main__
DelphiIdentAccess
p1160
(dp1161
g205
S'stream'
p1162
sg207
(lp1163
(idelphi
DelphiFieldEndAccess
p1164
(dp1165
g211
S'nextToken'
p1166
sbasbsg418
(i__main__
DelphiIdentAccess
p1167
(dp1168
g205
S'section'
p1169
sg207
(lp1170
sbsg428
S'='
sbsg814
Nsg839
(idelphi
DelphiCompoundStatement
p1171
(dp1172
g198
(lp1173
(i__main__
DelphiAssignStatement
p1174
(dp1175
g202
(i__main__
DelphiIdentAccess
p1176
(dp1177
g205
S'true'
p1178
sg207
(lp1179
sbsg213
(i__main__
DelphiIdentAccess
p1180
(dp1181
g205
S'result'
p1182
sg207
(lp1183
sbsba(idelphi
DelphiBreakStatement
p1184
(dp1185
basbsbasbsbasbsg396
(idelphi
DelphiNot
p1186
(dp1187
S'factor'
p1188
(i__main__
DelphiIdentAccess
p1189
(dp1190
g205
S'eof'
p1191
sg207
(lp1192
(idelphi
DelphiFunctionEndAccess
p1193
(dp1194
g226
(lp1195
(i__main__
DelphiIdentAccess
p1196
(dp1197
g205
S'fileStream'
p1198
sg207
(lp1199
sbasbasbsbsba(i__main__
DelphiAssignStatement
p1200
(dp1201
g202
Nsg213
(i__main__
DelphiIdentAccess
p1202
(dp1203
g205
S'stream'
p1204
sg207
(lp1205
(idelphi
DelphiFieldEndAccess
p1206
(dp1207
g211
S'free'
p1208
sbasbsbasbsg238
(lp1209
(i__main__
DelphiVarSection
p1210
(dp1211
g242
I0
sg243
(lp1212
(idelphi
DelphiVarDecl
p1213
(dp1214
g247
Nsg248
(lp1215
S'inputLine'
p1216
asg45
(i__main__
DelphiPrimitiveType
p1217
(dp1218
g29
g48
sbsba(idelphi
DelphiVarDecl
p1219
(dp1220
g247
Nsg248
(lp1221
S'stream'
p1222
asg45
(i__main__
DelphiNamedType
p1223
(dp1224
g29
S'KfStringStream'
p1225
sg144
g1
sg145
NsbsbasbasbsbasS'includedUnits'
p1226
NsS'implementationUses'
p1227
(lp1228
S'SysUtils'
p1229
asg15
S'Usstream'
p1230
sS'constSections'
p1231
(lp1232
sS'globalsInProperCase'
p1233
NsS'interfaceUses'
p1234
(lp1235
S'delphi_compatability'
p1236
asS'finalCommentToken'
p1237
(i__main__
PassStatement
p1238
(dp1239
g238
(lp1240
sbsS'varSections'
p1241
(lp1242
sS'globals'
p1243
NsS'originalFileName'
p1244
S'../../PlantStudioInPython/converted_source/used/usstream.pas'
p1245
sS'proceduralImplementations'
p1246
(dp1247
S'skiptoprofilesection'
p1248
g1003
ssS'fileName'
p1249
S'/Users/pdf/Documents/workspace/PlantStudioInPython/converted_source/used/usstream.pas'
p1250
sS'proceduralDeclarations'
p1251
(dp1252
S'skiptoprofilesection'
p1253
g1005
ssS'types'
p1254
(dp1255
S'kfstringstream'
p1256
g5
ssg393
(lp1257
S'Copyright (c) 1997 Paul D. Fernhout and Cynthia F. Kurtz All rights reserved\r'
p1258
aS'http://www.gardenwithinsight.com. See the license file for details on redistribution.\r'
p1259
aS'=====================================================================================\r'
p1260
aS'usstream: String stream. Used by text filer (ufilertx) to parse strings,\r'
p1261
aS'usually those associated with points or arrays (because there are delimiters inside\r'
p1262
aS'the string in these cases). Also used by 3d object (in uturt3d) to read strings from tdo file.'
p1263
asb.