(i__main__
DelphiUnit
p1
(dp2
S'sectionsInOrderDefined'
p3
(lp4
(i__main__
DelphiConstSection
p5
(dp6
S'constDeclList'
p7
(lp8
(idelphi
DelphiConstDeclaration
p9
(dp10
S'constExpression'
p11
(idelphi
DelphiIntegerValue
p12
(dp13
S'string'
p14
S'0'
sbsS'ident'
p15
S'kTraverseNone'
p16
sS'theType'
p17
(idelphi
DelphiPrimitiveType
p18
(dp19
S'typeName'
p20
S'UNDEFINED_NEEDS_CALCULATION'
p21
sbsba(idelphi
DelphiConstDeclaration
p22
(dp23
g11
(idelphi
DelphiIntegerValue
p24
(dp25
g14
S'1'
sbsg15
S'kTraverseLeft'
p26
sg17
(idelphi
DelphiPrimitiveType
p27
(dp28
g20
g21
sbsba(idelphi
DelphiConstDeclaration
p29
(dp30
g11
(idelphi
DelphiIntegerValue
p31
(dp32
g14
S'2'
sbsg15
S'kTraverseRight'
p33
sg17
(idelphi
DelphiPrimitiveType
p34
(dp35
g20
g21
sbsba(idelphi
DelphiConstDeclaration
p36
(dp37
g11
(idelphi
DelphiIntegerValue
p38
(dp39
g14
S'3'
sbsg15
S'kTraverseNext'
p40
sg17
(idelphi
DelphiPrimitiveType
p41
(dp42
g20
g21
sbsba(idelphi
DelphiConstDeclaration
p43
(dp44
g11
(idelphi
DelphiIntegerValue
p45
(dp46
g14
S'4'
sbsg15
S'kTraverseDone'
p47
sg17
(idelphi
DelphiPrimitiveType
p48
(dp49
g20
g21
sbsba(idelphi
DelphiConstDeclaration
p50
(dp51
g11
(idelphi
DelphiIntegerValue
p52
(dp53
g14
S'0'
sbsg15
S'kActivityNone'
p54
sg17
(idelphi
DelphiPrimitiveType
p55
(dp56
g20
g21
sbsba(idelphi
DelphiConstDeclaration
p57
(dp58
g11
(idelphi
DelphiIntegerValue
p59
(dp60
g14
S'1'
sbsg15
S'kActivityNextDay'
p61
sg17
(idelphi
DelphiPrimitiveType
p62
(dp63
g20
g21
sbsba(idelphi
DelphiConstDeclaration
p64
(dp65
g11
(idelphi
DelphiIntegerValue
p66
(dp67
g14
S'2'
sbsg15
S'kActivityDemandVegetative'
p68
sg17
(idelphi
DelphiPrimitiveType
p69
(dp70
g20
g21
sbsba(idelphi
DelphiConstDeclaration
p71
(dp72
g11
(idelphi
DelphiIntegerValue
p73
(dp74
g14
S'3'
sbsg15
S'kActivityDemandReproductive'
p75
sg17
(idelphi
DelphiPrimitiveType
p76
(dp77
g20
g21
sbsba(idelphi
DelphiConstDeclaration
p78
(dp79
g11
(idelphi
DelphiIntegerValue
p80
(dp81
g14
S'4'
sbsg15
S'kActivityGrowVegetative'
p82
sg17
(idelphi
DelphiPrimitiveType
p83
(dp84
g20
g21
sbsba(idelphi
DelphiConstDeclaration
p85
(dp86
g11
(idelphi
DelphiIntegerValue
p87
(dp88
g14
S'5'
sbsg15
S'kActivityGrowReproductive'
p89
sg17
(idelphi
DelphiPrimitiveType
p90
(dp91
g20
g21
sbsba(idelphi
DelphiConstDeclaration
p92
(dp93
g11
(idelphi
DelphiIntegerValue
p94
(dp95
g14
S'6'
sbsg15
S'kActivityStartReproduction'
p96
sg17
(idelphi
DelphiPrimitiveType
p97
(dp98
g20
g21
sbsba(idelphi
DelphiConstDeclaration
p99
(dp100
g11
(idelphi
DelphiIntegerValue
p101
(dp102
g14
S'7'
sbsg15
S'kActivityFindPlantPartAtPosition'
p103
sg17
(idelphi
DelphiPrimitiveType
p104
(dp105
g20
g21
sbsba(idelphi
DelphiConstDeclaration
p106
(dp107
g11
(idelphi
DelphiIntegerValue
p108
(dp109
g14
S'8'
sbsg15
S'kActivityDraw'
p110
sg17
(idelphi
DelphiPrimitiveType
p111
(dp112
g20
g21
sbsba(idelphi
DelphiConstDeclaration
p113
(dp114
g11
(idelphi
DelphiIntegerValue
p115
(dp116
g14
S'9'
sbsg15
S'kActivityReport'
p117
sg17
(idelphi
DelphiPrimitiveType
p118
(dp119
g20
g21
sbsba(idelphi
DelphiConstDeclaration
p120
(dp121
g11
(idelphi
DelphiIntegerValue
p122
(dp123
g14
S'10'
p124
sbsg15
S'kActivityStream'
p125
sg17
(idelphi
DelphiPrimitiveType
p126
(dp127
g20
g21
sbsba(idelphi
DelphiConstDeclaration
p128
(dp129
g11
(idelphi
DelphiIntegerValue
p130
(dp131
g14
S'11'
p132
sbsg15
S'kActivityFree'
p133
sg17
(idelphi
DelphiPrimitiveType
p134
(dp135
g20
g21
sbsba(idelphi
DelphiConstDeclaration
p136
(dp137
g11
(idelphi
DelphiIntegerValue
p138
(dp139
g14
S'12'
p140
sbsg15
S'kActivityVegetativeBiomassThatCanBeRemoved'
p141
sg17
(idelphi
DelphiPrimitiveType
p142
(dp143
g20
g21
sbsba(idelphi
DelphiConstDeclaration
p144
(dp145
g11
(idelphi
DelphiIntegerValue
p146
(dp147
g14
S'13'
p148
sbsg15
S'kActivityRemoveVegetativeBiomass'
p149
sg17
(idelphi
DelphiPrimitiveType
p150
(dp151
g20
g21
sbsba(idelphi
DelphiConstDeclaration
p152
(dp153
g11
(idelphi
DelphiIntegerValue
p154
(dp155
g14
S'14'
p156
sbsg15
S'kActivityReproductiveBiomassThatCanBeRemoved'
p157
sg17
(idelphi
DelphiPrimitiveType
p158
(dp159
g20
g21
sbsba(idelphi
DelphiConstDeclaration
p160
(dp161
g11
(idelphi
DelphiIntegerValue
p162
(dp163
g14
S'15'
p164
sbsg15
S'kActivityRemoveReproductiveBiomass'
p165
sg17
(idelphi
DelphiPrimitiveType
p166
(dp167
g20
g21
sbsba(idelphi
DelphiConstDeclaration
p168
(dp169
g11
(idelphi
DelphiIntegerValue
p170
(dp171
g14
S'16'
p172
sbsg15
S'kActivityGatherStatistics'
p173
sg17
(idelphi
DelphiPrimitiveType
p174
(dp175
g20
g21
sbsba(idelphi
DelphiConstDeclaration
p176
(dp177
g11
(idelphi
DelphiIntegerValue
p178
(dp179
g14
S'17'
p180
sbsg15
S'kActivityStandingDeadBiomassThatCanBeRemoved'
p181
sg17
(idelphi
DelphiPrimitiveType
p182
(dp183
g20
g21
sbsba(idelphi
DelphiConstDeclaration
p184
(dp185
g11
(idelphi
DelphiIntegerValue
p186
(dp187
g14
S'18'
p188
sbsg15
S'kActivityRemoveStandingDeadBiomass'
p189
sg17
(idelphi
DelphiPrimitiveType
p190
(dp191
g20
g21
sbsba(idelphi
DelphiConstDeclaration
p192
(dp193
g11
(idelphi
DelphiIntegerValue
p194
(dp195
g14
S'19'
p196
sbsg15
S'kActivityCountPlantParts'
p197
sg17
(idelphi
DelphiPrimitiveType
p198
(dp199
g20
g21
sbsba(idelphi
DelphiConstDeclaration
p200
(dp201
g11
(idelphi
DelphiIntegerValue
p202
(dp203
g14
S'20'
p204
sbsg15
S'kActivityFindPartForPartID'
p205
sg17
(idelphi
DelphiPrimitiveType
p206
(dp207
g20
g21
sbsba(idelphi
DelphiConstDeclaration
p208
(dp209
g11
(idelphi
DelphiIntegerValue
p210
(dp211
g14
S'21'
p212
sbsg15
S'kActivityCountTotalMemoryUse'
p213
sg17
(idelphi
DelphiPrimitiveType
p214
(dp215
g20
g21
sbsba(idelphi
DelphiConstDeclaration
p216
(dp217
g11
(idelphi
DelphiIntegerValue
p218
(dp219
g14
S'22'
p220
sbsg15
S'kActivityCalculateBiomassForGravity'
p221
sg17
(idelphi
DelphiPrimitiveType
p222
(dp223
g20
g21
sbsba(idelphi
DelphiConstDeclaration
p224
(dp225
g11
(idelphi
DelphiIntegerValue
p226
(dp227
g14
S'23'
p228
sbsg15
S'kActivityCountPointsAndTrianglesFor3DExport'
p229
sg17
(idelphi
DelphiPrimitiveType
p230
(dp231
g20
g21
sbsbasS'atTopLevel'
p232
I1
sba(i__main__
DelphiConstSection
p233
(dp234
g7
(lp235
(idelphi
DelphiConstDeclaration
p236
(dp237
g11
(idelphi
DelphiIntegerValue
p238
(dp239
g14
S'0'
sbsg15
S'kStatisticsPartTypeSeedlingLeaf'
p240
sg17
(idelphi
DelphiPrimitiveType
p241
(dp242
g20
g21
sbsba(idelphi
DelphiConstDeclaration
p243
(dp244
g11
(idelphi
DelphiIntegerValue
p245
(dp246
g14
S'1'
sbsg15
S'kStatisticsPartTypeLeaf'
p247
sg17
(idelphi
DelphiPrimitiveType
p248
(dp249
g20
g21
sbsba(idelphi
DelphiConstDeclaration
p250
(dp251
g11
(idelphi
DelphiIntegerValue
p252
(dp253
g14
S'2'
sbsg15
S'kStatisticsPartTypeFemaleInflorescence'
p254
sg17
(idelphi
DelphiPrimitiveType
p255
(dp256
g20
g21
sbsba(idelphi
DelphiConstDeclaration
p257
(dp258
g11
(idelphi
DelphiIntegerValue
p259
(dp260
g14
S'3'
sbsg15
S'kStatisticsPartTypeMaleInflorescence'
p261
sg17
(idelphi
DelphiPrimitiveType
p262
(dp263
g20
g21
sbsba(idelphi
DelphiConstDeclaration
p264
(dp265
g11
(idelphi
DelphiIntegerValue
p266
(dp267
g14
S'4'
sbsg15
S'kStatisticsPartTypeFemaleFlower'
p268
sg17
(idelphi
DelphiPrimitiveType
p269
(dp270
g20
g21
sbsba(idelphi
DelphiConstDeclaration
p271
(dp272
g11
(idelphi
DelphiIntegerValue
p273
(dp274
g14
S'5'
sbsg15
S'kStatisticsPartTypeFemaleFlowerBud'
p275
sg17
(idelphi
DelphiPrimitiveType
p276
(dp277
g20
g21
sbsba(idelphi
DelphiConstDeclaration
p278
(dp279
g11
(idelphi
DelphiIntegerValue
p280
(dp281
g14
S'6'
sbsg15
S'kStatisticsPartTypeMaleFlower'
p282
sg17
(idelphi
DelphiPrimitiveType
p283
(dp284
g20
g21
sbsba(idelphi
DelphiConstDeclaration
p285
(dp286
g11
(idelphi
DelphiIntegerValue
p287
(dp288
g14
S'7'
sbsg15
S'kStatisticsPartTypeMaleFlowerBud'
p289
sg17
(idelphi
DelphiPrimitiveType
p290
(dp291
g20
g21
sbsba(idelphi
DelphiConstDeclaration
p292
(dp293
g11
(idelphi
DelphiIntegerValue
p294
(dp295
g14
S'8'
sbsg15
S'kStatisticsPartTypeAxillaryBud'
p296
sg17
(idelphi
DelphiPrimitiveType
p297
(dp298
g20
g21
sbsba(idelphi
DelphiConstDeclaration
p299
(dp300
g11
(idelphi
DelphiIntegerValue
p301
(dp302
g14
S'9'
sbsg15
S'kStatisticsPartTypeFruit'
p303
sg17
(idelphi
DelphiPrimitiveType
p304
(dp305
g20
g21
sbsba(idelphi
DelphiConstDeclaration
p306
(dp307
g11
(idelphi
DelphiIntegerValue
p308
(dp309
g14
S'10'
p310
sbsg15
S'kStatisticsPartTypeStem'
p311
sg17
(idelphi
DelphiPrimitiveType
p312
(dp313
g20
g21
sbsba(idelphi
DelphiConstDeclaration
p314
(dp315
g11
(idelphi
DelphiIntegerValue
p316
(dp317
g14
S'11'
p318
sbsg15
S'kStatisticsPartTypeUnripeFruit'
p319
sg17
(idelphi
DelphiPrimitiveType
p320
(dp321
g20
g21
sbsba(idelphi
DelphiConstDeclaration
p322
(dp323
g11
(idelphi
DelphiIntegerValue
p324
(dp325
g14
S'12'
p326
sbsg15
S'kStatisticsPartTypeFallenFruit'
p327
sg17
(idelphi
DelphiPrimitiveType
p328
(dp329
g20
g21
sbsba(idelphi
DelphiConstDeclaration
p330
(dp331
g11
(idelphi
DelphiIntegerValue
p332
(dp333
g14
S'13'
p334
sbsg15
S'kStatisticsPartTypeUnallocatedNewVegetativeBiomass'
p335
sg17
(idelphi
DelphiPrimitiveType
p336
(dp337
g20
g21
sbsba(idelphi
DelphiConstDeclaration
p338
(dp339
g11
(idelphi
DelphiIntegerValue
p340
(dp341
g14
S'14'
p342
sbsg15
S'kStatisticsPartTypeUnremovedDeadVegetativeBiomass'
p343
sg17
(idelphi
DelphiPrimitiveType
p344
(dp345
g20
g21
sbsba(idelphi
DelphiConstDeclaration
p346
(dp347
g11
(idelphi
DelphiIntegerValue
p348
(dp349
g14
S'15'
p350
sbsg15
S'kStatisticsPartTypeUnallocatedNewReproductiveBiomass'
p351
sg17
(idelphi
DelphiPrimitiveType
p352
(dp353
g20
g21
sbsba(idelphi
DelphiConstDeclaration
p354
(dp355
g11
(idelphi
DelphiIntegerValue
p356
(dp357
g14
S'16'
p358
sbsg15
S'kStatisticsPartTypeUnremovedDeadReproductiveBiomass'
p359
sg17
(idelphi
DelphiPrimitiveType
p360
(dp361
g20
g21
sbsba(idelphi
DelphiConstDeclaration
p362
(dp363
g11
(idelphi
DelphiIntegerValue
p364
(dp365
g14
S'17'
p366
sbsg15
S'kStatisticsPartTypeFallenFlower'
p367
sg17
(idelphi
DelphiPrimitiveType
p368
(dp369
g20
g21
sbsba(idelphi
DelphiConstDeclaration
p370
(dp371
g11
(idelphi
DelphiIntegerValue
p372
(dp373
g14
S'18'
p374
sbsg15
S'kStatisticsPartTypeAllVegetative'
p375
sg17
(idelphi
DelphiPrimitiveType
p376
(dp377
g20
g21
sbsba(idelphi
DelphiConstDeclaration
p378
(dp379
g11
(idelphi
DelphiIntegerValue
p380
(dp381
g14
S'19'
p382
sbsg15
S'kStatisticsPartTypeAllReproductive'
p383
sg17
(idelphi
DelphiPrimitiveType
p384
(dp385
g20
g21
sbsba(idelphi
DelphiConstDeclaration
p386
(dp387
g11
(idelphi
DelphiIntegerValue
p388
(dp389
g14
S'19'
p390
sbsg15
S'kStatisticsPartTypeLast'
p391
sg17
(idelphi
DelphiPrimitiveType
p392
(dp393
g20
g21
sbsbasg232
I1
sba(i__main__
DelphiClass
p394
(dp395
S'variableNamesInProperCase'
p396
(dp397
S'count'
p398
S'count'
p399
sS'livebiomass_pctmpb'
p400
S'liveBiomass_pctMPB'
p401
sS'deadbiomass_pctmpb'
p402
S'deadBiomass_pctMPB'
p403
ssS'name'
p404
S'PdPlantStatistics'
p405
sS'methodDeclarations'
p406
(dp407
S'totalbiomass_pctmpb'
p408
(i__main__
DelphiMethodDeclaration
p409
(dp410
g404
S'totalBiomass_pctMPB'
p411
sS'formalParameters'
p412
(lp413
sS'className'
p414
g405
sS'resultType'
p415
(i__main__
DelphiPrimitiveType
p416
(dp417
g20
S'single'
p418
sbsS'isClassMethod'
p419
I0
sS'methodType'
p420
S'function'
p421
sbsS'zeroallfields'
p422
(i__main__
DelphiMethodDeclaration
p423
(dp424
g404
S'zeroAllFields'
p425
sg412
(lp426
sg414
g405
sg415
Nsg419
I0
sg420
S'procedure'
p427
sbssS'superclassNamedTypes'
p428
(lp429
(i__main__
DelphiNamedType
p430
(dp431
g20
S'TObject'
p432
sS'unitDefinedIn'
p433
g1
sS'unitName'
p434
NsbasS'variableNames'
p435
(dp436
S'count'
p437
(i__main__
DelphiArrayType
p438
(dp439
g17
(i__main__
DelphiPrimitiveType
p440
(dp441
g20
S'longint'
p442
sbsS'sizes'
p443
(lp444
(idelphi
DelphiSubrange
p445
(dp446
S'high'
p447
(i__main__
DelphiIdentAccess
p448
(dp449
g15
S'kStatisticsPartTypeLast'
p450
sS'endAccessList'
p451
(lp452
sbsS'low'
p453
(idelphi
DelphiIntegerValue
p454
(dp455
g14
S'0'
sbsg404
S''
sbasbsS'livebiomass_pctmpb'
p456
(i__main__
DelphiArrayType
p457
(dp458
g17
(i__main__
DelphiPrimitiveType
p459
(dp460
g20
g418
sbsg443
(lp461
(idelphi
DelphiSubrange
p462
(dp463
g447
(i__main__
DelphiIdentAccess
p464
(dp465
g15
S'kStatisticsPartTypeLast'
p466
sg451
(lp467
sbsg453
(idelphi
DelphiIntegerValue
p468
(dp469
g14
S'0'
sbsg404
S''
sbasbsS'deadbiomass_pctmpb'
p470
(i__main__
DelphiArrayType
p471
(dp472
g17
(i__main__
DelphiPrimitiveType
p473
(dp474
g20
g418
sbsg443
(lp475
(idelphi
DelphiSubrange
p476
(dp477
g447
(i__main__
DelphiIdentAccess
p478
(dp479
g15
S'kStatisticsPartTypeLast'
p480
sg451
(lp481
sbsg453
(idelphi
DelphiIntegerValue
p482
(dp483
g14
S'0'
sbsg404
S''
sbasbssS'methodNamesInDefinedOrder'
p484
(lp485
S'zeroallfields'
p486
aS'totalbiomass_pctmpb'
p487
asS'methodImplementations'
p488
(dp489
S'totalbiomass_pctmpb'
p490
(i__main__
DelphiMethodImplementation
p491
(dp492
S'originalDeclaration'
p493
g409
sg404
g411
sg412
(lp494
sS'varParamIndexes'
p495
(lp496
sS'varParamsSkipped'
p497
(lp498
sS'argNames'
p499
(lp500
S'self'
p501
asS'argTypes'
p502
(dp503
sg414
S'PdPlantStatistics'
p504
sg415
(i__main__
DelphiPrimitiveType
p505
(dp506
g20
g418
sbsS'varParamNames'
p507
(lp508
sg419
I0
sg420
g421
sS'block'
p509
(i__main__
DelphiBlock
p510
(dp511
S'compoundStatement'
p512
(idelphi
DelphiCompoundStatement
p513
(dp514
S'statements'
p515
(lp516
(i__main__
DelphiAssignStatement
p517
(dp518
S'newValueExpression'
p519
(idelphi
DelphiRealValue
p520
(dp521
g14
S'0.0'
p522
sbsS'destinationExpression'
p523
(i__main__
DelphiIdentAccess
p524
(dp525
g15
S'result'
p526
sg451
(lp527
sbsba(idelphi
DelphiForStatement
p528
(dp529
S'variable'
p530
S'i'
sS'finalValue'
p531
(i__main__
DelphiIdentAccess
p532
(dp533
g15
S'kStatisticsPartTypeLast'
p534
sg451
(lp535
sbsS'direction'
p536
S'to'
p537
sS'initialValue'
p538
(idelphi
DelphiIntegerValue
p539
(dp540
g14
S'0'
sbsS'statement'
p541
(idelphi
DelphiCompoundStatement
p542
(dp543
g515
(lp544
(i__main__
DelphiAssignStatement
p545
(dp546
g519
(idelphi
DelphiAddOp
p547
(dp548
S'addOp'
p549
S'+'
sS'term2'
p550
(i__main__
DelphiIdentAccess
p551
(dp552
g15
S'liveBiomass_pctMPB'
p553
sg451
(lp554
(idelphi
DelphiArrayEndAccess
p555
(dp556
S'expressionList'
p557
(lp558
(i__main__
DelphiIdentAccess
p559
(dp560
g15
S'i'
sg451
(lp561
sbasbasbsS'term1'
p562
(i__main__
DelphiIdentAccess
p563
(dp564
g15
S'result'
p565
sg451
(lp566
sbsbsg523
(i__main__
DelphiIdentAccess
p567
(dp568
g15
S'result'
p569
sg451
(lp570
sbsba(i__main__
DelphiAssignStatement
p571
(dp572
g519
(idelphi
DelphiAddOp
p573
(dp574
g549
S'+'
sg550
(i__main__
DelphiIdentAccess
p575
(dp576
g15
S'deadBiomass_pctMPB'
p577
sg451
(lp578
(idelphi
DelphiArrayEndAccess
p579
(dp580
g557
(lp581
(i__main__
DelphiIdentAccess
p582
(dp583
g15
S'i'
sg451
(lp584
sbasbasbsg562
(i__main__
DelphiIdentAccess
p585
(dp586
g15
S'result'
p587
sg451
(lp588
sbsbsg523
(i__main__
DelphiIdentAccess
p589
(dp590
g15
S'result'
p591
sg451
(lp592
sbsbasbsbasbsS'limitedDeclSectionList'
p593
(lp594
(i__main__
DelphiVarSection
p595
(dp596
g232
I0
sS'varDeclList'
p597
(lp598
(idelphi
DelphiVarDecl
p599
(dp600
g11
NsS'identList'
p601
(lp602
S'i'
asg17
(i__main__
DelphiPrimitiveType
p603
(dp604
g20
S'smallint'
p605
sbsbasbasbsbsS'zeroallfields'
p606
(i__main__
DelphiMethodImplementation
p607
(dp608
g493
g423
sg404
g425
sg412
(lp609
sg495
(lp610
sg497
(lp611
sg499
(lp612
g501
asg502
(dp613
sg414
S'PdPlantStatistics'
p614
sg415
Nsg507
(lp615
sg419
I0
sg420
g427
sg509
(i__main__
DelphiBlock
p616
(dp617
g512
(idelphi
DelphiCompoundStatement
p618
(dp619
g515
(lp620
(idelphi
DelphiForStatement
p621
(dp622
g530
S'i'
sg531
(i__main__
DelphiIdentAccess
p623
(dp624
g15
S'kStatisticsPartTypeLast'
p625
sg451
(lp626
sbsg536
g537
sg538
(idelphi
DelphiIntegerValue
p627
(dp628
g14
S'0'
sbsg541
(idelphi
DelphiCompoundStatement
p629
(dp630
g515
(lp631
(i__main__
DelphiAssignStatement
p632
(dp633
g519
(idelphi
DelphiIntegerValue
p634
(dp635
g14
S'0'
sbsg523
(i__main__
DelphiIdentAccess
p636
(dp637
g15
S'count'
p638
sg451
(lp639
(idelphi
DelphiArrayEndAccess
p640
(dp641
g557
(lp642
(i__main__
DelphiIdentAccess
p643
(dp644
g15
S'i'
sg451
(lp645
sbasbasbsba(i__main__
DelphiAssignStatement
p646
(dp647
g519
(idelphi
DelphiRealValue
p648
(dp649
g14
S'0.0'
p650
sbsg523
(i__main__
DelphiIdentAccess
p651
(dp652
g15
S'liveBiomass_pctMPB'
p653
sg451
(lp654
(idelphi
DelphiArrayEndAccess
p655
(dp656
g557
(lp657
(i__main__
DelphiIdentAccess
p658
(dp659
g15
S'i'
sg451
(lp660
sbasbasbsba(i__main__
DelphiAssignStatement
p661
(dp662
g519
(idelphi
DelphiRealValue
p663
(dp664
g14
S'0.0'
p665
sbsg523
(i__main__
DelphiIdentAccess
p666
(dp667
g15
S'deadBiomass_pctMPB'
p668
sg451
(lp669
(idelphi
DelphiArrayEndAccess
p670
(dp671
g557
(lp672
(i__main__
DelphiIdentAccess
p673
(dp674
g15
S'i'
sg451
(lp675
sbasbasbsbasbsbasbsg593
(lp676
(i__main__
DelphiVarSection
p677
(dp678
g232
I0
sg597
(lp679
(idelphi
DelphiVarDecl
p680
(dp681
g11
Nsg601
(lp682
S'i'
asg17
(i__main__
DelphiPrimitiveType
p683
(dp684
g20
g605
sbsbasbasbsS'commentLinesBefore'
p685
(lp686
S' ---------------------------------------------------------------------------------- statistics object '
p687
asbssS'propertyDeclarations'
p688
(dp689
sS'variableNamesInDeclaredOrder'
p690
(lp691
g399
ag401
ag403
asg685
(lp692
S' meristems\r'
p693
asba(i__main__
DelphiClass
p694
(dp695
g396
(dp696
S'filer'
p697
S'filer'
p698
sS'plant'
p699
S'plant'
p700
sS'fractionofpotentialbiomass'
p701
S'fractionOfPotentialBiomass'
p702
sS'partid'
p703
S'partID'
p704
sS'point'
p705
S'point'
p706
sS'plantpartsdrawnatstart'
p707
S'plantPartsDrawnAtStart'
p708
sS'total3dexporttrianglesin3dobjects'
p709
S'total3DExportTrianglesIn3DObjects'
p710
sS'totalmemorysize'
p711
S'totalMemorySize'
p712
sS'finished'
p713
S'finished'
p714
sS'ageofyoungestphytomer'
p715
S'ageOfYoungestPhytomer'
p716
sS'foundplantpart'
p717
S'foundPlantPart'
p718
sS'foundlist'
p719
S'foundList'
p720
sS'total3dexportstemsegments'
p721
S'total3DExportStemSegments'
p722
sS'currentphytomer'
p723
S'currentPhytomer'
p724
sS'statistics'
p725
S'statistics'
p726
sS'mode'
p727
S'mode'
p728
sS'exporttypecounts'
p729
S'exportTypeCounts'
p730
sS'showdrawingprogress'
p731
S'showDrawingProgress'
p732
sS'total3dexportpointsin3dobjects'
p733
S'total3DExportPointsIn3DObjects'
p734
sS'total'
p735
S'total'
p736
sS'totalplantparts'
p737
S'totalPlantParts'
p738
ssg404
S'PdTraverser'
p739
sg406
(dp740
S'traverseplant'
p741
(i__main__
DelphiMethodDeclaration
p742
(dp743
g404
S'traversePlant'
p744
sg412
(lp745
(i__main__
DelphiFormalParameter
p746
(dp747
g538
NsS'names'
p748
(lp749
S'traversalCount'
p750
asg17
(i__main__
DelphiPrimitiveType
p751
(dp752
g20
g442
sbsS'parameterVariety'
p753
Nsbasg414
g739
sg415
Nsg419
I0
sg420
g427
sbsS'createwithplant'
p754
(i__main__
DelphiMethodDeclaration
p755
(dp756
g404
S'createWithPlant'
p757
sg412
(lp758
(i__main__
DelphiFormalParameter
p759
(dp760
g538
Nsg748
(lp761
S'thePlant'
p762
asg17
(i__main__
DelphiNamedType
p763
(dp764
g20
S'PdPlant'
p765
sg433
g1
sg434
Nsbsg753
Nsbasg414
g739
sg415
Nsg419
I0
sg420
S'constructor'
p766
sbsS'begintraversal'
p767
(i__main__
DelphiMethodDeclaration
p768
(dp769
g404
S'beginTraversal'
p770
sg412
(lp771
(i__main__
DelphiFormalParameter
p772
(dp773
g538
Nsg748
(lp774
S'aMode'
p775
asg17
(i__main__
DelphiPrimitiveType
p776
(dp777
g20
S'integer'
p778
sbsg753
Nsbasg414
g739
sg415
Nsg419
I0
sg420
g427
sbsS'traversewholeplant'
p779
(i__main__
DelphiMethodDeclaration
p780
(dp781
g404
S'traverseWholePlant'
p782
sg412
(lp783
(i__main__
DelphiFormalParameter
p784
(dp785
g538
Nsg748
(lp786
S'aMode'
p787
asg17
(i__main__
DelphiPrimitiveType
p788
(dp789
g20
g778
sbsg753
Nsbasg414
g739
sg415
Nsg419
I0
sg420
g427
sbssg428
(lp790
(i__main__
DelphiNamedType
p791
(dp792
g20
S'TObject'
p793
sg433
g1
sg434
Nsbasg435
(dp794
S'filer'
p795
(i__main__
DelphiNamedType
p796
(dp797
g20
S'PdFiler'
p798
sg433
g1
sg434
NsbsS'plant'
p799
(i__main__
DelphiNamedType
p800
(dp801
g20
S'PdPlant'
p802
sg433
g1
sg434
NsbsS'fractionofpotentialbiomass'
p803
(i__main__
DelphiPrimitiveType
p804
(dp805
g20
g418
sbsS'partid'
p806
(i__main__
DelphiPrimitiveType
p807
(dp808
g20
g442
sbsS'point'
p809
(i__main__
DelphiNamedType
p810
(dp811
g20
S'TPoint'
p812
sg433
g1
sg434
NsbsS'plantpartsdrawnatstart'
p813
(i__main__
DelphiPrimitiveType
p814
(dp815
g20
g442
sbsS'total3dexporttrianglesin3dobjects'
p816
(i__main__
DelphiPrimitiveType
p817
(dp818
g20
g442
sbsS'totalmemorysize'
p819
(i__main__
DelphiPrimitiveType
p820
(dp821
g20
g442
sbsS'finished'
p822
(i__main__
DelphiPrimitiveType
p823
(dp824
g20
S'boolean'
p825
sbsS'ageofyoungestphytomer'
p826
(i__main__
DelphiPrimitiveType
p827
(dp828
g20
g442
sbsS'foundplantpart'
p829
(i__main__
DelphiNamedType
p830
(dp831
g20
S'PdPlantPart'
p832
sg433
g1
sg434
NsbsS'foundlist'
p833
(i__main__
DelphiNamedType
p834
(dp835
g20
S'TList'
p836
sg433
g1
sg434
NsbsS'total3dexportstemsegments'
p837
(i__main__
DelphiPrimitiveType
p838
(dp839
g20
g442
sbsS'currentphytomer'
p840
(i__main__
DelphiNamedType
p841
(dp842
g20
S'TObject'
p843
sg433
g1
sg434
NsbsS'statistics'
p844
(i__main__
DelphiNamedType
p845
(dp846
g20
S'PdPlantStatistics'
p847
sg433
g1
sg434
NsbsS'mode'
p848
(i__main__
DelphiPrimitiveType
p849
(dp850
g20
g605
sbsS'exporttypecounts'
p851
(i__main__
DelphiArrayType
p852
(dp853
g17
(i__main__
DelphiPrimitiveType
p854
(dp855
g20
g442
sbsg443
(lp856
(idelphi
DelphiSubrange
p857
(dp858
g447
(i__main__
DelphiIdentAccess
p859
(dp860
g15
S'kExportPartLast'
p861
sg451
(lp862
sbsg453
(idelphi
DelphiIntegerValue
p863
(dp864
g14
S'0'
sbsg404
S''
sbasbsS'showdrawingprogress'
p865
(i__main__
DelphiPrimitiveType
p866
(dp867
g20
g825
sbsS'total3dexportpointsin3dobjects'
p868
(i__main__
DelphiPrimitiveType
p869
(dp870
g20
g442
sbsS'total'
p871
(i__main__
DelphiPrimitiveType
p872
(dp873
g20
g418
sbsS'totalplantparts'
p874
(i__main__
DelphiPrimitiveType
p875
(dp876
g20
g442
sbssg484
(lp877
S'createwithplant'
p878
aS'begintraversal'
p879
aS'traversewholeplant'
p880
aS'traverseplant'
p881
asg488
(dp882
S'traversewholeplant'
p883
(i__main__
DelphiMethodImplementation
p884
(dp885
g493
g780
sg404
g782
sg412
(lp886
(i__main__
DelphiFormalParameter
p887
(dp888
g538
Nsg748
(lp889
S'aMode'
p890
asg17
(i__main__
DelphiPrimitiveType
p891
(dp892
g20
g778
sbsg753
Nsbasg495
(lp893
sg497
(lp894
sg499
(lp895
g501
ag890
asg502
(dp896
g890
g891
ssg414
S'PdTraverser'
p897
sg415
Nsg507
(lp898
sg419
I0
sg420
g427
sg509
(i__main__
DelphiBlock
p899
(dp900
g512
(idelphi
DelphiCompoundStatement
p901
(dp902
g515
(lp903
(i__main__
DelphiAssignStatement
p904
(dp905
g519
Nsg523
(i__main__
DelphiIdentAccess
p906
(dp907
g15
S'self'
p908
sg451
(lp909
(idelphi
DelphiFieldEndAccess
p910
(dp911
S'field'
p912
S'beginTraversal'
p913
sba(idelphi
DelphiFunctionEndAccess
p914
(dp915
g557
(lp916
(i__main__
DelphiIdentAccess
p917
(dp918
g15
S'aMode'
p919
sg451
(lp920
sbasbasbsba(i__main__
DelphiAssignStatement
p921
(dp922
g519
Nsg523
(i__main__
DelphiIdentAccess
p923
(dp924
g15
S'self'
p925
sg451
(lp926
(idelphi
DelphiFieldEndAccess
p927
(dp928
g912
S'traversePlant'
p929
sba(idelphi
DelphiFunctionEndAccess
p930
(dp931
g557
(lp932
(idelphi
DelphiIntegerValue
p933
(dp934
g14
S'0'
sbasbasbsbasbsg593
(lp935
sbsbsS'traverseplant'
p936
(i__main__
DelphiMethodImplementation
p937
(dp938
g493
g742
sg404
g744
sg412
(lp939
(i__main__
DelphiFormalParameter
p940
(dp941
g538
Nsg748
(lp942
S'traversalCount'
p943
asg17
(i__main__
DelphiPrimitiveType
p944
(dp945
g20
g442
sbsg753
Nsbasg495
(lp946
sg497
(lp947
sg499
(lp948
g501
ag943
asg502
(dp949
g943
g944
ssg414
S'PdTraverser'
p950
sg415
Nsg507
(lp951
sg419
I0
sg420
g427
sg509
(i__main__
DelphiBlock
p952
(dp953
g512
(idelphi
DelphiCompoundStatement
p954
(dp955
g515
(lp956
(idelphi
DelphiIfStatement
p957
(dp958
S'expression'
p959
(idelphi
DelphiNestedExpressionListAccess
p960
(dp961
g451
(lp962
sg557
(lp963
(idelphi
DelphiRelOp
p964
(dp965
S'simpleExpression1'
p966
(i__main__
DelphiIdentAccess
p967
(dp968
g15
S'currentPhytomer'
p969
sg451
(lp970
sbsS'simpleExpression2'
p971
(idelphi
DelphiNilValue
p972
(dp973
bsS'relOp'
p974
S'='
sbasbsS'ifFalseStatement'
p975
NsS'ifTrueStatement'
p976
(i__main__
DelphiExitStatement
p977
(dp978
S'proceduralOrMethodImplementation'
p979
g937
sbsba(i__main__
DelphiAssignStatement
p980
(dp981
g519
(i__main__
DelphiIdentAccess
p982
(dp983
g15
S'PdInternode'
p984
sg451
(lp985
(idelphi
DelphiFunctionEndAccess
p986
(dp987
g557
(lp988
(i__main__
DelphiIdentAccess
p989
(dp990
g15
S'currentPhytomer'
p991
sg451
(lp992
sbasbasbsg523
(i__main__
DelphiIdentAccess
p993
(dp994
g15
S'phytomerTraversing'
p995
sg451
(lp996
sbsba(i__main__
DelphiAssignStatement
p997
(dp998
g519
(idelphi
DelphiIntegerValue
p999
(dp1000
g14
S'0'
sbsg523
(i__main__
DelphiIdentAccess
p1001
(dp1002
g15
S'i'
sg451
(lp1003
sbsba(idelphi
DelphiWhileStatement
p1004
(dp1005
g541
(idelphi
DelphiCompoundStatement
p1006
(dp1007
g515
(lp1008
(idelphi
DelphiIfStatement
p1009
(dp1010
g959
(i__main__
DelphiIdentAccess
p1011
(dp1012
g15
S'self'
p1013
sg451
(lp1014
(idelphi
DelphiFieldEndAccess
p1015
(dp1016
g912
S'finished'
p1017
sbasbsg975
Nsg976
(i__main__
DelphiExitStatement
p1018
(dp1019
g979
g937
sbsba(idelphi
DelphiCaseStatement
p1020
(dp1021
S'elseStatement'
p1022
Nsg959
(i__main__
DelphiIdentAccess
p1023
(dp1024
g15
S'phytomerTraversing'
p1025
sg451
(lp1026
(idelphi
DelphiFieldEndAccess
p1027
(dp1028
g912
S'traversingDirection'
p1029
sbasbsS'caseSelectorList'
p1030
(lp1031
(idelphi
DelphiCaseSelector
p1032
(dp1033
g541
(idelphi
DelphiCompoundStatement
p1034
(dp1035
g515
(lp1036
(i__main__
DelphiIncOrDecStatement
p1037
(dp1038
S'incOrDecString'
p1039
S'inc'
p1040
sS'incrementExpression'
p1041
Nsg523
(i__main__
DelphiIdentAccess
p1042
(dp1043
g15
S'phytomerTraversing'
p1044
sg451
(lp1045
(idelphi
DelphiFieldEndAccess
p1046
(dp1047
g912
S'traversingDirection'
p1048
sbasbsba(idelphi
DelphiIfStatement
p1049
(dp1050
g959
(idelphi
DelphiRelOp
p1051
(dp1052
g966
(i__main__
DelphiIdentAccess
p1053
(dp1054
g15
S'phytomerTraversing'
p1055
sg451
(lp1056
(idelphi
DelphiFieldEndAccess
p1057
(dp1058
g912
S'leftBranchPlantPart'
p1059
sbasbsg971
(idelphi
DelphiNilValue
p1060
(dp1061
bsg974
S'<>'
p1062
sbsg975
Nsg976
(idelphi
DelphiCompoundStatement
p1063
(dp1064
g515
(lp1065
(idelphi
DelphiIfStatement
p1066
(dp1067
g959
(idelphi
DelphiNestedExpressionListAccess
p1068
(dp1069
g451
(lp1070
sg557
(lp1071
(idelphi
DelphiRelOp
p1072
(dp1073
g966
(i__main__
DelphiIdentAccess
p1074
(dp1075
g15
S'mode'
p1076
sg451
(lp1077
sbsg971
(i__main__
DelphiIdentAccess
p1078
(dp1079
g15
S'kActivityDraw'
p1080
sg451
(lp1081
sbsg974
S'='
sbasbsg975
Nsg976
(i__main__
DelphiAssignStatement
p1082
(dp1083
g519
Nsg523
(i__main__
DelphiIdentAccess
p1084
(dp1085
g15
S'plant'
p1086
sg451
(lp1087
(idelphi
DelphiFieldEndAccess
p1088
(dp1089
g912
S'turtle'
p1090
sba(idelphi
DelphiFieldEndAccess
p1091
(dp1092
g912
S'push'
p1093
sbasbsbsba(i__main__
DelphiAssignStatement
p1094
(dp1095
g519
Nsg523
(i__main__
DelphiIdentAccess
p1096
(dp1097
g15
S'phytomerTraversing'
p1098
sg451
(lp1099
(idelphi
DelphiFieldEndAccess
p1100
(dp1101
g912
S'leftBranchPlantPart'
p1102
sba(idelphi
DelphiFieldEndAccess
p1103
(dp1104
g912
S'traverseActivity'
p1105
sba(idelphi
DelphiFunctionEndAccess
p1106
(dp1107
g557
(lp1108
(i__main__
DelphiIdentAccess
p1109
(dp1110
g15
S'mode'
p1111
sg451
(lp1112
sba(i__main__
DelphiIdentAccess
p1113
(dp1114
g15
S'self'
p1115
sg451
(lp1116
sbasbasbsba(idelphi
DelphiIfStatement
p1117
(dp1118
g959
(idelphi
DelphiNestedExpressionListAccess
p1119
(dp1120
g451
(lp1121
sg557
(lp1122
(i__main__
DelphiIdentAccess
p1123
(dp1124
g15
S'phytomerTraversing'
p1125
sg451
(lp1126
(idelphi
DelphiFieldEndAccess
p1127
(dp1128
g912
S'leftBranchPlantPart'
p1129
sba(idelphi
DelphiFieldEndAccess
p1130
(dp1131
g912
S'isPhytomer'
p1132
sbasbasbsg975
(idelphi
DelphiIfStatement
p1133
(dp1134
g959
(idelphi
DelphiNestedExpressionListAccess
p1135
(dp1136
g451
(lp1137
sg557
(lp1138
(idelphi
DelphiRelOp
p1139
(dp1140
g966
(i__main__
DelphiIdentAccess
p1141
(dp1142
g15
S'mode'
p1143
sg451
(lp1144
sbsg971
(i__main__
DelphiIdentAccess
p1145
(dp1146
g15
S'kActivityDraw'
p1147
sg451
(lp1148
sbsg974
S'='
sbasbsg975
Nsg976
(i__main__
DelphiAssignStatement
p1149
(dp1150
g519
Nsg523
(i__main__
DelphiIdentAccess
p1151
(dp1152
g15
S'plant'
p1153
sg451
(lp1154
(idelphi
DelphiFieldEndAccess
p1155
(dp1156
g912
S'turtle'
p1157
sba(idelphi
DelphiFieldEndAccess
p1158
(dp1159
g912
S'pop'
p1160
sbasbsbsbsg976
(idelphi
DelphiCompoundStatement
p1161
(dp1162
g515
(lp1163
(i__main__
DelphiAssignStatement
p1164
(dp1165
g519
(i__main__
DelphiIdentAccess
p1166
(dp1167
g15
S'PdInternode'
p1168
sg451
(lp1169
(idelphi
DelphiFunctionEndAccess
p1170
(dp1171
g557
(lp1172
(i__main__
DelphiIdentAccess
p1173
(dp1174
g15
S'phytomerTraversing'
p1175
sg451
(lp1176
(idelphi
DelphiFieldEndAccess
p1177
(dp1178
g912
S'leftBranchPlantPart'
p1179
sbasbasbasbsg523
(i__main__
DelphiIdentAccess
p1180
(dp1181
g15
S'phytomerTraversing'
p1182
sg451
(lp1183
sbsba(i__main__
DelphiAssignStatement
p1184
(dp1185
g519
(i__main__
DelphiIdentAccess
p1186
(dp1187
g15
S'kTraverseLeft'
p1188
sg451
(lp1189
sbsg523
(i__main__
DelphiIdentAccess
p1190
(dp1191
g15
S'phytomerTraversing'
p1192
sg451
(lp1193
(idelphi
DelphiFieldEndAccess
p1194
(dp1195
g912
S'traversingDirection'
p1196
sbasbsbasbsbasbsbasbsS'caseLabelList'
p1197
(lp1198
(i__main__
DelphiIdentAccess
p1199
(dp1200
g15
S'kTraverseLeft'
p1201
sg451
(lp1202
sbasba(idelphi
DelphiCaseSelector
p1203
(dp1204
g541
(idelphi
DelphiCompoundStatement
p1205
(dp1206
g515
(lp1207
(i__main__
DelphiIncOrDecStatement
p1208
(dp1209
g1039
g1040
sg1041
Nsg523
(i__main__
DelphiIdentAccess
p1210
(dp1211
g15
S'phytomerTraversing'
p1212
sg451
(lp1213
(idelphi
DelphiFieldEndAccess
p1214
(dp1215
g912
S'traversingDirection'
p1216
sbasbsba(idelphi
DelphiIfStatement
p1217
(dp1218
g959
(idelphi
DelphiRelOp
p1219
(dp1220
g966
(i__main__
DelphiIdentAccess
p1221
(dp1222
g15
S'phytomerTraversing'
p1223
sg451
(lp1224
(idelphi
DelphiFieldEndAccess
p1225
(dp1226
g912
S'rightBranchPlantPart'
p1227
sbasbsg971
(idelphi
DelphiNilValue
p1228
(dp1229
bsg974
g1062
sbsg975
Nsg976
(idelphi
DelphiCompoundStatement
p1230
(dp1231
g515
(lp1232
(idelphi
DelphiIfStatement
p1233
(dp1234
g959
(idelphi
DelphiNestedExpressionListAccess
p1235
(dp1236
g451
(lp1237
sg557
(lp1238
(idelphi
DelphiRelOp
p1239
(dp1240
g966
(i__main__
DelphiIdentAccess
p1241
(dp1242
g15
S'mode'
p1243
sg451
(lp1244
sbsg971
(i__main__
DelphiIdentAccess
p1245
(dp1246
g15
S'kActivityDraw'
p1247
sg451
(lp1248
sbsg974
S'='
sbasbsg975
Nsg976
(i__main__
DelphiAssignStatement
p1249
(dp1250
g519
Nsg523
(i__main__
DelphiIdentAccess
p1251
(dp1252
g15
S'plant'
p1253
sg451
(lp1254
(idelphi
DelphiFieldEndAccess
p1255
(dp1256
g912
S'turtle'
p1257
sba(idelphi
DelphiFieldEndAccess
p1258
(dp1259
g912
S'push'
p1260
sbasbsbsba(i__main__
DelphiAssignStatement
p1261
(dp1262
g519
Nsg523
(i__main__
DelphiIdentAccess
p1263
(dp1264
g15
S'phytomerTraversing'
p1265
sg451
(lp1266
(idelphi
DelphiFieldEndAccess
p1267
(dp1268
g912
S'rightBranchPlantPart'
p1269
sba(idelphi
DelphiFieldEndAccess
p1270
(dp1271
g912
S'traverseActivity'
p1272
sba(idelphi
DelphiFunctionEndAccess
p1273
(dp1274
g557
(lp1275
(i__main__
DelphiIdentAccess
p1276
(dp1277
g15
S'mode'
p1278
sg451
(lp1279
sba(i__main__
DelphiIdentAccess
p1280
(dp1281
g15
S'self'
p1282
sg451
(lp1283
sbasbasbsba(idelphi
DelphiIfStatement
p1284
(dp1285
g959
(idelphi
DelphiNestedExpressionListAccess
p1286
(dp1287
g451
(lp1288
sg557
(lp1289
(i__main__
DelphiIdentAccess
p1290
(dp1291
g15
S'phytomerTraversing'
p1292
sg451
(lp1293
(idelphi
DelphiFieldEndAccess
p1294
(dp1295
g912
S'rightBranchPlantPart'
p1296
sba(idelphi
DelphiFieldEndAccess
p1297
(dp1298
g912
S'isPhytomer'
p1299
sbasbasbsg975
(idelphi
DelphiIfStatement
p1300
(dp1301
g959
(idelphi
DelphiNestedExpressionListAccess
p1302
(dp1303
g451
(lp1304
sg557
(lp1305
(idelphi
DelphiRelOp
p1306
(dp1307
g966
(i__main__
DelphiIdentAccess
p1308
(dp1309
g15
S'mode'
p1310
sg451
(lp1311
sbsg971
(i__main__
DelphiIdentAccess
p1312
(dp1313
g15
S'kActivityDraw'
p1314
sg451
(lp1315
sbsg974
S'='
sbasbsg975
Nsg976
(i__main__
DelphiAssignStatement
p1316
(dp1317
g519
Nsg523
(i__main__
DelphiIdentAccess
p1318
(dp1319
g15
S'plant'
p1320
sg451
(lp1321
(idelphi
DelphiFieldEndAccess
p1322
(dp1323
g912
S'turtle'
p1324
sba(idelphi
DelphiFieldEndAccess
p1325
(dp1326
g912
S'pop'
p1327
sbasbsbsbsg976
(idelphi
DelphiCompoundStatement
p1328
(dp1329
g515
(lp1330
(i__main__
DelphiAssignStatement
p1331
(dp1332
g519
(i__main__
DelphiIdentAccess
p1333
(dp1334
g15
S'PdInternode'
p1335
sg451
(lp1336
(idelphi
DelphiFunctionEndAccess
p1337
(dp1338
g557
(lp1339
(i__main__
DelphiIdentAccess
p1340
(dp1341
g15
S'phytomerTraversing'
p1342
sg451
(lp1343
(idelphi
DelphiFieldEndAccess
p1344
(dp1345
g912
S'rightBranchPlantPart'
p1346
sbasbasbasbsg523
(i__main__
DelphiIdentAccess
p1347
(dp1348
g15
S'phytomerTraversing'
p1349
sg451
(lp1350
sbsba(i__main__
DelphiAssignStatement
p1351
(dp1352
g519
(i__main__
DelphiIdentAccess
p1353
(dp1354
g15
S'kTraverseLeft'
p1355
sg451
(lp1356
sbsg523
(i__main__
DelphiIdentAccess
p1357
(dp1358
g15
S'phytomerTraversing'
p1359
sg451
(lp1360
(idelphi
DelphiFieldEndAccess
p1361
(dp1362
g912
S'traversingDirection'
p1363
sbasbsbasbsbasbsbasbsg1197
(lp1364
(i__main__
DelphiIdentAccess
p1365
(dp1366
g15
S'kTraverseRight'
p1367
sg451
(lp1368
sbasba(idelphi
DelphiCaseSelector
p1369
(dp1370
g541
(idelphi
DelphiCompoundStatement
p1371
(dp1372
g515
(lp1373
(i__main__
DelphiIncOrDecStatement
p1374
(dp1375
g1039
g1040
sg1041
Nsg523
(i__main__
DelphiIdentAccess
p1376
(dp1377
g15
S'phytomerTraversing'
p1378
sg451
(lp1379
(idelphi
DelphiFieldEndAccess
p1380
(dp1381
g912
S'traversingDirection'
p1382
sbasbsba(idelphi
DelphiIfStatement
p1383
(dp1384
g959
(idelphi
DelphiRelOp
p1385
(dp1386
g966
(i__main__
DelphiIdentAccess
p1387
(dp1388
g15
S'phytomerTraversing'
p1389
sg451
(lp1390
(idelphi
DelphiFieldEndAccess
p1391
(dp1392
g912
S'nextPlantPart'
p1393
sbasbsg971
(idelphi
DelphiNilValue
p1394
(dp1395
bsg974
g1062
sbsg975
Nsg976
(idelphi
DelphiCompoundStatement
p1396
(dp1397
g515
(lp1398
(idelphi
DelphiIfStatement
p1399
(dp1400
g959
(idelphi
DelphiNestedExpressionListAccess
p1401
(dp1402
g451
(lp1403
sg557
(lp1404
(idelphi
DelphiRelOp
p1405
(dp1406
g966
(i__main__
DelphiIdentAccess
p1407
(dp1408
g15
S'mode'
p1409
sg451
(lp1410
sbsg971
(i__main__
DelphiIdentAccess
p1411
(dp1412
g15
S'kActivityDraw'
p1413
sg451
(lp1414
sbsg974
S'='
sbasbsg975
Nsg976
(idelphi
DelphiCompoundStatement
p1415
(dp1416
g515
(lp1417
(i__main__
DelphiAssignStatement
p1418
(dp1419
g519
Nsg523
(i__main__
DelphiIdentAccess
p1420
(dp1421
g15
S'plant'
p1422
sg451
(lp1423
(idelphi
DelphiFieldEndAccess
p1424
(dp1425
g912
S'turtle'
p1426
sba(idelphi
DelphiFieldEndAccess
p1427
(dp1428
g912
S'push'
p1429
sbasbsba(i__main__
DelphiAssignStatement
p1430
(dp1431
g519
Nsg523
(i__main__
DelphiIdentAccess
p1432
(dp1433
g15
S'plant'
p1434
sg451
(lp1435
(idelphi
DelphiFieldEndAccess
p1436
(dp1437
g912
S'turtle'
p1438
sba(idelphi
DelphiFieldEndAccess
p1439
(dp1440
g912
S'RotateX'
p1441
sba(idelphi
DelphiFunctionEndAccess
p1442
(dp1443
g557
(lp1444
(idelphi
DelphiMulOp
p1445
(dp1446
S'signedFactor2'
p1447
(idelphi
DelphiIntegerValue
p1448
(dp1449
g14
S'360'
p1450
sbsS'mulOp'
p1451
S'/'
sS'signedFactor1'
p1452
(idelphi
DelphiMulOp
p1453
(dp1454
g1447
(idelphi
DelphiIntegerValue
p1455
(dp1456
g14
S'256'
p1457
sbsg1451
S'*'
sg1452
(i__main__
DelphiIdentAccess
p1458
(dp1459
g15
S'plant'
p1460
sg451
(lp1461
(idelphi
DelphiFieldEndAccess
p1462
(dp1463
g912
S'pGeneral'
p1464
sba(idelphi
DelphiFieldEndAccess
p1465
(dp1466
g912
S'phyllotacticRotationAngle'
p1467
sbasbsbsbasbasbsbasbsba(i__main__
DelphiAssignStatement
p1468
(dp1469
g519
Nsg523
(i__main__
DelphiIdentAccess
p1470
(dp1471
g15
S'phytomerTraversing'
p1472
sg451
(lp1473
(idelphi
DelphiFieldEndAccess
p1474
(dp1475
g912
S'nextPlantPart'
p1476
sba(idelphi
DelphiFieldEndAccess
p1477
(dp1478
g912
S'traverseActivity'
p1479
sba(idelphi
DelphiFunctionEndAccess
p1480
(dp1481
g557
(lp1482
(i__main__
DelphiIdentAccess
p1483
(dp1484
g15
S'mode'
p1485
sg451
(lp1486
sba(i__main__
DelphiIdentAccess
p1487
(dp1488
g15
S'self'
p1489
sg451
(lp1490
sbasbasbsba(idelphi
DelphiIfStatement
p1491
(dp1492
g959
(idelphi
DelphiNestedExpressionListAccess
p1493
(dp1494
g451
(lp1495
sg557
(lp1496
(i__main__
DelphiIdentAccess
p1497
(dp1498
g15
S'phytomerTraversing'
p1499
sg451
(lp1500
(idelphi
DelphiFieldEndAccess
p1501
(dp1502
g912
S'nextPlantPart'
p1503
sba(idelphi
DelphiFieldEndAccess
p1504
(dp1505
g912
S'isPhytomer'
p1506
sbasbasbsg975
(idelphi
DelphiIfStatement
p1507
(dp1508
g959
(idelphi
DelphiNestedExpressionListAccess
p1509
(dp1510
g451
(lp1511
sg557
(lp1512
(idelphi
DelphiRelOp
p1513
(dp1514
g966
(i__main__
DelphiIdentAccess
p1515
(dp1516
g15
S'mode'
p1517
sg451
(lp1518
sbsg971
(i__main__
DelphiIdentAccess
p1519
(dp1520
g15
S'kActivityDraw'
p1521
sg451
(lp1522
sbsg974
S'='
sbasbsg975
Nsg976
(i__main__
DelphiAssignStatement
p1523
(dp1524
g519
Nsg523
(i__main__
DelphiIdentAccess
p1525
(dp1526
g15
S'plant'
p1527
sg451
(lp1528
(idelphi
DelphiFieldEndAccess
p1529
(dp1530
g912
S'turtle'
p1531
sba(idelphi
DelphiFieldEndAccess
p1532
(dp1533
g912
S'pop'
p1534
sbasbsbsbsg976
(idelphi
DelphiCompoundStatement
p1535
(dp1536
g515
(lp1537
(i__main__
DelphiAssignStatement
p1538
(dp1539
g519
(i__main__
DelphiIdentAccess
p1540
(dp1541
g15
S'PdInternode'
p1542
sg451
(lp1543
(idelphi
DelphiFunctionEndAccess
p1544
(dp1545
g557
(lp1546
(i__main__
DelphiIdentAccess
p1547
(dp1548
g15
S'phytomerTraversing'
p1549
sg451
(lp1550
(idelphi
DelphiFieldEndAccess
p1551
(dp1552
g912
S'nextPlantPart'
p1553
sbasbasbasbsg523
(i__main__
DelphiIdentAccess
p1554
(dp1555
g15
S'phytomerTraversing'
p1556
sg451
(lp1557
sbsba(i__main__
DelphiAssignStatement
p1558
(dp1559
g519
(i__main__
DelphiIdentAccess
p1560
(dp1561
g15
S'kTraverseLeft'
p1562
sg451
(lp1563
sbsg523
(i__main__
DelphiIdentAccess
p1564
(dp1565
g15
S'phytomerTraversing'
p1566
sg451
(lp1567
(idelphi
DelphiFieldEndAccess
p1568
(dp1569
g912
S'traversingDirection'
p1570
sbasbsbasbsbasbsbasbsg1197
(lp1571
(i__main__
DelphiIdentAccess
p1572
(dp1573
g15
S'kTraverseNext'
p1574
sg451
(lp1575
sbasba(idelphi
DelphiCaseSelector
p1576
(dp1577
g541
(idelphi
DelphiCompoundStatement
p1578
(dp1579
g515
(lp1580
(i__main__
DelphiAssignStatement
p1581
(dp1582
g519
(i__main__
DelphiIdentAccess
p1583
(dp1584
g15
S'kTraverseNone'
p1585
sg451
(lp1586
sbsg523
(i__main__
DelphiIdentAccess
p1587
(dp1588
g15
S'phytomerTraversing'
p1589
sg451
(lp1590
(idelphi
DelphiFieldEndAccess
p1591
(dp1592
g912
S'traversingDirection'
p1593
sbasbsba(i__main__
DelphiAssignStatement
p1594
(dp1595
g519
(i__main__
DelphiIdentAccess
p1596
(dp1597
g15
S'phytomerTraversing'
p1598
sg451
(lp1599
sbsg523
(i__main__
DelphiIdentAccess
p1600
(dp1601
g15
S'lastPhytomer'
p1602
sg451
(lp1603
sbsba(i__main__
DelphiAssignStatement
p1604
(dp1605
g519
(i__main__
DelphiIdentAccess
p1606
(dp1607
g15
S'phytomerTraversing'
p1608
sg451
(lp1609
(idelphi
DelphiFieldEndAccess
p1610
(dp1611
g912
S'phytomerAttachedTo'
p1612
sbasbsg523
(i__main__
DelphiIdentAccess
p1613
(dp1614
g15
S'phytomerTraversing'
p1615
sg451
(lp1616
sbsba(idelphi
DelphiIfStatement
p1617
(dp1618
g959
(idelphi
DelphiNestedExpressionListAccess
p1619
(dp1620
g451
(lp1621
sg557
(lp1622
(idelphi
DelphiRelOp
p1623
(dp1624
g966
(i__main__
DelphiIdentAccess
p1625
(dp1626
g15
S'mode'
p1627
sg451
(lp1628
sbsg971
(i__main__
DelphiIdentAccess
p1629
(dp1630
g15
S'kActivityFree'
p1631
sg451
(lp1632
sbsg974
S'='
sbasbsg975
Nsg976
(idelphi
DelphiCompoundStatement
p1633
(dp1634
g515
(lp1635
(i__main__
DelphiAssignStatement
p1636
(dp1637
g519
Nsg523
(i__main__
DelphiIdentAccess
p1638
(dp1639
g15
S'lastPhytomer'
p1640
sg451
(lp1641
(idelphi
DelphiFieldEndAccess
p1642
(dp1643
g912
S'free'
p1644
sbasbsba(idelphi
DelphiIfStatement
p1645
(dp1646
g959
(idelphi
DelphiRelOp
p1647
(dp1648
g966
(i__main__
DelphiIdentAccess
p1649
(dp1650
g15
S'phytomerTraversing'
p1651
sg451
(lp1652
sbsg971
(idelphi
DelphiNilValue
p1653
(dp1654
bsg974
g1062
sbsg975
Nsg976
(idelphi
DelphiCompoundStatement
p1655
(dp1656
g515
(lp1657
(idelphi
DelphiIfStatement
p1658
(dp1659
g959
(idelphi
DelphiNestedExpressionListAccess
p1660
(dp1661
g451
(lp1662
sg557
(lp1663
(idelphi
DelphiRelOp
p1664
(dp1665
g966
(i__main__
DelphiIdentAccess
p1666
(dp1667
g15
S'phytomerTraversing'
p1668
sg451
(lp1669
(idelphi
DelphiFieldEndAccess
p1670
(dp1671
g912
S'traversingDirection'
p1672
sbasbsg971
(idelphi
DelphiAddOp
p1673
(dp1674
g549
S'+'
sg550
(idelphi
DelphiIntegerValue
p1675
(dp1676
g14
S'1'
sbsg562
(i__main__
DelphiIdentAccess
p1677
(dp1678
g15
S'kTraverseLeft'
p1679
sg451
(lp1680
sbsbsg974
S'='
sbasbsg975
(idelphi
DelphiIfStatement
p1681
(dp1682
g959
(idelphi
DelphiNestedExpressionListAccess
p1683
(dp1684
g451
(lp1685
sg557
(lp1686
(idelphi
DelphiRelOp
p1687
(dp1688
g966
(i__main__
DelphiIdentAccess
p1689
(dp1690
g15
S'phytomerTraversing'
p1691
sg451
(lp1692
(idelphi
DelphiFieldEndAccess
p1693
(dp1694
g912
S'traversingDirection'
p1695
sbasbsg971
(idelphi
DelphiAddOp
p1696
(dp1697
g549
S'+'
sg550
(idelphi
DelphiIntegerValue
p1698
(dp1699
g14
S'1'
sbsg562
(i__main__
DelphiIdentAccess
p1700
(dp1701
g15
S'kTraverseRight'
p1702
sg451
(lp1703
sbsbsg974
S'='
sbasbsg975
(idelphi
DelphiIfStatement
p1704
(dp1705
g959
(idelphi
DelphiNestedExpressionListAccess
p1706
(dp1707
g451
(lp1708
sg557
(lp1709
(idelphi
DelphiRelOp
p1710
(dp1711
g966
(i__main__
DelphiIdentAccess
p1712
(dp1713
g15
S'phytomerTraversing'
p1714
sg451
(lp1715
(idelphi
DelphiFieldEndAccess
p1716
(dp1717
g912
S'traversingDirection'
p1718
sbasbsg971
(idelphi
DelphiAddOp
p1719
(dp1720
g549
S'+'
sg550
(idelphi
DelphiIntegerValue
p1721
(dp1722
g14
S'1'
sbsg562
(i__main__
DelphiIdentAccess
p1723
(dp1724
g15
S'kTraverseNext'
p1725
sg451
(lp1726
sbsbsg974
S'='
sbasbsg975
Nsg976
(i__main__
DelphiAssignStatement
p1727
(dp1728
g519
(idelphi
DelphiNilValue
p1729
(dp1730
bsg523
(i__main__
DelphiIdentAccess
p1731
(dp1732
g15
S'phytomerTraversing'
p1733
sg451
(lp1734
(idelphi
DelphiFieldEndAccess
p1735
(dp1736
g912
S'nextPlantPart'
p1737
sbasbsbsbsg976
(i__main__
DelphiAssignStatement
p1738
(dp1739
g519
(idelphi
DelphiNilValue
p1740
(dp1741
bsg523
(i__main__
DelphiIdentAccess
p1742
(dp1743
g15
S'phytomerTraversing'
p1744
sg451
(lp1745
(idelphi
DelphiFieldEndAccess
p1746
(dp1747
g912
S'rightBranchPlantPart'
p1748
sbasbsbsbsg976
(i__main__
DelphiAssignStatement
p1749
(dp1750
g519
(idelphi
DelphiNilValue
p1751
(dp1752
bsg523
(i__main__
DelphiIdentAccess
p1753
(dp1754
g15
S'phytomerTraversing'
p1755
sg451
(lp1756
(idelphi
DelphiFieldEndAccess
p1757
(dp1758
g912
S'leftBranchPlantPart'
p1759
sbasbsbsbasbsbasbsba(idelphi
DelphiIfStatement
p1760
(dp1761
g959
(idelphi
DelphiRelOp
p1762
(dp1763
g966
(i__main__
DelphiIdentAccess
p1764
(dp1765
g15
S'phytomerTraversing'
p1766
sg451
(lp1767
sbsg971
(idelphi
DelphiNilValue
p1768
(dp1769
bsg974
S'='
sbsg975
Nsg976
(idelphi
DelphiBreakStatement
p1770
(dp1771
bsba(idelphi
DelphiIfStatement
p1772
(dp1773
g959
(idelphi
DelphiNestedExpressionListAccess
p1774
(dp1775
g451
(lp1776
sg557
(lp1777
(idelphi
DelphiRelOp
p1778
(dp1779
g966
(i__main__
DelphiIdentAccess
p1780
(dp1781
g15
S'mode'
p1782
sg451
(lp1783
sbsg971
(i__main__
DelphiIdentAccess
p1784
(dp1785
g15
S'kActivityDraw'
p1786
sg451
(lp1787
sbsg974
S'='
sbasbsg975
Nsg976
(idelphi
DelphiCompoundStatement
p1788
(dp1789
g515
(lp1790
(i__main__
DelphiAssignStatement
p1791
(dp1792
g519
Nsg523
(i__main__
DelphiIdentAccess
p1793
(dp1794
g15
S'plant'
p1795
sg451
(lp1796
(idelphi
DelphiFieldEndAccess
p1797
(dp1798
g912
S'turtle'
p1799
sba(idelphi
DelphiFieldEndAccess
p1800
(dp1801
g912
S'pop'
p1802
sbasbsg685
(lp1803
S'special drawing stuff - if returning from left or right branch draw, pop turtle'
p1804
aS'\tif (phytomerTraversing.traversingDirection = kTraverseLeft + 1)\r'
p1805
aS'           or (phytomerTraversing.traversingDirection =  kTraverseRight + 1)  then '
p1806
asbasbsba(idelphi
DelphiIfStatement
p1807
(dp1808
g959
(idelphi
DelphiNestedExpressionListAccess
p1809
(dp1810
g451
(lp1811
sg557
(lp1812
(idelphi
DelphiRelOp
p1813
(dp1814
g966
(i__main__
DelphiIdentAccess
p1815
(dp1816
g15
S'mode'
p1817
sg451
(lp1818
sbsg971
(i__main__
DelphiIdentAccess
p1819
(dp1820
g15
S'kActivityCalculateBiomassForGravity'
p1821
sg451
(lp1822
sbsg974
S'='
sbasbsg975
Nsg976
(i__main__
DelphiAssignStatement
p1823
(dp1824
g519
Nsg523
(i__main__
DelphiIdentAccess
p1825
(dp1826
g15
S'phytomerTraversing'
p1827
sg451
(lp1828
(idelphi
DelphiFieldEndAccess
p1829
(dp1830
g912
S'traverseActivity'
p1831
sba(idelphi
DelphiFunctionEndAccess
p1832
(dp1833
g557
(lp1834
(i__main__
DelphiIdentAccess
p1835
(dp1836
g15
S'mode'
p1837
sg451
(lp1838
sba(i__main__
DelphiIdentAccess
p1839
(dp1840
g15
S'self'
p1841
sg451
(lp1842
sbasbasbsbsbasbsg1197
(lp1843
(i__main__
DelphiIdentAccess
p1844
(dp1845
g15
S'kTraverseDone'
p1846
sg451
(lp1847
sbasba(idelphi
DelphiCaseSelector
p1848
(dp1849
g541
(idelphi
DelphiRaiseStatement
p1850
(dp1851
g959
(i__main__
DelphiIdentAccess
p1852
(dp1853
g15
S'Exception'
p1854
sg451
(lp1855
(idelphi
DelphiFieldEndAccess
p1856
(dp1857
g912
S'create'
p1858
sba(idelphi
DelphiFunctionEndAccess
p1859
(dp1860
g557
(lp1861
(idelphi
DelphiStringAccess
p1862
(dp1863
g451
(lp1864
sg14
(idelphi
DelphiStringValue
p1865
(dp1866
g14
S'Problem: kTraverseNone encountered in method PdTraverser.traversePlant.'
p1867
sbsbasbasbsbsg1197
(lp1868
(i__main__
DelphiIdentAccess
p1869
(dp1870
g15
S'kTraverseNone'
p1871
sg451
(lp1872
sbasbasba(idelphi
DelphiIfStatement
p1873
(dp1874
g959
(idelphi
DelphiNestedExpressionListAccess
p1875
(dp1876
g451
(lp1877
sg557
(lp1878
(idelphi
DelphiRelOp
p1879
(dp1880
g966
(i__main__
DelphiIdentAccess
p1881
(dp1882
g15
S'traversalCount'
p1883
sg451
(lp1884
sbsg971
(idelphi
DelphiIntegerValue
p1885
(dp1886
g14
S'0'
sbsg974
g1062
sbasbsg975
Nsg976
(i__main__
DelphiIncOrDecStatement
p1887
(dp1888
g1039
g1040
sg1041
Nsg523
(i__main__
DelphiIdentAccess
p1889
(dp1890
g15
S'i'
sg451
(lp1891
sbsbsba(idelphi
DelphiIfStatement
p1892
(dp1893
g959
(idelphi
DelphiMulOp
p1894
(dp1895
g1447
(idelphi
DelphiNestedExpressionListAccess
p1896
(dp1897
g451
(lp1898
sg557
(lp1899
(i__main__
DelphiIdentAccess
p1900
(dp1901
g15
S'showDrawingProgress'
p1902
sg451
(lp1903
sbasbsg1451
S'and'
p1904
sg1452
(idelphi
DelphiNestedExpressionListAccess
p1905
(dp1906
g451
(lp1907
sg557
(lp1908
(idelphi
DelphiRelOp
p1909
(dp1910
g966
(i__main__
DelphiIdentAccess
p1911
(dp1912
g15
S'mode'
p1913
sg451
(lp1914
sbsg971
(i__main__
DelphiIdentAccess
p1915
(dp1916
g15
S'kActivityDraw'
p1917
sg451
(lp1918
sbsg974
S'='
sbasbsbsg975
Nsg976
(idelphi
DelphiCompoundStatement
p1919
(dp1920
g515
(lp1921
(idelphi
DelphiIfStatement
p1922
(dp1923
g959
(idelphi
DelphiRelOp
p1924
(dp1925
g966
(idelphi
DelphiMulOp
p1926
(dp1927
g1447
(idelphi
DelphiIntegerValue
p1928
(dp1929
g14
S'4'
sbsg1451
S'mod'
p1930
sg1452
(i__main__
DelphiIdentAccess
p1931
(dp1932
g15
S'totalPlantParts'
p1933
sg451
(lp1934
sbsbsg971
(idelphi
DelphiIntegerValue
p1935
(dp1936
g14
S'0'
sbsg974
g1062
sbsg975
Nsg976
(idelphi
DelphiContinueStatement
p1937
(dp1938
bsba(idelphi
DelphiIfStatement
p1939
(dp1940
g959
(idelphi
DelphiMulOp
p1941
(dp1942
g1447
(idelphi
DelphiNestedExpressionListAccess
p1943
(dp1944
g451
(lp1945
sg557
(lp1946
(i__main__
DelphiIdentAccess
p1947
(dp1948
g15
S'MainForm'
p1949
sg451
(lp1950
(idelphi
DelphiFieldEndAccess
p1951
(dp1952
g912
S'drawing'
p1953
sbasbasbsg1451
g1904
sg1452
(idelphi
DelphiNestedExpressionListAccess
p1954
(dp1955
g451
(lp1956
sg557
(lp1957
(idelphi
DelphiRelOp
p1958
(dp1959
g966
(i__main__
DelphiIdentAccess
p1960
(dp1961
g15
S'MainForm'
p1962
sg451
(lp1963
sbsg971
(idelphi
DelphiNilValue
p1964
(dp1965
bsg974
g1062
sbasbsbsg975
Nsg976
(i__main__
DelphiAssignStatement
p1966
(dp1967
g519
Nsg523
(i__main__
DelphiIdentAccess
p1968
(dp1969
g15
S'MainForm'
p1970
sg451
(lp1971
(idelphi
DelphiFieldEndAccess
p1972
(dp1973
g912
S'showDrawProgress'
p1974
sba(idelphi
DelphiFunctionEndAccess
p1975
(dp1976
g557
(lp1977
(idelphi
DelphiAddOp
p1978
(dp1979
g549
S'+'
sg550
(i__main__
DelphiIdentAccess
p1980
(dp1981
g15
S'self'
p1982
sg451
(lp1983
(idelphi
DelphiFieldEndAccess
p1984
(dp1985
g912
S'totalPlantParts'
p1986
sbasbsg562
(i__main__
DelphiIdentAccess
p1987
(dp1988
g15
S'self'
p1989
sg451
(lp1990
(idelphi
DelphiFieldEndAccess
p1991
(dp1992
g912
S'plantPartsDrawnAtStart'
p1993
sbasbsbasbasbsbsbasbsbasbsS'whileExpression'
p1994
(idelphi
DelphiRelOp
p1995
(dp1996
g966
(i__main__
DelphiIdentAccess
p1997
(dp1998
g15
S'i'
sg451
(lp1999
sbsg971
(i__main__
DelphiIdentAccess
p2000
(dp2001
g15
S'traversalCount'
p2002
sg451
(lp2003
sbsg974
S'<='
p2004
sbsbasbsg593
(lp2005
(i__main__
DelphiVarSection
p2006
(dp2007
g232
I0
sg597
(lp2008
(idelphi
DelphiVarDecl
p2009
(dp2010
g11
Nsg601
(lp2011
S'i'
asg17
(i__main__
DelphiPrimitiveType
p2012
(dp2013
g20
g442
sbsba(idelphi
DelphiVarDecl
p2014
(dp2015
g11
Nsg601
(lp2016
S'lastPhytomer'
p2017
asg17
(i__main__
DelphiNamedType
p2018
(dp2019
g20
S'PdInternode'
p2020
sg433
g1
sg434
Nsbsba(idelphi
DelphiVarDecl
p2021
(dp2022
g11
Nsg601
(lp2023
S'phytomerTraversing'
p2024
asg17
(i__main__
DelphiNamedType
p2025
(dp2026
g20
S'PdInternode'
p2027
sg433
g1
sg434
NsbsbasbasbsbsS'createwithplant'
p2028
(i__main__
DelphiMethodImplementation
p2029
(dp2030
g493
g755
sg404
g757
sg412
(lp2031
(i__main__
DelphiFormalParameter
p2032
(dp2033
g538
Nsg748
(lp2034
S'thePlant'
p2035
asg17
(i__main__
DelphiNamedType
p2036
(dp2037
g20
S'PdPlant'
p2038
sg433
g1
sg434
Nsbsg753
Nsbasg495
(lp2039
sg497
(lp2040
sg499
(lp2041
g501
ag2035
asg502
(dp2042
g2035
g2036
ssg414
S'PdTraverser'
p2043
sg415
Nsg507
(lp2044
sg419
I0
sg420
g766
sg509
(i__main__
DelphiBlock
p2045
(dp2046
g512
(idelphi
DelphiCompoundStatement
p2047
(dp2048
g515
(lp2049
(i__main__
DelphiAssignStatement
p2050
(dp2051
g519
Nsg523
(i__main__
DelphiIdentAccess
p2052
(dp2053
g15
S'self'
p2054
sg451
(lp2055
(idelphi
DelphiFieldEndAccess
p2056
(dp2057
g912
S'create'
p2058
sbasbsba(i__main__
DelphiAssignStatement
p2059
(dp2060
g519
(i__main__
DelphiIdentAccess
p2061
(dp2062
g15
S'thePlant'
p2063
sg451
(lp2064
sbsg523
(i__main__
DelphiIdentAccess
p2065
(dp2066
g15
S'plant'
p2067
sg451
(lp2068
sbsbasbsg593
(lp2069
sbsg685
(lp2070
S' ---------------------------------------------------------------------------------- traversing object '
p2071
asbsS'begintraversal'
p2072
(i__main__
DelphiMethodImplementation
p2073
(dp2074
g493
g768
sg404
g770
sg412
(lp2075
(i__main__
DelphiFormalParameter
p2076
(dp2077
g538
Nsg748
(lp2078
S'aMode'
p2079
asg17
(i__main__
DelphiPrimitiveType
p2080
(dp2081
g20
g778
sbsg753
Nsbasg495
(lp2082
sg497
(lp2083
sg499
(lp2084
g501
ag2079
asg502
(dp2085
g2079
g2080
ssg414
S'PdTraverser'
p2086
sg415
Nsg507
(lp2087
sg419
I0
sg420
g427
sg509
(i__main__
DelphiBlock
p2088
(dp2089
g512
(idelphi
DelphiCompoundStatement
p2090
(dp2091
g515
(lp2092
(i__main__
DelphiAssignStatement
p2093
(dp2094
g519
(i__main__
DelphiIdentAccess
p2095
(dp2096
g15
S'aMode'
p2097
sg451
(lp2098
sbsg523
(i__main__
DelphiIdentAccess
p2099
(dp2100
g15
S'mode'
p2101
sg451
(lp2102
sbsba(i__main__
DelphiAssignStatement
p2103
(dp2104
g519
(i__main__
DelphiIdentAccess
p2105
(dp2106
g15
S'plant'
p2107
sg451
(lp2108
(idelphi
DelphiFieldEndAccess
p2109
(dp2110
g912
S'firstPhytomer'
p2111
sbasbsg523
(i__main__
DelphiIdentAccess
p2112
(dp2113
g15
S'currentPhytomer'
p2114
sg451
(lp2115
sbsba(i__main__
DelphiAssignStatement
p2116
(dp2117
g519
(idelphi
DelphiRealValue
p2118
(dp2119
g14
S'0.0'
p2120
sbsg523
(i__main__
DelphiIdentAccess
p2121
(dp2122
g15
S'self'
p2123
sg451
(lp2124
(idelphi
DelphiFieldEndAccess
p2125
(dp2126
g912
S'total'
p2127
sbasbsba(i__main__
DelphiAssignStatement
p2128
(dp2129
g519
(i__main__
DelphiIdentAccess
p2130
(dp2131
g15
S'false'
p2132
sg451
(lp2133
sbsg523
(i__main__
DelphiIdentAccess
p2134
(dp2135
g15
S'self'
p2136
sg451
(lp2137
(idelphi
DelphiFieldEndAccess
p2138
(dp2139
g912
S'finished'
p2140
sbasbsba(i__main__
DelphiAssignStatement
p2141
(dp2142
g519
(idelphi
DelphiNilValue
p2143
(dp2144
bsg523
(i__main__
DelphiIdentAccess
p2145
(dp2146
g15
S'foundPlantPart'
p2147
sg451
(lp2148
sbsba(i__main__
DelphiAssignStatement
p2149
(dp2150
g519
(idelphi
DelphiIntegerValue
p2151
(dp2152
g14
S'0'
sbsg523
(i__main__
DelphiIdentAccess
p2153
(dp2154
g15
S'totalPlantParts'
p2155
sg451
(lp2156
sbsba(idelphi
DelphiIfStatement
p2157
(dp2158
g959
(idelphi
DelphiRelOp
p2159
(dp2160
g966
(i__main__
DelphiIdentAccess
p2161
(dp2162
g15
S'currentPhytomer'
p2163
sg451
(lp2164
sbsg971
(idelphi
DelphiNilValue
p2165
(dp2166
bsg974
g1062
sbsg975
Nsg976
(idelphi
DelphiCompoundStatement
p2167
(dp2168
g515
(lp2169
(i__main__
DelphiAssignStatement
p2170
(dp2171
g519
(i__main__
DelphiIdentAccess
p2172
(dp2173
g15
S'kTraverseLeft'
p2174
sg451
(lp2175
sbsg523
(i__main__
DelphiIdentAccess
p2176
(dp2177
g15
S'PdInternode'
p2178
sg451
(lp2179
(idelphi
DelphiFunctionEndAccess
p2180
(dp2181
g557
(lp2182
(i__main__
DelphiIdentAccess
p2183
(dp2184
g15
S'currentPhytomer'
p2185
sg451
(lp2186
sbasba(idelphi
DelphiFieldEndAccess
p2187
(dp2188
g912
S'traversingDirection'
p2189
sbasbsba(i__main__
DelphiAssignStatement
p2190
(dp2191
g519
Nsg523
(i__main__
DelphiIdentAccess
p2192
(dp2193
g15
S'PdInternode'
p2194
sg451
(lp2195
(idelphi
DelphiFunctionEndAccess
p2196
(dp2197
g557
(lp2198
(i__main__
DelphiIdentAccess
p2199
(dp2200
g15
S'currentPhytomer'
p2201
sg451
(lp2202
sbasba(idelphi
DelphiFieldEndAccess
p2203
(dp2204
g912
S'traverseActivity'
p2205
sba(idelphi
DelphiFunctionEndAccess
p2206
(dp2207
g557
(lp2208
(i__main__
DelphiIdentAccess
p2209
(dp2210
g15
S'mode'
p2211
sg451
(lp2212
sba(i__main__
DelphiIdentAccess
p2213
(dp2214
g15
S'self'
p2215
sg451
(lp2216
sbasbasbsba(i__main__
DelphiAssignStatement
p2217
(dp2218
g519
(i__main__
DelphiIdentAccess
p2219
(dp2220
g15
S'kTraverseLeft'
p2221
sg451
(lp2222
sbsg523
(i__main__
DelphiIdentAccess
p2223
(dp2224
g15
S'PdInternode'
p2225
sg451
(lp2226
(idelphi
DelphiFunctionEndAccess
p2227
(dp2228
g557
(lp2229
(i__main__
DelphiIdentAccess
p2230
(dp2231
g15
S'currentPhytomer'
p2232
sg451
(lp2233
sbasba(idelphi
DelphiFieldEndAccess
p2234
(dp2235
g912
S'traversingDirection'
p2236
sbasbsg685
(lp2237
S'reset afterwards in case read in differently'
p2238
asbasbsbasbsg593
(lp2239
sbsbssg688
(dp2240
sg690
(lp2241
g700
ag698
ag724
ag706
ag736
ag702
ag716
ag728
ag714
ag718
ag720
ag726
ag738
ag734
ag710
ag722
ag732
ag708
ag704
ag712
ag730
asba(i__main__
DelphiVarSection
p2242
(dp2243
g232
I1
sg597
(lp2244
(idelphi
DelphiVarDecl
p2245
(dp2246
g11
Nsg601
(lp2247
S'cancelDrawing'
p2248
asg17
(i__main__
DelphiPrimitiveType
p2249
(dp2250
g20
g825
sbsba(idelphi
DelphiVarDecl
p2251
(dp2252
g11
Nsg601
(lp2253
S'worstNStressColor'
p2254
asg17
(i__main__
DelphiNamedType
p2255
(dp2256
g20
S'TColorRef'
p2257
sg433
g1
sg434
Nsbsba(idelphi
DelphiVarDecl
p2258
(dp2259
g11
Nsg601
(lp2260
S'worstPStressColor'
p2261
asg17
(i__main__
DelphiNamedType
p2262
(dp2263
g20
S'TColorRef'
p2264
sg433
g1
sg434
Nsbsba(idelphi
DelphiVarDecl
p2265
(dp2266
g11
Nsg601
(lp2267
S'worstDeadColor'
p2268
asg17
(i__main__
DelphiNamedType
p2269
(dp2270
g20
S'TColorRef'
p2271
sg433
g1
sg434
Nsbsbasba(i__main__
DelphiProceduralImplementation
p2272
(dp2273
g493
(i__main__
DelphiProceduralDeclaration
p2274
(dp2275
g412
(lp2276
(i__main__
DelphiFormalParameter
p2277
(dp2278
g538
Nsg748
(lp2279
S'current'
p2280
aS'optimal'
p2281
asg17
(i__main__
DelphiPrimitiveType
p2282
(dp2283
g20
g418
sbsg753
Nsba(i__main__
DelphiFormalParameter
p2284
(dp2285
g538
Nsg748
(lp2286
S'minDays'
p2287
asg17
(i__main__
DelphiPrimitiveType
p2288
(dp2289
g20
g778
sbsg753
Nsba(i__main__
DelphiFormalParameter
p2290
(dp2291
g538
Nsg748
(lp2292
S'growthFactor'
p2293
asg17
(i__main__
DelphiPrimitiveType
p2294
(dp2295
g20
g418
sbsg753
Nsbasg404
S'linearGrowthWithFactorResult'
p2296
sg415
(i__main__
DelphiPrimitiveType
p2297
(dp2298
g20
g418
sbsbsg404
g2296
sg415
(i__main__
DelphiPrimitiveType
p2299
(dp2300
g20
g418
sbsg495
(lp2301
sg497
(lp2302
sg499
(lp2303
S'current'
p2304
aS'optimal'
p2305
aS'minDays'
p2306
aS'growthFactor'
p2307
asg502
(dp2308
g2304
(i__main__
DelphiPrimitiveType
p2309
(dp2310
g20
g418
sbsg2305
g2309
sg2306
(i__main__
DelphiPrimitiveType
p2311
(dp2312
g20
g778
sbsg2307
(i__main__
DelphiPrimitiveType
p2313
(dp2314
g20
g418
sbssg412
(lp2315
(i__main__
DelphiFormalParameter
p2316
(dp2317
g538
Nsg748
(lp2318
g2304
ag2305
asg17
g2309
sg753
Nsba(i__main__
DelphiFormalParameter
p2319
(dp2320
g538
Nsg748
(lp2321
g2306
asg17
g2311
sg753
Nsba(i__main__
DelphiFormalParameter
p2322
(dp2323
g538
Nsg748
(lp2324
g2307
asg17
g2313
sg753
Nsbasg507
(lp2325
sg509
(i__main__
DelphiBlock
p2326
(dp2327
g512
(idelphi
DelphiCompoundStatement
p2328
(dp2329
g515
(lp2330
(i__main__
DelphiAssignStatement
p2331
(dp2332
g519
(idelphi
DelphiRealValue
p2333
(dp2334
g14
S'0.0'
p2335
sbsg523
(i__main__
DelphiIdentAccess
p2336
(dp2337
g15
S'result'
p2338
sg451
(lp2339
sbsba(idelphi
DelphiTryExceptStatement
p2340
(dp2341
S'tryStatements'
p2342
(lp2343
(i__main__
DelphiAssignStatement
p2344
(dp2345
g519
(idelphi
DelphiAddOp
p2346
(dp2347
g549
S'-'
sg550
(i__main__
DelphiIdentAccess
p2348
(dp2349
g15
S'current'
p2350
sg451
(lp2351
sbsg562
(i__main__
DelphiIdentAccess
p2352
(dp2353
g15
S'optimal'
p2354
sg451
(lp2355
sbsbsg523
(i__main__
DelphiIdentAccess
p2356
(dp2357
g15
S'amountNeeded'
p2358
sg451
(lp2359
sbsba(i__main__
DelphiAssignStatement
p2360
(dp2361
g519
(i__main__
DelphiIdentAccess
p2362
(dp2363
g15
S'safedivExcept'
p2364
sg451
(lp2365
(idelphi
DelphiFunctionEndAccess
p2366
(dp2367
g557
(lp2368
(i__main__
DelphiIdentAccess
p2369
(dp2370
g15
S'optimal'
p2371
sg451
(lp2372
sba(i__main__
DelphiIdentAccess
p2373
(dp2374
g15
S'minDays'
p2375
sg451
(lp2376
sba(i__main__
DelphiIdentAccess
p2377
(dp2378
g15
S'optimal'
p2379
sg451
(lp2380
sbasbasbsg523
(i__main__
DelphiIdentAccess
p2381
(dp2382
g15
S'maxPossible'
p2383
sg451
(lp2384
sbsba(i__main__
DelphiAssignStatement
p2385
(dp2386
g519
(i__main__
DelphiIdentAccess
p2387
(dp2388
g15
S'max'
p2389
sg451
(lp2390
(idelphi
DelphiFunctionEndAccess
p2391
(dp2392
g557
(lp2393
(idelphi
DelphiRealValue
p2394
(dp2395
g14
S'0.0'
p2396
sba(i__main__
DelphiIdentAccess
p2397
(dp2398
g15
S'min'
p2399
sg451
(lp2400
(idelphi
DelphiFunctionEndAccess
p2401
(dp2402
g557
(lp2403
(i__main__
DelphiIdentAccess
p2404
(dp2405
g15
S'amountNeeded'
p2406
sg451
(lp2407
sba(i__main__
DelphiIdentAccess
p2408
(dp2409
g15
S'maxPossible'
p2410
sg451
(lp2411
sbasbasbasbasbsg523
(i__main__
DelphiIdentAccess
p2412
(dp2413
g15
S'amountNeeded'
p2414
sg451
(lp2415
sbsba(i__main__
DelphiAssignStatement
p2416
(dp2417
g519
(idelphi
DelphiMulOp
p2418
(dp2419
g1447
(i__main__
DelphiIdentAccess
p2420
(dp2421
g15
S'growthFactor'
p2422
sg451
(lp2423
sbsg1451
S'*'
sg1452
(i__main__
DelphiIdentAccess
p2424
(dp2425
g15
S'amountNeeded'
p2426
sg451
(lp2427
sbsbsg523
(i__main__
DelphiIdentAccess
p2428
(dp2429
g15
S'result'
p2430
sg451
(lp2431
sbsbasS'exceptionHandlers'
p2432
(idelphi
DelphiExceptionHandlers
p2433
(dp2434
S'exceptionHandlerList'
p2435
(lp2436
(idelphi
DelphiExceptionHandler
p2437
(dp2438
S'classTypeIdentifier'
p2439
(i__main__
DelphiNamedType
p2440
(dp2441
g20
S'Exception'
p2442
sg433
g1
sg434
Nsbsg15
S'e'
sg541
(i__main__
DelphiAssignStatement
p2443
(dp2444
g519
Nsg523
(i__main__
DelphiIdentAccess
p2445
(dp2446
g15
S'messageForExceptionType'
p2447
sg451
(lp2448
(idelphi
DelphiFunctionEndAccess
p2449
(dp2450
g557
(lp2451
(i__main__
DelphiIdentAccess
p2452
(dp2453
g15
S'e'
sg451
(lp2454
sba(idelphi
DelphiStringAccess
p2455
(dp2456
g451
(lp2457
sg14
(idelphi
DelphiStringValue
p2458
(dp2459
g14
S'linearGrowthWithFactorResult'
p2460
sbsbasbasbsbsbasS'statementList'
p2461
(lp2462
sbsbasbsg593
(lp2463
(i__main__
DelphiVarSection
p2464
(dp2465
g232
I0
sg597
(lp2466
(idelphi
DelphiVarDecl
p2467
(dp2468
g11
Nsg601
(lp2469
S'amountNeeded'
p2470
aS'maxPossible'
p2471
asg17
(i__main__
DelphiPrimitiveType
p2472
(dp2473
g20
g418
sbsbasbasbsg685
(lp2474
S' -------------------------------------------------------------------------- linear growth functions '
p2475
asba(i__main__
DelphiProceduralImplementation
p2476
(dp2477
g493
(i__main__
DelphiProceduralDeclaration
p2478
(dp2479
g412
(lp2480
(i__main__
DelphiFormalParameter
p2481
(dp2482
g538
Nsg748
(lp2483
S'current'
p2484
asg17
(i__main__
DelphiPrimitiveType
p2485
(dp2486
g20
g418
sbsg753
S'var'
p2487
sba(i__main__
DelphiFormalParameter
p2488
(dp2489
g538
Nsg748
(lp2490
S'optimal'
p2491
asg17
(i__main__
DelphiPrimitiveType
p2492
(dp2493
g20
g418
sbsg753
Nsba(i__main__
DelphiFormalParameter
p2494
(dp2495
g538
Nsg748
(lp2496
S'minDays'
p2497
asg17
(i__main__
DelphiPrimitiveType
p2498
(dp2499
g20
g778
sbsg753
Nsba(i__main__
DelphiFormalParameter
p2500
(dp2501
g538
Nsg748
(lp2502
S'growthFactor'
p2503
asg17
(i__main__
DelphiPrimitiveType
p2504
(dp2505
g20
g418
sbsg753
Nsbasg404
S'linearGrowthWithFactor'
p2506
sg415
Nsbsg404
g2506
sg415
Nsg495
(lp2507
I0
asg497
(lp2508
sg499
(lp2509
S'current'
p2510
aS'optimal'
p2511
aS'minDays'
p2512
aS'growthFactor'
p2513
asg502
(dp2514
g2510
(i__main__
DelphiPrimitiveType
p2515
(dp2516
g20
g418
sbsg2511
(i__main__
DelphiPrimitiveType
p2517
(dp2518
g20
g418
sbsg2512
(i__main__
DelphiPrimitiveType
p2519
(dp2520
g20
g778
sbsg2513
(i__main__
DelphiPrimitiveType
p2521
(dp2522
g20
g418
sbssg412
(lp2523
(i__main__
DelphiFormalParameter
p2524
(dp2525
g538
Nsg748
(lp2526
g2510
asg17
g2515
sg753
g2487
sba(i__main__
DelphiFormalParameter
p2527
(dp2528
g538
Nsg748
(lp2529
g2511
asg17
g2517
sg753
Nsba(i__main__
DelphiFormalParameter
p2530
(dp2531
g538
Nsg748
(lp2532
g2512
asg17
g2519
sg753
Nsba(i__main__
DelphiFormalParameter
p2533
(dp2534
g538
Nsg748
(lp2535
g2513
asg17
g2521
sg753
Nsbasg507
(lp2536
g2510
asg509
(i__main__
DelphiBlock
p2537
(dp2538
g512
(idelphi
DelphiCompoundStatement
p2539
(dp2540
g515
(lp2541
(idelphi
DelphiTryExceptStatement
p2542
(dp2543
g2342
(lp2544
(i__main__
DelphiAssignStatement
p2545
(dp2546
g519
(idelphi
DelphiAddOp
p2547
(dp2548
g549
S'-'
sg550
(i__main__
DelphiIdentAccess
p2549
(dp2550
g15
S'current'
p2551
sg451
(lp2552
sbsg562
(i__main__
DelphiIdentAccess
p2553
(dp2554
g15
S'optimal'
p2555
sg451
(lp2556
sbsbsg523
(i__main__
DelphiIdentAccess
p2557
(dp2558
g15
S'amountNeeded'
p2559
sg451
(lp2560
sbsba(i__main__
DelphiAssignStatement
p2561
(dp2562
g519
(i__main__
DelphiIdentAccess
p2563
(dp2564
g15
S'safedivExcept'
p2565
sg451
(lp2566
(idelphi
DelphiFunctionEndAccess
p2567
(dp2568
g557
(lp2569
(i__main__
DelphiIdentAccess
p2570
(dp2571
g15
S'optimal'
p2572
sg451
(lp2573
sba(i__main__
DelphiIdentAccess
p2574
(dp2575
g15
S'minDays'
p2576
sg451
(lp2577
sba(i__main__
DelphiIdentAccess
p2578
(dp2579
g15
S'optimal'
p2580
sg451
(lp2581
sbasbasbsg523
(i__main__
DelphiIdentAccess
p2582
(dp2583
g15
S'maxPossible'
p2584
sg451
(lp2585
sbsba(i__main__
DelphiAssignStatement
p2586
(dp2587
g519
(i__main__
DelphiIdentAccess
p2588
(dp2589
g15
S'max'
p2590
sg451
(lp2591
(idelphi
DelphiFunctionEndAccess
p2592
(dp2593
g557
(lp2594
(idelphi
DelphiRealValue
p2595
(dp2596
g14
S'0.0'
p2597
sba(i__main__
DelphiIdentAccess
p2598
(dp2599
g15
S'min'
p2600
sg451
(lp2601
(idelphi
DelphiFunctionEndAccess
p2602
(dp2603
g557
(lp2604
(i__main__
DelphiIdentAccess
p2605
(dp2606
g15
S'amountNeeded'
p2607
sg451
(lp2608
sba(i__main__
DelphiIdentAccess
p2609
(dp2610
g15
S'maxPossible'
p2611
sg451
(lp2612
sbasbasbasbasbsg523
(i__main__
DelphiIdentAccess
p2613
(dp2614
g15
S'amountNeeded'
p2615
sg451
(lp2616
sbsba(i__main__
DelphiAssignStatement
p2617
(dp2618
g519
(idelphi
DelphiAddOp
p2619
(dp2620
g549
S'+'
sg550
(idelphi
DelphiMulOp
p2621
(dp2622
g1447
(i__main__
DelphiIdentAccess
p2623
(dp2624
g15
S'growthFactor'
p2625
sg451
(lp2626
sbsg1451
S'*'
sg1452
(i__main__
DelphiIdentAccess
p2627
(dp2628
g15
S'amountNeeded'
p2629
sg451
(lp2630
sbsbsg562
(i__main__
DelphiIdentAccess
p2631
(dp2632
g15
S'current'
p2633
sg451
(lp2634
sbsbsg523
(i__main__
DelphiIdentAccess
p2635
(dp2636
g15
S'current'
p2637
sg451
(lp2638
sbsbasg2432
(idelphi
DelphiExceptionHandlers
p2639
(dp2640
g2435
(lp2641
(idelphi
DelphiExceptionHandler
p2642
(dp2643
g2439
(i__main__
DelphiNamedType
p2644
(dp2645
g20
S'Exception'
p2646
sg433
g1
sg434
Nsbsg15
S'e'
sg541
(i__main__
DelphiAssignStatement
p2647
(dp2648
g519
Nsg523
(i__main__
DelphiIdentAccess
p2649
(dp2650
g15
S'messageForExceptionType'
p2651
sg451
(lp2652
(idelphi
DelphiFunctionEndAccess
p2653
(dp2654
g557
(lp2655
(i__main__
DelphiIdentAccess
p2656
(dp2657
g15
S'e'
sg451
(lp2658
sba(idelphi
DelphiStringAccess
p2659
(dp2660
g451
(lp2661
sg14
(idelphi
DelphiStringValue
p2662
(dp2663
g14
S'linearGrowthWithFactor'
p2664
sbsbasbasbsbsbasg2461
(lp2665
sbsbasbsg593
(lp2666
(i__main__
DelphiVarSection
p2667
(dp2668
g232
I0
sg597
(lp2669
(idelphi
DelphiVarDecl
p2670
(dp2671
g11
Nsg601
(lp2672
S'amountNeeded'
p2673
aS'maxPossible'
p2674
asg17
(i__main__
DelphiPrimitiveType
p2675
(dp2676
g20
g418
sbsbasbasbsba(i__main__
DelphiProceduralImplementation
p2677
(dp2678
g493
(i__main__
DelphiProceduralDeclaration
p2679
(dp2680
g412
(lp2681
(i__main__
DelphiFormalParameter
p2682
(dp2683
g538
Nsg748
(lp2684
S'current'
p2685
aS'optimal'
p2686
asg17
(i__main__
DelphiPrimitiveType
p2687
(dp2688
g20
g418
sbsg753
Nsba(i__main__
DelphiFormalParameter
p2689
(dp2690
g538
Nsg748
(lp2691
S'minDays'
p2692
asg17
(i__main__
DelphiPrimitiveType
p2693
(dp2694
g20
g778
sbsg753
Nsbasg404
S'linearGrowthResult'
p2695
sg415
(i__main__
DelphiPrimitiveType
p2696
(dp2697
g20
g418
sbsbsg404
g2695
sg415
(i__main__
DelphiPrimitiveType
p2698
(dp2699
g20
g418
sbsg495
(lp2700
sg497
(lp2701
sg499
(lp2702
S'current'
p2703
aS'optimal'
p2704
aS'minDays'
p2705
asg502
(dp2706
g2703
(i__main__
DelphiPrimitiveType
p2707
(dp2708
g20
g418
sbsg2704
g2707
sg2705
(i__main__
DelphiPrimitiveType
p2709
(dp2710
g20
g778
sbssg412
(lp2711
(i__main__
DelphiFormalParameter
p2712
(dp2713
g538
Nsg748
(lp2714
g2703
ag2704
asg17
g2707
sg753
Nsba(i__main__
DelphiFormalParameter
p2715
(dp2716
g538
Nsg748
(lp2717
g2705
asg17
g2709
sg753
Nsbasg507
(lp2718
sg509
(i__main__
DelphiBlock
p2719
(dp2720
g512
(idelphi
DelphiCompoundStatement
p2721
(dp2722
g515
(lp2723
(i__main__
DelphiAssignStatement
p2724
(dp2725
g519
(idelphi
DelphiRealValue
p2726
(dp2727
g14
S'0.0'
p2728
sbsg523
(i__main__
DelphiIdentAccess
p2729
(dp2730
g15
S'result'
p2731
sg451
(lp2732
sbsba(idelphi
DelphiTryExceptStatement
p2733
(dp2734
g2342
(lp2735
(i__main__
DelphiAssignStatement
p2736
(dp2737
g519
(idelphi
DelphiAddOp
p2738
(dp2739
g549
S'-'
sg550
(i__main__
DelphiIdentAccess
p2740
(dp2741
g15
S'current'
p2742
sg451
(lp2743
sbsg562
(i__main__
DelphiIdentAccess
p2744
(dp2745
g15
S'optimal'
p2746
sg451
(lp2747
sbsbsg523
(i__main__
DelphiIdentAccess
p2748
(dp2749
g15
S'amountNeeded'
p2750
sg451
(lp2751
sbsba(i__main__
DelphiAssignStatement
p2752
(dp2753
g519
(i__main__
DelphiIdentAccess
p2754
(dp2755
g15
S'safedivExcept'
p2756
sg451
(lp2757
(idelphi
DelphiFunctionEndAccess
p2758
(dp2759
g557
(lp2760
(i__main__
DelphiIdentAccess
p2761
(dp2762
g15
S'optimal'
p2763
sg451
(lp2764
sba(i__main__
DelphiIdentAccess
p2765
(dp2766
g15
S'minDays'
p2767
sg451
(lp2768
sba(i__main__
DelphiIdentAccess
p2769
(dp2770
g15
S'optimal'
p2771
sg451
(lp2772
sbasbasbsg523
(i__main__
DelphiIdentAccess
p2773
(dp2774
g15
S'maxPossible'
p2775
sg451
(lp2776
sbsba(i__main__
DelphiAssignStatement
p2777
(dp2778
g519
(i__main__
DelphiIdentAccess
p2779
(dp2780
g15
S'max'
p2781
sg451
(lp2782
(idelphi
DelphiFunctionEndAccess
p2783
(dp2784
g557
(lp2785
(idelphi
DelphiRealValue
p2786
(dp2787
g14
S'0.0'
p2788
sba(i__main__
DelphiIdentAccess
p2789
(dp2790
g15
S'min'
p2791
sg451
(lp2792
(idelphi
DelphiFunctionEndAccess
p2793
(dp2794
g557
(lp2795
(i__main__
DelphiIdentAccess
p2796
(dp2797
g15
S'amountNeeded'
p2798
sg451
(lp2799
sba(i__main__
DelphiIdentAccess
p2800
(dp2801
g15
S'maxPossible'
p2802
sg451
(lp2803
sbasbasbasbasbsg523
(i__main__
DelphiIdentAccess
p2804
(dp2805
g15
S'amountNeeded'
p2806
sg451
(lp2807
sbsba(i__main__
DelphiAssignStatement
p2808
(dp2809
g519
(i__main__
DelphiIdentAccess
p2810
(dp2811
g15
S'amountNeeded'
p2812
sg451
(lp2813
sbsg523
(i__main__
DelphiIdentAccess
p2814
(dp2815
g15
S'result'
p2816
sg451
(lp2817
sbsbasg2432
(idelphi
DelphiExceptionHandlers
p2818
(dp2819
g2435
(lp2820
(idelphi
DelphiExceptionHandler
p2821
(dp2822
g2439
(i__main__
DelphiNamedType
p2823
(dp2824
g20
S'Exception'
p2825
sg433
g1
sg434
Nsbsg15
S'e'
sg541
(i__main__
DelphiAssignStatement
p2826
(dp2827
g519
Nsg523
(i__main__
DelphiIdentAccess
p2828
(dp2829
g15
S'messageForExceptionType'
p2830
sg451
(lp2831
(idelphi
DelphiFunctionEndAccess
p2832
(dp2833
g557
(lp2834
(i__main__
DelphiIdentAccess
p2835
(dp2836
g15
S'e'
sg451
(lp2837
sba(idelphi
DelphiStringAccess
p2838
(dp2839
g451
(lp2840
sg14
(idelphi
DelphiStringValue
p2841
(dp2842
g14
S'linearGrowthResult'
p2843
sbsbasbasbsbsbasg2461
(lp2844
sbsbasbsg593
(lp2845
(i__main__
DelphiVarSection
p2846
(dp2847
g232
I0
sg597
(lp2848
(idelphi
DelphiVarDecl
p2849
(dp2850
g11
Nsg601
(lp2851
S'amountNeeded'
p2852
aS'maxPossible'
p2853
asg17
(i__main__
DelphiPrimitiveType
p2854
(dp2855
g20
g418
sbsbasbasbsba(i__main__
DelphiProceduralImplementation
p2856
(dp2857
g493
(i__main__
DelphiProceduralDeclaration
p2858
(dp2859
g412
(lp2860
(i__main__
DelphiFormalParameter
p2861
(dp2862
g538
Nsg748
(lp2863
S'current'
p2864
asg17
(i__main__
DelphiPrimitiveType
p2865
(dp2866
g20
g418
sbsg753
g2487
sba(i__main__
DelphiFormalParameter
p2867
(dp2868
g538
Nsg748
(lp2869
S'optimal'
p2870
asg17
(i__main__
DelphiPrimitiveType
p2871
(dp2872
g20
g418
sbsg753
Nsba(i__main__
DelphiFormalParameter
p2873
(dp2874
g538
Nsg748
(lp2875
S'minDays'
p2876
asg17
(i__main__
DelphiPrimitiveType
p2877
(dp2878
g20
g778
sbsg753
Nsbasg404
S'linearGrowth'
p2879
sg415
Nsbsg404
g2879
sg415
Nsg495
(lp2880
I0
asg497
(lp2881
sg499
(lp2882
S'current'
p2883
aS'optimal'
p2884
aS'minDays'
p2885
asg502
(dp2886
g2883
(i__main__
DelphiPrimitiveType
p2887
(dp2888
g20
g418
sbsg2884
(i__main__
DelphiPrimitiveType
p2889
(dp2890
g20
g418
sbsg2885
(i__main__
DelphiPrimitiveType
p2891
(dp2892
g20
g778
sbssg412
(lp2893
(i__main__
DelphiFormalParameter
p2894
(dp2895
g538
Nsg748
(lp2896
g2883
asg17
g2887
sg753
g2487
sba(i__main__
DelphiFormalParameter
p2897
(dp2898
g538
Nsg748
(lp2899
g2884
asg17
g2889
sg753
Nsba(i__main__
DelphiFormalParameter
p2900
(dp2901
g538
Nsg748
(lp2902
g2885
asg17
g2891
sg753
Nsbasg507
(lp2903
g2883
asg509
(i__main__
DelphiBlock
p2904
(dp2905
g512
(idelphi
DelphiCompoundStatement
p2906
(dp2907
g515
(lp2908
(idelphi
DelphiTryExceptStatement
p2909
(dp2910
g2342
(lp2911
(i__main__
DelphiAssignStatement
p2912
(dp2913
g519
(idelphi
DelphiAddOp
p2914
(dp2915
g549
S'-'
sg550
(i__main__
DelphiIdentAccess
p2916
(dp2917
g15
S'current'
p2918
sg451
(lp2919
sbsg562
(i__main__
DelphiIdentAccess
p2920
(dp2921
g15
S'optimal'
p2922
sg451
(lp2923
sbsbsg523
(i__main__
DelphiIdentAccess
p2924
(dp2925
g15
S'amountNeeded'
p2926
sg451
(lp2927
sbsba(i__main__
DelphiAssignStatement
p2928
(dp2929
g519
(i__main__
DelphiIdentAccess
p2930
(dp2931
g15
S'safedivExcept'
p2932
sg451
(lp2933
(idelphi
DelphiFunctionEndAccess
p2934
(dp2935
g557
(lp2936
(i__main__
DelphiIdentAccess
p2937
(dp2938
g15
S'optimal'
p2939
sg451
(lp2940
sba(i__main__
DelphiIdentAccess
p2941
(dp2942
g15
S'minDays'
p2943
sg451
(lp2944
sba(i__main__
DelphiIdentAccess
p2945
(dp2946
g15
S'optimal'
p2947
sg451
(lp2948
sbasbasbsg523
(i__main__
DelphiIdentAccess
p2949
(dp2950
g15
S'maxPossible'
p2951
sg451
(lp2952
sbsba(i__main__
DelphiAssignStatement
p2953
(dp2954
g519
(i__main__
DelphiIdentAccess
p2955
(dp2956
g15
S'max'
p2957
sg451
(lp2958
(idelphi
DelphiFunctionEndAccess
p2959
(dp2960
g557
(lp2961
(idelphi
DelphiRealValue
p2962
(dp2963
g14
S'0.0'
p2964
sba(i__main__
DelphiIdentAccess
p2965
(dp2966
g15
S'min'
p2967
sg451
(lp2968
(idelphi
DelphiFunctionEndAccess
p2969
(dp2970
g557
(lp2971
(i__main__
DelphiIdentAccess
p2972
(dp2973
g15
S'amountNeeded'
p2974
sg451
(lp2975
sba(i__main__
DelphiIdentAccess
p2976
(dp2977
g15
S'maxPossible'
p2978
sg451
(lp2979
sbasbasbasbasbsg523
(i__main__
DelphiIdentAccess
p2980
(dp2981
g15
S'amountNeeded'
p2982
sg451
(lp2983
sbsba(i__main__
DelphiAssignStatement
p2984
(dp2985
g519
(idelphi
DelphiAddOp
p2986
(dp2987
g549
S'+'
sg550
(i__main__
DelphiIdentAccess
p2988
(dp2989
g15
S'amountNeeded'
p2990
sg451
(lp2991
sbsg562
(i__main__
DelphiIdentAccess
p2992
(dp2993
g15
S'current'
p2994
sg451
(lp2995
sbsbsg523
(i__main__
DelphiIdentAccess
p2996
(dp2997
g15
S'current'
p2998
sg451
(lp2999
sbsbasg2432
(idelphi
DelphiExceptionHandlers
p3000
(dp3001
g2435
(lp3002
(idelphi
DelphiExceptionHandler
p3003
(dp3004
g2439
(i__main__
DelphiNamedType
p3005
(dp3006
g20
S'Exception'
p3007
sg433
g1
sg434
Nsbsg15
S'e'
sg541
(i__main__
DelphiAssignStatement
p3008
(dp3009
g519
Nsg523
(i__main__
DelphiIdentAccess
p3010
(dp3011
g15
S'messageForExceptionType'
p3012
sg451
(lp3013
(idelphi
DelphiFunctionEndAccess
p3014
(dp3015
g557
(lp3016
(i__main__
DelphiIdentAccess
p3017
(dp3018
g15
S'e'
sg451
(lp3019
sba(idelphi
DelphiStringAccess
p3020
(dp3021
g451
(lp3022
sg14
(idelphi
DelphiStringValue
p3023
(dp3024
g14
S'linearGrowth'
p3025
sbsbasbasbsbsbasg2461
(lp3026
sbsbasbsg593
(lp3027
(i__main__
DelphiVarSection
p3028
(dp3029
g232
I0
sg597
(lp3030
(idelphi
DelphiVarDecl
p3031
(dp3032
g11
Nsg601
(lp3033
S'amountNeeded'
p3034
aS'maxPossible'
p3035
asg17
(i__main__
DelphiPrimitiveType
p3036
(dp3037
g20
g418
sbsbasbasbsbasS'includedUnits'
p3038
NsS'implementationUses'
p3039
(lp3040
S'WinProcs'
p3041
aS'SysUtils'
p3042
aS'Forms'
p3043
aS'usupport'
p3044
aS'umath'
p3045
aS'udebug'
p3046
aS'uintern'
p3047
aS'umain'
p3048
aS'utimeser'
p3049
aS'ubreedr'
p3050
asg404
S'Utravers'
p3051
sS'constSections'
p3052
(lp3053
g5
ag233
asS'globalsInProperCase'
p3054
NsS'interfaceUses'
p3055
(lp3056
S'delphi_compatability'
p3057
aS'WinTypes'
p3058
aS'Classes'
p3059
aS'uplant'
p3060
aS'upart'
p3061
aS'ufiler'
p3062
aS'u3dexport'
p3063
asS'finalCommentToken'
p3064
(i__main__
PassStatement
p3065
(dp3066
g593
(lp3067
sbsS'varSections'
p3068
(lp3069
g2242
asS'globals'
p3070
NsS'originalFileName'
p3071
S'../../PlantStudioInPython/converted_source/used/utravers.pas'
p3072
sS'proceduralImplementations'
p3073
(dp3074
S'lineargrowth'
p3075
g2856
sS'lineargrowthresult'
p3076
g2677
sS'lineargrowthwithfactorresult'
p3077
g2272
sS'lineargrowthwithfactor'
p3078
g2476
ssS'fileName'
p3079
S'/Users/pdf/Documents/workspace/PlantStudioInPython/converted_source/used/utravers.pas'
p3080
sS'proceduralDeclarations'
p3081
(dp3082
S'lineargrowth'
p3083
g2858
sS'lineargrowthresult'
p3084
g2679
sS'lineargrowthwithfactorresult'
p3085
g2274
sS'lineargrowthwithfactor'
p3086
g2478
ssS'types'
p3087
(dp3088
S'pdplantstatistics'
p3089
g394
sS'pdtraverser'
p3090
g694
ssb.