(i__main__
DelphiUnit
p1
(dp2
S'sectionsInOrderDefined'
p3
(lp4
(i__main__
DelphiClass
p5
(dp6
S'variableNamesInProperCase'
p7
(dp8
S'supportbutton'
p9
S'supportButton'
p10
sS'timewarninglabel'
p11
S'timeWarningLabel'
p12
sS'versionlabel'
p13
S'versionLabel'
p14
sS'exportrestrictionlabel'
p15
S'exportRestrictionLabel'
p16
sS'unregistered3dexportreminder'
p17
S'unregistered3DExportReminder'
p18
sS'label1'
p19
S'Label1'
p20
sS'whyregister'
p21
S'whyRegister'
p22
sS'hourslabel'
p23
S'hoursLabel'
p24
sS'label4'
p25
S'Label4'
p26
sS'label5'
p27
S'Label5'
p28
sS'readlicense'
p29
S'readLicense'
p30
sS'label7'
p31
S'Label7'
p32
sS'unregistered2dexportreminder'
p33
S'unregistered2DExportReminder'
p34
sS'label2'
p35
S'Label2'
p36
sS'label6'
p37
S'Label6'
p38
sS'registrationinfopanel'
p39
S'registrationInfoPanel'
p40
sS'nodistributelabel'
p41
S'noDistributeLabel'
p42
sS'cancel'
p43
S'cancel'
p44
sS'close'
p45
S'close'
p46
sS'splashscreenpicture'
p47
S'splashScreenPicture'
p48
sS'registerit'
p49
S'registerIt'
p50
ssS'name'
p51
S'TAboutForm'
p52
sS'methodDeclarations'
p53
(dp54
S'formactivate'
p55
(i__main__
DelphiMethodDeclaration
p56
(dp57
g51
S'FormActivate'
p58
sS'formalParameters'
p59
(lp60
(i__main__
DelphiFormalParameter
p61
(dp62
S'initialValue'
p63
NsS'names'
p64
(lp65
S'Sender'
p66
asS'theType'
p67
(i__main__
DelphiNamedType
p68
(dp69
S'typeName'
p70
S'TObject'
p71
sS'unitDefinedIn'
p72
g1
sS'unitName'
p73
NsbsS'parameterVariety'
p74
NsbasS'className'
p75
g52
sS'resultType'
p76
NsS'isClassMethod'
p77
I0
sS'methodType'
p78
S'procedure'
p79
sbsS'registeritclick'
p80
(i__main__
DelphiMethodDeclaration
p81
(dp82
g51
S'registerItClick'
p83
sg59
(lp84
(i__main__
DelphiFormalParameter
p85
(dp86
g63
Nsg64
(lp87
S'Sender'
p88
asg67
(i__main__
DelphiNamedType
p89
(dp90
g70
S'TObject'
p91
sg72
g1
sg73
Nsbsg74
Nsbasg75
g52
sg76
Nsg77
I0
sg78
g79
sbsS'initializewithwhetherclosingprogram'
p92
(i__main__
DelphiMethodDeclaration
p93
(dp94
g51
S'initializeWithWhetherClosingProgram'
p95
sg59
(lp96
(i__main__
DelphiFormalParameter
p97
(dp98
g63
Nsg64
(lp99
S'closingProgram'
p100
asg67
(i__main__
DelphiPrimitiveType
p101
(dp102
g70
S'boolean'
p103
sbsg74
Nsbasg75
g52
sg76
Nsg77
I0
sg78
g79
sS'commentLinesBefore'
p104
(lp105
S' Private declarations '
p106
aS' Public declarations '
p107
aS'$R *.DFM'
p108
asbsS'readlicenseclick'
p109
(i__main__
DelphiMethodDeclaration
p110
(dp111
g51
S'readLicenseClick'
p112
sg59
(lp113
(i__main__
DelphiFormalParameter
p114
(dp115
g63
Nsg64
(lp116
S'Sender'
p117
asg67
(i__main__
DelphiNamedType
p118
(dp119
g70
S'TObject'
p120
sg72
g1
sg73
Nsbsg74
Nsbasg75
g52
sg76
Nsg77
I0
sg78
g79
sbsS'supportbuttonclick'
p121
(i__main__
DelphiMethodDeclaration
p122
(dp123
g51
S'supportButtonClick'
p124
sg59
(lp125
(i__main__
DelphiFormalParameter
p126
(dp127
g63
Nsg64
(lp128
S'Sender'
p129
asg67
(i__main__
DelphiNamedType
p130
(dp131
g70
S'TObject'
p132
sg72
g1
sg73
Nsbsg74
Nsbasg75
g52
sg76
Nsg77
I0
sg78
g79
sbsS'whyregisterclick'
p133
(i__main__
DelphiMethodDeclaration
p134
(dp135
g51
S'whyRegisterClick'
p136
sg59
(lp137
(i__main__
DelphiFormalParameter
p138
(dp139
g63
Nsg64
(lp140
S'Sender'
p141
asg67
(i__main__
DelphiNamedType
p142
(dp143
g70
S'TObject'
p144
sg72
g1
sg73
Nsbsg74
Nsbasg75
g52
sg76
Nsg77
I0
sg78
g79
sbsS'closeclick'
p145
(i__main__
DelphiMethodDeclaration
p146
(dp147
g51
S'closeClick'
p148
sg59
(lp149
(i__main__
DelphiFormalParameter
p150
(dp151
g63
Nsg64
(lp152
S'Sender'
p153
asg67
(i__main__
DelphiNamedType
p154
(dp155
g70
S'TObject'
p156
sg72
g1
sg73
Nsbsg74
Nsbasg75
g52
sg76
Nsg77
I0
sg78
g79
sbssS'superclassNamedTypes'
p157
(lp158
(i__main__
DelphiNamedType
p159
(dp160
g70
S'TForm'
p161
sg72
g1
sg73
NsbasS'variableNames'
p162
(dp163
S'supportbutton'
p164
(i__main__
DelphiNamedType
p165
(dp166
g70
S'TButton'
p167
sg72
g1
sg73
NsbsS'timewarninglabel'
p168
(i__main__
DelphiNamedType
p169
(dp170
g70
S'TLabel'
p171
sg72
g1
sg73
NsbsS'versionlabel'
p172
(i__main__
DelphiNamedType
p173
(dp174
g70
S'TLabel'
p175
sg72
g1
sg73
NsbsS'exportrestrictionlabel'
p176
(i__main__
DelphiNamedType
p177
(dp178
g70
S'TLabel'
p179
sg72
g1
sg73
NsbsS'unregistered3dexportreminder'
p180
(i__main__
DelphiNamedType
p181
(dp182
g70
S'TImage'
p183
sg72
g1
sg73
NsbsS'label1'
p184
(i__main__
DelphiNamedType
p185
(dp186
g70
S'TLabel'
p187
sg72
g1
sg73
NsbsS'whyregister'
p188
(i__main__
DelphiNamedType
p189
(dp190
g70
S'TButton'
p191
sg72
g1
sg73
NsbsS'hourslabel'
p192
(i__main__
DelphiNamedType
p193
(dp194
g70
S'TLabel'
p195
sg72
g1
sg73
NsbsS'label4'
p196
(i__main__
DelphiNamedType
p197
(dp198
g70
S'TLabel'
p199
sg72
g1
sg73
NsbsS'label5'
p200
(i__main__
DelphiNamedType
p201
(dp202
g70
S'TLabel'
p203
sg72
g1
sg73
NsbsS'readlicense'
p204
(i__main__
DelphiNamedType
p205
(dp206
g70
S'TButton'
p207
sg72
g1
sg73
NsbsS'label7'
p208
(i__main__
DelphiNamedType
p209
(dp210
g70
S'TLabel'
p211
sg72
g1
sg73
NsbsS'unregistered2dexportreminder'
p212
(i__main__
DelphiNamedType
p213
(dp214
g70
S'TImage'
p215
sg72
g1
sg73
NsbsS'label2'
p216
(i__main__
DelphiNamedType
p217
(dp218
g70
S'TLabel'
p219
sg72
g1
sg73
NsbsS'label6'
p220
(i__main__
DelphiNamedType
p221
(dp222
g70
S'TLabel'
p223
sg72
g1
sg73
NsbsS'registrationinfopanel'
p224
(i__main__
DelphiNamedType
p225
(dp226
g70
S'TPanel'
p227
sg72
g1
sg73
NsbsS'nodistributelabel'
p228
(i__main__
DelphiNamedType
p229
(dp230
g70
S'TLabel'
p231
sg72
g1
sg73
NsbsS'cancel'
p232
(i__main__
DelphiNamedType
p233
(dp234
g70
S'TButton'
p235
sg72
g1
sg73
NsbsS'close'
p236
(i__main__
DelphiNamedType
p237
(dp238
g70
S'TButton'
p239
sg72
g1
sg73
NsbsS'splashscreenpicture'
p240
(i__main__
DelphiNamedType
p241
(dp242
g70
S'TImage'
p243
sg72
g1
sg73
NsbsS'registerit'
p244
(i__main__
DelphiNamedType
p245
(dp246
g70
S'TButton'
p247
sg72
g1
sg73
NsbssS'methodNamesInDefinedOrder'
p248
(lp249
S'initializewithwhetherclosingprogram'
p250
aS'formactivate'
p251
aS'closeclick'
p252
aS'registeritclick'
p253
aS'readlicenseclick'
p254
aS'whyregisterclick'
p255
aS'supportbuttonclick'
p256
asS'methodImplementations'
p257
(dp258
S'formactivate'
p259
(i__main__
DelphiMethodImplementation
p260
(dp261
S'originalDeclaration'
p262
g56
sg51
g58
sg59
(lp263
(i__main__
DelphiFormalParameter
p264
(dp265
g63
Nsg64
(lp266
S'Sender'
p267
asg67
(i__main__
DelphiNamedType
p268
(dp269
g70
S'TObject'
p270
sg72
g1
sg73
Nsbsg74
NsbasS'varParamIndexes'
p271
(lp272
sS'varParamsSkipped'
p273
(lp274
sS'argNames'
p275
(lp276
S'self'
p277
ag267
asS'argTypes'
p278
(dp279
g267
g268
ssg75
S'TAboutForm'
p280
sg76
NsS'varParamNames'
p281
(lp282
sg77
I0
sg78
g79
sS'block'
p283
(i__main__
DelphiBlock
p284
(dp285
S'compoundStatement'
p286
(idelphi
DelphiCompoundStatement
p287
(dp288
S'statements'
p289
(lp290
(i__main__
DelphiAssignStatement
p291
(dp292
S'newValueExpression'
p293
(i__main__
DelphiIdentAccess
p294
(dp295
S'ident'
p296
S'gVersionName'
p297
sS'endAccessList'
p298
(lp299
sbsS'destinationExpression'
p300
(i__main__
DelphiIdentAccess
p301
(dp302
g296
S'versionLabel'
p303
sg298
(lp304
(idelphi
DelphiFieldEndAccess
p305
(dp306
S'field'
p307
S'caption'
p308
sbasbsba(i__main__
DelphiAssignStatement
p309
(dp310
g293
(idelphi
DelphiAddOp
p311
(dp312
S'addOp'
p313
S'+'
sS'term2'
p314
(idelphi
DelphiStringAccess
p315
(dp316
g298
(lp317
sS'string'
p318
(idelphi
DelphiStringValue
p319
(dp320
g318
S' per session'
p321
sbsbsS'term1'
p322
(idelphi
DelphiAddOp
p323
(dp324
g313
S'+'
sg314
(i__main__
DelphiIdentAccess
p325
(dp326
g296
S'intToStr'
p327
sg298
(lp328
(idelphi
DelphiFunctionEndAccess
p329
(dp330
S'expressionList'
p331
(lp332
(i__main__
DelphiIdentAccess
p333
(dp334
g296
S'kMaxUnregExportsPerSessionAfterMaxReached'
p335
sg298
(lp336
sbasbasbsg322
(idelphi
DelphiAddOp
p337
(dp338
g313
S'+'
sg314
(idelphi
DelphiStringAccess
p339
(dp340
g298
(lp341
sg318
(idelphi
DelphiStringValue
p342
(dp343
g318
S' at first, then '
p344
sbsbsg322
(idelphi
DelphiAddOp
p345
(dp346
g313
S'+'
sg314
(i__main__
DelphiIdentAccess
p347
(dp348
g296
S'intToStr'
p349
sg298
(lp350
(idelphi
DelphiFunctionEndAccess
p351
(dp352
g331
(lp353
(i__main__
DelphiIdentAccess
p354
(dp355
g296
S'kMaxUnregExportsAllowed'
p356
sg298
(lp357
sbasbasbsg322
(idelphi
DelphiStringAccess
p358
(dp359
g298
(lp360
sg318
(idelphi
DelphiStringValue
p361
(dp362
g318
S'- restricting the number of exports to '
p363
sbsbsbsbsbsbsg300
(i__main__
DelphiIdentAccess
p364
(dp365
g296
S'exportRestrictionLabel'
p366
sg298
(lp367
(idelphi
DelphiFieldEndAccess
p368
(dp369
g307
S'caption'
p370
sbasbsba(i__main__
DelphiAssignStatement
p371
(dp372
g293
(i__main__
DelphiIdentAccess
p373
(dp374
g296
S'registerIt'
p375
sg298
(lp376
sbsg300
(i__main__
DelphiIdentAccess
p377
(dp378
g296
S'activeControl'
p379
sg298
(lp380
sbsba(i__main__
DelphiAssignStatement
p381
(dp382
g293
Nsg300
(i__main__
DelphiIdentAccess
p383
(dp384
g296
S'randomize'
p385
sg298
(lp386
sbsba(idelphi
DelphiForStatement
p387
(dp388
S'variable'
p389
S'i'
sS'finalValue'
p390
(idelphi
DelphiIntegerValue
p391
(dp392
g318
S'100'
p393
sbsS'direction'
p394
S'to'
p395
sg63
(idelphi
DelphiIntegerValue
p396
(dp397
g318
S'0'
sbsS'statement'
p398
(i__main__
DelphiAssignStatement
p399
(dp400
g293
Nsg300
(i__main__
DelphiIdentAccess
p401
(dp402
g296
S'random'
p403
sg298
(lp404
sbsbsba(i__main__
DelphiAssignStatement
p405
(dp406
g293
(i__main__
DelphiIdentAccess
p407
(dp408
g296
S'random'
p409
sg298
(lp410
(idelphi
DelphiFunctionEndAccess
p411
(dp412
g331
(lp413
(idelphi
DelphiIntegerValue
p414
(dp415
g318
S'2'
sbasbasbsg300
(i__main__
DelphiIdentAccess
p416
(dp417
g296
S'randomNumber'
p418
sg298
(lp419
sbsba(idelphi
DelphiCaseStatement
p420
(dp421
S'elseStatement'
p422
NsS'expression'
p423
(i__main__
DelphiIdentAccess
p424
(dp425
g296
S'randomNumber'
p426
sg298
(lp427
sbsS'caseSelectorList'
p428
(lp429
(idelphi
DelphiCaseSelector
p430
(dp431
g398
(idelphi
DelphiCompoundStatement
p432
(dp433
g289
(lp434
(i__main__
DelphiAssignStatement
p435
(dp436
g293
(idelphi
DelphiIntegerValue
p437
(dp438
g318
S'4'
sbsg300
(i__main__
DelphiIdentAccess
p439
(dp440
g296
S'close'
p441
sg298
(lp442
(idelphi
DelphiFieldEndAccess
p443
(dp444
g307
S'top'
p445
sbasbsba(i__main__
DelphiAssignStatement
p446
(dp447
g293
(idelphi
DelphiAddOp
p448
(dp449
g313
S'+'
sg314
(idelphi
DelphiIntegerValue
p450
(dp451
g318
S'3'
sbsg322
(idelphi
DelphiAddOp
p452
(dp453
g313
S'+'
sg314
(i__main__
DelphiIdentAccess
p454
(dp455
g296
S'close'
p456
sg298
(lp457
(idelphi
DelphiFieldEndAccess
p458
(dp459
g307
S'height'
p460
sbasbsg322
(i__main__
DelphiIdentAccess
p461
(dp462
g296
S'close'
p463
sg298
(lp464
(idelphi
DelphiFieldEndAccess
p465
(dp466
g307
S'top'
p467
sbasbsbsbsg300
(i__main__
DelphiIdentAccess
p468
(dp469
g296
S'registerIt'
p470
sg298
(lp471
(idelphi
DelphiFieldEndAccess
p472
(dp473
g307
S'top'
p474
sbasbsbasbsS'caseLabelList'
p475
(lp476
(idelphi
DelphiIntegerValue
p477
(dp478
g318
S'0'
sbasba(idelphi
DelphiCaseSelector
p479
(dp480
g398
(idelphi
DelphiCompoundStatement
p481
(dp482
g289
(lp483
(i__main__
DelphiAssignStatement
p484
(dp485
g293
(idelphi
DelphiIntegerValue
p486
(dp487
g318
S'4'
sbsg300
(i__main__
DelphiIdentAccess
p488
(dp489
g296
S'registerIt'
p490
sg298
(lp491
(idelphi
DelphiFieldEndAccess
p492
(dp493
g307
S'top'
p494
sbasbsba(i__main__
DelphiAssignStatement
p495
(dp496
g293
(idelphi
DelphiAddOp
p497
(dp498
g313
S'+'
sg314
(idelphi
DelphiIntegerValue
p499
(dp500
g318
S'3'
sbsg322
(idelphi
DelphiAddOp
p501
(dp502
g313
S'+'
sg314
(i__main__
DelphiIdentAccess
p503
(dp504
g296
S'registerIt'
p505
sg298
(lp506
(idelphi
DelphiFieldEndAccess
p507
(dp508
g307
S'height'
p509
sbasbsg322
(i__main__
DelphiIdentAccess
p510
(dp511
g296
S'registerIt'
p512
sg298
(lp513
(idelphi
DelphiFieldEndAccess
p514
(dp515
g307
S'top'
p516
sbasbsbsbsg300
(i__main__
DelphiIdentAccess
p517
(dp518
g296
S'close'
p519
sg298
(lp520
(idelphi
DelphiFieldEndAccess
p521
(dp522
g307
S'top'
p523
sbasbsbasbsg475
(lp524
(idelphi
DelphiIntegerValue
p525
(dp526
g318
S'1'
sbasbasba(i__main__
DelphiAssignStatement
p527
(dp528
g293
(idelphi
DelphiStringAccess
p529
(dp530
g298
(lp531
sg318
(idelphi
DelphiStringValue
p532
(dp533
g318
S'You have been evaluating PlantStudio for '
p534
sbsbsg300
(i__main__
DelphiIdentAccess
p535
(dp536
g296
S'hoursLabel'
p537
sg298
(lp538
(idelphi
DelphiFieldEndAccess
p539
(dp540
g307
S'caption'
p541
sbasbsba(i__main__
DelphiAssignStatement
p542
(dp543
g293
(idelphi
DelphiAddOp
p544
(dp545
g313
S'+'
sg314
(i__main__
DelphiIdentAccess
p546
(dp547
g296
S'domain'
p548
sg298
(lp549
(idelphi
DelphiFieldEndAccess
p550
(dp551
g307
S'accumulatedUnregisteredTime'
p552
sbasbsg322
(i__main__
DelphiIdentAccess
p553
(dp554
g296
S'max'
p555
sg298
(lp556
(idelphi
DelphiFunctionEndAccess
p557
(dp558
g331
(lp559
(idelphi
DelphiNestedExpressionListAccess
p560
(dp561
g298
(lp562
sg331
(lp563
(idelphi
DelphiAddOp
p564
(dp565
g313
S'-'
sg314
(i__main__
DelphiIdentAccess
p566
(dp567
g296
S'domain'
p568
sg298
(lp569
(idelphi
DelphiFieldEndAccess
p570
(dp571
g307
S'startTimeThisSession'
p572
sbasbsg322
(i__main__
DelphiIdentAccess
p573
(dp574
g296
S'Now'
p575
sg298
(lp576
sbsbasba(idelphi
DelphiIntegerValue
p577
(dp578
g318
S'0'
sbasbasbsbsg300
(i__main__
DelphiIdentAccess
p579
(dp580
g296
S'timeBetween'
p581
sg298
(lp582
sbsba(i__main__
DelphiAssignStatement
p583
(dp584
g293
Nsg300
(i__main__
DelphiIdentAccess
p585
(dp586
g296
S'DecodeTime'
p587
sg298
(lp588
(idelphi
DelphiFunctionEndAccess
p589
(dp590
g331
(lp591
(i__main__
DelphiIdentAccess
p592
(dp593
g296
S'timeBetween'
p594
sg298
(lp595
sba(i__main__
DelphiIdentAccess
p596
(dp597
g296
S'smallHours'
p598
sg298
(lp599
sba(i__main__
DelphiIdentAccess
p600
(dp601
g296
S'minutes'
p602
sg298
(lp603
sba(i__main__
DelphiIdentAccess
p604
(dp605
g296
S'seconds'
p606
sg298
(lp607
sba(i__main__
DelphiIdentAccess
p608
(dp609
g296
S'milliseconds'
p610
sg298
(lp611
sbasbasbsba(i__main__
DelphiAssignStatement
p612
(dp613
g293
(i__main__
DelphiIdentAccess
p614
(dp615
g296
S'smallHours'
p616
sg298
(lp617
sbsg300
(i__main__
DelphiIdentAccess
p618
(dp619
g296
S'hours'
p620
sg298
(lp621
sbsba(idelphi
DelphiIfStatement
p622
(dp623
g423
(idelphi
DelphiRelOp
p624
(dp625
S'simpleExpression1'
p626
(i__main__
DelphiIdentAccess
p627
(dp628
g296
S'timeBetween'
p629
sg298
(lp630
sbsS'simpleExpression2'
p631
(idelphi
DelphiRealValue
p632
(dp633
g318
S'1.0'
p634
sbsS'relOp'
p635
S'>='
p636
sbsS'ifFalseStatement'
p637
NsS'ifTrueStatement'
p638
(i__main__
DelphiAssignStatement
p639
(dp640
g293
(idelphi
DelphiAddOp
p641
(dp642
g313
S'+'
sg314
(idelphi
DelphiMulOp
p643
(dp644
S'signedFactor2'
p645
(idelphi
DelphiIntegerValue
p646
(dp647
g318
S'24'
p648
sbsS'mulOp'
p649
S'*'
sS'signedFactor1'
p650
(i__main__
DelphiIdentAccess
p651
(dp652
g296
S'trunc'
p653
sg298
(lp654
(idelphi
DelphiFunctionEndAccess
p655
(dp656
g331
(lp657
(i__main__
DelphiIdentAccess
p658
(dp659
g296
S'timeBetween'
p660
sg298
(lp661
sbasbasbsbsg322
(i__main__
DelphiIdentAccess
p662
(dp663
g296
S'hours'
p664
sg298
(lp665
sbsbsg300
(i__main__
DelphiIdentAccess
p666
(dp667
g296
S'hours'
p668
sg298
(lp669
sbsbsba(idelphi
DelphiIfStatement
p670
(dp671
g423
(idelphi
DelphiMulOp
p672
(dp673
g645
(idelphi
DelphiNestedExpressionListAccess
p674
(dp675
g298
(lp676
sg331
(lp677
(idelphi
DelphiRelOp
p678
(dp679
g626
(i__main__
DelphiIdentAccess
p680
(dp681
g296
S'hours'
p682
sg298
(lp683
sbsg631
(idelphi
DelphiIntegerValue
p684
(dp685
g318
S'1'
sbsg635
S'<'
sbasbsg649
S'and'
p686
sg650
(idelphi
DelphiNestedExpressionListAccess
p687
(dp688
g298
(lp689
sg331
(lp690
(idelphi
DelphiRelOp
p691
(dp692
g626
(i__main__
DelphiIdentAccess
p693
(dp694
g296
S'minutes'
p695
sg298
(lp696
sbsg631
(idelphi
DelphiIntegerValue
p697
(dp698
g318
S'1'
sbsg635
S'<'
sbasbsbsg637
(idelphi
DelphiIfStatement
p699
(dp700
g423
(idelphi
DelphiMulOp
p701
(dp702
g645
(idelphi
DelphiNestedExpressionListAccess
p703
(dp704
g298
(lp705
sg331
(lp706
(idelphi
DelphiRelOp
p707
(dp708
g626
(i__main__
DelphiIdentAccess
p709
(dp710
g296
S'hours'
p711
sg298
(lp712
sbsg631
(idelphi
DelphiIntegerValue
p713
(dp714
g318
S'1'
sbsg635
S'<'
sbasbsg649
g686
sg650
(idelphi
DelphiNestedExpressionListAccess
p715
(dp716
g298
(lp717
sg331
(lp718
(idelphi
DelphiRelOp
p719
(dp720
g626
(i__main__
DelphiIdentAccess
p721
(dp722
g296
S'minutes'
p723
sg298
(lp724
sbsg631
(idelphi
DelphiIntegerValue
p725
(dp726
g318
S'1'
sbsg635
S'='
sbasbsbsg637
(idelphi
DelphiIfStatement
p727
(dp728
g423
(idelphi
DelphiRelOp
p729
(dp730
g626
(i__main__
DelphiIdentAccess
p731
(dp732
g296
S'hours'
p733
sg298
(lp734
sbsg631
(idelphi
DelphiIntegerValue
p735
(dp736
g318
S'1'
sbsg635
S'<'
sbsg637
(idelphi
DelphiIfStatement
p737
(dp738
g423
(idelphi
DelphiRelOp
p739
(dp740
g626
(i__main__
DelphiIdentAccess
p741
(dp742
g296
S'hours'
p743
sg298
(lp744
sbsg631
(idelphi
DelphiIntegerValue
p745
(dp746
g318
S'1'
sbsg635
S'='
sbsg637
(i__main__
DelphiAssignStatement
p747
(dp748
g293
(idelphi
DelphiAddOp
p749
(dp750
g313
S'+'
sg314
(idelphi
DelphiStringAccess
p751
(dp752
g298
(lp753
sg318
(idelphi
DelphiStringValue
p754
(dp755
g318
S' minutes.'
p756
sbsbsg322
(idelphi
DelphiAddOp
p757
(dp758
g313
S'+'
sg314
(i__main__
DelphiIdentAccess
p759
(dp760
g296
S'intToStr'
p761
sg298
(lp762
(idelphi
DelphiFunctionEndAccess
p763
(dp764
g331
(lp765
(i__main__
DelphiIdentAccess
p766
(dp767
g296
S'minutes'
p768
sg298
(lp769
sbasbasbsg322
(idelphi
DelphiAddOp
p770
(dp771
g313
S'+'
sg314
(idelphi
DelphiStringAccess
p772
(dp773
g298
(lp774
sg318
(idelphi
DelphiStringValue
p775
(dp776
g318
S' hours and '
p777
sbsbsg322
(idelphi
DelphiAddOp
p778
(dp779
g313
S'+'
sg314
(i__main__
DelphiIdentAccess
p780
(dp781
g296
S'intToStr'
p782
sg298
(lp783
(idelphi
DelphiFunctionEndAccess
p784
(dp785
g331
(lp786
(i__main__
DelphiIdentAccess
p787
(dp788
g296
S'hours'
p789
sg298
(lp790
sbasbasbsg322
(i__main__
DelphiIdentAccess
p791
(dp792
g296
S'hoursLabel'
p793
sg298
(lp794
(idelphi
DelphiFieldEndAccess
p795
(dp796
g307
S'caption'
p797
sbasbsbsbsbsbsg300
(i__main__
DelphiIdentAccess
p798
(dp799
g296
S'hoursLabel'
p800
sg298
(lp801
(idelphi
DelphiFieldEndAccess
p802
(dp803
g307
S'caption'
p804
sbasbsbsg638
(i__main__
DelphiAssignStatement
p805
(dp806
g293
(idelphi
DelphiAddOp
p807
(dp808
g313
S'+'
sg314
(idelphi
DelphiStringAccess
p809
(dp810
g298
(lp811
sg318
(idelphi
DelphiStringValue
p812
(dp813
g318
S' minutes.'
p814
sbsbsg322
(idelphi
DelphiAddOp
p815
(dp816
g313
S'+'
sg314
(i__main__
DelphiIdentAccess
p817
(dp818
g296
S'intToStr'
p819
sg298
(lp820
(idelphi
DelphiFunctionEndAccess
p821
(dp822
g331
(lp823
(i__main__
DelphiIdentAccess
p824
(dp825
g296
S'minutes'
p826
sg298
(lp827
sbasbasbsg322
(idelphi
DelphiAddOp
p828
(dp829
g313
S'+'
sg314
(idelphi
DelphiStringAccess
p830
(dp831
g298
(lp832
sg318
(idelphi
DelphiStringValue
p833
(dp834
g318
S' hour and '
p835
sbsbsg322
(idelphi
DelphiAddOp
p836
(dp837
g313
S'+'
sg314
(i__main__
DelphiIdentAccess
p838
(dp839
g296
S'intToStr'
p840
sg298
(lp841
(idelphi
DelphiFunctionEndAccess
p842
(dp843
g331
(lp844
(i__main__
DelphiIdentAccess
p845
(dp846
g296
S'hours'
p847
sg298
(lp848
sbasbasbsg322
(i__main__
DelphiIdentAccess
p849
(dp850
g296
S'hoursLabel'
p851
sg298
(lp852
(idelphi
DelphiFieldEndAccess
p853
(dp854
g307
S'caption'
p855
sbasbsbsbsbsbsg300
(i__main__
DelphiIdentAccess
p856
(dp857
g296
S'hoursLabel'
p858
sg298
(lp859
(idelphi
DelphiFieldEndAccess
p860
(dp861
g307
S'caption'
p862
sbasbsbsbsg638
(i__main__
DelphiAssignStatement
p863
(dp864
g293
(idelphi
DelphiAddOp
p865
(dp866
g313
S'+'
sg314
(idelphi
DelphiStringAccess
p867
(dp868
g298
(lp869
sg318
(idelphi
DelphiStringValue
p870
(dp871
g318
S' minutes.'
p872
sbsbsg322
(idelphi
DelphiAddOp
p873
(dp874
g313
S'+'
sg314
(i__main__
DelphiIdentAccess
p875
(dp876
g296
S'intToStr'
p877
sg298
(lp878
(idelphi
DelphiFunctionEndAccess
p879
(dp880
g331
(lp881
(i__main__
DelphiIdentAccess
p882
(dp883
g296
S'minutes'
p884
sg298
(lp885
sbasbasbsg322
(i__main__
DelphiIdentAccess
p886
(dp887
g296
S'hoursLabel'
p888
sg298
(lp889
(idelphi
DelphiFieldEndAccess
p890
(dp891
g307
S'caption'
p892
sbasbsbsbsg300
(i__main__
DelphiIdentAccess
p893
(dp894
g296
S'hoursLabel'
p895
sg298
(lp896
(idelphi
DelphiFieldEndAccess
p897
(dp898
g307
S'caption'
p899
sbasbsbsbsg638
(i__main__
DelphiAssignStatement
p900
(dp901
g293
(idelphi
DelphiAddOp
p902
(dp903
g313
S'+'
sg314
(idelphi
DelphiStringAccess
p904
(dp905
g298
(lp906
sg318
(idelphi
DelphiStringValue
p907
(dp908
g318
S'one minute.'
p909
sbsbsg322
(i__main__
DelphiIdentAccess
p910
(dp911
g296
S'hoursLabel'
p912
sg298
(lp913
(idelphi
DelphiFieldEndAccess
p914
(dp915
g307
S'caption'
p916
sbasbsbsg300
(i__main__
DelphiIdentAccess
p917
(dp918
g296
S'hoursLabel'
p919
sg298
(lp920
(idelphi
DelphiFieldEndAccess
p921
(dp922
g307
S'caption'
p923
sbasbsbsbsg638
(i__main__
DelphiAssignStatement
p924
(dp925
g293
(idelphi
DelphiAddOp
p926
(dp927
g313
S'+'
sg314
(idelphi
DelphiStringAccess
p928
(dp929
g298
(lp930
sg318
(idelphi
DelphiStringValue
p931
(dp932
g318
S'less than one minute.'
p933
sbsbsg322
(i__main__
DelphiIdentAccess
p934
(dp935
g296
S'hoursLabel'
p936
sg298
(lp937
(idelphi
DelphiFieldEndAccess
p938
(dp939
g307
S'caption'
p940
sbasbsbsg300
(i__main__
DelphiIdentAccess
p941
(dp942
g296
S'hoursLabel'
p943
sg298
(lp944
(idelphi
DelphiFieldEndAccess
p945
(dp946
g307
S'caption'
p947
sbasbsbsba(i__main__
DelphiAssignStatement
p948
(dp949
g293
(idelphi
DelphiAddOp
p950
(dp951
g313
S'+'
sg314
(idelphi
DelphiStringAccess
p952
(dp953
g298
(lp954
sg318
(idelphi
DelphiStringValue
p955
(dp956
g318
S' hours or more (in total), you are legally required to register it.'
p957
sbsbsg322
(idelphi
DelphiAddOp
p958
(dp959
g313
S'+'
sg314
(i__main__
DelphiIdentAccess
p960
(dp961
g296
S'intToStr'
p962
sg298
(lp963
(idelphi
DelphiFunctionEndAccess
p964
(dp965
g331
(lp966
(i__main__
DelphiIdentAccess
p967
(dp968
g296
S'kMaxEvaluationTime_hours'
p969
sg298
(lp970
sbasbasbsg322
(idelphi
DelphiStringAccess
p971
(dp972
g298
(lp973
sg318
(idelphi
DelphiStringValue
p974
(dp975
g318
S'If you have been using PlantStudio for '
p976
sbsbsbsbsg300
(i__main__
DelphiIdentAccess
p977
(dp978
g296
S'timeWarningLabel'
p979
sg298
(lp980
(idelphi
DelphiFieldEndAccess
p981
(dp982
g307
S'caption'
p983
sbasbsba(idelphi
DelphiIfStatement
p984
(dp985
g423
(idelphi
DelphiRelOp
p986
(dp987
g626
(i__main__
DelphiIdentAccess
p988
(dp989
g296
S'hours'
p990
sg298
(lp991
sbsg631
(i__main__
DelphiIdentAccess
p992
(dp993
g296
S'kMaxEvaluationTime_hours'
p994
sg298
(lp995
sbsg635
g636
sbsg637
Nsg638
(idelphi
DelphiCompoundStatement
p996
(dp997
g289
(lp998
(i__main__
DelphiAssignStatement
p999
(dp1000
g293
(i__main__
DelphiIdentAccess
p1001
(dp1002
g296
S'clGreen'
p1003
sg298
(lp1004
sbsg300
(i__main__
DelphiIdentAccess
p1005
(dp1006
g296
S'timeWarningLabel'
p1007
sg298
(lp1008
(idelphi
DelphiFieldEndAccess
p1009
(dp1010
g307
S'font'
p1011
sba(idelphi
DelphiFieldEndAccess
p1012
(dp1013
g307
S'color'
p1014
sbasbsba(i__main__
DelphiAssignStatement
p1015
(dp1016
g293
(idelphi
DelphiSetConstructor
p1017
(dp1018
S'setElementList'
p1019
(lp1020
(i__main__
DelphiIdentAccess
p1021
(dp1022
g296
S'fsBold'
p1023
sg298
(lp1024
sbasbsg300
(i__main__
DelphiIdentAccess
p1025
(dp1026
g296
S'timeWarningLabel'
p1027
sg298
(lp1028
(idelphi
DelphiFieldEndAccess
p1029
(dp1030
g307
S'font'
p1031
sba(idelphi
DelphiFieldEndAccess
p1032
(dp1033
g307
S'style'
p1034
sbasbsbasbsbasbsS'limitedDeclSectionList'
p1035
(lp1036
(i__main__
DelphiVarSection
p1037
(dp1038
S'atTopLevel'
p1039
I0
sS'varDeclList'
p1040
(lp1041
(idelphi
DelphiVarDecl
p1042
(dp1043
S'constExpression'
p1044
NsS'identList'
p1045
(lp1046
S'timeBetween'
p1047
asg67
(i__main__
DelphiNamedType
p1048
(dp1049
g70
S'TDateTime'
p1050
sg72
g1
sg73
Nsbsba(idelphi
DelphiVarDecl
p1051
(dp1052
g1044
Nsg1045
(lp1053
S'hours'
p1054
aS'minutes'
p1055
aS'seconds'
p1056
aS'milliseconds'
p1057
aS'smallHours'
p1058
asg67
(i__main__
DelphiPrimitiveType
p1059
(dp1060
g70
S'word'
p1061
sbsba(idelphi
DelphiVarDecl
p1062
(dp1063
g1044
Nsg1045
(lp1064
S'randomNumber'
p1065
asg67
(i__main__
DelphiPrimitiveType
p1066
(dp1067
g70
S'integer'
p1068
sbsba(idelphi
DelphiVarDecl
p1069
(dp1070
g1044
Nsg1045
(lp1071
S'i'
asg67
(i__main__
DelphiPrimitiveType
p1072
(dp1073
g70
S'smallint'
p1074
sbsbasbasbsbsS'registeritclick'
p1075
(i__main__
DelphiMethodImplementation
p1076
(dp1077
g262
g81
sg51
g83
sg59
(lp1078
(i__main__
DelphiFormalParameter
p1079
(dp1080
g63
Nsg64
(lp1081
S'Sender'
p1082
asg67
(i__main__
DelphiNamedType
p1083
(dp1084
g70
S'TObject'
p1085
sg72
g1
sg73
Nsbsg74
Nsbasg271
(lp1086
sg273
(lp1087
sg275
(lp1088
g277
ag1082
asg278
(dp1089
g1082
g1083
ssg75
S'TAboutForm'
p1090
sg76
Nsg281
(lp1091
sg77
I0
sg78
g79
sg283
(i__main__
DelphiBlock
p1092
(dp1093
g286
(idelphi
DelphiCompoundStatement
p1094
(dp1095
g289
(lp1096
(idelphi
DelphiIfStatement
p1097
(dp1098
g423
(idelphi
DelphiRelOp
p1099
(dp1100
g626
(i__main__
DelphiIdentAccess
p1101
(dp1102
g296
S'RegistrationForm'
p1103
sg298
(lp1104
(idelphi
DelphiFieldEndAccess
p1105
(dp1106
g307
S'showModal'
p1107
sbasbsg631
(i__main__
DelphiIdentAccess
p1108
(dp1109
g296
S'mrOK'
p1110
sg298
(lp1111
sbsg635
S'='
sbsg637
Nsg638
(i__main__
DelphiAssignStatement
p1112
(dp1113
g293
(i__main__
DelphiIdentAccess
p1114
(dp1115
g296
S'mrCancel'
p1116
sg298
(lp1117
sbsg300
(i__main__
DelphiIdentAccess
p1118
(dp1119
g296
S'modalResult'
p1120
sg298
(lp1121
sbsbsbasbsg1035
(lp1122
sbsbsS'initializewithwhetherclosingprogram'
p1123
(i__main__
DelphiMethodImplementation
p1124
(dp1125
g262
g93
sg51
g95
sg59
(lp1126
(i__main__
DelphiFormalParameter
p1127
(dp1128
g63
Nsg64
(lp1129
S'closingProgram'
p1130
asg67
(i__main__
DelphiPrimitiveType
p1131
(dp1132
g70
g103
sbsg74
Nsbasg271
(lp1133
sg273
(lp1134
sg275
(lp1135
g277
ag1130
asg278
(dp1136
g1130
g1131
ssg75
S'TAboutForm'
p1137
sg76
Nsg281
(lp1138
sg77
I0
sg78
g79
sg283
(i__main__
DelphiBlock
p1139
(dp1140
g286
(idelphi
DelphiCompoundStatement
p1141
(dp1142
g289
(lp1143
(idelphi
DelphiIfStatement
p1144
(dp1145
g423
(i__main__
DelphiIdentAccess
p1146
(dp1147
g296
S'closingProgram'
p1148
sg298
(lp1149
sbsg637
(i__main__
DelphiAssignStatement
p1150
(dp1151
g293
(idelphi
DelphiStringAccess
p1152
(dp1153
g298
(lp1154
sg318
(idelphi
DelphiStringValue
p1155
(dp1156
g318
S'Close'
p1157
sbsbsg300
(i__main__
DelphiIdentAccess
p1158
(dp1159
g296
S'close'
p1160
sg298
(lp1161
(idelphi
DelphiFieldEndAccess
p1162
(dp1163
g307
S'caption'
p1164
sbasbsbsg638
(i__main__
DelphiAssignStatement
p1165
(dp1166
g293
(idelphi
DelphiStringAccess
p1167
(dp1168
g298
(lp1169
sg318
(idelphi
DelphiStringValue
p1170
(dp1171
g318
S'Quit'
p1172
sbsbsg300
(i__main__
DelphiIdentAccess
p1173
(dp1174
g296
S'close'
p1175
sg298
(lp1176
(idelphi
DelphiFieldEndAccess
p1177
(dp1178
g307
S'caption'
p1179
sbasbsbsba(i__main__
DelphiAssignStatement
p1180
(dp1181
g293
(i__main__
DelphiIdentAccess
p1182
(dp1183
g296
S'closingProgram'
p1184
sg298
(lp1185
sbsg300
(i__main__
DelphiIdentAccess
p1186
(dp1187
g296
S'cancel'
p1188
sg298
(lp1189
(idelphi
DelphiFieldEndAccess
p1190
(dp1191
g307
S'visible'
p1192
sbasbsbasbsg1035
(lp1193
sbsg104
g105
sbsS'readlicenseclick'
p1194
(i__main__
DelphiMethodImplementation
p1195
(dp1196
g262
g110
sg51
g112
sg59
(lp1197
(i__main__
DelphiFormalParameter
p1198
(dp1199
g63
Nsg64
(lp1200
S'Sender'
p1201
asg67
(i__main__
DelphiNamedType
p1202
(dp1203
g70
S'TObject'
p1204
sg72
g1
sg73
Nsbsg74
Nsbasg271
(lp1205
sg273
(lp1206
sg275
(lp1207
g277
ag1201
asg278
(dp1208
g1201
g1202
ssg75
S'TAboutForm'
p1209
sg76
Nsg281
(lp1210
sg77
I0
sg78
g79
sg283
(i__main__
DelphiBlock
p1211
(dp1212
g286
(idelphi
DelphiCompoundStatement
p1213
(dp1214
g289
(lp1215
(i__main__
DelphiAssignStatement
p1216
(dp1217
g293
Nsg300
(i__main__
DelphiIdentAccess
p1218
(dp1219
g296
S'application'
p1220
sg298
(lp1221
(idelphi
DelphiFieldEndAccess
p1222
(dp1223
g307
S'helpJump'
p1224
sba(idelphi
DelphiFunctionEndAccess
p1225
(dp1226
g331
(lp1227
(idelphi
DelphiStringAccess
p1228
(dp1229
g298
(lp1230
sg318
(idelphi
DelphiStringValue
p1231
(dp1232
g318
S'License'
p1233
sbsbasbasbsbasbsg1035
(lp1234
sbsbsS'supportbuttonclick'
p1235
(i__main__
DelphiMethodImplementation
p1236
(dp1237
g262
g122
sg51
g124
sg59
(lp1238
(i__main__
DelphiFormalParameter
p1239
(dp1240
g63
Nsg64
(lp1241
S'Sender'
p1242
asg67
(i__main__
DelphiNamedType
p1243
(dp1244
g70
S'TObject'
p1245
sg72
g1
sg73
Nsbsg74
Nsbasg271
(lp1246
sg273
(lp1247
sg275
(lp1248
g277
ag1242
asg278
(dp1249
g1242
g1243
ssg75
S'TAboutForm'
p1250
sg76
Nsg281
(lp1251
sg77
I0
sg78
g79
sg283
(i__main__
DelphiBlock
p1252
(dp1253
g286
(idelphi
DelphiCompoundStatement
p1254
(dp1255
g289
(lp1256
(i__main__
DelphiAssignStatement
p1257
(dp1258
g293
(i__main__
DelphiIdentAccess
p1259
(dp1260
g296
S'TProgramInfoForm'
p1261
sg298
(lp1262
(idelphi
DelphiFieldEndAccess
p1263
(dp1264
g307
S'create'
p1265
sba(idelphi
DelphiFunctionEndAccess
p1266
(dp1267
g331
(lp1268
(i__main__
DelphiIdentAccess
p1269
(dp1270
g296
S'Application'
p1271
sg298
(lp1272
sbasbasbsg300
(i__main__
DelphiIdentAccess
p1273
(dp1274
g296
S'infoForm'
p1275
sg298
(lp1276
sbsba(idelphi
DelphiTryFinallyStatement
p1277
(dp1278
S'tryStatements'
p1279
(lp1280
(i__main__
DelphiAssignStatement
p1281
(dp1282
g293
Nsg300
(i__main__
DelphiIdentAccess
p1283
(dp1284
g296
S'infoForm'
p1285
sg298
(lp1286
(idelphi
DelphiFieldEndAccess
p1287
(dp1288
g307
S'showModal'
p1289
sbasbsbasS'finallyStatements'
p1290
(lp1291
(i__main__
DelphiAssignStatement
p1292
(dp1293
g293
Nsg300
(i__main__
DelphiIdentAccess
p1294
(dp1295
g296
S'infoForm'
p1296
sg298
(lp1297
(idelphi
DelphiFieldEndAccess
p1298
(dp1299
g307
S'free'
p1300
sbasbsba(i__main__
DelphiAssignStatement
p1301
(dp1302
g293
(idelphi
DelphiNilValue
p1303
(dp1304
bsg300
(i__main__
DelphiIdentAccess
p1305
(dp1306
g296
S'infoForm'
p1307
sg298
(lp1308
sbsbasbasbsg1035
(lp1309
(i__main__
DelphiVarSection
p1310
(dp1311
g1039
I0
sg1040
(lp1312
(idelphi
DelphiVarDecl
p1313
(dp1314
g1044
Nsg1045
(lp1315
S'infoForm'
p1316
asg67
(i__main__
DelphiNamedType
p1317
(dp1318
g70
S'TProgramInfoForm'
p1319
sg72
g1
sg73
NsbsbasbasbsbsS'whyregisterclick'
p1320
(i__main__
DelphiMethodImplementation
p1321
(dp1322
g262
g134
sg51
g136
sg59
(lp1323
(i__main__
DelphiFormalParameter
p1324
(dp1325
g63
Nsg64
(lp1326
S'Sender'
p1327
asg67
(i__main__
DelphiNamedType
p1328
(dp1329
g70
S'TObject'
p1330
sg72
g1
sg73
Nsbsg74
Nsbasg271
(lp1331
sg273
(lp1332
sg275
(lp1333
g277
ag1327
asg278
(dp1334
g1327
g1328
ssg75
S'TAboutForm'
p1335
sg76
Nsg281
(lp1336
sg77
I0
sg78
g79
sg283
(i__main__
DelphiBlock
p1337
(dp1338
g286
(idelphi
DelphiCompoundStatement
p1339
(dp1340
g289
(lp1341
(i__main__
DelphiAssignStatement
p1342
(dp1343
g293
Nsg300
(i__main__
DelphiIdentAccess
p1344
(dp1345
g296
S'application'
p1346
sg298
(lp1347
(idelphi
DelphiFieldEndAccess
p1348
(dp1349
g307
S'helpJump'
p1350
sba(idelphi
DelphiFunctionEndAccess
p1351
(dp1352
g331
(lp1353
(idelphi
DelphiStringAccess
p1354
(dp1355
g298
(lp1356
sg318
(idelphi
DelphiStringValue
p1357
(dp1358
g318
S'Why_register?'
p1359
sbsbasbasbsbasbsg1035
(lp1360
sbsbsS'closeclick'
p1361
(i__main__
DelphiMethodImplementation
p1362
(dp1363
g262
g146
sg51
g148
sg59
(lp1364
(i__main__
DelphiFormalParameter
p1365
(dp1366
g63
Nsg64
(lp1367
S'Sender'
p1368
asg67
(i__main__
DelphiNamedType
p1369
(dp1370
g70
S'TObject'
p1371
sg72
g1
sg73
Nsbsg74
Nsbasg271
(lp1372
sg273
(lp1373
sg275
(lp1374
g277
ag1368
asg278
(dp1375
g1368
g1369
ssg75
S'TAboutForm'
p1376
sg76
Nsg281
(lp1377
sg77
I0
sg78
g79
sg283
(i__main__
DelphiBlock
p1378
(dp1379
g286
(idelphi
DelphiCompoundStatement
p1380
(dp1381
g289
(lp1382
(i__main__
DelphiAssignStatement
p1383
(dp1384
g293
(i__main__
DelphiIdentAccess
p1385
(dp1386
g296
S'mrOK'
p1387
sg298
(lp1388
sbsg300
(i__main__
DelphiIdentAccess
p1389
(dp1390
g296
S'modalResult'
p1391
sg298
(lp1392
sbsbasbsg1035
(lp1393
sbsbssS'propertyDeclarations'
p1394
(dp1395
sS'variableNamesInDeclaredOrder'
p1396
(lp1397
g46
ag50
ag30
ag44
ag22
ag14
ag40
ag42
ag12
ag24
ag26
ag28
ag38
ag34
ag32
ag20
ag48
ag36
ag18
ag10
ag16
asba(i__main__
DelphiVarSection
p1398
(dp1399
g1039
I1
sg1040
(lp1400
(idelphi
DelphiVarDecl
p1401
(dp1402
g1044
Nsg1045
(lp1403
S'AboutForm'
p1404
asg67
(i__main__
DelphiNamedType
p1405
(dp1406
g70
S'TAboutForm'
p1407
sg72
g1
sg73
NsbsbasbasS'includedUnits'
p1408
NsS'implementationUses'
p1409
(lp1410
S'udomain'
p1411
aS'uregister'
p1412
aS'usupport'
p1413
aS'umath'
p1414
aS'uprginfo'
p1415
asg51
S'uabout'
p1416
sS'constSections'
p1417
(lp1418
sS'globalsInProperCase'
p1419
NsS'interfaceUses'
p1420
(lp1421
S'delphi_compatability'
p1422
aS'Windows'
p1423
aS'Messages'
p1424
aS'SysUtils'
p1425
aS'Classes'
p1426
aS'Graphics'
p1427
aS'Controls'
p1428
aS'Forms'
p1429
aS'Dialogs'
p1430
aS'ExtCtrls'
p1431
aS'StdCtrls'
p1432
asS'finalCommentToken'
p1433
(i__main__
PassStatement
p1434
(dp1435
g1035
(lp1436
sbsS'varSections'
p1437
(lp1438
g1398
asS'globals'
p1439
NsS'originalFileName'
p1440
S'../../PlantStudioInPython/converted_source/uabout.pas'
p1441
sS'proceduralImplementations'
p1442
(dp1443
sS'fileName'
p1444
S'/Users/pdf/Documents/workspace/PlantStudioInPython/converted_source/uabout.pas'
p1445
sS'proceduralDeclarations'
p1446
(dp1447
sS'types'
p1448
(dp1449
S'taboutform'
p1450
g5
ssb.