(i__main__
DelphiUnit
p1
(dp2
S'sectionsInOrderDefined'
p3
(lp4
(i__main__
DelphiClass
p5
(dp6
S'variableNamesInProperCase'
p7
(dp8
S'plantmaxagelabel'
p9
S'plantMaxAgeLabel'
p10
sS'groupbox1'
p11
S'GroupBox1'
p12
sS'filenumberlabel'
p13
S'fileNumberLabel'
p14
sS'cancel'
p15
S'cancel'
p16
sS'close'
p17
S'Close'
p18
sS'helpbutton'
p19
S'helpButton'
p20
sS'colorslabel'
p21
S'colorsLabel'
p22
sS'resolutionlabel'
p23
S'resolutionLabel'
p24
sS'incrementlabel'
p25
S'incrementLabel'
p26
sS'panel1'
p27
S'Panel1'
p28
sS'panel2'
p29
S'Panel2'
p30
sS'colortype'
p31
S'colorType'
p32
sS'plant'
p33
S'plant'
p34
sS'internalchange'
p35
S'internalChange'
p36
sS'label1'
p37
S'Label1'
p38
sS'focusedplantname'
p39
S'focusedPlantName'
p40
sS'label4'
p41
S'Label4'
p42
sS'label5'
p43
S'Label5'
p44
sS'animatebyxrotation'
p45
S'animateByXRotation'
p46
sS'incrementedit'
p47
S'incrementEdit'
p48
sS'animatebyage'
p49
S'animateByAge'
p50
sS'filesizelabel'
p51
S'fileSizeLabel'
p52
sS'resolution'
p53
S'resolution'
p54
sS'options'
p55
S'options'
p56
sS'animationsizelabel'
p57
S'animationSizeLabel'
p58
ssS'name'
p59
S'TAnimationFilesOptionsForm'
p60
sS'methodDeclarations'
p61
(dp62
S'helpbuttonclick'
p63
(i__main__
DelphiMethodDeclaration
p64
(dp65
g59
S'helpButtonClick'
p66
sS'formalParameters'
p67
(lp68
(i__main__
DelphiFormalParameter
p69
(dp70
S'initialValue'
p71
NsS'names'
p72
(lp73
S'Sender'
p74
asS'theType'
p75
(i__main__
DelphiNamedType
p76
(dp77
S'typeName'
p78
S'TObject'
p79
sS'unitDefinedIn'
p80
g1
sS'unitName'
p81
NsbsS'parameterVariety'
p82
NsbasS'className'
p83
g60
sS'resultType'
p84
NsS'isClassMethod'
p85
I0
sS'methodType'
p86
S'procedure'
p87
sbsS'animatebyxrotationclick'
p88
(i__main__
DelphiMethodDeclaration
p89
(dp90
g59
S'animateByXRotationClick'
p91
sg67
(lp92
(i__main__
DelphiFormalParameter
p93
(dp94
g71
Nsg72
(lp95
S'Sender'
p96
asg75
(i__main__
DelphiNamedType
p97
(dp98
g78
S'TObject'
p99
sg80
g1
sg81
Nsbsg82
Nsbasg83
g60
sg84
Nsg85
I0
sg86
g87
sbsS'formkeypress'
p100
(i__main__
DelphiMethodDeclaration
p101
(dp102
g59
S'FormKeyPress'
p103
sg67
(lp104
(i__main__
DelphiFormalParameter
p105
(dp106
g71
Nsg72
(lp107
S'Sender'
p108
asg75
(i__main__
DelphiNamedType
p109
(dp110
g78
S'TObject'
p111
sg80
g1
sg81
Nsbsg82
Nsba(i__main__
DelphiFormalParameter
p112
(dp113
g71
Nsg72
(lp114
S'Key'
p115
asg75
(i__main__
DelphiPrimitiveType
p116
(dp117
g78
S'char'
p118
sbsg82
S'var'
p119
sbasg83
g60
sg84
Nsg85
I0
sg86
g87
sbsS'changequestionsbasedonanimationtype'
p120
(i__main__
DelphiMethodDeclaration
p121
(dp122
g59
S'changeQuestionsBasedOnAnimationType'
p123
sg67
(lp124
sg83
g60
sg84
Nsg85
I0
sg86
g87
sbsS'incrementeditchange'
p125
(i__main__
DelphiMethodDeclaration
p126
(dp127
g59
S'incrementEditChange'
p128
sg67
(lp129
(i__main__
DelphiFormalParameter
p130
(dp131
g71
Nsg72
(lp132
S'Sender'
p133
asg75
(i__main__
DelphiNamedType
p134
(dp135
g78
S'TObject'
p136
sg80
g1
sg81
Nsbsg82
Nsbasg83
g60
sg84
Nsg85
I0
sg86
g87
sbsS'calculatenumberofframes'
p137
(i__main__
DelphiMethodDeclaration
p138
(dp139
g59
S'calculateNumberOfFrames'
p140
sg67
(lp141
sg83
g60
sg84
Nsg85
I0
sg86
g87
sbsS'resolutionchange'
p142
(i__main__
DelphiMethodDeclaration
p143
(dp144
g59
S'resolutionChange'
p145
sg67
(lp146
(i__main__
DelphiFormalParameter
p147
(dp148
g71
Nsg72
(lp149
S'Sender'
p150
asg75
(i__main__
DelphiNamedType
p151
(dp152
g78
S'TObject'
p153
sg80
g1
sg81
Nsbsg82
Nsbasg83
g60
sg84
Nsg85
I0
sg86
g87
sbsS'initializewithoptionsandplant'
p154
(i__main__
DelphiMethodDeclaration
p155
(dp156
g59
S'initializeWithOptionsAndPlant'
p157
sg67
(lp158
(i__main__
DelphiFormalParameter
p159
(dp160
g71
Nsg72
(lp161
S'anOptions'
p162
asg75
(i__main__
DelphiNamedType
p163
(dp164
g78
S'NumberedAnimationOptionsStructure'
p165
sg80
g1
sg81
Nsbsg82
Nsba(i__main__
DelphiFormalParameter
p166
(dp167
g71
Nsg72
(lp168
S'aPlant'
p169
asg75
(i__main__
DelphiNamedType
p170
(dp171
g78
S'PdPlant'
p172
sg80
g1
sg81
Nsbsg82
Nsbasg83
g60
sg84
Nsg85
I0
sg86
g87
sS'commentLinesBefore'
p173
(lp174
S' Private declarations '
p175
aS' Public declarations '
p176
aS'$R *.DFM'
p177
asbsS'colortypechange'
p178
(i__main__
DelphiMethodDeclaration
p179
(dp180
g59
S'colorTypeChange'
p181
sg67
(lp182
(i__main__
DelphiFormalParameter
p183
(dp184
g71
Nsg72
(lp185
S'Sender'
p186
asg75
(i__main__
DelphiNamedType
p187
(dp188
g78
S'TObject'
p189
sg80
g1
sg81
Nsbsg82
Nsbasg83
g60
sg84
Nsg85
I0
sg86
g87
sbsS'animatebyageclick'
p190
(i__main__
DelphiMethodDeclaration
p191
(dp192
g59
S'animateByAgeClick'
p193
sg67
(lp194
(i__main__
DelphiFormalParameter
p195
(dp196
g71
Nsg72
(lp197
S'Sender'
p198
asg75
(i__main__
DelphiNamedType
p199
(dp200
g78
S'TObject'
p201
sg80
g1
sg81
Nsbsg82
Nsbasg83
g60
sg84
Nsg85
I0
sg86
g87
sbssS'superclassNamedTypes'
p202
(lp203
(i__main__
DelphiNamedType
p204
(dp205
g78
S'PdForm'
p206
sg80
g1
sg81
NsbasS'variableNames'
p207
(dp208
S'plantmaxagelabel'
p209
(i__main__
DelphiNamedType
p210
(dp211
g78
S'TLabel'
p212
sg80
g1
sg81
NsbsS'groupbox1'
p213
(i__main__
DelphiNamedType
p214
(dp215
g78
S'TGroupBox'
p216
sg80
g1
sg81
NsbsS'filenumberlabel'
p217
(i__main__
DelphiNamedType
p218
(dp219
g78
S'TLabel'
p220
sg80
g1
sg81
NsbsS'cancel'
p221
(i__main__
DelphiNamedType
p222
(dp223
g78
S'TButton'
p224
sg80
g1
sg81
NsbsS'close'
p225
(i__main__
DelphiNamedType
p226
(dp227
g78
S'TButton'
p228
sg80
g1
sg81
NsbsS'helpbutton'
p229
(i__main__
DelphiNamedType
p230
(dp231
g78
S'TSpeedButton'
p232
sg80
g1
sg81
NsbsS'colorslabel'
p233
(i__main__
DelphiNamedType
p234
(dp235
g78
S'TLabel'
p236
sg80
g1
sg81
NsbsS'resolutionlabel'
p237
(i__main__
DelphiNamedType
p238
(dp239
g78
S'TLabel'
p240
sg80
g1
sg81
NsbsS'incrementlabel'
p241
(i__main__
DelphiNamedType
p242
(dp243
g78
S'TLabel'
p244
sg80
g1
sg81
NsbsS'panel1'
p245
(i__main__
DelphiNamedType
p246
(dp247
g78
S'TPanel'
p248
sg80
g1
sg81
NsbsS'panel2'
p249
(i__main__
DelphiNamedType
p250
(dp251
g78
S'TPanel'
p252
sg80
g1
sg81
NsbsS'colortype'
p253
(i__main__
DelphiNamedType
p254
(dp255
g78
S'TComboBox'
p256
sg80
g1
sg81
NsbsS'plant'
p257
(i__main__
DelphiNamedType
p258
(dp259
g78
S'PdPlant'
p260
sg80
g1
sg81
NsbsS'internalchange'
p261
(i__main__
DelphiPrimitiveType
p262
(dp263
g78
S'boolean'
p264
sbsS'label1'
p265
(i__main__
DelphiNamedType
p266
(dp267
g78
S'TLabel'
p268
sg80
g1
sg81
NsbsS'focusedplantname'
p269
(i__main__
DelphiNamedType
p270
(dp271
g78
S'TLabel'
p272
sg80
g1
sg81
NsbsS'label4'
p273
(i__main__
DelphiNamedType
p274
(dp275
g78
S'TLabel'
p276
sg80
g1
sg81
NsbsS'label5'
p277
(i__main__
DelphiNamedType
p278
(dp279
g78
S'TLabel'
p280
sg80
g1
sg81
NsbsS'animatebyxrotation'
p281
(i__main__
DelphiNamedType
p282
(dp283
g78
S'TRadioButton'
p284
sg80
g1
sg81
NsbsS'incrementedit'
p285
(i__main__
DelphiNamedType
p286
(dp287
g78
S'TSpinEdit'
p288
sg80
g1
sg81
NsbsS'animatebyage'
p289
(i__main__
DelphiNamedType
p290
(dp291
g78
S'TRadioButton'
p292
sg80
g1
sg81
NsbsS'filesizelabel'
p293
(i__main__
DelphiNamedType
p294
(dp295
g78
S'TLabel'
p296
sg80
g1
sg81
NsbsS'resolution'
p297
(i__main__
DelphiNamedType
p298
(dp299
g78
S'TSpinEdit'
p300
sg80
g1
sg81
NsbsS'options'
p301
(i__main__
DelphiNamedType
p302
(dp303
g78
S'NumberedAnimationOptionsStructure'
p304
sg80
g1
sg81
NsbsS'animationsizelabel'
p305
(i__main__
DelphiNamedType
p306
(dp307
g78
S'TLabel'
p308
sg80
g1
sg81
NsbssS'methodNamesInDefinedOrder'
p309
(lp310
S'initializewithoptionsandplant'
p311
aS'changequestionsbasedonanimationtype'
p312
aS'animatebyageclick'
p313
aS'animatebyxrotationclick'
p314
aS'incrementeditchange'
p315
aS'resolutionchange'
p316
aS'calculatenumberofframes'
p317
aS'colortypechange'
p318
aS'helpbuttonclick'
p319
aS'formkeypress'
p320
asS'methodImplementations'
p321
(dp322
S'helpbuttonclick'
p323
(i__main__
DelphiMethodImplementation
p324
(dp325
S'originalDeclaration'
p326
g64
sg59
g66
sg67
(lp327
(i__main__
DelphiFormalParameter
p328
(dp329
g71
Nsg72
(lp330
S'Sender'
p331
asg75
(i__main__
DelphiNamedType
p332
(dp333
g78
S'TObject'
p334
sg80
g1
sg81
Nsbsg82
NsbasS'varParamIndexes'
p335
(lp336
sS'varParamsSkipped'
p337
(lp338
sS'argNames'
p339
(lp340
S'self'
p341
ag331
asS'argTypes'
p342
(dp343
g331
g332
ssg83
S'TAnimationFilesOptionsForm'
p344
sg84
NsS'varParamNames'
p345
(lp346
sg85
I0
sg86
g87
sS'block'
p347
(i__main__
DelphiBlock
p348
(dp349
S'compoundStatement'
p350
(idelphi
DelphiCompoundStatement
p351
(dp352
S'statements'
p353
(lp354
(i__main__
DelphiAssignStatement
p355
(dp356
S'newValueExpression'
p357
NsS'destinationExpression'
p358
(i__main__
DelphiIdentAccess
p359
(dp360
S'ident'
p361
S'Application'
p362
sS'endAccessList'
p363
(lp364
(idelphi
DelphiFieldEndAccess
p365
(dp366
S'field'
p367
S'helpJump'
p368
sba(idelphi
DelphiFunctionEndAccess
p369
(dp370
S'expressionList'
p371
(lp372
(idelphi
DelphiStringAccess
p373
(dp374
g363
(lp375
sS'string'
p376
(idelphi
DelphiStringValue
p377
(dp378
g376
S'Making_numbered_animation_files'
p379
sbsbasbasbsbasbsS'limitedDeclSectionList'
p380
(lp381
sbsbsS'animatebyxrotationclick'
p382
(i__main__
DelphiMethodImplementation
p383
(dp384
g326
g89
sg59
g91
sg67
(lp385
(i__main__
DelphiFormalParameter
p386
(dp387
g71
Nsg72
(lp388
S'Sender'
p389
asg75
(i__main__
DelphiNamedType
p390
(dp391
g78
S'TObject'
p392
sg80
g1
sg81
Nsbsg82
Nsbasg335
(lp393
sg337
(lp394
sg339
(lp395
g341
ag389
asg342
(dp396
g389
g390
ssg83
S'TAnimationFilesOptionsForm'
p397
sg84
Nsg345
(lp398
sg85
I0
sg86
g87
sg347
(i__main__
DelphiBlock
p399
(dp400
g350
(idelphi
DelphiCompoundStatement
p401
(dp402
g353
(lp403
(idelphi
DelphiIfStatement
p404
(dp405
S'expression'
p406
(i__main__
DelphiIdentAccess
p407
(dp408
g361
S'internalChange'
p409
sg363
(lp410
sbsS'ifFalseStatement'
p411
NsS'ifTrueStatement'
p412
(i__main__
DelphiExitStatement
p413
(dp414
S'proceduralOrMethodImplementation'
p415
g383
sbsba(idelphi
DelphiIfStatement
p416
(dp417
g406
(i__main__
DelphiIdentAccess
p418
(dp419
g361
S'animateByAge'
p420
sg363
(lp421
(idelphi
DelphiFieldEndAccess
p422
(dp423
g367
S'checked'
p424
sbasbsg411
(i__main__
DelphiAssignStatement
p425
(dp426
g357
(i__main__
DelphiIdentAccess
p427
(dp428
g361
S'kAnimateByXRotation'
p429
sg363
(lp430
sbsg358
(i__main__
DelphiIdentAccess
p431
(dp432
g361
S'options'
p433
sg363
(lp434
(idelphi
DelphiFieldEndAccess
p435
(dp436
g367
S'animateBy'
p437
sbasbsbsg412
(i__main__
DelphiAssignStatement
p438
(dp439
g357
(i__main__
DelphiIdentAccess
p440
(dp441
g361
S'kAnimateByAge'
p442
sg363
(lp443
sbsg358
(i__main__
DelphiIdentAccess
p444
(dp445
g361
S'options'
p446
sg363
(lp447
(idelphi
DelphiFieldEndAccess
p448
(dp449
g367
S'animateBy'
p450
sbasbsbsba(i__main__
DelphiAssignStatement
p451
(dp452
g357
Nsg358
(i__main__
DelphiIdentAccess
p453
(dp454
g361
S'self'
p455
sg363
(lp456
(idelphi
DelphiFieldEndAccess
p457
(dp458
g367
S'changeQuestionsBasedOnAnimationType'
p459
sbasbsba(i__main__
DelphiAssignStatement
p460
(dp461
g357
Nsg358
(i__main__
DelphiIdentAccess
p462
(dp463
g361
S'self'
p464
sg363
(lp465
(idelphi
DelphiFieldEndAccess
p466
(dp467
g367
S'calculateNumberOfFrames'
p468
sbasbsbasbsg380
(lp469
sbsbsS'formkeypress'
p470
(i__main__
DelphiMethodImplementation
p471
(dp472
g326
g101
sg59
g103
sg67
(lp473
(i__main__
DelphiFormalParameter
p474
(dp475
g71
Nsg72
(lp476
S'Sender'
p477
asg75
(i__main__
DelphiNamedType
p478
(dp479
g78
S'TObject'
p480
sg80
g1
sg81
Nsbsg82
Nsba(i__main__
DelphiFormalParameter
p481
(dp482
g71
Nsg72
(lp483
S'Key'
p484
asg75
(i__main__
DelphiPrimitiveType
p485
(dp486
g78
g118
sbsg82
g119
sbasg335
(lp487
I1
asg337
(lp488
sg339
(lp489
g341
ag477
ag484
asg342
(dp490
g477
g478
sg484
g485
ssg83
S'TAnimationFilesOptionsForm'
p491
sg84
Nsg345
(lp492
g484
asg85
I0
sg86
g87
sg347
(i__main__
DelphiBlock
p493
(dp494
g350
(idelphi
DelphiCompoundStatement
p495
(dp496
g353
(lp497
(i__main__
DelphiAssignStatement
p498
(dp499
g357
Nsg358
(i__main__
DelphiIdentAccess
p500
(dp501
g361
S'makeEnterWorkAsTab'
p502
sg363
(lp503
(idelphi
DelphiFunctionEndAccess
p504
(dp505
g371
(lp506
(i__main__
DelphiIdentAccess
p507
(dp508
g361
S'self'
p509
sg363
(lp510
sba(i__main__
DelphiIdentAccess
p511
(dp512
g361
S'activeControl'
p513
sg363
(lp514
sba(i__main__
DelphiIdentAccess
p515
(dp516
g361
S'key'
p517
sg363
(lp518
sbasbasbsbasbsg380
(lp519
sbsbsS'changequestionsbasedonanimationtype'
p520
(i__main__
DelphiMethodImplementation
p521
(dp522
g326
g121
sg59
g123
sg67
(lp523
sg335
(lp524
sg337
(lp525
sg339
(lp526
g341
asg342
(dp527
sg83
S'TAnimationFilesOptionsForm'
p528
sg84
Nsg345
(lp529
sg85
I0
sg86
g87
sg347
(i__main__
DelphiBlock
p530
(dp531
g350
(idelphi
DelphiCompoundStatement
p532
(dp533
g353
(lp534
(i__main__
DelphiAssignStatement
p535
(dp536
g357
(i__main__
DelphiIdentAccess
p537
(dp538
g361
S'true'
p539
sg363
(lp540
sbsg358
(i__main__
DelphiIdentAccess
p541
(dp542
g361
S'internalChange'
p543
sg363
(lp544
sbsba(idelphi
DelphiIfStatement
p545
(dp546
g406
(i__main__
DelphiIdentAccess
p547
(dp548
g361
S'animateByAge'
p549
sg363
(lp550
(idelphi
DelphiFieldEndAccess
p551
(dp552
g367
S'checked'
p553
sbasbsg411
(idelphi
DelphiCompoundStatement
p554
(dp555
g353
(lp556
(i__main__
DelphiAssignStatement
p557
(dp558
g357
(idelphi
DelphiStringAccess
p559
(dp560
g363
(lp561
sg376
(idelphi
DelphiStringValue
p562
(dp563
g376
S'Rotation increment between &frames (degrees)'
p564
sbsbsg358
(i__main__
DelphiIdentAccess
p565
(dp566
g361
S'incrementLabel'
p567
sg363
(lp568
(idelphi
DelphiFieldEndAccess
p569
(dp570
g367
S'caption'
p571
sbasbsba(i__main__
DelphiAssignStatement
p572
(dp573
g357
(i__main__
DelphiIdentAccess
p574
(dp575
g361
S'options'
p576
sg363
(lp577
(idelphi
DelphiFieldEndAccess
p578
(dp579
g367
S'xRotationIncrement'
p580
sbasbsg358
(i__main__
DelphiIdentAccess
p581
(dp582
g361
S'incrementEdit'
p583
sg363
(lp584
(idelphi
DelphiFieldEndAccess
p585
(dp586
g367
S'value'
p587
sbasbsbasbsg412
(idelphi
DelphiCompoundStatement
p588
(dp589
g353
(lp590
(i__main__
DelphiAssignStatement
p591
(dp592
g357
(idelphi
DelphiStringAccess
p593
(dp594
g363
(lp595
sg376
(idelphi
DelphiStringValue
p596
(dp597
g376
S'Age increment between &frames (days)'
p598
sbsbsg358
(i__main__
DelphiIdentAccess
p599
(dp600
g361
S'incrementLabel'
p601
sg363
(lp602
(idelphi
DelphiFieldEndAccess
p603
(dp604
g367
S'caption'
p605
sbasbsba(i__main__
DelphiAssignStatement
p606
(dp607
g357
(i__main__
DelphiIdentAccess
p608
(dp609
g361
S'options'
p610
sg363
(lp611
(idelphi
DelphiFieldEndAccess
p612
(dp613
g367
S'ageIncrement'
p614
sbasbsg358
(i__main__
DelphiIdentAccess
p615
(dp616
g361
S'incrementEdit'
p617
sg363
(lp618
(idelphi
DelphiFieldEndAccess
p619
(dp620
g367
S'value'
p621
sbasbsbasbsba(i__main__
DelphiAssignStatement
p622
(dp623
g357
(i__main__
DelphiIdentAccess
p624
(dp625
g361
S'false'
p626
sg363
(lp627
sbsg358
(i__main__
DelphiIdentAccess
p628
(dp629
g361
S'internalChange'
p630
sg363
(lp631
sbsbasbsg380
(lp632
sbsbsS'incrementeditchange'
p633
(i__main__
DelphiMethodImplementation
p634
(dp635
g326
g126
sg59
g128
sg67
(lp636
(i__main__
DelphiFormalParameter
p637
(dp638
g71
Nsg72
(lp639
S'Sender'
p640
asg75
(i__main__
DelphiNamedType
p641
(dp642
g78
S'TObject'
p643
sg80
g1
sg81
Nsbsg82
Nsbasg335
(lp644
sg337
(lp645
sg339
(lp646
g341
ag640
asg342
(dp647
g640
g641
ssg83
S'TAnimationFilesOptionsForm'
p648
sg84
Nsg345
(lp649
sg85
I0
sg86
g87
sg347
(i__main__
DelphiBlock
p650
(dp651
g350
(idelphi
DelphiCompoundStatement
p652
(dp653
g353
(lp654
(idelphi
DelphiIfStatement
p655
(dp656
g406
(i__main__
DelphiIdentAccess
p657
(dp658
g361
S'internalChange'
p659
sg363
(lp660
sbsg411
Nsg412
(i__main__
DelphiExitStatement
p661
(dp662
g415
g634
sbsba(idelphi
DelphiIfStatement
p663
(dp664
g406
(i__main__
DelphiIdentAccess
p665
(dp666
g361
S'animateByAge'
p667
sg363
(lp668
(idelphi
DelphiFieldEndAccess
p669
(dp670
g367
S'checked'
p671
sbasbsg411
(i__main__
DelphiAssignStatement
p672
(dp673
g357
(i__main__
DelphiIdentAccess
p674
(dp675
g361
S'options'
p676
sg363
(lp677
(idelphi
DelphiFieldEndAccess
p678
(dp679
g367
S'xRotationIncrement'
p680
sbasbsg358
(i__main__
DelphiIdentAccess
p681
(dp682
g361
S'oldValue'
p683
sg363
(lp684
sbsbsg412
(i__main__
DelphiAssignStatement
p685
(dp686
g357
(i__main__
DelphiIdentAccess
p687
(dp688
g361
S'options'
p689
sg363
(lp690
(idelphi
DelphiFieldEndAccess
p691
(dp692
g367
S'ageIncrement'
p693
sbasbsg358
(i__main__
DelphiIdentAccess
p694
(dp695
g361
S'oldValue'
p696
sg363
(lp697
sbsbsba(idelphi
DelphiTryExceptStatement
p698
(dp699
S'tryStatements'
p700
(lp701
(idelphi
DelphiIfStatement
p702
(dp703
g406
(i__main__
DelphiIdentAccess
p704
(dp705
g361
S'animateByAge'
p706
sg363
(lp707
(idelphi
DelphiFieldEndAccess
p708
(dp709
g367
S'checked'
p710
sbasbsg411
(i__main__
DelphiAssignStatement
p711
(dp712
g357
(i__main__
DelphiIdentAccess
p713
(dp714
g361
S'incrementEdit'
p715
sg363
(lp716
(idelphi
DelphiFieldEndAccess
p717
(dp718
g367
S'value'
p719
sbasbsg358
(i__main__
DelphiIdentAccess
p720
(dp721
g361
S'options'
p722
sg363
(lp723
(idelphi
DelphiFieldEndAccess
p724
(dp725
g367
S'xRotationIncrement'
p726
sbasbsbsg412
(i__main__
DelphiAssignStatement
p727
(dp728
g357
(i__main__
DelphiIdentAccess
p729
(dp730
g361
S'incrementEdit'
p731
sg363
(lp732
(idelphi
DelphiFieldEndAccess
p733
(dp734
g367
S'value'
p735
sbasbsg358
(i__main__
DelphiIdentAccess
p736
(dp737
g361
S'options'
p738
sg363
(lp739
(idelphi
DelphiFieldEndAccess
p740
(dp741
g367
S'ageIncrement'
p742
sbasbsbsbasS'exceptionHandlers'
p743
(idelphi
DelphiExceptionHandlers
p744
(dp745
S'exceptionHandlerList'
p746
NsS'statementList'
p747
(lp748
(idelphi
DelphiIfStatement
p749
(dp750
g406
(i__main__
DelphiIdentAccess
p751
(dp752
g361
S'animateByAge'
p753
sg363
(lp754
(idelphi
DelphiFieldEndAccess
p755
(dp756
g367
S'checked'
p757
sbasbsg411
(i__main__
DelphiAssignStatement
p758
(dp759
g357
(i__main__
DelphiIdentAccess
p760
(dp761
g361
S'oldValue'
p762
sg363
(lp763
sbsg358
(i__main__
DelphiIdentAccess
p764
(dp765
g361
S'options'
p766
sg363
(lp767
(idelphi
DelphiFieldEndAccess
p768
(dp769
g367
S'xRotationIncrement'
p770
sbasbsbsg412
(i__main__
DelphiAssignStatement
p771
(dp772
g357
(i__main__
DelphiIdentAccess
p773
(dp774
g361
S'oldValue'
p775
sg363
(lp776
sbsg358
(i__main__
DelphiIdentAccess
p777
(dp778
g361
S'options'
p779
sg363
(lp780
(idelphi
DelphiFieldEndAccess
p781
(dp782
g367
S'ageIncrement'
p783
sbasbsbsbasbsba(i__main__
DelphiAssignStatement
p784
(dp785
g357
Nsg358
(i__main__
DelphiIdentAccess
p786
(dp787
g361
S'self'
p788
sg363
(lp789
(idelphi
DelphiFieldEndAccess
p790
(dp791
g367
S'calculateNumberOfFrames'
p792
sbasbsbasbsg380
(lp793
(i__main__
DelphiVarSection
p794
(dp795
S'atTopLevel'
p796
I0
sS'varDeclList'
p797
(lp798
(idelphi
DelphiVarDecl
p799
(dp800
S'constExpression'
p801
NsS'identList'
p802
(lp803
S'oldValue'
p804
asg75
(i__main__
DelphiPrimitiveType
p805
(dp806
g78
S'smallint'
p807
sbsbasbasbsbsS'calculatenumberofframes'
p808
(i__main__
DelphiMethodImplementation
p809
(dp810
g326
g138
sg59
g140
sg67
(lp811
sg335
(lp812
sg337
(lp813
sg339
(lp814
g341
asg342
(dp815
sg83
S'TAnimationFilesOptionsForm'
p816
sg84
Nsg345
(lp817
sg85
I0
sg86
g87
sg347
(i__main__
DelphiBlock
p818
(dp819
g350
(idelphi
DelphiCompoundStatement
p820
(dp821
g353
(lp822
(idelphi
DelphiIfStatement
p823
(dp824
g406
(idelphi
DelphiRelOp
p825
(dp826
S'simpleExpression1'
p827
(i__main__
DelphiIdentAccess
p828
(dp829
g361
S'options'
p830
sg363
(lp831
(idelphi
DelphiFieldEndAccess
p832
(dp833
g367
S'animateBy'
p834
sbasbsS'simpleExpression2'
p835
(i__main__
DelphiIdentAccess
p836
(dp837
g361
S'kAnimateByAge'
p838
sg363
(lp839
sbsS'relOp'
p840
S'='
sbsg411
(idelphi
DelphiIfStatement
p841
(dp842
g406
(idelphi
DelphiRelOp
p843
(dp844
g827
(i__main__
DelphiIdentAccess
p845
(dp846
g361
S'options'
p847
sg363
(lp848
(idelphi
DelphiFieldEndAccess
p849
(dp850
g367
S'animateBy'
p851
sbasbsg835
(i__main__
DelphiIdentAccess
p852
(dp853
g361
S'kAnimateByXRotation'
p854
sg363
(lp855
sbsg840
S'='
sbsg411
Nsg412
(idelphi
DelphiCompoundStatement
p856
(dp857
g353
(lp858
(i__main__
DelphiAssignStatement
p859
(dp860
g357
(i__main__
DelphiIdentAccess
p861
(dp862
g361
S'false'
p863
sg363
(lp864
sbsg358
(i__main__
DelphiIdentAccess
p865
(dp866
g361
S'plantMaxAgeLabel'
p867
sg363
(lp868
(idelphi
DelphiFieldEndAccess
p869
(dp870
g367
S'visible'
p871
sbasbsba(i__main__
DelphiAssignStatement
p872
(dp873
g357
(idelphi
DelphiMulOp
p874
(dp875
S'signedFactor2'
p876
(i__main__
DelphiIdentAccess
p877
(dp878
g361
S'abs'
p879
sg363
(lp880
(idelphi
DelphiFunctionEndAccess
p881
(dp882
g371
(lp883
(i__main__
DelphiIdentAccess
p884
(dp885
g361
S'options'
p886
sg363
(lp887
(idelphi
DelphiFieldEndAccess
p888
(dp889
g367
S'xRotationIncrement'
p890
sbasbasbasbsS'mulOp'
p891
S'div'
p892
sS'signedFactor1'
p893
(idelphi
DelphiIntegerValue
p894
(dp895
g376
S'360'
p896
sbsbsg358
(i__main__
DelphiIdentAccess
p897
(dp898
g361
S'options'
p899
sg363
(lp900
(idelphi
DelphiFieldEndAccess
p901
(dp902
g367
S'frameCount'
p903
sbasbsbasbsbsg412
(idelphi
DelphiCompoundStatement
p904
(dp905
g353
(lp906
(i__main__
DelphiAssignStatement
p907
(dp908
g357
(idelphi
DelphiAddOp
p909
(dp910
S'addOp'
p911
S'+'
sS'term2'
p912
(i__main__
DelphiIdentAccess
p913
(dp914
g361
S'intToStr'
p915
sg363
(lp916
(idelphi
DelphiFunctionEndAccess
p917
(dp918
g371
(lp919
(i__main__
DelphiIdentAccess
p920
(dp921
g361
S'plant'
p922
sg363
(lp923
(idelphi
DelphiFieldEndAccess
p924
(dp925
g367
S'pGeneral'
p926
sba(idelphi
DelphiFieldEndAccess
p927
(dp928
g367
S'ageAtMaturity'
p929
sbasbasbasbsS'term1'
p930
(idelphi
DelphiStringAccess
p931
(dp932
g363
(lp933
sg376
(idelphi
DelphiStringValue
p934
(dp935
g376
S'Maximum age = '
p936
sbsbsbsg358
(i__main__
DelphiIdentAccess
p937
(dp938
g361
S'plantMaxAgeLabel'
p939
sg363
(lp940
(idelphi
DelphiFieldEndAccess
p941
(dp942
g367
S'caption'
p943
sbasbsba(i__main__
DelphiAssignStatement
p944
(dp945
g357
(i__main__
DelphiIdentAccess
p946
(dp947
g361
S'true'
p948
sg363
(lp949
sbsg358
(i__main__
DelphiIdentAccess
p950
(dp951
g361
S'plantMaxAgeLabel'
p952
sg363
(lp953
(idelphi
DelphiFieldEndAccess
p954
(dp955
g367
S'visible'
p956
sbasbsba(i__main__
DelphiAssignStatement
p957
(dp958
g357
(idelphi
DelphiAddOp
p959
(dp960
g911
S'+'
sg912
(idelphi
DelphiIntegerValue
p961
(dp962
g376
S'1'
sbsg930
(idelphi
DelphiMulOp
p963
(dp964
g876
(i__main__
DelphiIdentAccess
p965
(dp966
g361
S'options'
p967
sg363
(lp968
(idelphi
DelphiFieldEndAccess
p969
(dp970
g367
S'ageIncrement'
p971
sbasbsg891
g892
sg893
(i__main__
DelphiIdentAccess
p972
(dp973
g361
S'plant'
p974
sg363
(lp975
(idelphi
DelphiFieldEndAccess
p976
(dp977
g367
S'pGeneral'
p978
sba(idelphi
DelphiFieldEndAccess
p979
(dp980
g367
S'ageAtMaturity'
p981
sbasbsbsbsg358
(i__main__
DelphiIdentAccess
p982
(dp983
g361
S'options'
p984
sg363
(lp985
(idelphi
DelphiFieldEndAccess
p986
(dp987
g367
S'frameCount'
p988
sbasbsbasbsba(i__main__
DelphiAssignStatement
p989
(dp990
g357
(idelphi
DelphiAddOp
p991
(dp992
g911
S'+'
sg912
(i__main__
DelphiIdentAccess
p993
(dp994
g361
S'intToStr'
p995
sg363
(lp996
(idelphi
DelphiFunctionEndAccess
p997
(dp998
g371
(lp999
(i__main__
DelphiIdentAccess
p1000
(dp1001
g361
S'options'
p1002
sg363
(lp1003
(idelphi
DelphiFieldEndAccess
p1004
(dp1005
g367
S'frameCount'
p1006
sbasbasbasbsg930
(idelphi
DelphiStringAccess
p1007
(dp1008
g363
(lp1009
sg376
(idelphi
DelphiStringValue
p1010
(dp1011
g376
S'Number of files:  '
p1012
sbsbsbsg358
(i__main__
DelphiIdentAccess
p1013
(dp1014
g361
S'fileNumberLabel'
p1015
sg363
(lp1016
(idelphi
DelphiFieldEndAccess
p1017
(dp1018
g367
S'caption'
p1019
sbasbsba(i__main__
DelphiAssignStatement
p1020
(dp1021
g357
(i__main__
DelphiIdentAccess
p1022
(dp1023
g361
S'safedivExcept'
p1024
sg363
(lp1025
(idelphi
DelphiFunctionEndAccess
p1026
(dp1027
g371
(lp1028
(idelphi
DelphiMulOp
p1029
(dp1030
g876
(i__main__
DelphiIdentAccess
p1031
(dp1032
g361
S'options'
p1033
sg363
(lp1034
(idelphi
DelphiFieldEndAccess
p1035
(dp1036
g367
S'resolution_pixelsPerInch'
p1037
sbasbsg891
S'*'
sg893
(idelphi
DelphiRealValue
p1038
(dp1039
g376
S'1.0'
p1040
sbsba(idelphi
DelphiMulOp
p1041
(dp1042
g876
(i__main__
DelphiIdentAccess
p1043
(dp1044
g361
S'Screen'
p1045
sg363
(lp1046
(idelphi
DelphiFieldEndAccess
p1047
(dp1048
g367
S'pixelsPerInch'
p1049
sbasbsg891
S'*'
sg893
(idelphi
DelphiRealValue
p1050
(dp1051
g376
S'1.0'
p1052
sbsba(idelphi
DelphiRealValue
p1053
(dp1054
g376
S'1.0'
p1055
sbasbasbsg358
(i__main__
DelphiIdentAccess
p1056
(dp1057
g361
S'scaleMultiplier'
p1058
sg363
(lp1059
sbsba(i__main__
DelphiAssignStatement
p1060
(dp1061
g357
(i__main__
DelphiIdentAccess
p1062
(dp1063
g361
S'Point'
p1064
sg363
(lp1065
(idelphi
DelphiFunctionEndAccess
p1066
(dp1067
g371
(lp1068
(i__main__
DelphiIdentAccess
p1069
(dp1070
g361
S'round'
p1071
sg363
(lp1072
(idelphi
DelphiFunctionEndAccess
p1073
(dp1074
g371
(lp1075
(idelphi
DelphiMulOp
p1076
(dp1077
g876
(i__main__
DelphiIdentAccess
p1078
(dp1079
g361
S'scaleMultiplier'
p1080
sg363
(lp1081
sbsg891
S'*'
sg893
(i__main__
DelphiIdentAccess
p1082
(dp1083
g361
S'rWidth'
p1084
sg363
(lp1085
(idelphi
DelphiFunctionEndAccess
p1086
(dp1087
g371
(lp1088
(i__main__
DelphiIdentAccess
p1089
(dp1090
g361
S'plant'
p1091
sg363
(lp1092
(idelphi
DelphiFieldEndAccess
p1093
(dp1094
g367
S'boundsRect_pixels'
p1095
sbasbasbasbsbasbasba(i__main__
DelphiIdentAccess
p1096
(dp1097
g361
S'round'
p1098
sg363
(lp1099
(idelphi
DelphiFunctionEndAccess
p1100
(dp1101
g371
(lp1102
(idelphi
DelphiMulOp
p1103
(dp1104
g876
(i__main__
DelphiIdentAccess
p1105
(dp1106
g361
S'scaleMultiplier'
p1107
sg363
(lp1108
sbsg891
S'*'
sg893
(i__main__
DelphiIdentAccess
p1109
(dp1110
g361
S'rHeight'
p1111
sg363
(lp1112
(idelphi
DelphiFunctionEndAccess
p1113
(dp1114
g371
(lp1115
(i__main__
DelphiIdentAccess
p1116
(dp1117
g361
S'plant'
p1118
sg363
(lp1119
(idelphi
DelphiFieldEndAccess
p1120
(dp1121
g367
S'boundsRect_pixels'
p1122
sbasbasbasbsbasbasbasbasbsg358
(i__main__
DelphiIdentAccess
p1123
(dp1124
g361
S'options'
p1125
sg363
(lp1126
(idelphi
DelphiFieldEndAccess
p1127
(dp1128
g367
S'scaledSize'
p1129
sbasbsba(i__main__
DelphiAssignStatement
p1130
(dp1131
g357
(idelphi
DelphiAddOp
p1132
(dp1133
g911
S'+'
sg912
(i__main__
DelphiIdentAccess
p1134
(dp1135
g361
S'intToStr'
p1136
sg363
(lp1137
(idelphi
DelphiFunctionEndAccess
p1138
(dp1139
g371
(lp1140
(i__main__
DelphiIdentAccess
p1141
(dp1142
g361
S'options'
p1143
sg363
(lp1144
(idelphi
DelphiFieldEndAccess
p1145
(dp1146
g367
S'scaledSize'
p1147
sba(idelphi
DelphiFieldEndAccess
p1148
(dp1149
g367
S'y'
sbasbasbasbsg930
(idelphi
DelphiAddOp
p1150
(dp1151
g911
S'+'
sg912
(idelphi
DelphiStringAccess
p1152
(dp1153
g363
(lp1154
sg376
(idelphi
DelphiStringValue
p1155
(dp1156
g376
S' x '
p1157
sbsbsg930
(idelphi
DelphiAddOp
p1158
(dp1159
g911
S'+'
sg912
(i__main__
DelphiIdentAccess
p1160
(dp1161
g361
S'intToStr'
p1162
sg363
(lp1163
(idelphi
DelphiFunctionEndAccess
p1164
(dp1165
g371
(lp1166
(i__main__
DelphiIdentAccess
p1167
(dp1168
g361
S'options'
p1169
sg363
(lp1170
(idelphi
DelphiFieldEndAccess
p1171
(dp1172
g367
S'scaledSize'
p1173
sba(idelphi
DelphiFieldEndAccess
p1174
(dp1175
g367
S'x'
sbasbasbasbsg930
(idelphi
DelphiStringAccess
p1176
(dp1177
g363
(lp1178
sg376
(idelphi
DelphiStringValue
p1179
(dp1180
g376
S'Animation size:  '
p1181
sbsbsbsbsbsg358
(i__main__
DelphiIdentAccess
p1182
(dp1183
g361
S'animationSizeLabel'
p1184
sg363
(lp1185
(idelphi
DelphiFieldEndAccess
p1186
(dp1187
g367
S'caption'
p1188
sbasbsba(i__main__
DelphiAssignStatement
p1189
(dp1190
g357
(idelphi
DelphiAddOp
p1191
(dp1192
g911
S'+'
sg912
(idelphi
DelphiSizeof
p1193
(dp1194
g801
(i__main__
DelphiIdentAccess
p1195
(dp1196
g361
S'TBitmapInfo'
p1197
sg363
(lp1198
sbsbsg930
(i__main__
DelphiIdentAccess
p1199
(dp1200
g361
S'round'
p1201
sg363
(lp1202
(idelphi
DelphiFunctionEndAccess
p1203
(dp1204
g371
(lp1205
(idelphi
DelphiMulOp
p1206
(dp1207
g876
(idelphi
DelphiRealValue
p1208
(dp1209
g376
S'8.0'
p1210
sbsg891
S'/'
sg893
(idelphi
DelphiMulOp
p1211
(dp1212
g876
(i__main__
DelphiIdentAccess
p1213
(dp1214
g361
S'bitsPerPixelForColorType'
p1215
sg363
(lp1216
(idelphi
DelphiFunctionEndAccess
p1217
(dp1218
g371
(lp1219
(i__main__
DelphiIdentAccess
p1220
(dp1221
g361
S'options'
p1222
sg363
(lp1223
(idelphi
DelphiFieldEndAccess
p1224
(dp1225
g367
S'colorType'
p1226
sbasbasbasbsg891
S'*'
sg893
(idelphi
DelphiMulOp
p1227
(dp1228
g876
(i__main__
DelphiIdentAccess
p1229
(dp1230
g361
S'options'
p1231
sg363
(lp1232
(idelphi
DelphiFieldEndAccess
p1233
(dp1234
g367
S'scaledSize'
p1235
sba(idelphi
DelphiFieldEndAccess
p1236
(dp1237
g367
S'y'
sbasbsg891
S'*'
sg893
(idelphi
DelphiMulOp
p1238
(dp1239
g876
(i__main__
DelphiIdentAccess
p1240
(dp1241
g361
S'options'
p1242
sg363
(lp1243
(idelphi
DelphiFieldEndAccess
p1244
(dp1245
g367
S'scaledSize'
p1246
sba(idelphi
DelphiFieldEndAccess
p1247
(dp1248
g367
S'x'
sbasbsg891
S'*'
sg893
(i__main__
DelphiIdentAccess
p1249
(dp1250
g361
S'options'
p1251
sg363
(lp1252
(idelphi
DelphiFieldEndAccess
p1253
(dp1254
g367
S'frameCount'
p1255
sbasbsbsbsbsbasbasbsbsg358
(i__main__
DelphiIdentAccess
p1256
(dp1257
g361
S'options'
p1258
sg363
(lp1259
(idelphi
DelphiFieldEndAccess
p1260
(dp1261
g367
S'fileSize'
p1262
sbasbsba(idelphi
DelphiIfStatement
p1263
(dp1264
g406
(idelphi
DelphiRelOp
p1265
(dp1266
g827
(i__main__
DelphiIdentAccess
p1267
(dp1268
g361
S'options'
p1269
sg363
(lp1270
(idelphi
DelphiFieldEndAccess
p1271
(dp1272
g367
S'fileSize'
p1273
sbasbsg835
(idelphi
DelphiIntegerValue
p1274
(dp1275
g376
S'1024'
p1276
sbsg840
S'<'
sbsg411
(idelphi
DelphiIfStatement
p1277
(dp1278
g406
(idelphi
DelphiRelOp
p1279
(dp1280
g827
(i__main__
DelphiIdentAccess
p1281
(dp1282
g361
S'options'
p1283
sg363
(lp1284
(idelphi
DelphiFieldEndAccess
p1285
(dp1286
g367
S'fileSize'
p1287
sbasbsg835
(idelphi
DelphiMulOp
p1288
(dp1289
g876
(idelphi
DelphiIntegerValue
p1290
(dp1291
g376
S'1024'
p1292
sbsg891
S'*'
sg893
(idelphi
DelphiIntegerValue
p1293
(dp1294
g376
S'1024'
p1295
sbsbsg840
S'<'
sbsg411
(i__main__
DelphiAssignStatement
p1296
(dp1297
g357
(idelphi
DelphiAddOp
p1298
(dp1299
g911
S'+'
sg912
(idelphi
DelphiStringAccess
p1300
(dp1301
g363
(lp1302
sg376
(idelphi
DelphiStringValue
p1303
(dp1304
g376
S' MB'
p1305
sbsbsg930
(idelphi
DelphiAddOp
p1306
(dp1307
g911
S'+'
sg912
(i__main__
DelphiIdentAccess
p1308
(dp1309
g361
S'floatToStrF'
p1310
sg363
(lp1311
(idelphi
DelphiFunctionEndAccess
p1312
(dp1313
g371
(lp1314
(idelphi
DelphiMulOp
p1315
(dp1316
g876
(idelphi
DelphiNestedExpressionListAccess
p1317
(dp1318
g363
(lp1319
sg371
(lp1320
(idelphi
DelphiMulOp
p1321
(dp1322
g876
(idelphi
DelphiIntegerValue
p1323
(dp1324
g376
S'1024'
p1325
sbsg891
S'*'
sg893
(idelphi
DelphiIntegerValue
p1326
(dp1327
g376
S'1024'
p1328
sbsbasbsg891
S'/'
sg893
(i__main__
DelphiIdentAccess
p1329
(dp1330
g361
S'options'
p1331
sg363
(lp1332
(idelphi
DelphiFieldEndAccess
p1333
(dp1334
g367
S'fileSize'
p1335
sbasbsba(i__main__
DelphiIdentAccess
p1336
(dp1337
g361
S'ffFixed'
p1338
sg363
(lp1339
sba(idelphi
DelphiIntegerValue
p1340
(dp1341
g376
S'7'
sba(idelphi
DelphiIntegerValue
p1342
(dp1343
g376
S'1'
sbasbasbsg930
(idelphi
DelphiStringAccess
p1344
(dp1345
g363
(lp1346
sg376
(idelphi
DelphiStringValue
p1347
(dp1348
g376
S'Estimated total size:  '
p1349
sbsbsbsbsg358
(i__main__
DelphiIdentAccess
p1350
(dp1351
g361
S'fileSizeLabel'
p1352
sg363
(lp1353
(idelphi
DelphiFieldEndAccess
p1354
(dp1355
g367
S'caption'
p1356
sbasbsbsg412
(i__main__
DelphiAssignStatement
p1357
(dp1358
g357
(idelphi
DelphiAddOp
p1359
(dp1360
g911
S'+'
sg912
(idelphi
DelphiStringAccess
p1361
(dp1362
g363
(lp1363
sg376
(idelphi
DelphiStringValue
p1364
(dp1365
g376
S' KB'
p1366
sbsbsg930
(idelphi
DelphiAddOp
p1367
(dp1368
g911
S'+'
sg912
(i__main__
DelphiIdentAccess
p1369
(dp1370
g361
S'intToStr'
p1371
sg363
(lp1372
(idelphi
DelphiFunctionEndAccess
p1373
(dp1374
g371
(lp1375
(idelphi
DelphiMulOp
p1376
(dp1377
g876
(idelphi
DelphiIntegerValue
p1378
(dp1379
g376
S'1024'
p1380
sbsg891
g892
sg893
(i__main__
DelphiIdentAccess
p1381
(dp1382
g361
S'options'
p1383
sg363
(lp1384
(idelphi
DelphiFieldEndAccess
p1385
(dp1386
g367
S'fileSize'
p1387
sbasbsbasbasbsg930
(idelphi
DelphiStringAccess
p1388
(dp1389
g363
(lp1390
sg376
(idelphi
DelphiStringValue
p1391
(dp1392
g376
S'Estimated total size:  '
p1393
sbsbsbsbsg358
(i__main__
DelphiIdentAccess
p1394
(dp1395
g361
S'fileSizeLabel'
p1396
sg363
(lp1397
(idelphi
DelphiFieldEndAccess
p1398
(dp1399
g367
S'caption'
p1400
sbasbsbsbsg412
(i__main__
DelphiAssignStatement
p1401
(dp1402
g357
(idelphi
DelphiAddOp
p1403
(dp1404
g911
S'+'
sg912
(idelphi
DelphiStringAccess
p1405
(dp1406
g363
(lp1407
sg376
(idelphi
DelphiStringValue
p1408
(dp1409
g376
S' bytes'
p1410
sbsbsg930
(idelphi
DelphiAddOp
p1411
(dp1412
g911
S'+'
sg912
(i__main__
DelphiIdentAccess
p1413
(dp1414
g361
S'intToStr'
p1415
sg363
(lp1416
(idelphi
DelphiFunctionEndAccess
p1417
(dp1418
g371
(lp1419
(i__main__
DelphiIdentAccess
p1420
(dp1421
g361
S'options'
p1422
sg363
(lp1423
(idelphi
DelphiFieldEndAccess
p1424
(dp1425
g367
S'fileSize'
p1426
sbasbasbasbsg930
(idelphi
DelphiStringAccess
p1427
(dp1428
g363
(lp1429
sg376
(idelphi
DelphiStringValue
p1430
(dp1431
g376
S'Estimated total size:  '
p1432
sbsbsbsbsg358
(i__main__
DelphiIdentAccess
p1433
(dp1434
g361
S'fileSizeLabel'
p1435
sg363
(lp1436
(idelphi
DelphiFieldEndAccess
p1437
(dp1438
g367
S'caption'
p1439
sbasbsbsba(idelphi
DelphiIfStatement
p1440
(dp1441
g406
(idelphi
DelphiRelOp
p1442
(dp1443
g827
(i__main__
DelphiIdentAccess
p1444
(dp1445
g361
S'options'
p1446
sg363
(lp1447
(idelphi
DelphiFieldEndAccess
p1448
(dp1449
g367
S'fileSize'
p1450
sbasbsg835
(idelphi
DelphiMulOp
p1451
(dp1452
g876
(idelphi
DelphiIntegerValue
p1453
(dp1454
g376
S'1024'
p1455
sbsg891
S'*'
sg893
(idelphi
DelphiMulOp
p1456
(dp1457
g876
(idelphi
DelphiIntegerValue
p1458
(dp1459
g376
S'1024'
p1460
sbsg891
S'*'
sg893
(idelphi
DelphiRealValue
p1461
(dp1462
g376
S'10.0'
p1463
sbsbsbsg840
S'>='
p1464
sbsg411
(i__main__
DelphiAssignStatement
p1465
(dp1466
g357
(idelphi
DelphiSetConstructor
p1467
(dp1468
S'setElementList'
p1469
(lp1470
sbsg358
(i__main__
DelphiIdentAccess
p1471
(dp1472
g361
S'fileSizeLabel'
p1473
sg363
(lp1474
(idelphi
DelphiFieldEndAccess
p1475
(dp1476
g367
S'font'
p1477
sba(idelphi
DelphiFieldEndAccess
p1478
(dp1479
g367
S'style'
p1480
sbasbsbsg412
(i__main__
DelphiAssignStatement
p1481
(dp1482
g357
(idelphi
DelphiSetConstructor
p1483
(dp1484
g1469
(lp1485
(i__main__
DelphiIdentAccess
p1486
(dp1487
g361
S'fsBold'
p1488
sg363
(lp1489
sbasbsg358
(i__main__
DelphiIdentAccess
p1490
(dp1491
g361
S'fileSizeLabel'
p1492
sg363
(lp1493
(idelphi
DelphiFieldEndAccess
p1494
(dp1495
g367
S'font'
p1496
sba(idelphi
DelphiFieldEndAccess
p1497
(dp1498
g367
S'style'
p1499
sbasbsbsbasbsg380
(lp1500
(i__main__
DelphiVarSection
p1501
(dp1502
g796
I0
sg797
(lp1503
(idelphi
DelphiVarDecl
p1504
(dp1505
g801
Nsg802
(lp1506
S'scaleMultiplier'
p1507
asg75
(i__main__
DelphiPrimitiveType
p1508
(dp1509
g78
S'single'
p1510
sbsbasbasbsbsS'resolutionchange'
p1511
(i__main__
DelphiMethodImplementation
p1512
(dp1513
g326
g143
sg59
g145
sg67
(lp1514
(i__main__
DelphiFormalParameter
p1515
(dp1516
g71
Nsg72
(lp1517
S'Sender'
p1518
asg75
(i__main__
DelphiNamedType
p1519
(dp1520
g78
S'TObject'
p1521
sg80
g1
sg81
Nsbsg82
Nsbasg335
(lp1522
sg337
(lp1523
sg339
(lp1524
g341
ag1518
asg342
(dp1525
g1518
g1519
ssg83
S'TAnimationFilesOptionsForm'
p1526
sg84
Nsg345
(lp1527
sg85
I0
sg86
g87
sg347
(i__main__
DelphiBlock
p1528
(dp1529
g350
(idelphi
DelphiCompoundStatement
p1530
(dp1531
g353
(lp1532
(idelphi
DelphiIfStatement
p1533
(dp1534
g406
(i__main__
DelphiIdentAccess
p1535
(dp1536
g361
S'internalChange'
p1537
sg363
(lp1538
sbsg411
Nsg412
(i__main__
DelphiExitStatement
p1539
(dp1540
g415
g1512
sbsba(i__main__
DelphiAssignStatement
p1541
(dp1542
g357
(i__main__
DelphiIdentAccess
p1543
(dp1544
g361
S'options'
p1545
sg363
(lp1546
(idelphi
DelphiFieldEndAccess
p1547
(dp1548
g367
S'resolution_pixelsPerInch'
p1549
sbasbsg358
(i__main__
DelphiIdentAccess
p1550
(dp1551
g361
S'oldValue'
p1552
sg363
(lp1553
sbsba(idelphi
DelphiTryExceptStatement
p1554
(dp1555
g700
(lp1556
(i__main__
DelphiAssignStatement
p1557
(dp1558
g357
(i__main__
DelphiIdentAccess
p1559
(dp1560
g361
S'resolution'
p1561
sg363
(lp1562
(idelphi
DelphiFieldEndAccess
p1563
(dp1564
g367
S'value'
p1565
sbasbsg358
(i__main__
DelphiIdentAccess
p1566
(dp1567
g361
S'options'
p1568
sg363
(lp1569
(idelphi
DelphiFieldEndAccess
p1570
(dp1571
g367
S'resolution_pixelsPerInch'
p1572
sbasbsbasg743
(idelphi
DelphiExceptionHandlers
p1573
(dp1574
g746
Nsg747
(lp1575
(i__main__
DelphiAssignStatement
p1576
(dp1577
g357
(i__main__
DelphiIdentAccess
p1578
(dp1579
g361
S'oldValue'
p1580
sg363
(lp1581
sbsg358
(i__main__
DelphiIdentAccess
p1582
(dp1583
g361
S'options'
p1584
sg363
(lp1585
(idelphi
DelphiFieldEndAccess
p1586
(dp1587
g367
S'resolution_pixelsPerInch'
p1588
sbasbsbasbsba(i__main__
DelphiAssignStatement
p1589
(dp1590
g357
Nsg358
(i__main__
DelphiIdentAccess
p1591
(dp1592
g361
S'self'
p1593
sg363
(lp1594
(idelphi
DelphiFieldEndAccess
p1595
(dp1596
g367
S'calculateNumberOfFrames'
p1597
sbasbsbasbsg380
(lp1598
(i__main__
DelphiVarSection
p1599
(dp1600
g796
I0
sg797
(lp1601
(idelphi
DelphiVarDecl
p1602
(dp1603
g801
Nsg802
(lp1604
S'oldValue'
p1605
asg75
(i__main__
DelphiPrimitiveType
p1606
(dp1607
g78
g807
sbsbasbasbsbsS'initializewithoptionsandplant'
p1608
(i__main__
DelphiMethodImplementation
p1609
(dp1610
g326
g155
sg59
g157
sg67
(lp1611
(i__main__
DelphiFormalParameter
p1612
(dp1613
g71
Nsg72
(lp1614
S'anOptions'
p1615
asg75
(i__main__
DelphiNamedType
p1616
(dp1617
g78
S'NumberedAnimationOptionsStructure'
p1618
sg80
g1
sg81
Nsbsg82
Nsba(i__main__
DelphiFormalParameter
p1619
(dp1620
g71
Nsg72
(lp1621
S'aPlant'
p1622
asg75
(i__main__
DelphiNamedType
p1623
(dp1624
g78
S'PdPlant'
p1625
sg80
g1
sg81
Nsbsg82
Nsbasg335
(lp1626
sg337
(lp1627
sg339
(lp1628
g341
ag1615
ag1622
asg342
(dp1629
g1615
g1616
sg1622
g1623
ssg83
S'TAnimationFilesOptionsForm'
p1630
sg84
Nsg345
(lp1631
sg85
I0
sg86
g87
sg347
(i__main__
DelphiBlock
p1632
(dp1633
g350
(idelphi
DelphiCompoundStatement
p1634
(dp1635
g353
(lp1636
(i__main__
DelphiAssignStatement
p1637
(dp1638
g357
(i__main__
DelphiIdentAccess
p1639
(dp1640
g361
S'true'
p1641
sg363
(lp1642
sbsg358
(i__main__
DelphiIdentAccess
p1643
(dp1644
g361
S'internalChange'
p1645
sg363
(lp1646
sbsba(idelphi
DelphiIfStatement
p1647
(dp1648
g406
(idelphi
DelphiRelOp
p1649
(dp1650
g827
(i__main__
DelphiIdentAccess
p1651
(dp1652
g361
S'aPlant'
p1653
sg363
(lp1654
sbsg835
(idelphi
DelphiNilValue
p1655
(dp1656
bsg840
S'='
sbsg411
Nsg412
(idelphi
DelphiRaiseStatement
p1657
(dp1658
g406
(i__main__
DelphiIdentAccess
p1659
(dp1660
g361
S'Exception'
p1661
sg363
(lp1662
(idelphi
DelphiFieldEndAccess
p1663
(dp1664
g367
S'create'
p1665
sba(idelphi
DelphiFunctionEndAccess
p1666
(dp1667
g371
(lp1668
(idelphi
DelphiStringAccess
p1669
(dp1670
g363
(lp1671
sg376
(idelphi
DelphiStringValue
p1672
(dp1673
g376
S'Problem: Nil plant in method TAnimationFilesOptionsForm.initializeWithOptionsAndPlant.'
p1674
sbsbasbasbsbsba(i__main__
DelphiAssignStatement
p1675
(dp1676
g357
(i__main__
DelphiIdentAccess
p1677
(dp1678
g361
S'aPlant'
p1679
sg363
(lp1680
sbsg358
(i__main__
DelphiIdentAccess
p1681
(dp1682
g361
S'plant'
p1683
sg363
(lp1684
sbsba(i__main__
DelphiAssignStatement
p1685
(dp1686
g357
(i__main__
DelphiIdentAccess
p1687
(dp1688
g361
S'anOptions'
p1689
sg363
(lp1690
sbsg358
(i__main__
DelphiIdentAccess
p1691
(dp1692
g361
S'options'
p1693
sg363
(lp1694
sbsba(i__main__
DelphiAssignStatement
p1695
(dp1696
g357
(i__main__
DelphiIdentAccess
p1697
(dp1698
g361
S'plant'
p1699
sg363
(lp1700
(idelphi
DelphiFieldEndAccess
p1701
(dp1702
g367
S'getName'
p1703
sbasbsg358
(i__main__
DelphiIdentAccess
p1704
(dp1705
g361
S'focusedPlantName'
p1706
sg363
(lp1707
(idelphi
DelphiFieldEndAccess
p1708
(dp1709
g367
S'caption'
p1710
sbasbsba(idelphi
DelphiIfStatement
p1711
(dp1712
g406
(idelphi
DelphiRelOp
p1713
(dp1714
g827
(i__main__
DelphiIdentAccess
p1715
(dp1716
g361
S'options'
p1717
sg363
(lp1718
(idelphi
DelphiFieldEndAccess
p1719
(dp1720
g367
S'animateBy'
p1721
sbasbsg835
(i__main__
DelphiIdentAccess
p1722
(dp1723
g361
S'kAnimateByAge'
p1724
sg363
(lp1725
sbsg840
S'='
sbsg411
(idelphi
DelphiIfStatement
p1726
(dp1727
g406
(idelphi
DelphiRelOp
p1728
(dp1729
g827
(i__main__
DelphiIdentAccess
p1730
(dp1731
g361
S'options'
p1732
sg363
(lp1733
(idelphi
DelphiFieldEndAccess
p1734
(dp1735
g367
S'animateBy'
p1736
sbasbsg835
(i__main__
DelphiIdentAccess
p1737
(dp1738
g361
S'kAnimateByXRotation'
p1739
sg363
(lp1740
sbsg840
S'='
sbsg411
Nsg412
(i__main__
DelphiAssignStatement
p1741
(dp1742
g357
(i__main__
DelphiIdentAccess
p1743
(dp1744
g361
S'true'
p1745
sg363
(lp1746
sbsg358
(i__main__
DelphiIdentAccess
p1747
(dp1748
g361
S'animateByXRotation'
p1749
sg363
(lp1750
(idelphi
DelphiFieldEndAccess
p1751
(dp1752
g367
S'checked'
p1753
sbasbsbsbsg412
(i__main__
DelphiAssignStatement
p1754
(dp1755
g357
(i__main__
DelphiIdentAccess
p1756
(dp1757
g361
S'true'
p1758
sg363
(lp1759
sbsg358
(i__main__
DelphiIdentAccess
p1760
(dp1761
g361
S'animateByAge'
p1762
sg363
(lp1763
(idelphi
DelphiFieldEndAccess
p1764
(dp1765
g367
S'checked'
p1766
sbasbsbsba(i__main__
DelphiAssignStatement
p1767
(dp1768
g357
Nsg358
(i__main__
DelphiIdentAccess
p1769
(dp1770
g361
S'self'
p1771
sg363
(lp1772
(idelphi
DelphiFieldEndAccess
p1773
(dp1774
g367
S'changeQuestionsBasedOnAnimationType'
p1775
sbasbsba(i__main__
DelphiAssignStatement
p1776
(dp1777
g357
(i__main__
DelphiIdentAccess
p1778
(dp1779
g361
S'options'
p1780
sg363
(lp1781
(idelphi
DelphiFieldEndAccess
p1782
(dp1783
g367
S'resolution_pixelsPerInch'
p1784
sbasbsg358
(i__main__
DelphiIdentAccess
p1785
(dp1786
g361
S'resolution'
p1787
sg363
(lp1788
(idelphi
DelphiFieldEndAccess
p1789
(dp1790
g367
S'value'
p1791
sbasbsba(i__main__
DelphiAssignStatement
p1792
(dp1793
g357
(i__main__
DelphiIdentAccess
p1794
(dp1795
g361
S'ord'
p1796
sg363
(lp1797
(idelphi
DelphiFunctionEndAccess
p1798
(dp1799
g371
(lp1800
(i__main__
DelphiIdentAccess
p1801
(dp1802
g361
S'options'
p1803
sg363
(lp1804
(idelphi
DelphiFieldEndAccess
p1805
(dp1806
g367
S'colorType'
p1807
sbasbasbasbsg358
(i__main__
DelphiIdentAccess
p1808
(dp1809
g361
S'colorType'
p1810
sg363
(lp1811
(idelphi
DelphiFieldEndAccess
p1812
(dp1813
g367
S'itemIndex'
p1814
sbasbsba(i__main__
DelphiAssignStatement
p1815
(dp1816
g357
Nsg358
(i__main__
DelphiIdentAccess
p1817
(dp1818
g361
S'self'
p1819
sg363
(lp1820
(idelphi
DelphiFieldEndAccess
p1821
(dp1822
g367
S'changeQuestionsBasedOnAnimationType'
p1823
sbasbsba(i__main__
DelphiAssignStatement
p1824
(dp1825
g357
Nsg358
(i__main__
DelphiIdentAccess
p1826
(dp1827
g361
S'self'
p1828
sg363
(lp1829
(idelphi
DelphiFieldEndAccess
p1830
(dp1831
g367
S'calculateNumberOfFrames'
p1832
sbasbsba(i__main__
DelphiAssignStatement
p1833
(dp1834
g357
(i__main__
DelphiIdentAccess
p1835
(dp1836
g361
S'false'
p1837
sg363
(lp1838
sbsg358
(i__main__
DelphiIdentAccess
p1839
(dp1840
g361
S'internalChange'
p1841
sg363
(lp1842
sbsbasbsg380
(lp1843
sbsg173
g174
sbsS'colortypechange'
p1844
(i__main__
DelphiMethodImplementation
p1845
(dp1846
g326
g179
sg59
g181
sg67
(lp1847
(i__main__
DelphiFormalParameter
p1848
(dp1849
g71
Nsg72
(lp1850
S'Sender'
p1851
asg75
(i__main__
DelphiNamedType
p1852
(dp1853
g78
S'TObject'
p1854
sg80
g1
sg81
Nsbsg82
Nsbasg335
(lp1855
sg337
(lp1856
sg339
(lp1857
g341
ag1851
asg342
(dp1858
g1851
g1852
ssg83
S'TAnimationFilesOptionsForm'
p1859
sg84
Nsg345
(lp1860
sg85
I0
sg86
g87
sg347
(i__main__
DelphiBlock
p1861
(dp1862
g350
(idelphi
DelphiCompoundStatement
p1863
(dp1864
g353
(lp1865
(i__main__
DelphiAssignStatement
p1866
(dp1867
g357
(i__main__
DelphiIdentAccess
p1868
(dp1869
g361
S'TPixelFormat'
p1870
sg363
(lp1871
(idelphi
DelphiFunctionEndAccess
p1872
(dp1873
g371
(lp1874
(i__main__
DelphiIdentAccess
p1875
(dp1876
g361
S'colorType'
p1877
sg363
(lp1878
(idelphi
DelphiFieldEndAccess
p1879
(dp1880
g367
S'itemIndex'
p1881
sbasbasbasbsg358
(i__main__
DelphiIdentAccess
p1882
(dp1883
g361
S'options'
p1884
sg363
(lp1885
(idelphi
DelphiFieldEndAccess
p1886
(dp1887
g367
S'colorType'
p1888
sbasbsba(i__main__
DelphiAssignStatement
p1889
(dp1890
g357
Nsg358
(i__main__
DelphiIdentAccess
p1891
(dp1892
g361
S'self'
p1893
sg363
(lp1894
(idelphi
DelphiFieldEndAccess
p1895
(dp1896
g367
S'calculateNumberOfFrames'
p1897
sbasbsbasbsg380
(lp1898
sbsbsS'animatebyageclick'
p1899
(i__main__
DelphiMethodImplementation
p1900
(dp1901
g326
g191
sg59
g193
sg67
(lp1902
(i__main__
DelphiFormalParameter
p1903
(dp1904
g71
Nsg72
(lp1905
S'Sender'
p1906
asg75
(i__main__
DelphiNamedType
p1907
(dp1908
g78
S'TObject'
p1909
sg80
g1
sg81
Nsbsg82
Nsbasg335
(lp1910
sg337
(lp1911
sg339
(lp1912
g341
ag1906
asg342
(dp1913
g1906
g1907
ssg83
S'TAnimationFilesOptionsForm'
p1914
sg84
Nsg345
(lp1915
sg85
I0
sg86
g87
sg347
(i__main__
DelphiBlock
p1916
(dp1917
g350
(idelphi
DelphiCompoundStatement
p1918
(dp1919
g353
(lp1920
(idelphi
DelphiIfStatement
p1921
(dp1922
g406
(i__main__
DelphiIdentAccess
p1923
(dp1924
g361
S'internalChange'
p1925
sg363
(lp1926
sbsg411
Nsg412
(i__main__
DelphiExitStatement
p1927
(dp1928
g415
g1900
sbsba(idelphi
DelphiIfStatement
p1929
(dp1930
g406
(i__main__
DelphiIdentAccess
p1931
(dp1932
g361
S'animateByAge'
p1933
sg363
(lp1934
(idelphi
DelphiFieldEndAccess
p1935
(dp1936
g367
S'checked'
p1937
sbasbsg411
(i__main__
DelphiAssignStatement
p1938
(dp1939
g357
(i__main__
DelphiIdentAccess
p1940
(dp1941
g361
S'kAnimateByXRotation'
p1942
sg363
(lp1943
sbsg358
(i__main__
DelphiIdentAccess
p1944
(dp1945
g361
S'options'
p1946
sg363
(lp1947
(idelphi
DelphiFieldEndAccess
p1948
(dp1949
g367
S'animateBy'
p1950
sbasbsbsg412
(i__main__
DelphiAssignStatement
p1951
(dp1952
g357
(i__main__
DelphiIdentAccess
p1953
(dp1954
g361
S'kAnimateByAge'
p1955
sg363
(lp1956
sbsg358
(i__main__
DelphiIdentAccess
p1957
(dp1958
g361
S'options'
p1959
sg363
(lp1960
(idelphi
DelphiFieldEndAccess
p1961
(dp1962
g367
S'animateBy'
p1963
sbasbsbsba(i__main__
DelphiAssignStatement
p1964
(dp1965
g357
Nsg358
(i__main__
DelphiIdentAccess
p1966
(dp1967
g361
S'self'
p1968
sg363
(lp1969
(idelphi
DelphiFieldEndAccess
p1970
(dp1971
g367
S'changeQuestionsBasedOnAnimationType'
p1972
sbasbsba(i__main__
DelphiAssignStatement
p1973
(dp1974
g357
Nsg358
(i__main__
DelphiIdentAccess
p1975
(dp1976
g361
S'self'
p1977
sg363
(lp1978
(idelphi
DelphiFieldEndAccess
p1979
(dp1980
g367
S'calculateNumberOfFrames'
p1981
sbasbsbasbsg380
(lp1982
sbsbssS'propertyDeclarations'
p1983
(dp1984
sS'variableNamesInDeclaredOrder'
p1985
(lp1986
g20
ag18
ag16
ag28
ag14
ag58
ag52
ag30
ag42
ag40
ag44
ag12
ag38
ag24
ag26
ag10
ag22
ag50
ag46
ag48
ag54
ag32
ag56
ag34
ag36
asbasS'includedUnits'
p1987
NsS'implementationUses'
p1988
(lp1989
S'umath'
p1990
aS'usupport'
p1991
asg59
S'uanimate'
p1992
sS'constSections'
p1993
(lp1994
sS'globalsInProperCase'
p1995
NsS'interfaceUses'
p1996
(lp1997
S'delphi_compatability'
p1998
aS'Windows'
p1999
aS'Messages'
p2000
aS'SysUtils'
p2001
aS'Classes'
p2002
aS'Graphics'
p2003
aS'Controls'
p2004
aS'Forms'
p2005
aS'Dialogs'
p2006
aS'Spin'
p2007
aS'StdCtrls'
p2008
aS'ExtCtrls'
p2009
aS'Buttons'
p2010
aS'udomain'
p2011
aS'uplant'
p2012
aS'updform'
p2013
asS'finalCommentToken'
p2014
(i__main__
PassStatement
p2015
(dp2016
g380
(lp2017
sbsS'varSections'
p2018
(lp2019
sS'globals'
p2020
NsS'originalFileName'
p2021
S'../../PlantStudioInPython/converted_source/uanimate.pas'
p2022
sS'proceduralImplementations'
p2023
(dp2024
sS'fileName'
p2025
S'/Users/pdf/Documents/workspace/PlantStudioInPython/converted_source/uanimate.pas'
p2026
sS'proceduralDeclarations'
p2027
(dp2028
sS'types'
p2029
(dp2030
S'tanimationfilesoptionsform'
p2031
g5
ssb.