(i__main__
DelphiUnit
p1
(dp2
S'sectionsInOrderDefined'
p3
(lp4
(i__main__
DelphiProceduralImplementation
p5
(dp6
S'originalDeclaration'
p7
(i__main__
DelphiProceduralDeclaration
p8
(dp9
S'formalParameters'
p10
(lp11
(i__main__
DelphiFormalParameter
p12
(dp13
S'initialValue'
p14
NsS'names'
p15
(lp16
S'bitmap'
p17
asS'theType'
p18
(i__main__
DelphiNamedType
p19
(dp20
S'typeName'
p21
S'TBitmap'
p22
sS'unitDefinedIn'
p23
g1
sS'unitName'
p24
NsbsS'parameterVariety'
p25
Nsba(i__main__
DelphiFormalParameter
p26
(dp27
g14
Nsg15
(lp28
S'newSize'
p29
asg18
(i__main__
DelphiNamedType
p30
(dp31
g21
S'TPoint'
p32
sg23
g1
sg24
Nsbsg25
NsbasS'name'
p33
S'resizeBitmap'
p34
sS'resultType'
p35
Nsbsg33
g34
sg35
NsS'varParamIndexes'
p36
(lp37
sS'varParamsSkipped'
p38
(lp39
sS'argNames'
p40
(lp41
S'bitmap'
p42
aS'newSize'
p43
asS'argTypes'
p44
(dp45
g43
(i__main__
DelphiNamedType
p46
(dp47
g21
S'TPoint'
p48
sg23
g1
sg24
Nsbsg42
(i__main__
DelphiNamedType
p49
(dp50
g21
S'TBitmap'
p51
sg23
g1
sg24
Nsbssg10
(lp52
(i__main__
DelphiFormalParameter
p53
(dp54
g14
Nsg15
(lp55
g42
asg18
g49
sg25
Nsba(i__main__
DelphiFormalParameter
p56
(dp57
g14
Nsg15
(lp58
g43
asg18
g46
sg25
NsbasS'varParamNames'
p59
(lp60
sS'block'
p61
(i__main__
DelphiBlock
p62
(dp63
S'compoundStatement'
p64
(idelphi
DelphiCompoundStatement
p65
(dp66
S'statements'
p67
(lp68
(idelphi
DelphiIfStatement
p69
(dp70
S'expression'
p71
(idelphi
DelphiRelOp
p72
(dp73
S'simpleExpression1'
p74
(i__main__
DelphiIdentAccess
p75
(dp76
S'ident'
p77
S'bitmap'
p78
sS'endAccessList'
p79
(lp80
sbsS'simpleExpression2'
p81
(idelphi
DelphiNilValue
p82
(dp83
bsS'relOp'
p84
S'='
sbsS'ifFalseStatement'
p85
NsS'ifTrueStatement'
p86
(i__main__
DelphiExitStatement
p87
(dp88
S'proceduralOrMethodImplementation'
p89
g5
sbsba(idelphi
DelphiWithStatement
p90
(dp91
S'statement'
p92
(idelphi
DelphiTryExceptStatement
p93
(dp94
S'tryStatements'
p95
(lp96
(i__main__
DelphiAssignStatement
p97
(dp98
S'newValueExpression'
p99
(i__main__
DelphiIdentAccess
p100
(dp101
g77
S'newSize'
p102
sg79
(lp103
(idelphi
DelphiFieldEndAccess
p104
(dp105
S'field'
p106
S'x'
sbasbsS'destinationExpression'
p107
(i__main__
DelphiIdentAccess
p108
(dp109
g77
S'width'
p110
sg79
(lp111
sbsba(i__main__
DelphiAssignStatement
p112
(dp113
g99
(i__main__
DelphiIdentAccess
p114
(dp115
g77
S'newSize'
p116
sg79
(lp117
(idelphi
DelphiFieldEndAccess
p118
(dp119
g106
S'y'
sbasbsg107
(i__main__
DelphiIdentAccess
p120
(dp121
g77
S'height'
p122
sg79
(lp123
sbsbasS'exceptionHandlers'
p124
(idelphi
DelphiExceptionHandlers
p125
(dp126
S'exceptionHandlerList'
p127
NsS'statementList'
p128
(lp129
(i__main__
DelphiAssignStatement
p130
(dp131
g99
(idelphi
DelphiIntegerValue
p132
(dp133
S'string'
p134
S'1'
sbsg107
(i__main__
DelphiIdentAccess
p135
(dp136
g77
S'width'
p137
sg79
(lp138
sbsba(i__main__
DelphiAssignStatement
p139
(dp140
g99
(idelphi
DelphiIntegerValue
p141
(dp142
g134
S'1'
sbsg107
(i__main__
DelphiIdentAccess
p143
(dp144
g77
S'height'
p145
sg79
(lp146
sbsbasbsbsS'variableReferenceList'
p147
(lp148
(i__main__
DelphiIdentAccess
p149
(dp150
g77
S'bitmap'
p151
sg79
(lp152
sbasbasbsS'limitedDeclSectionList'
p153
(lp154
sbsba(i__main__
DelphiProceduralImplementation
p155
(dp156
g7
(i__main__
DelphiProceduralDeclaration
p157
(dp158
g10
(lp159
(i__main__
DelphiFormalParameter
p160
(dp161
g14
Nsg15
(lp162
S'bitmap'
p163
asg18
(i__main__
DelphiNamedType
p164
(dp165
g21
S'TBitmap'
p166
sg23
g1
sg24
Nsbsg25
Nsba(i__main__
DelphiFormalParameter
p167
(dp168
g14
Nsg15
(lp169
S'color'
p170
asg18
(i__main__
DelphiNamedType
p171
(dp172
g21
S'TColor'
p173
sg23
g1
sg24
Nsbsg25
Nsbasg33
S'fillBitmap'
p174
sg35
Nsbsg33
g174
sg35
Nsg36
(lp175
sg38
(lp176
sg40
(lp177
S'bitmap'
p178
aS'color'
p179
asg44
(dp180
g179
(i__main__
DelphiNamedType
p181
(dp182
g21
S'TColor'
p183
sg23
g1
sg24
Nsbsg178
(i__main__
DelphiNamedType
p184
(dp185
g21
S'TBitmap'
p186
sg23
g1
sg24
Nsbssg10
(lp187
(i__main__
DelphiFormalParameter
p188
(dp189
g14
Nsg15
(lp190
g178
asg18
g184
sg25
Nsba(i__main__
DelphiFormalParameter
p191
(dp192
g14
Nsg15
(lp193
g179
asg18
g181
sg25
Nsbasg59
(lp194
sg61
(i__main__
DelphiBlock
p195
(dp196
g64
(idelphi
DelphiCompoundStatement
p197
(dp198
g67
(lp199
(idelphi
DelphiIfStatement
p200
(dp201
g71
(idelphi
DelphiRelOp
p202
(dp203
g74
(i__main__
DelphiIdentAccess
p204
(dp205
g77
S'bitmap'
p206
sg79
(lp207
sbsg81
(idelphi
DelphiNilValue
p208
(dp209
bsg84
S'='
sbsg85
Nsg86
(i__main__
DelphiExitStatement
p210
(dp211
g89
g155
sbsba(idelphi
DelphiWithStatement
p212
(dp213
g92
(idelphi
DelphiCompoundStatement
p214
(dp215
g67
(lp216
(i__main__
DelphiAssignStatement
p217
(dp218
g99
(i__main__
DelphiIdentAccess
p219
(dp220
g77
S'color'
p221
sg79
(lp222
sbsg107
(i__main__
DelphiIdentAccess
p223
(dp224
g77
S'brush'
p225
sg79
(lp226
(idelphi
DelphiFieldEndAccess
p227
(dp228
g106
S'color'
p229
sbasbsba(i__main__
DelphiAssignStatement
p230
(dp231
g99
Nsg107
(i__main__
DelphiIdentAccess
p232
(dp233
g77
S'fillRect'
p234
sg79
(lp235
(idelphi
DelphiFunctionEndAccess
p236
(dp237
S'expressionList'
p238
(lp239
(i__main__
DelphiIdentAccess
p240
(dp241
g77
S'rect'
p242
sg79
(lp243
(idelphi
DelphiFunctionEndAccess
p244
(dp245
g238
(lp246
(idelphi
DelphiIntegerValue
p247
(dp248
g134
S'0'
sba(idelphi
DelphiIntegerValue
p249
(dp250
g134
S'0'
sba(i__main__
DelphiIdentAccess
p251
(dp252
g77
S'bitmap'
p253
sg79
(lp254
(idelphi
DelphiFieldEndAccess
p255
(dp256
g106
S'width'
p257
sbasba(i__main__
DelphiIdentAccess
p258
(dp259
g77
S'bitmap'
p260
sg79
(lp261
(idelphi
DelphiFieldEndAccess
p262
(dp263
g106
S'height'
p264
sbasbasbasbasbasbsbasbsg147
(lp265
(i__main__
DelphiIdentAccess
p266
(dp267
g77
S'bitmap'
p268
sg79
(lp269
(idelphi
DelphiFieldEndAccess
p270
(dp271
g106
S'canvas'
p272
sbasbasbasbsg153
(lp273
sbsba(i__main__
DelphiProceduralImplementation
p274
(dp275
g7
(i__main__
DelphiProceduralDeclaration
p276
(dp277
g10
(lp278
(i__main__
DelphiFormalParameter
p279
(dp280
g14
Nsg15
(lp281
S'bitmap'
p282
asg18
(i__main__
DelphiNamedType
p283
(dp284
g21
S'TBitmap'
p285
sg23
g1
sg24
Nsbsg25
Nsba(i__main__
DelphiFormalParameter
p286
(dp287
g14
Nsg15
(lp288
S'aCanvas'
p289
asg18
(i__main__
DelphiNamedType
p290
(dp291
g21
S'TCanvas'
p292
sg23
g1
sg24
Nsbsg25
Nsba(i__main__
DelphiFormalParameter
p293
(dp294
g14
Nsg15
(lp295
S'aRect'
p296
asg18
(i__main__
DelphiNamedType
p297
(dp298
g21
S'TRect'
p299
sg23
g1
sg24
Nsbsg25
Nsbasg33
S'copyBitmapToCanvasWithGlobalPalette'
p300
sg35
Nsbsg33
g300
sg35
Nsg36
(lp301
sg38
(lp302
sg40
(lp303
S'bitmap'
p304
aS'aCanvas'
p305
aS'aRect'
p306
asg44
(dp307
g305
(i__main__
DelphiNamedType
p308
(dp309
g21
S'TCanvas'
p310
sg23
g1
sg24
Nsbsg306
(i__main__
DelphiNamedType
p311
(dp312
g21
S'TRect'
p313
sg23
g1
sg24
Nsbsg304
(i__main__
DelphiNamedType
p314
(dp315
g21
S'TBitmap'
p316
sg23
g1
sg24
Nsbssg10
(lp317
(i__main__
DelphiFormalParameter
p318
(dp319
g14
Nsg15
(lp320
g304
asg18
g314
sg25
Nsba(i__main__
DelphiFormalParameter
p321
(dp322
g14
Nsg15
(lp323
g305
asg18
g308
sg25
Nsba(i__main__
DelphiFormalParameter
p324
(dp325
g14
Nsg15
(lp326
g306
asg18
g311
sg25
Nsbasg59
(lp327
sg61
(i__main__
DelphiBlock
p328
(dp329
g64
(idelphi
DelphiCompoundStatement
p330
(dp331
g67
(lp332
(i__main__
DelphiAssignStatement
p333
(dp334
g99
(idelphi
DelphiIntegerValue
p335
(dp336
g134
S'0'
sbsg107
(i__main__
DelphiIdentAccess
p337
(dp338
g77
S'oldPalette'
p339
sg79
(lp340
sbsba(i__main__
DelphiAssignStatement
p341
(dp342
g99
(i__main__
DelphiIdentAccess
p343
(dp344
g77
S'screenColorModeIs256ColorsOrLess'
p345
sg79
(lp346
sbsg107
(i__main__
DelphiIdentAccess
p347
(dp348
g77
S'needPalette'
p349
sg79
(lp350
sbsba(idelphi
DelphiIfStatement
p351
(dp352
g71
(i__main__
DelphiIdentAccess
p353
(dp354
g77
S'needPalette'
p355
sg79
(lp356
sbsg85
Nsg86
(idelphi
DelphiCompoundStatement
p357
(dp358
g67
(lp359
(i__main__
DelphiAssignStatement
p360
(dp361
g99
(i__main__
DelphiIdentAccess
p362
(dp363
g77
S'selectPalette'
p364
sg79
(lp365
(idelphi
DelphiFunctionEndAccess
p366
(dp367
g238
(lp368
(i__main__
DelphiIdentAccess
p369
(dp370
g77
S'aCanvas'
p371
sg79
(lp372
(idelphi
DelphiFieldEndAccess
p373
(dp374
g106
S'handle'
p375
sbasba(i__main__
DelphiIdentAccess
p376
(dp377
g77
S'MainForm'
p378
sg79
(lp379
(idelphi
DelphiFieldEndAccess
p380
(dp381
g106
S'paletteImage'
p382
sba(idelphi
DelphiFieldEndAccess
p383
(dp384
g106
S'picture'
p385
sba(idelphi
DelphiFieldEndAccess
p386
(dp387
g106
S'bitmap'
p388
sba(idelphi
DelphiFieldEndAccess
p389
(dp390
g106
S'palette'
p391
sbasba(i__main__
DelphiIdentAccess
p392
(dp393
g77
S'false'
p394
sg79
(lp395
sbasbasbsg107
(i__main__
DelphiIdentAccess
p396
(dp397
g77
S'oldPalette'
p398
sg79
(lp399
sbsba(i__main__
DelphiAssignStatement
p400
(dp401
g99
Nsg107
(i__main__
DelphiIdentAccess
p402
(dp403
g77
S'realizePalette'
p404
sg79
(lp405
(idelphi
DelphiFunctionEndAccess
p406
(dp407
g238
(lp408
(i__main__
DelphiIdentAccess
p409
(dp410
g77
S'aCanvas'
p411
sg79
(lp412
(idelphi
DelphiFieldEndAccess
p413
(dp414
g106
S'handle'
p415
sbasbasbasbsbasbsba(i__main__
DelphiAssignStatement
p416
(dp417
g99
(i__main__
DelphiIdentAccess
p418
(dp419
g77
S'Rect'
p420
sg79
(lp421
(idelphi
DelphiFunctionEndAccess
p422
(dp423
g238
(lp424
(idelphi
DelphiIntegerValue
p425
(dp426
g134
S'0'
sba(idelphi
DelphiIntegerValue
p427
(dp428
g134
S'0'
sba(i__main__
DelphiIdentAccess
p429
(dp430
g77
S'bitmap'
p431
sg79
(lp432
(idelphi
DelphiFieldEndAccess
p433
(dp434
g106
S'width'
p435
sbasba(i__main__
DelphiIdentAccess
p436
(dp437
g77
S'bitmap'
p438
sg79
(lp439
(idelphi
DelphiFieldEndAccess
p440
(dp441
g106
S'height'
p442
sbasbasbasbsg107
(i__main__
DelphiIdentAccess
p443
(dp444
g77
S'wholeRect'
p445
sg79
(lp446
sbsba(idelphi
DelphiWithStatement
p447
(dp448
g92
(idelphi
DelphiIfStatement
p449
(dp450
g71
(idelphi
DelphiAddOp
p451
(dp452
S'addOp'
p453
S'or'
p454
sS'term2'
p455
(idelphi
DelphiNestedExpressionListAccess
p456
(dp457
g79
(lp458
sg238
(lp459
(idelphi
DelphiRelOp
p460
(dp461
g74
(i__main__
DelphiIdentAccess
p462
(dp463
g77
S'bottom'
p464
sg79
(lp465
sbsg81
(idelphi
DelphiIntegerValue
p466
(dp467
g134
S'0'
sbsg84
S'<>'
p468
sbasbsS'term1'
p469
(idelphi
DelphiAddOp
p470
(dp471
g453
g454
sg455
(idelphi
DelphiNestedExpressionListAccess
p472
(dp473
g79
(lp474
sg238
(lp475
(idelphi
DelphiRelOp
p476
(dp477
g74
(i__main__
DelphiIdentAccess
p478
(dp479
g77
S'top'
p480
sg79
(lp481
sbsg81
(idelphi
DelphiIntegerValue
p482
(dp483
g134
S'0'
sbsg84
g468
sbasbsg469
(idelphi
DelphiAddOp
p484
(dp485
g453
g454
sg455
(idelphi
DelphiNestedExpressionListAccess
p486
(dp487
g79
(lp488
sg238
(lp489
(idelphi
DelphiRelOp
p490
(dp491
g74
(i__main__
DelphiIdentAccess
p492
(dp493
g77
S'right'
p494
sg79
(lp495
sbsg81
(idelphi
DelphiIntegerValue
p496
(dp497
g134
S'0'
sbsg84
g468
sbasbsg469
(idelphi
DelphiNestedExpressionListAccess
p498
(dp499
g79
(lp500
sg238
(lp501
(idelphi
DelphiRelOp
p502
(dp503
g74
(i__main__
DelphiIdentAccess
p504
(dp505
g77
S'left'
p506
sg79
(lp507
sbsg81
(idelphi
DelphiIntegerValue
p508
(dp509
g134
S'0'
sbsg84
g468
sbasbsbsbsbsg85
(i__main__
DelphiAssignStatement
p510
(dp511
g99
Nsg107
(i__main__
DelphiIdentAccess
p512
(dp513
g77
S'aCanvas'
p514
sg79
(lp515
(idelphi
DelphiFieldEndAccess
p516
(dp517
g106
S'copyRect'
p518
sba(idelphi
DelphiFunctionEndAccess
p519
(dp520
g238
(lp521
(i__main__
DelphiIdentAccess
p522
(dp523
g77
S'wholeRect'
p524
sg79
(lp525
sba(i__main__
DelphiIdentAccess
p526
(dp527
g77
S'bitmap'
p528
sg79
(lp529
(idelphi
DelphiFieldEndAccess
p530
(dp531
g106
S'canvas'
p532
sbasba(i__main__
DelphiIdentAccess
p533
(dp534
g77
S'wholeRect'
p535
sg79
(lp536
sbasbasbsbsg86
(i__main__
DelphiAssignStatement
p537
(dp538
g99
Nsg107
(i__main__
DelphiIdentAccess
p539
(dp540
g77
S'aCanvas'
p541
sg79
(lp542
(idelphi
DelphiFieldEndAccess
p543
(dp544
g106
S'copyRect'
p545
sba(idelphi
DelphiFunctionEndAccess
p546
(dp547
g238
(lp548
(i__main__
DelphiIdentAccess
p549
(dp550
g77
S'aRect'
p551
sg79
(lp552
sba(i__main__
DelphiIdentAccess
p553
(dp554
g77
S'bitmap'
p555
sg79
(lp556
(idelphi
DelphiFieldEndAccess
p557
(dp558
g106
S'canvas'
p559
sbasba(i__main__
DelphiIdentAccess
p560
(dp561
g77
S'wholeRect'
p562
sg79
(lp563
sbasbasbsbsbsg147
(lp564
(i__main__
DelphiIdentAccess
p565
(dp566
g77
S'aRect'
p567
sg79
(lp568
sbasba(idelphi
DelphiIfStatement
p569
(dp570
g71
(i__main__
DelphiIdentAccess
p571
(dp572
g77
S'needPalette'
p573
sg79
(lp574
sbsg85
Nsg86
(idelphi
DelphiCompoundStatement
p575
(dp576
g67
(lp577
(i__main__
DelphiAssignStatement
p578
(dp579
g99
Nsg107
(i__main__
DelphiIdentAccess
p580
(dp581
g77
S'selectPalette'
p582
sg79
(lp583
(idelphi
DelphiFunctionEndAccess
p584
(dp585
g238
(lp586
(i__main__
DelphiIdentAccess
p587
(dp588
g77
S'aCanvas'
p589
sg79
(lp590
(idelphi
DelphiFieldEndAccess
p591
(dp592
g106
S'handle'
p593
sbasba(i__main__
DelphiIdentAccess
p594
(dp595
g77
S'oldPalette'
p596
sg79
(lp597
sba(i__main__
DelphiIdentAccess
p598
(dp599
g77
S'true'
p600
sg79
(lp601
sbasbasbsba(i__main__
DelphiAssignStatement
p602
(dp603
g99
Nsg107
(i__main__
DelphiIdentAccess
p604
(dp605
g77
S'realizePalette'
p606
sg79
(lp607
(idelphi
DelphiFunctionEndAccess
p608
(dp609
g238
(lp610
(i__main__
DelphiIdentAccess
p611
(dp612
g77
S'aCanvas'
p613
sg79
(lp614
(idelphi
DelphiFieldEndAccess
p615
(dp616
g106
S'handle'
p617
sbasbasbasbsbasbsbasbsg153
(lp618
(i__main__
DelphiVarSection
p619
(dp620
S'atTopLevel'
p621
I0
sS'varDeclList'
p622
(lp623
(idelphi
DelphiVarDecl
p624
(dp625
S'constExpression'
p626
NsS'identList'
p627
(lp628
S'oldPalette'
p629
asg18
(i__main__
DelphiNamedType
p630
(dp631
g21
S'HPALETTE'
p632
sg23
g1
sg24
Nsbsba(idelphi
DelphiVarDecl
p633
(dp634
g626
Nsg627
(lp635
S'wholeRect'
p636
asg18
(i__main__
DelphiNamedType
p637
(dp638
g21
S'TRect'
p639
sg23
g1
sg24
Nsbsba(idelphi
DelphiVarDecl
p640
(dp641
g626
Nsg627
(lp642
S'needPalette'
p643
asg18
(i__main__
DelphiPrimitiveType
p644
(dp645
g21
S'boolean'
p646
sbsbasbasbsba(i__main__
DelphiProceduralImplementation
p647
(dp648
g7
(i__main__
DelphiProceduralDeclaration
p649
(dp650
g10
(lp651
sg33
S'screenColorModeIs256ColorsOrLess'
p652
sg35
(i__main__
DelphiPrimitiveType
p653
(dp654
g21
g646
sbsbsg33
g652
sg35
(i__main__
DelphiPrimitiveType
p655
(dp656
g21
g646
sbsg36
(lp657
sg38
(lp658
sg40
(lp659
sg44
(dp660
sg10
(lp661
sg59
(lp662
sg61
(i__main__
DelphiBlock
p663
(dp664
g64
(idelphi
DelphiCompoundStatement
p665
(dp666
g67
(lp667
(i__main__
DelphiAssignStatement
p668
(dp669
g99
(i__main__
DelphiIdentAccess
p670
(dp671
g77
S'false'
p672
sg79
(lp673
sbsg107
(i__main__
DelphiIdentAccess
p674
(dp675
g77
S'result'
p676
sg79
(lp677
sbsba(i__main__
DelphiAssignStatement
p678
(dp679
g99
(i__main__
DelphiIdentAccess
p680
(dp681
g77
S'GetDC'
p682
sg79
(lp683
(idelphi
DelphiFunctionEndAccess
p684
(dp685
g238
(lp686
(idelphi
DelphiIntegerValue
p687
(dp688
g134
S'0'
sbasbasbsg107
(i__main__
DelphiIdentAccess
p689
(dp690
g77
S'screenDC'
p691
sg79
(lp692
sbsba(idelphi
DelphiTryFinallyStatement
p693
(dp694
g95
(lp695
(i__main__
DelphiAssignStatement
p696
(dp697
g99
(idelphi
DelphiNestedExpressionListAccess
p698
(dp699
g79
(lp700
sg238
(lp701
(idelphi
DelphiMulOp
p702
(dp703
S'signedFactor2'
p704
(i__main__
DelphiIdentAccess
p705
(dp706
g77
S'GetDeviceCaps'
p707
sg79
(lp708
(idelphi
DelphiFunctionEndAccess
p709
(dp710
g238
(lp711
(i__main__
DelphiIdentAccess
p712
(dp713
g77
S'screenDC'
p714
sg79
(lp715
sba(i__main__
DelphiIdentAccess
p716
(dp717
g77
S'PLANES'
p718
sg79
(lp719
sbasbasbsS'mulOp'
p720
S'*'
sS'signedFactor1'
p721
(i__main__
DelphiIdentAccess
p722
(dp723
g77
S'GetDeviceCaps'
p724
sg79
(lp725
(idelphi
DelphiFunctionEndAccess
p726
(dp727
g238
(lp728
(i__main__
DelphiIdentAccess
p729
(dp730
g77
S'screenDC'
p731
sg79
(lp732
sba(i__main__
DelphiIdentAccess
p733
(dp734
g77
S'BITSPIXEL'
p735
sg79
(lp736
sbasbasbsbasbsg107
(i__main__
DelphiIdentAccess
p737
(dp738
g77
S'screenColorBits'
p739
sg79
(lp740
sbsbasS'finallyStatements'
p741
(lp742
(i__main__
DelphiAssignStatement
p743
(dp744
g99
Nsg107
(i__main__
DelphiIdentAccess
p745
(dp746
g77
S'ReleaseDC'
p747
sg79
(lp748
(idelphi
DelphiFunctionEndAccess
p749
(dp750
g238
(lp751
(idelphi
DelphiIntegerValue
p752
(dp753
g134
S'0'
sba(i__main__
DelphiIdentAccess
p754
(dp755
g77
S'screenDC'
p756
sg79
(lp757
sbasbasbsbasba(i__main__
DelphiAssignStatement
p758
(dp759
g99
(idelphi
DelphiAddOp
p760
(dp761
g453
g454
sg455
(idelphi
DelphiNestedExpressionListAccess
p762
(dp763
g79
(lp764
sg238
(lp765
(idelphi
DelphiRelOp
p766
(dp767
g74
(i__main__
DelphiIdentAccess
p768
(dp769
g77
S'screenColorBits'
p770
sg79
(lp771
sbsg81
(idelphi
DelphiIntegerValue
p772
(dp773
g134
S'8'
sbsg84
S'='
sbasbsg469
(idelphi
DelphiAddOp
p774
(dp775
g453
g454
sg455
(idelphi
DelphiNestedExpressionListAccess
p776
(dp777
g79
(lp778
sg238
(lp779
(idelphi
DelphiRelOp
p780
(dp781
g74
(i__main__
DelphiIdentAccess
p782
(dp783
g77
S'screenColorBits'
p784
sg79
(lp785
sbsg81
(idelphi
DelphiIntegerValue
p786
(dp787
g134
S'4'
sbsg84
S'='
sbasbsg469
(idelphi
DelphiNestedExpressionListAccess
p788
(dp789
g79
(lp790
sg238
(lp791
(idelphi
DelphiRelOp
p792
(dp793
g74
(i__main__
DelphiIdentAccess
p794
(dp795
g77
S'screenColorBits'
p796
sg79
(lp797
sbsg81
(idelphi
DelphiIntegerValue
p798
(dp799
g134
S'1'
sbsg84
S'='
sbasbsbsbsg107
(i__main__
DelphiIdentAccess
p800
(dp801
g77
S'result'
p802
sg79
(lp803
sbsbasbsg153
(lp804
(i__main__
DelphiVarSection
p805
(dp806
g621
I0
sg622
(lp807
(idelphi
DelphiVarDecl
p808
(dp809
g626
Nsg627
(lp810
S'screenDC'
p811
asg18
(i__main__
DelphiNamedType
p812
(dp813
g21
S'HDC'
p814
sg23
g1
sg24
Nsbsba(idelphi
DelphiVarDecl
p815
(dp816
g626
Nsg627
(lp817
S'screenColorBits'
p818
asg18
(i__main__
DelphiPrimitiveType
p819
(dp820
g21
S'integer'
p821
sbsbasbasbsba(i__main__
DelphiProceduralImplementation
p822
(dp823
g7
(i__main__
DelphiProceduralDeclaration
p824
(dp825
g10
(lp826
(i__main__
DelphiFormalParameter
p827
(dp828
g14
Nsg15
(lp829
S'bitmap'
p830
asg18
(i__main__
DelphiNamedType
p831
(dp832
g21
S'TBitmap'
p833
sg23
g1
sg24
Nsbsg25
Nsbasg33
S'setPixelFormatBasedOnScreenForBitmap'
p834
sg35
Nsbsg33
g834
sg35
Nsg36
(lp835
sg38
(lp836
sg40
(lp837
S'bitmap'
p838
asg44
(dp839
g838
(i__main__
DelphiNamedType
p840
(dp841
g21
S'TBitmap'
p842
sg23
g1
sg24
Nsbssg10
(lp843
(i__main__
DelphiFormalParameter
p844
(dp845
g14
Nsg15
(lp846
g838
asg18
g840
sg25
Nsbasg59
(lp847
sg61
(i__main__
DelphiBlock
p848
(dp849
g64
(idelphi
DelphiCompoundStatement
p850
(dp851
g67
(lp852
(idelphi
DelphiIfStatement
p853
(dp854
g71
(idelphi
DelphiRelOp
p855
(dp856
g74
(i__main__
DelphiIdentAccess
p857
(dp858
g77
S'bitmap'
p859
sg79
(lp860
sbsg81
(idelphi
DelphiNilValue
p861
(dp862
bsg84
S'='
sbsg85
Nsg86
(i__main__
DelphiExitStatement
p863
(dp864
g89
g822
sbsba(idelphi
DelphiIfStatement
p865
(dp866
g71
(i__main__
DelphiIdentAccess
p867
(dp868
g77
S'screenColorModeIs256ColorsOrLess'
p869
sg79
(lp870
sbsg85
Nsg86
(idelphi
DelphiCompoundStatement
p871
(dp872
g67
(lp873
(i__main__
DelphiAssignStatement
p874
(dp875
g99
(i__main__
DelphiIdentAccess
p876
(dp877
g77
S'pf8bit'
p878
sg79
(lp879
sbsg107
(i__main__
DelphiIdentAccess
p880
(dp881
g77
S'bitmap'
p882
sg79
(lp883
(idelphi
DelphiFieldEndAccess
p884
(dp885
g106
S'pixelFormat'
p886
sbasbsba(i__main__
DelphiAssignStatement
p887
(dp888
g99
(i__main__
DelphiIdentAccess
p889
(dp890
g77
S'CopyPalette'
p891
sg79
(lp892
(idelphi
DelphiFunctionEndAccess
p893
(dp894
g238
(lp895
(i__main__
DelphiIdentAccess
p896
(dp897
g77
S'MainForm'
p898
sg79
(lp899
(idelphi
DelphiFieldEndAccess
p900
(dp901
g106
S'paletteImage'
p902
sba(idelphi
DelphiFieldEndAccess
p903
(dp904
g106
S'picture'
p905
sba(idelphi
DelphiFieldEndAccess
p906
(dp907
g106
S'bitmap'
p908
sba(idelphi
DelphiFieldEndAccess
p909
(dp910
g106
S'palette'
p911
sbasbasbasbsg107
(i__main__
DelphiIdentAccess
p912
(dp913
g77
S'bitmap'
p914
sg79
(lp915
(idelphi
DelphiFieldEndAccess
p916
(dp917
g106
S'palette'
p918
sbasbsbasbsbasbsg153
(lp919
sbsbasS'includedUnits'
p920
NsS'implementationUses'
p921
(lp922
S'umain'
p923
asg33
S'ubmpsupport'
p924
sS'constSections'
p925
(lp926
sS'globalsInProperCase'
p927
NsS'interfaceUses'
p928
(lp929
S'delphi_compatability'
p930
aS'Windows'
p931
aS'Graphics'
p932
aS'Classes'
p933
asS'finalCommentToken'
p934
(i__main__
PassStatement
p935
(dp936
g153
(lp937
sbsS'varSections'
p938
(lp939
sS'globals'
p940
NsS'originalFileName'
p941
S'../../PlantStudioInPython/converted_source/ubmpsupport.pas'
p942
sS'proceduralImplementations'
p943
(dp944
S'copybitmaptocanvaswithglobalpalette'
p945
g274
sS'setpixelformatbasedonscreenforbitmap'
p946
g822
sS'fillbitmap'
p947
g155
sS'resizebitmap'
p948
g5
sS'screencolormodeis256colorsorless'
p949
g647
ssS'fileName'
p950
S'/Users/pdf/Documents/workspace/PlantStudioInPython/converted_source/ubmpsupport.pas'
p951
sS'proceduralDeclarations'
p952
(dp953
S'copybitmaptocanvaswithglobalpalette'
p954
g276
sS'setpixelformatbasedonscreenforbitmap'
p955
g824
sS'fillbitmap'
p956
g157
sS'resizebitmap'
p957
g8
sS'screencolormodeis256colorsorless'
p958
g649
ssS'types'
p959
(dp960
sb.