(i__main__
DelphiUnit
p1
(dp2
S'sectionsInOrderDefined'
p3
(lp4
(i__main__
DelphiClass
p5
(dp6
S'variableNamesInProperCase'
p7
(dp8
S'printbordercolorouter'
p9
S'printBorderColorOuter'
p10
sS'optionschanged'
p11
S'optionsChanged'
p12
sS'printborderwidthinner'
p13
S'printBorderWidthInner'
p14
sS'helpbutton'
p15
S'helpButton'
p16
sS'transferdirection'
p17
S'transferDirection'
p18
sS'printborderwidthouterlabel'
p19
S'printBorderWidthOuterLabel'
p20
sS'printbordercolorouterlabel'
p21
S'printBorderColorOuterLabel'
p22
sS'printborderouter'
p23
S'printBorderOuter'
p24
sS'printbordercolorinnerlabel'
p25
S'printBorderColorInnerLabel'
p26
sS'printborderinner'
p27
S'printBorderInner'
p28
sS'printborderwidthinnerlabel'
p29
S'printBorderWidthInnerLabel'
p30
sS'printbordercolorinner'
p31
S'printBorderColorInner'
p32
sS'cancel'
p33
S'cancel'
p34
sS'close'
p35
S'Close'
p36
sS'options'
p37
S'options'
p38
sS'printborderwidthouter'
p39
S'printBorderWidthOuter'
p40
ssS'name'
p41
S'TPrintBordersForm'
p42
sS'methodDeclarations'
p43
(dp44
S'helpbuttonclick'
p45
(i__main__
DelphiMethodDeclaration
p46
(dp47
g41
S'helpButtonClick'
p48
sS'formalParameters'
p49
(lp50
(i__main__
DelphiFormalParameter
p51
(dp52
S'initialValue'
p53
NsS'names'
p54
(lp55
S'Sender'
p56
asS'theType'
p57
(i__main__
DelphiNamedType
p58
(dp59
S'typeName'
p60
S'TObject'
p61
sS'unitDefinedIn'
p62
g1
sS'unitName'
p63
NsbsS'parameterVariety'
p64
NsbasS'className'
p65
g42
sS'resultType'
p66
NsS'isClassMethod'
p67
I0
sS'methodType'
p68
S'procedure'
p69
sbsS'printbordercoloroutermouseup'
p70
(i__main__
DelphiMethodDeclaration
p71
(dp72
g41
S'printBorderColorOuterMouseUp'
p73
sg49
(lp74
(i__main__
DelphiFormalParameter
p75
(dp76
g53
Nsg54
(lp77
S'Sender'
p78
asg57
(i__main__
DelphiNamedType
p79
(dp80
g60
S'TObject'
p81
sg62
g1
sg63
Nsbsg64
Nsba(i__main__
DelphiFormalParameter
p82
(dp83
g53
Nsg54
(lp84
S'Button'
p85
asg57
(i__main__
DelphiNamedType
p86
(dp87
g60
S'TMouseButton'
p88
sg62
g1
sg63
Nsbsg64
Nsba(i__main__
DelphiFormalParameter
p89
(dp90
g53
Nsg54
(lp91
S'Shift'
p92
asg57
(i__main__
DelphiNamedType
p93
(dp94
g60
S'TShiftState'
p95
sg62
g1
sg63
Nsbsg64
Nsba(i__main__
DelphiFormalParameter
p96
(dp97
g53
Nsg54
(lp98
S'X'
aS'Y'
asg57
(i__main__
DelphiPrimitiveType
p99
(dp100
g60
S'integer'
p101
sbsg64
Nsbasg65
g42
sg66
Nsg67
I0
sg68
g69
sbsS'transfercolor'
p102
(i__main__
DelphiMethodDeclaration
p103
(dp104
g41
S'transferColor'
p105
sg49
(lp106
(i__main__
DelphiFormalParameter
p107
(dp108
g53
Nsg54
(lp109
S'colorPanel'
p110
asg57
(i__main__
DelphiNamedType
p111
(dp112
g60
S'TPanel'
p113
sg62
g1
sg63
Nsbsg64
Nsba(i__main__
DelphiFormalParameter
p114
(dp115
g53
Nsg54
(lp116
S'value'
p117
asg57
(i__main__
DelphiNamedType
p118
(dp119
g60
S'TColorRef'
p120
sg62
g1
sg63
Nsbsg64
S'var'
p121
sbasg65
g42
sg66
Nsg67
I0
sg68
g69
sbsS'cancelclick'
p122
(i__main__
DelphiMethodDeclaration
p123
(dp124
g41
S'cancelClick'
p125
sg49
(lp126
(i__main__
DelphiFormalParameter
p127
(dp128
g53
Nsg54
(lp129
S'Sender'
p130
asg57
(i__main__
DelphiNamedType
p131
(dp132
g60
S'TObject'
p133
sg62
g1
sg63
Nsbsg64
Nsbasg65
g42
sg66
Nsg67
I0
sg68
g69
sbsS'transfercheckbox'
p134
(i__main__
DelphiMethodDeclaration
p135
(dp136
g41
S'transferCheckBox'
p137
sg49
(lp138
(i__main__
DelphiFormalParameter
p139
(dp140
g53
Nsg54
(lp141
S'checkBox'
p142
asg57
(i__main__
DelphiNamedType
p143
(dp144
g60
S'TCheckBox'
p145
sg62
g1
sg63
Nsbsg64
Nsba(i__main__
DelphiFormalParameter
p146
(dp147
g53
Nsg54
(lp148
S'value'
p149
asg57
(i__main__
DelphiPrimitiveType
p150
(dp151
g60
S'boolean'
p152
sbsg64
g121
sbasg65
g42
sg66
Nsg67
I0
sg68
g69
sbsS'initializewithoptions'
p153
(i__main__
DelphiMethodDeclaration
p154
(dp155
g41
S'initializeWithOptions'
p156
sg49
(lp157
(i__main__
DelphiFormalParameter
p158
(dp159
g53
Nsg54
(lp160
S'anOptions'
p161
asg57
(i__main__
DelphiNamedType
p162
(dp163
g60
S'BitmapOptionsStructure'
p164
sg62
g1
sg63
Nsbsg64
Nsbasg65
g42
sg66
Nsg67
I0
sg68
g69
sS'commentLinesBefore'
p165
(lp166
S' Private declarations '
p167
aS' Public declarations '
p168
aS'$R *.DFM'
p169
asbsS'formkeypress'
p170
(i__main__
DelphiMethodDeclaration
p171
(dp172
g41
S'FormKeyPress'
p173
sg49
(lp174
(i__main__
DelphiFormalParameter
p175
(dp176
g53
Nsg54
(lp177
S'Sender'
p178
asg57
(i__main__
DelphiNamedType
p179
(dp180
g60
S'TObject'
p181
sg62
g1
sg63
Nsbsg64
Nsba(i__main__
DelphiFormalParameter
p182
(dp183
g53
Nsg54
(lp184
S'Key'
p185
asg57
(i__main__
DelphiPrimitiveType
p186
(dp187
g60
S'char'
p188
sbsg64
g121
sbasg65
g42
sg66
Nsg67
I0
sg68
g69
sbsS'printbordercolorinnermouseup'
p189
(i__main__
DelphiMethodDeclaration
p190
(dp191
g41
S'printBorderColorInnerMouseUp'
p192
sg49
(lp193
(i__main__
DelphiFormalParameter
p194
(dp195
g53
Nsg54
(lp196
S'Sender'
p197
asg57
(i__main__
DelphiNamedType
p198
(dp199
g60
S'TObject'
p200
sg62
g1
sg63
Nsbsg64
Nsba(i__main__
DelphiFormalParameter
p201
(dp202
g53
Nsg54
(lp203
S'Button'
p204
asg57
(i__main__
DelphiNamedType
p205
(dp206
g60
S'TMouseButton'
p207
sg62
g1
sg63
Nsbsg64
Nsba(i__main__
DelphiFormalParameter
p208
(dp209
g53
Nsg54
(lp210
S'Shift'
p211
asg57
(i__main__
DelphiNamedType
p212
(dp213
g60
S'TShiftState'
p214
sg62
g1
sg63
Nsbsg64
Nsba(i__main__
DelphiFormalParameter
p215
(dp216
g53
Nsg54
(lp217
S'X'
aS'Y'
asg57
(i__main__
DelphiPrimitiveType
p218
(dp219
g60
g101
sbsg64
Nsbasg65
g42
sg66
Nsg67
I0
sg68
g69
sbsS'transfersmallintspineditbox'
p220
(i__main__
DelphiMethodDeclaration
p221
(dp222
g41
S'transferSmallintSpinEditBox'
p223
sg49
(lp224
(i__main__
DelphiFormalParameter
p225
(dp226
g53
Nsg54
(lp227
S'editBox'
p228
asg57
(i__main__
DelphiNamedType
p229
(dp230
g60
S'TSpinEdit'
p231
sg62
g1
sg63
Nsbsg64
Nsba(i__main__
DelphiFormalParameter
p232
(dp233
g53
Nsg54
(lp234
S'value'
p235
asg57
(i__main__
DelphiPrimitiveType
p236
(dp237
g60
S'smallint'
p238
sbsg64
g121
sbasg65
g42
sg66
Nsg67
I0
sg68
g69
sbsS'printborderinnerclick'
p239
(i__main__
DelphiMethodDeclaration
p240
(dp241
g41
S'printBorderInnerClick'
p242
sg49
(lp243
(i__main__
DelphiFormalParameter
p244
(dp245
g53
Nsg54
(lp246
S'Sender'
p247
asg57
(i__main__
DelphiNamedType
p248
(dp249
g60
S'TObject'
p250
sg62
g1
sg63
Nsbsg64
Nsbasg65
g42
sg66
Nsg67
I0
sg68
g69
sbsS'transferfields'
p251
(i__main__
DelphiMethodDeclaration
p252
(dp253
g41
S'transferFields'
p254
sg49
(lp255
sg65
g42
sg66
Nsg67
I0
sg68
g69
sbsS'closeclick'
p256
(i__main__
DelphiMethodDeclaration
p257
(dp258
g41
S'CloseClick'
p259
sg49
(lp260
(i__main__
DelphiFormalParameter
p261
(dp262
g53
Nsg54
(lp263
S'Sender'
p264
asg57
(i__main__
DelphiNamedType
p265
(dp266
g60
S'TObject'
p267
sg62
g1
sg63
Nsbsg64
Nsbasg65
g42
sg66
Nsg67
I0
sg68
g69
sbsS'printborderouterclick'
p268
(i__main__
DelphiMethodDeclaration
p269
(dp270
g41
S'printBorderOuterClick'
p271
sg49
(lp272
(i__main__
DelphiFormalParameter
p273
(dp274
g53
Nsg54
(lp275
S'Sender'
p276
asg57
(i__main__
DelphiNamedType
p277
(dp278
g60
S'TObject'
p279
sg62
g1
sg63
Nsbsg64
Nsbasg65
g42
sg66
Nsg67
I0
sg68
g69
sbssS'superclassNamedTypes'
p280
(lp281
(i__main__
DelphiNamedType
p282
(dp283
g60
S'PdForm'
p284
sg62
g1
sg63
NsbasS'variableNames'
p285
(dp286
S'printbordercolorouter'
p287
(i__main__
DelphiNamedType
p288
(dp289
g60
S'TPanel'
p290
sg62
g1
sg63
NsbsS'optionschanged'
p291
(i__main__
DelphiPrimitiveType
p292
(dp293
g60
g152
sbsS'printborderwidthinner'
p294
(i__main__
DelphiNamedType
p295
(dp296
g60
S'TSpinEdit'
p297
sg62
g1
sg63
NsbsS'helpbutton'
p298
(i__main__
DelphiNamedType
p299
(dp300
g60
S'TSpeedButton'
p301
sg62
g1
sg63
NsbsS'transferdirection'
p302
(i__main__
DelphiPrimitiveType
p303
(dp304
g60
g238
sbsS'printborderwidthouterlabel'
p305
(i__main__
DelphiNamedType
p306
(dp307
g60
S'TLabel'
p308
sg62
g1
sg63
NsbsS'printbordercolorouterlabel'
p309
(i__main__
DelphiNamedType
p310
(dp311
g60
S'TLabel'
p312
sg62
g1
sg63
NsbsS'printborderouter'
p313
(i__main__
DelphiNamedType
p314
(dp315
g60
S'TCheckBox'
p316
sg62
g1
sg63
NsbsS'printbordercolorinnerlabel'
p317
(i__main__
DelphiNamedType
p318
(dp319
g60
S'TLabel'
p320
sg62
g1
sg63
NsbsS'printborderinner'
p321
(i__main__
DelphiNamedType
p322
(dp323
g60
S'TCheckBox'
p324
sg62
g1
sg63
NsbsS'printborderwidthinnerlabel'
p325
(i__main__
DelphiNamedType
p326
(dp327
g60
S'TLabel'
p328
sg62
g1
sg63
NsbsS'printbordercolorinner'
p329
(i__main__
DelphiNamedType
p330
(dp331
g60
S'TPanel'
p332
sg62
g1
sg63
NsbsS'cancel'
p333
(i__main__
DelphiNamedType
p334
(dp335
g60
S'TButton'
p336
sg62
g1
sg63
NsbsS'close'
p337
(i__main__
DelphiNamedType
p338
(dp339
g60
S'TButton'
p340
sg62
g1
sg63
NsbsS'options'
p341
(i__main__
DelphiNamedType
p342
(dp343
g60
S'BitmapOptionsStructure'
p344
sg62
g1
sg63
NsbsS'printborderwidthouter'
p345
(i__main__
DelphiNamedType
p346
(dp347
g60
S'TSpinEdit'
p348
sg62
g1
sg63
NsbssS'methodNamesInDefinedOrder'
p349
(lp350
S'initializewithoptions'
p351
aS'transferfields'
p352
aS'transfercheckbox'
p353
aS'transfercolor'
p354
aS'transfersmallintspineditbox'
p355
aS'printbordercolorinnermouseup'
p356
aS'printbordercoloroutermouseup'
p357
aS'printborderinnerclick'
p358
aS'printborderouterclick'
p359
aS'closeclick'
p360
aS'cancelclick'
p361
aS'helpbuttonclick'
p362
aS'formkeypress'
p363
asS'methodImplementations'
p364
(dp365
S'transferfields'
p366
(i__main__
DelphiMethodImplementation
p367
(dp368
S'originalDeclaration'
p369
g252
sg41
g254
sg49
(lp370
sS'varParamIndexes'
p371
(lp372
sS'varParamsSkipped'
p373
(lp374
sS'argNames'
p375
(lp376
S'self'
p377
asS'argTypes'
p378
(dp379
sg65
S'TPrintBordersForm'
p380
sg66
NsS'varParamNames'
p381
(lp382
sg67
I0
sg68
g69
sS'block'
p383
(i__main__
DelphiBlock
p384
(dp385
S'compoundStatement'
p386
(idelphi
DelphiCompoundStatement
p387
(dp388
S'statements'
p389
(lp390
(i__main__
DelphiAssignStatement
p391
(dp392
S'newValueExpression'
p393
NsS'destinationExpression'
p394
(i__main__
DelphiIdentAccess
p395
(dp396
S'ident'
p397
S'self'
p398
sS'endAccessList'
p399
(lp400
(idelphi
DelphiFieldEndAccess
p401
(dp402
S'field'
p403
S'transferCheckBox'
p404
sba(idelphi
DelphiFunctionEndAccess
p405
(dp406
S'expressionList'
p407
(lp408
(i__main__
DelphiIdentAccess
p409
(dp410
g397
S'printBorderInner'
p411
sg399
(lp412
sba(i__main__
DelphiIdentAccess
p413
(dp414
g397
S'options'
p415
sg399
(lp416
(idelphi
DelphiFieldEndAccess
p417
(dp418
g403
S'printBorderInner'
p419
sbasbasbasbsba(i__main__
DelphiAssignStatement
p420
(dp421
g393
Nsg394
(i__main__
DelphiIdentAccess
p422
(dp423
g397
S'self'
p424
sg399
(lp425
(idelphi
DelphiFieldEndAccess
p426
(dp427
g403
S'transferCheckBox'
p428
sba(idelphi
DelphiFunctionEndAccess
p429
(dp430
g407
(lp431
(i__main__
DelphiIdentAccess
p432
(dp433
g397
S'printBorderOuter'
p434
sg399
(lp435
sba(i__main__
DelphiIdentAccess
p436
(dp437
g397
S'options'
p438
sg399
(lp439
(idelphi
DelphiFieldEndAccess
p440
(dp441
g403
S'printBorderOuter'
p442
sbasbasbasbsba(i__main__
DelphiAssignStatement
p443
(dp444
g393
Nsg394
(i__main__
DelphiIdentAccess
p445
(dp446
g397
S'self'
p447
sg399
(lp448
(idelphi
DelphiFieldEndAccess
p449
(dp450
g403
S'transferColor'
p451
sba(idelphi
DelphiFunctionEndAccess
p452
(dp453
g407
(lp454
(i__main__
DelphiIdentAccess
p455
(dp456
g397
S'printBorderColorInner'
p457
sg399
(lp458
sba(i__main__
DelphiIdentAccess
p459
(dp460
g397
S'options'
p461
sg399
(lp462
(idelphi
DelphiFieldEndAccess
p463
(dp464
g403
S'printBorderColorInner'
p465
sbasbasbasbsba(i__main__
DelphiAssignStatement
p466
(dp467
g393
Nsg394
(i__main__
DelphiIdentAccess
p468
(dp469
g397
S'self'
p470
sg399
(lp471
(idelphi
DelphiFieldEndAccess
p472
(dp473
g403
S'transferColor'
p474
sba(idelphi
DelphiFunctionEndAccess
p475
(dp476
g407
(lp477
(i__main__
DelphiIdentAccess
p478
(dp479
g397
S'printBorderColorOuter'
p480
sg399
(lp481
sba(i__main__
DelphiIdentAccess
p482
(dp483
g397
S'options'
p484
sg399
(lp485
(idelphi
DelphiFieldEndAccess
p486
(dp487
g403
S'printBorderColorOuter'
p488
sbasbasbasbsba(i__main__
DelphiAssignStatement
p489
(dp490
g393
Nsg394
(i__main__
DelphiIdentAccess
p491
(dp492
g397
S'self'
p493
sg399
(lp494
(idelphi
DelphiFieldEndAccess
p495
(dp496
g403
S'transferSmallintSpinEditBox'
p497
sba(idelphi
DelphiFunctionEndAccess
p498
(dp499
g407
(lp500
(i__main__
DelphiIdentAccess
p501
(dp502
g397
S'printBorderWidthInner'
p503
sg399
(lp504
sba(i__main__
DelphiIdentAccess
p505
(dp506
g397
S'options'
p507
sg399
(lp508
(idelphi
DelphiFieldEndAccess
p509
(dp510
g403
S'printBorderWidthInner'
p511
sbasbasbasbsba(i__main__
DelphiAssignStatement
p512
(dp513
g393
Nsg394
(i__main__
DelphiIdentAccess
p514
(dp515
g397
S'self'
p516
sg399
(lp517
(idelphi
DelphiFieldEndAccess
p518
(dp519
g403
S'transferSmallintSpinEditBox'
p520
sba(idelphi
DelphiFunctionEndAccess
p521
(dp522
g407
(lp523
(i__main__
DelphiIdentAccess
p524
(dp525
g397
S'printBorderWidthOuter'
p526
sg399
(lp527
sba(i__main__
DelphiIdentAccess
p528
(dp529
g397
S'options'
p530
sg399
(lp531
(idelphi
DelphiFieldEndAccess
p532
(dp533
g403
S'printBorderWidthOuter'
p534
sbasbasbasbsbasbsS'limitedDeclSectionList'
p535
(lp536
sbsbsS'initializewithoptions'
p537
(i__main__
DelphiMethodImplementation
p538
(dp539
g369
g154
sg41
g156
sg49
(lp540
(i__main__
DelphiFormalParameter
p541
(dp542
g53
Nsg54
(lp543
S'anOptions'
p544
asg57
(i__main__
DelphiNamedType
p545
(dp546
g60
S'BitmapOptionsStructure'
p547
sg62
g1
sg63
Nsbsg64
Nsbasg371
(lp548
sg373
(lp549
sg375
(lp550
g377
ag544
asg378
(dp551
g544
g545
ssg65
S'TPrintBordersForm'
p552
sg66
Nsg381
(lp553
sg67
I0
sg68
g69
sg383
(i__main__
DelphiBlock
p554
(dp555
g386
(idelphi
DelphiCompoundStatement
p556
(dp557
g389
(lp558
(i__main__
DelphiAssignStatement
p559
(dp560
g393
(i__main__
DelphiIdentAccess
p561
(dp562
g397
S'anOptions'
p563
sg399
(lp564
sbsg394
(i__main__
DelphiIdentAccess
p565
(dp566
g397
S'options'
p567
sg399
(lp568
sbsba(i__main__
DelphiAssignStatement
p569
(dp570
g393
(i__main__
DelphiIdentAccess
p571
(dp572
g397
S'kTransferLoad'
p573
sg399
(lp574
sbsg394
(i__main__
DelphiIdentAccess
p575
(dp576
g397
S'transferDirection'
p577
sg399
(lp578
sbsba(i__main__
DelphiAssignStatement
p579
(dp580
g393
Nsg394
(i__main__
DelphiIdentAccess
p581
(dp582
g397
S'self'
p583
sg399
(lp584
(idelphi
DelphiFieldEndAccess
p585
(dp586
g403
S'transferFields'
p587
sbasbsba(i__main__
DelphiAssignStatement
p588
(dp589
g393
(i__main__
DelphiIdentAccess
p590
(dp591
g397
S'printBorderInner'
p592
sg399
(lp593
(idelphi
DelphiFieldEndAccess
p594
(dp595
g403
S'checked'
p596
sbasbsg394
(i__main__
DelphiIdentAccess
p597
(dp598
g397
S'printBorderColorInner'
p599
sg399
(lp600
(idelphi
DelphiFieldEndAccess
p601
(dp602
g403
S'enabled'
p603
sbasbsg165
(lp604
S' simple interaction, so just put it in here\r'
p605
asba(i__main__
DelphiAssignStatement
p606
(dp607
g393
(i__main__
DelphiIdentAccess
p608
(dp609
g397
S'printBorderInner'
p610
sg399
(lp611
(idelphi
DelphiFieldEndAccess
p612
(dp613
g403
S'checked'
p614
sbasbsg394
(i__main__
DelphiIdentAccess
p615
(dp616
g397
S'printBorderWidthInner'
p617
sg399
(lp618
(idelphi
DelphiFieldEndAccess
p619
(dp620
g403
S'enabled'
p621
sbasbsba(i__main__
DelphiAssignStatement
p622
(dp623
g393
(i__main__
DelphiIdentAccess
p624
(dp625
g397
S'printBorderInner'
p626
sg399
(lp627
(idelphi
DelphiFieldEndAccess
p628
(dp629
g403
S'checked'
p630
sbasbsg394
(i__main__
DelphiIdentAccess
p631
(dp632
g397
S'printBorderColorInnerLabel'
p633
sg399
(lp634
(idelphi
DelphiFieldEndAccess
p635
(dp636
g403
S'enabled'
p637
sbasbsba(i__main__
DelphiAssignStatement
p638
(dp639
g393
(i__main__
DelphiIdentAccess
p640
(dp641
g397
S'printBorderInner'
p642
sg399
(lp643
(idelphi
DelphiFieldEndAccess
p644
(dp645
g403
S'checked'
p646
sbasbsg394
(i__main__
DelphiIdentAccess
p647
(dp648
g397
S'printBorderWidthInnerLabel'
p649
sg399
(lp650
(idelphi
DelphiFieldEndAccess
p651
(dp652
g403
S'enabled'
p653
sbasbsba(i__main__
DelphiAssignStatement
p654
(dp655
g393
(i__main__
DelphiIdentAccess
p656
(dp657
g397
S'printBorderOuter'
p658
sg399
(lp659
(idelphi
DelphiFieldEndAccess
p660
(dp661
g403
S'checked'
p662
sbasbsg394
(i__main__
DelphiIdentAccess
p663
(dp664
g397
S'printBorderColorOuter'
p665
sg399
(lp666
(idelphi
DelphiFieldEndAccess
p667
(dp668
g403
S'enabled'
p669
sbasbsba(i__main__
DelphiAssignStatement
p670
(dp671
g393
(i__main__
DelphiIdentAccess
p672
(dp673
g397
S'printBorderOuter'
p674
sg399
(lp675
(idelphi
DelphiFieldEndAccess
p676
(dp677
g403
S'checked'
p678
sbasbsg394
(i__main__
DelphiIdentAccess
p679
(dp680
g397
S'printBorderWidthOuter'
p681
sg399
(lp682
(idelphi
DelphiFieldEndAccess
p683
(dp684
g403
S'enabled'
p685
sbasbsba(i__main__
DelphiAssignStatement
p686
(dp687
g393
(i__main__
DelphiIdentAccess
p688
(dp689
g397
S'printBorderOuter'
p690
sg399
(lp691
(idelphi
DelphiFieldEndAccess
p692
(dp693
g403
S'checked'
p694
sbasbsg394
(i__main__
DelphiIdentAccess
p695
(dp696
g397
S'printBorderColorOuterLabel'
p697
sg399
(lp698
(idelphi
DelphiFieldEndAccess
p699
(dp700
g403
S'enabled'
p701
sbasbsba(i__main__
DelphiAssignStatement
p702
(dp703
g393
(i__main__
DelphiIdentAccess
p704
(dp705
g397
S'printBorderOuter'
p706
sg399
(lp707
(idelphi
DelphiFieldEndAccess
p708
(dp709
g403
S'checked'
p710
sbasbsg394
(i__main__
DelphiIdentAccess
p711
(dp712
g397
S'printBorderWidthOuterLabel'
p713
sg399
(lp714
(idelphi
DelphiFieldEndAccess
p715
(dp716
g403
S'enabled'
p717
sbasbsbasbsg535
(lp718
sbsg165
g166
sbsS'printborderouterclick'
p719
(i__main__
DelphiMethodImplementation
p720
(dp721
g369
g269
sg41
g271
sg49
(lp722
(i__main__
DelphiFormalParameter
p723
(dp724
g53
Nsg54
(lp725
S'Sender'
p726
asg57
(i__main__
DelphiNamedType
p727
(dp728
g60
S'TObject'
p729
sg62
g1
sg63
Nsbsg64
Nsbasg371
(lp730
sg373
(lp731
sg375
(lp732
g377
ag726
asg378
(dp733
g726
g727
ssg65
S'TPrintBordersForm'
p734
sg66
Nsg381
(lp735
sg67
I0
sg68
g69
sg383
(i__main__
DelphiBlock
p736
(dp737
g386
(idelphi
DelphiCompoundStatement
p738
(dp739
g389
(lp740
(i__main__
DelphiAssignStatement
p741
(dp742
g393
(i__main__
DelphiIdentAccess
p743
(dp744
g397
S'printBorderOuter'
p745
sg399
(lp746
(idelphi
DelphiFieldEndAccess
p747
(dp748
g403
S'checked'
p749
sbasbsg394
(i__main__
DelphiIdentAccess
p750
(dp751
g397
S'printBorderColorOuter'
p752
sg399
(lp753
(idelphi
DelphiFieldEndAccess
p754
(dp755
g403
S'enabled'
p756
sbasbsba(i__main__
DelphiAssignStatement
p757
(dp758
g393
(i__main__
DelphiIdentAccess
p759
(dp760
g397
S'printBorderOuter'
p761
sg399
(lp762
(idelphi
DelphiFieldEndAccess
p763
(dp764
g403
S'checked'
p765
sbasbsg394
(i__main__
DelphiIdentAccess
p766
(dp767
g397
S'printBorderWidthOuter'
p768
sg399
(lp769
(idelphi
DelphiFieldEndAccess
p770
(dp771
g403
S'enabled'
p772
sbasbsba(i__main__
DelphiAssignStatement
p773
(dp774
g393
(i__main__
DelphiIdentAccess
p775
(dp776
g397
S'printBorderOuter'
p777
sg399
(lp778
(idelphi
DelphiFieldEndAccess
p779
(dp780
g403
S'checked'
p781
sbasbsg394
(i__main__
DelphiIdentAccess
p782
(dp783
g397
S'printBorderColorOuterLabel'
p784
sg399
(lp785
(idelphi
DelphiFieldEndAccess
p786
(dp787
g403
S'enabled'
p788
sbasbsba(i__main__
DelphiAssignStatement
p789
(dp790
g393
(i__main__
DelphiIdentAccess
p791
(dp792
g397
S'printBorderOuter'
p793
sg399
(lp794
(idelphi
DelphiFieldEndAccess
p795
(dp796
g403
S'checked'
p797
sbasbsg394
(i__main__
DelphiIdentAccess
p798
(dp799
g397
S'printBorderWidthOuterLabel'
p800
sg399
(lp801
(idelphi
DelphiFieldEndAccess
p802
(dp803
g403
S'enabled'
p804
sbasbsbasbsg535
(lp805
sbsbsS'transfercheckbox'
p806
(i__main__
DelphiMethodImplementation
p807
(dp808
g369
g135
sg41
g137
sg49
(lp809
(i__main__
DelphiFormalParameter
p810
(dp811
g53
Nsg54
(lp812
S'checkBox'
p813
asg57
(i__main__
DelphiNamedType
p814
(dp815
g60
S'TCheckBox'
p816
sg62
g1
sg63
Nsbsg64
Nsba(i__main__
DelphiFormalParameter
p817
(dp818
g53
Nsg54
(lp819
S'value'
p820
asg57
(i__main__
DelphiPrimitiveType
p821
(dp822
g60
g152
sbsg64
g121
sbasg371
(lp823
I1
asg373
(lp824
sg375
(lp825
g377
ag813
ag820
asg378
(dp826
g813
g814
sg820
g821
ssg65
S'TPrintBordersForm'
p827
sg66
Nsg381
(lp828
g820
asg67
I0
sg68
g69
sg383
(i__main__
DelphiBlock
p829
(dp830
g386
(idelphi
DelphiCompoundStatement
p831
(dp832
g389
(lp833
(idelphi
DelphiIfStatement
p834
(dp835
S'expression'
p836
(idelphi
DelphiRelOp
p837
(dp838
S'simpleExpression1'
p839
(i__main__
DelphiIdentAccess
p840
(dp841
g397
S'transferDirection'
p842
sg399
(lp843
sbsS'simpleExpression2'
p844
(i__main__
DelphiIdentAccess
p845
(dp846
g397
S'kTransferLoad'
p847
sg399
(lp848
sbsS'relOp'
p849
S'='
sbsS'ifFalseStatement'
p850
(idelphi
DelphiIfStatement
p851
(dp852
g836
(idelphi
DelphiRelOp
p853
(dp854
g839
(i__main__
DelphiIdentAccess
p855
(dp856
g397
S'transferDirection'
p857
sg399
(lp858
sbsg844
(i__main__
DelphiIdentAccess
p859
(dp860
g397
S'kTransferSave'
p861
sg399
(lp862
sbsg849
S'='
sbsg850
NsS'ifTrueStatement'
p863
(idelphi
DelphiCompoundStatement
p864
(dp865
g389
(lp866
(idelphi
DelphiIfStatement
p867
(dp868
g836
(idelphi
DelphiRelOp
p869
(dp870
g839
(i__main__
DelphiIdentAccess
p871
(dp872
g397
S'value'
p873
sg399
(lp874
sbsg844
(i__main__
DelphiIdentAccess
p875
(dp876
g397
S'checkBox'
p877
sg399
(lp878
(idelphi
DelphiFieldEndAccess
p879
(dp880
g403
S'checked'
p881
sbasbsg849
S'<>'
p882
sbsg850
Nsg863
(i__main__
DelphiAssignStatement
p883
(dp884
g393
(i__main__
DelphiIdentAccess
p885
(dp886
g397
S'true'
p887
sg399
(lp888
sbsg394
(i__main__
DelphiIdentAccess
p889
(dp890
g397
S'optionsChanged'
p891
sg399
(lp892
sbsbsba(i__main__
DelphiAssignStatement
p893
(dp894
g393
(i__main__
DelphiIdentAccess
p895
(dp896
g397
S'checkBox'
p897
sg399
(lp898
(idelphi
DelphiFieldEndAccess
p899
(dp900
g403
S'checked'
p901
sbasbsg394
(i__main__
DelphiIdentAccess
p902
(dp903
g397
S'value'
p904
sg399
(lp905
sbsbasbsbsg863
(i__main__
DelphiAssignStatement
p906
(dp907
g393
(i__main__
DelphiIdentAccess
p908
(dp909
g397
S'value'
p910
sg399
(lp911
sbsg394
(i__main__
DelphiIdentAccess
p912
(dp913
g397
S'checkBox'
p914
sg399
(lp915
(idelphi
DelphiFieldEndAccess
p916
(dp917
g403
S'checked'
p918
sbasbsbsbasbsg535
(lp919
sbsbsS'printbordercoloroutermouseup'
p920
(i__main__
DelphiMethodImplementation
p921
(dp922
g369
g71
sg41
g73
sg49
(lp923
(i__main__
DelphiFormalParameter
p924
(dp925
g53
Nsg54
(lp926
S'Sender'
p927
asg57
(i__main__
DelphiNamedType
p928
(dp929
g60
S'TObject'
p930
sg62
g1
sg63
Nsbsg64
Nsba(i__main__
DelphiFormalParameter
p931
(dp932
g53
Nsg54
(lp933
S'Button'
p934
asg57
(i__main__
DelphiNamedType
p935
(dp936
g60
S'TMouseButton'
p937
sg62
g1
sg63
Nsbsg64
Nsba(i__main__
DelphiFormalParameter
p938
(dp939
g53
Nsg54
(lp940
S'Shift'
p941
asg57
(i__main__
DelphiNamedType
p942
(dp943
g60
S'TShiftState'
p944
sg62
g1
sg63
Nsbsg64
Nsba(i__main__
DelphiFormalParameter
p945
(dp946
g53
Nsg54
(lp947
S'X'
aS'Y'
asg57
(i__main__
DelphiPrimitiveType
p948
(dp949
g60
g101
sbsg64
Nsbasg371
(lp950
sg373
(lp951
sg375
(lp952
g377
ag927
ag934
ag941
aS'X'
aS'Y'
asg378
(dp953
S'Y'
g948
sg941
g942
sg934
g935
sg927
g928
sS'X'
g948
ssg65
S'TPrintBordersForm'
p954
sg66
Nsg381
(lp955
sg67
I0
sg68
g69
sg383
(i__main__
DelphiBlock
p956
(dp957
g386
(idelphi
DelphiCompoundStatement
p958
(dp959
g389
(lp960
(i__main__
DelphiAssignStatement
p961
(dp962
g393
(i__main__
DelphiIdentAccess
p963
(dp964
g397
S'domain'
p965
sg399
(lp966
(idelphi
DelphiFieldEndAccess
p967
(dp968
g403
S'getColorUsingCustomColors'
p969
sba(idelphi
DelphiFunctionEndAccess
p970
(dp971
g407
(lp972
(i__main__
DelphiIdentAccess
p973
(dp974
g397
S'printBorderColorOuter'
p975
sg399
(lp976
(idelphi
DelphiFieldEndAccess
p977
(dp978
g403
S'color'
p979
sbasbasbasbsg394
(i__main__
DelphiIdentAccess
p980
(dp981
g397
S'printBorderColorOuter'
p982
sg399
(lp983
(idelphi
DelphiFieldEndAccess
p984
(dp985
g403
S'color'
p986
sbasbsbasbsg535
(lp987
sbsbsS'formkeypress'
p988
(i__main__
DelphiMethodImplementation
p989
(dp990
g369
g171
sg41
g173
sg49
(lp991
(i__main__
DelphiFormalParameter
p992
(dp993
g53
Nsg54
(lp994
S'Sender'
p995
asg57
(i__main__
DelphiNamedType
p996
(dp997
g60
S'TObject'
p998
sg62
g1
sg63
Nsbsg64
Nsba(i__main__
DelphiFormalParameter
p999
(dp1000
g53
Nsg54
(lp1001
S'Key'
p1002
asg57
(i__main__
DelphiPrimitiveType
p1003
(dp1004
g60
g188
sbsg64
g121
sbasg371
(lp1005
I1
asg373
(lp1006
sg375
(lp1007
g377
ag995
ag1002
asg378
(dp1008
g995
g996
sg1002
g1003
ssg65
S'TPrintBordersForm'
p1009
sg66
Nsg381
(lp1010
g1002
asg67
I0
sg68
g69
sg383
(i__main__
DelphiBlock
p1011
(dp1012
g386
(idelphi
DelphiCompoundStatement
p1013
(dp1014
g389
(lp1015
(i__main__
DelphiAssignStatement
p1016
(dp1017
g393
Nsg394
(i__main__
DelphiIdentAccess
p1018
(dp1019
g397
S'makeEnterWorkAsTab'
p1020
sg399
(lp1021
(idelphi
DelphiFunctionEndAccess
p1022
(dp1023
g407
(lp1024
(i__main__
DelphiIdentAccess
p1025
(dp1026
g397
S'self'
p1027
sg399
(lp1028
sba(i__main__
DelphiIdentAccess
p1029
(dp1030
g397
S'activeControl'
p1031
sg399
(lp1032
sba(i__main__
DelphiIdentAccess
p1033
(dp1034
g397
S'key'
p1035
sg399
(lp1036
sbasbasbsbasbsg535
(lp1037
sbsbsS'printbordercolorinnermouseup'
p1038
(i__main__
DelphiMethodImplementation
p1039
(dp1040
g369
g190
sg41
g192
sg49
(lp1041
(i__main__
DelphiFormalParameter
p1042
(dp1043
g53
Nsg54
(lp1044
S'Sender'
p1045
asg57
(i__main__
DelphiNamedType
p1046
(dp1047
g60
S'TObject'
p1048
sg62
g1
sg63
Nsbsg64
Nsba(i__main__
DelphiFormalParameter
p1049
(dp1050
g53
Nsg54
(lp1051
S'Button'
p1052
asg57
(i__main__
DelphiNamedType
p1053
(dp1054
g60
S'TMouseButton'
p1055
sg62
g1
sg63
Nsbsg64
Nsba(i__main__
DelphiFormalParameter
p1056
(dp1057
g53
Nsg54
(lp1058
S'Shift'
p1059
asg57
(i__main__
DelphiNamedType
p1060
(dp1061
g60
S'TShiftState'
p1062
sg62
g1
sg63
Nsbsg64
Nsba(i__main__
DelphiFormalParameter
p1063
(dp1064
g53
Nsg54
(lp1065
S'X'
aS'Y'
asg57
(i__main__
DelphiPrimitiveType
p1066
(dp1067
g60
g101
sbsg64
Nsbasg371
(lp1068
sg373
(lp1069
sg375
(lp1070
g377
ag1045
ag1052
ag1059
aS'X'
aS'Y'
asg378
(dp1071
S'Y'
g1066
sg1059
g1060
sg1052
g1053
sg1045
g1046
sS'X'
g1066
ssg65
S'TPrintBordersForm'
p1072
sg66
Nsg381
(lp1073
sg67
I0
sg68
g69
sg383
(i__main__
DelphiBlock
p1074
(dp1075
g386
(idelphi
DelphiCompoundStatement
p1076
(dp1077
g389
(lp1078
(i__main__
DelphiAssignStatement
p1079
(dp1080
g393
(i__main__
DelphiIdentAccess
p1081
(dp1082
g397
S'domain'
p1083
sg399
(lp1084
(idelphi
DelphiFieldEndAccess
p1085
(dp1086
g403
S'getColorUsingCustomColors'
p1087
sba(idelphi
DelphiFunctionEndAccess
p1088
(dp1089
g407
(lp1090
(i__main__
DelphiIdentAccess
p1091
(dp1092
g397
S'printBorderColorInner'
p1093
sg399
(lp1094
(idelphi
DelphiFieldEndAccess
p1095
(dp1096
g403
S'color'
p1097
sbasbasbasbsg394
(i__main__
DelphiIdentAccess
p1098
(dp1099
g397
S'printBorderColorInner'
p1100
sg399
(lp1101
(idelphi
DelphiFieldEndAccess
p1102
(dp1103
g403
S'color'
p1104
sbasbsbasbsg535
(lp1105
sbsbsS'transfersmallintspineditbox'
p1106
(i__main__
DelphiMethodImplementation
p1107
(dp1108
g369
g221
sg41
g223
sg49
(lp1109
(i__main__
DelphiFormalParameter
p1110
(dp1111
g53
Nsg54
(lp1112
S'editBox'
p1113
asg57
(i__main__
DelphiNamedType
p1114
(dp1115
g60
S'TSpinEdit'
p1116
sg62
g1
sg63
Nsbsg64
Nsba(i__main__
DelphiFormalParameter
p1117
(dp1118
g53
Nsg54
(lp1119
S'value'
p1120
asg57
(i__main__
DelphiPrimitiveType
p1121
(dp1122
g60
g238
sbsg64
g121
sbasg371
(lp1123
I1
asg373
(lp1124
sg375
(lp1125
g377
ag1113
ag1120
asg378
(dp1126
g1113
g1114
sg1120
g1121
ssg65
S'TPrintBordersForm'
p1127
sg66
Nsg381
(lp1128
g1120
asg67
I0
sg68
g69
sg383
(i__main__
DelphiBlock
p1129
(dp1130
g386
(idelphi
DelphiCompoundStatement
p1131
(dp1132
g389
(lp1133
(idelphi
DelphiIfStatement
p1134
(dp1135
g836
(idelphi
DelphiRelOp
p1136
(dp1137
g839
(i__main__
DelphiIdentAccess
p1138
(dp1139
g397
S'transferDirection'
p1140
sg399
(lp1141
sbsg844
(i__main__
DelphiIdentAccess
p1142
(dp1143
g397
S'kTransferLoad'
p1144
sg399
(lp1145
sbsg849
S'='
sbsg850
(idelphi
DelphiIfStatement
p1146
(dp1147
g836
(idelphi
DelphiRelOp
p1148
(dp1149
g839
(i__main__
DelphiIdentAccess
p1150
(dp1151
g397
S'transferDirection'
p1152
sg399
(lp1153
sbsg844
(i__main__
DelphiIdentAccess
p1154
(dp1155
g397
S'kTransferSave'
p1156
sg399
(lp1157
sbsg849
S'='
sbsg850
Nsg863
(idelphi
DelphiCompoundStatement
p1158
(dp1159
g389
(lp1160
(idelphi
DelphiIfStatement
p1161
(dp1162
g836
(idelphi
DelphiRelOp
p1163
(dp1164
g839
(i__main__
DelphiIdentAccess
p1165
(dp1166
g397
S'value'
p1167
sg399
(lp1168
sbsg844
(i__main__
DelphiIdentAccess
p1169
(dp1170
g397
S'strToIntDef'
p1171
sg399
(lp1172
(idelphi
DelphiFunctionEndAccess
p1173
(dp1174
g407
(lp1175
(i__main__
DelphiIdentAccess
p1176
(dp1177
g397
S'editBox'
p1178
sg399
(lp1179
(idelphi
DelphiFieldEndAccess
p1180
(dp1181
g403
S'text'
p1182
sbasba(idelphi
DelphiIntegerValue
p1183
(dp1184
S'string'
p1185
S'0'
sbasbasbsg849
g882
sbsg850
Nsg863
(i__main__
DelphiAssignStatement
p1186
(dp1187
g393
(i__main__
DelphiIdentAccess
p1188
(dp1189
g397
S'true'
p1190
sg399
(lp1191
sbsg394
(i__main__
DelphiIdentAccess
p1192
(dp1193
g397
S'optionsChanged'
p1194
sg399
(lp1195
sbsbsba(i__main__
DelphiAssignStatement
p1196
(dp1197
g393
(i__main__
DelphiIdentAccess
p1198
(dp1199
g397
S'strToIntDef'
p1200
sg399
(lp1201
(idelphi
DelphiFunctionEndAccess
p1202
(dp1203
g407
(lp1204
(i__main__
DelphiIdentAccess
p1205
(dp1206
g397
S'editBox'
p1207
sg399
(lp1208
(idelphi
DelphiFieldEndAccess
p1209
(dp1210
g403
S'text'
p1211
sbasba(idelphi
DelphiIntegerValue
p1212
(dp1213
g1185
S'0'
sbasbasbsg394
(i__main__
DelphiIdentAccess
p1214
(dp1215
g397
S'value'
p1216
sg399
(lp1217
sbsbasbsbsg863
(i__main__
DelphiAssignStatement
p1218
(dp1219
g393
(i__main__
DelphiIdentAccess
p1220
(dp1221
g397
S'intToStr'
p1222
sg399
(lp1223
(idelphi
DelphiFunctionEndAccess
p1224
(dp1225
g407
(lp1226
(i__main__
DelphiIdentAccess
p1227
(dp1228
g397
S'value'
p1229
sg399
(lp1230
sbasbasbsg394
(i__main__
DelphiIdentAccess
p1231
(dp1232
g397
S'editBox'
p1233
sg399
(lp1234
(idelphi
DelphiFieldEndAccess
p1235
(dp1236
g403
S'text'
p1237
sbasbsbsbasbsg535
(lp1238
sbsbsS'helpbuttonclick'
p1239
(i__main__
DelphiMethodImplementation
p1240
(dp1241
g369
g46
sg41
g48
sg49
(lp1242
(i__main__
DelphiFormalParameter
p1243
(dp1244
g53
Nsg54
(lp1245
S'Sender'
p1246
asg57
(i__main__
DelphiNamedType
p1247
(dp1248
g60
S'TObject'
p1249
sg62
g1
sg63
Nsbsg64
Nsbasg371
(lp1250
sg373
(lp1251
sg375
(lp1252
g377
ag1246
asg378
(dp1253
g1246
g1247
ssg65
S'TPrintBordersForm'
p1254
sg66
Nsg381
(lp1255
sg67
I0
sg68
g69
sg383
(i__main__
DelphiBlock
p1256
(dp1257
g386
(idelphi
DelphiCompoundStatement
p1258
(dp1259
g389
(lp1260
(i__main__
DelphiAssignStatement
p1261
(dp1262
g393
Nsg394
(i__main__
DelphiIdentAccess
p1263
(dp1264
g397
S'application'
p1265
sg399
(lp1266
(idelphi
DelphiFieldEndAccess
p1267
(dp1268
g403
S'helpJump'
p1269
sba(idelphi
DelphiFunctionEndAccess
p1270
(dp1271
g407
(lp1272
(idelphi
DelphiStringAccess
p1273
(dp1274
g399
(lp1275
sg1185
(idelphi
DelphiStringValue
p1276
(dp1277
g1185
S'Drawing_a_print_border'
p1278
sbsbasbasbsbasbsg535
(lp1279
sbsbsS'printborderinnerclick'
p1280
(i__main__
DelphiMethodImplementation
p1281
(dp1282
g369
g240
sg41
g242
sg49
(lp1283
(i__main__
DelphiFormalParameter
p1284
(dp1285
g53
Nsg54
(lp1286
S'Sender'
p1287
asg57
(i__main__
DelphiNamedType
p1288
(dp1289
g60
S'TObject'
p1290
sg62
g1
sg63
Nsbsg64
Nsbasg371
(lp1291
sg373
(lp1292
sg375
(lp1293
g377
ag1287
asg378
(dp1294
g1287
g1288
ssg65
S'TPrintBordersForm'
p1295
sg66
Nsg381
(lp1296
sg67
I0
sg68
g69
sg383
(i__main__
DelphiBlock
p1297
(dp1298
g386
(idelphi
DelphiCompoundStatement
p1299
(dp1300
g389
(lp1301
(i__main__
DelphiAssignStatement
p1302
(dp1303
g393
(i__main__
DelphiIdentAccess
p1304
(dp1305
g397
S'printBorderInner'
p1306
sg399
(lp1307
(idelphi
DelphiFieldEndAccess
p1308
(dp1309
g403
S'checked'
p1310
sbasbsg394
(i__main__
DelphiIdentAccess
p1311
(dp1312
g397
S'printBorderColorInner'
p1313
sg399
(lp1314
(idelphi
DelphiFieldEndAccess
p1315
(dp1316
g403
S'enabled'
p1317
sbasbsba(i__main__
DelphiAssignStatement
p1318
(dp1319
g393
(i__main__
DelphiIdentAccess
p1320
(dp1321
g397
S'printBorderInner'
p1322
sg399
(lp1323
(idelphi
DelphiFieldEndAccess
p1324
(dp1325
g403
S'checked'
p1326
sbasbsg394
(i__main__
DelphiIdentAccess
p1327
(dp1328
g397
S'printBorderWidthInner'
p1329
sg399
(lp1330
(idelphi
DelphiFieldEndAccess
p1331
(dp1332
g403
S'enabled'
p1333
sbasbsba(i__main__
DelphiAssignStatement
p1334
(dp1335
g393
(i__main__
DelphiIdentAccess
p1336
(dp1337
g397
S'printBorderInner'
p1338
sg399
(lp1339
(idelphi
DelphiFieldEndAccess
p1340
(dp1341
g403
S'checked'
p1342
sbasbsg394
(i__main__
DelphiIdentAccess
p1343
(dp1344
g397
S'printBorderColorInnerLabel'
p1345
sg399
(lp1346
(idelphi
DelphiFieldEndAccess
p1347
(dp1348
g403
S'enabled'
p1349
sbasbsba(i__main__
DelphiAssignStatement
p1350
(dp1351
g393
(i__main__
DelphiIdentAccess
p1352
(dp1353
g397
S'printBorderInner'
p1354
sg399
(lp1355
(idelphi
DelphiFieldEndAccess
p1356
(dp1357
g403
S'checked'
p1358
sbasbsg394
(i__main__
DelphiIdentAccess
p1359
(dp1360
g397
S'printBorderWidthInnerLabel'
p1361
sg399
(lp1362
(idelphi
DelphiFieldEndAccess
p1363
(dp1364
g403
S'enabled'
p1365
sbasbsbasbsg535
(lp1366
sbsbsS'transfercolor'
p1367
(i__main__
DelphiMethodImplementation
p1368
(dp1369
g369
g103
sg41
g105
sg49
(lp1370
(i__main__
DelphiFormalParameter
p1371
(dp1372
g53
Nsg54
(lp1373
S'colorPanel'
p1374
asg57
(i__main__
DelphiNamedType
p1375
(dp1376
g60
S'TPanel'
p1377
sg62
g1
sg63
Nsbsg64
Nsba(i__main__
DelphiFormalParameter
p1378
(dp1379
g53
Nsg54
(lp1380
S'value'
p1381
asg57
(i__main__
DelphiNamedType
p1382
(dp1383
g60
S'TColorRef'
p1384
sg62
g1
sg63
Nsbsg64
g121
sbasg371
(lp1385
sg373
(lp1386
g1381
asg375
(lp1387
g377
ag1374
ag1381
asg378
(dp1388
g1381
g1382
sg1374
g1375
ssg65
S'TPrintBordersForm'
p1389
sg66
Nsg381
(lp1390
sg67
I0
sg68
g69
sg383
(i__main__
DelphiBlock
p1391
(dp1392
g386
(idelphi
DelphiCompoundStatement
p1393
(dp1394
g389
(lp1395
(idelphi
DelphiIfStatement
p1396
(dp1397
g836
(idelphi
DelphiRelOp
p1398
(dp1399
g839
(i__main__
DelphiIdentAccess
p1400
(dp1401
g397
S'transferDirection'
p1402
sg399
(lp1403
sbsg844
(i__main__
DelphiIdentAccess
p1404
(dp1405
g397
S'kTransferLoad'
p1406
sg399
(lp1407
sbsg849
S'='
sbsg850
(idelphi
DelphiIfStatement
p1408
(dp1409
g836
(idelphi
DelphiRelOp
p1410
(dp1411
g839
(i__main__
DelphiIdentAccess
p1412
(dp1413
g397
S'transferDirection'
p1414
sg399
(lp1415
sbsg844
(i__main__
DelphiIdentAccess
p1416
(dp1417
g397
S'kTransferSave'
p1418
sg399
(lp1419
sbsg849
S'='
sbsg850
Nsg863
(idelphi
DelphiCompoundStatement
p1420
(dp1421
g389
(lp1422
(idelphi
DelphiIfStatement
p1423
(dp1424
g836
(idelphi
DelphiRelOp
p1425
(dp1426
g839
(i__main__
DelphiIdentAccess
p1427
(dp1428
g397
S'value'
p1429
sg399
(lp1430
sbsg844
(i__main__
DelphiIdentAccess
p1431
(dp1432
g397
S'colorPanel'
p1433
sg399
(lp1434
(idelphi
DelphiFieldEndAccess
p1435
(dp1436
g403
S'color'
p1437
sbasbsg849
g882
sbsg850
Nsg863
(i__main__
DelphiAssignStatement
p1438
(dp1439
g393
(i__main__
DelphiIdentAccess
p1440
(dp1441
g397
S'true'
p1442
sg399
(lp1443
sbsg394
(i__main__
DelphiIdentAccess
p1444
(dp1445
g397
S'optionsChanged'
p1446
sg399
(lp1447
sbsbsba(i__main__
DelphiAssignStatement
p1448
(dp1449
g393
(i__main__
DelphiIdentAccess
p1450
(dp1451
g397
S'colorPanel'
p1452
sg399
(lp1453
(idelphi
DelphiFieldEndAccess
p1454
(dp1455
g403
S'color'
p1456
sbasbsg394
(i__main__
DelphiIdentAccess
p1457
(dp1458
g397
S'value'
p1459
sg399
(lp1460
sbsbasbsbsg863
(i__main__
DelphiAssignStatement
p1461
(dp1462
g393
(i__main__
DelphiIdentAccess
p1463
(dp1464
g397
S'value'
p1465
sg399
(lp1466
sbsg394
(i__main__
DelphiIdentAccess
p1467
(dp1468
g397
S'colorPanel'
p1469
sg399
(lp1470
(idelphi
DelphiFieldEndAccess
p1471
(dp1472
g403
S'color'
p1473
sbasbsbsbasbsg535
(lp1474
sbsbsS'closeclick'
p1475
(i__main__
DelphiMethodImplementation
p1476
(dp1477
g369
g257
sg41
g259
sg49
(lp1478
(i__main__
DelphiFormalParameter
p1479
(dp1480
g53
Nsg54
(lp1481
S'Sender'
p1482
asg57
(i__main__
DelphiNamedType
p1483
(dp1484
g60
S'TObject'
p1485
sg62
g1
sg63
Nsbsg64
Nsbasg371
(lp1486
sg373
(lp1487
sg375
(lp1488
g377
ag1482
asg378
(dp1489
g1482
g1483
ssg65
S'TPrintBordersForm'
p1490
sg66
Nsg381
(lp1491
sg67
I0
sg68
g69
sg383
(i__main__
DelphiBlock
p1492
(dp1493
g386
(idelphi
DelphiCompoundStatement
p1494
(dp1495
g389
(lp1496
(i__main__
DelphiAssignStatement
p1497
(dp1498
g393
(i__main__
DelphiIdentAccess
p1499
(dp1500
g397
S'kTransferSave'
p1501
sg399
(lp1502
sbsg394
(i__main__
DelphiIdentAccess
p1503
(dp1504
g397
S'transferDirection'
p1505
sg399
(lp1506
sbsba(i__main__
DelphiAssignStatement
p1507
(dp1508
g393
Nsg394
(i__main__
DelphiIdentAccess
p1509
(dp1510
g397
S'self'
p1511
sg399
(lp1512
(idelphi
DelphiFieldEndAccess
p1513
(dp1514
g403
S'transferFields'
p1515
sbasbsba(i__main__
DelphiAssignStatement
p1516
(dp1517
g393
(i__main__
DelphiIdentAccess
p1518
(dp1519
g397
S'mrOK'
p1520
sg399
(lp1521
sbsg394
(i__main__
DelphiIdentAccess
p1522
(dp1523
g397
S'modalResult'
p1524
sg399
(lp1525
sbsbasbsg535
(lp1526
sbsbsS'cancelclick'
p1527
(i__main__
DelphiMethodImplementation
p1528
(dp1529
g369
g123
sg41
g125
sg49
(lp1530
(i__main__
DelphiFormalParameter
p1531
(dp1532
g53
Nsg54
(lp1533
S'Sender'
p1534
asg57
(i__main__
DelphiNamedType
p1535
(dp1536
g60
S'TObject'
p1537
sg62
g1
sg63
Nsbsg64
Nsbasg371
(lp1538
sg373
(lp1539
sg375
(lp1540
g377
ag1534
asg378
(dp1541
g1534
g1535
ssg65
S'TPrintBordersForm'
p1542
sg66
Nsg381
(lp1543
sg67
I0
sg68
g69
sg383
(i__main__
DelphiBlock
p1544
(dp1545
g386
(idelphi
DelphiCompoundStatement
p1546
(dp1547
g389
(lp1548
(i__main__
DelphiAssignStatement
p1549
(dp1550
g393
(i__main__
DelphiIdentAccess
p1551
(dp1552
g397
S'mrCancel'
p1553
sg399
(lp1554
sbsg394
(i__main__
DelphiIdentAccess
p1555
(dp1556
g397
S'modalResult'
p1557
sg399
(lp1558
sbsbasbsg535
(lp1559
sbsbssS'propertyDeclarations'
p1560
(dp1561
sS'variableNamesInDeclaredOrder'
p1562
(lp1563
g36
ag34
ag28
ag24
ag26
ag32
ag10
ag22
ag30
ag20
ag14
ag40
ag16
ag38
ag18
ag12
asba(i__main__
DelphiConstSection
p1564
(dp1565
S'constDeclList'
p1566
(lp1567
(idelphi
DelphiConstDeclaration
p1568
(dp1569
S'constExpression'
p1570
(idelphi
DelphiIntegerValue
p1571
(dp1572
g1185
S'1'
sbsg397
S'kTransferLoad'
p1573
sg57
(idelphi
DelphiPrimitiveType
p1574
(dp1575
g60
S'UNDEFINED_NEEDS_CALCULATION'
p1576
sbsba(idelphi
DelphiConstDeclaration
p1577
(dp1578
g1570
(idelphi
DelphiIntegerValue
p1579
(dp1580
g1185
S'2'
sbsg397
S'kTransferSave'
p1581
sg57
(idelphi
DelphiPrimitiveType
p1582
(dp1583
g60
g1576
sbsbasS'atTopLevel'
p1584
I1
sbasS'includedUnits'
p1585
NsS'implementationUses'
p1586
(lp1587
S'usupport'
p1588
asg41
S'uborders'
p1589
sS'constSections'
p1590
(lp1591
g1564
asS'globalsInProperCase'
p1592
NsS'interfaceUses'
p1593
(lp1594
S'delphi_compatability'
p1595
aS'Windows'
p1596
aS'Messages'
p1597
aS'SysUtils'
p1598
aS'Classes'
p1599
aS'Graphics'
p1600
aS'Controls'
p1601
aS'Forms'
p1602
aS'Dialogs'
p1603
aS'StdCtrls'
p1604
aS'Spin'
p1605
aS'ExtCtrls'
p1606
aS'Buttons'
p1607
aS'udomain'
p1608
aS'updform'
p1609
asS'finalCommentToken'
p1610
(i__main__
PassStatement
p1611
(dp1612
g535
(lp1613
sbsS'varSections'
p1614
(lp1615
sS'globals'
p1616
NsS'originalFileName'
p1617
S'../../PlantStudioInPython/converted_source/uborders.pas'
p1618
sS'proceduralImplementations'
p1619
(dp1620
sS'fileName'
p1621
S'/Users/pdf/Documents/workspace/PlantStudioInPython/converted_source/uborders.pas'
p1622
sS'proceduralDeclarations'
p1623
(dp1624
sS'types'
p1625
(dp1626
S'tprintbordersform'
p1627
g5
ssb.