(i__main__
DelphiUnit
p1
(dp2
S'sectionsInOrderDefined'
p3
(lp4
(i__main__
DelphiConstSection
p5
(dp6
S'constDeclList'
p7
(lp8
(idelphi
DelphiConstDeclaration
p9
(dp10
S'constExpression'
p11
(idelphi
DelphiIntegerValue
p12
(dp13
S'string'
p14
S'0'
sbsS'ident'
p15
S'kMutation'
p16
sS'theType'
p17
(idelphi
DelphiPrimitiveType
p18
(dp19
S'typeName'
p20
S'UNDEFINED_NEEDS_CALCULATION'
p21
sbsba(idelphi
DelphiConstDeclaration
p22
(dp23
g11
(idelphi
DelphiIntegerValue
p24
(dp25
g14
S'1'
sbsg15
S'kWeight'
p26
sg17
(idelphi
DelphiPrimitiveType
p27
(dp28
g20
g21
sbsba(idelphi
DelphiConstDeclaration
p29
(dp30
g11
(idelphi
DelphiIntegerValue
p31
(dp32
g14
S'30'
p33
sbsg15
S'kMaxBreedingSections'
p34
sg17
(idelphi
DelphiPrimitiveType
p35
(dp36
g20
g21
sbsba(idelphi
DelphiConstDeclaration
p37
(dp38
g11
(idelphi
DelphiIntegerValue
p39
(dp40
g14
S'0'
sbsg15
S'kFromFirstPlant'
p41
sg17
(idelphi
DelphiPrimitiveType
p42
(dp43
g20
g21
sbsba(idelphi
DelphiConstDeclaration
p44
(dp45
g11
(idelphi
DelphiIntegerValue
p46
(dp47
g14
S'1'
sbsg15
S'kFromSecondPlant'
p48
sg17
(idelphi
DelphiPrimitiveType
p49
(dp50
g20
g21
sbsba(idelphi
DelphiConstDeclaration
p51
(dp52
g11
(idelphi
DelphiIntegerValue
p53
(dp54
g14
S'2'
sbsg15
S'kFromProbabilityBasedOnWeightsForSection'
p55
sg17
(idelphi
DelphiPrimitiveType
p56
(dp57
g20
g21
sbsba(idelphi
DelphiConstDeclaration
p58
(dp59
g11
(idelphi
DelphiIntegerValue
p60
(dp61
g14
S'3'
sbsg15
S'kFromPlantWithGreaterWeightForSectionIfEqualFirstPlant'
p62
sg17
(idelphi
DelphiPrimitiveType
p63
(dp64
g20
g21
sbsba(idelphi
DelphiConstDeclaration
p65
(dp66
g11
(idelphi
DelphiIntegerValue
p67
(dp68
g14
S'4'
sbsg15
S'kFromPlantWithGreaterWeightForSectionIfEqualSecondPlant'
p69
sg17
(idelphi
DelphiPrimitiveType
p70
(dp71
g20
g21
sbsba(idelphi
DelphiConstDeclaration
p72
(dp73
g11
(idelphi
DelphiIntegerValue
p74
(dp75
g14
S'5'
sbsg15
S'kFromPlantWithGreaterWeightForSectionIfEqualChooseRandomly'
p76
sg17
(idelphi
DelphiPrimitiveType
p77
(dp78
g20
g21
sbsbasS'atTopLevel'
p79
I1
sba(i__main__
DelphiClass
p80
(dp81
S'variableNamesInProperCase'
p82
(dp83
S'mutationstrengths'
p84
S'mutationStrengths'
p85
sS'mutateandblendcolorvalues'
p86
S'mutateAndBlendColorValues'
p87
sS'getnonnumericalparametersfrom'
p88
S'getNonNumericalParametersFrom'
p89
sS'firstplantweights'
p90
S'firstPlantWeights'
p91
sS'choosetdosrandomlyfromcurrentlibrary'
p92
S'chooseTdosRandomlyFromCurrentLibrary'
p93
ssS'name'
p94
S'PdBreedingStrategy'
p95
sS'methodDeclarations'
p96
(dp97
S'create'
p98
(i__main__
DelphiMethodDeclaration
p99
(dp100
g94
S'create'
p101
sS'formalParameters'
p102
(lp103
sS'className'
p104
g95
sS'resultType'
p105
NsS'isClassMethod'
p106
I0
sS'methodType'
p107
S'constructor'
p108
sbsS'streamdatawithfiler'
p109
(i__main__
DelphiMethodDeclaration
p110
(dp111
g94
S'streamDataWithFiler'
p112
sg102
(lp113
(i__main__
DelphiFormalParameter
p114
(dp115
S'initialValue'
p116
NsS'names'
p117
(lp118
S'filer'
p119
asg17
(i__main__
DelphiNamedType
p120
(dp121
g20
S'PdFiler'
p122
sS'unitDefinedIn'
p123
g1
sS'unitName'
p124
NsbsS'parameterVariety'
p125
Nsba(i__main__
DelphiFormalParameter
p126
(dp127
g116
Nsg117
(lp128
S'cvir'
p129
asg17
(i__main__
DelphiNamedType
p130
(dp131
g20
S'PdClassAndVersionInformationRecord'
p132
sg123
g1
sg124
Nsbsg125
S'const'
p133
sbasg104
g95
sg105
Nsg106
I0
sg107
S'procedure'
p134
sbsS'classandversioninformation'
p135
(i__main__
DelphiMethodDeclaration
p136
(dp137
g94
S'classAndVersionInformation'
p138
sg102
(lp139
(i__main__
DelphiFormalParameter
p140
(dp141
g116
Nsg117
(lp142
S'cvir'
p143
asg17
(i__main__
DelphiNamedType
p144
(dp145
g20
S'PdClassAndVersionInformationRecord'
p146
sg123
g1
sg124
Nsbsg125
S'var'
p147
sbasg104
g95
sg105
Nsg106
I0
sg107
g134
sbsS'readfromfile'
p148
(i__main__
DelphiMethodDeclaration
p149
(dp150
g94
S'readFromFile'
p151
sg102
(lp152
(i__main__
DelphiFormalParameter
p153
(dp154
g116
Nsg117
(lp155
S'aFileName'
p156
asg17
(i__main__
DelphiPrimitiveType
p157
(dp158
g20
g14
sbsg125
Nsbasg104
g95
sg105
Nsg106
I0
sg107
g134
sbsS'writetofile'
p159
(i__main__
DelphiMethodDeclaration
p160
(dp161
g94
S'writeToFile'
p162
sg102
(lp163
(i__main__
DelphiFormalParameter
p164
(dp165
g116
Nsg117
(lp166
S'aFileName'
p167
asg17
(i__main__
DelphiPrimitiveType
p168
(dp169
g20
g14
sbsg125
Nsbasg104
g95
sg105
Nsg106
I0
sg107
g134
sbssS'superclassNamedTypes'
p170
(lp171
(i__main__
DelphiNamedType
p172
(dp173
g20
S'PdStreamableObject'
p174
sg123
g1
sg124
NsbasS'variableNames'
p175
(dp176
S'mutationstrengths'
p177
(i__main__
DelphiArrayType
p178
(dp179
g17
(i__main__
DelphiPrimitiveType
p180
(dp181
g20
S'smallint'
p182
sbsS'sizes'
p183
(lp184
(idelphi
DelphiSubrange
p185
(dp186
S'high'
p187
(i__main__
DelphiIdentAccess
p188
(dp189
g15
S'kMaxBreedingSections'
p190
sS'endAccessList'
p191
(lp192
sbsS'low'
p193
(idelphi
DelphiIntegerValue
p194
(dp195
g14
S'0'
sbsg94
S''
sbasbsS'mutateandblendcolorvalues'
p196
(i__main__
DelphiPrimitiveType
p197
(dp198
g20
S'boolean'
p199
sbsS'getnonnumericalparametersfrom'
p200
(i__main__
DelphiPrimitiveType
p201
(dp202
g20
g182
sbsS'firstplantweights'
p203
(i__main__
DelphiArrayType
p204
(dp205
g17
(i__main__
DelphiPrimitiveType
p206
(dp207
g20
g182
sbsg183
(lp208
(idelphi
DelphiSubrange
p209
(dp210
g187
(i__main__
DelphiIdentAccess
p211
(dp212
g15
S'kMaxBreedingSections'
p213
sg191
(lp214
sbsg193
(idelphi
DelphiIntegerValue
p215
(dp216
g14
S'0'
sbsg94
S''
sbasbsS'choosetdosrandomlyfromcurrentlibrary'
p217
(i__main__
DelphiPrimitiveType
p218
(dp219
g20
g199
sbssS'methodNamesInDefinedOrder'
p220
(lp221
S'create'
p222
aS'readfromfile'
p223
aS'writetofile'
p224
aS'classandversioninformation'
p225
aS'streamdatawithfiler'
p226
asS'methodImplementations'
p227
(dp228
S'streamdatawithfiler'
p229
(i__main__
DelphiMethodImplementation
p230
(dp231
S'originalDeclaration'
p232
g110
sg94
g112
sg102
(lp233
(i__main__
DelphiFormalParameter
p234
(dp235
g116
Nsg117
(lp236
S'filer'
p237
asg17
(i__main__
DelphiNamedType
p238
(dp239
g20
S'PdFiler'
p240
sg123
g1
sg124
Nsbsg125
Nsba(i__main__
DelphiFormalParameter
p241
(dp242
g116
Nsg117
(lp243
S'cvir'
p244
asg17
(i__main__
DelphiNamedType
p245
(dp246
g20
S'PdClassAndVersionInformationRecord'
p247
sg123
g1
sg124
Nsbsg125
g133
sbasS'varParamIndexes'
p248
(lp249
sS'varParamsSkipped'
p250
(lp251
sS'argNames'
p252
(lp253
S'self'
p254
ag237
ag244
asS'argTypes'
p255
(dp256
g237
g238
sg244
g245
ssg104
S'PdBreedingStrategy'
p257
sg105
NsS'varParamNames'
p258
(lp259
sg106
I0
sg107
g134
sS'block'
p260
(i__main__
DelphiBlock
p261
(dp262
S'compoundStatement'
p263
(idelphi
DelphiCompoundStatement
p264
(dp265
S'statements'
p266
(lp267
(i__main__
DelphiAssignStatement
p268
(dp269
S'newValueExpression'
p270
NsS'destinationExpression'
p271
(idelphi
DelphiInheritedCall
p272
(dp273
g15
S'streamDataWithFiler'
p274
sS'expressionList'
p275
(lp276
(i__main__
DelphiIdentAccess
p277
(dp278
g15
S'filer'
p279
sg191
(lp280
sba(i__main__
DelphiIdentAccess
p281
(dp282
g15
S'cvir'
p283
sg191
(lp284
sbasbsba(idelphi
DelphiWithStatement
p285
(dp286
S'statement'
p287
(idelphi
DelphiCompoundStatement
p288
(dp289
g266
(lp290
(i__main__
DelphiAssignStatement
p291
(dp292
g270
Nsg271
(i__main__
DelphiIdentAccess
p293
(dp294
g15
S'streamSmallint'
p295
sg191
(lp296
(idelphi
DelphiFunctionEndAccess
p297
(dp298
g275
(lp299
(i__main__
DelphiIdentAccess
p300
(dp301
g15
S'getNonNumericalParametersFrom'
p302
sg191
(lp303
sbasbasbsba(i__main__
DelphiAssignStatement
p304
(dp305
g270
Nsg271
(i__main__
DelphiIdentAccess
p306
(dp307
g15
S'streamBoolean'
p308
sg191
(lp309
(idelphi
DelphiFunctionEndAccess
p310
(dp311
g275
(lp312
(i__main__
DelphiIdentAccess
p313
(dp314
g15
S'mutateAndBlendColorValues'
p315
sg191
(lp316
sbasbasbsba(i__main__
DelphiAssignStatement
p317
(dp318
g270
Nsg271
(i__main__
DelphiIdentAccess
p319
(dp320
g15
S'streamBoolean'
p321
sg191
(lp322
(idelphi
DelphiFunctionEndAccess
p323
(dp324
g275
(lp325
(i__main__
DelphiIdentAccess
p326
(dp327
g15
S'chooseTdosRandomlyFromCurrentLibrary'
p328
sg191
(lp329
sbasbasbsba(idelphi
DelphiForStatement
p330
(dp331
S'variable'
p332
S'i'
sS'finalValue'
p333
(idelphi
DelphiAddOp
p334
(dp335
S'addOp'
p336
S'-'
sS'term2'
p337
(idelphi
DelphiIntegerValue
p338
(dp339
g14
S'1'
sbsS'term1'
p340
(i__main__
DelphiIdentAccess
p341
(dp342
g15
S'kMaxBreedingSections'
p343
sg191
(lp344
sbsbsS'direction'
p345
S'to'
p346
sg116
(idelphi
DelphiIntegerValue
p347
(dp348
g14
S'0'
sbsg287
(i__main__
DelphiAssignStatement
p349
(dp350
g270
Nsg271
(i__main__
DelphiIdentAccess
p351
(dp352
g15
S'streamSmallint'
p353
sg191
(lp354
(idelphi
DelphiFunctionEndAccess
p355
(dp356
g275
(lp357
(i__main__
DelphiIdentAccess
p358
(dp359
g15
S'mutationStrengths'
p360
sg191
(lp361
(idelphi
DelphiArrayEndAccess
p362
(dp363
g275
(lp364
(i__main__
DelphiIdentAccess
p365
(dp366
g15
S'i'
sg191
(lp367
sbasbasbasbasbsbsba(idelphi
DelphiForStatement
p368
(dp369
g332
S'i'
sg333
(idelphi
DelphiAddOp
p370
(dp371
g336
S'-'
sg337
(idelphi
DelphiIntegerValue
p372
(dp373
g14
S'1'
sbsg340
(i__main__
DelphiIdentAccess
p374
(dp375
g15
S'kMaxBreedingSections'
p376
sg191
(lp377
sbsbsg345
g346
sg116
(idelphi
DelphiIntegerValue
p378
(dp379
g14
S'0'
sbsg287
(i__main__
DelphiAssignStatement
p380
(dp381
g270
Nsg271
(i__main__
DelphiIdentAccess
p382
(dp383
g15
S'streamSmallint'
p384
sg191
(lp385
(idelphi
DelphiFunctionEndAccess
p386
(dp387
g275
(lp388
(i__main__
DelphiIdentAccess
p389
(dp390
g15
S'firstPlantWeights'
p391
sg191
(lp392
(idelphi
DelphiArrayEndAccess
p393
(dp394
g275
(lp395
(i__main__
DelphiIdentAccess
p396
(dp397
g15
S'i'
sg191
(lp398
sbasbasbasbasbsbsbasbsS'variableReferenceList'
p399
(lp400
(i__main__
DelphiIdentAccess
p401
(dp402
g15
S'filer'
p403
sg191
(lp404
sbasbasbsS'limitedDeclSectionList'
p405
(lp406
(i__main__
DelphiVarSection
p407
(dp408
g79
I0
sS'varDeclList'
p409
(lp410
(idelphi
DelphiVarDecl
p411
(dp412
g11
NsS'identList'
p413
(lp414
S'i'
asg17
(i__main__
DelphiPrimitiveType
p415
(dp416
g20
g182
sbsbasbasbsbsS'create'
p417
(i__main__
DelphiMethodImplementation
p418
(dp419
g232
g99
sg94
g101
sg102
(lp420
sg248
(lp421
sg250
(lp422
sg252
(lp423
g254
asg255
(dp424
sg104
S'PdBreedingStrategy'
p425
sg105
Nsg258
(lp426
sg106
I0
sg107
g108
sg260
(i__main__
DelphiBlock
p427
(dp428
g263
(idelphi
DelphiCompoundStatement
p429
(dp430
g266
(lp431
(idelphi
DelphiForStatement
p432
(dp433
g332
S'i'
sg333
(idelphi
DelphiAddOp
p434
(dp435
g336
S'-'
sg337
(idelphi
DelphiIntegerValue
p436
(dp437
g14
S'1'
sbsg340
(i__main__
DelphiIdentAccess
p438
(dp439
g15
S'kMaxBreedingSections'
p440
sg191
(lp441
sbsbsg345
g346
sg116
(idelphi
DelphiIntegerValue
p442
(dp443
g14
S'0'
sbsg287
(i__main__
DelphiAssignStatement
p444
(dp445
g270
(idelphi
DelphiIntegerValue
p446
(dp447
g14
S'50'
p448
sbsg271
(i__main__
DelphiIdentAccess
p449
(dp450
g15
S'firstPlantWeights'
p451
sg191
(lp452
(idelphi
DelphiArrayEndAccess
p453
(dp454
g275
(lp455
(i__main__
DelphiIdentAccess
p456
(dp457
g15
S'i'
sg191
(lp458
sbasbasbsS'commentLinesBefore'
p459
(lp460
S' defaults '
p461
aS' mutationStrengths default to zero '
p462
asbsba(i__main__
DelphiAssignStatement
p463
(dp464
g270
(i__main__
DelphiIdentAccess
p465
(dp466
g15
S'kFromPlantWithGreaterWeightForSectionIfEqualChooseRandomly'
p467
sg191
(lp468
sbsg271
(i__main__
DelphiIdentAccess
p469
(dp470
g15
S'getNonNumericalParametersFrom'
p471
sg191
(lp472
sbsba(i__main__
DelphiAssignStatement
p473
(dp474
g270
(i__main__
DelphiIdentAccess
p475
(dp476
g15
S'true'
p477
sg191
(lp478
sbsg271
(i__main__
DelphiIdentAccess
p479
(dp480
g15
S'mutateAndBlendColorValues'
p481
sg191
(lp482
sbsba(i__main__
DelphiAssignStatement
p483
(dp484
g270
(i__main__
DelphiIdentAccess
p485
(dp486
g15
S'true'
p487
sg191
(lp488
sbsg271
(i__main__
DelphiIdentAccess
p489
(dp490
g15
S'chooseTdosRandomlyFromCurrentLibrary'
p491
sg191
(lp492
sbsbasbsg405
(lp493
(i__main__
DelphiVarSection
p494
(dp495
g79
I0
sg409
(lp496
(idelphi
DelphiVarDecl
p497
(dp498
g11
Nsg413
(lp499
S'i'
asg17
(i__main__
DelphiPrimitiveType
p500
(dp501
g20
g182
sbsbasbasbsbsS'classandversioninformation'
p502
(i__main__
DelphiMethodImplementation
p503
(dp504
g232
g136
sg94
g138
sg102
(lp505
(i__main__
DelphiFormalParameter
p506
(dp507
g116
Nsg117
(lp508
S'cvir'
p509
asg17
(i__main__
DelphiNamedType
p510
(dp511
g20
S'PdClassAndVersionInformationRecord'
p512
sg123
g1
sg124
Nsbsg125
g147
sbasg248
(lp513
sg250
(lp514
g509
asg252
(lp515
g254
ag509
asg255
(dp516
g509
g510
ssg104
S'PdBreedingStrategy'
p517
sg105
Nsg258
(lp518
sg106
I0
sg107
g134
sg260
(i__main__
DelphiBlock
p519
(dp520
g263
(idelphi
DelphiCompoundStatement
p521
(dp522
g266
(lp523
(i__main__
DelphiAssignStatement
p524
(dp525
g270
(i__main__
DelphiIdentAccess
p526
(dp527
g15
S'kPdBreedingStrategy'
p528
sg191
(lp529
sbsg271
(i__main__
DelphiIdentAccess
p530
(dp531
g15
S'cvir'
p532
sg191
(lp533
(idelphi
DelphiFieldEndAccess
p534
(dp535
S'field'
p536
S'classNumber'
p537
sbasbsba(i__main__
DelphiAssignStatement
p538
(dp539
g270
(idelphi
DelphiIntegerValue
p540
(dp541
g14
S'0'
sbsg271
(i__main__
DelphiIdentAccess
p542
(dp543
g15
S'cvir'
p544
sg191
(lp545
(idelphi
DelphiFieldEndAccess
p546
(dp547
g536
S'versionNumber'
p548
sbasbsba(i__main__
DelphiAssignStatement
p549
(dp550
g270
(idelphi
DelphiIntegerValue
p551
(dp552
g14
S'0'
sbsg271
(i__main__
DelphiIdentAccess
p553
(dp554
g15
S'cvir'
p555
sg191
(lp556
(idelphi
DelphiFieldEndAccess
p557
(dp558
g536
S'additionNumber'
p559
sbasbsbasbsg405
(lp560
sbsg459
(lp561
S' ------------------------------------------------------------------------- data transfer for binary copy '
p562
asbsS'readfromfile'
p563
(i__main__
DelphiMethodImplementation
p564
(dp565
g232
g149
sg94
g151
sg102
(lp566
(i__main__
DelphiFormalParameter
p567
(dp568
g116
Nsg117
(lp569
S'aFileName'
p570
asg17
(i__main__
DelphiPrimitiveType
p571
(dp572
g20
g14
sbsg125
Nsbasg248
(lp573
sg250
(lp574
sg252
(lp575
g254
ag570
asg255
(dp576
g570
g571
ssg104
S'PdBreedingStrategy'
p577
sg105
Nsg258
(lp578
sg106
I0
sg107
g134
sg260
(i__main__
DelphiBlock
p579
(dp580
g263
(idelphi
DelphiCompoundStatement
p581
(dp582
g266
(lp583
(i__main__
DelphiAssignStatement
p584
(dp585
g270
Nsg271
(i__main__
DelphiIdentAccess
p586
(dp587
g15
S'assignFile'
p588
sg191
(lp589
(idelphi
DelphiFunctionEndAccess
p590
(dp591
g275
(lp592
(i__main__
DelphiIdentAccess
p593
(dp594
g15
S'inputFile'
p595
sg191
(lp596
sba(i__main__
DelphiIdentAccess
p597
(dp598
g15
S'aFileName'
p599
sg191
(lp600
sbasbasbsba(i__main__
DelphiAssignStatement
p601
(dp602
g270
(idelphi
DelphiNilValue
p603
(dp604
bsg271
(i__main__
DelphiIdentAccess
p605
(dp606
g15
S'stream'
p607
sg191
(lp608
sbsba(idelphi
DelphiTryFinallyStatement
p609
(dp610
S'tryStatements'
p611
(lp612
(i__main__
DelphiAssignStatement
p613
(dp614
g270
Nsg271
(i__main__
DelphiIdentAccess
p615
(dp616
g15
S'reset'
p617
sg191
(lp618
(idelphi
DelphiFunctionEndAccess
p619
(dp620
g275
(lp621
(i__main__
DelphiIdentAccess
p622
(dp623
g15
S'inputFile'
p624
sg191
(lp625
sbasbasbsba(i__main__
DelphiAssignStatement
p626
(dp627
g270
(i__main__
DelphiIdentAccess
p628
(dp629
g15
S'KfStringStream'
p630
sg191
(lp631
(idelphi
DelphiFieldEndAccess
p632
(dp633
g536
S'create'
p634
sbasbsg271
(i__main__
DelphiIdentAccess
p635
(dp636
g15
S'stream'
p637
sg191
(lp638
sbsba(i__main__
DelphiAssignStatement
p639
(dp640
g270
Nsg271
(i__main__
DelphiIdentAccess
p641
(dp642
g15
S'readln'
p643
sg191
(lp644
(idelphi
DelphiFunctionEndAccess
p645
(dp646
g275
(lp647
(i__main__
DelphiIdentAccess
p648
(dp649
g15
S'inputFile'
p650
sg191
(lp651
sba(i__main__
DelphiIdentAccess
p652
(dp653
g15
S'inputLine'
p654
sg191
(lp655
sbasbasbsba(idelphi
DelphiIfStatement
p656
(dp657
S'expression'
p658
(idelphi
DelphiRelOp
p659
(dp660
S'simpleExpression1'
p661
(i__main__
DelphiIdentAccess
p662
(dp663
g15
S'pos'
p664
sg191
(lp665
(idelphi
DelphiFunctionEndAccess
p666
(dp667
g275
(lp668
(idelphi
DelphiStringAccess
p669
(dp670
g191
(lp671
sg14
(idelphi
DelphiStringValue
p672
(dp673
g14
S'STRATEGY'
p674
sbsba(i__main__
DelphiIdentAccess
p675
(dp676
g15
S'upperCase'
p677
sg191
(lp678
(idelphi
DelphiFunctionEndAccess
p679
(dp680
g275
(lp681
(i__main__
DelphiIdentAccess
p682
(dp683
g15
S'inputLine'
p684
sg191
(lp685
sbasbasbasbasbsS'simpleExpression2'
p686
(idelphi
DelphiIntegerValue
p687
(dp688
g14
S'0'
sbsS'relOp'
p689
S'<='
p690
sbsS'ifFalseStatement'
p691
NsS'ifTrueStatement'
p692
(idelphi
DelphiRaiseStatement
p693
(dp694
g658
(i__main__
DelphiIdentAccess
p695
(dp696
g15
S'Exception'
p697
sg191
(lp698
(idelphi
DelphiFieldEndAccess
p699
(dp700
g536
S'create'
p701
sba(idelphi
DelphiFunctionEndAccess
p702
(dp703
g275
(lp704
(idelphi
DelphiStringAccess
p705
(dp706
g191
(lp707
sg14
(idelphi
DelphiStringValue
p708
(dp709
g14
S'Improper format for breeding strategy file'
p710
sbsbasbasbsbsba(idelphi
DelphiWhileStatement
p711
(dp712
g287
(idelphi
DelphiCompoundStatement
p713
(dp714
g266
(lp715
(i__main__
DelphiAssignStatement
p716
(dp717
g270
Nsg271
(i__main__
DelphiIdentAccess
p718
(dp719
g15
S'readln'
p720
sg191
(lp721
(idelphi
DelphiFunctionEndAccess
p722
(dp723
g275
(lp724
(i__main__
DelphiIdentAccess
p725
(dp726
g15
S'inputFile'
p727
sg191
(lp728
sba(i__main__
DelphiIdentAccess
p729
(dp730
g15
S'inputLine'
p731
sg191
(lp732
sbasbasbsba(i__main__
DelphiAssignStatement
p733
(dp734
g270
Nsg271
(i__main__
DelphiIdentAccess
p735
(dp736
g15
S'stream'
p737
sg191
(lp738
(idelphi
DelphiFieldEndAccess
p739
(dp740
g536
S'onStringSeparator'
p741
sba(idelphi
DelphiFunctionEndAccess
p742
(dp743
g275
(lp744
(i__main__
DelphiIdentAccess
p745
(dp746
g15
S'inputLine'
p747
sg191
(lp748
sba(idelphi
DelphiStringAccess
p749
(dp750
g191
(lp751
sg14
(idelphi
DelphiStringValue
p752
(dp753
g14
S'='
sbsbasbasbsba(i__main__
DelphiAssignStatement
p754
(dp755
g270
(i__main__
DelphiIdentAccess
p756
(dp757
g15
S'stream'
p758
sg191
(lp759
(idelphi
DelphiFieldEndAccess
p760
(dp761
g536
S'nextToken'
p762
sbasbsg271
(i__main__
DelphiIdentAccess
p763
(dp764
g15
S'lineType'
p765
sg191
(lp766
sbsba(i__main__
DelphiAssignStatement
p767
(dp768
g270
Nsg271
(i__main__
DelphiIdentAccess
p769
(dp770
g15
S'stream'
p771
sg191
(lp772
(idelphi
DelphiFieldEndAccess
p773
(dp774
g536
S'spaceSeparator'
p775
sbasbsba(idelphi
DelphiIfStatement
p776
(dp777
g658
(idelphi
DelphiRelOp
p778
(dp779
g661
(i__main__
DelphiIdentAccess
p780
(dp781
g15
S'pos'
p782
sg191
(lp783
(idelphi
DelphiFunctionEndAccess
p784
(dp785
g275
(lp786
(idelphi
DelphiStringAccess
p787
(dp788
g191
(lp789
sg14
(idelphi
DelphiStringValue
p790
(dp791
g14
S'NUMERIC'
p792
sbsba(i__main__
DelphiIdentAccess
p793
(dp794
g15
S'upperCase'
p795
sg191
(lp796
(idelphi
DelphiFunctionEndAccess
p797
(dp798
g275
(lp799
(i__main__
DelphiIdentAccess
p800
(dp801
g15
S'lineType'
p802
sg191
(lp803
sbasbasbasbasbsg686
(idelphi
DelphiIntegerValue
p804
(dp805
g14
S'0'
sbsg689
S'>'
sbsg691
(idelphi
DelphiIfStatement
p806
(dp807
g658
(idelphi
DelphiRelOp
p808
(dp809
g661
(i__main__
DelphiIdentAccess
p810
(dp811
g15
S'pos'
p812
sg191
(lp813
(idelphi
DelphiFunctionEndAccess
p814
(dp815
g275
(lp816
(idelphi
DelphiStringAccess
p817
(dp818
g191
(lp819
sg14
(idelphi
DelphiStringValue
p820
(dp821
g14
S'MUTATION'
p822
sbsba(i__main__
DelphiIdentAccess
p823
(dp824
g15
S'upperCase'
p825
sg191
(lp826
(idelphi
DelphiFunctionEndAccess
p827
(dp828
g275
(lp829
(i__main__
DelphiIdentAccess
p830
(dp831
g15
S'lineType'
p832
sg191
(lp833
sbasbasbasbasbsg686
(idelphi
DelphiIntegerValue
p834
(dp835
g14
S'0'
sbsg689
S'>'
sbsg691
(idelphi
DelphiIfStatement
p836
(dp837
g658
(idelphi
DelphiRelOp
p838
(dp839
g661
(i__main__
DelphiIdentAccess
p840
(dp841
g15
S'pos'
p842
sg191
(lp843
(idelphi
DelphiFunctionEndAccess
p844
(dp845
g275
(lp846
(idelphi
DelphiStringAccess
p847
(dp848
g191
(lp849
sg14
(idelphi
DelphiStringValue
p850
(dp851
g14
S'WEIGHT'
p852
sbsba(i__main__
DelphiIdentAccess
p853
(dp854
g15
S'upperCase'
p855
sg191
(lp856
(idelphi
DelphiFunctionEndAccess
p857
(dp858
g275
(lp859
(i__main__
DelphiIdentAccess
p860
(dp861
g15
S'lineType'
p862
sg191
(lp863
sbasbasbasbasbsg686
(idelphi
DelphiIntegerValue
p864
(dp865
g14
S'0'
sbsg689
S'>'
sbsg691
(idelphi
DelphiIfStatement
p866
(dp867
g658
(idelphi
DelphiRelOp
p868
(dp869
g661
(i__main__
DelphiIdentAccess
p870
(dp871
g15
S'pos'
p872
sg191
(lp873
(idelphi
DelphiFunctionEndAccess
p874
(dp875
g275
(lp876
(idelphi
DelphiStringAccess
p877
(dp878
g191
(lp879
sg14
(idelphi
DelphiStringValue
p880
(dp881
g14
S'COLORS'
p882
sbsba(i__main__
DelphiIdentAccess
p883
(dp884
g15
S'upperCase'
p885
sg191
(lp886
(idelphi
DelphiFunctionEndAccess
p887
(dp888
g275
(lp889
(i__main__
DelphiIdentAccess
p890
(dp891
g15
S'lineType'
p892
sg191
(lp893
sbasbasbasbasbsg686
(idelphi
DelphiIntegerValue
p894
(dp895
g14
S'0'
sbsg689
S'>'
sbsg691
(idelphi
DelphiIfStatement
p896
(dp897
g658
(idelphi
DelphiRelOp
p898
(dp899
g661
(i__main__
DelphiIdentAccess
p900
(dp901
g15
S'pos'
p902
sg191
(lp903
(idelphi
DelphiFunctionEndAccess
p904
(dp905
g275
(lp906
(idelphi
DelphiStringAccess
p907
(dp908
g191
(lp909
sg14
(idelphi
DelphiStringValue
p910
(dp911
g14
S'3D OBJECTS'
p912
sbsba(i__main__
DelphiIdentAccess
p913
(dp914
g15
S'upperCase'
p915
sg191
(lp916
(idelphi
DelphiFunctionEndAccess
p917
(dp918
g275
(lp919
(i__main__
DelphiIdentAccess
p920
(dp921
g15
S'lineType'
p922
sg191
(lp923
sbasbasbasbasbsg686
(idelphi
DelphiIntegerValue
p924
(dp925
g14
S'0'
sbsg689
S'>'
sbsg691
(idelphi
DelphiBreakStatement
p926
(dp927
bsg692
(i__main__
DelphiAssignStatement
p928
(dp929
g270
(i__main__
DelphiIdentAccess
p930
(dp931
g15
S'strToBool'
p932
sg191
(lp933
(idelphi
DelphiFunctionEndAccess
p934
(dp935
g275
(lp936
(i__main__
DelphiIdentAccess
p937
(dp938
g15
S'stream'
p939
sg191
(lp940
(idelphi
DelphiFieldEndAccess
p941
(dp942
g536
S'nextToken'
p943
sbasbasbasbsg271
(i__main__
DelphiIdentAccess
p944
(dp945
g15
S'chooseTdosRandomlyFromCurrentLibrary'
p946
sg191
(lp947
sbsbsbsg692
(i__main__
DelphiAssignStatement
p948
(dp949
g270
(i__main__
DelphiIdentAccess
p950
(dp951
g15
S'strToBool'
p952
sg191
(lp953
(idelphi
DelphiFunctionEndAccess
p954
(dp955
g275
(lp956
(i__main__
DelphiIdentAccess
p957
(dp958
g15
S'stream'
p959
sg191
(lp960
(idelphi
DelphiFieldEndAccess
p961
(dp962
g536
S'nextToken'
p963
sbasbasbasbsg271
(i__main__
DelphiIdentAccess
p964
(dp965
g15
S'mutateAndBlendColorValues'
p966
sg191
(lp967
sbsbsbsg692
(idelphi
DelphiForStatement
p968
(dp969
g332
S'i'
sg333
(idelphi
DelphiAddOp
p970
(dp971
g336
S'-'
sg337
(idelphi
DelphiIntegerValue
p972
(dp973
g14
S'1'
sbsg340
(i__main__
DelphiIdentAccess
p974
(dp975
g15
S'kMaxBreedingSections'
p976
sg191
(lp977
sbsbsg345
g346
sg116
(idelphi
DelphiIntegerValue
p978
(dp979
g14
S'0'
sbsg287
(i__main__
DelphiAssignStatement
p980
(dp981
g270
(i__main__
DelphiIdentAccess
p982
(dp983
g15
S'strToIntDef'
p984
sg191
(lp985
(idelphi
DelphiFunctionEndAccess
p986
(dp987
g275
(lp988
(i__main__
DelphiIdentAccess
p989
(dp990
g15
S'stream'
p991
sg191
(lp992
(idelphi
DelphiFieldEndAccess
p993
(dp994
g536
S'nextToken'
p995
sbasba(idelphi
DelphiIntegerValue
p996
(dp997
g14
S'50'
p998
sbasbasbsg271
(i__main__
DelphiIdentAccess
p999
(dp1000
g15
S'firstPlantWeights'
p1001
sg191
(lp1002
(idelphi
DelphiArrayEndAccess
p1003
(dp1004
g275
(lp1005
(i__main__
DelphiIdentAccess
p1006
(dp1007
g15
S'i'
sg191
(lp1008
sbasbasbsbsbsbsg692
(idelphi
DelphiForStatement
p1009
(dp1010
g332
S'i'
sg333
(idelphi
DelphiAddOp
p1011
(dp1012
g336
S'-'
sg337
(idelphi
DelphiIntegerValue
p1013
(dp1014
g14
S'1'
sbsg340
(i__main__
DelphiIdentAccess
p1015
(dp1016
g15
S'kMaxBreedingSections'
p1017
sg191
(lp1018
sbsbsg345
g346
sg116
(idelphi
DelphiIntegerValue
p1019
(dp1020
g14
S'0'
sbsg287
(i__main__
DelphiAssignStatement
p1021
(dp1022
g270
(i__main__
DelphiIdentAccess
p1023
(dp1024
g15
S'strToIntDef'
p1025
sg191
(lp1026
(idelphi
DelphiFunctionEndAccess
p1027
(dp1028
g275
(lp1029
(i__main__
DelphiIdentAccess
p1030
(dp1031
g15
S'stream'
p1032
sg191
(lp1033
(idelphi
DelphiFieldEndAccess
p1034
(dp1035
g536
S'nextToken'
p1036
sbasba(idelphi
DelphiIntegerValue
p1037
(dp1038
g14
S'0'
sbasbasbsg271
(i__main__
DelphiIdentAccess
p1039
(dp1040
g15
S'mutationStrengths'
p1041
sg191
(lp1042
(idelphi
DelphiArrayEndAccess
p1043
(dp1044
g275
(lp1045
(i__main__
DelphiIdentAccess
p1046
(dp1047
g15
S'i'
sg191
(lp1048
sbasbasbsbsbsbsg692
(i__main__
DelphiAssignStatement
p1049
(dp1050
g270
(i__main__
DelphiIdentAccess
p1051
(dp1052
g15
S'strToIntDef'
p1053
sg191
(lp1054
(idelphi
DelphiFunctionEndAccess
p1055
(dp1056
g275
(lp1057
(i__main__
DelphiIdentAccess
p1058
(dp1059
g15
S'stream'
p1060
sg191
(lp1061
(idelphi
DelphiFieldEndAccess
p1062
(dp1063
g536
S'nextToken'
p1064
sbasba(i__main__
DelphiIdentAccess
p1065
(dp1066
g15
S'kFromPlantWithGreaterWeightForSectionIfEqualChooseRandomly'
p1067
sg191
(lp1068
sbasbasbsg271
(i__main__
DelphiIdentAccess
p1069
(dp1070
g15
S'getNonNumericalParametersFrom'
p1071
sg191
(lp1072
sbsbsbasbsS'whileExpression'
p1073
(idelphi
DelphiNot
p1074
(dp1075
S'factor'
p1076
(i__main__
DelphiIdentAccess
p1077
(dp1078
g15
S'eof'
p1079
sg191
(lp1080
(idelphi
DelphiFunctionEndAccess
p1081
(dp1082
g275
(lp1083
(i__main__
DelphiIdentAccess
p1084
(dp1085
g15
S'inputFile'
p1086
sg191
(lp1087
sbasbasbsbsbasS'finallyStatements'
p1088
(lp1089
(i__main__
DelphiAssignStatement
p1090
(dp1091
g270
Nsg271
(i__main__
DelphiIdentAccess
p1092
(dp1093
g15
S'stream'
p1094
sg191
(lp1095
(idelphi
DelphiFieldEndAccess
p1096
(dp1097
g536
S'free'
p1098
sbasbsba(i__main__
DelphiAssignStatement
p1099
(dp1100
g270
Nsg271
(i__main__
DelphiIdentAccess
p1101
(dp1102
g15
S'closeFile'
p1103
sg191
(lp1104
(idelphi
DelphiFunctionEndAccess
p1105
(dp1106
g275
(lp1107
(i__main__
DelphiIdentAccess
p1108
(dp1109
g15
S'inputFile'
p1110
sg191
(lp1111
sbasbasbsbasbasbsg405
(lp1112
(i__main__
DelphiVarSection
p1113
(dp1114
g79
I0
sg409
(lp1115
(idelphi
DelphiVarDecl
p1116
(dp1117
g11
Nsg413
(lp1118
S'inputFile'
p1119
asg17
(i__main__
DelphiNamedType
p1120
(dp1121
g20
S'TextFile'
p1122
sg123
g1
sg124
Nsbsba(idelphi
DelphiVarDecl
p1123
(dp1124
g11
Nsg413
(lp1125
S'inputLine'
p1126
aS'lineType'
p1127
asg17
(i__main__
DelphiPrimitiveType
p1128
(dp1129
g20
g14
sbsba(idelphi
DelphiVarDecl
p1130
(dp1131
g11
Nsg413
(lp1132
S'stream'
p1133
asg17
(i__main__
DelphiNamedType
p1134
(dp1135
g20
S'KfStringStream'
p1136
sg123
g1
sg124
Nsbsba(idelphi
DelphiVarDecl
p1137
(dp1138
g11
Nsg413
(lp1139
S'i'
asg17
(i__main__
DelphiPrimitiveType
p1140
(dp1141
g20
g182
sbsbasbasbsbsS'writetofile'
p1142
(i__main__
DelphiMethodImplementation
p1143
(dp1144
g232
g160
sg94
g162
sg102
(lp1145
(i__main__
DelphiFormalParameter
p1146
(dp1147
g116
Nsg117
(lp1148
S'aFileName'
p1149
asg17
(i__main__
DelphiPrimitiveType
p1150
(dp1151
g20
g14
sbsg125
Nsbasg248
(lp1152
sg250
(lp1153
sg252
(lp1154
g254
ag1149
asg255
(dp1155
g1149
g1150
ssg104
S'PdBreedingStrategy'
p1156
sg105
Nsg258
(lp1157
sg106
I0
sg107
g134
sg260
(i__main__
DelphiBlock
p1158
(dp1159
g263
(idelphi
DelphiCompoundStatement
p1160
(dp1161
g266
(lp1162
(i__main__
DelphiAssignStatement
p1163
(dp1164
g270
Nsg271
(i__main__
DelphiIdentAccess
p1165
(dp1166
g15
S'assignFile'
p1167
sg191
(lp1168
(idelphi
DelphiFunctionEndAccess
p1169
(dp1170
g275
(lp1171
(i__main__
DelphiIdentAccess
p1172
(dp1173
g15
S'outputFile'
p1174
sg191
(lp1175
sba(i__main__
DelphiIdentAccess
p1176
(dp1177
g15
S'aFileName'
p1178
sg191
(lp1179
sbasbasbsba(idelphi
DelphiTryFinallyStatement
p1180
(dp1181
g611
(lp1182
(i__main__
DelphiAssignStatement
p1183
(dp1184
g270
Nsg271
(i__main__
DelphiIdentAccess
p1185
(dp1186
g15
S'rewrite'
p1187
sg191
(lp1188
(idelphi
DelphiFunctionEndAccess
p1189
(dp1190
g275
(lp1191
(i__main__
DelphiIdentAccess
p1192
(dp1193
g15
S'outputFile'
p1194
sg191
(lp1195
sbasbasbsba(i__main__
DelphiAssignStatement
p1196
(dp1197
g270
Nsg271
(i__main__
DelphiIdentAccess
p1198
(dp1199
g15
S'writeln'
p1200
sg191
(lp1201
(idelphi
DelphiFunctionEndAccess
p1202
(dp1203
g275
(lp1204
(i__main__
DelphiIdentAccess
p1205
(dp1206
g15
S'outputFile'
p1207
sg191
(lp1208
sba(idelphi
DelphiStringAccess
p1209
(dp1210
g191
(lp1211
sg14
(idelphi
DelphiStringValue
p1212
(dp1213
g14
S'[Breeding strategy]'
p1214
sbsbasbasbsba(i__main__
DelphiAssignStatement
p1215
(dp1216
g270
Nsg271
(i__main__
DelphiIdentAccess
p1217
(dp1218
g15
S'write'
p1219
sg191
(lp1220
(idelphi
DelphiFunctionEndAccess
p1221
(dp1222
g275
(lp1223
(i__main__
DelphiIdentAccess
p1224
(dp1225
g15
S'outputFile'
p1226
sg191
(lp1227
sba(idelphi
DelphiStringAccess
p1228
(dp1229
g191
(lp1230
sg14
(idelphi
DelphiStringValue
p1231
(dp1232
g14
S'Mutations='
p1233
sbsbasbasbsba(idelphi
DelphiForStatement
p1234
(dp1235
g332
S'i'
sg333
(idelphi
DelphiAddOp
p1236
(dp1237
g336
S'-'
sg337
(idelphi
DelphiIntegerValue
p1238
(dp1239
g14
S'1'
sbsg340
(i__main__
DelphiIdentAccess
p1240
(dp1241
g15
S'kMaxBreedingSections'
p1242
sg191
(lp1243
sbsbsg345
g346
sg116
(idelphi
DelphiIntegerValue
p1244
(dp1245
g14
S'0'
sbsg287
(i__main__
DelphiAssignStatement
p1246
(dp1247
g270
Nsg271
(i__main__
DelphiIdentAccess
p1248
(dp1249
g15
g1219
sg191
(lp1250
(idelphi
DelphiFunctionEndAccess
p1251
(dp1252
g275
(lp1253
(i__main__
DelphiIdentAccess
p1254
(dp1255
g15
S'outputFile'
p1256
sg191
(lp1257
sba(idelphi
DelphiAddOp
p1258
(dp1259
g336
S'+'
sg337
(idelphi
DelphiStringAccess
p1260
(dp1261
g191
(lp1262
sg14
(idelphi
DelphiStringValue
p1263
(dp1264
g14
S' '
sbsbsg340
(i__main__
DelphiIdentAccess
p1265
(dp1266
g15
S'intToStr'
p1267
sg191
(lp1268
(idelphi
DelphiFunctionEndAccess
p1269
(dp1270
g275
(lp1271
(i__main__
DelphiIdentAccess
p1272
(dp1273
g15
S'mutationStrengths'
p1274
sg191
(lp1275
(idelphi
DelphiArrayEndAccess
p1276
(dp1277
g275
(lp1278
(i__main__
DelphiIdentAccess
p1279
(dp1280
g15
S'i'
sg191
(lp1281
sbasbasbasbasbsbasbasbsbsba(i__main__
DelphiAssignStatement
p1282
(dp1283
g270
Nsg271
(i__main__
DelphiIdentAccess
p1284
(dp1285
g15
S'writeln'
p1286
sg191
(lp1287
(idelphi
DelphiFunctionEndAccess
p1288
(dp1289
g275
(lp1290
(i__main__
DelphiIdentAccess
p1291
(dp1292
g15
S'outputFile'
p1293
sg191
(lp1294
sbasbasbsba(i__main__
DelphiAssignStatement
p1295
(dp1296
g270
Nsg271
(i__main__
DelphiIdentAccess
p1297
(dp1298
g15
g1219
sg191
(lp1299
(idelphi
DelphiFunctionEndAccess
p1300
(dp1301
g275
(lp1302
(i__main__
DelphiIdentAccess
p1303
(dp1304
g15
S'outputFile'
p1305
sg191
(lp1306
sba(idelphi
DelphiStringAccess
p1307
(dp1308
g191
(lp1309
sg14
(idelphi
DelphiStringValue
p1310
(dp1311
g14
S'Weights='
p1312
sbsbasbasbsba(idelphi
DelphiForStatement
p1313
(dp1314
g332
S'i'
sg333
(idelphi
DelphiAddOp
p1315
(dp1316
g336
S'-'
sg337
(idelphi
DelphiIntegerValue
p1317
(dp1318
g14
S'1'
sbsg340
(i__main__
DelphiIdentAccess
p1319
(dp1320
g15
S'kMaxBreedingSections'
p1321
sg191
(lp1322
sbsbsg345
g346
sg116
(idelphi
DelphiIntegerValue
p1323
(dp1324
g14
S'0'
sbsg287
(i__main__
DelphiAssignStatement
p1325
(dp1326
g270
Nsg271
(i__main__
DelphiIdentAccess
p1327
(dp1328
g15
g1219
sg191
(lp1329
(idelphi
DelphiFunctionEndAccess
p1330
(dp1331
g275
(lp1332
(i__main__
DelphiIdentAccess
p1333
(dp1334
g15
S'outputFile'
p1335
sg191
(lp1336
sba(idelphi
DelphiAddOp
p1337
(dp1338
g336
S'+'
sg337
(idelphi
DelphiStringAccess
p1339
(dp1340
g191
(lp1341
sg14
(idelphi
DelphiStringValue
p1342
(dp1343
g14
S' '
sbsbsg340
(i__main__
DelphiIdentAccess
p1344
(dp1345
g15
S'intToStr'
p1346
sg191
(lp1347
(idelphi
DelphiFunctionEndAccess
p1348
(dp1349
g275
(lp1350
(i__main__
DelphiIdentAccess
p1351
(dp1352
g15
S'firstPlantWeights'
p1353
sg191
(lp1354
(idelphi
DelphiArrayEndAccess
p1355
(dp1356
g275
(lp1357
(i__main__
DelphiIdentAccess
p1358
(dp1359
g15
S'i'
sg191
(lp1360
sbasbasbasbasbsbasbasbsbsba(i__main__
DelphiAssignStatement
p1361
(dp1362
g270
Nsg271
(i__main__
DelphiIdentAccess
p1363
(dp1364
g15
S'writeln'
p1365
sg191
(lp1366
(idelphi
DelphiFunctionEndAccess
p1367
(dp1368
g275
(lp1369
(i__main__
DelphiIdentAccess
p1370
(dp1371
g15
S'outputFile'
p1372
sg191
(lp1373
sbasbasbsba(i__main__
DelphiAssignStatement
p1374
(dp1375
g270
Nsg271
(i__main__
DelphiIdentAccess
p1376
(dp1377
g15
S'writeln'
p1378
sg191
(lp1379
(idelphi
DelphiFunctionEndAccess
p1380
(dp1381
g275
(lp1382
(i__main__
DelphiIdentAccess
p1383
(dp1384
g15
S'outputFile'
p1385
sg191
(lp1386
sba(idelphi
DelphiAddOp
p1387
(dp1388
g336
S'+'
sg337
(i__main__
DelphiIdentAccess
p1389
(dp1390
g15
S'intToStr'
p1391
sg191
(lp1392
(idelphi
DelphiFunctionEndAccess
p1393
(dp1394
g275
(lp1395
(i__main__
DelphiIdentAccess
p1396
(dp1397
g15
S'getNonNumericalParametersFrom'
p1398
sg191
(lp1399
sbasbasbsg340
(idelphi
DelphiStringAccess
p1400
(dp1401
g191
(lp1402
sg14
(idelphi
DelphiStringValue
p1403
(dp1404
g14
S'Non-numeric='
p1405
sbsbsbasbasbsba(i__main__
DelphiAssignStatement
p1406
(dp1407
g270
Nsg271
(i__main__
DelphiIdentAccess
p1408
(dp1409
g15
S'writeln'
p1410
sg191
(lp1411
(idelphi
DelphiFunctionEndAccess
p1412
(dp1413
g275
(lp1414
(i__main__
DelphiIdentAccess
p1415
(dp1416
g15
S'outputFile'
p1417
sg191
(lp1418
sba(idelphi
DelphiAddOp
p1419
(dp1420
g336
S'+'
sg337
(i__main__
DelphiIdentAccess
p1421
(dp1422
g15
S'boolToStr'
p1423
sg191
(lp1424
(idelphi
DelphiFunctionEndAccess
p1425
(dp1426
g275
(lp1427
(i__main__
DelphiIdentAccess
p1428
(dp1429
g15
S'mutateAndBlendColorValues'
p1430
sg191
(lp1431
sbasbasbsg340
(idelphi
DelphiStringAccess
p1432
(dp1433
g191
(lp1434
sg14
(idelphi
DelphiStringValue
p1435
(dp1436
g14
S'Vary colors='
p1437
sbsbsbasbasbsba(i__main__
DelphiAssignStatement
p1438
(dp1439
g270
Nsg271
(i__main__
DelphiIdentAccess
p1440
(dp1441
g15
S'writeln'
p1442
sg191
(lp1443
(idelphi
DelphiFunctionEndAccess
p1444
(dp1445
g275
(lp1446
(i__main__
DelphiIdentAccess
p1447
(dp1448
g15
S'outputFile'
p1449
sg191
(lp1450
sba(idelphi
DelphiAddOp
p1451
(dp1452
g336
S'+'
sg337
(i__main__
DelphiIdentAccess
p1453
(dp1454
g15
S'boolToStr'
p1455
sg191
(lp1456
(idelphi
DelphiFunctionEndAccess
p1457
(dp1458
g275
(lp1459
(i__main__
DelphiIdentAccess
p1460
(dp1461
g15
S'chooseTdosRandomlyFromCurrentLibrary'
p1462
sg191
(lp1463
sbasbasbsg340
(idelphi
DelphiStringAccess
p1464
(dp1465
g191
(lp1466
sg14
(idelphi
DelphiStringValue
p1467
(dp1468
g14
S'Vary 3D objects='
p1469
sbsbsbasbasbsbasg1088
(lp1470
(i__main__
DelphiAssignStatement
p1471
(dp1472
g270
Nsg271
(i__main__
DelphiIdentAccess
p1473
(dp1474
g15
S'closeFile'
p1475
sg191
(lp1476
(idelphi
DelphiFunctionEndAccess
p1477
(dp1478
g275
(lp1479
(i__main__
DelphiIdentAccess
p1480
(dp1481
g15
S'outputFile'
p1482
sg191
(lp1483
sbasbasbsbasbasbsg405
(lp1484
(i__main__
DelphiVarSection
p1485
(dp1486
g79
I0
sg409
(lp1487
(idelphi
DelphiVarDecl
p1488
(dp1489
g11
Nsg413
(lp1490
S'outputFile'
p1491
asg17
(i__main__
DelphiNamedType
p1492
(dp1493
g20
S'TextFile'
p1494
sg123
g1
sg124
Nsbsba(idelphi
DelphiVarDecl
p1495
(dp1496
g11
Nsg413
(lp1497
S'i'
asg17
(i__main__
DelphiPrimitiveType
p1498
(dp1499
g20
g182
sbsbasbasbsbssS'propertyDeclarations'
p1500
(dp1501
sS'variableNamesInDeclaredOrder'
p1502
(lp1503
g85
ag91
ag89
ag87
ag93
asbasS'includedUnits'
p1504
NsS'implementationUses'
p1505
(lp1506
S'SysUtils'
p1507
aS'usstream'
p1508
aS'uclasses'
p1509
aS'usupport'
p1510
asg94
S'Ubrstrat'
p1511
sS'constSections'
p1512
(lp1513
g5
asS'globalsInProperCase'
p1514
NsS'interfaceUses'
p1515
(lp1516
S'delphi_compatability'
p1517
aS'ufiler'
p1518
asS'finalCommentToken'
p1519
(i__main__
PassStatement
p1520
(dp1521
g405
(lp1522
sbsS'varSections'
p1523
(lp1524
sS'globals'
p1525
NsS'originalFileName'
p1526
S'../../PlantStudioInPython/converted_source/ubrstrat.pas'
p1527
sS'proceduralImplementations'
p1528
(dp1529
sS'fileName'
p1530
S'/Users/pdf/Documents/workspace/PlantStudioInPython/converted_source/ubrstrat.pas'
p1531
sS'proceduralDeclarations'
p1532
(dp1533
sS'types'
p1534
(dp1535
S'pdbreedingstrategy'
p1536
g80
ssb.