(i__main__
DelphiUnit
p1
(dp2
S'sectionsInOrderDefined'
p3
(lp4
(i__main__
DelphiConstSection
p5
(dp6
S'constDeclList'
p7
(lp8
(idelphi
DelphiConstDeclaration
p9
(dp10
S'constExpression'
p11
(idelphi
DelphiIntegerValue
p12
(dp13
S'string'
p14
S'14501'
p15
sbsS'ident'
p16
S'kTNil'
p17
sS'theType'
p18
(idelphi
DelphiPrimitiveType
p19
(dp20
S'typeName'
p21
S'UNDEFINED_NEEDS_CALCULATION'
p22
sbsba(idelphi
DelphiConstDeclaration
p23
(dp24
g11
(idelphi
DelphiIntegerValue
p25
(dp26
g14
S'14502'
p27
sbsg16
S'kPdStreamableObject'
p28
sg18
(idelphi
DelphiPrimitiveType
p29
(dp30
g21
g22
sbsba(idelphi
DelphiConstDeclaration
p31
(dp32
g11
(idelphi
DelphiIntegerValue
p33
(dp34
g14
S'14503'
p35
sbsg16
S'kPdPlant'
p36
sg18
(idelphi
DelphiPrimitiveType
p37
(dp38
g21
g22
sbsba(idelphi
DelphiConstDeclaration
p39
(dp40
g11
(idelphi
DelphiIntegerValue
p41
(dp42
g14
S'14505'
p43
sbsg16
S'kPdPlantPart'
p44
sg18
(idelphi
DelphiPrimitiveType
p45
(dp46
g21
g22
sbsba(idelphi
DelphiConstDeclaration
p47
(dp48
g11
(idelphi
DelphiIntegerValue
p49
(dp50
g14
S'14506'
p51
sbsg16
S'kPdInternode'
p52
sg18
(idelphi
DelphiPrimitiveType
p53
(dp54
g21
g22
sbsba(idelphi
DelphiConstDeclaration
p55
(dp56
g11
(idelphi
DelphiIntegerValue
p57
(dp58
g14
S'14507'
p59
sbsg16
S'kPdLeaf'
p60
sg18
(idelphi
DelphiPrimitiveType
p61
(dp62
g21
g22
sbsba(idelphi
DelphiConstDeclaration
p63
(dp64
g11
(idelphi
DelphiIntegerValue
p65
(dp66
g14
S'14508'
p67
sbsg16
S'kPdMeristem'
p68
sg18
(idelphi
DelphiPrimitiveType
p69
(dp70
g21
g22
sbsba(idelphi
DelphiConstDeclaration
p71
(dp72
g11
(idelphi
DelphiIntegerValue
p73
(dp74
g14
S'14509'
p75
sbsg16
S'kPdInflorescence'
p76
sg18
(idelphi
DelphiPrimitiveType
p77
(dp78
g21
g22
sbsba(idelphi
DelphiConstDeclaration
p79
(dp80
g11
(idelphi
DelphiIntegerValue
p81
(dp82
g14
S'14510'
p83
sbsg16
S'kPdFlowerFruit'
p84
sg18
(idelphi
DelphiPrimitiveType
p85
(dp86
g21
g22
sbsba(idelphi
DelphiConstDeclaration
p87
(dp88
g11
(idelphi
DelphiIntegerValue
p89
(dp90
g14
S'14511'
p91
sbsg16
S'kKfObject3D'
p92
sg18
(idelphi
DelphiPrimitiveType
p93
(dp94
g21
g22
sbsba(idelphi
DelphiConstDeclaration
p95
(dp96
g11
(idelphi
DelphiIntegerValue
p97
(dp98
g14
S'14512'
p99
sbsg16
S'kKfIndexTriangle'
p100
sg18
(idelphi
DelphiPrimitiveType
p101
(dp102
g21
g22
sbsba(idelphi
DelphiConstDeclaration
p103
(dp104
g11
(idelphi
DelphiIntegerValue
p105
(dp106
g14
S'14513'
p107
sbsg16
S'KPdRandom'
p108
sg18
(idelphi
DelphiPrimitiveType
p109
(dp110
g21
g22
sbsba(idelphi
DelphiConstDeclaration
p111
(dp112
g11
(idelphi
DelphiIntegerValue
p113
(dp114
g14
S'14514'
p115
sbsg16
S'kPdBreedingStrategy'
p116
sg18
(idelphi
DelphiPrimitiveType
p117
(dp118
g21
g22
sbsba(idelphi
DelphiConstDeclaration
p119
(dp120
g11
(idelphi
DelphiIntegerValue
p121
(dp122
g14
S'14515'
p123
sbsg16
S'kPdPlantDrawingAmendment'
p124
sg18
(idelphi
DelphiPrimitiveType
p125
(dp126
g21
g22
sbsbasS'atTopLevel'
p127
I1
sba(i__main__
DelphiProceduralImplementation
p128
(dp129
S'originalDeclaration'
p130
(i__main__
DelphiProceduralDeclaration
p131
(dp132
S'formalParameters'
p133
(lp134
(i__main__
DelphiFormalParameter
p135
(dp136
S'initialValue'
p137
NsS'names'
p138
(lp139
S'cvir'
p140
asg18
(i__main__
DelphiNamedType
p141
(dp142
g21
S'PdClassAndVersionInformationRecord'
p143
sS'unitDefinedIn'
p144
g1
sS'unitName'
p145
NsbsS'parameterVariety'
p146
S'const'
p147
sbasS'commentLinesBefore'
p148
(lp149
S' kPdDayPlant = 14504;\r'
p150
asS'name'
p151
S'CreateStreamableObjectFromClassAndVersionInformation'
p152
sS'resultType'
p153
(i__main__
DelphiNamedType
p154
(dp155
g21
S'PdStreamableObject'
p156
sg144
g1
sg145
Nsbsbsg151
g152
sg153
(i__main__
DelphiNamedType
p157
(dp158
g21
S'PdStreamableObject'
p159
sg144
g1
sg145
NsbsS'varParamIndexes'
p160
(lp161
sS'varParamsSkipped'
p162
(lp163
sS'argNames'
p164
(lp165
S'cvir'
p166
asS'argTypes'
p167
(dp168
g166
(i__main__
DelphiNamedType
p169
(dp170
g21
S'PdClassAndVersionInformationRecord'
p171
sg144
g1
sg145
Nsbssg133
(lp172
(i__main__
DelphiFormalParameter
p173
(dp174
g137
Nsg138
(lp175
g166
asg18
g169
sg146
g147
sbasS'varParamNames'
p176
(lp177
sS'block'
p178
(i__main__
DelphiBlock
p179
(dp180
S'compoundStatement'
p181
(idelphi
DelphiCompoundStatement
p182
(dp183
S'statements'
p184
(lp185
(idelphi
DelphiCaseStatement
p186
(dp187
S'elseStatement'
p188
(idelphi
DelphiCompoundStatement
p189
(dp190
g184
(lp191
(idelphi
DelphiRaiseStatement
p192
(dp193
S'expression'
p194
(i__main__
DelphiIdentAccess
p195
(dp196
g16
S'Exception'
p197
sS'endAccessList'
p198
(lp199
(idelphi
DelphiFieldEndAccess
p200
(dp201
S'field'
p202
S'create'
p203
sba(idelphi
DelphiFunctionEndAccess
p204
(dp205
S'expressionList'
p206
(lp207
(idelphi
DelphiAddOp
p208
(dp209
S'addOp'
p210
S'+'
sS'term2'
p211
(i__main__
DelphiIdentAccess
p212
(dp213
g16
S'IntToStr'
p214
sg198
(lp215
(idelphi
DelphiFunctionEndAccess
p216
(dp217
g206
(lp218
(i__main__
DelphiIdentAccess
p219
(dp220
g16
S'cvir'
p221
sg198
(lp222
(idelphi
DelphiFieldEndAccess
p223
(dp224
g202
S'classNumber'
p225
sbasbasbasbsS'term1'
p226
(idelphi
DelphiStringAccess
p227
(dp228
g198
(lp229
sg14
(idelphi
DelphiStringValue
p230
(dp231
g14
S'Problem: Unknown class '
p232
sbsbsbasbasbsba(i__main__
DelphiAssignStatement
p233
(dp234
S'newValueExpression'
p235
(idelphi
DelphiNilValue
p236
(dp237
bsS'destinationExpression'
p238
(i__main__
DelphiIdentAccess
p239
(dp240
g16
S'result'
p241
sg198
(lp242
sbsbasbsg194
(i__main__
DelphiIdentAccess
p243
(dp244
g16
S'cvir'
p245
sg198
(lp246
(idelphi
DelphiFieldEndAccess
p247
(dp248
g202
S'classNumber'
p249
sbasbsS'caseSelectorList'
p250
(lp251
(idelphi
DelphiCaseSelector
p252
(dp253
S'statement'
p254
(i__main__
DelphiAssignStatement
p255
(dp256
g235
(idelphi
DelphiNilValue
p257
(dp258
bsg238
(i__main__
DelphiIdentAccess
p259
(dp260
g16
S'result'
p261
sg198
(lp262
sbsbsS'caseLabelList'
p263
(lp264
(i__main__
DelphiIdentAccess
p265
(dp266
g16
S'kTNil'
p267
sg198
(lp268
sbasba(idelphi
DelphiCaseSelector
p269
(dp270
g254
(idelphi
DelphiRaiseStatement
p271
(dp272
g194
(i__main__
DelphiIdentAccess
p273
(dp274
g16
S'Exception'
p275
sg198
(lp276
(idelphi
DelphiFieldEndAccess
p277
(dp278
g202
S'create'
p279
sba(idelphi
DelphiFunctionEndAccess
p280
(dp281
g206
(lp282
(idelphi
DelphiAddOp
p283
(dp284
g210
S'+'
sg211
(i__main__
DelphiIdentAccess
p285
(dp286
g16
S'IntToStr'
p287
sg198
(lp288
(idelphi
DelphiFunctionEndAccess
p289
(dp290
g206
(lp291
(i__main__
DelphiIdentAccess
p292
(dp293
g16
S'cvir'
p294
sg198
(lp295
(idelphi
DelphiFieldEndAccess
p296
(dp297
g202
S'classNumber'
p298
sbasbasbasbsg226
(idelphi
DelphiStringAccess
p299
(dp300
g198
(lp301
sg14
(idelphi
DelphiStringValue
p302
(dp303
g14
S'Problem: Should not stream PdStreamableObject abstract class '
p304
sbsbsbasbasbsbsg263
(lp305
(i__main__
DelphiIdentAccess
p306
(dp307
g16
S'kPdStreamableObject'
p308
sg198
(lp309
sbasbasbasbsS'limitedDeclSectionList'
p310
(lp311
sbsg148
g149
sbasS'includedUnits'
p312
NsS'implementationUses'
p313
(lp314
S'SysUtils'
p315
asg151
S'Uclasses'
p316
sS'constSections'
p317
(lp318
g5
asS'globalsInProperCase'
p319
NsS'interfaceUses'
p320
(lp321
S'delphi_compatability'
p322
aS'ufiler'
p323
asS'finalCommentToken'
p324
(i__main__
PassStatement
p325
(dp326
g310
(lp327
sbsS'varSections'
p328
(lp329
sS'globals'
p330
NsS'originalFileName'
p331
S'../../PlantStudioInPython/converted_source/uclasses.pas'
p332
sS'proceduralImplementations'
p333
(dp334
S'createstreamableobjectfromclassandversioninformation'
p335
g128
ssS'fileName'
p336
S'/Users/pdf/Documents/workspace/PlantStudioInPython/converted_source/uclasses.pas'
p337
sS'proceduralDeclarations'
p338
(dp339
S'createstreamableobjectfromclassandversioninformation'
p340
g131
ssS'types'
p341
(dp342
sb.