(i__main__
DelphiUnit
p1
(dp2
S'sectionsInOrderDefined'
p3
(lp4
(i__main__
DelphiConstSection
p5
(dp6
S'constDeclList'
p7
(lp8
(idelphi
DelphiConstDeclaration
p9
(dp10
S'constExpression'
p11
(idelphi
DelphiIntegerValue
p12
(dp13
S'string'
p14
S'1'
sbsS'ident'
p15
S'crMagMinus'
p16
sS'theType'
p17
(idelphi
DelphiPrimitiveType
p18
(dp19
S'typeName'
p20
S'UNDEFINED_NEEDS_CALCULATION'
p21
sbsba(idelphi
DelphiConstDeclaration
p22
(dp23
g11
(idelphi
DelphiIntegerValue
p24
(dp25
g14
S'2'
sbsg15
S'crMagPlus'
p26
sg17
(idelphi
DelphiPrimitiveType
p27
(dp28
g20
g21
sbsba(idelphi
DelphiConstDeclaration
p29
(dp30
g11
(idelphi
DelphiIntegerValue
p31
(dp32
g14
S'3'
sbsg15
S'crScroll'
p33
sg17
(idelphi
DelphiPrimitiveType
p34
(dp35
g20
g21
sbsba(idelphi
DelphiConstDeclaration
p36
(dp37
g11
(idelphi
DelphiIntegerValue
p38
(dp39
g14
S'4'
sbsg15
S'crRotate'
p40
sg17
(idelphi
DelphiPrimitiveType
p41
(dp42
g20
g21
sbsba(idelphi
DelphiConstDeclaration
p43
(dp44
g11
(idelphi
DelphiIntegerValue
p45
(dp46
g14
S'5'
sbsg15
S'crDragPlant'
p47
sg17
(idelphi
DelphiPrimitiveType
p48
(dp49
g20
g21
sbsba(idelphi
DelphiConstDeclaration
p50
(dp51
g11
(idelphi
DelphiIntegerValue
p52
(dp53
g14
S'6'
sbsg15
S'crAddTriangle'
p54
sg17
(idelphi
DelphiPrimitiveType
p55
(dp56
g20
g21
sbsba(idelphi
DelphiConstDeclaration
p57
(dp58
g11
(idelphi
DelphiIntegerValue
p59
(dp60
g14
S'7'
sbsg15
S'crDeleteTriangle'
p61
sg17
(idelphi
DelphiPrimitiveType
p62
(dp63
g20
g21
sbsba(idelphi
DelphiConstDeclaration
p64
(dp65
g11
(idelphi
DelphiIntegerValue
p66
(dp67
g14
S'8'
sbsg15
S'crFlipTriangle'
p68
sg17
(idelphi
DelphiPrimitiveType
p69
(dp70
g20
g21
sbsba(idelphi
DelphiConstDeclaration
p71
(dp72
g11
(idelphi
DelphiIntegerValue
p73
(dp74
g14
S'9'
sbsg15
S'crDragPoint'
p75
sg17
(idelphi
DelphiPrimitiveType
p76
(dp77
g20
g21
sbsba(idelphi
DelphiConstDeclaration
p78
(dp79
g11
(idelphi
DelphiIntegerValue
p80
(dp81
g14
S'10'
p82
sbsg15
S'crDragTdo'
p83
sg17
(idelphi
DelphiPrimitiveType
p84
(dp85
g20
g21
sbsba(idelphi
DelphiConstDeclaration
p86
(dp87
g11
(idelphi
DelphiIntegerValue
p88
(dp89
g14
S'11'
p90
sbsg15
S'crPosingSelect'
p91
sg17
(idelphi
DelphiPrimitiveType
p92
(dp93
g20
g21
sbsbasS'atTopLevel'
p94
I1
sba(i__main__
DelphiVarSection
p95
(dp96
g94
I1
sS'varDeclList'
p97
(lp98
(idelphi
DelphiVarDecl
p99
(dp100
g11
NsS'identList'
p101
(lp102
S'waitState'
p103
asg17
(i__main__
DelphiPrimitiveType
p104
(dp105
g20
S'integer'
p106
sbsbasba(i__main__
DelphiProceduralImplementation
p107
(dp108
S'originalDeclaration'
p109
(i__main__
DelphiProceduralDeclaration
p110
(dp111
S'formalParameters'
p112
(lp113
sS'name'
p114
S'cursor_initializeWait'
p115
sS'resultType'
p116
Nsbsg114
g115
sg116
NsS'varParamIndexes'
p117
(lp118
sS'varParamsSkipped'
p119
(lp120
sS'argNames'
p121
(lp122
sS'argTypes'
p123
(dp124
sg112
(lp125
sS'varParamNames'
p126
(lp127
sS'block'
p128
(i__main__
DelphiBlock
p129
(dp130
S'compoundStatement'
p131
(idelphi
DelphiCompoundStatement
p132
(dp133
S'statements'
p134
(lp135
(i__main__
DelphiAssignStatement
p136
(dp137
S'newValueExpression'
p138
(idelphi
DelphiIntegerValue
p139
(dp140
g14
S'0'
sbsS'destinationExpression'
p141
(i__main__
DelphiIdentAccess
p142
(dp143
g15
S'waitState'
p144
sS'endAccessList'
p145
(lp146
sbsbasbsS'limitedDeclSectionList'
p147
(lp148
sbsS'commentLinesBefore'
p149
(lp150
S'$R CURSOR32'
p151
asba(i__main__
DelphiProceduralImplementation
p152
(dp153
g109
(i__main__
DelphiProceduralDeclaration
p154
(dp155
g112
(lp156
sg114
S'cursor_startWait'
p157
sg116
Nsbsg114
g157
sg116
Nsg117
(lp158
sg119
(lp159
sg121
(lp160
sg123
(dp161
sg112
(lp162
sg126
(lp163
sg128
(i__main__
DelphiBlock
p164
(dp165
g131
(idelphi
DelphiCompoundStatement
p166
(dp167
g134
(lp168
(i__main__
DelphiIncOrDecStatement
p169
(dp170
S'incOrDecString'
p171
S'inc'
p172
sS'incrementExpression'
p173
Nsg141
(i__main__
DelphiIdentAccess
p174
(dp175
g15
S'waitState'
p176
sg145
(lp177
sbsba(i__main__
DelphiAssignStatement
p178
(dp179
g138
(i__main__
DelphiIdentAccess
p180
(dp181
g15
S'crHourglass'
p182
sg145
(lp183
sbsg141
(i__main__
DelphiIdentAccess
p184
(dp185
g15
S'screen'
p186
sg145
(lp187
(idelphi
DelphiFieldEndAccess
p188
(dp189
S'field'
p190
S'cursor'
p191
sbasbsbasbsg147
(lp192
sbsba(i__main__
DelphiProceduralImplementation
p193
(dp194
g109
(i__main__
DelphiProceduralDeclaration
p195
(dp196
g112
(lp197
sg114
S'cursor_startWaitIfNotWaiting'
p198
sg116
Nsbsg114
g198
sg116
Nsg117
(lp199
sg119
(lp200
sg121
(lp201
sg123
(dp202
sg112
(lp203
sg126
(lp204
sg128
(i__main__
DelphiBlock
p205
(dp206
g131
(idelphi
DelphiCompoundStatement
p207
(dp208
g134
(lp209
(idelphi
DelphiIfStatement
p210
(dp211
S'expression'
p212
(idelphi
DelphiRelOp
p213
(dp214
S'simpleExpression1'
p215
(i__main__
DelphiIdentAccess
p216
(dp217
g15
S'waitState'
p218
sg145
(lp219
sbsS'simpleExpression2'
p220
(idelphi
DelphiIntegerValue
p221
(dp222
g14
S'0'
sbsS'relOp'
p223
S'='
sbsS'ifFalseStatement'
p224
NsS'ifTrueStatement'
p225
(i__main__
DelphiAssignStatement
p226
(dp227
g138
Nsg141
(i__main__
DelphiIdentAccess
p228
(dp229
g15
S'cursor_startWait'
p230
sg145
(lp231
sbsbsbasbsg147
(lp232
sbsba(i__main__
DelphiProceduralImplementation
p233
(dp234
g109
(i__main__
DelphiProceduralDeclaration
p235
(dp236
g112
(lp237
sg114
S'cursor_stopWait'
p238
sg116
Nsbsg114
g238
sg116
Nsg117
(lp239
sg119
(lp240
sg121
(lp241
sg123
(dp242
sg112
(lp243
sg126
(lp244
sg128
(i__main__
DelphiBlock
p245
(dp246
g131
(idelphi
DelphiCompoundStatement
p247
(dp248
g134
(lp249
(idelphi
DelphiIfStatement
p250
(dp251
g212
(idelphi
DelphiRelOp
p252
(dp253
g215
(i__main__
DelphiIdentAccess
p254
(dp255
g15
S'waitState'
p256
sg145
(lp257
sbsg220
(idelphi
DelphiIntegerValue
p258
(dp259
g14
S'0'
sbsg223
S'>'
sbsg224
Nsg225
(idelphi
DelphiCompoundStatement
p260
(dp261
g134
(lp262
(i__main__
DelphiIncOrDecStatement
p263
(dp264
g171
S'dec'
p265
sg173
Nsg141
(i__main__
DelphiIdentAccess
p266
(dp267
g15
S'waitState'
p268
sg145
(lp269
sbsba(idelphi
DelphiIfStatement
p270
(dp271
g212
(idelphi
DelphiRelOp
p272
(dp273
g215
(i__main__
DelphiIdentAccess
p274
(dp275
g15
S'waitState'
p276
sg145
(lp277
sbsg220
(idelphi
DelphiIntegerValue
p278
(dp279
g14
S'0'
sbsg223
S'='
sbsg224
Nsg225
(i__main__
DelphiAssignStatement
p280
(dp281
g138
(i__main__
DelphiIdentAccess
p282
(dp283
g15
S'crDefault'
p284
sg145
(lp285
sbsg141
(i__main__
DelphiIdentAccess
p286
(dp287
g15
S'screen'
p288
sg145
(lp289
(idelphi
DelphiFieldEndAccess
p290
(dp291
g190
S'cursor'
p292
sbasbsbsbasbsbasbsg147
(lp293
sbsba(i__main__
DelphiProceduralImplementation
p294
(dp295
g109
(i__main__
DelphiProceduralDeclaration
p296
(dp297
g112
(lp298
sg114
S'cursor_loadCustomCursors'
p299
sg116
Nsbsg114
g299
sg116
Nsg117
(lp300
sg119
(lp301
sg121
(lp302
sg123
(dp303
sg112
(lp304
sg126
(lp305
sg128
(i__main__
DelphiBlock
p306
(dp307
g131
(idelphi
DelphiCompoundStatement
p308
(dp309
g134
(lp310
(i__main__
DelphiAssignStatement
p311
(dp312
g138
(i__main__
DelphiIdentAccess
p313
(dp314
g15
S'LoadCursor'
p315
sg145
(lp316
(idelphi
DelphiFunctionEndAccess
p317
(dp318
S'expressionList'
p319
(lp320
(i__main__
DelphiIdentAccess
p321
(dp322
g15
S'HInstance'
p323
sg145
(lp324
sba(idelphi
DelphiStringAccess
p325
(dp326
g145
(lp327
sg14
(idelphi
DelphiStringValue
p328
(dp329
g14
S'MAGMINUS'
p330
sbsbasbasbsg141
(i__main__
DelphiIdentAccess
p331
(dp332
g15
S'Screen'
p333
sg145
(lp334
(idelphi
DelphiFieldEndAccess
p335
(dp336
g190
S'Cursors'
p337
sba(idelphi
DelphiArrayEndAccess
p338
(dp339
g319
(lp340
(i__main__
DelphiIdentAccess
p341
(dp342
g15
S'crMagMinus'
p343
sg145
(lp344
sbasbasbsba(i__main__
DelphiAssignStatement
p345
(dp346
g138
(i__main__
DelphiIdentAccess
p347
(dp348
g15
S'LoadCursor'
p349
sg145
(lp350
(idelphi
DelphiFunctionEndAccess
p351
(dp352
g319
(lp353
(i__main__
DelphiIdentAccess
p354
(dp355
g15
S'HInstance'
p356
sg145
(lp357
sba(idelphi
DelphiStringAccess
p358
(dp359
g145
(lp360
sg14
(idelphi
DelphiStringValue
p361
(dp362
g14
S'MAGPLUS'
p363
sbsbasbasbsg141
(i__main__
DelphiIdentAccess
p364
(dp365
g15
S'Screen'
p366
sg145
(lp367
(idelphi
DelphiFieldEndAccess
p368
(dp369
g190
S'Cursors'
p370
sba(idelphi
DelphiArrayEndAccess
p371
(dp372
g319
(lp373
(i__main__
DelphiIdentAccess
p374
(dp375
g15
S'crMagPlus'
p376
sg145
(lp377
sbasbasbsba(i__main__
DelphiAssignStatement
p378
(dp379
g138
(i__main__
DelphiIdentAccess
p380
(dp381
g15
S'LoadCursor'
p382
sg145
(lp383
(idelphi
DelphiFunctionEndAccess
p384
(dp385
g319
(lp386
(i__main__
DelphiIdentAccess
p387
(dp388
g15
S'HInstance'
p389
sg145
(lp390
sba(idelphi
DelphiStringAccess
p391
(dp392
g145
(lp393
sg14
(idelphi
DelphiStringValue
p394
(dp395
g14
S'SCROLL'
p396
sbsbasbasbsg141
(i__main__
DelphiIdentAccess
p397
(dp398
g15
S'Screen'
p399
sg145
(lp400
(idelphi
DelphiFieldEndAccess
p401
(dp402
g190
S'Cursors'
p403
sba(idelphi
DelphiArrayEndAccess
p404
(dp405
g319
(lp406
(i__main__
DelphiIdentAccess
p407
(dp408
g15
S'crScroll'
p409
sg145
(lp410
sbasbasbsba(i__main__
DelphiAssignStatement
p411
(dp412
g138
(i__main__
DelphiIdentAccess
p413
(dp414
g15
S'LoadCursor'
p415
sg145
(lp416
(idelphi
DelphiFunctionEndAccess
p417
(dp418
g319
(lp419
(i__main__
DelphiIdentAccess
p420
(dp421
g15
S'HInstance'
p422
sg145
(lp423
sba(idelphi
DelphiStringAccess
p424
(dp425
g145
(lp426
sg14
(idelphi
DelphiStringValue
p427
(dp428
g14
S'ROTATE'
p429
sbsbasbasbsg141
(i__main__
DelphiIdentAccess
p430
(dp431
g15
S'Screen'
p432
sg145
(lp433
(idelphi
DelphiFieldEndAccess
p434
(dp435
g190
S'Cursors'
p436
sba(idelphi
DelphiArrayEndAccess
p437
(dp438
g319
(lp439
(i__main__
DelphiIdentAccess
p440
(dp441
g15
S'crRotate'
p442
sg145
(lp443
sbasbasbsba(i__main__
DelphiAssignStatement
p444
(dp445
g138
(i__main__
DelphiIdentAccess
p446
(dp447
g15
S'LoadCursor'
p448
sg145
(lp449
(idelphi
DelphiFunctionEndAccess
p450
(dp451
g319
(lp452
(i__main__
DelphiIdentAccess
p453
(dp454
g15
S'HInstance'
p455
sg145
(lp456
sba(idelphi
DelphiStringAccess
p457
(dp458
g145
(lp459
sg14
(idelphi
DelphiStringValue
p460
(dp461
g14
S'DRAGPLANT'
p462
sbsbasbasbsg141
(i__main__
DelphiIdentAccess
p463
(dp464
g15
S'Screen'
p465
sg145
(lp466
(idelphi
DelphiFieldEndAccess
p467
(dp468
g190
S'Cursors'
p469
sba(idelphi
DelphiArrayEndAccess
p470
(dp471
g319
(lp472
(i__main__
DelphiIdentAccess
p473
(dp474
g15
S'crDragPlant'
p475
sg145
(lp476
sbasbasbsba(i__main__
DelphiAssignStatement
p477
(dp478
g138
(i__main__
DelphiIdentAccess
p479
(dp480
g15
S'LoadCursor'
p481
sg145
(lp482
(idelphi
DelphiFunctionEndAccess
p483
(dp484
g319
(lp485
(i__main__
DelphiIdentAccess
p486
(dp487
g15
S'HInstance'
p488
sg145
(lp489
sba(idelphi
DelphiStringAccess
p490
(dp491
g145
(lp492
sg14
(idelphi
DelphiStringValue
p493
(dp494
g14
S'ADDTRIANGLEPOINT'
p495
sbsbasbasbsg141
(i__main__
DelphiIdentAccess
p496
(dp497
g15
S'Screen'
p498
sg145
(lp499
(idelphi
DelphiFieldEndAccess
p500
(dp501
g190
S'Cursors'
p502
sba(idelphi
DelphiArrayEndAccess
p503
(dp504
g319
(lp505
(i__main__
DelphiIdentAccess
p506
(dp507
g15
S'crAddTriangle'
p508
sg145
(lp509
sbasbasbsba(i__main__
DelphiAssignStatement
p510
(dp511
g138
(i__main__
DelphiIdentAccess
p512
(dp513
g15
S'LoadCursor'
p514
sg145
(lp515
(idelphi
DelphiFunctionEndAccess
p516
(dp517
g319
(lp518
(i__main__
DelphiIdentAccess
p519
(dp520
g15
S'HInstance'
p521
sg145
(lp522
sba(idelphi
DelphiStringAccess
p523
(dp524
g145
(lp525
sg14
(idelphi
DelphiStringValue
p526
(dp527
g14
S'DELETETRIANGLE'
p528
sbsbasbasbsg141
(i__main__
DelphiIdentAccess
p529
(dp530
g15
S'Screen'
p531
sg145
(lp532
(idelphi
DelphiFieldEndAccess
p533
(dp534
g190
S'Cursors'
p535
sba(idelphi
DelphiArrayEndAccess
p536
(dp537
g319
(lp538
(i__main__
DelphiIdentAccess
p539
(dp540
g15
S'crDeleteTriangle'
p541
sg145
(lp542
sbasbasbsba(i__main__
DelphiAssignStatement
p543
(dp544
g138
(i__main__
DelphiIdentAccess
p545
(dp546
g15
S'LoadCursor'
p547
sg145
(lp548
(idelphi
DelphiFunctionEndAccess
p549
(dp550
g319
(lp551
(i__main__
DelphiIdentAccess
p552
(dp553
g15
S'HInstance'
p554
sg145
(lp555
sba(idelphi
DelphiStringAccess
p556
(dp557
g145
(lp558
sg14
(idelphi
DelphiStringValue
p559
(dp560
g14
S'FLIPTRIANGLE'
p561
sbsbasbasbsg141
(i__main__
DelphiIdentAccess
p562
(dp563
g15
S'Screen'
p564
sg145
(lp565
(idelphi
DelphiFieldEndAccess
p566
(dp567
g190
S'Cursors'
p568
sba(idelphi
DelphiArrayEndAccess
p569
(dp570
g319
(lp571
(i__main__
DelphiIdentAccess
p572
(dp573
g15
S'crFlipTriangle'
p574
sg145
(lp575
sbasbasbsba(i__main__
DelphiAssignStatement
p576
(dp577
g138
(i__main__
DelphiIdentAccess
p578
(dp579
g15
S'LoadCursor'
p580
sg145
(lp581
(idelphi
DelphiFunctionEndAccess
p582
(dp583
g319
(lp584
(i__main__
DelphiIdentAccess
p585
(dp586
g15
S'HInstance'
p587
sg145
(lp588
sba(idelphi
DelphiStringAccess
p589
(dp590
g145
(lp591
sg14
(idelphi
DelphiStringValue
p592
(dp593
g14
S'DRAGPOINT'
p594
sbsbasbasbsg141
(i__main__
DelphiIdentAccess
p595
(dp596
g15
S'Screen'
p597
sg145
(lp598
(idelphi
DelphiFieldEndAccess
p599
(dp600
g190
S'Cursors'
p601
sba(idelphi
DelphiArrayEndAccess
p602
(dp603
g319
(lp604
(i__main__
DelphiIdentAccess
p605
(dp606
g15
S'crDragPoint'
p607
sg145
(lp608
sbasbasbsba(i__main__
DelphiAssignStatement
p609
(dp610
g138
(i__main__
DelphiIdentAccess
p611
(dp612
g15
S'LoadCursor'
p613
sg145
(lp614
(idelphi
DelphiFunctionEndAccess
p615
(dp616
g319
(lp617
(i__main__
DelphiIdentAccess
p618
(dp619
g15
S'HInstance'
p620
sg145
(lp621
sba(idelphi
DelphiStringAccess
p622
(dp623
g145
(lp624
sg14
(idelphi
DelphiStringValue
p625
(dp626
g14
S'DRAGTDO'
p627
sbsbasbasbsg141
(i__main__
DelphiIdentAccess
p628
(dp629
g15
S'Screen'
p630
sg145
(lp631
(idelphi
DelphiFieldEndAccess
p632
(dp633
g190
S'Cursors'
p634
sba(idelphi
DelphiArrayEndAccess
p635
(dp636
g319
(lp637
(i__main__
DelphiIdentAccess
p638
(dp639
g15
S'crDragTdo'
p640
sg145
(lp641
sbasbasbsba(i__main__
DelphiAssignStatement
p642
(dp643
g138
(i__main__
DelphiIdentAccess
p644
(dp645
g15
S'LoadCursor'
p646
sg145
(lp647
(idelphi
DelphiFunctionEndAccess
p648
(dp649
g319
(lp650
(i__main__
DelphiIdentAccess
p651
(dp652
g15
S'HInstance'
p653
sg145
(lp654
sba(idelphi
DelphiStringAccess
p655
(dp656
g145
(lp657
sg14
(idelphi
DelphiStringValue
p658
(dp659
g14
S'POSINGSELECT'
p660
sbsbasbasbsg141
(i__main__
DelphiIdentAccess
p661
(dp662
g15
S'Screen'
p663
sg145
(lp664
(idelphi
DelphiFieldEndAccess
p665
(dp666
g190
S'Cursors'
p667
sba(idelphi
DelphiArrayEndAccess
p668
(dp669
g319
(lp670
(i__main__
DelphiIdentAccess
p671
(dp672
g15
S'crPosingSelect'
p673
sg145
(lp674
sbasbasbsbasbsg147
(lp675
sbsg149
(lp676
S"Note:\tYou don't need to call the WinAPI function DestroyCursor when you are finished using the custom\r"
p677
aS'cursor; Delphi does this automatically. '
p678
asbasS'includedUnits'
p679
NsS'implementationUses'
p680
(lp681
S'SysUtils'
p682
aS'Controls'
p683
aS'Forms'
p684
asg114
S'ucursor'
p685
sS'constSections'
p686
(lp687
g5
asS'globalsInProperCase'
p688
NsS'interfaceUses'
p689
(lp690
S'delphi_compatability'
p691
aS'WinProcs'
p692
aS'WinTypes'
p693
aS'ExtCtrls'
p694
aS'Classes'
p695
asS'finalCommentToken'
p696
(i__main__
PassStatement
p697
(dp698
g147
(lp699
sbsS'varSections'
p700
(lp701
g95
asS'globals'
p702
NsS'originalFileName'
p703
S'../../PlantStudioInPython/converted_source/ucursor.pas'
p704
sS'proceduralImplementations'
p705
(dp706
S'cursor_startwait'
p707
g152
sS'cursor_startwaitifnotwaiting'
p708
g193
sS'cursor_initializewait'
p709
g107
sS'cursor_loadcustomcursors'
p710
g294
sS'cursor_stopwait'
p711
g233
ssS'fileName'
p712
S'/Users/pdf/Documents/workspace/PlantStudioInPython/converted_source/ucursor.pas'
p713
sS'proceduralDeclarations'
p714
(dp715
S'cursor_startwait'
p716
g154
sS'cursor_startwaitifnotwaiting'
p717
g195
sS'cursor_initializewait'
p718
g110
sS'cursor_loadcustomcursors'
p719
g296
sS'cursor_stopwait'
p720
g235
ssS'types'
p721
(dp722
sb.