(i__main__
DelphiUnit
p1
(dp2
S'sectionsInOrderDefined'
p3
(lp4
(i__main__
DelphiClass
p5
(dp6
S'variableNamesInProperCase'
p7
(dp8
S'linecontrastindexlabel'
p9
S'lineContrastIndexLabel'
p10
sS'optionschanged'
p11
S'optionsChanged'
p12
sS'linecontrastindex'
p13
S'lineContrastIndex'
p14
sS'helpbutton'
p15
S'helpButton'
p16
sS'draw3dobjects'
p17
S'draw3DObjects'
p18
sS'transferdirection'
p19
S'transferDirection'
p20
sS'fillpolygons'
p21
S'fillPolygons'
p22
sS'groupbox1'
p23
S'GroupBox1'
p24
sS'groupbox3'
p25
S'GroupBox3'
p26
sS'groupbox2'
p27
S'GroupBox2'
p28
sS'drawlinesbetweenpolygons'
p29
S'drawLinesBetweenPolygons'
p30
sS'drawstems'
p31
S'drawStems'
p32
sS'draw3dobjectsasboundingrectsonly'
p33
S'draw3DObjectsAsBoundingRectsOnly'
p34
sS'cancel'
p35
S'cancel'
p36
sS'close'
p37
S'Close'
p38
sS'sorttdosasoneitem'
p39
S'sortTdosAsOneItem'
p40
sS'options'
p41
S'options'
p42
sS'sortpolygons'
p43
S'sortPolygons'
p44
ssS'name'
p45
S'TCustomDrawOptionsForm'
p46
sS'methodDeclarations'
p47
(dp48
S'helpbuttonclick'
p49
(i__main__
DelphiMethodDeclaration
p50
(dp51
g45
S'helpButtonClick'
p52
sS'formalParameters'
p53
(lp54
(i__main__
DelphiFormalParameter
p55
(dp56
S'initialValue'
p57
NsS'names'
p58
(lp59
S'Sender'
p60
asS'theType'
p61
(i__main__
DelphiNamedType
p62
(dp63
S'typeName'
p64
S'TObject'
p65
sS'unitDefinedIn'
p66
g1
sS'unitName'
p67
NsbsS'parameterVariety'
p68
NsbasS'className'
p69
g46
sS'resultType'
p70
NsS'isClassMethod'
p71
I0
sS'methodType'
p72
S'procedure'
p73
sbsS'formactivate'
p74
(i__main__
DelphiMethodDeclaration
p75
(dp76
g45
S'FormActivate'
p77
sg53
(lp78
(i__main__
DelphiFormalParameter
p79
(dp80
g57
Nsg58
(lp81
S'Sender'
p82
asg61
(i__main__
DelphiNamedType
p83
(dp84
g64
S'TObject'
p85
sg66
g1
sg67
Nsbsg68
Nsbasg69
g46
sg70
Nsg71
I0
sg72
g73
sbsS'transfersmallintspineditbox'
p86
(i__main__
DelphiMethodDeclaration
p87
(dp88
g45
S'transferSmallintSpinEditBox'
p89
sg53
(lp90
(i__main__
DelphiFormalParameter
p91
(dp92
g57
Nsg58
(lp93
S'editBox'
p94
asg61
(i__main__
DelphiNamedType
p95
(dp96
g64
S'TSpinEdit'
p97
sg66
g1
sg67
Nsbsg68
Nsba(i__main__
DelphiFormalParameter
p98
(dp99
g57
Nsg58
(lp100
S'value'
p101
asg61
(i__main__
DelphiPrimitiveType
p102
(dp103
g64
S'smallint'
p104
sbsg68
S'var'
p105
sbasg69
g46
sg70
Nsg71
I0
sg72
g73
sbsS'cancelclick'
p106
(i__main__
DelphiMethodDeclaration
p107
(dp108
g45
S'cancelClick'
p109
sg53
(lp110
(i__main__
DelphiFormalParameter
p111
(dp112
g57
Nsg58
(lp113
S'Sender'
p114
asg61
(i__main__
DelphiNamedType
p115
(dp116
g64
S'TObject'
p117
sg66
g1
sg67
Nsbsg68
Nsbasg69
g46
sg70
Nsg71
I0
sg72
g73
sbsS'sortpolygonsclick'
p118
(i__main__
DelphiMethodDeclaration
p119
(dp120
g45
S'sortPolygonsClick'
p121
sg53
(lp122
(i__main__
DelphiFormalParameter
p123
(dp124
g57
Nsg58
(lp125
S'Sender'
p126
asg61
(i__main__
DelphiNamedType
p127
(dp128
g64
S'TObject'
p129
sg66
g1
sg67
Nsbsg68
Nsbasg69
g46
sg70
Nsg71
I0
sg72
g73
sbsS'fillpolygonsclick'
p130
(i__main__
DelphiMethodDeclaration
p131
(dp132
g45
S'fillPolygonsClick'
p133
sg53
(lp134
(i__main__
DelphiFormalParameter
p135
(dp136
g57
Nsg58
(lp137
S'Sender'
p138
asg61
(i__main__
DelphiNamedType
p139
(dp140
g64
S'TObject'
p141
sg66
g1
sg67
Nsbsg68
Nsbasg69
g46
sg70
Nsg71
I0
sg72
g73
sbsS'formkeypress'
p142
(i__main__
DelphiMethodDeclaration
p143
(dp144
g45
S'FormKeyPress'
p145
sg53
(lp146
(i__main__
DelphiFormalParameter
p147
(dp148
g57
Nsg58
(lp149
S'Sender'
p150
asg61
(i__main__
DelphiNamedType
p151
(dp152
g64
S'TObject'
p153
sg66
g1
sg67
Nsbsg68
Nsba(i__main__
DelphiFormalParameter
p154
(dp155
g57
Nsg58
(lp156
S'Key'
p157
asg61
(i__main__
DelphiPrimitiveType
p158
(dp159
g64
S'char'
p160
sbsg68
g105
sbasg69
g46
sg70
Nsg71
I0
sg72
g73
sbsS'transfercheckbox'
p161
(i__main__
DelphiMethodDeclaration
p162
(dp163
g45
S'transferCheckBox'
p164
sg53
(lp165
(i__main__
DelphiFormalParameter
p166
(dp167
g57
Nsg58
(lp168
S'checkBox'
p169
asg61
(i__main__
DelphiNamedType
p170
(dp171
g64
S'TCheckBox'
p172
sg66
g1
sg67
Nsbsg68
Nsba(i__main__
DelphiFormalParameter
p173
(dp174
g57
Nsg58
(lp175
S'value'
p176
asg61
(i__main__
DelphiPrimitiveType
p177
(dp178
g64
S'boolean'
p179
sbsg68
g105
sbasg69
g46
sg70
Nsg71
I0
sg72
g73
sbsS'draw3dobjectsclick'
p180
(i__main__
DelphiMethodDeclaration
p181
(dp182
g45
S'draw3DObjectsClick'
p183
sg53
(lp184
(i__main__
DelphiFormalParameter
p185
(dp186
g57
Nsg58
(lp187
S'Sender'
p188
asg61
(i__main__
DelphiNamedType
p189
(dp190
g64
S'TObject'
p191
sg66
g1
sg67
Nsbsg68
Nsbasg69
g46
sg70
Nsg71
I0
sg72
g73
sbsS'transferfields'
p192
(i__main__
DelphiMethodDeclaration
p193
(dp194
g45
S'transferFields'
p195
sg53
(lp196
sg69
g46
sg70
Nsg71
I0
sg72
g73
sS'commentLinesBefore'
p197
(lp198
S' Private declarations '
p199
aS' Public declarations '
p200
asbsS'drawlinesbetweenpolygonsclick'
p201
(i__main__
DelphiMethodDeclaration
p202
(dp203
g45
S'drawLinesBetweenPolygonsClick'
p204
sg53
(lp205
(i__main__
DelphiFormalParameter
p206
(dp207
g57
Nsg58
(lp208
S'Sender'
p209
asg61
(i__main__
DelphiNamedType
p210
(dp211
g64
S'TObject'
p212
sg66
g1
sg67
Nsbsg68
Nsbasg69
g46
sg70
Nsg71
I0
sg72
g73
sbsS'closeclick'
p213
(i__main__
DelphiMethodDeclaration
p214
(dp215
g45
S'CloseClick'
p216
sg53
(lp217
(i__main__
DelphiFormalParameter
p218
(dp219
g57
Nsg58
(lp220
S'Sender'
p221
asg61
(i__main__
DelphiNamedType
p222
(dp223
g64
S'TObject'
p224
sg66
g1
sg67
Nsbsg68
Nsbasg69
g46
sg70
Nsg71
I0
sg72
g73
sbssS'superclassNamedTypes'
p225
(lp226
(i__main__
DelphiNamedType
p227
(dp228
g64
S'PdForm'
p229
sg66
g1
sg67
NsbasS'variableNames'
p230
(dp231
S'linecontrastindexlabel'
p232
(i__main__
DelphiNamedType
p233
(dp234
g64
S'TLabel'
p235
sg66
g1
sg67
NsbsS'optionschanged'
p236
(i__main__
DelphiPrimitiveType
p237
(dp238
g64
g179
sbsS'linecontrastindex'
p239
(i__main__
DelphiNamedType
p240
(dp241
g64
S'TSpinEdit'
p242
sg66
g1
sg67
NsbsS'helpbutton'
p243
(i__main__
DelphiNamedType
p244
(dp245
g64
S'TSpeedButton'
p246
sg66
g1
sg67
NsbsS'draw3dobjects'
p247
(i__main__
DelphiNamedType
p248
(dp249
g64
S'TCheckBox'
p250
sg66
g1
sg67
NsbsS'transferdirection'
p251
(i__main__
DelphiPrimitiveType
p252
(dp253
g64
g104
sbsS'fillpolygons'
p254
(i__main__
DelphiNamedType
p255
(dp256
g64
S'TCheckBox'
p257
sg66
g1
sg67
NsbsS'groupbox1'
p258
(i__main__
DelphiNamedType
p259
(dp260
g64
S'TGroupBox'
p261
sg66
g1
sg67
NsbsS'groupbox3'
p262
(i__main__
DelphiNamedType
p263
(dp264
g64
S'TGroupBox'
p265
sg66
g1
sg67
NsbsS'groupbox2'
p266
(i__main__
DelphiNamedType
p267
(dp268
g64
S'TGroupBox'
p269
sg66
g1
sg67
NsbsS'drawlinesbetweenpolygons'
p270
(i__main__
DelphiNamedType
p271
(dp272
g64
S'TCheckBox'
p273
sg66
g1
sg67
NsbsS'drawstems'
p274
(i__main__
DelphiNamedType
p275
(dp276
g64
S'TCheckBox'
p277
sg66
g1
sg67
NsbsS'draw3dobjectsasboundingrectsonly'
p278
(i__main__
DelphiNamedType
p279
(dp280
g64
S'TCheckBox'
p281
sg66
g1
sg67
NsbsS'cancel'
p282
(i__main__
DelphiNamedType
p283
(dp284
g64
S'TButton'
p285
sg66
g1
sg67
NsbsS'close'
p286
(i__main__
DelphiNamedType
p287
(dp288
g64
S'TButton'
p289
sg66
g1
sg67
NsbsS'sorttdosasoneitem'
p290
(i__main__
DelphiNamedType
p291
(dp292
g64
S'TCheckBox'
p293
sg66
g1
sg67
NsbsS'options'
p294
(i__main__
DelphiNamedType
p295
(dp296
g64
S'DomainOptionsStructure'
p297
sg66
g1
sg67
NsbsS'sortpolygons'
p298
(i__main__
DelphiNamedType
p299
(dp300
g64
S'TCheckBox'
p301
sg66
g1
sg67
NsbssS'methodNamesInDefinedOrder'
p302
(lp303
S'formactivate'
p304
aS'closeclick'
p305
aS'cancelclick'
p306
aS'transferfields'
p307
aS'transfercheckbox'
p308
aS'transfersmallintspineditbox'
p309
aS'draw3dobjectsclick'
p310
aS'fillpolygonsclick'
p311
aS'drawlinesbetweenpolygonsclick'
p312
aS'sortpolygonsclick'
p313
aS'helpbuttonclick'
p314
aS'formkeypress'
p315
asS'methodImplementations'
p316
(dp317
S'transferfields'
p318
(i__main__
DelphiMethodImplementation
p319
(dp320
S'originalDeclaration'
p321
g193
sg45
g195
sg53
(lp322
sS'varParamIndexes'
p323
(lp324
sS'varParamsSkipped'
p325
(lp326
sS'argNames'
p327
(lp328
S'self'
p329
asS'argTypes'
p330
(dp331
sg69
S'TCustomDrawOptionsForm'
p332
sg70
NsS'varParamNames'
p333
(lp334
sg71
I0
sg72
g73
sS'block'
p335
(i__main__
DelphiBlock
p336
(dp337
S'compoundStatement'
p338
(idelphi
DelphiCompoundStatement
p339
(dp340
S'statements'
p341
(lp342
(i__main__
DelphiAssignStatement
p343
(dp344
S'newValueExpression'
p345
NsS'destinationExpression'
p346
(i__main__
DelphiIdentAccess
p347
(dp348
S'ident'
p349
S'transferCheckBox'
p350
sS'endAccessList'
p351
(lp352
(idelphi
DelphiFunctionEndAccess
p353
(dp354
S'expressionList'
p355
(lp356
(i__main__
DelphiIdentAccess
p357
(dp358
g349
S'drawStems'
p359
sg351
(lp360
sba(i__main__
DelphiIdentAccess
p361
(dp362
g349
S'options'
p363
sg351
(lp364
(idelphi
DelphiFieldEndAccess
p365
(dp366
S'field'
p367
S'drawStems'
p368
sbasbasbasbsba(i__main__
DelphiAssignStatement
p369
(dp370
g345
Nsg346
(i__main__
DelphiIdentAccess
p371
(dp372
g349
S'transferCheckBox'
p373
sg351
(lp374
(idelphi
DelphiFunctionEndAccess
p375
(dp376
g355
(lp377
(i__main__
DelphiIdentAccess
p378
(dp379
g349
S'draw3DObjects'
p380
sg351
(lp381
sba(i__main__
DelphiIdentAccess
p382
(dp383
g349
S'options'
p384
sg351
(lp385
(idelphi
DelphiFieldEndAccess
p386
(dp387
g367
S'draw3DObjects'
p388
sbasbasbasbsba(i__main__
DelphiAssignStatement
p389
(dp390
g345
Nsg346
(i__main__
DelphiIdentAccess
p391
(dp392
g349
S'transferCheckBox'
p393
sg351
(lp394
(idelphi
DelphiFunctionEndAccess
p395
(dp396
g355
(lp397
(i__main__
DelphiIdentAccess
p398
(dp399
g349
S'draw3DObjectsAsBoundingRectsOnly'
p400
sg351
(lp401
sba(i__main__
DelphiIdentAccess
p402
(dp403
g349
S'options'
p404
sg351
(lp405
(idelphi
DelphiFieldEndAccess
p406
(dp407
g367
S'draw3DObjectsAsBoundingRectsOnly'
p408
sbasbasbasbsba(i__main__
DelphiAssignStatement
p409
(dp410
g345
Nsg346
(i__main__
DelphiIdentAccess
p411
(dp412
g349
S'transferCheckBox'
p413
sg351
(lp414
(idelphi
DelphiFunctionEndAccess
p415
(dp416
g355
(lp417
(i__main__
DelphiIdentAccess
p418
(dp419
g349
S'fillPolygons'
p420
sg351
(lp421
sba(i__main__
DelphiIdentAccess
p422
(dp423
g349
S'options'
p424
sg351
(lp425
(idelphi
DelphiFieldEndAccess
p426
(dp427
g367
S'fillPolygons'
p428
sbasbasbasbsba(i__main__
DelphiAssignStatement
p429
(dp430
g345
Nsg346
(i__main__
DelphiIdentAccess
p431
(dp432
g349
S'transferCheckBox'
p433
sg351
(lp434
(idelphi
DelphiFunctionEndAccess
p435
(dp436
g355
(lp437
(i__main__
DelphiIdentAccess
p438
(dp439
g349
S'drawLinesBetweenPolygons'
p440
sg351
(lp441
sba(i__main__
DelphiIdentAccess
p442
(dp443
g349
S'options'
p444
sg351
(lp445
(idelphi
DelphiFieldEndAccess
p446
(dp447
g367
S'drawLinesBetweenPolygons'
p448
sbasbasbasbsba(i__main__
DelphiAssignStatement
p449
(dp450
g345
Nsg346
(i__main__
DelphiIdentAccess
p451
(dp452
g349
S'transferSmallintSpinEditBox'
p453
sg351
(lp454
(idelphi
DelphiFunctionEndAccess
p455
(dp456
g355
(lp457
(i__main__
DelphiIdentAccess
p458
(dp459
g349
S'lineContrastIndex'
p460
sg351
(lp461
sba(i__main__
DelphiIdentAccess
p462
(dp463
g349
S'options'
p464
sg351
(lp465
(idelphi
DelphiFieldEndAccess
p466
(dp467
g367
S'lineContrastIndex'
p468
sbasbasbasbsba(i__main__
DelphiAssignStatement
p469
(dp470
g345
Nsg346
(i__main__
DelphiIdentAccess
p471
(dp472
g349
S'transferCheckBox'
p473
sg351
(lp474
(idelphi
DelphiFunctionEndAccess
p475
(dp476
g355
(lp477
(i__main__
DelphiIdentAccess
p478
(dp479
g349
S'sortPolygons'
p480
sg351
(lp481
sba(i__main__
DelphiIdentAccess
p482
(dp483
g349
S'options'
p484
sg351
(lp485
(idelphi
DelphiFieldEndAccess
p486
(dp487
g367
S'sortPolygons'
p488
sbasbasbasbsba(i__main__
DelphiAssignStatement
p489
(dp490
g345
Nsg346
(i__main__
DelphiIdentAccess
p491
(dp492
g349
S'transferCheckBox'
p493
sg351
(lp494
(idelphi
DelphiFunctionEndAccess
p495
(dp496
g355
(lp497
(i__main__
DelphiIdentAccess
p498
(dp499
g349
S'sortTdosAsOneItem'
p500
sg351
(lp501
sba(i__main__
DelphiIdentAccess
p502
(dp503
g349
S'options'
p504
sg351
(lp505
(idelphi
DelphiFieldEndAccess
p506
(dp507
g367
S'sortTdosAsOneItem'
p508
sbasbasbasbsbasbsS'limitedDeclSectionList'
p509
(lp510
sbsg197
g198
sbsS'formactivate'
p511
(i__main__
DelphiMethodImplementation
p512
(dp513
g321
g75
sg45
g77
sg53
(lp514
(i__main__
DelphiFormalParameter
p515
(dp516
g57
Nsg58
(lp517
S'Sender'
p518
asg61
(i__main__
DelphiNamedType
p519
(dp520
g64
S'TObject'
p521
sg66
g1
sg67
Nsbsg68
Nsbasg323
(lp522
sg325
(lp523
sg327
(lp524
g329
ag518
asg330
(dp525
g518
g519
ssg69
S'TCustomDrawOptionsForm'
p526
sg70
Nsg333
(lp527
sg71
I0
sg72
g73
sg335
(i__main__
DelphiBlock
p528
(dp529
g338
(idelphi
DelphiCompoundStatement
p530
(dp531
g341
(lp532
(i__main__
DelphiAssignStatement
p533
(dp534
g345
(i__main__
DelphiIdentAccess
p535
(dp536
g349
S'kTransferLoad'
p537
sg351
(lp538
sbsg346
(i__main__
DelphiIdentAccess
p539
(dp540
g349
S'transferDirection'
p541
sg351
(lp542
sbsba(i__main__
DelphiAssignStatement
p543
(dp544
g345
Nsg346
(i__main__
DelphiIdentAccess
p545
(dp546
g349
S'self'
p547
sg351
(lp548
(idelphi
DelphiFieldEndAccess
p549
(dp550
g367
S'transferFields'
p551
sbasbsba(i__main__
DelphiAssignStatement
p552
(dp553
g345
(i__main__
DelphiIdentAccess
p554
(dp555
g349
S'fillPolygons'
p556
sg351
(lp557
(idelphi
DelphiFieldEndAccess
p558
(dp559
g367
S'checked'
p560
sbasbsg346
(i__main__
DelphiIdentAccess
p561
(dp562
g349
S'drawLinesBetweenPolygons'
p563
sg351
(lp564
(idelphi
DelphiFieldEndAccess
p565
(dp566
g367
S'enabled'
p567
sbasbsg197
(lp568
S' interactions\r'
p569
asba(i__main__
DelphiAssignStatement
p570
(dp571
g345
(idelphi
DelphiMulOp
p572
(dp573
S'signedFactor2'
p574
(i__main__
DelphiIdentAccess
p575
(dp576
g349
S'drawLinesBetweenPolygons'
p577
sg351
(lp578
(idelphi
DelphiFieldEndAccess
p579
(dp580
g367
S'checked'
p581
sbasbsS'mulOp'
p582
S'and'
p583
sS'signedFactor1'
p584
(i__main__
DelphiIdentAccess
p585
(dp586
g349
S'drawLinesBetweenPolygons'
p587
sg351
(lp588
(idelphi
DelphiFieldEndAccess
p589
(dp590
g367
S'enabled'
p591
sbasbsbsg346
(i__main__
DelphiIdentAccess
p592
(dp593
g349
S'lineContrastIndex'
p594
sg351
(lp595
(idelphi
DelphiFieldEndAccess
p596
(dp597
g367
S'enabled'
p598
sbasbsba(i__main__
DelphiAssignStatement
p599
(dp600
g345
(i__main__
DelphiIdentAccess
p601
(dp602
g349
S'lineContrastIndex'
p603
sg351
(lp604
(idelphi
DelphiFieldEndAccess
p605
(dp606
g367
S'enabled'
p607
sbasbsg346
(i__main__
DelphiIdentAccess
p608
(dp609
g349
S'lineContrastIndexLabel'
p610
sg351
(lp611
(idelphi
DelphiFieldEndAccess
p612
(dp613
g367
S'enabled'
p614
sbasbsba(i__main__
DelphiAssignStatement
p615
(dp616
g345
(i__main__
DelphiIdentAccess
p617
(dp618
g349
S'sortPolygons'
p619
sg351
(lp620
(idelphi
DelphiFieldEndAccess
p621
(dp622
g367
S'checked'
p623
sbasbsg346
(i__main__
DelphiIdentAccess
p624
(dp625
g349
S'sortTdosAsOneItem'
p626
sg351
(lp627
(idelphi
DelphiFieldEndAccess
p628
(dp629
g367
S'enabled'
p630
sbasbsba(i__main__
DelphiAssignStatement
p631
(dp632
g345
(i__main__
DelphiIdentAccess
p633
(dp634
g349
S'draw3DObjects'
p635
sg351
(lp636
(idelphi
DelphiFieldEndAccess
p637
(dp638
g367
S'checked'
p639
sbasbsg346
(i__main__
DelphiIdentAccess
p640
(dp641
g349
S'draw3DObjectsAsBoundingRectsOnly'
p642
sg351
(lp643
(idelphi
DelphiFieldEndAccess
p644
(dp645
g367
S'enabled'
p646
sbasbsbasbsg509
(lp647
sbsg197
(lp648
S'$R *.DFM'
p649
asbsS'cancelclick'
p650
(i__main__
DelphiMethodImplementation
p651
(dp652
g321
g107
sg45
g109
sg53
(lp653
(i__main__
DelphiFormalParameter
p654
(dp655
g57
Nsg58
(lp656
S'Sender'
p657
asg61
(i__main__
DelphiNamedType
p658
(dp659
g64
S'TObject'
p660
sg66
g1
sg67
Nsbsg68
Nsbasg323
(lp661
sg325
(lp662
sg327
(lp663
g329
ag657
asg330
(dp664
g657
g658
ssg69
S'TCustomDrawOptionsForm'
p665
sg70
Nsg333
(lp666
sg71
I0
sg72
g73
sg335
(i__main__
DelphiBlock
p667
(dp668
g338
(idelphi
DelphiCompoundStatement
p669
(dp670
g341
(lp671
(i__main__
DelphiAssignStatement
p672
(dp673
g345
(i__main__
DelphiIdentAccess
p674
(dp675
g349
S'mrCancel'
p676
sg351
(lp677
sbsg346
(i__main__
DelphiIdentAccess
p678
(dp679
g349
S'modalResult'
p680
sg351
(lp681
sbsbasbsg509
(lp682
sbsbsS'transfercheckbox'
p683
(i__main__
DelphiMethodImplementation
p684
(dp685
g321
g162
sg45
g164
sg53
(lp686
(i__main__
DelphiFormalParameter
p687
(dp688
g57
Nsg58
(lp689
S'checkBox'
p690
asg61
(i__main__
DelphiNamedType
p691
(dp692
g64
S'TCheckBox'
p693
sg66
g1
sg67
Nsbsg68
Nsba(i__main__
DelphiFormalParameter
p694
(dp695
g57
Nsg58
(lp696
S'value'
p697
asg61
(i__main__
DelphiPrimitiveType
p698
(dp699
g64
g179
sbsg68
g105
sbasg323
(lp700
I1
asg325
(lp701
sg327
(lp702
g329
ag690
ag697
asg330
(dp703
g690
g691
sg697
g698
ssg69
S'TCustomDrawOptionsForm'
p704
sg70
Nsg333
(lp705
g697
asg71
I0
sg72
g73
sg335
(i__main__
DelphiBlock
p706
(dp707
g338
(idelphi
DelphiCompoundStatement
p708
(dp709
g341
(lp710
(idelphi
DelphiIfStatement
p711
(dp712
S'expression'
p713
(idelphi
DelphiRelOp
p714
(dp715
S'simpleExpression1'
p716
(i__main__
DelphiIdentAccess
p717
(dp718
g349
S'transferDirection'
p719
sg351
(lp720
sbsS'simpleExpression2'
p721
(i__main__
DelphiIdentAccess
p722
(dp723
g349
S'kTransferLoad'
p724
sg351
(lp725
sbsS'relOp'
p726
S'='
sbsS'ifFalseStatement'
p727
(idelphi
DelphiIfStatement
p728
(dp729
g713
(idelphi
DelphiRelOp
p730
(dp731
g716
(i__main__
DelphiIdentAccess
p732
(dp733
g349
S'transferDirection'
p734
sg351
(lp735
sbsg721
(i__main__
DelphiIdentAccess
p736
(dp737
g349
S'kTransferSave'
p738
sg351
(lp739
sbsg726
S'='
sbsg727
NsS'ifTrueStatement'
p740
(idelphi
DelphiCompoundStatement
p741
(dp742
g341
(lp743
(idelphi
DelphiIfStatement
p744
(dp745
g713
(idelphi
DelphiRelOp
p746
(dp747
g716
(i__main__
DelphiIdentAccess
p748
(dp749
g349
S'value'
p750
sg351
(lp751
sbsg721
(i__main__
DelphiIdentAccess
p752
(dp753
g349
S'checkBox'
p754
sg351
(lp755
(idelphi
DelphiFieldEndAccess
p756
(dp757
g367
S'checked'
p758
sbasbsg726
S'<>'
p759
sbsg727
Nsg740
(i__main__
DelphiAssignStatement
p760
(dp761
g345
(i__main__
DelphiIdentAccess
p762
(dp763
g349
S'true'
p764
sg351
(lp765
sbsg346
(i__main__
DelphiIdentAccess
p766
(dp767
g349
S'optionsChanged'
p768
sg351
(lp769
sbsbsba(i__main__
DelphiAssignStatement
p770
(dp771
g345
(i__main__
DelphiIdentAccess
p772
(dp773
g349
S'checkBox'
p774
sg351
(lp775
(idelphi
DelphiFieldEndAccess
p776
(dp777
g367
S'checked'
p778
sbasbsg346
(i__main__
DelphiIdentAccess
p779
(dp780
g349
S'value'
p781
sg351
(lp782
sbsbasbsbsg740
(i__main__
DelphiAssignStatement
p783
(dp784
g345
(i__main__
DelphiIdentAccess
p785
(dp786
g349
S'value'
p787
sg351
(lp788
sbsg346
(i__main__
DelphiIdentAccess
p789
(dp790
g349
S'checkBox'
p791
sg351
(lp792
(idelphi
DelphiFieldEndAccess
p793
(dp794
g367
S'checked'
p795
sbasbsbsbasbsg509
(lp796
sbsbsS'fillpolygonsclick'
p797
(i__main__
DelphiMethodImplementation
p798
(dp799
g321
g131
sg45
g133
sg53
(lp800
(i__main__
DelphiFormalParameter
p801
(dp802
g57
Nsg58
(lp803
S'Sender'
p804
asg61
(i__main__
DelphiNamedType
p805
(dp806
g64
S'TObject'
p807
sg66
g1
sg67
Nsbsg68
Nsbasg323
(lp808
sg325
(lp809
sg327
(lp810
g329
ag804
asg330
(dp811
g804
g805
ssg69
S'TCustomDrawOptionsForm'
p812
sg70
Nsg333
(lp813
sg71
I0
sg72
g73
sg335
(i__main__
DelphiBlock
p814
(dp815
g338
(idelphi
DelphiCompoundStatement
p816
(dp817
g341
(lp818
(i__main__
DelphiAssignStatement
p819
(dp820
g345
(idelphi
DelphiNestedExpressionListAccess
p821
(dp822
g351
(lp823
sg355
(lp824
(i__main__
DelphiIdentAccess
p825
(dp826
g349
S'fillPolygons'
p827
sg351
(lp828
(idelphi
DelphiFieldEndAccess
p829
(dp830
g367
S'checked'
p831
sbasbasbsg346
(i__main__
DelphiIdentAccess
p832
(dp833
g349
S'drawLinesBetweenPolygons'
p834
sg351
(lp835
(idelphi
DelphiFieldEndAccess
p836
(dp837
g367
S'enabled'
p838
sbasbsg197
(lp839
S' and (not drawWithOpenGL.checked);\r'
p840
asba(i__main__
DelphiAssignStatement
p841
(dp842
g345
(idelphi
DelphiMulOp
p843
(dp844
g574
(i__main__
DelphiIdentAccess
p845
(dp846
g349
S'drawLinesBetweenPolygons'
p847
sg351
(lp848
(idelphi
DelphiFieldEndAccess
p849
(dp850
g367
S'checked'
p851
sbasbsg582
g583
sg584
(i__main__
DelphiIdentAccess
p852
(dp853
g349
S'drawLinesBetweenPolygons'
p854
sg351
(lp855
(idelphi
DelphiFieldEndAccess
p856
(dp857
g367
S'enabled'
p858
sbasbsbsg346
(i__main__
DelphiIdentAccess
p859
(dp860
g349
S'lineContrastIndex'
p861
sg351
(lp862
(idelphi
DelphiFieldEndAccess
p863
(dp864
g367
S'enabled'
p865
sbasbsba(i__main__
DelphiAssignStatement
p866
(dp867
g345
(i__main__
DelphiIdentAccess
p868
(dp869
g349
S'lineContrastIndex'
p870
sg351
(lp871
(idelphi
DelphiFieldEndAccess
p872
(dp873
g367
S'enabled'
p874
sbasbsg346
(i__main__
DelphiIdentAccess
p875
(dp876
g349
S'lineContrastIndexLabel'
p877
sg351
(lp878
(idelphi
DelphiFieldEndAccess
p879
(dp880
g367
S'enabled'
p881
sbasbsbasbsg509
(lp882
sbsbsS'formkeypress'
p883
(i__main__
DelphiMethodImplementation
p884
(dp885
g321
g143
sg45
g145
sg53
(lp886
(i__main__
DelphiFormalParameter
p887
(dp888
g57
Nsg58
(lp889
S'Sender'
p890
asg61
(i__main__
DelphiNamedType
p891
(dp892
g64
S'TObject'
p893
sg66
g1
sg67
Nsbsg68
Nsba(i__main__
DelphiFormalParameter
p894
(dp895
g57
Nsg58
(lp896
S'Key'
p897
asg61
(i__main__
DelphiPrimitiveType
p898
(dp899
g64
g160
sbsg68
g105
sbasg323
(lp900
I1
asg325
(lp901
sg327
(lp902
g329
ag890
ag897
asg330
(dp903
g890
g891
sg897
g898
ssg69
S'TCustomDrawOptionsForm'
p904
sg70
Nsg333
(lp905
g897
asg71
I0
sg72
g73
sg335
(i__main__
DelphiBlock
p906
(dp907
g338
(idelphi
DelphiCompoundStatement
p908
(dp909
g341
(lp910
(i__main__
DelphiAssignStatement
p911
(dp912
g345
Nsg346
(i__main__
DelphiIdentAccess
p913
(dp914
g349
S'makeEnterWorkAsTab'
p915
sg351
(lp916
(idelphi
DelphiFunctionEndAccess
p917
(dp918
g355
(lp919
(i__main__
DelphiIdentAccess
p920
(dp921
g349
S'self'
p922
sg351
(lp923
sba(i__main__
DelphiIdentAccess
p924
(dp925
g349
S'activeControl'
p926
sg351
(lp927
sba(i__main__
DelphiIdentAccess
p928
(dp929
g349
S'key'
p930
sg351
(lp931
sbasbasbsbasbsg509
(lp932
sbsbsS'transfersmallintspineditbox'
p933
(i__main__
DelphiMethodImplementation
p934
(dp935
g321
g87
sg45
g89
sg53
(lp936
(i__main__
DelphiFormalParameter
p937
(dp938
g57
Nsg58
(lp939
S'editBox'
p940
asg61
(i__main__
DelphiNamedType
p941
(dp942
g64
S'TSpinEdit'
p943
sg66
g1
sg67
Nsbsg68
Nsba(i__main__
DelphiFormalParameter
p944
(dp945
g57
Nsg58
(lp946
S'value'
p947
asg61
(i__main__
DelphiPrimitiveType
p948
(dp949
g64
g104
sbsg68
g105
sbasg323
(lp950
I1
asg325
(lp951
sg327
(lp952
g329
ag940
ag947
asg330
(dp953
g940
g941
sg947
g948
ssg69
S'TCustomDrawOptionsForm'
p954
sg70
Nsg333
(lp955
g947
asg71
I0
sg72
g73
sg335
(i__main__
DelphiBlock
p956
(dp957
g338
(idelphi
DelphiCompoundStatement
p958
(dp959
g341
(lp960
(idelphi
DelphiIfStatement
p961
(dp962
g713
(idelphi
DelphiRelOp
p963
(dp964
g716
(i__main__
DelphiIdentAccess
p965
(dp966
g349
S'transferDirection'
p967
sg351
(lp968
sbsg721
(i__main__
DelphiIdentAccess
p969
(dp970
g349
S'kTransferLoad'
p971
sg351
(lp972
sbsg726
S'='
sbsg727
(idelphi
DelphiIfStatement
p973
(dp974
g713
(idelphi
DelphiRelOp
p975
(dp976
g716
(i__main__
DelphiIdentAccess
p977
(dp978
g349
S'transferDirection'
p979
sg351
(lp980
sbsg721
(i__main__
DelphiIdentAccess
p981
(dp982
g349
S'kTransferSave'
p983
sg351
(lp984
sbsg726
S'='
sbsg727
Nsg740
(idelphi
DelphiCompoundStatement
p985
(dp986
g341
(lp987
(idelphi
DelphiIfStatement
p988
(dp989
g713
(idelphi
DelphiRelOp
p990
(dp991
g716
(i__main__
DelphiIdentAccess
p992
(dp993
g349
S'value'
p994
sg351
(lp995
sbsg721
(i__main__
DelphiIdentAccess
p996
(dp997
g349
S'strToIntDef'
p998
sg351
(lp999
(idelphi
DelphiFunctionEndAccess
p1000
(dp1001
g355
(lp1002
(i__main__
DelphiIdentAccess
p1003
(dp1004
g349
S'editBox'
p1005
sg351
(lp1006
(idelphi
DelphiFieldEndAccess
p1007
(dp1008
g367
S'text'
p1009
sbasba(idelphi
DelphiIntegerValue
p1010
(dp1011
S'string'
p1012
S'0'
sbasbasbsg726
g759
sbsg727
Nsg740
(i__main__
DelphiAssignStatement
p1013
(dp1014
g345
(i__main__
DelphiIdentAccess
p1015
(dp1016
g349
S'true'
p1017
sg351
(lp1018
sbsg346
(i__main__
DelphiIdentAccess
p1019
(dp1020
g349
S'optionsChanged'
p1021
sg351
(lp1022
sbsbsba(i__main__
DelphiAssignStatement
p1023
(dp1024
g345
(i__main__
DelphiIdentAccess
p1025
(dp1026
g349
S'strToIntDef'
p1027
sg351
(lp1028
(idelphi
DelphiFunctionEndAccess
p1029
(dp1030
g355
(lp1031
(i__main__
DelphiIdentAccess
p1032
(dp1033
g349
S'editBox'
p1034
sg351
(lp1035
(idelphi
DelphiFieldEndAccess
p1036
(dp1037
g367
S'text'
p1038
sbasba(idelphi
DelphiIntegerValue
p1039
(dp1040
g1012
S'0'
sbasbasbsg346
(i__main__
DelphiIdentAccess
p1041
(dp1042
g349
S'value'
p1043
sg351
(lp1044
sbsbasbsbsg740
(i__main__
DelphiAssignStatement
p1045
(dp1046
g345
(i__main__
DelphiIdentAccess
p1047
(dp1048
g349
S'intToStr'
p1049
sg351
(lp1050
(idelphi
DelphiFunctionEndAccess
p1051
(dp1052
g355
(lp1053
(i__main__
DelphiIdentAccess
p1054
(dp1055
g349
S'value'
p1056
sg351
(lp1057
sbasbasbsg346
(i__main__
DelphiIdentAccess
p1058
(dp1059
g349
S'editBox'
p1060
sg351
(lp1061
(idelphi
DelphiFieldEndAccess
p1062
(dp1063
g367
S'text'
p1064
sbasbsbsbasbsg509
(lp1065
sbsbsS'sortpolygonsclick'
p1066
(i__main__
DelphiMethodImplementation
p1067
(dp1068
g321
g119
sg45
g121
sg53
(lp1069
(i__main__
DelphiFormalParameter
p1070
(dp1071
g57
Nsg58
(lp1072
S'Sender'
p1073
asg61
(i__main__
DelphiNamedType
p1074
(dp1075
g64
S'TObject'
p1076
sg66
g1
sg67
Nsbsg68
Nsbasg323
(lp1077
sg325
(lp1078
sg327
(lp1079
g329
ag1073
asg330
(dp1080
g1073
g1074
ssg69
S'TCustomDrawOptionsForm'
p1081
sg70
Nsg333
(lp1082
sg71
I0
sg72
g73
sg335
(i__main__
DelphiBlock
p1083
(dp1084
g338
(idelphi
DelphiCompoundStatement
p1085
(dp1086
g341
(lp1087
(i__main__
DelphiAssignStatement
p1088
(dp1089
g345
(i__main__
DelphiIdentAccess
p1090
(dp1091
g349
S'sortPolygons'
p1092
sg351
(lp1093
(idelphi
DelphiFieldEndAccess
p1094
(dp1095
g367
S'checked'
p1096
sbasbsg346
(i__main__
DelphiIdentAccess
p1097
(dp1098
g349
S'sortTdosAsOneItem'
p1099
sg351
(lp1100
(idelphi
DelphiFieldEndAccess
p1101
(dp1102
g367
S'enabled'
p1103
sbasbsbasbsg509
(lp1104
sbsbsS'drawlinesbetweenpolygonsclick'
p1105
(i__main__
DelphiMethodImplementation
p1106
(dp1107
g321
g202
sg45
g204
sg53
(lp1108
(i__main__
DelphiFormalParameter
p1109
(dp1110
g57
Nsg58
(lp1111
S'Sender'
p1112
asg61
(i__main__
DelphiNamedType
p1113
(dp1114
g64
S'TObject'
p1115
sg66
g1
sg67
Nsbsg68
Nsbasg323
(lp1116
sg325
(lp1117
sg327
(lp1118
g329
ag1112
asg330
(dp1119
g1112
g1113
ssg69
S'TCustomDrawOptionsForm'
p1120
sg70
Nsg333
(lp1121
sg71
I0
sg72
g73
sg335
(i__main__
DelphiBlock
p1122
(dp1123
g338
(idelphi
DelphiCompoundStatement
p1124
(dp1125
g341
(lp1126
(i__main__
DelphiAssignStatement
p1127
(dp1128
g345
(idelphi
DelphiMulOp
p1129
(dp1130
g574
(i__main__
DelphiIdentAccess
p1131
(dp1132
g349
S'drawLinesBetweenPolygons'
p1133
sg351
(lp1134
(idelphi
DelphiFieldEndAccess
p1135
(dp1136
g367
S'checked'
p1137
sbasbsg582
g583
sg584
(i__main__
DelphiIdentAccess
p1138
(dp1139
g349
S'drawLinesBetweenPolygons'
p1140
sg351
(lp1141
(idelphi
DelphiFieldEndAccess
p1142
(dp1143
g367
S'enabled'
p1144
sbasbsbsg346
(i__main__
DelphiIdentAccess
p1145
(dp1146
g349
S'lineContrastIndex'
p1147
sg351
(lp1148
(idelphi
DelphiFieldEndAccess
p1149
(dp1150
g367
S'enabled'
p1151
sbasbsba(i__main__
DelphiAssignStatement
p1152
(dp1153
g345
(i__main__
DelphiIdentAccess
p1154
(dp1155
g349
S'lineContrastIndex'
p1156
sg351
(lp1157
(idelphi
DelphiFieldEndAccess
p1158
(dp1159
g367
S'enabled'
p1160
sbasbsg346
(i__main__
DelphiIdentAccess
p1161
(dp1162
g349
S'lineContrastIndexLabel'
p1163
sg351
(lp1164
(idelphi
DelphiFieldEndAccess
p1165
(dp1166
g367
S'enabled'
p1167
sbasbsbasbsg509
(lp1168
sbsbsS'draw3dobjectsclick'
p1169
(i__main__
DelphiMethodImplementation
p1170
(dp1171
g321
g181
sg45
g183
sg53
(lp1172
(i__main__
DelphiFormalParameter
p1173
(dp1174
g57
Nsg58
(lp1175
S'Sender'
p1176
asg61
(i__main__
DelphiNamedType
p1177
(dp1178
g64
S'TObject'
p1179
sg66
g1
sg67
Nsbsg68
Nsbasg323
(lp1180
sg325
(lp1181
sg327
(lp1182
g329
ag1176
asg330
(dp1183
g1176
g1177
ssg69
S'TCustomDrawOptionsForm'
p1184
sg70
Nsg333
(lp1185
sg71
I0
sg72
g73
sg335
(i__main__
DelphiBlock
p1186
(dp1187
g338
(idelphi
DelphiCompoundStatement
p1188
(dp1189
g341
(lp1190
(i__main__
DelphiAssignStatement
p1191
(dp1192
g345
(i__main__
DelphiIdentAccess
p1193
(dp1194
g349
S'draw3DObjects'
p1195
sg351
(lp1196
(idelphi
DelphiFieldEndAccess
p1197
(dp1198
g367
S'checked'
p1199
sbasbsg346
(i__main__
DelphiIdentAccess
p1200
(dp1201
g349
S'draw3DObjectsAsBoundingRectsOnly'
p1202
sg351
(lp1203
(idelphi
DelphiFieldEndAccess
p1204
(dp1205
g367
S'enabled'
p1206
sbasbsbasbsg509
(lp1207
sbsbsS'closeclick'
p1208
(i__main__
DelphiMethodImplementation
p1209
(dp1210
g321
g214
sg45
g216
sg53
(lp1211
(i__main__
DelphiFormalParameter
p1212
(dp1213
g57
Nsg58
(lp1214
S'Sender'
p1215
asg61
(i__main__
DelphiNamedType
p1216
(dp1217
g64
S'TObject'
p1218
sg66
g1
sg67
Nsbsg68
Nsbasg323
(lp1219
sg325
(lp1220
sg327
(lp1221
g329
ag1215
asg330
(dp1222
g1215
g1216
ssg69
S'TCustomDrawOptionsForm'
p1223
sg70
Nsg333
(lp1224
sg71
I0
sg72
g73
sg335
(i__main__
DelphiBlock
p1225
(dp1226
g338
(idelphi
DelphiCompoundStatement
p1227
(dp1228
g341
(lp1229
(i__main__
DelphiAssignStatement
p1230
(dp1231
g345
(i__main__
DelphiIdentAccess
p1232
(dp1233
g349
S'kTransferSave'
p1234
sg351
(lp1235
sbsg346
(i__main__
DelphiIdentAccess
p1236
(dp1237
g349
S'transferDirection'
p1238
sg351
(lp1239
sbsba(i__main__
DelphiAssignStatement
p1240
(dp1241
g345
Nsg346
(i__main__
DelphiIdentAccess
p1242
(dp1243
g349
S'self'
p1244
sg351
(lp1245
(idelphi
DelphiFieldEndAccess
p1246
(dp1247
g367
S'transferFields'
p1248
sbasbsba(i__main__
DelphiAssignStatement
p1249
(dp1250
g345
(i__main__
DelphiIdentAccess
p1251
(dp1252
g349
S'mrOK'
p1253
sg351
(lp1254
sbsg346
(i__main__
DelphiIdentAccess
p1255
(dp1256
g349
S'modalResult'
p1257
sg351
(lp1258
sbsbasbsg509
(lp1259
sbsbsS'helpbuttonclick'
p1260
(i__main__
DelphiMethodImplementation
p1261
(dp1262
g321
g50
sg45
g52
sg53
(lp1263
(i__main__
DelphiFormalParameter
p1264
(dp1265
g57
Nsg58
(lp1266
S'Sender'
p1267
asg61
(i__main__
DelphiNamedType
p1268
(dp1269
g64
S'TObject'
p1270
sg66
g1
sg67
Nsbsg68
Nsbasg323
(lp1271
sg325
(lp1272
sg327
(lp1273
g329
ag1267
asg330
(dp1274
g1267
g1268
ssg69
S'TCustomDrawOptionsForm'
p1275
sg70
Nsg333
(lp1276
sg71
I0
sg72
g73
sg335
(i__main__
DelphiBlock
p1277
(dp1278
g338
(idelphi
DelphiCompoundStatement
p1279
(dp1280
g341
(lp1281
(i__main__
DelphiAssignStatement
p1282
(dp1283
g345
Nsg346
(i__main__
DelphiIdentAccess
p1284
(dp1285
g349
S'Application'
p1286
sg351
(lp1287
(idelphi
DelphiFieldEndAccess
p1288
(dp1289
g367
S'helpJump'
p1290
sba(idelphi
DelphiFunctionEndAccess
p1291
(dp1292
g355
(lp1293
(idelphi
DelphiStringAccess
p1294
(dp1295
g351
(lp1296
sg1012
(idelphi
DelphiStringValue
p1297
(dp1298
g1012
S'Changing_the_drawing_speed'
p1299
sbsbasbasbsbasbsg509
(lp1300
sbsbssS'propertyDeclarations'
p1301
(dp1302
sS'variableNamesInDeclaredOrder'
p1303
(lp1304
g16
ag38
ag36
ag24
ag44
ag40
ag28
ag10
ag22
ag30
ag14
ag26
ag18
ag32
ag34
ag42
ag20
ag12
asba(i__main__
DelphiConstSection
p1305
(dp1306
S'constDeclList'
p1307
(lp1308
(idelphi
DelphiConstDeclaration
p1309
(dp1310
S'constExpression'
p1311
(idelphi
DelphiIntegerValue
p1312
(dp1313
g1012
S'1'
sbsg349
S'kTransferLoad'
p1314
sg61
(idelphi
DelphiPrimitiveType
p1315
(dp1316
g64
S'UNDEFINED_NEEDS_CALCULATION'
p1317
sbsba(idelphi
DelphiConstDeclaration
p1318
(dp1319
g1311
(idelphi
DelphiIntegerValue
p1320
(dp1321
g1012
S'2'
sbsg349
S'kTransferSave'
p1322
sg61
(idelphi
DelphiPrimitiveType
p1323
(dp1324
g64
g1317
sbsbasS'atTopLevel'
p1325
I1
sbasS'includedUnits'
p1326
NsS'implementationUses'
p1327
(lp1328
S'usupport'
p1329
asg45
S'ucustdrw'
p1330
sS'constSections'
p1331
(lp1332
g1305
asS'globalsInProperCase'
p1333
NsS'interfaceUses'
p1334
(lp1335
S'delphi_compatability'
p1336
aS'Windows'
p1337
aS'Messages'
p1338
aS'SysUtils'
p1339
aS'Classes'
p1340
aS'Graphics'
p1341
aS'Controls'
p1342
aS'Forms'
p1343
aS'Dialogs'
p1344
aS'StdCtrls'
p1345
aS'Spin'
p1346
aS'updform'
p1347
aS'Buttons'
p1348
aS'udomain'
p1349
asS'finalCommentToken'
p1350
(i__main__
PassStatement
p1351
(dp1352
g509
(lp1353
sg197
(lp1354
S'\r'
aS'procedure TOptionsForm.drawWithOpenGLClick(Sender: TObject);\r'
p1355
aS'  begin\r'
p1356
aS'  //drawLinesBetweenPolygons.enabled := (fillPolygons.checked) and (not drawWithOpenGL.checked);\r'
p1357
aS'  //sortPolygons.enabled := not drawWithOpenGL.checked;\r'
p1358
aS'  end;\r'
p1359
aS''
asbsS'varSections'
p1360
(lp1361
sS'globals'
p1362
NsS'originalFileName'
p1363
S'../../PlantStudioInPython/converted_source/ucustdrw.pas'
p1364
sS'proceduralImplementations'
p1365
(dp1366
sS'fileName'
p1367
S'/Users/pdf/Documents/workspace/PlantStudioInPython/converted_source/ucustdrw.pas'
p1368
sS'proceduralDeclarations'
p1369
(dp1370
sS'types'
p1371
(dp1372
S'tcustomdrawoptionsform'
p1373
g5
ssb.