(i__main__
DelphiUnit
p1
(dp2
S'sectionsInOrderDefined'
p3
(lp4
(i__main__
DelphiClass
p5
(dp6
S'variableNamesInProperCase'
p7
(dp8
S'supportbutton'
p9
S'supportButton'
p10
sS'savelistas'
p11
S'saveListAs'
p12
sS'helpbutton'
p13
S'helpButton'
p14
sS'logging'
p15
S'logging'
p16
sS'optionspanel'
p17
S'optionsPanel'
p18
sS'logtofile'
p19
S'logToFile'
p20
sS'debuglist'
p21
S'DebugList'
p22
sS'showonexceptioncheckbox'
p23
S'showOnExceptionCheckBox'
p24
sS'outputfile'
p25
S'outputFile'
p26
sS'close'
p27
S'Close'
p28
sS'clearlist'
p29
S'clearList'
p30
sS'exceptionlabel'
p31
S'exceptionLabel'
p32
ssS'name'
p33
S'TDebugForm'
p34
sS'methodDeclarations'
p35
(dp36
S'helpbuttonclick'
p37
(i__main__
DelphiMethodDeclaration
p38
(dp39
g33
S'helpButtonClick'
p40
sS'formalParameters'
p41
(lp42
(i__main__
DelphiFormalParameter
p43
(dp44
S'initialValue'
p45
NsS'names'
p46
(lp47
S'Sender'
p48
asS'theType'
p49
(i__main__
DelphiNamedType
p50
(dp51
S'typeName'
p52
S'TObject'
p53
sS'unitDefinedIn'
p54
g1
sS'unitName'
p55
NsbsS'parameterVariety'
p56
NsbasS'className'
p57
g34
sS'resultType'
p58
NsS'isClassMethod'
p59
I0
sS'methodType'
p60
S'procedure'
p61
sbsS'formdestroy'
p62
(i__main__
DelphiMethodDeclaration
p63
(dp64
g33
S'FormDestroy'
p65
sg41
(lp66
(i__main__
DelphiFormalParameter
p67
(dp68
g45
Nsg46
(lp69
S'Sender'
p70
asg49
(i__main__
DelphiNamedType
p71
(dp72
g52
S'TObject'
p73
sg54
g1
sg55
Nsbsg56
Nsbasg57
g34
sg58
Nsg59
I0
sg60
g61
sbsS'formresize'
p74
(i__main__
DelphiMethodDeclaration
p75
(dp76
g33
S'FormResize'
p77
sg41
(lp78
(i__main__
DelphiFormalParameter
p79
(dp80
g45
Nsg46
(lp81
S'Sender'
p82
asg49
(i__main__
DelphiNamedType
p83
(dp84
g52
S'TObject'
p85
sg54
g1
sg55
Nsbsg56
Nsbasg57
g34
sg58
Nsg59
I0
sg60
g61
sbsS'printnested'
p86
(i__main__
DelphiMethodDeclaration
p87
(dp88
g33
S'printNested'
p89
sg41
(lp90
(i__main__
DelphiFormalParameter
p91
(dp92
g45
Nsg46
(lp93
S'level'
p94
asg49
(i__main__
DelphiPrimitiveType
p95
(dp96
g52
S'longint'
p97
sbsg56
Nsba(i__main__
DelphiFormalParameter
p98
(dp99
g45
Nsg46
(lp100
S'aString'
p101
asg49
(i__main__
DelphiPrimitiveType
p102
(dp103
g52
S'string'
p104
sbsg56
Nsbasg57
g34
sg58
Nsg59
I0
sg60
g61
sbsS'saveexceptionlisttofile'
p105
(i__main__
DelphiMethodDeclaration
p106
(dp107
g33
S'saveExceptionListToFile'
p108
sg41
(lp109
(i__main__
DelphiFormalParameter
p110
(dp111
g45
Nsg46
(lp112
S'fileName'
p113
asg49
(i__main__
DelphiPrimitiveType
p114
(dp115
g52
g104
sbsg56
Nsbasg57
g34
sg58
Nsg59
I0
sg60
g61
sbsS'clear'
p116
(i__main__
DelphiMethodDeclaration
p117
(dp118
g33
S'clear'
p119
sg41
(lp120
sg57
g34
sg58
Nsg59
I0
sg60
g61
sbsS'showonexceptioncheckboxclick'
p121
(i__main__
DelphiMethodDeclaration
p122
(dp123
g33
S'showOnExceptionCheckBoxClick'
p124
sg41
(lp125
(i__main__
DelphiFormalParameter
p126
(dp127
g45
Nsg46
(lp128
S'Sender'
p129
asg49
(i__main__
DelphiNamedType
p130
(dp131
g52
S'TObject'
p132
sg54
g1
sg55
Nsbsg56
Nsbasg57
g34
sg58
Nsg59
I0
sg60
g61
sbsS'wmgetminmaxinfo'
p133
(i__main__
DelphiMethodDeclaration
p134
(dp135
g33
S'WMGetMinMaxInfo'
p136
sg41
(lp137
(i__main__
DelphiFormalParameter
p138
(dp139
g45
Nsg46
(lp140
S'MSG'
p141
asg49
(i__main__
DelphiNamedType
p142
(dp143
g52
S'Tmessage'
p144
sg54
g1
sg55
Nsbsg56
S'var'
p145
sbasg57
g34
sg58
Nsg59
I0
sg60
g61
sS'commentLinesBefore'
p146
(lp147
S' Private declarations '
p148
asbsS'clearlistclick'
p149
(i__main__
DelphiMethodDeclaration
p150
(dp151
g33
S'clearListClick'
p152
sg41
(lp153
(i__main__
DelphiFormalParameter
p154
(dp155
g45
Nsg46
(lp156
S'Sender'
p157
asg49
(i__main__
DelphiNamedType
p158
(dp159
g52
S'TObject'
p160
sg54
g1
sg55
Nsbsg56
Nsbasg57
g34
sg58
Nsg59
I0
sg60
g61
sbsS'stoplogging'
p161
(i__main__
DelphiMethodDeclaration
p162
(dp163
g33
S'stopLogging'
p164
sg41
(lp165
sg57
g34
sg58
Nsg59
I0
sg60
g61
sbsS'supportbuttonclick'
p166
(i__main__
DelphiMethodDeclaration
p167
(dp168
g33
S'supportButtonClick'
p169
sg41
(lp170
(i__main__
DelphiFormalParameter
p171
(dp172
g45
Nsg46
(lp173
S'Sender'
p174
asg49
(i__main__
DelphiNamedType
p175
(dp176
g52
S'TObject'
p177
sg54
g1
sg55
Nsbsg56
Nsbasg57
g34
sg58
Nsg59
I0
sg60
g61
sbsS'startlogging'
p178
(i__main__
DelphiMethodDeclaration
p179
(dp180
g33
S'startLogging'
p181
sg41
(lp182
(i__main__
DelphiFormalParameter
p183
(dp184
g45
Nsg46
(lp185
S'fileName'
p186
asg49
(i__main__
DelphiPrimitiveType
p187
(dp188
g52
g104
sbsg56
Nsbasg57
g34
sg58
Nsg59
I0
sg60
g61
sbsS'savelistasclick'
p189
(i__main__
DelphiMethodDeclaration
p190
(dp191
g33
S'saveListAsClick'
p192
sg41
(lp193
(i__main__
DelphiFormalParameter
p194
(dp195
g45
Nsg46
(lp196
S'Sender'
p197
asg49
(i__main__
DelphiNamedType
p198
(dp199
g52
S'TObject'
p200
sg54
g1
sg55
Nsbsg56
Nsbasg57
g34
sg58
Nsg59
I0
sg60
g61
sbsS'print'
p201
(i__main__
DelphiMethodDeclaration
p202
(dp203
g33
S'print'
p204
sg41
(lp205
(i__main__
DelphiFormalParameter
p206
(dp207
g45
Nsg46
(lp208
S'aString'
p209
asg49
(i__main__
DelphiPrimitiveType
p210
(dp211
g52
g104
sbsg56
Nsbasg57
g34
sg58
Nsg59
I0
sg60
g61
sg146
(lp212
S' Public declarations '
p213
asbsS'formcreate'
p214
(i__main__
DelphiMethodDeclaration
p215
(dp216
g33
S'FormCreate'
p217
sg41
(lp218
(i__main__
DelphiFormalParameter
p219
(dp220
g45
Nsg46
(lp221
S'Sender'
p222
asg49
(i__main__
DelphiNamedType
p223
(dp224
g52
S'TObject'
p225
sg54
g1
sg55
Nsbsg56
Nsbasg57
g34
sg58
Nsg59
I0
sg60
g61
sbsS'closeclick'
p226
(i__main__
DelphiMethodDeclaration
p227
(dp228
g33
S'CloseClick'
p229
sg41
(lp230
(i__main__
DelphiFormalParameter
p231
(dp232
g45
Nsg46
(lp233
S'Sender'
p234
asg49
(i__main__
DelphiNamedType
p235
(dp236
g52
S'TObject'
p237
sg54
g1
sg55
Nsbsg56
Nsbasg57
g34
sg58
Nsg59
I0
sg60
g61
sbsS'logtofileclick'
p238
(i__main__
DelphiMethodDeclaration
p239
(dp240
g33
S'logToFileClick'
p241
sg41
(lp242
(i__main__
DelphiFormalParameter
p243
(dp244
g45
Nsg46
(lp245
S'Sender'
p246
asg49
(i__main__
DelphiNamedType
p247
(dp248
g52
S'TObject'
p249
sg54
g1
sg55
Nsbsg56
Nsbasg57
g34
sg58
Nsg59
I0
sg60
g61
sbssS'superclassNamedTypes'
p250
(lp251
(i__main__
DelphiNamedType
p252
(dp253
g52
S'PdForm'
p254
sg54
g1
sg55
NsbasS'variableNames'
p255
(dp256
S'supportbutton'
p257
(i__main__
DelphiNamedType
p258
(dp259
g52
S'TButton'
p260
sg54
g1
sg55
NsbsS'savelistas'
p261
(i__main__
DelphiNamedType
p262
(dp263
g52
S'TButton'
p264
sg54
g1
sg55
NsbsS'helpbutton'
p265
(i__main__
DelphiNamedType
p266
(dp267
g52
S'TSpeedButton'
p268
sg54
g1
sg55
NsbsS'logging'
p269
(i__main__
DelphiPrimitiveType
p270
(dp271
g52
S'boolean'
p272
sbsS'optionspanel'
p273
(i__main__
DelphiNamedType
p274
(dp275
g52
S'TPanel'
p276
sg54
g1
sg55
NsbsS'logtofile'
p277
(i__main__
DelphiNamedType
p278
(dp279
g52
S'TCheckBox'
p280
sg54
g1
sg55
NsbsS'debuglist'
p281
(i__main__
DelphiNamedType
p282
(dp283
g52
S'TListBox'
p284
sg54
g1
sg55
NsbsS'showonexceptioncheckbox'
p285
(i__main__
DelphiNamedType
p286
(dp287
g52
S'TCheckBox'
p288
sg54
g1
sg55
NsbsS'outputfile'
p289
(i__main__
DelphiNamedType
p290
(dp291
g52
S'TextFile'
p292
sg54
g1
sg55
NsbsS'close'
p293
(i__main__
DelphiNamedType
p294
(dp295
g52
S'TButton'
p296
sg54
g1
sg55
NsbsS'clearlist'
p297
(i__main__
DelphiNamedType
p298
(dp299
g52
S'TButton'
p300
sg54
g1
sg55
NsbsS'exceptionlabel'
p301
(i__main__
DelphiNamedType
p302
(dp303
g52
S'TLabel'
p304
sg54
g1
sg55
NsbssS'methodNamesInDefinedOrder'
p305
(lp306
S'formcreate'
p307
aS'formdestroy'
p308
aS'startlogging'
p309
aS'stoplogging'
p310
aS'saveexceptionlisttofile'
p311
aS'printnested'
p312
aS'print'
p313
aS'clear'
p314
aS'closeclick'
p315
aS'savelistasclick'
p316
aS'clearlistclick'
p317
aS'helpbuttonclick'
p318
aS'formresize'
p319
aS'wmgetminmaxinfo'
p320
aS'logtofileclick'
p321
aS'showonexceptioncheckboxclick'
p322
aS'supportbuttonclick'
p323
asS'methodImplementations'
p324
(dp325
S'helpbuttonclick'
p326
(i__main__
DelphiMethodImplementation
p327
(dp328
S'originalDeclaration'
p329
g38
sg33
g40
sg41
(lp330
(i__main__
DelphiFormalParameter
p331
(dp332
g45
Nsg46
(lp333
S'Sender'
p334
asg49
(i__main__
DelphiNamedType
p335
(dp336
g52
S'TObject'
p337
sg54
g1
sg55
Nsbsg56
NsbasS'varParamIndexes'
p338
(lp339
sS'varParamsSkipped'
p340
(lp341
sS'argNames'
p342
(lp343
S'self'
p344
ag334
asS'argTypes'
p345
(dp346
g334
g335
ssg57
S'TDebugForm'
p347
sg58
NsS'varParamNames'
p348
(lp349
sg59
I0
sg60
g61
sS'block'
p350
(i__main__
DelphiBlock
p351
(dp352
S'compoundStatement'
p353
(idelphi
DelphiCompoundStatement
p354
(dp355
S'statements'
p356
(lp357
(i__main__
DelphiAssignStatement
p358
(dp359
S'newValueExpression'
p360
NsS'destinationExpression'
p361
(i__main__
DelphiIdentAccess
p362
(dp363
S'ident'
p364
S'application'
p365
sS'endAccessList'
p366
(lp367
(idelphi
DelphiFieldEndAccess
p368
(dp369
S'field'
p370
S'helpJump'
p371
sba(idelphi
DelphiFunctionEndAccess
p372
(dp373
S'expressionList'
p374
(lp375
(idelphi
DelphiStringAccess
p376
(dp377
g366
(lp378
sg104
(idelphi
DelphiStringValue
p379
(dp380
g104
S'Numerical_exceptions'
p381
sbsbasbasbsbasbsS'limitedDeclSectionList'
p382
(lp383
sbsbsS'formdestroy'
p384
(i__main__
DelphiMethodImplementation
p385
(dp386
g329
g63
sg33
g65
sg41
(lp387
(i__main__
DelphiFormalParameter
p388
(dp389
g45
Nsg46
(lp390
S'Sender'
p391
asg49
(i__main__
DelphiNamedType
p392
(dp393
g52
S'TObject'
p394
sg54
g1
sg55
Nsbsg56
Nsbasg338
(lp395
sg340
(lp396
sg342
(lp397
g344
ag391
asg345
(dp398
g391
g392
ssg57
S'TDebugForm'
p399
sg58
Nsg348
(lp400
sg59
I0
sg60
g61
sg350
(i__main__
DelphiBlock
p401
(dp402
g353
(idelphi
DelphiCompoundStatement
p403
(dp404
g356
(lp405
(i__main__
DelphiAssignStatement
p406
(dp407
g360
Nsg361
(i__main__
DelphiIdentAccess
p408
(dp409
g364
S'self'
p410
sg366
(lp411
(idelphi
DelphiFieldEndAccess
p412
(dp413
g370
S'stopLogging'
p414
sbasbsbasbsg382
(lp415
sbsbsS'formresize'
p416
(i__main__
DelphiMethodImplementation
p417
(dp418
g329
g75
sg33
g77
sg41
(lp419
(i__main__
DelphiFormalParameter
p420
(dp421
g45
Nsg46
(lp422
S'Sender'
p423
asg49
(i__main__
DelphiNamedType
p424
(dp425
g52
S'TObject'
p426
sg54
g1
sg55
Nsbsg56
Nsbasg338
(lp427
sg340
(lp428
sg342
(lp429
g344
ag423
asg345
(dp430
g423
g424
ssg57
S'TDebugForm'
p431
sg58
Nsg348
(lp432
sg59
I0
sg60
g61
sg350
(i__main__
DelphiBlock
p433
(dp434
g353
(idelphi
DelphiCompoundStatement
p435
(dp436
g356
(lp437
(idelphi
DelphiIfStatement
p438
(dp439
S'expression'
p440
(i__main__
DelphiIdentAccess
p441
(dp442
g364
S'Application'
p443
sg366
(lp444
(idelphi
DelphiFieldEndAccess
p445
(dp446
g370
S'terminated'
p447
sbasbsS'ifFalseStatement'
p448
NsS'ifTrueStatement'
p449
(i__main__
DelphiExitStatement
p450
(dp451
S'proceduralOrMethodImplementation'
p452
g417
sbsba(i__main__
DelphiAssignStatement
p453
(dp454
g360
(idelphi
DelphiAddOp
p455
(dp456
S'addOp'
p457
S'-'
sS'term2'
p458
(i__main__
DelphiIdentAccess
p459
(dp460
g364
S'kBetweenGap'
p461
sg366
(lp462
sbsS'term1'
p463
(idelphi
DelphiAddOp
p464
(dp465
g457
S'-'
sg458
(i__main__
DelphiIdentAccess
p466
(dp467
g364
S'close'
p468
sg366
(lp469
(idelphi
DelphiFieldEndAccess
p470
(dp471
g370
S'width'
p472
sbasbsg463
(i__main__
DelphiIdentAccess
p473
(dp474
g364
S'self'
p475
sg366
(lp476
(idelphi
DelphiFieldEndAccess
p477
(dp478
g370
S'clientWidth'
p479
sbasbsbsbsg361
(i__main__
DelphiIdentAccess
p480
(dp481
g364
S'close'
p482
sg366
(lp483
(idelphi
DelphiFieldEndAccess
p484
(dp485
g370
S'left'
p486
sbasbsba(i__main__
DelphiAssignStatement
p487
(dp488
g360
(i__main__
DelphiIdentAccess
p489
(dp490
g364
S'close'
p491
sg366
(lp492
(idelphi
DelphiFieldEndAccess
p493
(dp494
g370
S'left'
p495
sbasbsg361
(i__main__
DelphiIdentAccess
p496
(dp497
g364
S'saveListAs'
p498
sg366
(lp499
(idelphi
DelphiFieldEndAccess
p500
(dp501
g370
S'left'
p502
sbasbsba(i__main__
DelphiAssignStatement
p503
(dp504
g360
(i__main__
DelphiIdentAccess
p505
(dp506
g364
S'close'
p507
sg366
(lp508
(idelphi
DelphiFieldEndAccess
p509
(dp510
g370
S'left'
p511
sbasbsg361
(i__main__
DelphiIdentAccess
p512
(dp513
g364
S'clearList'
p514
sg366
(lp515
(idelphi
DelphiFieldEndAccess
p516
(dp517
g370
S'left'
p518
sbasbsba(i__main__
DelphiAssignStatement
p519
(dp520
g360
(i__main__
DelphiIdentAccess
p521
(dp522
g364
S'close'
p523
sg366
(lp524
(idelphi
DelphiFieldEndAccess
p525
(dp526
g370
S'left'
p527
sbasbsg361
(i__main__
DelphiIdentAccess
p528
(dp529
g364
S'helpButton'
p530
sg366
(lp531
(idelphi
DelphiFieldEndAccess
p532
(dp533
g370
S'left'
p534
sbasbsba(i__main__
DelphiAssignStatement
p535
(dp536
g360
(i__main__
DelphiIdentAccess
p537
(dp538
g364
S'close'
p539
sg366
(lp540
(idelphi
DelphiFieldEndAccess
p541
(dp542
g370
S'left'
p543
sbasbsg361
(i__main__
DelphiIdentAccess
p544
(dp545
g364
S'supportButton'
p546
sg366
(lp547
(idelphi
DelphiFieldEndAccess
p548
(dp549
g370
S'left'
p550
sbasbsba(idelphi
DelphiWithStatement
p551
(dp552
S'statement'
p553
(i__main__
DelphiAssignStatement
p554
(dp555
g360
Nsg361
(i__main__
DelphiIdentAccess
p556
(dp557
g364
S'setBounds'
p558
sg366
(lp559
(idelphi
DelphiFunctionEndAccess
p560
(dp561
g374
(lp562
(i__main__
DelphiIdentAccess
p563
(dp564
g364
S'kBetweenGap'
p565
sg366
(lp566
sba(i__main__
DelphiIdentAccess
p567
(dp568
g364
S'kBetweenGap'
p569
sg366
(lp570
sba(idelphi
DelphiAddOp
p571
(dp572
g457
S'-'
sg458
(idelphi
DelphiMulOp
p573
(dp574
S'signedFactor2'
p575
(idelphi
DelphiIntegerValue
p576
(dp577
g104
S'2'
sbsS'mulOp'
p578
S'*'
sS'signedFactor1'
p579
(i__main__
DelphiIdentAccess
p580
(dp581
g364
S'kBetweenGap'
p582
sg366
(lp583
sbsbsg463
(i__main__
DelphiIdentAccess
p584
(dp585
g364
S'close'
p586
sg366
(lp587
(idelphi
DelphiFieldEndAccess
p588
(dp589
g370
S'left'
p590
sbasbsba(i__main__
DelphiIdentAccess
p591
(dp592
g364
S'intMax'
p593
sg366
(lp594
(idelphi
DelphiFunctionEndAccess
p595
(dp596
g374
(lp597
(idelphi
DelphiIntegerValue
p598
(dp599
g104
S'0'
sba(idelphi
DelphiAddOp
p600
(dp601
g457
S'-'
sg458
(idelphi
DelphiMulOp
p602
(dp603
g575
(idelphi
DelphiIntegerValue
p604
(dp605
g104
S'3'
sbsg578
S'*'
sg579
(i__main__
DelphiIdentAccess
p606
(dp607
g364
S'kBetweenGap'
p608
sg366
(lp609
sbsbsg463
(idelphi
DelphiAddOp
p610
(dp611
g457
S'-'
sg458
(i__main__
DelphiIdentAccess
p612
(dp613
g364
S'optionsPanel'
p614
sg366
(lp615
(idelphi
DelphiFieldEndAccess
p616
(dp617
g370
S'height'
p618
sbasbsg463
(i__main__
DelphiIdentAccess
p619
(dp620
g364
S'self'
p621
sg366
(lp622
(idelphi
DelphiFieldEndAccess
p623
(dp624
g370
S'clientHeight'
p625
sbasbsbsbasbasbasbasbsbsS'variableReferenceList'
p626
(lp627
(i__main__
DelphiIdentAccess
p628
(dp629
g364
S'debugList'
p630
sg366
(lp631
sbasba(idelphi
DelphiWithStatement
p632
(dp633
g553
(i__main__
DelphiAssignStatement
p634
(dp635
g360
Nsg361
(i__main__
DelphiIdentAccess
p636
(dp637
g364
S'setBounds'
p638
sg366
(lp639
(idelphi
DelphiFunctionEndAccess
p640
(dp641
g374
(lp642
(i__main__
DelphiIdentAccess
p643
(dp644
g364
S'kBetweenGap'
p645
sg366
(lp646
sba(i__main__
DelphiIdentAccess
p647
(dp648
g364
S'intMax'
p649
sg366
(lp650
(idelphi
DelphiFunctionEndAccess
p651
(dp652
g374
(lp653
(idelphi
DelphiIntegerValue
p654
(dp655
g104
S'0'
sba(idelphi
DelphiAddOp
p656
(dp657
g457
S'-'
sg458
(i__main__
DelphiIdentAccess
p658
(dp659
g364
S'kBetweenGap'
p660
sg366
(lp661
sbsg463
(idelphi
DelphiAddOp
p662
(dp663
g457
S'-'
sg458
(i__main__
DelphiIdentAccess
p664
(dp665
g364
S'height'
p666
sg366
(lp667
sbsg463
(i__main__
DelphiIdentAccess
p668
(dp669
g364
S'self'
p670
sg366
(lp671
(idelphi
DelphiFieldEndAccess
p672
(dp673
g370
S'clientHeight'
p674
sbasbsbsbasbasba(idelphi
DelphiAddOp
p675
(dp676
g457
S'-'
sg458
(idelphi
DelphiMulOp
p677
(dp678
g575
(idelphi
DelphiIntegerValue
p679
(dp680
g104
S'2'
sbsg578
S'*'
sg579
(i__main__
DelphiIdentAccess
p681
(dp682
g364
S'kBetweenGap'
p683
sg366
(lp684
sbsbsg463
(i__main__
DelphiIdentAccess
p685
(dp686
g364
S'close'
p687
sg366
(lp688
(idelphi
DelphiFieldEndAccess
p689
(dp690
g370
S'left'
p691
sbasbsba(i__main__
DelphiIdentAccess
p692
(dp693
g364
S'height'
p694
sg366
(lp695
sbasbasbsbsg626
(lp696
(i__main__
DelphiIdentAccess
p697
(dp698
g364
S'optionsPanel'
p699
sg366
(lp700
sbasbasbsg382
(lp701
sbsbsS'printnested'
p702
(i__main__
DelphiMethodImplementation
p703
(dp704
g329
g87
sg33
g89
sg41
(lp705
(i__main__
DelphiFormalParameter
p706
(dp707
g45
Nsg46
(lp708
S'level'
p709
asg49
(i__main__
DelphiPrimitiveType
p710
(dp711
g52
g97
sbsg56
Nsba(i__main__
DelphiFormalParameter
p712
(dp713
g45
Nsg46
(lp714
S'aString'
p715
asg49
(i__main__
DelphiPrimitiveType
p716
(dp717
g52
g104
sbsg56
Nsbasg338
(lp718
sg340
(lp719
sg342
(lp720
g344
ag709
ag715
asg345
(dp721
g715
g716
sg709
g710
ssg57
S'TDebugForm'
p722
sg58
Nsg348
(lp723
sg59
I0
sg60
g61
sg350
(i__main__
DelphiBlock
p724
(dp725
g353
(idelphi
DelphiCompoundStatement
p726
(dp727
g356
(lp728
(idelphi
DelphiIfStatement
p729
(dp730
g440
(idelphi
DelphiRelOp
p731
(dp732
S'simpleExpression1'
p733
(i__main__
DelphiIdentAccess
p734
(dp735
g364
S'level'
p736
sg366
(lp737
sbsS'simpleExpression2'
p738
(idelphi
DelphiIntegerValue
p739
(dp740
g104
S'40'
p741
sbsS'relOp'
p742
S'>'
sbsg448
Nsg449
(i__main__
DelphiAssignStatement
p743
(dp744
g360
(idelphi
DelphiIntegerValue
p745
(dp746
g104
S'40'
p747
sbsg361
(i__main__
DelphiIdentAccess
p748
(dp749
g364
S'level'
p750
sg366
(lp751
sbsbsba(i__main__
DelphiAssignStatement
p752
(dp753
g360
(idelphi
DelphiStringAccess
p754
(dp755
g366
(lp756
sg104
(idelphi
DelphiStringValue
p757
(dp758
g104
S''
sbsbsg361
(i__main__
DelphiIdentAccess
p759
(dp760
g364
S'prefix'
p761
sg366
(lp762
sbsba(idelphi
DelphiIfStatement
p763
(dp764
g440
(idelphi
DelphiRelOp
p765
(dp766
g733
(i__main__
DelphiIdentAccess
p767
(dp768
g364
S'level'
p769
sg366
(lp770
sbsg738
(idelphi
DelphiIntegerValue
p771
(dp772
g104
S'0'
sbsg742
S'>'
sbsg448
Nsg449
(idelphi
DelphiForStatement
p773
(dp774
S'variable'
p775
S'i'
sS'finalValue'
p776
(i__main__
DelphiIdentAccess
p777
(dp778
g364
S'level'
p779
sg366
(lp780
sbsS'direction'
p781
S'to'
p782
sg45
(idelphi
DelphiIntegerValue
p783
(dp784
g104
S'1'
sbsg553
(i__main__
DelphiAssignStatement
p785
(dp786
g360
Nsg361
(i__main__
DelphiIdentAccess
p787
(dp788
g364
S'AppendStr'
p789
sg366
(lp790
(idelphi
DelphiFunctionEndAccess
p791
(dp792
g374
(lp793
(i__main__
DelphiIdentAccess
p794
(dp795
g364
S'prefix'
p796
sg366
(lp797
sba(idelphi
DelphiStringAccess
p798
(dp799
g366
(lp800
sg104
(idelphi
DelphiStringValue
p801
(dp802
g104
S'..'
p803
sbsbasbasbsbsbsba(i__main__
DelphiAssignStatement
p804
(dp805
g360
Nsg361
(i__main__
DelphiIdentAccess
p806
(dp807
g364
S'print'
p808
sg366
(lp809
(idelphi
DelphiFunctionEndAccess
p810
(dp811
g374
(lp812
(idelphi
DelphiAddOp
p813
(dp814
g457
S'+'
sg458
(i__main__
DelphiIdentAccess
p815
(dp816
g364
S'aString'
p817
sg366
(lp818
sbsg463
(i__main__
DelphiIdentAccess
p819
(dp820
g364
S'prefix'
p821
sg366
(lp822
sbsbasbasbsbasbsg382
(lp823
(i__main__
DelphiVarSection
p824
(dp825
S'atTopLevel'
p826
I0
sS'varDeclList'
p827
(lp828
(idelphi
DelphiVarDecl
p829
(dp830
S'constExpression'
p831
NsS'identList'
p832
(lp833
S'i'
asg49
(i__main__
DelphiPrimitiveType
p834
(dp835
g52
g97
sbsba(idelphi
DelphiVarDecl
p836
(dp837
g831
Nsg832
(lp838
S'prefix'
p839
asg49
(i__main__
DelphiNamedType
p840
(dp841
g52
S'ansistring'
p842
sg54
g1
sg55
NsbsbasbasbsbsS'formcreate'
p843
(i__main__
DelphiMethodImplementation
p844
(dp845
g329
g215
sg33
g217
sg41
(lp846
(i__main__
DelphiFormalParameter
p847
(dp848
g45
Nsg46
(lp849
S'Sender'
p850
asg49
(i__main__
DelphiNamedType
p851
(dp852
g52
S'TObject'
p853
sg54
g1
sg55
Nsbsg56
Nsbasg338
(lp854
sg340
(lp855
sg342
(lp856
g344
ag850
asg345
(dp857
g850
g851
ssg57
S'TDebugForm'
p858
sg58
Nsg348
(lp859
sg59
I0
sg60
g61
sg350
(i__main__
DelphiBlock
p860
(dp861
g353
(idelphi
DelphiCompoundStatement
p862
(dp863
g356
(lp864
(i__main__
DelphiAssignStatement
p865
(dp866
g360
(i__main__
DelphiIdentAccess
p867
(dp868
g364
S'domain'
p869
sg366
(lp870
(idelphi
DelphiFieldEndAccess
p871
(dp872
g370
S'debugWindowRect'
p873
sbasbsg361
(i__main__
DelphiIdentAccess
p874
(dp875
g364
S'tempBoundsRect'
p876
sg366
(lp877
sbsg146
(lp878
S' keep window on screen - left corner of title bar '
p879
asba(idelphi
DelphiWithStatement
p880
(dp881
g553
(idelphi
DelphiIfStatement
p882
(dp883
g440
(idelphi
DelphiAddOp
p884
(dp885
g457
S'or'
p886
sg458
(idelphi
DelphiNestedExpressionListAccess
p887
(dp888
g366
(lp889
sg374
(lp890
(idelphi
DelphiRelOp
p891
(dp892
g733
(i__main__
DelphiIdentAccess
p893
(dp894
g364
S'bottom'
p895
sg366
(lp896
sbsg738
(idelphi
DelphiIntegerValue
p897
(dp898
g104
S'0'
sbsg742
S'<>'
p899
sbasbsg463
(idelphi
DelphiAddOp
p900
(dp901
g457
g886
sg458
(idelphi
DelphiNestedExpressionListAccess
p902
(dp903
g366
(lp904
sg374
(lp905
(idelphi
DelphiRelOp
p906
(dp907
g733
(i__main__
DelphiIdentAccess
p908
(dp909
g364
S'top'
p910
sg366
(lp911
sbsg738
(idelphi
DelphiIntegerValue
p912
(dp913
g104
S'0'
sbsg742
g899
sbasbsg463
(idelphi
DelphiAddOp
p914
(dp915
g457
g886
sg458
(idelphi
DelphiNestedExpressionListAccess
p916
(dp917
g366
(lp918
sg374
(lp919
(idelphi
DelphiRelOp
p920
(dp921
g733
(i__main__
DelphiIdentAccess
p922
(dp923
g364
S'right'
p924
sg366
(lp925
sbsg738
(idelphi
DelphiIntegerValue
p926
(dp927
g104
S'0'
sbsg742
g899
sbasbsg463
(idelphi
DelphiNestedExpressionListAccess
p928
(dp929
g366
(lp930
sg374
(lp931
(idelphi
DelphiRelOp
p932
(dp933
g733
(i__main__
DelphiIdentAccess
p934
(dp935
g364
S'left'
p936
sg366
(lp937
sbsg738
(idelphi
DelphiIntegerValue
p938
(dp939
g104
S'0'
sbsg742
g899
sbasbsbsbsbsg448
Nsg449
(idelphi
DelphiCompoundStatement
p940
(dp941
g356
(lp942
(idelphi
DelphiIfStatement
p943
(dp944
g440
(idelphi
DelphiRelOp
p945
(dp946
g733
(i__main__
DelphiIdentAccess
p947
(dp948
g364
S'left'
p949
sg366
(lp950
sbsg738
(idelphi
DelphiAddOp
p951
(dp952
g457
S'-'
sg458
(i__main__
DelphiIdentAccess
p953
(dp954
g364
S'kMinWidthOnScreen'
p955
sg366
(lp956
sbsg463
(i__main__
DelphiIdentAccess
p957
(dp958
g364
S'screen'
p959
sg366
(lp960
(idelphi
DelphiFieldEndAccess
p961
(dp962
g370
S'width'
p963
sbasbsbsg742
S'>'
sbsg448
Nsg449
(i__main__
DelphiAssignStatement
p964
(dp965
g360
(idelphi
DelphiAddOp
p966
(dp967
g457
S'-'
sg458
(i__main__
DelphiIdentAccess
p968
(dp969
g364
S'kMinWidthOnScreen'
p970
sg366
(lp971
sbsg463
(i__main__
DelphiIdentAccess
p972
(dp973
g364
S'screen'
p974
sg366
(lp975
(idelphi
DelphiFieldEndAccess
p976
(dp977
g370
S'width'
p978
sbasbsbsg361
(i__main__
DelphiIdentAccess
p979
(dp980
g364
S'left'
p981
sg366
(lp982
sbsbsba(idelphi
DelphiIfStatement
p983
(dp984
g440
(idelphi
DelphiRelOp
p985
(dp986
g733
(i__main__
DelphiIdentAccess
p987
(dp988
g364
S'top'
p989
sg366
(lp990
sbsg738
(idelphi
DelphiAddOp
p991
(dp992
g457
S'-'
sg458
(i__main__
DelphiIdentAccess
p993
(dp994
g364
S'kMinHeightOnScreen'
p995
sg366
(lp996
sbsg463
(i__main__
DelphiIdentAccess
p997
(dp998
g364
S'screen'
p999
sg366
(lp1000
(idelphi
DelphiFieldEndAccess
p1001
(dp1002
g370
S'height'
p1003
sbasbsbsg742
S'>'
sbsg448
Nsg449
(i__main__
DelphiAssignStatement
p1004
(dp1005
g360
(idelphi
DelphiAddOp
p1006
(dp1007
g457
S'-'
sg458
(i__main__
DelphiIdentAccess
p1008
(dp1009
g364
S'kMinHeightOnScreen'
p1010
sg366
(lp1011
sbsg463
(i__main__
DelphiIdentAccess
p1012
(dp1013
g364
S'screen'
p1014
sg366
(lp1015
(idelphi
DelphiFieldEndAccess
p1016
(dp1017
g370
S'height'
p1018
sbasbsbsg361
(i__main__
DelphiIdentAccess
p1019
(dp1020
g364
S'top'
p1021
sg366
(lp1022
sbsbsba(i__main__
DelphiAssignStatement
p1023
(dp1024
g360
Nsg361
(i__main__
DelphiIdentAccess
p1025
(dp1026
g364
S'self'
p1027
sg366
(lp1028
(idelphi
DelphiFieldEndAccess
p1029
(dp1030
g370
S'setBounds'
p1031
sba(idelphi
DelphiFunctionEndAccess
p1032
(dp1033
g374
(lp1034
(i__main__
DelphiIdentAccess
p1035
(dp1036
g364
S'left'
p1037
sg366
(lp1038
sba(i__main__
DelphiIdentAccess
p1039
(dp1040
g364
S'top'
p1041
sg366
(lp1042
sba(i__main__
DelphiIdentAccess
p1043
(dp1044
g364
S'right'
p1045
sg366
(lp1046
sba(i__main__
DelphiIdentAccess
p1047
(dp1048
g364
S'bottom'
p1049
sg366
(lp1050
sbasbasbsbasbsbsg626
(lp1051
(i__main__
DelphiIdentAccess
p1052
(dp1053
g364
S'tempBoundsRect'
p1054
sg366
(lp1055
sbasba(i__main__
DelphiAssignStatement
p1056
(dp1057
g360
(i__main__
DelphiIdentAccess
p1058
(dp1059
g364
S'domain'
p1060
sg366
(lp1061
(idelphi
DelphiFieldEndAccess
p1062
(dp1063
g370
S'options'
p1064
sba(idelphi
DelphiFieldEndAccess
p1065
(dp1066
g370
S'showWindowOnException'
p1067
sbasbsg361
(i__main__
DelphiIdentAccess
p1068
(dp1069
g364
S'showOnExceptionCheckBox'
p1070
sg366
(lp1071
(idelphi
DelphiFieldEndAccess
p1072
(dp1073
g370
S'checked'
p1074
sbasbsba(i__main__
DelphiAssignStatement
p1075
(dp1076
g360
(i__main__
DelphiIdentAccess
p1077
(dp1078
g364
S'domain'
p1079
sg366
(lp1080
(idelphi
DelphiFieldEndAccess
p1081
(dp1082
g370
S'options'
p1083
sba(idelphi
DelphiFieldEndAccess
p1084
(dp1085
g370
S'logToFileOnException'
p1086
sbasbsg361
(i__main__
DelphiIdentAccess
p1087
(dp1088
g364
S'logToFile'
p1089
sg366
(lp1090
(idelphi
DelphiFieldEndAccess
p1091
(dp1092
g370
S'checked'
p1093
sbasbsba(i__main__
DelphiAssignStatement
p1094
(dp1095
g360
Nsg361
(i__main__
DelphiIdentAccess
p1096
(dp1097
g364
S'sendMessage'
p1098
sg366
(lp1099
(idelphi
DelphiFunctionEndAccess
p1100
(dp1101
g374
(lp1102
(i__main__
DelphiIdentAccess
p1103
(dp1104
g364
S'debugList'
p1105
sg366
(lp1106
(idelphi
DelphiFieldEndAccess
p1107
(dp1108
g370
S'handle'
p1109
sbasba(i__main__
DelphiIdentAccess
p1110
(dp1111
g364
S'LB_SETHORIZONTALEXTENT'
p1112
sg366
(lp1113
sba(idelphi
DelphiIntegerValue
p1114
(dp1115
g104
S'1000'
p1116
sba(i__main__
DelphiValueTypecastAccess
p1117
(dp1118
S'valueTypecast'
p1119
(i__main__
DelphiValueTypecast
p1120
(dp1121
g440
(idelphi
DelphiIntegerValue
p1122
(dp1123
g104
S'0'
sbsS'typeIdentPredefined'
p1124
(i__main__
DelphiPrimitiveType
p1125
(dp1126
g52
g97
sbsbsg366
(lp1127
sbasbasbsg146
(lp1128
S' this will make the list box create a horizontal scroll bar '
p1129
asbasbsg382
(lp1130
(i__main__
DelphiVarSection
p1131
(dp1132
g826
I0
sg827
(lp1133
(idelphi
DelphiVarDecl
p1134
(dp1135
g831
Nsg832
(lp1136
S'tempBoundsRect'
p1137
asg49
(i__main__
DelphiNamedType
p1138
(dp1139
g52
S'TRect'
p1140
sg54
g1
sg55
NsbsbasbasbsbsS'clear'
p1141
(i__main__
DelphiMethodImplementation
p1142
(dp1143
g329
g117
sg33
g119
sg41
(lp1144
sg338
(lp1145
sg340
(lp1146
sg342
(lp1147
g344
asg345
(dp1148
sg57
S'TDebugForm'
p1149
sg58
Nsg348
(lp1150
sg59
I0
sg60
g61
sg350
(i__main__
DelphiBlock
p1151
(dp1152
g353
(idelphi
DelphiCompoundStatement
p1153
(dp1154
g356
(lp1155
(i__main__
DelphiAssignStatement
p1156
(dp1157
g360
(i__main__
DelphiIdentAccess
p1158
(dp1159
g364
S'false'
p1160
sg366
(lp1161
sbsg361
(i__main__
DelphiIdentAccess
p1162
(dp1163
g364
S'self'
p1164
sg366
(lp1165
(idelphi
DelphiFieldEndAccess
p1166
(dp1167
g370
S'visible'
p1168
sbasbsba(i__main__
DelphiAssignStatement
p1169
(dp1170
g360
Nsg361
(i__main__
DelphiIdentAccess
p1171
(dp1172
g364
S'debugList'
p1173
sg366
(lp1174
(idelphi
DelphiFieldEndAccess
p1175
(dp1176
g370
S'items'
p1177
sba(idelphi
DelphiFieldEndAccess
p1178
(dp1179
g370
S'clear'
p1180
sbasbsbasbsg382
(lp1181
sbsbsS'showonexceptioncheckboxclick'
p1182
(i__main__
DelphiMethodImplementation
p1183
(dp1184
g329
g122
sg33
g124
sg41
(lp1185
(i__main__
DelphiFormalParameter
p1186
(dp1187
g45
Nsg46
(lp1188
S'Sender'
p1189
asg49
(i__main__
DelphiNamedType
p1190
(dp1191
g52
S'TObject'
p1192
sg54
g1
sg55
Nsbsg56
Nsbasg338
(lp1193
sg340
(lp1194
sg342
(lp1195
g344
ag1189
asg345
(dp1196
g1189
g1190
ssg57
S'TDebugForm'
p1197
sg58
Nsg348
(lp1198
sg59
I0
sg60
g61
sg350
(i__main__
DelphiBlock
p1199
(dp1200
g353
(idelphi
DelphiCompoundStatement
p1201
(dp1202
g356
(lp1203
(i__main__
DelphiAssignStatement
p1204
(dp1205
g360
(i__main__
DelphiIdentAccess
p1206
(dp1207
g364
S'showOnExceptionCheckBox'
p1208
sg366
(lp1209
(idelphi
DelphiFieldEndAccess
p1210
(dp1211
g370
S'checked'
p1212
sbasbsg361
(i__main__
DelphiIdentAccess
p1213
(dp1214
g364
S'domain'
p1215
sg366
(lp1216
(idelphi
DelphiFieldEndAccess
p1217
(dp1218
g370
S'options'
p1219
sba(idelphi
DelphiFieldEndAccess
p1220
(dp1221
g370
S'showWindowOnException'
p1222
sbasbsbasbsg382
(lp1223
sbsbsS'wmgetminmaxinfo'
p1224
(i__main__
DelphiMethodImplementation
p1225
(dp1226
g329
g134
sg33
g136
sg41
(lp1227
(i__main__
DelphiFormalParameter
p1228
(dp1229
g45
Nsg46
(lp1230
S'MSG'
p1231
asg49
(i__main__
DelphiNamedType
p1232
(dp1233
g52
S'Tmessage'
p1234
sg54
g1
sg55
Nsbsg56
g145
sbasg338
(lp1235
sg340
(lp1236
g1231
asg342
(lp1237
g344
ag1231
asg345
(dp1238
g1231
g1232
ssg57
S'TDebugForm'
p1239
sg58
Nsg348
(lp1240
sg59
I0
sg60
g61
sg350
(i__main__
DelphiBlock
p1241
(dp1242
g353
(idelphi
DelphiCompoundStatement
p1243
(dp1244
g356
(lp1245
(i__main__
DelphiAssignStatement
p1246
(dp1247
g360
Nsg361
(idelphi
DelphiInheritedCall
p1248
(dp1249
g364
Nsg374
Nsbsba(idelphi
DelphiWithStatement
p1250
(dp1251
g553
(idelphi
DelphiCompoundStatement
p1252
(dp1253
g356
(lp1254
(i__main__
DelphiAssignStatement
p1255
(dp1256
g360
(idelphi
DelphiIntegerValue
p1257
(dp1258
g104
S'350'
p1259
sbsg361
(i__main__
DelphiIdentAccess
p1260
(dp1261
g364
S'ptMinTrackSize'
p1262
sg366
(lp1263
(idelphi
DelphiFieldEndAccess
p1264
(dp1265
g370
S'x'
sbasbsba(i__main__
DelphiAssignStatement
p1266
(dp1267
g360
(idelphi
DelphiIntegerValue
p1268
(dp1269
g104
S'190'
p1270
sbsg361
(i__main__
DelphiIdentAccess
p1271
(dp1272
g364
S'ptMinTrackSize'
p1273
sg366
(lp1274
(idelphi
DelphiFieldEndAccess
p1275
(dp1276
g370
S'y'
sbasbsbasbsg626
(lp1277
(i__main__
DelphiIdentAccess
p1278
(dp1279
g364
S'PMinMaxInfo'
p1280
sg366
(lp1281
(idelphi
DelphiFunctionEndAccess
p1282
(dp1283
g374
(lp1284
(i__main__
DelphiIdentAccess
p1285
(dp1286
g364
S'MSG'
p1287
sg366
(lp1288
(idelphi
DelphiFieldEndAccess
p1289
(dp1290
g370
S'lparam'
p1291
sbasbasba(idelphi
DelphiPointerEndAccess
p1292
(dp1293
basbasbasbsg382
(lp1294
sbsg146
g147
sbsS'clearlistclick'
p1295
(i__main__
DelphiMethodImplementation
p1296
(dp1297
g329
g150
sg33
g152
sg41
(lp1298
(i__main__
DelphiFormalParameter
p1299
(dp1300
g45
Nsg46
(lp1301
S'Sender'
p1302
asg49
(i__main__
DelphiNamedType
p1303
(dp1304
g52
S'TObject'
p1305
sg54
g1
sg55
Nsbsg56
Nsbasg338
(lp1306
sg340
(lp1307
sg342
(lp1308
g344
ag1302
asg345
(dp1309
g1302
g1303
ssg57
S'TDebugForm'
p1310
sg58
Nsg348
(lp1311
sg59
I0
sg60
g61
sg350
(i__main__
DelphiBlock
p1312
(dp1313
g353
(idelphi
DelphiCompoundStatement
p1314
(dp1315
g356
(lp1316
(idelphi
DelphiIfStatement
p1317
(dp1318
g440
(idelphi
DelphiRelOp
p1319
(dp1320
g733
(i__main__
DelphiIdentAccess
p1321
(dp1322
g364
S'debugList'
p1323
sg366
(lp1324
(idelphi
DelphiFieldEndAccess
p1325
(dp1326
g370
S'items'
p1327
sba(idelphi
DelphiFieldEndAccess
p1328
(dp1329
g370
S'count'
p1330
sbasbsg738
(idelphi
DelphiIntegerValue
p1331
(dp1332
g104
S'0'
sbsg742
S'<='
p1333
sbsg448
Nsg449
(i__main__
DelphiExitStatement
p1334
(dp1335
g452
g1296
sbsba(i__main__
DelphiAssignStatement
p1336
(dp1337
g360
Nsg361
(i__main__
DelphiIdentAccess
p1338
(dp1339
g364
S'debugList'
p1340
sg366
(lp1341
(idelphi
DelphiFieldEndAccess
p1342
(dp1343
g370
S'items'
p1344
sba(idelphi
DelphiFieldEndAccess
p1345
(dp1346
g370
S'clear'
p1347
sbasbsbasbsg382
(lp1348
sbsbsS'stoplogging'
p1349
(i__main__
DelphiMethodImplementation
p1350
(dp1351
g329
g162
sg33
g164
sg41
(lp1352
sg338
(lp1353
sg340
(lp1354
sg342
(lp1355
g344
asg345
(dp1356
sg57
S'TDebugForm'
p1357
sg58
Nsg348
(lp1358
sg59
I0
sg60
g61
sg350
(i__main__
DelphiBlock
p1359
(dp1360
g353
(idelphi
DelphiCompoundStatement
p1361
(dp1362
g356
(lp1363
(idelphi
DelphiIfStatement
p1364
(dp1365
g440
(idelphi
DelphiNot
p1366
(dp1367
S'factor'
p1368
(i__main__
DelphiIdentAccess
p1369
(dp1370
g364
S'logging'
p1371
sg366
(lp1372
sbsbsg448
Nsg449
(i__main__
DelphiExitStatement
p1373
(dp1374
g452
g1350
sbsba(i__main__
DelphiAssignStatement
p1375
(dp1376
g360
Nsg361
(i__main__
DelphiIdentAccess
p1377
(dp1378
g364
S'writeln'
p1379
sg366
(lp1380
(idelphi
DelphiFunctionEndAccess
p1381
(dp1382
g374
(lp1383
(i__main__
DelphiIdentAccess
p1384
(dp1385
g364
S'outputFile'
p1386
sg366
(lp1387
sba(idelphi
DelphiStringAccess
p1388
(dp1389
g366
(lp1390
sg104
(idelphi
DelphiStringValue
p1391
(dp1392
g104
S'---- log stop ----'
p1393
sbsbasbasbsba(i__main__
DelphiAssignStatement
p1394
(dp1395
g360
Nsg361
(i__main__
DelphiIdentAccess
p1396
(dp1397
g364
S'closeFile'
p1398
sg366
(lp1399
(idelphi
DelphiFunctionEndAccess
p1400
(dp1401
g374
(lp1402
(i__main__
DelphiIdentAccess
p1403
(dp1404
g364
S'outputFile'
p1405
sg366
(lp1406
sbasbasbsba(i__main__
DelphiAssignStatement
p1407
(dp1408
g360
(i__main__
DelphiIdentAccess
p1409
(dp1410
g364
S'false'
p1411
sg366
(lp1412
sbsg361
(i__main__
DelphiIdentAccess
p1413
(dp1414
g364
S'logging'
p1415
sg366
(lp1416
sbsbasbsg382
(lp1417
sbsbsS'supportbuttonclick'
p1418
(i__main__
DelphiMethodImplementation
p1419
(dp1420
g329
g167
sg33
g169
sg41
(lp1421
(i__main__
DelphiFormalParameter
p1422
(dp1423
g45
Nsg46
(lp1424
S'Sender'
p1425
asg49
(i__main__
DelphiNamedType
p1426
(dp1427
g52
S'TObject'
p1428
sg54
g1
sg55
Nsbsg56
Nsbasg338
(lp1429
sg340
(lp1430
sg342
(lp1431
g344
ag1425
asg345
(dp1432
g1425
g1426
ssg57
S'TDebugForm'
p1433
sg58
Nsg348
(lp1434
sg59
I0
sg60
g61
sg350
(i__main__
DelphiBlock
p1435
(dp1436
g353
(idelphi
DelphiCompoundStatement
p1437
(dp1438
g356
(lp1439
(i__main__
DelphiAssignStatement
p1440
(dp1441
g360
(i__main__
DelphiIdentAccess
p1442
(dp1443
g364
S'TProgramInfoForm'
p1444
sg366
(lp1445
(idelphi
DelphiFieldEndAccess
p1446
(dp1447
g370
S'create'
p1448
sba(idelphi
DelphiFunctionEndAccess
p1449
(dp1450
g374
(lp1451
(i__main__
DelphiIdentAccess
p1452
(dp1453
g364
S'Application'
p1454
sg366
(lp1455
sbasbasbsg361
(i__main__
DelphiIdentAccess
p1456
(dp1457
g364
S'infoForm'
p1458
sg366
(lp1459
sbsba(idelphi
DelphiTryFinallyStatement
p1460
(dp1461
S'tryStatements'
p1462
(lp1463
(i__main__
DelphiAssignStatement
p1464
(dp1465
g360
Nsg361
(i__main__
DelphiIdentAccess
p1466
(dp1467
g364
S'infoForm'
p1468
sg366
(lp1469
(idelphi
DelphiFieldEndAccess
p1470
(dp1471
g370
S'showModal'
p1472
sbasbsbasS'finallyStatements'
p1473
(lp1474
(i__main__
DelphiAssignStatement
p1475
(dp1476
g360
Nsg361
(i__main__
DelphiIdentAccess
p1477
(dp1478
g364
S'infoForm'
p1479
sg366
(lp1480
(idelphi
DelphiFieldEndAccess
p1481
(dp1482
g370
S'free'
p1483
sbasbsba(i__main__
DelphiAssignStatement
p1484
(dp1485
g360
(idelphi
DelphiNilValue
p1486
(dp1487
bsg361
(i__main__
DelphiIdentAccess
p1488
(dp1489
g364
S'infoForm'
p1490
sg366
(lp1491
sbsbasbasbsg382
(lp1492
(i__main__
DelphiVarSection
p1493
(dp1494
g826
I0
sg827
(lp1495
(idelphi
DelphiVarDecl
p1496
(dp1497
g831
Nsg832
(lp1498
S'infoForm'
p1499
asg49
(i__main__
DelphiNamedType
p1500
(dp1501
g52
S'TProgramInfoForm'
p1502
sg54
g1
sg55
NsbsbasbasbsbsS'startlogging'
p1503
(i__main__
DelphiMethodImplementation
p1504
(dp1505
g329
g179
sg33
g181
sg41
(lp1506
(i__main__
DelphiFormalParameter
p1507
(dp1508
g45
Nsg46
(lp1509
S'fileName'
p1510
asg49
(i__main__
DelphiPrimitiveType
p1511
(dp1512
g52
g104
sbsg56
Nsbasg338
(lp1513
sg340
(lp1514
sg342
(lp1515
g344
ag1510
asg345
(dp1516
g1510
g1511
ssg57
S'TDebugForm'
p1517
sg58
Nsg348
(lp1518
sg59
I0
sg60
g61
sg350
(i__main__
DelphiBlock
p1519
(dp1520
g353
(idelphi
DelphiCompoundStatement
p1521
(dp1522
g356
(lp1523
(idelphi
DelphiIfStatement
p1524
(dp1525
g440
(i__main__
DelphiIdentAccess
p1526
(dp1527
g364
S'logging'
p1528
sg366
(lp1529
sbsg448
Nsg449
(i__main__
DelphiExitStatement
p1530
(dp1531
g452
g1504
sbsba(i__main__
DelphiAssignStatement
p1532
(dp1533
g360
Nsg361
(i__main__
DelphiIdentAccess
p1534
(dp1535
g364
S'assignFile'
p1536
sg366
(lp1537
(idelphi
DelphiFunctionEndAccess
p1538
(dp1539
g374
(lp1540
(i__main__
DelphiIdentAccess
p1541
(dp1542
g364
S'outputFile'
p1543
sg366
(lp1544
sba(i__main__
DelphiIdentAccess
p1545
(dp1546
g364
S'fileName'
p1547
sg366
(lp1548
sbasbasbsba(idelphi
DelphiIfStatement
p1549
(dp1550
g440
(idelphi
DelphiNot
p1551
(dp1552
g1368
(i__main__
DelphiIdentAccess
p1553
(dp1554
g364
S'fileExists'
p1555
sg366
(lp1556
(idelphi
DelphiFunctionEndAccess
p1557
(dp1558
g374
(lp1559
(i__main__
DelphiIdentAccess
p1560
(dp1561
g364
S'fileName'
p1562
sg366
(lp1563
sbasbasbsbsg448
(idelphi
DelphiCompoundStatement
p1564
(dp1565
g356
(lp1566
(i__main__
DelphiAssignStatement
p1567
(dp1568
g360
Nsg361
(i__main__
DelphiIdentAccess
p1569
(dp1570
g364
S'setDecimalSeparator'
p1571
sg366
(lp1572
sbsg146
(lp1573
S' v1.5\r'
p1574
asba(i__main__
DelphiAssignStatement
p1575
(dp1576
g360
Nsg361
(i__main__
DelphiIdentAccess
p1577
(dp1578
g364
S'append'
p1579
sg366
(lp1580
(idelphi
DelphiFunctionEndAccess
p1581
(dp1582
g374
(lp1583
(i__main__
DelphiIdentAccess
p1584
(dp1585
g364
S'outputFile'
p1586
sg366
(lp1587
sbasbasbsba(i__main__
DelphiAssignStatement
p1588
(dp1589
g360
(i__main__
DelphiIdentAccess
p1590
(dp1591
g364
S'formatDateTime'
p1592
sg366
(lp1593
(idelphi
DelphiFunctionEndAccess
p1594
(dp1595
g374
(lp1596
(idelphi
DelphiStringAccess
p1597
(dp1598
g366
(lp1599
sg104
(idelphi
DelphiStringValue
p1600
(dp1601
g104
S'm/d/yyyy, h:m am/pm'
p1602
sbsba(i__main__
DelphiIdentAccess
p1603
(dp1604
g364
S'now'
p1605
sg366
(lp1606
sbasbasbsg361
(i__main__
DelphiIdentAccess
p1607
(dp1608
g364
S'dateString'
p1609
sg366
(lp1610
sbsba(i__main__
DelphiAssignStatement
p1611
(dp1612
g360
Nsg361
(i__main__
DelphiIdentAccess
p1613
(dp1614
g364
S'writeln'
p1615
sg366
(lp1616
(idelphi
DelphiFunctionEndAccess
p1617
(dp1618
g374
(lp1619
(i__main__
DelphiIdentAccess
p1620
(dp1621
g364
S'outputFile'
p1622
sg366
(lp1623
sba(idelphi
DelphiAddOp
p1624
(dp1625
g457
S'+'
sg458
(idelphi
DelphiStringAccess
p1626
(dp1627
g366
(lp1628
sg104
(idelphi
DelphiStringValue
p1629
(dp1630
g104
S') ----'
p1631
sbsbsg463
(idelphi
DelphiAddOp
p1632
(dp1633
g457
S'+'
sg458
(i__main__
DelphiIdentAccess
p1634
(dp1635
g364
S'dateString'
p1636
sg366
(lp1637
sbsg463
(idelphi
DelphiStringAccess
p1638
(dp1639
g366
(lp1640
sg104
(idelphi
DelphiStringValue
p1641
(dp1642
g104
S'---- log start ('
p1643
sbsbsbsbasbasbsbasbsg449
(idelphi
DelphiCompoundStatement
p1644
(dp1645
g356
(lp1646
(i__main__
DelphiAssignStatement
p1647
(dp1648
g360
Nsg361
(i__main__
DelphiIdentAccess
p1649
(dp1650
g364
S'setDecimalSeparator'
p1651
sg366
(lp1652
sbsg146
(lp1653
S' v1.5\r'
p1654
asba(i__main__
DelphiAssignStatement
p1655
(dp1656
g360
Nsg361
(i__main__
DelphiIdentAccess
p1657
(dp1658
g364
S'rewrite'
p1659
sg366
(lp1660
(idelphi
DelphiFunctionEndAccess
p1661
(dp1662
g374
(lp1663
(i__main__
DelphiIdentAccess
p1664
(dp1665
g364
S'outputFile'
p1666
sg366
(lp1667
sbasbasbsbasbsba(i__main__
DelphiAssignStatement
p1668
(dp1669
g360
(i__main__
DelphiIdentAccess
p1670
(dp1671
g364
S'true'
p1672
sg366
(lp1673
sbsg361
(i__main__
DelphiIdentAccess
p1674
(dp1675
g364
S'logging'
p1676
sg366
(lp1677
sbsbasbsg382
(lp1678
(i__main__
DelphiVarSection
p1679
(dp1680
g826
I0
sg827
(lp1681
(idelphi
DelphiVarDecl
p1682
(dp1683
g831
Nsg832
(lp1684
S'dateString'
p1685
asg49
(i__main__
DelphiPrimitiveType
p1686
(dp1687
g52
g104
sbsbasbasbsbsS'savelistasclick'
p1688
(i__main__
DelphiMethodImplementation
p1689
(dp1690
g329
g190
sg33
g192
sg41
(lp1691
(i__main__
DelphiFormalParameter
p1692
(dp1693
g45
Nsg46
(lp1694
S'Sender'
p1695
asg49
(i__main__
DelphiNamedType
p1696
(dp1697
g52
S'TObject'
p1698
sg54
g1
sg55
Nsbsg56
Nsbasg338
(lp1699
sg340
(lp1700
sg342
(lp1701
g344
ag1695
asg345
(dp1702
g1695
g1696
ssg57
S'TDebugForm'
p1703
sg58
Nsg348
(lp1704
sg59
I0
sg60
g61
sg350
(i__main__
DelphiBlock
p1705
(dp1706
g353
(idelphi
DelphiCompoundStatement
p1707
(dp1708
g356
(lp1709
(idelphi
DelphiIfStatement
p1710
(dp1711
g440
(idelphi
DelphiRelOp
p1712
(dp1713
g733
(i__main__
DelphiIdentAccess
p1714
(dp1715
g364
S'debugList'
p1716
sg366
(lp1717
(idelphi
DelphiFieldEndAccess
p1718
(dp1719
g370
S'items'
p1720
sba(idelphi
DelphiFieldEndAccess
p1721
(dp1722
g370
S'count'
p1723
sbasbsg738
(idelphi
DelphiIntegerValue
p1724
(dp1725
g104
S'0'
sbsg742
g1333
sbsg448
Nsg449
(i__main__
DelphiExitStatement
p1726
(dp1727
g452
g1689
sbsba(idelphi
DelphiIfStatement
p1728
(dp1729
g440
(idelphi
DelphiNot
p1730
(dp1731
g1368
(i__main__
DelphiIdentAccess
p1732
(dp1733
g364
S'getFileSaveInfo'
p1734
sg366
(lp1735
(idelphi
DelphiFunctionEndAccess
p1736
(dp1737
g374
(lp1738
(i__main__
DelphiIdentAccess
p1739
(dp1740
g364
S'kFileTypeExceptionList'
p1741
sg366
(lp1742
sba(i__main__
DelphiIdentAccess
p1743
(dp1744
g364
S'kAskForFileName'
p1745
sg366
(lp1746
sba(idelphi
DelphiStringAccess
p1747
(dp1748
g366
(lp1749
sg104
(idelphi
DelphiStringValue
p1750
(dp1751
g104
S'pstudio.nex'
p1752
sbsba(i__main__
DelphiIdentAccess
p1753
(dp1754
g364
S'fileInfo'
p1755
sg366
(lp1756
sbasbasbsbsg448
Nsg449
(i__main__
DelphiExitStatement
p1757
(dp1758
g452
g1689
sbsba(idelphi
DelphiTryFinallyStatement
p1759
(dp1760
g1462
(lp1761
(i__main__
DelphiAssignStatement
p1762
(dp1763
g360
Nsg361
(i__main__
DelphiIdentAccess
p1764
(dp1765
g364
S'self'
p1766
sg366
(lp1767
(idelphi
DelphiFieldEndAccess
p1768
(dp1769
g370
S'saveExceptionListToFile'
p1770
sba(idelphi
DelphiFunctionEndAccess
p1771
(dp1772
g374
(lp1773
(i__main__
DelphiIdentAccess
p1774
(dp1775
g364
S'fileInfo'
p1776
sg366
(lp1777
(idelphi
DelphiFieldEndAccess
p1778
(dp1779
g370
S'tempFile'
p1780
sbasbasbasbsba(i__main__
DelphiAssignStatement
p1781
(dp1782
g360
(i__main__
DelphiIdentAccess
p1783
(dp1784
g364
S'true'
p1785
sg366
(lp1786
sbsg361
(i__main__
DelphiIdentAccess
p1787
(dp1788
g364
S'fileInfo'
p1789
sg366
(lp1790
(idelphi
DelphiFieldEndAccess
p1791
(dp1792
g370
S'writingWasSuccessful'
p1793
sbasbsbasg1473
(lp1794
(i__main__
DelphiAssignStatement
p1795
(dp1796
g360
Nsg361
(i__main__
DelphiIdentAccess
p1797
(dp1798
g364
S'cleanUpAfterFileSave'
p1799
sg366
(lp1800
(idelphi
DelphiFunctionEndAccess
p1801
(dp1802
g374
(lp1803
(i__main__
DelphiIdentAccess
p1804
(dp1805
g364
S'fileInfo'
p1806
sg366
(lp1807
sbasbasbsbasbasbsg382
(lp1808
(i__main__
DelphiVarSection
p1809
(dp1810
g826
I0
sg827
(lp1811
(idelphi
DelphiVarDecl
p1812
(dp1813
g831
Nsg832
(lp1814
S'fileInfo'
p1815
asg49
(i__main__
DelphiNamedType
p1816
(dp1817
g52
S'SaveFileNamesStructure'
p1818
sg54
g1
sg55
NsbsbasbasbsbsS'print'
p1819
(i__main__
DelphiMethodImplementation
p1820
(dp1821
g329
g202
sg33
g204
sg41
(lp1822
(i__main__
DelphiFormalParameter
p1823
(dp1824
g45
Nsg46
(lp1825
S'aString'
p1826
asg49
(i__main__
DelphiPrimitiveType
p1827
(dp1828
g52
g104
sbsg56
Nsbasg338
(lp1829
sg340
(lp1830
sg342
(lp1831
g344
ag1826
asg345
(dp1832
g1826
g1827
ssg57
S'TDebugForm'
p1833
sg58
Nsg348
(lp1834
sg59
I0
sg60
g61
sg350
(i__main__
DelphiBlock
p1835
(dp1836
g353
(idelphi
DelphiCompoundStatement
p1837
(dp1838
g356
(lp1839
(idelphi
DelphiIfStatement
p1840
(dp1841
g440
(i__main__
DelphiIdentAccess
p1842
(dp1843
g364
S'logging'
p1844
sg366
(lp1845
sbsg448
Nsg449
(idelphi
DelphiCompoundStatement
p1846
(dp1847
g356
(lp1848
(i__main__
DelphiAssignStatement
p1849
(dp1850
g360
Nsg361
(i__main__
DelphiIdentAccess
p1851
(dp1852
g364
S'writeln'
p1853
sg366
(lp1854
(idelphi
DelphiFunctionEndAccess
p1855
(dp1856
g374
(lp1857
(i__main__
DelphiIdentAccess
p1858
(dp1859
g364
S'outputFile'
p1860
sg366
(lp1861
sba(i__main__
DelphiIdentAccess
p1862
(dp1863
g364
S'aString'
p1864
sg366
(lp1865
sbasbasbsba(i__main__
DelphiAssignStatement
p1866
(dp1867
g360
Nsg361
(i__main__
DelphiIdentAccess
p1868
(dp1869
g364
S'flush'
p1870
sg366
(lp1871
(idelphi
DelphiFunctionEndAccess
p1872
(dp1873
g374
(lp1874
(i__main__
DelphiIdentAccess
p1875
(dp1876
g364
S'outputFile'
p1877
sg366
(lp1878
sbasbasbsbasbsba(idelphi
DelphiIfStatement
p1879
(dp1880
g440
(i__main__
DelphiIdentAccess
p1881
(dp1882
g364
S'domain'
p1883
sg366
(lp1884
(idelphi
DelphiFieldEndAccess
p1885
(dp1886
g370
S'options'
p1887
sba(idelphi
DelphiFieldEndAccess
p1888
(dp1889
g370
S'showWindowOnException'
p1890
sbasbsg448
Nsg449
(idelphi
DelphiCompoundStatement
p1891
(dp1892
g356
(lp1893
(i__main__
DelphiAssignStatement
p1894
(dp1895
g360
(i__main__
DelphiIdentAccess
p1896
(dp1897
g364
S'true'
p1898
sg366
(lp1899
sbsg361
(i__main__
DelphiIdentAccess
p1900
(dp1901
g364
S'self'
p1902
sg366
(lp1903
(idelphi
DelphiFieldEndAccess
p1904
(dp1905
g370
S'visible'
p1906
sbasbsba(i__main__
DelphiAssignStatement
p1907
(dp1908
g360
Nsg361
(i__main__
DelphiIdentAccess
p1909
(dp1910
g364
S'self'
p1911
sg366
(lp1912
(idelphi
DelphiFieldEndAccess
p1913
(dp1914
g370
S'bringToFront'
p1915
sbasbsbasbsba(idelphi
DelphiIfStatement
p1916
(dp1917
g440
(idelphi
DelphiRelOp
p1918
(dp1919
g733
(i__main__
DelphiIdentAccess
p1920
(dp1921
g364
S'debugList'
p1922
sg366
(lp1923
(idelphi
DelphiFieldEndAccess
p1924
(dp1925
g370
S'items'
p1926
sba(idelphi
DelphiFieldEndAccess
p1927
(dp1928
g370
S'count'
p1929
sbasbsg738
(idelphi
DelphiIntegerValue
p1930
(dp1931
g104
S'1000'
p1932
sbsg742
S'>'
sbsg448
Nsg449
(i__main__
DelphiAssignStatement
p1933
(dp1934
g360
Nsg361
(i__main__
DelphiIdentAccess
p1935
(dp1936
g364
S'debugList'
p1937
sg366
(lp1938
(idelphi
DelphiFieldEndAccess
p1939
(dp1940
g370
S'items'
p1941
sba(idelphi
DelphiFieldEndAccess
p1942
(dp1943
g370
S'clear'
p1944
sbasbsbsba(idelphi
DelphiTryExceptStatement
p1945
(dp1946
g1462
(lp1947
(i__main__
DelphiAssignStatement
p1948
(dp1949
g360
Nsg361
(i__main__
DelphiIdentAccess
p1950
(dp1951
g364
S'DebugList'
p1952
sg366
(lp1953
(idelphi
DelphiFieldEndAccess
p1954
(dp1955
g370
S'items'
p1956
sba(idelphi
DelphiFieldEndAccess
p1957
(dp1958
g370
S'add'
p1959
sba(idelphi
DelphiFunctionEndAccess
p1960
(dp1961
g374
(lp1962
(i__main__
DelphiIdentAccess
p1963
(dp1964
g364
S'aString'
p1965
sg366
(lp1966
sbasbasbsbasS'exceptionHandlers'
p1967
(idelphi
DelphiExceptionHandlers
p1968
(dp1969
S'exceptionHandlerList'
p1970
(lp1971
(idelphi
DelphiExceptionHandler
p1972
(dp1973
S'classTypeIdentifier'
p1974
(i__main__
DelphiNamedType
p1975
(dp1976
g52
S'EOutOfResources'
p1977
sg54
g1
sg55
Nsbsg364
Nsg553
(i__main__
DelphiAssignStatement
p1978
(dp1979
g360
Nsg361
(i__main__
DelphiIdentAccess
p1980
(dp1981
g364
S'debugList'
p1982
sg366
(lp1983
(idelphi
DelphiFieldEndAccess
p1984
(dp1985
g370
S'items'
p1986
sba(idelphi
DelphiFieldEndAccess
p1987
(dp1988
g370
S'clear'
p1989
sbasbsbsbasS'statementList'
p1990
(lp1991
sbsba(i__main__
DelphiAssignStatement
p1992
(dp1993
g360
(idelphi
DelphiAddOp
p1994
(dp1995
g457
S'-'
sg458
(idelphi
DelphiIntegerValue
p1996
(dp1997
g104
S'1'
sbsg463
(i__main__
DelphiIdentAccess
p1998
(dp1999
g364
S'DebugList'
p2000
sg366
(lp2001
(idelphi
DelphiFieldEndAccess
p2002
(dp2003
g370
S'items'
p2004
sba(idelphi
DelphiFieldEndAccess
p2005
(dp2006
g370
S'count'
p2007
sbasbsbsg361
(i__main__
DelphiIdentAccess
p2008
(dp2009
g364
S'DebugList'
p2010
sg366
(lp2011
(idelphi
DelphiFieldEndAccess
p2012
(dp2013
g370
S'itemIndex'
p2014
sbasbsba(i__main__
DelphiAssignStatement
p2015
(dp2016
g360
Nsg361
(i__main__
DelphiIdentAccess
p2017
(dp2018
g364
S'debugList'
p2019
sg366
(lp2020
(idelphi
DelphiFieldEndAccess
p2021
(dp2022
g370
S'invalidate'
p2023
sbasbsba(i__main__
DelphiAssignStatement
p2024
(dp2025
g360
Nsg361
(i__main__
DelphiIdentAccess
p2026
(dp2027
g364
S'debugList'
p2028
sg366
(lp2029
(idelphi
DelphiFieldEndAccess
p2030
(dp2031
g370
S'refresh'
p2032
sbasbsbasbsg382
(lp2033
sbsg146
g212
sbsS'saveexceptionlisttofile'
p2034
(i__main__
DelphiMethodImplementation
p2035
(dp2036
g329
g106
sg33
g108
sg41
(lp2037
(i__main__
DelphiFormalParameter
p2038
(dp2039
g45
Nsg46
(lp2040
S'fileName'
p2041
asg49
(i__main__
DelphiPrimitiveType
p2042
(dp2043
g52
g104
sbsg56
Nsbasg338
(lp2044
sg340
(lp2045
sg342
(lp2046
g344
ag2041
asg345
(dp2047
g2041
g2042
ssg57
S'TDebugForm'
p2048
sg58
Nsg348
(lp2049
sg59
I0
sg60
g61
sg350
(i__main__
DelphiBlock
p2050
(dp2051
g353
(idelphi
DelphiCompoundStatement
p2052
(dp2053
g356
(lp2054
(i__main__
DelphiAssignStatement
p2055
(dp2056
g360
Nsg361
(i__main__
DelphiIdentAccess
p2057
(dp2058
g364
S'assignFile'
p2059
sg366
(lp2060
(idelphi
DelphiFunctionEndAccess
p2061
(dp2062
g374
(lp2063
(i__main__
DelphiIdentAccess
p2064
(dp2065
g364
S'outputFile'
p2066
sg366
(lp2067
sba(i__main__
DelphiIdentAccess
p2068
(dp2069
g364
S'fileName'
p2070
sg366
(lp2071
sbasbasbsba(i__main__
DelphiAssignStatement
p2072
(dp2073
g360
Nsg361
(i__main__
DelphiIdentAccess
p2074
(dp2075
g364
S'setDecimalSeparator'
p2076
sg366
(lp2077
sbsg146
(lp2078
S' v1.5\r'
p2079
asba(i__main__
DelphiAssignStatement
p2080
(dp2081
g360
Nsg361
(i__main__
DelphiIdentAccess
p2082
(dp2083
g364
S'rewrite'
p2084
sg366
(lp2085
(idelphi
DelphiFunctionEndAccess
p2086
(dp2087
g374
(lp2088
(i__main__
DelphiIdentAccess
p2089
(dp2090
g364
S'outputFile'
p2091
sg366
(lp2092
sbasbasbsba(idelphi
DelphiTryFinallyStatement
p2093
(dp2094
g1462
(lp2095
(idelphi
DelphiIfStatement
p2096
(dp2097
g440
(idelphi
DelphiRelOp
p2098
(dp2099
g733
(i__main__
DelphiIdentAccess
p2100
(dp2101
g364
S'debugList'
p2102
sg366
(lp2103
(idelphi
DelphiFieldEndAccess
p2104
(dp2105
g370
S'items'
p2106
sba(idelphi
DelphiFieldEndAccess
p2107
(dp2108
g370
S'count'
p2109
sbasbsg738
(idelphi
DelphiIntegerValue
p2110
(dp2111
g104
S'0'
sbsg742
S'>'
sbsg448
Nsg449
(idelphi
DelphiForStatement
p2112
(dp2113
g775
S'i'
sg776
(idelphi
DelphiAddOp
p2114
(dp2115
g457
S'-'
sg458
(idelphi
DelphiIntegerValue
p2116
(dp2117
g104
S'1'
sbsg463
(i__main__
DelphiIdentAccess
p2118
(dp2119
g364
S'debugList'
p2120
sg366
(lp2121
(idelphi
DelphiFieldEndAccess
p2122
(dp2123
g370
S'items'
p2124
sba(idelphi
DelphiFieldEndAccess
p2125
(dp2126
g370
S'count'
p2127
sbasbsbsg781
g782
sg45
(idelphi
DelphiIntegerValue
p2128
(dp2129
g104
S'0'
sbsg553
(i__main__
DelphiAssignStatement
p2130
(dp2131
g360
Nsg361
(i__main__
DelphiIdentAccess
p2132
(dp2133
g364
S'writeln'
p2134
sg366
(lp2135
(idelphi
DelphiFunctionEndAccess
p2136
(dp2137
g374
(lp2138
(i__main__
DelphiIdentAccess
p2139
(dp2140
g364
S'outputFile'
p2141
sg366
(lp2142
sba(i__main__
DelphiIdentAccess
p2143
(dp2144
g364
S'debugList'
p2145
sg366
(lp2146
(idelphi
DelphiFieldEndAccess
p2147
(dp2148
g370
S'items'
p2149
sba(idelphi
DelphiArrayEndAccess
p2150
(dp2151
g374
(lp2152
(i__main__
DelphiIdentAccess
p2153
(dp2154
g364
S'i'
sg366
(lp2155
sbasbasbasbasbsbsbsbasg1473
(lp2156
(i__main__
DelphiAssignStatement
p2157
(dp2158
g360
Nsg361
(i__main__
DelphiIdentAccess
p2159
(dp2160
g364
S'closeFile'
p2161
sg366
(lp2162
(idelphi
DelphiFunctionEndAccess
p2163
(dp2164
g374
(lp2165
(i__main__
DelphiIdentAccess
p2166
(dp2167
g364
S'outputFile'
p2168
sg366
(lp2169
sbasbasbsbasbasbsg382
(lp2170
(i__main__
DelphiVarSection
p2171
(dp2172
g826
I0
sg827
(lp2173
(idelphi
DelphiVarDecl
p2174
(dp2175
g831
Nsg832
(lp2176
S'i'
asg49
(i__main__
DelphiPrimitiveType
p2177
(dp2178
g52
g97
sbsbasbasbsbsS'closeclick'
p2179
(i__main__
DelphiMethodImplementation
p2180
(dp2181
g329
g227
sg33
g229
sg41
(lp2182
(i__main__
DelphiFormalParameter
p2183
(dp2184
g45
Nsg46
(lp2185
S'Sender'
p2186
asg49
(i__main__
DelphiNamedType
p2187
(dp2188
g52
S'TObject'
p2189
sg54
g1
sg55
Nsbsg56
Nsbasg338
(lp2190
sg340
(lp2191
sg342
(lp2192
g344
ag2186
asg345
(dp2193
g2186
g2187
ssg57
S'TDebugForm'
p2194
sg58
Nsg348
(lp2195
sg59
I0
sg60
g61
sg350
(i__main__
DelphiBlock
p2196
(dp2197
g353
(idelphi
DelphiCompoundStatement
p2198
(dp2199
g356
(lp2200
(i__main__
DelphiAssignStatement
p2201
(dp2202
g360
(i__main__
DelphiIdentAccess
p2203
(dp2204
g364
S'false'
p2205
sg366
(lp2206
sbsg361
(i__main__
DelphiIdentAccess
p2207
(dp2208
g364
S'self'
p2209
sg366
(lp2210
(idelphi
DelphiFieldEndAccess
p2211
(dp2212
g370
S'visible'
p2213
sbasbsbasbsg382
(lp2214
sbsbsS'logtofileclick'
p2215
(i__main__
DelphiMethodImplementation
p2216
(dp2217
g329
g239
sg33
g241
sg41
(lp2218
(i__main__
DelphiFormalParameter
p2219
(dp2220
g45
Nsg46
(lp2221
S'Sender'
p2222
asg49
(i__main__
DelphiNamedType
p2223
(dp2224
g52
S'TObject'
p2225
sg54
g1
sg55
Nsbsg56
Nsbasg338
(lp2226
sg340
(lp2227
sg342
(lp2228
g344
ag2222
asg345
(dp2229
g2222
g2223
ssg57
S'TDebugForm'
p2230
sg58
Nsg348
(lp2231
sg59
I0
sg60
g61
sg350
(i__main__
DelphiBlock
p2232
(dp2233
g353
(idelphi
DelphiCompoundStatement
p2234
(dp2235
g356
(lp2236
(i__main__
DelphiAssignStatement
p2237
(dp2238
g360
(i__main__
DelphiIdentAccess
p2239
(dp2240
g364
S'logToFile'
p2241
sg366
(lp2242
(idelphi
DelphiFieldEndAccess
p2243
(dp2244
g370
S'checked'
p2245
sbasbsg361
(i__main__
DelphiIdentAccess
p2246
(dp2247
g364
S'domain'
p2248
sg366
(lp2249
(idelphi
DelphiFieldEndAccess
p2250
(dp2251
g370
S'options'
p2252
sba(idelphi
DelphiFieldEndAccess
p2253
(dp2254
g370
S'logToFileOnException'
p2255
sbasbsba(idelphi
DelphiIfStatement
p2256
(dp2257
g440
(idelphi
DelphiNot
p2258
(dp2259
g1368
(i__main__
DelphiIdentAccess
p2260
(dp2261
g364
S'logging'
p2262
sg366
(lp2263
sbsbsg448
(i__main__
DelphiAssignStatement
p2264
(dp2265
g360
Nsg361
(i__main__
DelphiIdentAccess
p2266
(dp2267
g364
S'stopLogging'
p2268
sg366
(lp2269
sbsbsg449
(i__main__
DelphiAssignStatement
p2270
(dp2271
g360
Nsg361
(i__main__
DelphiIdentAccess
p2272
(dp2273
g364
S'startLogging'
p2274
sg366
(lp2275
(idelphi
DelphiFunctionEndAccess
p2276
(dp2277
g374
(lp2278
(idelphi
DelphiAddOp
p2279
(dp2280
g457
S'+'
sg458
(idelphi
DelphiStringAccess
p2281
(dp2282
g366
(lp2283
sg104
(idelphi
DelphiStringValue
p2284
(dp2285
g104
S'errors.nex'
p2286
sbsbsg463
(i__main__
DelphiIdentAccess
p2287
(dp2288
g364
S'ExtractFilePath'
p2289
sg366
(lp2290
(idelphi
DelphiFunctionEndAccess
p2291
(dp2292
g374
(lp2293
(i__main__
DelphiIdentAccess
p2294
(dp2295
g364
S'Application'
p2296
sg366
(lp2297
(idelphi
DelphiFieldEndAccess
p2298
(dp2299
g370
S'exeName'
p2300
sbasbasbasbsbasbasbsbsba(i__main__
DelphiAssignStatement
p2301
(dp2302
g360
(i__main__
DelphiIdentAccess
p2303
(dp2304
g364
S'logToFile'
p2305
sg366
(lp2306
(idelphi
DelphiFieldEndAccess
p2307
(dp2308
g370
S'checked'
p2309
sbasbsg361
(i__main__
DelphiIdentAccess
p2310
(dp2311
g364
S'logging'
p2312
sg366
(lp2313
sbsbasbsg382
(lp2314
sbsbssS'propertyDeclarations'
p2315
(dp2316
sS'variableNamesInDeclaredOrder'
p2317
(lp2318
g22
ag28
ag12
ag30
ag18
ag32
ag24
ag20
ag14
ag10
ag26
ag16
asba(i__main__
DelphiVarSection
p2319
(dp2320
g826
I1
sg827
(lp2321
(idelphi
DelphiVarDecl
p2322
(dp2323
g831
Nsg832
(lp2324
S'DebugForm'
p2325
asg49
(i__main__
DelphiNamedType
p2326
(dp2327
g52
S'TDebugForm'
p2328
sg54
g1
sg55
Nsbsbasba(i__main__
DelphiProceduralImplementation
p2329
(dp2330
g329
(i__main__
DelphiProceduralDeclaration
p2331
(dp2332
g41
(lp2333
(i__main__
DelphiFormalParameter
p2334
(dp2335
g45
Nsg46
(lp2336
S'aMessage'
p2337
asg49
(i__main__
DelphiPrimitiveType
p2338
(dp2339
g52
g104
sbsg56
Nsbasg33
S'DebugPrint'
p2340
sg58
Nsbsg33
g2340
sg58
Nsg338
(lp2341
sg340
(lp2342
sg342
(lp2343
S'aMessage'
p2344
asg345
(dp2345
g2344
(i__main__
DelphiPrimitiveType
p2346
(dp2347
g52
g104
sbssg41
(lp2348
(i__main__
DelphiFormalParameter
p2349
(dp2350
g45
Nsg46
(lp2351
g2344
asg49
g2346
sg56
Nsbasg348
(lp2352
sg350
(i__main__
DelphiBlock
p2353
(dp2354
g353
(idelphi
DelphiCompoundStatement
p2355
(dp2356
g356
(lp2357
(idelphi
DelphiIfStatement
p2358
(dp2359
g440
(idelphi
DelphiRelOp
p2360
(dp2361
g733
(i__main__
DelphiIdentAccess
p2362
(dp2363
g364
S'debugForm'
p2364
sg366
(lp2365
sbsg738
(idelphi
DelphiNilValue
p2366
(dp2367
bsg742
g899
sbsg448
Nsg449
(i__main__
DelphiAssignStatement
p2368
(dp2369
g360
Nsg361
(i__main__
DelphiIdentAccess
p2370
(dp2371
g364
S'DebugForm'
p2372
sg366
(lp2373
(idelphi
DelphiFieldEndAccess
p2374
(dp2375
g370
S'print'
p2376
sba(idelphi
DelphiFunctionEndAccess
p2377
(dp2378
g374
(lp2379
(i__main__
DelphiIdentAccess
p2380
(dp2381
g364
S'aMessage'
p2382
sg366
(lp2383
sbasbasbsbsbasbsg382
(lp2384
sbsg146
(lp2385
S'$R *.DFM'
p2386
asba(i__main__
DelphiConstSection
p2387
(dp2388
S'constDeclList'
p2389
(lp2390
(idelphi
DelphiConstDeclaration
p2391
(dp2392
g831
(idelphi
DelphiIntegerValue
p2393
(dp2394
g104
S'4'
sbsg364
S'kBetweenGap'
p2395
sg49
(idelphi
DelphiPrimitiveType
p2396
(dp2397
g52
S'UNDEFINED_NEEDS_CALCULATION'
p2398
sbsbasg826
I1
sbasS'includedUnits'
p2399
NsS'implementationUses'
p2400
(lp2401
S'udomain'
p2402
aS'usupport'
p2403
aS'umath'
p2404
aS'uprginfo'
p2405
aS'umain'
p2406
asg33
S'Udebug'
p2407
sS'constSections'
p2408
(lp2409
g2387
asS'globalsInProperCase'
p2410
NsS'interfaceUses'
p2411
(lp2412
S'delphi_compatability'
p2413
aS'SysUtils'
p2414
aS'WinTypes'
p2415
aS'WinProcs'
p2416
aS'Messages'
p2417
aS'Classes'
p2418
aS'Graphics'
p2419
aS'Controls'
p2420
aS'Forms'
p2421
aS'Dialogs'
p2422
aS'StdCtrls'
p2423
aS'Buttons'
p2424
aS'ExtCtrls'
p2425
aS'updform'
p2426
asS'finalCommentToken'
p2427
(i__main__
PassStatement
p2428
(dp2429
g382
(lp2430
sbsS'varSections'
p2431
(lp2432
g2319
asS'globals'
p2433
NsS'originalFileName'
p2434
S'../../PlantStudioInPython/converted_source/udebug.pas'
p2435
sS'proceduralImplementations'
p2436
(dp2437
S'debugprint'
p2438
g2329
ssS'fileName'
p2439
S'/Users/pdf/Documents/workspace/PlantStudioInPython/converted_source/udebug.pas'
p2440
sS'proceduralDeclarations'
p2441
(dp2442
S'debugprint'
p2443
g2331
ssS'types'
p2444
(dp2445
S'tdebugform'
p2446
g5
ssb.