(i__main__
DelphiUnit
p1
(dp2
S'sectionsInOrderDefined'
p3
(lp4
(i__main__
DelphiClass
p5
(dp6
S'variableNamesInProperCase'
p7
(dp8
S'cancel'
p9
S'cancel'
p10
sS'close'
p11
S'Close'
p12
sS'colorsdrawgrid'
p13
S'colorsDrawGrid'
p14
sS'colorindex'
p15
S'colorIndex'
p16
sS'color'
p17
S'color'
p18
ssS'name'
p19
S'TChooseDXFColorForm'
p20
sS'methodDeclarations'
p21
(dp22
S'formactivate'
p23
(i__main__
DelphiMethodDeclaration
p24
(dp25
g19
S'FormActivate'
p26
sS'formalParameters'
p27
(lp28
(i__main__
DelphiFormalParameter
p29
(dp30
S'initialValue'
p31
NsS'names'
p32
(lp33
S'Sender'
p34
asS'theType'
p35
(i__main__
DelphiNamedType
p36
(dp37
S'typeName'
p38
S'TObject'
p39
sS'unitDefinedIn'
p40
g1
sS'unitName'
p41
NsbsS'parameterVariety'
p42
NsbasS'className'
p43
g20
sS'resultType'
p44
NsS'isClassMethod'
p45
I0
sS'methodType'
p46
S'procedure'
p47
sbsS'cancelclick'
p48
(i__main__
DelphiMethodDeclaration
p49
(dp50
g19
S'cancelClick'
p51
sg27
(lp52
(i__main__
DelphiFormalParameter
p53
(dp54
g31
Nsg32
(lp55
S'Sender'
p56
asg35
(i__main__
DelphiNamedType
p57
(dp58
g38
S'TObject'
p59
sg40
g1
sg41
Nsbsg42
Nsbasg43
g20
sg44
Nsg45
I0
sg46
g47
sbsS'colorsdrawgridselectcell'
p60
(i__main__
DelphiMethodDeclaration
p61
(dp62
g19
S'colorsDrawGridSelectCell'
p63
sg27
(lp64
(i__main__
DelphiFormalParameter
p65
(dp66
g31
Nsg32
(lp67
S'Sender'
p68
asg35
(i__main__
DelphiNamedType
p69
(dp70
g38
S'TObject'
p71
sg40
g1
sg41
Nsbsg42
Nsba(i__main__
DelphiFormalParameter
p72
(dp73
g31
Nsg32
(lp74
S'Col'
p75
aS'Row'
p76
asg35
(i__main__
DelphiPrimitiveType
p77
(dp78
g38
S'longint'
p79
sbsg42
Nsba(i__main__
DelphiFormalParameter
p80
(dp81
g31
Nsg32
(lp82
S'CanSelect'
p83
asg35
(i__main__
DelphiPrimitiveType
p84
(dp85
g38
S'boolean'
p86
sbsg42
S'var'
p87
sbasg43
g20
sg44
Nsg45
I0
sg46
g47
sbsS'colorsdrawgriddrawcell'
p88
(i__main__
DelphiMethodDeclaration
p89
(dp90
g19
S'colorsDrawGridDrawCell'
p91
sg27
(lp92
(i__main__
DelphiFormalParameter
p93
(dp94
g31
Nsg32
(lp95
S'Sender'
p96
asg35
(i__main__
DelphiNamedType
p97
(dp98
g38
S'TObject'
p99
sg40
g1
sg41
Nsbsg42
Nsba(i__main__
DelphiFormalParameter
p100
(dp101
g31
Nsg32
(lp102
S'Col'
p103
aS'Row'
p104
asg35
(i__main__
DelphiPrimitiveType
p105
(dp106
g38
g79
sbsg42
Nsba(i__main__
DelphiFormalParameter
p107
(dp108
g31
Nsg32
(lp109
S'Rect'
p110
asg35
(i__main__
DelphiNamedType
p111
(dp112
g38
S'TRect'
p113
sg40
g1
sg41
Nsbsg42
Nsba(i__main__
DelphiFormalParameter
p114
(dp115
g31
Nsg32
(lp116
S'State'
p117
asg35
(i__main__
DelphiNamedType
p118
(dp119
g38
S'TGridDrawState'
p120
sg40
g1
sg41
Nsbsg42
Nsbasg43
g20
sg44
Nsg45
I0
sg46
g47
sbsS'colorsdrawgriddblclick'
p121
(i__main__
DelphiMethodDeclaration
p122
(dp123
g19
S'colorsDrawGridDblClick'
p124
sg27
(lp125
(i__main__
DelphiFormalParameter
p126
(dp127
g31
Nsg32
(lp128
S'Sender'
p129
asg35
(i__main__
DelphiNamedType
p130
(dp131
g38
S'TObject'
p132
sg40
g1
sg41
Nsbsg42
Nsbasg43
g20
sg44
Nsg45
I0
sg46
g47
sbsS'closeclick'
p133
(i__main__
DelphiMethodDeclaration
p134
(dp135
g19
S'CloseClick'
p136
sg27
(lp137
(i__main__
DelphiFormalParameter
p138
(dp139
g31
Nsg32
(lp140
S'Sender'
p141
asg35
(i__main__
DelphiNamedType
p142
(dp143
g38
S'TObject'
p144
sg40
g1
sg41
Nsbsg42
Nsbasg43
g20
sg44
Nsg45
I0
sg46
g47
sbssS'superclassNamedTypes'
p145
(lp146
(i__main__
DelphiNamedType
p147
(dp148
g38
S'PdForm'
p149
sg40
g1
sg41
NsbasS'variableNames'
p150
(dp151
S'cancel'
p152
(i__main__
DelphiNamedType
p153
(dp154
g38
S'TButton'
p155
sg40
g1
sg41
NsbsS'close'
p156
(i__main__
DelphiNamedType
p157
(dp158
g38
S'TButton'
p159
sg40
g1
sg41
NsbsS'colorsdrawgrid'
p160
(i__main__
DelphiNamedType
p161
(dp162
g38
S'TDrawGrid'
p163
sg40
g1
sg41
NsbsS'colorindex'
p164
(i__main__
DelphiPrimitiveType
p165
(dp166
g38
S'smallint'
p167
sbsS'color'
p168
(i__main__
DelphiNamedType
p169
(dp170
g38
S'TColorRef'
p171
sg40
g1
sg41
NsbssS'methodNamesInDefinedOrder'
p172
(lp173
S'formactivate'
p174
aS'closeclick'
p175
aS'cancelclick'
p176
aS'colorsdrawgriddblclick'
p177
aS'colorsdrawgridselectcell'
p178
aS'colorsdrawgriddrawcell'
p179
asS'methodImplementations'
p180
(dp181
S'formactivate'
p182
(i__main__
DelphiMethodImplementation
p183
(dp184
S'originalDeclaration'
p185
g24
sg19
g26
sg27
(lp186
(i__main__
DelphiFormalParameter
p187
(dp188
g31
Nsg32
(lp189
S'Sender'
p190
asg35
(i__main__
DelphiNamedType
p191
(dp192
g38
S'TObject'
p193
sg40
g1
sg41
Nsbsg42
NsbasS'varParamIndexes'
p194
(lp195
sS'varParamsSkipped'
p196
(lp197
sS'argNames'
p198
(lp199
S'self'
p200
ag190
asS'argTypes'
p201
(dp202
g190
g191
ssg43
S'TChooseDXFColorForm'
p203
sg44
NsS'varParamNames'
p204
(lp205
sg45
I0
sg46
g47
sS'block'
p206
(i__main__
DelphiBlock
p207
(dp208
S'compoundStatement'
p209
(idelphi
DelphiCompoundStatement
p210
(dp211
S'statements'
p212
(lp213
(i__main__
DelphiAssignStatement
p214
(dp215
S'newValueExpression'
p216
(idelphi
DelphiAddOp
p217
(dp218
S'addOp'
p219
S'+'
sS'term2'
p220
(idelphi
DelphiIntegerValue
p221
(dp222
S'string'
p223
S'1'
sbsS'term1'
p224
(i__main__
DelphiIdentAccess
p225
(dp226
S'ident'
p227
S'kLastDxfColorIndex'
p228
sS'endAccessList'
p229
(lp230
sbsbsS'destinationExpression'
p231
(i__main__
DelphiIdentAccess
p232
(dp233
g227
S'colorsDrawGrid'
p234
sg229
(lp235
(idelphi
DelphiFieldEndAccess
p236
(dp237
S'field'
p238
S'colCount'
p239
sbasbsS'commentLinesBefore'
p240
(lp241
S' change to do rows also when there are more numbers '
p242
asba(idelphi
DelphiWithStatement
p243
(dp244
S'statement'
p245
(i__main__
DelphiAssignStatement
p246
(dp247
g216
Nsg231
(i__main__
DelphiIdentAccess
p248
(dp249
g227
S'setBounds'
p250
sg229
(lp251
(idelphi
DelphiFunctionEndAccess
p252
(dp253
S'expressionList'
p254
(lp255
(i__main__
DelphiIdentAccess
p256
(dp257
g227
S'kBetweenGap'
p258
sg229
(lp259
sba(i__main__
DelphiIdentAccess
p260
(dp261
g227
S'kBetweenGap'
p262
sg229
(lp263
sba(i__main__
DelphiIdentAccess
p264
(dp265
g227
S'width'
p266
sg229
(lp267
sba(i__main__
DelphiIdentAccess
p268
(dp269
g227
S'height'
p270
sg229
(lp271
sbasbasbsbsS'variableReferenceList'
p272
(lp273
(i__main__
DelphiIdentAccess
p274
(dp275
g227
S'colorsDrawGrid'
p276
sg229
(lp277
sbasba(i__main__
DelphiAssignStatement
p278
(dp279
g216
(i__main__
DelphiIdentAccess
p280
(dp281
g227
S'colorsDrawGrid'
p282
sg229
(lp283
(idelphi
DelphiFieldEndAccess
p284
(dp285
g238
S'cellRect'
p286
sba(idelphi
DelphiFunctionEndAccess
p287
(dp288
g254
(lp289
(idelphi
DelphiAddOp
p290
(dp291
g219
S'-'
sg220
(idelphi
DelphiIntegerValue
p292
(dp293
g223
S'1'
sbsg224
(i__main__
DelphiIdentAccess
p294
(dp295
g227
S'colorsDrawGrid'
p296
sg229
(lp297
(idelphi
DelphiFieldEndAccess
p298
(dp299
g238
S'colCount'
p300
sbasbsba(idelphi
DelphiIntegerValue
p301
(dp302
g223
S'0'
sbasba(idelphi
DelphiFieldEndAccess
p303
(dp304
g238
S'right'
p305
sbasbsg231
(i__main__
DelphiIdentAccess
p306
(dp307
g227
S'colorsDrawGrid'
p308
sg229
(lp309
(idelphi
DelphiFieldEndAccess
p310
(dp311
g238
S'clientWidth'
p312
sbasbsba(i__main__
DelphiAssignStatement
p313
(dp314
g216
(idelphi
DelphiAddOp
p315
(dp316
g219
S'+'
sg220
(idelphi
DelphiMulOp
p317
(dp318
S'signedFactor2'
p319
(idelphi
DelphiIntegerValue
p320
(dp321
g223
S'3'
sbsS'mulOp'
p322
S'*'
sS'signedFactor1'
p323
(i__main__
DelphiIdentAccess
p324
(dp325
g227
S'kBetweenGap'
p326
sg229
(lp327
sbsbsg224
(idelphi
DelphiAddOp
p328
(dp329
g219
S'+'
sg220
(i__main__
DelphiIdentAccess
p330
(dp331
g227
S'close'
p332
sg229
(lp333
(idelphi
DelphiFieldEndAccess
p334
(dp335
g238
S'width'
p336
sbasbsg224
(i__main__
DelphiIdentAccess
p337
(dp338
g227
S'colorsDrawGrid'
p339
sg229
(lp340
(idelphi
DelphiFieldEndAccess
p341
(dp342
g238
S'width'
p343
sbasbsbsbsg231
(i__main__
DelphiIdentAccess
p344
(dp345
g227
S'self'
p346
sg229
(lp347
(idelphi
DelphiFieldEndAccess
p348
(dp349
g238
S'clientWidth'
p350
sbasbsba(i__main__
DelphiAssignStatement
p351
(dp352
g216
(idelphi
DelphiAddOp
p353
(dp354
g219
S'-'
sg220
(i__main__
DelphiIdentAccess
p355
(dp356
g227
S'kBetweenGap'
p357
sg229
(lp358
sbsg224
(idelphi
DelphiAddOp
p359
(dp360
g219
S'-'
sg220
(i__main__
DelphiIdentAccess
p361
(dp362
g227
S'close'
p363
sg229
(lp364
(idelphi
DelphiFieldEndAccess
p365
(dp366
g238
S'width'
p367
sbasbsg224
(i__main__
DelphiIdentAccess
p368
(dp369
g227
S'self'
p370
sg229
(lp371
(idelphi
DelphiFieldEndAccess
p372
(dp373
g238
S'clientWidth'
p374
sbasbsbsbsg231
(i__main__
DelphiIdentAccess
p375
(dp376
g227
S'close'
p377
sg229
(lp378
(idelphi
DelphiFieldEndAccess
p379
(dp380
g238
S'left'
p381
sbasbsba(i__main__
DelphiAssignStatement
p382
(dp383
g216
(i__main__
DelphiIdentAccess
p384
(dp385
g227
S'close'
p386
sg229
(lp387
(idelphi
DelphiFieldEndAccess
p388
(dp389
g238
S'left'
p390
sbasbsg231
(i__main__
DelphiIdentAccess
p391
(dp392
g227
S'cancel'
p393
sg229
(lp394
(idelphi
DelphiFieldEndAccess
p395
(dp396
g238
S'left'
p397
sbasbsba(i__main__
DelphiAssignStatement
p398
(dp399
g216
(i__main__
DelphiIdentAccess
p400
(dp401
g227
S'self'
p402
sg229
(lp403
(idelphi
DelphiFieldEndAccess
p404
(dp405
g238
S'colorIndex'
p406
sbasbsg231
(i__main__
DelphiIdentAccess
p407
(dp408
g227
S'sRect'
p409
sg229
(lp410
(idelphi
DelphiFieldEndAccess
p411
(dp412
g238
S'left'
p413
sbasbsba(i__main__
DelphiAssignStatement
p414
(dp415
g216
(i__main__
DelphiIdentAccess
p416
(dp417
g227
S'self'
p418
sg229
(lp419
(idelphi
DelphiFieldEndAccess
p420
(dp421
g238
S'colorIndex'
p422
sbasbsg231
(i__main__
DelphiIdentAccess
p423
(dp424
g227
S'sRect'
p425
sg229
(lp426
(idelphi
DelphiFieldEndAccess
p427
(dp428
g238
S'right'
p429
sbasbsba(i__main__
DelphiAssignStatement
p430
(dp431
g216
(idelphi
DelphiIntegerValue
p432
(dp433
g223
S'0'
sbsg231
(i__main__
DelphiIdentAccess
p434
(dp435
g227
S'sRect'
p436
sg229
(lp437
(idelphi
DelphiFieldEndAccess
p438
(dp439
g238
S'top'
p440
sbasbsba(i__main__
DelphiAssignStatement
p441
(dp442
g216
(idelphi
DelphiIntegerValue
p443
(dp444
g223
S'0'
sbsg231
(i__main__
DelphiIdentAccess
p445
(dp446
g227
S'sRect'
p447
sg229
(lp448
(idelphi
DelphiFieldEndAccess
p449
(dp450
g238
S'bottom'
p451
sbasbsba(i__main__
DelphiAssignStatement
p452
(dp453
g216
(i__main__
DelphiIdentAccess
p454
(dp455
g227
S'sRect'
p456
sg229
(lp457
sbsg231
(i__main__
DelphiIdentAccess
p458
(dp459
g227
S'colorsDrawGrid'
p460
sg229
(lp461
(idelphi
DelphiFieldEndAccess
p462
(dp463
g238
S'selection'
p464
sbasbsbasbsS'limitedDeclSectionList'
p465
(lp466
(i__main__
DelphiVarSection
p467
(dp468
S'atTopLevel'
p469
I0
sS'varDeclList'
p470
(lp471
(idelphi
DelphiVarDecl
p472
(dp473
S'constExpression'
p474
NsS'identList'
p475
(lp476
S'sRect'
p477
asg35
(i__main__
DelphiNamedType
p478
(dp479
g38
S'TGridRect'
p480
sg40
g1
sg41
Nsbsbasbasbsg240
(lp481
S' Private declarations '
p482
aS' Public declarations '
p483
aS'$R *.DFM'
p484
asbsS'cancelclick'
p485
(i__main__
DelphiMethodImplementation
p486
(dp487
g185
g49
sg19
g51
sg27
(lp488
(i__main__
DelphiFormalParameter
p489
(dp490
g31
Nsg32
(lp491
S'Sender'
p492
asg35
(i__main__
DelphiNamedType
p493
(dp494
g38
S'TObject'
p495
sg40
g1
sg41
Nsbsg42
Nsbasg194
(lp496
sg196
(lp497
sg198
(lp498
g200
ag492
asg201
(dp499
g492
g493
ssg43
S'TChooseDXFColorForm'
p500
sg44
Nsg204
(lp501
sg45
I0
sg46
g47
sg206
(i__main__
DelphiBlock
p502
(dp503
g209
(idelphi
DelphiCompoundStatement
p504
(dp505
g212
(lp506
(i__main__
DelphiAssignStatement
p507
(dp508
g216
(i__main__
DelphiIdentAccess
p509
(dp510
g227
S'mrCancel'
p511
sg229
(lp512
sbsg231
(i__main__
DelphiIdentAccess
p513
(dp514
g227
S'modalResult'
p515
sg229
(lp516
sbsbasbsg465
(lp517
sbsbsS'colorsdrawgridselectcell'
p518
(i__main__
DelphiMethodImplementation
p519
(dp520
g185
g61
sg19
g63
sg27
(lp521
(i__main__
DelphiFormalParameter
p522
(dp523
g31
Nsg32
(lp524
S'Sender'
p525
asg35
(i__main__
DelphiNamedType
p526
(dp527
g38
S'TObject'
p528
sg40
g1
sg41
Nsbsg42
Nsba(i__main__
DelphiFormalParameter
p529
(dp530
g31
Nsg32
(lp531
S'Col'
p532
aS'Row'
p533
asg35
(i__main__
DelphiPrimitiveType
p534
(dp535
g38
g79
sbsg42
Nsba(i__main__
DelphiFormalParameter
p536
(dp537
g31
Nsg32
(lp538
S'CanSelect'
p539
asg35
(i__main__
DelphiPrimitiveType
p540
(dp541
g38
g86
sbsg42
g87
sbasg194
(lp542
I3
asg196
(lp543
sg198
(lp544
g200
ag525
ag532
ag533
ag539
asg201
(dp545
g539
g540
sg533
g534
sg525
g526
sg532
g534
ssg43
S'TChooseDXFColorForm'
p546
sg44
Nsg204
(lp547
g539
asg45
I0
sg46
g47
sg206
(i__main__
DelphiBlock
p548
(dp549
g209
(idelphi
DelphiCompoundStatement
p550
(dp551
g212
(lp552
(i__main__
DelphiAssignStatement
p553
(dp554
g216
(i__main__
DelphiIdentAccess
p555
(dp556
g227
S'dxfColors'
p557
sg229
(lp558
(idelphi
DelphiArrayEndAccess
p559
(dp560
g254
(lp561
(i__main__
DelphiIdentAccess
p562
(dp563
g227
S'col'
p564
sg229
(lp565
sbasbasbsg231
(i__main__
DelphiIdentAccess
p566
(dp567
g227
S'color'
p568
sg229
(lp569
sbsba(i__main__
DelphiAssignStatement
p570
(dp571
g216
(i__main__
DelphiIdentAccess
p572
(dp573
g227
S'col'
p574
sg229
(lp575
sbsg231
(i__main__
DelphiIdentAccess
p576
(dp577
g227
S'colorIndex'
p578
sg229
(lp579
sbsbasbsg465
(lp580
sbsbsS'colorsdrawgriddrawcell'
p581
(i__main__
DelphiMethodImplementation
p582
(dp583
g185
g89
sg19
g91
sg27
(lp584
(i__main__
DelphiFormalParameter
p585
(dp586
g31
Nsg32
(lp587
S'Sender'
p588
asg35
(i__main__
DelphiNamedType
p589
(dp590
g38
S'TObject'
p591
sg40
g1
sg41
Nsbsg42
Nsba(i__main__
DelphiFormalParameter
p592
(dp593
g31
Nsg32
(lp594
S'Col'
p595
aS'Row'
p596
asg35
(i__main__
DelphiPrimitiveType
p597
(dp598
g38
g79
sbsg42
Nsba(i__main__
DelphiFormalParameter
p599
(dp600
g31
Nsg32
(lp601
S'Rect'
p602
asg35
(i__main__
DelphiNamedType
p603
(dp604
g38
S'TRect'
p605
sg40
g1
sg41
Nsbsg42
Nsba(i__main__
DelphiFormalParameter
p606
(dp607
g31
Nsg32
(lp608
S'State'
p609
asg35
(i__main__
DelphiNamedType
p610
(dp611
g38
S'TGridDrawState'
p612
sg40
g1
sg41
Nsbsg42
Nsbasg194
(lp613
sg196
(lp614
sg198
(lp615
g200
ag588
ag595
ag596
ag602
ag609
asg201
(dp616
g609
g610
sg596
g597
sg588
g589
sg602
g603
sg595
g597
ssg43
S'TChooseDXFColorForm'
p617
sg44
Nsg204
(lp618
sg45
I0
sg46
g47
sg206
(i__main__
DelphiBlock
p619
(dp620
g209
(idelphi
DelphiCompoundStatement
p621
(dp622
g212
(lp623
(i__main__
DelphiAssignStatement
p624
(dp625
g216
(i__main__
DelphiIdentAccess
p626
(dp627
g227
S'dxfColors'
p628
sg229
(lp629
(idelphi
DelphiArrayEndAccess
p630
(dp631
g254
(lp632
(i__main__
DelphiIdentAccess
p633
(dp634
g227
S'col'
p635
sg229
(lp636
sbasbasbsg231
(i__main__
DelphiIdentAccess
p637
(dp638
g227
S'colorsDrawGrid'
p639
sg229
(lp640
(idelphi
DelphiFieldEndAccess
p641
(dp642
g238
S'canvas'
p643
sba(idelphi
DelphiFieldEndAccess
p644
(dp645
g238
S'brush'
p646
sba(idelphi
DelphiFieldEndAccess
p647
(dp648
g238
S'color'
p649
sbasbsba(i__main__
DelphiAssignStatement
p650
(dp651
g216
Nsg231
(i__main__
DelphiIdentAccess
p652
(dp653
g227
S'colorsDrawGrid'
p654
sg229
(lp655
(idelphi
DelphiFieldEndAccess
p656
(dp657
g238
S'canvas'
p658
sba(idelphi
DelphiFieldEndAccess
p659
(dp660
g238
S'fillRect'
p661
sba(idelphi
DelphiFunctionEndAccess
p662
(dp663
g254
(lp664
(i__main__
DelphiIdentAccess
p665
(dp666
g227
S'rect'
p667
sg229
(lp668
sbasbasbsba(idelphi
DelphiIfStatement
p669
(dp670
S'expression'
p671
(idelphi
DelphiNestedExpressionListAccess
p672
(dp673
g229
(lp674
sg254
(lp675
(idelphi
DelphiRelOp
p676
(dp677
S'simpleExpression1'
p678
(i__main__
DelphiIdentAccess
p679
(dp680
g227
S'gdSelected'
p681
sg229
(lp682
sbsS'simpleExpression2'
p683
(i__main__
DelphiIdentAccess
p684
(dp685
g227
S'state'
p686
sg229
(lp687
sbsS'relOp'
p688
S'in'
p689
sbasbsS'ifFalseStatement'
p690
NsS'ifTrueStatement'
p691
(idelphi
DelphiCompoundStatement
p692
(dp693
g212
(lp694
(i__main__
DelphiAssignStatement
p695
(dp696
g216
(i__main__
DelphiIdentAccess
p697
(dp698
g227
S'bsClear'
p699
sg229
(lp700
sbsg231
(i__main__
DelphiIdentAccess
p701
(dp702
g227
S'colorsDrawGrid'
p703
sg229
(lp704
(idelphi
DelphiFieldEndAccess
p705
(dp706
g238
S'canvas'
p707
sba(idelphi
DelphiFieldEndAccess
p708
(dp709
g238
S'brush'
p710
sba(idelphi
DelphiFieldEndAccess
p711
(dp712
g238
S'style'
p713
sbasbsba(i__main__
DelphiAssignStatement
p714
(dp715
g216
(i__main__
DelphiIdentAccess
p716
(dp717
g227
S'clBlack'
p718
sg229
(lp719
sbsg231
(i__main__
DelphiIdentAccess
p720
(dp721
g227
S'colorsDrawGrid'
p722
sg229
(lp723
(idelphi
DelphiFieldEndAccess
p724
(dp725
g238
S'canvas'
p726
sba(idelphi
DelphiFieldEndAccess
p727
(dp728
g238
S'pen'
p729
sba(idelphi
DelphiFieldEndAccess
p730
(dp731
g238
S'color'
p732
sbasbsba(idelphi
DelphiWithStatement
p733
(dp734
g245
(i__main__
DelphiAssignStatement
p735
(dp736
g216
Nsg231
(i__main__
DelphiIdentAccess
p737
(dp738
g227
S'colorsDrawGrid'
p739
sg229
(lp740
(idelphi
DelphiFieldEndAccess
p741
(dp742
g238
S'canvas'
p743
sba(idelphi
DelphiFieldEndAccess
p744
(dp745
g238
S'rectangle'
p746
sba(idelphi
DelphiFunctionEndAccess
p747
(dp748
g254
(lp749
(i__main__
DelphiIdentAccess
p750
(dp751
g227
S'left'
p752
sg229
(lp753
sba(i__main__
DelphiIdentAccess
p754
(dp755
g227
S'top'
p756
sg229
(lp757
sba(i__main__
DelphiIdentAccess
p758
(dp759
g227
S'right'
p760
sg229
(lp761
sba(i__main__
DelphiIdentAccess
p762
(dp763
g227
S'bottom'
p764
sg229
(lp765
sbasbasbsbsg272
(lp766
(i__main__
DelphiIdentAccess
p767
(dp768
g227
S'rect'
p769
sg229
(lp770
sbasbasbsbasbsg465
(lp771
sbsbsS'colorsdrawgriddblclick'
p772
(i__main__
DelphiMethodImplementation
p773
(dp774
g185
g122
sg19
g124
sg27
(lp775
(i__main__
DelphiFormalParameter
p776
(dp777
g31
Nsg32
(lp778
S'Sender'
p779
asg35
(i__main__
DelphiNamedType
p780
(dp781
g38
S'TObject'
p782
sg40
g1
sg41
Nsbsg42
Nsbasg194
(lp783
sg196
(lp784
sg198
(lp785
g200
ag779
asg201
(dp786
g779
g780
ssg43
S'TChooseDXFColorForm'
p787
sg44
Nsg204
(lp788
sg45
I0
sg46
g47
sg206
(i__main__
DelphiBlock
p789
(dp790
g209
(idelphi
DelphiCompoundStatement
p791
(dp792
g212
(lp793
(i__main__
DelphiAssignStatement
p794
(dp795
g216
Nsg231
(i__main__
DelphiIdentAccess
p796
(dp797
g227
S'self'
p798
sg229
(lp799
(idelphi
DelphiFieldEndAccess
p800
(dp801
g238
S'closeClick'
p802
sba(idelphi
DelphiFunctionEndAccess
p803
(dp804
g254
(lp805
(i__main__
DelphiIdentAccess
p806
(dp807
g227
S'self'
p808
sg229
(lp809
sbasbasbsbasbsg465
(lp810
sbsbsS'closeclick'
p811
(i__main__
DelphiMethodImplementation
p812
(dp813
g185
g134
sg19
g136
sg27
(lp814
(i__main__
DelphiFormalParameter
p815
(dp816
g31
Nsg32
(lp817
S'Sender'
p818
asg35
(i__main__
DelphiNamedType
p819
(dp820
g38
S'TObject'
p821
sg40
g1
sg41
Nsbsg42
Nsbasg194
(lp822
sg196
(lp823
sg198
(lp824
g200
ag818
asg201
(dp825
g818
g819
ssg43
S'TChooseDXFColorForm'
p826
sg44
Nsg204
(lp827
sg45
I0
sg46
g47
sg206
(i__main__
DelphiBlock
p828
(dp829
g209
(idelphi
DelphiCompoundStatement
p830
(dp831
g212
(lp832
(i__main__
DelphiAssignStatement
p833
(dp834
g216
(i__main__
DelphiIdentAccess
p835
(dp836
g227
S'mrOk'
p837
sg229
(lp838
sbsg231
(i__main__
DelphiIdentAccess
p839
(dp840
g227
S'modalResult'
p841
sg229
(lp842
sbsbasbsg465
(lp843
sbsbssS'propertyDeclarations'
p844
(dp845
sS'variableNamesInDeclaredOrder'
p846
(lp847
g14
ag12
ag10
ag18
ag16
asba(i__main__
DelphiConstSection
p848
(dp849
S'constDeclList'
p850
(lp851
(idelphi
DelphiConstDeclaration
p852
(dp853
g474
(idelphi
DelphiIntegerValue
p854
(dp855
g223
S'4'
sbsg227
S'kBetweenGap'
p856
sg35
(idelphi
DelphiPrimitiveType
p857
(dp858
g38
S'UNDEFINED_NEEDS_CALCULATION'
p859
sbsbasg469
I1
sbasS'includedUnits'
p860
NsS'implementationUses'
p861
(lp862
S'uturtle'
p863
aS'u3dexport'
p864
asg19
S'Udxfclr'
p865
sS'constSections'
p866
(lp867
g848
asS'globalsInProperCase'
p868
NsS'interfaceUses'
p869
(lp870
S'delphi_compatability'
p871
aS'SysUtils'
p872
aS'WinTypes'
p873
aS'WinProcs'
p874
aS'Messages'
p875
aS'Classes'
p876
aS'Graphics'
p877
aS'Controls'
p878
aS'Forms'
p879
aS'Dialogs'
p880
aS'StdCtrls'
p881
aS'Grids'
p882
aS'updform'
p883
asS'finalCommentToken'
p884
(i__main__
PassStatement
p885
(dp886
g465
(lp887
sbsS'varSections'
p888
(lp889
sS'globals'
p890
NsS'originalFileName'
p891
S'../../PlantStudioInPython/converted_source/udxfclr.pas'
p892
sS'proceduralImplementations'
p893
(dp894
sS'fileName'
p895
S'/Users/pdf/Documents/workspace/PlantStudioInPython/converted_source/udxfclr.pas'
p896
sS'proceduralDeclarations'
p897
(dp898
sS'types'
p899
(dp900
S'tchoosedxfcolorform'
p901
g5
ssb.