(i__main__
DelphiUnit
p1
(dp2
S'sectionsInOrderDefined'
p3
(lp4
(i__main__
DelphiProceduralImplementation
p5
(dp6
S'originalDeclaration'
p7
(i__main__
DelphiProceduralDeclaration
p8
(dp9
S'formalParameters'
p10
(lp11
(i__main__
DelphiFormalParameter
p12
(dp13
S'initialValue'
p14
NsS'names'
p15
(lp16
S'anObject'
p17
asS'theType'
p18
(i__main__
DelphiNamedType
p19
(dp20
S'typeName'
p21
S'TObject'
p22
sS'unitDefinedIn'
p23
g1
sS'unitName'
p24
NsbsS'parameterVariety'
p25
NsbasS'name'
p26
S'FailNil'
p27
sS'resultType'
p28
Nsbsg26
g27
sg28
NsS'varParamIndexes'
p29
(lp30
sS'varParamsSkipped'
p31
(lp32
sS'argNames'
p33
(lp34
S'anObject'
p35
asS'argTypes'
p36
(dp37
g35
(i__main__
DelphiNamedType
p38
(dp39
g21
S'TObject'
p40
sg23
g1
sg24
Nsbssg10
(lp41
(i__main__
DelphiFormalParameter
p42
(dp43
g14
Nsg15
(lp44
g35
asg18
g38
sg25
NsbasS'varParamNames'
p45
(lp46
sS'block'
p47
(i__main__
DelphiBlock
p48
(dp49
S'compoundStatement'
p50
(idelphi
DelphiCompoundStatement
p51
(dp52
S'statements'
p53
(lp54
(idelphi
DelphiIfStatement
p55
(dp56
S'expression'
p57
(idelphi
DelphiRelOp
p58
(dp59
S'simpleExpression1'
p60
(i__main__
DelphiIdentAccess
p61
(dp62
S'ident'
p63
S'anObject'
p64
sS'endAccessList'
p65
(lp66
sbsS'simpleExpression2'
p67
(idelphi
DelphiNilValue
p68
(dp69
bsS'relOp'
p70
S'='
sbsS'ifFalseStatement'
p71
NsS'ifTrueStatement'
p72
(idelphi
DelphiRaiseStatement
p73
(dp74
g57
(i__main__
DelphiIdentAccess
p75
(dp76
g63
S'Exception'
p77
sg65
(lp78
(idelphi
DelphiFieldEndAccess
p79
(dp80
S'field'
p81
S'create'
p82
sba(idelphi
DelphiFunctionEndAccess
p83
(dp84
S'expressionList'
p85
(lp86
(idelphi
DelphiStringAccess
p87
(dp88
g65
(lp89
sS'string'
p90
(idelphi
DelphiStringValue
p91
(dp92
g90
S'Problem: Not enough memory to carry out that operation.'
p93
sbsbasbasbsbsbasbsS'limitedDeclSectionList'
p94
(lp95
sbsba(i__main__
DelphiProceduralImplementation
p96
(dp97
g7
(i__main__
DelphiProceduralDeclaration
p98
(dp99
g10
(lp100
(i__main__
DelphiFormalParameter
p101
(dp102
g14
Nsg15
(lp103
S'aPointer'
p104
asg18
(i__main__
DelphiNamedType
p105
(dp106
g21
S'Pointer'
p107
sg23
g1
sg24
Nsbsg25
Nsbasg26
S'FailNilPtr'
p108
sg28
Nsbsg26
g108
sg28
Nsg29
(lp109
sg31
(lp110
sg33
(lp111
S'aPointer'
p112
asg36
(dp113
g112
(i__main__
DelphiNamedType
p114
(dp115
g21
S'Pointer'
p116
sg23
g1
sg24
Nsbssg10
(lp117
(i__main__
DelphiFormalParameter
p118
(dp119
g14
Nsg15
(lp120
g112
asg18
g114
sg25
Nsbasg45
(lp121
sg47
(i__main__
DelphiBlock
p122
(dp123
g50
(idelphi
DelphiCompoundStatement
p124
(dp125
g53
(lp126
(idelphi
DelphiIfStatement
p127
(dp128
g57
(idelphi
DelphiRelOp
p129
(dp130
g60
(i__main__
DelphiIdentAccess
p131
(dp132
g63
S'aPointer'
p133
sg65
(lp134
sbsg67
(idelphi
DelphiNilValue
p135
(dp136
bsg70
S'='
sbsg71
Nsg72
(idelphi
DelphiRaiseStatement
p137
(dp138
g57
(i__main__
DelphiIdentAccess
p139
(dp140
g63
S'Exception'
p141
sg65
(lp142
(idelphi
DelphiFieldEndAccess
p143
(dp144
g81
S'create'
p145
sba(idelphi
DelphiFunctionEndAccess
p146
(dp147
g85
(lp148
(idelphi
DelphiStringAccess
p149
(dp150
g65
(lp151
sg90
(idelphi
DelphiStringValue
p152
(dp153
g90
S'Problem: Not enough memory to carry out that operation.'
p154
sbsbasbasbsbsbasbsg94
(lp155
sbsba(i__main__
DelphiProceduralImplementation
p156
(dp157
g7
(i__main__
DelphiProceduralDeclaration
p158
(dp159
g10
(lp160
(i__main__
DelphiFormalParameter
p161
(dp162
g14
Nsg15
(lp163
S'aPointer'
p164
asg18
(i__main__
DelphiPrimitiveType
p165
(dp166
g21
S'pchar'
p167
sbsg25
Nsbasg26
S'FailNilPChar'
p168
sg28
Nsbsg26
g168
sg28
Nsg29
(lp169
sg31
(lp170
sg33
(lp171
S'aPointer'
p172
asg36
(dp173
g172
(i__main__
DelphiPrimitiveType
p174
(dp175
g21
g167
sbssg10
(lp176
(i__main__
DelphiFormalParameter
p177
(dp178
g14
Nsg15
(lp179
g172
asg18
g174
sg25
Nsbasg45
(lp180
sg47
(i__main__
DelphiBlock
p181
(dp182
g50
(idelphi
DelphiCompoundStatement
p183
(dp184
g53
(lp185
(idelphi
DelphiIfStatement
p186
(dp187
g57
(idelphi
DelphiRelOp
p188
(dp189
g60
(i__main__
DelphiIdentAccess
p190
(dp191
g63
S'aPointer'
p192
sg65
(lp193
sbsg67
(idelphi
DelphiNilValue
p194
(dp195
bsg70
S'='
sbsg71
Nsg72
(idelphi
DelphiRaiseStatement
p196
(dp197
g57
(i__main__
DelphiIdentAccess
p198
(dp199
g63
S'Exception'
p200
sg65
(lp201
(idelphi
DelphiFieldEndAccess
p202
(dp203
g81
S'create'
p204
sba(idelphi
DelphiFunctionEndAccess
p205
(dp206
g85
(lp207
(idelphi
DelphiStringAccess
p208
(dp209
g65
(lp210
sg90
(idelphi
DelphiStringValue
p211
(dp212
g90
S'Problem: Not enough memory to carry out that operation.'
p213
sbsbasbasbsbsbasbsg94
(lp214
sbsbasS'includedUnits'
p215
NsS'implementationUses'
p216
(lp217
S'SysUtils'
p218
asg26
S'Uexcept'
p219
sS'constSections'
p220
(lp221
sS'globalsInProperCase'
p222
NsS'interfaceUses'
p223
(lp224
S'delphi_compatability'
p225
asS'finalCommentToken'
p226
(i__main__
PassStatement
p227
(dp228
g94
(lp229
sbsS'varSections'
p230
(lp231
sS'globals'
p232
NsS'originalFileName'
p233
S'../../PlantStudioInPython/converted_source/uexcept.pas'
p234
sS'proceduralImplementations'
p235
(dp236
S'failnilpchar'
p237
g156
sS'failnil'
p238
g5
sS'failnilptr'
p239
g96
ssS'fileName'
p240
S'/Users/pdf/Documents/workspace/PlantStudioInPython/converted_source/uexcept.pas'
p241
sS'proceduralDeclarations'
p242
(dp243
S'failnilpchar'
p244
g158
sS'failnil'
p245
g8
sS'failnilptr'
p246
g98
ssS'types'
p247
(dp248
sb.