(i__main__
DelphiUnit
p1
(dp2
S'sectionsInOrderDefined'
p3
(lp4
(i__main__
DelphiClass
p5
(dp6
S'variableNamesInProperCase'
p7
(dp8
S'componentname'
p9
S'componentName'
p10
sS'formclassname'
p11
S'formClassName'
p12
sS'shorthint'
p13
S'shortHint'
p14
sS'longhint'
p15
S'longHint'
p16
ssS'name'
p17
S'PdHint'
p18
sS'methodDeclarations'
p19
(dp20
S'make'
p21
(i__main__
DelphiMethodDeclaration
p22
(dp23
g17
S'make'
p24
sS'formalParameters'
p25
(lp26
(i__main__
DelphiFormalParameter
p27
(dp28
S'initialValue'
p29
NsS'names'
p30
(lp31
S'aFormClassName'
p32
aS'aComponentName'
p33
aS'aShortHint'
p34
aS'aLongHint'
p35
asS'theType'
p36
(i__main__
DelphiPrimitiveType
p37
(dp38
S'typeName'
p39
S'string'
p40
sbsS'parameterVariety'
p41
NsbasS'className'
p42
g18
sS'resultType'
p43
NsS'isClassMethod'
p44
I0
sS'methodType'
p45
S'constructor'
p46
sbssS'superclassNamedTypes'
p47
(lp48
(i__main__
DelphiNamedType
p49
(dp50
g39
S'TObject'
p51
sS'unitDefinedIn'
p52
g1
sS'unitName'
p53
NsbasS'variableNames'
p54
(dp55
S'componentname'
p56
(i__main__
DelphiPrimitiveType
p57
(dp58
g39
g40
sbsS'formclassname'
p59
(i__main__
DelphiPrimitiveType
p60
(dp61
g39
g40
sbsS'shorthint'
p62
(i__main__
DelphiPrimitiveType
p63
(dp64
g39
g40
sbsS'longhint'
p65
(i__main__
DelphiPrimitiveType
p66
(dp67
g39
g40
sbssS'methodNamesInDefinedOrder'
p68
(lp69
S'make'
p70
asS'methodImplementations'
p71
(dp72
S'make'
p73
(i__main__
DelphiMethodImplementation
p74
(dp75
S'originalDeclaration'
p76
g22
sg17
g24
sg25
(lp77
(i__main__
DelphiFormalParameter
p78
(dp79
g29
Nsg30
(lp80
S'aFormClassName'
p81
aS'aComponentName'
p82
aS'aShortHint'
p83
aS'aLongHint'
p84
asg36
(i__main__
DelphiPrimitiveType
p85
(dp86
g39
g40
sbsg41
NsbasS'varParamIndexes'
p87
(lp88
sS'varParamsSkipped'
p89
(lp90
sS'argNames'
p91
(lp92
S'self'
p93
ag81
ag82
ag83
ag84
asS'argTypes'
p94
(dp95
g82
g85
sg83
g85
sg81
g85
sg84
g85
ssg42
S'PdHint'
p96
sg43
NsS'varParamNames'
p97
(lp98
sg44
I0
sg45
g46
sS'block'
p99
(i__main__
DelphiBlock
p100
(dp101
S'compoundStatement'
p102
(idelphi
DelphiCompoundStatement
p103
(dp104
S'statements'
p105
(lp106
(i__main__
DelphiAssignStatement
p107
(dp108
S'newValueExpression'
p109
NsS'destinationExpression'
p110
(i__main__
DelphiIdentAccess
p111
(dp112
S'ident'
p113
S'self'
p114
sS'endAccessList'
p115
(lp116
(idelphi
DelphiFieldEndAccess
p117
(dp118
S'field'
p119
S'create'
p120
sbasbsba(i__main__
DelphiAssignStatement
p121
(dp122
g109
(i__main__
DelphiIdentAccess
p123
(dp124
g113
S'aFormClassName'
p125
sg115
(lp126
sbsg110
(i__main__
DelphiIdentAccess
p127
(dp128
g113
S'formClassName'
p129
sg115
(lp130
sbsba(i__main__
DelphiAssignStatement
p131
(dp132
g109
(i__main__
DelphiIdentAccess
p133
(dp134
g113
S'aComponentName'
p135
sg115
(lp136
sbsg110
(i__main__
DelphiIdentAccess
p137
(dp138
g113
S'componentName'
p139
sg115
(lp140
sbsba(i__main__
DelphiAssignStatement
p141
(dp142
g109
(i__main__
DelphiIdentAccess
p143
(dp144
g113
S'aShortHint'
p145
sg115
(lp146
sbsg110
(i__main__
DelphiIdentAccess
p147
(dp148
g113
S'shortHint'
p149
sg115
(lp150
sbsba(i__main__
DelphiAssignStatement
p151
(dp152
g109
(i__main__
DelphiIdentAccess
p153
(dp154
g113
S'aLongHint'
p155
sg115
(lp156
sbsg110
(i__main__
DelphiIdentAccess
p157
(dp158
g113
S'longHint'
p159
sg115
(lp160
sbsbasbsS'limitedDeclSectionList'
p161
(lp162
sbsbssS'propertyDeclarations'
p163
(dp164
sS'variableNamesInDeclaredOrder'
p165
(lp166
g12
ag10
ag14
ag16
asba(i__main__
DelphiClass
p167
(dp168
g7
(dp169
S'hints'
p170
S'hints'
p171
ssg17
S'PdHintManager'
p172
sg19
(dp173
S'addhint'
p174
(i__main__
DelphiMethodDeclaration
p175
(dp176
g17
S'addHint'
p177
sg25
(lp178
(i__main__
DelphiFormalParameter
p179
(dp180
g29
Nsg30
(lp181
S'aHint'
p182
asg36
(i__main__
DelphiNamedType
p183
(dp184
g39
S'PdHint'
p185
sg52
g1
sg53
Nsbsg41
Nsbasg42
g172
sg43
Nsg44
I0
sg45
S'procedure'
p186
sbsS'create'
p187
(i__main__
DelphiMethodDeclaration
p188
(dp189
g17
S'create'
p190
sg25
(lp191
sg42
g172
sg43
Nsg44
I0
sg45
g46
sbsS'cleanuphint'
p192
(i__main__
DelphiMethodDeclaration
p193
(dp194
g17
S'cleanUpHint'
p195
sg25
(lp196
(i__main__
DelphiFormalParameter
p197
(dp198
g29
Nsg30
(lp199
S'HintInfo'
p200
asg36
(i__main__
DelphiNamedType
p201
(dp202
g39
S'THintInfo'
p203
sg52
g1
sg53
Nsbsg41
S'var'
p204
sba(i__main__
DelphiFormalParameter
p205
(dp206
g29
Nsg30
(lp207
S'hintStr'
p208
asg36
(i__main__
DelphiPrimitiveType
p209
(dp210
g39
g40
sbsg41
g204
sba(i__main__
DelphiFormalParameter
p211
(dp212
g29
Nsg30
(lp213
S'isParameterHint'
p214
asg36
(i__main__
DelphiPrimitiveType
p215
(dp216
g39
S'boolean'
p217
sbsg41
Nsbasg42
g172
sg43
Nsg44
I0
sg45
g186
sbsS'makehints'
p218
(i__main__
DelphiMethodDeclaration
p219
(dp220
g17
S'makeHints'
p221
sg25
(lp222
sg42
g172
sg43
Nsg44
I0
sg45
g186
sbsS'quicksimplehint'
p223
(i__main__
DelphiMethodDeclaration
p224
(dp225
g17
S'quickSimpleHint'
p226
sg25
(lp227
(i__main__
DelphiFormalParameter
p228
(dp229
g29
Nsg30
(lp230
S'component'
p231
asg36
(i__main__
DelphiNamedType
p232
(dp233
g39
S'TComponent'
p234
sg52
g1
sg53
Nsbsg41
Nsba(i__main__
DelphiFormalParameter
p235
(dp236
g29
Nsg30
(lp237
S'wantLongHint'
p238
asg36
(i__main__
DelphiPrimitiveType
p239
(dp240
g39
g217
sbsg41
Nsbasg42
g172
sg43
(i__main__
DelphiPrimitiveType
p241
(dp242
g39
g40
sbsg44
I0
sg45
S'function'
p243
sbsS'referredhint'
p244
(i__main__
DelphiMethodDeclaration
p245
(dp246
g17
S'referredHint'
p247
sg25
(lp248
(i__main__
DelphiFormalParameter
p249
(dp250
g29
Nsg30
(lp251
S'ownerName'
p252
aS'componentName'
p253
asg36
(i__main__
DelphiPrimitiveType
p254
(dp255
g39
g40
sbsg41
Nsba(i__main__
DelphiFormalParameter
p256
(dp257
g29
Nsg30
(lp258
S'wantLongHint'
p259
asg36
(i__main__
DelphiPrimitiveType
p260
(dp261
g39
g217
sbsg41
Nsbasg42
g172
sg43
(i__main__
DelphiPrimitiveType
p262
(dp263
g39
g40
sbsg44
I0
sg45
g243
sbsS'clearhints'
p264
(i__main__
DelphiMethodDeclaration
p265
(dp266
g17
S'clearHints'
p267
sg25
(lp268
sg42
g172
sg43
Nsg44
I0
sg45
g186
sbsS'destroy'
p269
(i__main__
DelphiMethodDeclaration
p270
(dp271
g17
S'destroy'
p272
sg25
(lp273
sg42
g172
sg43
Nsg44
I0
sg45
S'destructor'
p274
sbsS'hintforcomponentname'
p275
(i__main__
DelphiMethodDeclaration
p276
(dp277
g17
S'hintForComponentName'
p278
sg25
(lp279
(i__main__
DelphiFormalParameter
p280
(dp281
g29
Nsg30
(lp282
S'HintInfo'
p283
asg36
(i__main__
DelphiNamedType
p284
(dp285
g39
S'THintInfo'
p286
sg52
g1
sg53
Nsbsg41
g204
sba(i__main__
DelphiFormalParameter
p287
(dp288
g29
Nsg30
(lp289
S'wantLongHint'
p290
aS'showParameterHint'
p291
asg36
(i__main__
DelphiPrimitiveType
p292
(dp293
g39
g217
sbsg41
Nsbasg42
g172
sg43
(i__main__
DelphiPrimitiveType
p294
(dp295
g39
g40
sbsg44
I0
sg45
g243
sbssg47
(lp296
(i__main__
DelphiNamedType
p297
(dp298
g39
g51
sg52
g1
sg53
Nsbasg54
(dp299
S'hints'
p300
(i__main__
DelphiNamedType
p301
(dp302
g39
S'TListCollection'
p303
sg52
g1
sg53
Nsbssg68
(lp304
S'create'
p305
aS'destroy'
p306
aS'hintforcomponentname'
p307
aS'quicksimplehint'
p308
aS'referredhint'
p309
aS'cleanuphint'
p310
aS'makehints'
p311
aS'clearhints'
p312
aS'addhint'
p313
asg71
(dp314
S'addhint'
p315
(i__main__
DelphiMethodImplementation
p316
(dp317
g76
g175
sg17
g177
sg25
(lp318
(i__main__
DelphiFormalParameter
p319
(dp320
g29
Nsg30
(lp321
S'aHint'
p322
asg36
(i__main__
DelphiNamedType
p323
(dp324
g39
S'PdHint'
p325
sg52
g1
sg53
Nsbsg41
Nsbasg87
(lp326
sg89
(lp327
sg91
(lp328
g93
ag322
asg94
(dp329
g322
g323
ssg42
S'PdHintManager'
p330
sg43
Nsg97
(lp331
sg44
I0
sg45
g186
sg99
(i__main__
DelphiBlock
p332
(dp333
g102
(idelphi
DelphiCompoundStatement
p334
(dp335
g105
(lp336
(idelphi
DelphiIfStatement
p337
(dp338
S'expression'
p339
(idelphi
DelphiRelOp
p340
(dp341
S'simpleExpression1'
p342
(i__main__
DelphiIdentAccess
p343
(dp344
g113
S'aHint'
p345
sg115
(lp346
sbsS'simpleExpression2'
p347
(idelphi
DelphiNilValue
p348
(dp349
bsS'relOp'
p350
S'<>'
p351
sbsS'ifFalseStatement'
p352
NsS'ifTrueStatement'
p353
(i__main__
DelphiAssignStatement
p354
(dp355
g109
Nsg110
(i__main__
DelphiIdentAccess
p356
(dp357
g113
S'hints'
p358
sg115
(lp359
(idelphi
DelphiFieldEndAccess
p360
(dp361
g119
S'add'
p362
sba(idelphi
DelphiFunctionEndAccess
p363
(dp364
S'expressionList'
p365
(lp366
(i__main__
DelphiIdentAccess
p367
(dp368
g113
S'aHint'
p369
sg115
(lp370
sbasbasbsbsbasbsg161
(lp371
sbsbsS'create'
p372
(i__main__
DelphiMethodImplementation
p373
(dp374
g76
g188
sg17
g190
sg25
(lp375
sg87
(lp376
sg89
(lp377
sg91
(lp378
g93
asg94
(dp379
sg42
S'PdHintManager'
p380
sg43
Nsg97
(lp381
sg44
I0
sg45
g46
sg99
(i__main__
DelphiBlock
p382
(dp383
g102
(idelphi
DelphiCompoundStatement
p384
(dp385
g105
(lp386
(i__main__
DelphiAssignStatement
p387
(dp388
g109
(i__main__
DelphiIdentAccess
p389
(dp390
g113
S'TListCollection'
p391
sg115
(lp392
(idelphi
DelphiFieldEndAccess
p393
(dp394
g119
S'create'
p395
sbasbsg110
(i__main__
DelphiIdentAccess
p396
(dp397
g113
S'hints'
p398
sg115
(lp399
sbsbasbsg161
(lp400
sbsS'commentLinesBefore'
p401
(lp402
S' --------------------------------------------------------------------- PdHintManager '
p403
asbsS'cleanuphint'
p404
(i__main__
DelphiMethodImplementation
p405
(dp406
g76
g193
sg17
g195
sg25
(lp407
(i__main__
DelphiFormalParameter
p408
(dp409
g29
Nsg30
(lp410
S'HintInfo'
p411
asg36
(i__main__
DelphiNamedType
p412
(dp413
g39
S'THintInfo'
p414
sg52
g1
sg53
Nsbsg41
g204
sba(i__main__
DelphiFormalParameter
p415
(dp416
g29
Nsg30
(lp417
S'hintStr'
p418
asg36
(i__main__
DelphiPrimitiveType
p419
(dp420
g39
g40
sbsg41
g204
sba(i__main__
DelphiFormalParameter
p421
(dp422
g29
Nsg30
(lp423
S'isParameterHint'
p424
asg36
(i__main__
DelphiPrimitiveType
p425
(dp426
g39
g217
sbsg41
Nsbasg87
(lp427
I1
asg89
(lp428
g411
asg91
(lp429
g93
ag411
ag418
ag424
asg94
(dp430
g418
g419
sg411
g412
sg424
g425
ssg42
S'PdHintManager'
p431
sg43
Nsg97
(lp432
g418
asg44
I0
sg45
g186
sg99
(i__main__
DelphiBlock
p433
(dp434
g102
(idelphi
DelphiCompoundStatement
p435
(dp436
g105
(lp437
(idelphi
DelphiIfStatement
p438
(dp439
g339
(idelphi
DelphiRelOp
p440
(dp441
g342
(i__main__
DelphiIdentAccess
p442
(dp443
g113
S'hintStr'
p444
sg115
(lp445
sbsg347
(idelphi
DelphiStringAccess
p446
(dp447
g115
(lp448
sg40
(idelphi
DelphiStringValue
p449
(dp450
g40
S'(none)'
p451
sbsbsg350
S'='
sbsg352
Nsg353
(i__main__
DelphiAssignStatement
p452
(dp453
g109
(idelphi
DelphiStringAccess
p454
(dp455
g115
(lp456
sg40
(idelphi
DelphiStringValue
p457
(dp458
g40
S''
sbsbsg110
(i__main__
DelphiIdentAccess
p459
(dp460
g113
S'hintStr'
p461
sg115
(lp462
sbsbsba(i__main__
DelphiAssignStatement
p463
(dp464
g109
(i__main__
DelphiIdentAccess
p465
(dp466
g113
S'trimQuotesFromFirstAndLast'
p467
sg115
(lp468
(idelphi
DelphiFunctionEndAccess
p469
(dp470
g365
(lp471
(i__main__
DelphiIdentAccess
p472
(dp473
g113
S'hintStr'
p474
sg115
(lp475
sbasbasbsg110
(i__main__
DelphiIdentAccess
p476
(dp477
g113
S'hintStr'
p478
sg115
(lp479
sbsg401
(lp480
S' v2.0\r'
p481
asba(idelphi
DelphiIfStatement
p482
(dp483
g339
(i__main__
DelphiIdentAccess
p484
(dp485
g113
S'isParameterHint'
p486
sg115
(lp487
sbsg352
Nsg353
(i__main__
DelphiAssignStatement
p488
(dp489
g109
(i__main__
DelphiIdentAccess
p490
(dp491
g113
S'clAqua'
p492
sg115
(lp493
sbsg110
(i__main__
DelphiIdentAccess
p494
(dp495
g113
S'hintInfo'
p496
sg115
(lp497
(idelphi
DelphiFieldEndAccess
p498
(dp499
g119
S'hintColor'
p500
sbasbsbsbasbsg161
(lp501
sbsbsS'makehints'
p502
(i__main__
DelphiMethodImplementation
p503
(dp504
g76
g219
sg17
g221
sg25
(lp505
sg87
(lp506
sg89
(lp507
sg91
(lp508
g93
asg94
(dp509
sg42
S'PdHintManager'
p510
sg43
Nsg97
(lp511
sg44
I0
sg45
g186
sg99
(i__main__
DelphiBlock
p512
(dp513
g102
(idelphi
DelphiCompoundStatement
p514
(dp515
g105
(lp516
(i__main__
DelphiAssignStatement
p517
(dp518
g109
Nsg110
(i__main__
DelphiIdentAccess
p519
(dp520
g113
S'CreateHints1'
p521
sg115
(lp522
(idelphi
DelphiFunctionEndAccess
p523
(dp524
g365
(lp525
(i__main__
DelphiIdentAccess
p526
(dp527
g113
S'self'
p528
sg115
(lp529
sbasbasbsba(i__main__
DelphiAssignStatement
p530
(dp531
g109
Nsg110
(i__main__
DelphiIdentAccess
p532
(dp533
g113
S'CreateHints2'
p534
sg115
(lp535
(idelphi
DelphiFunctionEndAccess
p536
(dp537
g365
(lp538
(i__main__
DelphiIdentAccess
p539
(dp540
g113
S'self'
p541
sg115
(lp542
sbasbasbsbasbsg161
(lp543
sbsbsS'quicksimplehint'
p544
(i__main__
DelphiMethodImplementation
p545
(dp546
g76
g224
sg17
g226
sg25
(lp547
(i__main__
DelphiFormalParameter
p548
(dp549
g29
Nsg30
(lp550
S'component'
p551
asg36
(i__main__
DelphiNamedType
p552
(dp553
g39
S'TComponent'
p554
sg52
g1
sg53
Nsbsg41
Nsba(i__main__
DelphiFormalParameter
p555
(dp556
g29
Nsg30
(lp557
S'wantLongHint'
p558
asg36
(i__main__
DelphiPrimitiveType
p559
(dp560
g39
g217
sbsg41
Nsbasg87
(lp561
sg89
(lp562
sg91
(lp563
g93
ag551
ag558
asg94
(dp564
g551
g552
sg558
g559
ssg42
S'PdHintManager'
p565
sg43
(i__main__
DelphiPrimitiveType
p566
(dp567
g39
g40
sbsg97
(lp568
sg44
I0
sg45
g243
sg99
(i__main__
DelphiBlock
p569
(dp570
g102
(idelphi
DelphiCompoundStatement
p571
(dp572
g105
(lp573
(i__main__
DelphiAssignStatement
p574
(dp575
g109
(idelphi
DelphiStringAccess
p576
(dp577
g115
(lp578
sg40
(idelphi
DelphiStringValue
p579
(dp580
g40
S''
sbsbsg110
(i__main__
DelphiIdentAccess
p581
(dp582
g113
S'result'
p583
sg115
(lp584
sbsba(i__main__
DelphiAssignStatement
p585
(dp586
g109
(i__main__
DelphiIdentAccess
p587
(dp588
g113
S'component'
p589
sg115
(lp590
(idelphi
DelphiFieldEndAccess
p591
(dp592
g119
S'owner'
p593
sbasbsg110
(i__main__
DelphiIdentAccess
p594
(dp595
g113
S'owner'
p596
sg115
(lp597
sbsba(idelphi
DelphiIfStatement
p598
(dp599
g339
(idelphi
DelphiRelOp
p600
(dp601
g342
(i__main__
DelphiIdentAccess
p602
(dp603
g113
S'owner'
p604
sg115
(lp605
sbsg347
(idelphi
DelphiNilValue
p606
(dp607
bsg350
S'='
sbsg352
Nsg353
(idelphi
DelphiRaiseStatement
p608
(dp609
g339
(i__main__
DelphiIdentAccess
p610
(dp611
g113
S'Exception'
p612
sg115
(lp613
(idelphi
DelphiFieldEndAccess
p614
(dp615
g119
S'create'
p616
sba(idelphi
DelphiFunctionEndAccess
p617
(dp618
g365
(lp619
(idelphi
DelphiStringAccess
p620
(dp621
g115
(lp622
sg40
(idelphi
DelphiStringValue
p623
(dp624
g40
S'Problem: Component has nil owner in method PdHintManager.quickSimpleHint.'
p625
sbsbasbasbsbsba(idelphi
DelphiIfStatement
p626
(dp627
g339
(idelphi
DelphiRelOp
p628
(dp629
g342
(i__main__
DelphiIdentAccess
p630
(dp631
g113
S'hints'
p632
sg115
(lp633
(idelphi
DelphiFieldEndAccess
p634
(dp635
g119
S'count'
p636
sbasbsg347
(idelphi
DelphiIntegerValue
p637
(dp638
g40
S'0'
sbsg350
S'>'
sbsg352
Nsg353
(idelphi
DelphiForStatement
p639
(dp640
S'variable'
p641
S'i'
sS'finalValue'
p642
(idelphi
DelphiAddOp
p643
(dp644
S'addOp'
p645
S'-'
sS'term2'
p646
(idelphi
DelphiIntegerValue
p647
(dp648
g40
S'1'
sbsS'term1'
p649
(i__main__
DelphiIdentAccess
p650
(dp651
g113
S'hints'
p652
sg115
(lp653
(idelphi
DelphiFieldEndAccess
p654
(dp655
g119
S'count'
p656
sbasbsbsS'direction'
p657
S'to'
p658
sg29
(idelphi
DelphiIntegerValue
p659
(dp660
g40
S'0'
sbsS'statement'
p661
(idelphi
DelphiCompoundStatement
p662
(dp663
g105
(lp664
(i__main__
DelphiAssignStatement
p665
(dp666
g109
(i__main__
DelphiIdentAccess
p667
(dp668
g113
S'PdHint'
p669
sg115
(lp670
(idelphi
DelphiFunctionEndAccess
p671
(dp672
g365
(lp673
(i__main__
DelphiIdentAccess
p674
(dp675
g113
S'hints'
p676
sg115
(lp677
(idelphi
DelphiFieldEndAccess
p678
(dp679
g119
S'items'
p680
sba(idelphi
DelphiArrayEndAccess
p681
(dp682
g365
(lp683
(i__main__
DelphiIdentAccess
p684
(dp685
g113
S'i'
sg115
(lp686
sbasbasbasbasbsg110
(i__main__
DelphiIdentAccess
p687
(dp688
g113
S'hint'
p689
sg115
(lp690
sbsba(i__main__
DelphiAssignStatement
p691
(dp692
g109
(i__main__
DelphiIdentAccess
p693
(dp694
g113
S'owner'
p695
sg115
(lp696
(idelphi
DelphiFieldEndAccess
p697
(dp698
g119
S'className'
p699
sbasbsg110
(i__main__
DelphiIdentAccess
p700
(dp701
g113
S'ownerClassName'
p702
sg115
(lp703
sbsg401
(lp704
S' check both form class and component name,\r'
p705
aS'        so only components in one form need be uniquely named '
p706
asba(idelphi
DelphiIfStatement
p707
(dp708
g339
(idelphi
DelphiMulOp
p709
(dp710
S'signedFactor2'
p711
(idelphi
DelphiNestedExpressionListAccess
p712
(dp713
g115
(lp714
sg365
(lp715
(idelphi
DelphiRelOp
p716
(dp717
g342
(i__main__
DelphiIdentAccess
p718
(dp719
g113
S'upperCase'
p720
sg115
(lp721
(idelphi
DelphiFunctionEndAccess
p722
(dp723
g365
(lp724
(i__main__
DelphiIdentAccess
p725
(dp726
g113
S'hint'
p727
sg115
(lp728
(idelphi
DelphiFieldEndAccess
p729
(dp730
g119
S'componentName'
p731
sbasbasbasbsg347
(i__main__
DelphiIdentAccess
p732
(dp733
g113
S'upperCase'
p734
sg115
(lp735
(idelphi
DelphiFunctionEndAccess
p736
(dp737
g365
(lp738
(i__main__
DelphiIdentAccess
p739
(dp740
g113
S'component'
p741
sg115
(lp742
(idelphi
DelphiFieldEndAccess
p743
(dp744
g119
S'name'
p745
sbasbasbasbsg350
S'='
sbasbsS'mulOp'
p746
S'and'
p747
sS'signedFactor1'
p748
(idelphi
DelphiNestedExpressionListAccess
p749
(dp750
g115
(lp751
sg365
(lp752
(idelphi
DelphiRelOp
p753
(dp754
g342
(i__main__
DelphiIdentAccess
p755
(dp756
g113
S'upperCase'
p757
sg115
(lp758
(idelphi
DelphiFunctionEndAccess
p759
(dp760
g365
(lp761
(i__main__
DelphiIdentAccess
p762
(dp763
g113
S'hint'
p764
sg115
(lp765
(idelphi
DelphiFieldEndAccess
p766
(dp767
g119
S'formClassName'
p768
sbasbasbasbsg347
(i__main__
DelphiIdentAccess
p769
(dp770
g113
S'upperCase'
p771
sg115
(lp772
(idelphi
DelphiFunctionEndAccess
p773
(dp774
g365
(lp775
(i__main__
DelphiIdentAccess
p776
(dp777
g113
S'ownerClassName'
p778
sg115
(lp779
sbasbasbsg350
S'='
sbasbsbsg352
Nsg353
(idelphi
DelphiCompoundStatement
p780
(dp781
g105
(lp782
(idelphi
DelphiIfStatement
p783
(dp784
g339
(i__main__
DelphiIdentAccess
p785
(dp786
g113
S'wantLongHint'
p787
sg115
(lp788
sbsg352
(i__main__
DelphiAssignStatement
p789
(dp790
g109
(i__main__
DelphiIdentAccess
p791
(dp792
g113
S'hint'
p793
sg115
(lp794
(idelphi
DelphiFieldEndAccess
p795
(dp796
g119
S'shortHint'
p797
sbasbsg110
(i__main__
DelphiIdentAccess
p798
(dp799
g113
S'result'
p800
sg115
(lp801
sbsbsg353
(i__main__
DelphiAssignStatement
p802
(dp803
g109
(i__main__
DelphiIdentAccess
p804
(dp805
g113
S'hint'
p806
sg115
(lp807
(idelphi
DelphiFieldEndAccess
p808
(dp809
g119
S'longHint'
p810
sbasbsg110
(i__main__
DelphiIdentAccess
p811
(dp812
g113
S'result'
p813
sg115
(lp814
sbsbsba(idelphi
DelphiIfStatement
p815
(dp816
g339
(idelphi
DelphiRelOp
p817
(dp818
g342
(i__main__
DelphiIdentAccess
p819
(dp820
g113
S'result'
p821
sg115
(lp822
sbsg347
(idelphi
DelphiStringAccess
p823
(dp824
g115
(lp825
sg40
(idelphi
DelphiStringValue
p826
(dp827
g40
S'(none)'
p828
sbsbsg350
S'='
sbsg352
Nsg353
(i__main__
DelphiAssignStatement
p829
(dp830
g109
(idelphi
DelphiStringAccess
p831
(dp832
g115
(lp833
sg40
(idelphi
DelphiStringValue
p834
(dp835
g40
S''
sbsbsg110
(i__main__
DelphiIdentAccess
p836
(dp837
g113
S'result'
p838
sg115
(lp839
sbsbsba(idelphi
DelphiBreakStatement
p840
(dp841
basbsbasbsbsbasbsg161
(lp842
(i__main__
DelphiVarSection
p843
(dp844
S'atTopLevel'
p845
I0
sS'varDeclList'
p846
(lp847
(idelphi
DelphiVarDecl
p848
(dp849
S'constExpression'
p850
NsS'identList'
p851
(lp852
S'i'
asg36
(i__main__
DelphiPrimitiveType
p853
(dp854
g39
S'longint'
p855
sbsba(idelphi
DelphiVarDecl
p856
(dp857
g850
Nsg851
(lp858
S'hint'
p859
asg36
(i__main__
DelphiNamedType
p860
(dp861
g39
S'PdHint'
p862
sg52
g1
sg53
Nsbsba(idelphi
DelphiVarDecl
p863
(dp864
g850
Nsg851
(lp865
S'owner'
p866
asg36
(i__main__
DelphiNamedType
p867
(dp868
g39
S'TComponent'
p869
sg52
g1
sg53
Nsbsba(idelphi
DelphiVarDecl
p870
(dp871
g850
Nsg851
(lp872
S'ownerClassName'
p873
asg36
(i__main__
DelphiPrimitiveType
p874
(dp875
g39
g40
sbsbasbasbsbsS'referredhint'
p876
(i__main__
DelphiMethodImplementation
p877
(dp878
g76
g245
sg17
g247
sg25
(lp879
(i__main__
DelphiFormalParameter
p880
(dp881
g29
Nsg30
(lp882
S'ownerName'
p883
aS'componentName'
p884
asg36
(i__main__
DelphiPrimitiveType
p885
(dp886
g39
g40
sbsg41
Nsba(i__main__
DelphiFormalParameter
p887
(dp888
g29
Nsg30
(lp889
S'wantLongHint'
p890
asg36
(i__main__
DelphiPrimitiveType
p891
(dp892
g39
g217
sbsg41
Nsbasg87
(lp893
sg89
(lp894
sg91
(lp895
g93
ag883
ag884
ag890
asg94
(dp896
g884
g885
sg883
g885
sg890
g891
ssg42
S'PdHintManager'
p897
sg43
(i__main__
DelphiPrimitiveType
p898
(dp899
g39
g40
sbsg97
(lp900
sg44
I0
sg45
g243
sg99
(i__main__
DelphiBlock
p901
(dp902
g102
(idelphi
DelphiCompoundStatement
p903
(dp904
g105
(lp905
(i__main__
DelphiAssignStatement
p906
(dp907
g109
(idelphi
DelphiStringAccess
p908
(dp909
g115
(lp910
sg40
(idelphi
DelphiStringValue
p911
(dp912
g40
S''
sbsbsg110
(i__main__
DelphiIdentAccess
p913
(dp914
g113
S'result'
p915
sg115
(lp916
sbsba(idelphi
DelphiIfStatement
p917
(dp918
g339
(idelphi
DelphiRelOp
p919
(dp920
g342
(i__main__
DelphiIdentAccess
p921
(dp922
g113
S'hints'
p923
sg115
(lp924
(idelphi
DelphiFieldEndAccess
p925
(dp926
g119
S'count'
p927
sbasbsg347
(idelphi
DelphiIntegerValue
p928
(dp929
g40
S'0'
sbsg350
S'>'
sbsg352
Nsg353
(idelphi
DelphiForStatement
p930
(dp931
g641
S'i'
sg642
(idelphi
DelphiAddOp
p932
(dp933
g645
S'-'
sg646
(idelphi
DelphiIntegerValue
p934
(dp935
g40
S'1'
sbsg649
(i__main__
DelphiIdentAccess
p936
(dp937
g113
S'hints'
p938
sg115
(lp939
(idelphi
DelphiFieldEndAccess
p940
(dp941
g119
S'count'
p942
sbasbsbsg657
g658
sg29
(idelphi
DelphiIntegerValue
p943
(dp944
g40
S'0'
sbsg661
(idelphi
DelphiCompoundStatement
p945
(dp946
g105
(lp947
(i__main__
DelphiAssignStatement
p948
(dp949
g109
(i__main__
DelphiIdentAccess
p950
(dp951
g113
S'PdHint'
p952
sg115
(lp953
(idelphi
DelphiFunctionEndAccess
p954
(dp955
g365
(lp956
(i__main__
DelphiIdentAccess
p957
(dp958
g113
S'hints'
p959
sg115
(lp960
(idelphi
DelphiFieldEndAccess
p961
(dp962
g119
S'items'
p963
sba(idelphi
DelphiArrayEndAccess
p964
(dp965
g365
(lp966
(i__main__
DelphiIdentAccess
p967
(dp968
g113
S'i'
sg115
(lp969
sbasbasbasbasbsg110
(i__main__
DelphiIdentAccess
p970
(dp971
g113
S'hint'
p972
sg115
(lp973
sbsba(idelphi
DelphiIfStatement
p974
(dp975
g339
(idelphi
DelphiMulOp
p976
(dp977
g711
(idelphi
DelphiNestedExpressionListAccess
p978
(dp979
g115
(lp980
sg365
(lp981
(idelphi
DelphiRelOp
p982
(dp983
g342
(i__main__
DelphiIdentAccess
p984
(dp985
g113
S'upperCase'
p986
sg115
(lp987
(idelphi
DelphiFunctionEndAccess
p988
(dp989
g365
(lp990
(i__main__
DelphiIdentAccess
p991
(dp992
g113
S'hint'
p993
sg115
(lp994
(idelphi
DelphiFieldEndAccess
p995
(dp996
g119
S'componentName'
p997
sbasbasbasbsg347
(i__main__
DelphiIdentAccess
p998
(dp999
g113
S'upperCase'
p1000
sg115
(lp1001
(idelphi
DelphiFunctionEndAccess
p1002
(dp1003
g365
(lp1004
(i__main__
DelphiIdentAccess
p1005
(dp1006
g113
S'componentName'
p1007
sg115
(lp1008
sbasbasbsg350
S'='
sbasbsg746
g747
sg748
(idelphi
DelphiNestedExpressionListAccess
p1009
(dp1010
g115
(lp1011
sg365
(lp1012
(idelphi
DelphiRelOp
p1013
(dp1014
g342
(i__main__
DelphiIdentAccess
p1015
(dp1016
g113
S'upperCase'
p1017
sg115
(lp1018
(idelphi
DelphiFunctionEndAccess
p1019
(dp1020
g365
(lp1021
(i__main__
DelphiIdentAccess
p1022
(dp1023
g113
S'hint'
p1024
sg115
(lp1025
(idelphi
DelphiFieldEndAccess
p1026
(dp1027
g119
S'formClassName'
p1028
sbasbasbasbsg347
(i__main__
DelphiIdentAccess
p1029
(dp1030
g113
S'upperCase'
p1031
sg115
(lp1032
(idelphi
DelphiFunctionEndAccess
p1033
(dp1034
g365
(lp1035
(i__main__
DelphiIdentAccess
p1036
(dp1037
g113
S'ownerName'
p1038
sg115
(lp1039
sbasbasbsg350
S'='
sbasbsbsg352
Nsg353
(idelphi
DelphiCompoundStatement
p1040
(dp1041
g105
(lp1042
(idelphi
DelphiIfStatement
p1043
(dp1044
g339
(i__main__
DelphiIdentAccess
p1045
(dp1046
g113
S'wantLongHint'
p1047
sg115
(lp1048
sbsg352
(i__main__
DelphiAssignStatement
p1049
(dp1050
g109
(i__main__
DelphiIdentAccess
p1051
(dp1052
g113
S'hint'
p1053
sg115
(lp1054
(idelphi
DelphiFieldEndAccess
p1055
(dp1056
g119
S'shortHint'
p1057
sbasbsg110
(i__main__
DelphiIdentAccess
p1058
(dp1059
g113
S'result'
p1060
sg115
(lp1061
sbsbsg353
(i__main__
DelphiAssignStatement
p1062
(dp1063
g109
(i__main__
DelphiIdentAccess
p1064
(dp1065
g113
S'hint'
p1066
sg115
(lp1067
(idelphi
DelphiFieldEndAccess
p1068
(dp1069
g119
S'longHint'
p1070
sbasbsg110
(i__main__
DelphiIdentAccess
p1071
(dp1072
g113
S'result'
p1073
sg115
(lp1074
sbsg401
(lp1075
S' check both form class and component name,\r'
p1076
aS'        so only components in one form need be uniquely named '
p1077
asbsba(idelphi
DelphiIfStatement
p1078
(dp1079
g339
(idelphi
DelphiRelOp
p1080
(dp1081
g342
(i__main__
DelphiIdentAccess
p1082
(dp1083
g113
S'result'
p1084
sg115
(lp1085
sbsg347
(idelphi
DelphiStringAccess
p1086
(dp1087
g115
(lp1088
sg40
(idelphi
DelphiStringValue
p1089
(dp1090
g40
S'(none)'
p1091
sbsbsg350
S'='
sbsg352
Nsg353
(i__main__
DelphiAssignStatement
p1092
(dp1093
g109
(idelphi
DelphiStringAccess
p1094
(dp1095
g115
(lp1096
sg40
(idelphi
DelphiStringValue
p1097
(dp1098
g40
S''
sbsbsg110
(i__main__
DelphiIdentAccess
p1099
(dp1100
g113
S'result'
p1101
sg115
(lp1102
sbsbsba(idelphi
DelphiBreakStatement
p1103
(dp1104
basbsbasbsbsbasbsg161
(lp1105
(i__main__
DelphiVarSection
p1106
(dp1107
g845
I0
sg846
(lp1108
(idelphi
DelphiVarDecl
p1109
(dp1110
g850
Nsg851
(lp1111
S'i'
asg36
(i__main__
DelphiPrimitiveType
p1112
(dp1113
g39
g855
sbsba(idelphi
DelphiVarDecl
p1114
(dp1115
g850
Nsg851
(lp1116
S'hint'
p1117
asg36
(i__main__
DelphiNamedType
p1118
(dp1119
g39
S'PdHint'
p1120
sg52
g1
sg53
NsbsbasbasbsbsS'clearhints'
p1121
(i__main__
DelphiMethodImplementation
p1122
(dp1123
g76
g265
sg17
g267
sg25
(lp1124
sg87
(lp1125
sg89
(lp1126
sg91
(lp1127
g93
asg94
(dp1128
sg42
S'PdHintManager'
p1129
sg43
Nsg97
(lp1130
sg44
I0
sg45
g186
sg99
(i__main__
DelphiBlock
p1131
(dp1132
g102
(idelphi
DelphiCompoundStatement
p1133
(dp1134
g105
(lp1135
(i__main__
DelphiAssignStatement
p1136
(dp1137
g109
Nsg110
(i__main__
DelphiIdentAccess
p1138
(dp1139
g113
S'hints'
p1140
sg115
(lp1141
(idelphi
DelphiFieldEndAccess
p1142
(dp1143
g119
S'clear'
p1144
sbasbsbasbsg161
(lp1145
sbsbsS'destroy'
p1146
(i__main__
DelphiMethodImplementation
p1147
(dp1148
g76
g270
sg17
g272
sg25
(lp1149
sg87
(lp1150
sg89
(lp1151
sg91
(lp1152
g93
asg94
(dp1153
sg42
S'PdHintManager'
p1154
sg43
Nsg97
(lp1155
sg44
I0
sg45
g274
sg99
(i__main__
DelphiBlock
p1156
(dp1157
g102
(idelphi
DelphiCompoundStatement
p1158
(dp1159
g105
(lp1160
(i__main__
DelphiAssignStatement
p1161
(dp1162
g109
Nsg110
(i__main__
DelphiIdentAccess
p1163
(dp1164
g113
S'hints'
p1165
sg115
(lp1166
(idelphi
DelphiFieldEndAccess
p1167
(dp1168
g119
S'free'
p1169
sbasbsba(i__main__
DelphiAssignStatement
p1170
(dp1171
g109
(idelphi
DelphiNilValue
p1172
(dp1173
bsg110
(i__main__
DelphiIdentAccess
p1174
(dp1175
g113
S'hints'
p1176
sg115
(lp1177
sbsbasbsg161
(lp1178
sbsbsS'hintforcomponentname'
p1179
(i__main__
DelphiMethodImplementation
p1180
(dp1181
g76
g276
sg17
g278
sg25
(lp1182
(i__main__
DelphiFormalParameter
p1183
(dp1184
g29
Nsg30
(lp1185
S'HintInfo'
p1186
asg36
(i__main__
DelphiNamedType
p1187
(dp1188
g39
S'THintInfo'
p1189
sg52
g1
sg53
Nsbsg41
g204
sba(i__main__
DelphiFormalParameter
p1190
(dp1191
g29
Nsg30
(lp1192
S'wantLongHint'
p1193
aS'showParameterHint'
p1194
asg36
(i__main__
DelphiPrimitiveType
p1195
(dp1196
g39
g217
sbsg41
Nsbasg87
(lp1197
sg89
(lp1198
g1186
asg91
(lp1199
g93
ag1186
ag1193
ag1194
asg94
(dp1200
g1186
g1187
sg1194
g1195
sg1193
g1195
ssg42
S'PdHintManager'
p1201
sg43
(i__main__
DelphiPrimitiveType
p1202
(dp1203
g39
g40
sbsg97
(lp1204
sg44
I0
sg45
g243
sg99
(i__main__
DelphiBlock
p1205
(dp1206
g102
(idelphi
DelphiCompoundStatement
p1207
(dp1208
g105
(lp1209
(i__main__
DelphiAssignStatement
p1210
(dp1211
g109
(idelphi
DelphiStringAccess
p1212
(dp1213
g115
(lp1214
sg40
(idelphi
DelphiStringValue
p1215
(dp1216
g40
S''
sbsbsg110
(i__main__
DelphiIdentAccess
p1217
(dp1218
g113
S'result'
p1219
sg115
(lp1220
sbsba(idelphi
DelphiIfStatement
p1221
(dp1222
g339
(i__main__
DelphiIdentAccess
p1223
(dp1224
g113
S'Application'
p1225
sg115
(lp1226
(idelphi
DelphiFieldEndAccess
p1227
(dp1228
g119
S'terminated'
p1229
sbasbsg352
Nsg353
(i__main__
DelphiExitStatement
p1230
(dp1231
S'proceduralOrMethodImplementation'
p1232
g1180
sbsba(idelphi
DelphiIfStatement
p1233
(dp1234
g339
(idelphi
DelphiRelOp
p1235
(dp1236
g342
(i__main__
DelphiIdentAccess
p1237
(dp1238
g113
S'hints'
p1239
sg115
(lp1240
sbsg347
(idelphi
DelphiNilValue
p1241
(dp1242
bsg350
S'='
sbsg352
Nsg353
(i__main__
DelphiExitStatement
p1243
(dp1244
g1232
g1180
sbsba(i__main__
DelphiAssignStatement
p1245
(dp1246
g109
(idelphi
DelphiNilValue
p1247
(dp1248
bsg110
(i__main__
DelphiIdentAccess
p1249
(dp1250
g113
S'owner'
p1251
sg115
(lp1252
sbsba(i__main__
DelphiAssignStatement
p1253
(dp1254
g109
(i__main__
DelphiIdentAccess
p1255
(dp1256
g113
S'TComponent'
p1257
sg115
(lp1258
(idelphi
DelphiFunctionEndAccess
p1259
(dp1260
g365
(lp1261
(i__main__
DelphiIdentAccess
p1262
(dp1263
g113
S'hintInfo'
p1264
sg115
(lp1265
(idelphi
DelphiFieldEndAccess
p1266
(dp1267
g119
S'hintControl'
p1268
sbasbasbasbsg110
(i__main__
DelphiIdentAccess
p1269
(dp1270
g113
S'component'
p1271
sg115
(lp1272
sbsba(idelphi
DelphiIfStatement
p1273
(dp1274
g339
(idelphi
DelphiRelOp
p1275
(dp1276
g342
(i__main__
DelphiIdentAccess
p1277
(dp1278
g113
S'component'
p1279
sg115
(lp1280
sbsg347
(idelphi
DelphiNilValue
p1281
(dp1282
bsg350
S'='
sbsg352
Nsg353
(idelphi
DelphiRaiseStatement
p1283
(dp1284
g339
(i__main__
DelphiIdentAccess
p1285
(dp1286
g113
S'Exception'
p1287
sg115
(lp1288
(idelphi
DelphiFieldEndAccess
p1289
(dp1290
g119
S'create'
p1291
sba(idelphi
DelphiFunctionEndAccess
p1292
(dp1293
g365
(lp1294
(idelphi
DelphiStringAccess
p1295
(dp1296
g115
(lp1297
sg40
(idelphi
DelphiStringValue
p1298
(dp1299
g40
S'Problem: Nil component in method PdHintManager.hintForComponentName.'
p1300
sbsbasbasbsbsba(i__main__
DelphiAssignStatement
p1301
(dp1302
g109
(i__main__
DelphiIdentAccess
p1303
(dp1304
g113
S'component'
p1305
sg115
(lp1306
(idelphi
DelphiFieldEndAccess
p1307
(dp1308
g119
S'owner'
p1309
sbasbsg110
(i__main__
DelphiIdentAccess
p1310
(dp1311
g113
S'owner'
p1312
sg115
(lp1313
sbsba(idelphi
DelphiIfStatement
p1314
(dp1315
g339
(idelphi
DelphiRelOp
p1316
(dp1317
g342
(i__main__
DelphiIdentAccess
p1318
(dp1319
g113
S'owner'
p1320
sg115
(lp1321
sbsg347
(idelphi
DelphiNilValue
p1322
(dp1323
bsg350
S'='
sbsg352
Nsg353
(idelphi
DelphiRaiseStatement
p1324
(dp1325
g339
(i__main__
DelphiIdentAccess
p1326
(dp1327
g113
S'Exception'
p1328
sg115
(lp1329
(idelphi
DelphiFieldEndAccess
p1330
(dp1331
g119
S'create'
p1332
sba(idelphi
DelphiFunctionEndAccess
p1333
(dp1334
g365
(lp1335
(idelphi
DelphiStringAccess
p1336
(dp1337
g115
(lp1338
sg40
(idelphi
DelphiStringValue
p1339
(dp1340
g40
S'Problem: Component has nil owner in method PdHintManager.hintForComponentName.'
p1341
sbsbasbasbsbsba(i__main__
DelphiAssignStatement
p1342
(dp1343
g109
(idelphi
DelphiNilValue
p1344
(dp1345
bsg110
(i__main__
DelphiIdentAccess
p1346
(dp1347
g113
S'parameterPanel'
p1348
sg115
(lp1349
sbsg401
(lp1350
S' if parameter panel (or slider on it), show hint for parameter pointed to by panel '
p1351
asba(idelphi
DelphiIfStatement
p1352
(dp1353
g339
(idelphi
DelphiMulOp
p1354
(dp1355
g711
(idelphi
DelphiNestedExpressionListAccess
p1356
(dp1357
g115
(lp1358
sg365
(lp1359
(idelphi
DelphiRelOp
p1360
(dp1361
g342
(i__main__
DelphiIdentAccess
p1362
(dp1363
g113
S'component'
p1364
sg115
(lp1365
sbsg347
(i__main__
DelphiIdentAccess
p1366
(dp1367
g113
S'PdParameterPanel'
p1368
sg115
(lp1369
sbsg350
S'is'
p1370
sbasbsg746
g747
sg748
(idelphi
DelphiNestedExpressionListAccess
p1371
(dp1372
g115
(lp1373
sg365
(lp1374
(idelphi
DelphiRelOp
p1375
(dp1376
g342
(i__main__
DelphiIdentAccess
p1377
(dp1378
g113
S'owner'
p1379
sg115
(lp1380
sbsg347
(i__main__
DelphiIdentAccess
p1381
(dp1382
g113
S'TMainForm'
p1383
sg115
(lp1384
sbsg350
g1370
sbasbsbsg352
(idelphi
DelphiIfStatement
p1385
(dp1386
g339
(idelphi
DelphiMulOp
p1387
(dp1388
g711
(idelphi
DelphiNestedExpressionListAccess
p1389
(dp1390
g115
(lp1391
sg365
(lp1392
(idelphi
DelphiRelOp
p1393
(dp1394
g342
(i__main__
DelphiIdentAccess
p1395
(dp1396
g113
S'component'
p1397
sg115
(lp1398
sbsg347
(i__main__
DelphiIdentAccess
p1399
(dp1400
g113
S'KfSlider'
p1401
sg115
(lp1402
sbsg350
g1370
sbasbsg746
g747
sg748
(idelphi
DelphiNestedExpressionListAccess
p1403
(dp1404
g115
(lp1405
sg365
(lp1406
(idelphi
DelphiRelOp
p1407
(dp1408
g342
(i__main__
DelphiIdentAccess
p1409
(dp1410
g113
S'owner'
p1411
sg115
(lp1412
sbsg347
(i__main__
DelphiIdentAccess
p1413
(dp1414
g113
S'PdParameterPanel'
p1415
sg115
(lp1416
sbsg350
g1370
sbasbsbsg352
Nsg353
(i__main__
DelphiAssignStatement
p1417
(dp1418
g109
(idelphi
DelphiMulOp
p1419
(dp1420
g711
(i__main__
DelphiIdentAccess
p1421
(dp1422
g113
S'PdParameterPanel'
p1423
sg115
(lp1424
sbsg746
S'as'
p1425
sg748
(i__main__
DelphiIdentAccess
p1426
(dp1427
g113
S'KfSlider'
p1428
sg115
(lp1429
(idelphi
DelphiFunctionEndAccess
p1430
(dp1431
g365
(lp1432
(i__main__
DelphiIdentAccess
p1433
(dp1434
g113
S'component'
p1435
sg115
(lp1436
sbasba(idelphi
DelphiFieldEndAccess
p1437
(dp1438
g119
S'parent'
p1439
sbasbsbsg110
(i__main__
DelphiIdentAccess
p1440
(dp1441
g113
S'parameterPanel'
p1442
sg115
(lp1443
sbsbsbsg353
(i__main__
DelphiAssignStatement
p1444
(dp1445
g109
(idelphi
DelphiMulOp
p1446
(dp1447
g711
(i__main__
DelphiIdentAccess
p1448
(dp1449
g113
S'PdParameterPanel'
p1450
sg115
(lp1451
sbsg746
g1425
sg748
(i__main__
DelphiIdentAccess
p1452
(dp1453
g113
S'component'
p1454
sg115
(lp1455
sbsbsg110
(i__main__
DelphiIdentAccess
p1456
(dp1457
g113
S'parameterPanel'
p1458
sg115
(lp1459
sbsbsba(idelphi
DelphiIfStatement
p1460
(dp1461
g339
(idelphi
DelphiRelOp
p1462
(dp1463
g342
(i__main__
DelphiIdentAccess
p1464
(dp1465
g113
S'parameterPanel'
p1466
sg115
(lp1467
sbsg347
(idelphi
DelphiNilValue
p1468
(dp1469
bsg350
g351
sbsg352
Nsg353
(idelphi
DelphiCompoundStatement
p1470
(dp1471
g105
(lp1472
(idelphi
DelphiIfStatement
p1473
(dp1474
g339
(idelphi
DelphiRelOp
p1475
(dp1476
g342
(i__main__
DelphiIdentAccess
p1477
(dp1478
g113
S'parameterPanel'
p1479
sg115
(lp1480
(idelphi
DelphiFieldEndAccess
p1481
(dp1482
g119
S'param'
p1483
sbasbsg347
(idelphi
DelphiNilValue
p1484
(dp1485
bsg350
g351
sbsg352
Nsg353
(idelphi
DelphiCompoundStatement
p1486
(dp1487
g105
(lp1488
(idelphi
DelphiIfStatement
p1489
(dp1490
g339
(idelphi
DelphiNot
p1491
(dp1492
S'factor'
p1493
(i__main__
DelphiIdentAccess
p1494
(dp1495
g113
S'showParameterHint'
p1496
sg115
(lp1497
sbsbsg352
Nsg353
(i__main__
DelphiExitStatement
p1498
(dp1499
g1232
g1180
sbsba(i__main__
DelphiAssignStatement
p1500
(dp1501
g109
(i__main__
DelphiIdentAccess
p1502
(dp1503
g113
S'parameterPanel'
p1504
sg115
(lp1505
(idelphi
DelphiFieldEndAccess
p1506
(dp1507
g119
S'param'
p1508
sba(idelphi
DelphiFieldEndAccess
p1509
(dp1510
g119
S'getHint'
p1511
sbasbsg110
(i__main__
DelphiIdentAccess
p1512
(dp1513
g113
S'result'
p1514
sg115
(lp1515
sbsba(i__main__
DelphiAssignStatement
p1516
(dp1517
g109
Nsg110
(i__main__
DelphiIdentAccess
p1518
(dp1519
g113
S'self'
p1520
sg115
(lp1521
(idelphi
DelphiFieldEndAccess
p1522
(dp1523
g119
S'cleanUpHint'
p1524
sba(idelphi
DelphiFunctionEndAccess
p1525
(dp1526
g365
(lp1527
(i__main__
DelphiIdentAccess
p1528
(dp1529
g113
S'hintInfo'
p1530
sg115
(lp1531
sba(i__main__
DelphiIdentAccess
p1532
(dp1533
g113
S'result'
p1534
sg115
(lp1535
sba(i__main__
DelphiIdentAccess
p1536
(dp1537
g113
S'true'
p1538
sg115
(lp1539
sbasbasbsbasbsba(i__main__
DelphiExitStatement
p1540
(dp1541
g1232
g1180
sbasbsba(idelphi
DelphiIfStatement
p1542
(dp1543
g339
(idelphi
DelphiMulOp
p1544
(dp1545
g711
(idelphi
DelphiNestedExpressionListAccess
p1546
(dp1547
g115
(lp1548
sg365
(lp1549
(idelphi
DelphiRelOp
p1550
(dp1551
g342
(i__main__
DelphiIdentAccess
p1552
(dp1553
g113
S'component'
p1554
sg115
(lp1555
sbsg347
(i__main__
DelphiIdentAccess
p1556
(dp1557
g113
S'TDrawGrid'
p1558
sg115
(lp1559
sbsg350
g1370
sbasbsg746
g747
sg748
(idelphi
DelphiNestedExpressionListAccess
p1560
(dp1561
g115
(lp1562
sg365
(lp1563
(idelphi
DelphiRelOp
p1564
(dp1565
g342
(i__main__
DelphiIdentAccess
p1566
(dp1567
g113
S'owner'
p1568
sg115
(lp1569
sbsg347
(i__main__
DelphiIdentAccess
p1570
(dp1571
g113
S'TWizardForm'
p1572
sg115
(lp1573
sbsg350
g1370
sbasbsbsg352
Nsg353
(idelphi
DelphiCompoundStatement
p1574
(dp1575
g105
(lp1576
(i__main__
DelphiAssignStatement
p1577
(dp1578
g109
(i__main__
DelphiIdentAccess
p1579
(dp1580
g113
S'TWizardForm'
p1581
sg115
(lp1582
(idelphi
DelphiFunctionEndAccess
p1583
(dp1584
g365
(lp1585
(i__main__
DelphiIdentAccess
p1586
(dp1587
g113
S'owner'
p1588
sg115
(lp1589
sbasba(idelphi
DelphiFieldEndAccess
p1590
(dp1591
g119
S'hintForTdosDrawGridAtPoint'
p1592
sba(idelphi
DelphiFunctionEndAccess
p1593
(dp1594
g365
(lp1595
(i__main__
DelphiIdentAccess
p1596
(dp1597
g113
S'component'
p1598
sg115
(lp1599
sba(i__main__
DelphiIdentAccess
p1600
(dp1601
g113
S'hintInfo'
p1602
sg115
(lp1603
(idelphi
DelphiFieldEndAccess
p1604
(dp1605
g119
S'cursorPos'
p1606
sbasba(i__main__
DelphiIdentAccess
p1607
(dp1608
g113
S'hintInfo'
p1609
sg115
(lp1610
(idelphi
DelphiFieldEndAccess
p1611
(dp1612
g119
S'cursorRect'
p1613
sbasbasbasbsg110
(i__main__
DelphiIdentAccess
p1614
(dp1615
g113
S'result'
p1616
sg115
(lp1617
sbsg401
(lp1618
S' show hints for tdos in wizard '
p1619
asba(i__main__
DelphiAssignStatement
p1620
(dp1621
g109
Nsg110
(i__main__
DelphiIdentAccess
p1622
(dp1623
g113
S'self'
p1624
sg115
(lp1625
(idelphi
DelphiFieldEndAccess
p1626
(dp1627
g119
S'cleanUpHint'
p1628
sba(idelphi
DelphiFunctionEndAccess
p1629
(dp1630
g365
(lp1631
(i__main__
DelphiIdentAccess
p1632
(dp1633
g113
S'hintInfo'
p1634
sg115
(lp1635
sba(i__main__
DelphiIdentAccess
p1636
(dp1637
g113
S'result'
p1638
sg115
(lp1639
sba(i__main__
DelphiIdentAccess
p1640
(dp1641
g113
S'false'
p1642
sg115
(lp1643
sbasbasbsba(i__main__
DelphiExitStatement
p1644
(dp1645
g1232
g1180
sbasbsba(idelphi
DelphiIfStatement
p1646
(dp1647
g339
(idelphi
DelphiMulOp
p1648
(dp1649
g711
(idelphi
DelphiNestedExpressionListAccess
p1650
(dp1651
g115
(lp1652
sg365
(lp1653
(idelphi
DelphiRelOp
p1654
(dp1655
g342
(i__main__
DelphiIdentAccess
p1656
(dp1657
g113
S'component'
p1658
sg115
(lp1659
sbsg347
(i__main__
DelphiIdentAccess
p1660
(dp1661
g113
S'TDrawGrid'
p1662
sg115
(lp1663
sbsg350
g1370
sbasbsg746
g747
sg748
(idelphi
DelphiNestedExpressionListAccess
p1664
(dp1665
g115
(lp1666
sg365
(lp1667
(idelphi
DelphiRelOp
p1668
(dp1669
g342
(i__main__
DelphiIdentAccess
p1670
(dp1671
g113
S'owner'
p1672
sg115
(lp1673
sbsg347
(i__main__
DelphiIdentAccess
p1674
(dp1675
g113
S'TPickTdoForm'
p1676
sg115
(lp1677
sbsg350
g1370
sbasbsbsg352
Nsg353
(idelphi
DelphiCompoundStatement
p1678
(dp1679
g105
(lp1680
(i__main__
DelphiAssignStatement
p1681
(dp1682
g109
(i__main__
DelphiIdentAccess
p1683
(dp1684
g113
S'TPickTdoForm'
p1685
sg115
(lp1686
(idelphi
DelphiFunctionEndAccess
p1687
(dp1688
g365
(lp1689
(i__main__
DelphiIdentAccess
p1690
(dp1691
g113
S'owner'
p1692
sg115
(lp1693
sbasba(idelphi
DelphiFieldEndAccess
p1694
(dp1695
g119
S'hintForTdosDrawGridAtPoint'
p1696
sba(idelphi
DelphiFunctionEndAccess
p1697
(dp1698
g365
(lp1699
(i__main__
DelphiIdentAccess
p1700
(dp1701
g113
S'component'
p1702
sg115
(lp1703
sba(i__main__
DelphiIdentAccess
p1704
(dp1705
g113
S'hintInfo'
p1706
sg115
(lp1707
(idelphi
DelphiFieldEndAccess
p1708
(dp1709
g119
S'cursorPos'
p1710
sbasba(i__main__
DelphiIdentAccess
p1711
(dp1712
g113
S'hintInfo'
p1713
sg115
(lp1714
(idelphi
DelphiFieldEndAccess
p1715
(dp1716
g119
S'cursorRect'
p1717
sbasbasbasbsg110
(i__main__
DelphiIdentAccess
p1718
(dp1719
g113
S'result'
p1720
sg115
(lp1721
sbsg401
(lp1722
S' show hints for tdos in tdo chooser '
p1723
asba(i__main__
DelphiAssignStatement
p1724
(dp1725
g109
Nsg110
(i__main__
DelphiIdentAccess
p1726
(dp1727
g113
S'self'
p1728
sg115
(lp1729
(idelphi
DelphiFieldEndAccess
p1730
(dp1731
g119
S'cleanUpHint'
p1732
sba(idelphi
DelphiFunctionEndAccess
p1733
(dp1734
g365
(lp1735
(i__main__
DelphiIdentAccess
p1736
(dp1737
g113
S'hintInfo'
p1738
sg115
(lp1739
sba(i__main__
DelphiIdentAccess
p1740
(dp1741
g113
S'result'
p1742
sg115
(lp1743
sba(i__main__
DelphiIdentAccess
p1744
(dp1745
g113
S'false'
p1746
sg115
(lp1747
sbasbasbsba(i__main__
DelphiExitStatement
p1748
(dp1749
g1232
g1180
sbasbsba(i__main__
DelphiAssignStatement
p1750
(dp1751
g109
(i__main__
DelphiIdentAccess
p1752
(dp1753
g113
S'self'
p1754
sg115
(lp1755
(idelphi
DelphiFieldEndAccess
p1756
(dp1757
g119
S'quickSimpleHint'
p1758
sba(idelphi
DelphiFunctionEndAccess
p1759
(dp1760
g365
(lp1761
(i__main__
DelphiIdentAccess
p1762
(dp1763
g113
S'component'
p1764
sg115
(lp1765
sba(i__main__
DelphiIdentAccess
p1766
(dp1767
g113
S'wantLongHint'
p1768
sg115
(lp1769
sbasbasbsg110
(i__main__
DelphiIdentAccess
p1770
(dp1771
g113
S'result'
p1772
sg115
(lp1773
sbsg401
(lp1774
S' otherwise look up non-parameter hint from hint list '
p1775
asba(idelphi
DelphiIfStatement
p1776
(dp1777
g339
(idelphi
DelphiRelOp
p1778
(dp1779
g342
(i__main__
DelphiIdentAccess
p1780
(dp1781
g113
S'copy'
p1782
sg115
(lp1783
(idelphi
DelphiFunctionEndAccess
p1784
(dp1785
g365
(lp1786
(i__main__
DelphiIdentAccess
p1787
(dp1788
g113
S'result'
p1789
sg115
(lp1790
sba(idelphi
DelphiIntegerValue
p1791
(dp1792
g40
S'1'
sba(idelphi
DelphiIntegerValue
p1793
(dp1794
g40
S'1'
sbasbasbsg347
(idelphi
DelphiStringAccess
p1795
(dp1796
g115
(lp1797
sg40
(idelphi
DelphiStringValue
p1798
(dp1799
g40
S'?'
sbsbsg350
S'='
sbsg352
Nsg353
(idelphi
DelphiCompoundStatement
p1800
(dp1801
g105
(lp1802
(i__main__
DelphiAssignStatement
p1803
(dp1804
g109
(i__main__
DelphiIdentAccess
p1805
(dp1806
g113
S'copy'
p1807
sg115
(lp1808
(idelphi
DelphiFunctionEndAccess
p1809
(dp1810
g365
(lp1811
(i__main__
DelphiIdentAccess
p1812
(dp1813
g113
S'result'
p1814
sg115
(lp1815
sba(idelphi
DelphiIntegerValue
p1816
(dp1817
g40
S'2'
sba(idelphi
DelphiAddOp
p1818
(dp1819
g645
S'-'
sg646
(idelphi
DelphiIntegerValue
p1820
(dp1821
g40
S'1'
sbsg649
(i__main__
DelphiIdentAccess
p1822
(dp1823
g113
S'length'
p1824
sg115
(lp1825
(idelphi
DelphiFunctionEndAccess
p1826
(dp1827
g365
(lp1828
(i__main__
DelphiIdentAccess
p1829
(dp1830
g113
S'result'
p1831
sg115
(lp1832
sbasbasbsbasbasbsg110
(i__main__
DelphiIdentAccess
p1833
(dp1834
g113
S'result'
p1835
sg115
(lp1836
sbsba(i__main__
DelphiAssignStatement
p1837
(dp1838
g109
(i__main__
DelphiIdentAccess
p1839
(dp1840
g113
S'self'
p1841
sg115
(lp1842
(idelphi
DelphiFieldEndAccess
p1843
(dp1844
g119
S'referredHint'
p1845
sba(idelphi
DelphiFunctionEndAccess
p1846
(dp1847
g365
(lp1848
(i__main__
DelphiIdentAccess
p1849
(dp1850
g113
S'owner'
p1851
sg115
(lp1852
(idelphi
DelphiFieldEndAccess
p1853
(dp1854
g119
S'className'
p1855
sbasba(i__main__
DelphiIdentAccess
p1856
(dp1857
g113
S'result'
p1858
sg115
(lp1859
sba(i__main__
DelphiIdentAccess
p1860
(dp1861
g113
S'wantLongHint'
p1862
sg115
(lp1863
sbasbasbsg110
(i__main__
DelphiIdentAccess
p1864
(dp1865
g113
S'result'
p1866
sg115
(lp1867
sbsbasbsba(i__main__
DelphiAssignStatement
p1868
(dp1869
g109
Nsg110
(i__main__
DelphiIdentAccess
p1870
(dp1871
g113
S'self'
p1872
sg115
(lp1873
(idelphi
DelphiFieldEndAccess
p1874
(dp1875
g119
S'cleanUpHint'
p1876
sba(idelphi
DelphiFunctionEndAccess
p1877
(dp1878
g365
(lp1879
(i__main__
DelphiIdentAccess
p1880
(dp1881
g113
S'hintInfo'
p1882
sg115
(lp1883
sba(i__main__
DelphiIdentAccess
p1884
(dp1885
g113
S'result'
p1886
sg115
(lp1887
sba(i__main__
DelphiIdentAccess
p1888
(dp1889
g113
S'false'
p1890
sg115
(lp1891
sbasbasbsbasbsg161
(lp1892
(i__main__
DelphiVarSection
p1893
(dp1894
g845
I0
sg846
(lp1895
(idelphi
DelphiVarDecl
p1896
(dp1897
g850
Nsg851
(lp1898
S'component'
p1899
aS'owner'
p1900
asg36
(i__main__
DelphiNamedType
p1901
(dp1902
g39
S'TComponent'
p1903
sg52
g1
sg53
Nsbsba(idelphi
DelphiVarDecl
p1904
(dp1905
g850
Nsg851
(lp1906
S'parameterPanel'
p1907
asg36
(i__main__
DelphiNamedType
p1908
(dp1909
g39
S'PdParameterPanel'
p1910
sg52
g1
sg53
Nsbsbasbasbsbssg163
(dp1911
sg165
(lp1912
g171
asba(i__main__
DelphiProceduralImplementation
p1913
(dp1914
g76
(i__main__
DelphiProceduralDeclaration
p1915
(dp1916
g25
(lp1917
(i__main__
DelphiFormalParameter
p1918
(dp1919
g29
Nsg30
(lp1920
S'aForm'
p1921
asg36
(i__main__
DelphiNamedType
p1922
(dp1923
g39
S'TForm'
p1924
sg52
g1
sg53
Nsbsg41
Nsbasg17
S'makeAllFormComponentsHaveHints'
p1925
sg43
Nsbsg17
g1925
sg43
Nsg87
(lp1926
sg89
(lp1927
sg91
(lp1928
S'aForm'
p1929
asg94
(dp1930
g1929
(i__main__
DelphiNamedType
p1931
(dp1932
g39
S'TForm'
p1933
sg52
g1
sg53
Nsbssg25
(lp1934
(i__main__
DelphiFormalParameter
p1935
(dp1936
g29
Nsg30
(lp1937
g1929
asg36
g1931
sg41
Nsbasg97
(lp1938
sg99
(i__main__
DelphiBlock
p1939
(dp1940
g102
(idelphi
DelphiCompoundStatement
p1941
(dp1942
g105
(lp1943
(idelphi
DelphiIfStatement
p1944
(dp1945
g339
(idelphi
DelphiRelOp
p1946
(dp1947
g342
(i__main__
DelphiIdentAccess
p1948
(dp1949
g113
S'aForm'
p1950
sg115
(lp1951
(idelphi
DelphiFieldEndAccess
p1952
(dp1953
g119
S'componentCount'
p1954
sbasbsg347
(idelphi
DelphiIntegerValue
p1955
(dp1956
g40
S'0'
sbsg350
S'>'
sbsg352
Nsg353
(idelphi
DelphiForStatement
p1957
(dp1958
g641
S'i'
sg642
(idelphi
DelphiAddOp
p1959
(dp1960
g645
S'-'
sg646
(idelphi
DelphiIntegerValue
p1961
(dp1962
g40
S'1'
sbsg649
(i__main__
DelphiIdentAccess
p1963
(dp1964
g113
S'aForm'
p1965
sg115
(lp1966
(idelphi
DelphiFieldEndAccess
p1967
(dp1968
g119
S'componentCount'
p1969
sbasbsbsg657
g658
sg29
(idelphi
DelphiIntegerValue
p1970
(dp1971
g40
S'0'
sbsg661
(idelphi
DelphiCompoundStatement
p1972
(dp1973
g105
(lp1974
(i__main__
DelphiAssignStatement
p1975
(dp1976
g109
(i__main__
DelphiIdentAccess
p1977
(dp1978
g113
S'aForm'
p1979
sg115
(lp1980
(idelphi
DelphiFieldEndAccess
p1981
(dp1982
g119
S'components'
p1983
sba(idelphi
DelphiArrayEndAccess
p1984
(dp1985
g365
(lp1986
(i__main__
DelphiIdentAccess
p1987
(dp1988
g113
S'i'
sg115
(lp1989
sbasbasbsg110
(i__main__
DelphiIdentAccess
p1990
(dp1991
g113
S'component'
p1992
sg115
(lp1993
sbsba(idelphi
DelphiIfStatement
p1994
(dp1995
g339
(idelphi
DelphiAddOp
p1996
(dp1997
g645
S'or'
p1998
sg646
(idelphi
DelphiNestedExpressionListAccess
p1999
(dp2000
g115
(lp2001
sg365
(lp2002
(idelphi
DelphiRelOp
p2003
(dp2004
g342
(i__main__
DelphiIdentAccess
p2005
(dp2006
g113
S'component'
p2007
sg115
(lp2008
sbsg347
(i__main__
DelphiIdentAccess
p2009
(dp2010
g113
S'PdTdoPaintBox'
p2011
sg115
(lp2012
sbsg350
g1370
sbasbsg649
(idelphi
DelphiAddOp
p2013
(dp2014
g645
g1998
sg646
(idelphi
DelphiNestedExpressionListAccess
p2015
(dp2016
g115
(lp2017
sg365
(lp2018
(idelphi
DelphiRelOp
p2019
(dp2020
g342
(i__main__
DelphiIdentAccess
p2021
(dp2022
g113
S'component'
p2023
sg115
(lp2024
sbsg347
(i__main__
DelphiIdentAccess
p2025
(dp2026
g113
S'TDrawGrid'
p2027
sg115
(lp2028
sbsg350
g1370
sbasbsg649
(idelphi
DelphiAddOp
p2029
(dp2030
g645
g1998
sg646
(idelphi
DelphiNestedExpressionListAccess
p2031
(dp2032
g115
(lp2033
sg365
(lp2034
(idelphi
DelphiRelOp
p2035
(dp2036
g342
(i__main__
DelphiIdentAccess
p2037
(dp2038
g113
S'component'
p2039
sg115
(lp2040
sbsg347
(i__main__
DelphiIdentAccess
p2041
(dp2042
g113
S'KfWinSlider'
p2043
sg115
(lp2044
sbsg350
g1370
sbasbsg649
(idelphi
DelphiAddOp
p2045
(dp2046
g645
g1998
sg646
(idelphi
DelphiNestedExpressionListAccess
p2047
(dp2048
g115
(lp2049
sg365
(lp2050
(idelphi
DelphiRelOp
p2051
(dp2052
g342
(i__main__
DelphiIdentAccess
p2053
(dp2054
g113
S'component'
p2055
sg115
(lp2056
sbsg347
(i__main__
DelphiIdentAccess
p2057
(dp2058
g113
S'TTabSet'
p2059
sg115
(lp2060
sbsg350
g1370
sbasbsg649
(idelphi
DelphiAddOp
p2061
(dp2062
g645
g1998
sg646
(idelphi
DelphiNestedExpressionListAccess
p2063
(dp2064
g115
(lp2065
sg365
(lp2066
(idelphi
DelphiRelOp
p2067
(dp2068
g342
(i__main__
DelphiIdentAccess
p2069
(dp2070
g113
S'component'
p2071
sg115
(lp2072
sbsg347
(i__main__
DelphiIdentAccess
p2073
(dp2074
g113
S'TSpinEdit'
p2075
sg115
(lp2076
sbsg350
g1370
sbasbsg649
(idelphi
DelphiAddOp
p2077
(dp2078
g645
g1998
sg646
(idelphi
DelphiNestedExpressionListAccess
p2079
(dp2080
g115
(lp2081
sg365
(lp2082
(idelphi
DelphiRelOp
p2083
(dp2084
g342
(i__main__
DelphiIdentAccess
p2085
(dp2086
g113
S'component'
p2087
sg115
(lp2088
sbsg347
(i__main__
DelphiIdentAccess
p2089
(dp2090
g113
S'TPaintBox'
p2091
sg115
(lp2092
sbsg350
g1370
sbasbsg649
(idelphi
DelphiAddOp
p2093
(dp2094
g645
g1998
sg646
(idelphi
DelphiNestedExpressionListAccess
p2095
(dp2096
g115
(lp2097
sg365
(lp2098
(idelphi
DelphiRelOp
p2099
(dp2100
g342
(i__main__
DelphiIdentAccess
p2101
(dp2102
g113
S'component'
p2103
sg115
(lp2104
sbsg347
(i__main__
DelphiIdentAccess
p2105
(dp2106
g113
S'TShape'
p2107
sg115
(lp2108
sbsg350
g1370
sbasbsg649
(idelphi
DelphiAddOp
p2109
(dp2110
g645
g1998
sg646
(idelphi
DelphiNestedExpressionListAccess
p2111
(dp2112
g115
(lp2113
sg365
(lp2114
(idelphi
DelphiRelOp
p2115
(dp2116
g342
(i__main__
DelphiIdentAccess
p2117
(dp2118
g113
S'component'
p2119
sg115
(lp2120
sbsg347
(i__main__
DelphiIdentAccess
p2121
(dp2122
g113
S'TImage'
p2123
sg115
(lp2124
sbsg350
g1370
sbasbsg649
(idelphi
DelphiAddOp
p2125
(dp2126
g645
g1998
sg646
(idelphi
DelphiNestedExpressionListAccess
p2127
(dp2128
g115
(lp2129
sg365
(lp2130
(idelphi
DelphiRelOp
p2131
(dp2132
g342
(i__main__
DelphiIdentAccess
p2133
(dp2134
g113
S'component'
p2135
sg115
(lp2136
sbsg347
(i__main__
DelphiIdentAccess
p2137
(dp2138
g113
S'TScrollBox'
p2139
sg115
(lp2140
sbsg350
g1370
sbasbsg649
(idelphi
DelphiAddOp
p2141
(dp2142
g645
g1998
sg646
(idelphi
DelphiNestedExpressionListAccess
p2143
(dp2144
g115
(lp2145
sg365
(lp2146
(idelphi
DelphiRelOp
p2147
(dp2148
g342
(i__main__
DelphiIdentAccess
p2149
(dp2150
g113
S'component'
p2151
sg115
(lp2152
sbsg347
(i__main__
DelphiIdentAccess
p2153
(dp2154
g113
S'TGroupBox'
p2155
sg115
(lp2156
sbsg350
g1370
sbasbsg649
(idelphi
DelphiAddOp
p2157
(dp2158
g645
g1998
sg646
(idelphi
DelphiNestedExpressionListAccess
p2159
(dp2160
g115
(lp2161
sg365
(lp2162
(idelphi
DelphiRelOp
p2163
(dp2164
g342
(i__main__
DelphiIdentAccess
p2165
(dp2166
g113
S'component'
p2167
sg115
(lp2168
sbsg347
(i__main__
DelphiIdentAccess
p2169
(dp2170
g113
S'THeader'
p2171
sg115
(lp2172
sbsg350
g1370
sbasbsg649
(idelphi
DelphiAddOp
p2173
(dp2174
g645
g1998
sg646
(idelphi
DelphiNestedExpressionListAccess
p2175
(dp2176
g115
(lp2177
sg365
(lp2178
(idelphi
DelphiRelOp
p2179
(dp2180
g342
(i__main__
DelphiIdentAccess
p2181
(dp2182
g113
S'component'
p2183
sg115
(lp2184
sbsg347
(i__main__
DelphiIdentAccess
p2185
(dp2186
g113
S'TPanel'
p2187
sg115
(lp2188
sbsg350
g1370
sbasbsg649
(idelphi
DelphiAddOp
p2189
(dp2190
g645
g1998
sg646
(idelphi
DelphiNestedExpressionListAccess
p2191
(dp2192
g115
(lp2193
sg365
(lp2194
(idelphi
DelphiRelOp
p2195
(dp2196
g342
(i__main__
DelphiIdentAccess
p2197
(dp2198
g113
S'component'
p2199
sg115
(lp2200
sbsg347
(i__main__
DelphiIdentAccess
p2201
(dp2202
g113
S'TMemo'
p2203
sg115
(lp2204
sbsg350
g1370
sbasbsg649
(idelphi
DelphiAddOp
p2205
(dp2206
g645
g1998
sg646
(idelphi
DelphiNestedExpressionListAccess
p2207
(dp2208
g115
(lp2209
sg365
(lp2210
(idelphi
DelphiRelOp
p2211
(dp2212
g342
(i__main__
DelphiIdentAccess
p2213
(dp2214
g113
S'component'
p2215
sg115
(lp2216
sbsg347
(i__main__
DelphiIdentAccess
p2217
(dp2218
g113
S'TEdit'
p2219
sg115
(lp2220
sbsg350
g1370
sbasbsg649
(idelphi
DelphiAddOp
p2221
(dp2222
g645
g1998
sg646
(idelphi
DelphiNestedExpressionListAccess
p2223
(dp2224
g115
(lp2225
sg365
(lp2226
(idelphi
DelphiRelOp
p2227
(dp2228
g342
(i__main__
DelphiIdentAccess
p2229
(dp2230
g113
S'component'
p2231
sg115
(lp2232
sbsg347
(i__main__
DelphiIdentAccess
p2233
(dp2234
g113
S'TComboBox'
p2235
sg115
(lp2236
sbsg350
g1370
sbasbsg649
(idelphi
DelphiAddOp
p2237
(dp2238
g645
g1998
sg646
(idelphi
DelphiNestedExpressionListAccess
p2239
(dp2240
g115
(lp2241
sg365
(lp2242
(idelphi
DelphiRelOp
p2243
(dp2244
g342
(i__main__
DelphiIdentAccess
p2245
(dp2246
g113
S'component'
p2247
sg115
(lp2248
sbsg347
(i__main__
DelphiIdentAccess
p2249
(dp2250
g113
S'TListBox'
p2251
sg115
(lp2252
sbsg350
g1370
sbasbsg649
(idelphi
DelphiAddOp
p2253
(dp2254
g645
g1998
sg646
(idelphi
DelphiNestedExpressionListAccess
p2255
(dp2256
g115
(lp2257
sg365
(lp2258
(idelphi
DelphiRelOp
p2259
(dp2260
g342
(i__main__
DelphiIdentAccess
p2261
(dp2262
g113
S'component'
p2263
sg115
(lp2264
sbsg347
(i__main__
DelphiIdentAccess
p2265
(dp2266
g113
S'TRadioGroup'
p2267
sg115
(lp2268
sbsg350
g1370
sbasbsg649
(idelphi
DelphiAddOp
p2269
(dp2270
g645
g1998
sg646
(idelphi
DelphiNestedExpressionListAccess
p2271
(dp2272
g115
(lp2273
sg365
(lp2274
(idelphi
DelphiRelOp
p2275
(dp2276
g342
(i__main__
DelphiIdentAccess
p2277
(dp2278
g113
S'component'
p2279
sg115
(lp2280
sbsg347
(i__main__
DelphiIdentAccess
p2281
(dp2282
g113
S'TRadioButton'
p2283
sg115
(lp2284
sbsg350
g1370
sbasbsg649
(idelphi
DelphiAddOp
p2285
(dp2286
g645
g1998
sg646
(idelphi
DelphiNestedExpressionListAccess
p2287
(dp2288
g115
(lp2289
sg365
(lp2290
(idelphi
DelphiRelOp
p2291
(dp2292
g342
(i__main__
DelphiIdentAccess
p2293
(dp2294
g113
S'component'
p2295
sg115
(lp2296
sbsg347
(i__main__
DelphiIdentAccess
p2297
(dp2298
g113
S'TCheckBox'
p2299
sg115
(lp2300
sbsg350
g1370
sbasbsg649
(idelphi
DelphiAddOp
p2301
(dp2302
g645
g1998
sg646
(idelphi
DelphiNestedExpressionListAccess
p2303
(dp2304
g115
(lp2305
sg365
(lp2306
(idelphi
DelphiRelOp
p2307
(dp2308
g342
(i__main__
DelphiIdentAccess
p2309
(dp2310
g113
S'component'
p2311
sg115
(lp2312
sbsg347
(i__main__
DelphiIdentAccess
p2313
(dp2314
g113
S'TSpeedButton'
p2315
sg115
(lp2316
sbsg350
g1370
sbasbsg649
(idelphi
DelphiAddOp
p2317
(dp2318
g645
g1998
sg646
(idelphi
DelphiNestedExpressionListAccess
p2319
(dp2320
g115
(lp2321
sg365
(lp2322
(idelphi
DelphiRelOp
p2323
(dp2324
g342
(i__main__
DelphiIdentAccess
p2325
(dp2326
g113
S'component'
p2327
sg115
(lp2328
sbsg347
(i__main__
DelphiIdentAccess
p2329
(dp2330
g113
S'TBitBtn'
p2331
sg115
(lp2332
sbsg350
g1370
sbasbsg649
(idelphi
DelphiNestedExpressionListAccess
p2333
(dp2334
g115
(lp2335
sg365
(lp2336
(idelphi
DelphiRelOp
p2337
(dp2338
g342
(i__main__
DelphiIdentAccess
p2339
(dp2340
g113
S'component'
p2341
sg115
(lp2342
sbsg347
(i__main__
DelphiIdentAccess
p2343
(dp2344
g113
S'TButton'
p2345
sg115
(lp2346
sbsg350
g1370
sbasbsbsbsbsbsbsbsbsbsbsbsbsbsbsbsbsbsbsbsbsbsbsg352
Nsg353
(i__main__
DelphiAssignStatement
p2347
(dp2348
g109
(i__main__
DelphiIdentAccess
p2349
(dp2350
g113
S'true'
p2351
sg115
(lp2352
sbsg110
(i__main__
DelphiIdentAccess
p2353
(dp2354
g113
S'TControl'
p2355
sg115
(lp2356
(idelphi
DelphiFunctionEndAccess
p2357
(dp2358
g365
(lp2359
(i__main__
DelphiIdentAccess
p2360
(dp2361
g113
S'component'
p2362
sg115
(lp2363
sbasba(idelphi
DelphiFieldEndAccess
p2364
(dp2365
g119
S'showHint'
p2366
sbasbsbsbasbsbsbasbsg161
(lp2367
(i__main__
DelphiVarSection
p2368
(dp2369
g845
I0
sg846
(lp2370
(idelphi
DelphiVarDecl
p2371
(dp2372
g850
Nsg851
(lp2373
S'i'
asg36
(i__main__
DelphiPrimitiveType
p2374
(dp2375
g39
g855
sbsba(idelphi
DelphiVarDecl
p2376
(dp2377
g850
Nsg851
(lp2378
S'component'
p2379
asg36
(i__main__
DelphiNamedType
p2380
(dp2381
g39
S'TComponent'
p2382
sg52
g1
sg53
Nsbsbasbasbsg401
(lp2383
S' from utab2asp.pas - these are the component types that have hints\r'
p2384
aS'type\r'
p2385
aS'componentConstants = (TButton, TBitBtn, TSpeedButton,\r'
p2386
aS'  TCheckBox, TRadioButton, TRadioGroup,\r'
p2387
aS'  TListBox, TComboBox,\r'
p2388
aS'  TEdit, TMemo,\r'
p2389
aS'  TPanel, THeader, TGroupBox, TScrollBox,\r'
p2390
aS'  TImage, TShape, TPaintBox,\r'
p2391
aS'  TSpinEdit,\r'
p2392
aS'  TTabSet,\r'
p2393
aS'  KfWinSlider,\r'
p2394
aS'  TDrawGrid,\r'
p2395
aS'  PdTdoPaintBox);\r'
p2396
aS'  '
p2397
asbasS'includedUnits'
p2398
NsS'implementationUses'
p2399
(lp2400
S'SysUtils'
p2401
aS'Controls'
p2402
aS'StdCtrls'
p2403
aS'ExtCtrls'
p2404
aS'Buttons'
p2405
aS'Menus'
p2406
aS'Graphics'
p2407
aS'Tabs'
p2408
aS'Grids'
p2409
aS'usupport'
p2410
aS'uppanel'
p2411
aS'umain'
p2412
aS'usliders'
p2413
aS'uwizard'
p2414
aS'upicktdo'
p2415
aS'utdoedit'
p2416
aS'Spin'
p2417
aS'UWinSliders'
p2418
aS'umakeht'
p2419
asg17
S'Uhints'
p2420
sS'constSections'
p2421
(lp2422
sS'globalsInProperCase'
p2423
NsS'interfaceUses'
p2424
(lp2425
S'delphi_compatability'
p2426
aS'Forms'
p2427
aS'Classes'
p2428
aS'WinTypes'
p2429
aS'ucollect'
p2430
asS'finalCommentToken'
p2431
(i__main__
PassStatement
p2432
(dp2433
g161
(lp2434
sbsS'varSections'
p2435
(lp2436
sS'globals'
p2437
NsS'originalFileName'
p2438
S'../../PlantStudioInPython/converted_source/uhints.pas'
p2439
sS'proceduralImplementations'
p2440
(dp2441
S'makeallformcomponentshavehints'
p2442
g1913
ssS'fileName'
p2443
S'/Users/pdf/Documents/workspace/PlantStudioInPython/converted_source/uhints.pas'
p2444
sS'proceduralDeclarations'
p2445
(dp2446
S'makeallformcomponentshavehints'
p2447
g1915
ssS'types'
p2448
(dp2449
S'pdhint'
p2450
g5
sS'pdhintmanager'
p2451
g167
ssb.