(i__main__
DelphiUnit
p1
(dp2
S'sectionsInOrderDefined'
p3
(lp4
(i__main__
DelphiClass
p5
(dp6
S'variableNamesInProperCase'
p7
(dp8
S'cancel'
p9
S'cancel'
p10
sS'wraplines'
p11
S'wrapLines'
p12
sS'noteeditmemo'
p13
S'noteEditMemo'
p14
sS'helpbutton'
p15
S'helpButton'
p16
sS'ok'
p17
S'OK'
p18
ssS'name'
p19
S'TNoteEditForm'
p20
sS'methodDeclarations'
p21
(dp22
S'helpbuttonclick'
p23
(i__main__
DelphiMethodDeclaration
p24
(dp25
g19
S'helpButtonClick'
p26
sS'formalParameters'
p27
(lp28
(i__main__
DelphiFormalParameter
p29
(dp30
S'initialValue'
p31
NsS'names'
p32
(lp33
S'Sender'
p34
asS'theType'
p35
(i__main__
DelphiNamedType
p36
(dp37
S'typeName'
p38
S'TObject'
p39
sS'unitDefinedIn'
p40
g1
sS'unitName'
p41
NsbsS'parameterVariety'
p42
NsbasS'className'
p43
g20
sS'resultType'
p44
NsS'isClassMethod'
p45
I0
sS'methodType'
p46
S'procedure'
p47
sbsS'formcreate'
p48
(i__main__
DelphiMethodDeclaration
p49
(dp50
g19
S'FormCreate'
p51
sg27
(lp52
(i__main__
DelphiFormalParameter
p53
(dp54
g31
Nsg32
(lp55
S'Sender'
p56
asg35
(i__main__
DelphiNamedType
p57
(dp58
g38
S'TObject'
p59
sg40
g1
sg41
Nsbsg42
Nsbasg43
g20
sg44
Nsg45
I0
sg46
g47
sbsS'formresize'
p60
(i__main__
DelphiMethodDeclaration
p61
(dp62
g19
S'FormResize'
p63
sg27
(lp64
(i__main__
DelphiFormalParameter
p65
(dp66
g31
Nsg32
(lp67
S'Sender'
p68
asg35
(i__main__
DelphiNamedType
p69
(dp70
g38
S'TObject'
p71
sg40
g1
sg41
Nsbsg42
Nsbasg43
g20
sg44
Nsg45
I0
sg46
g47
sbsS'wraplinesclick'
p72
(i__main__
DelphiMethodDeclaration
p73
(dp74
g19
S'wrapLinesClick'
p75
sg27
(lp76
(i__main__
DelphiFormalParameter
p77
(dp78
g31
Nsg32
(lp79
S'Sender'
p80
asg35
(i__main__
DelphiNamedType
p81
(dp82
g38
S'TObject'
p83
sg40
g1
sg41
Nsbsg42
Nsbasg43
g20
sg44
Nsg45
I0
sg46
g47
sbssS'superclassNamedTypes'
p84
(lp85
(i__main__
DelphiNamedType
p86
(dp87
g38
S'PdForm'
p88
sg40
g1
sg41
NsbasS'variableNames'
p89
(dp90
S'cancel'
p91
(i__main__
DelphiNamedType
p92
(dp93
g38
S'TButton'
p94
sg40
g1
sg41
NsbsS'wraplines'
p95
(i__main__
DelphiNamedType
p96
(dp97
g38
S'TCheckBox'
p98
sg40
g1
sg41
NsbsS'noteeditmemo'
p99
(i__main__
DelphiNamedType
p100
(dp101
g38
S'TMemo'
p102
sg40
g1
sg41
NsbsS'helpbutton'
p103
(i__main__
DelphiNamedType
p104
(dp105
g38
S'TSpeedButton'
p106
sg40
g1
sg41
NsbsS'ok'
p107
(i__main__
DelphiNamedType
p108
(dp109
g38
S'TButton'
p110
sg40
g1
sg41
NsbssS'methodNamesInDefinedOrder'
p111
(lp112
S'formcreate'
p113
aS'formresize'
p114
aS'wraplinesclick'
p115
aS'helpbuttonclick'
p116
asS'methodImplementations'
p117
(dp118
S'helpbuttonclick'
p119
(i__main__
DelphiMethodImplementation
p120
(dp121
S'originalDeclaration'
p122
g24
sg19
g26
sg27
(lp123
(i__main__
DelphiFormalParameter
p124
(dp125
g31
Nsg32
(lp126
S'Sender'
p127
asg35
(i__main__
DelphiNamedType
p128
(dp129
g38
S'TObject'
p130
sg40
g1
sg41
Nsbsg42
NsbasS'varParamIndexes'
p131
(lp132
sS'varParamsSkipped'
p133
(lp134
sS'argNames'
p135
(lp136
S'self'
p137
ag127
asS'argTypes'
p138
(dp139
g127
g128
ssg43
S'TNoteEditForm'
p140
sg44
NsS'varParamNames'
p141
(lp142
sg45
I0
sg46
g47
sS'block'
p143
(i__main__
DelphiBlock
p144
(dp145
S'compoundStatement'
p146
(idelphi
DelphiCompoundStatement
p147
(dp148
S'statements'
p149
(lp150
(i__main__
DelphiAssignStatement
p151
(dp152
S'newValueExpression'
p153
NsS'destinationExpression'
p154
(i__main__
DelphiIdentAccess
p155
(dp156
S'ident'
p157
S'application'
p158
sS'endAccessList'
p159
(lp160
(idelphi
DelphiFieldEndAccess
p161
(dp162
S'field'
p163
S'helpJump'
p164
sba(idelphi
DelphiFunctionEndAccess
p165
(dp166
S'expressionList'
p167
(lp168
(idelphi
DelphiStringAccess
p169
(dp170
g159
(lp171
sS'string'
p172
(idelphi
DelphiStringValue
p173
(dp174
g172
S'Editing_plant_notes'
p175
sbsbasbasbsbasbsS'limitedDeclSectionList'
p176
(lp177
sbsbsS'formresize'
p178
(i__main__
DelphiMethodImplementation
p179
(dp180
g122
g61
sg19
g63
sg27
(lp181
(i__main__
DelphiFormalParameter
p182
(dp183
g31
Nsg32
(lp184
S'Sender'
p185
asg35
(i__main__
DelphiNamedType
p186
(dp187
g38
S'TObject'
p188
sg40
g1
sg41
Nsbsg42
Nsbasg131
(lp189
sg133
(lp190
sg135
(lp191
g137
ag185
asg138
(dp192
g185
g186
ssg43
S'TNoteEditForm'
p193
sg44
Nsg141
(lp194
sg45
I0
sg46
g47
sg143
(i__main__
DelphiBlock
p195
(dp196
g146
(idelphi
DelphiCompoundStatement
p197
(dp198
g149
(lp199
(i__main__
DelphiAssignStatement
p200
(dp201
g153
(idelphi
DelphiAddOp
p202
(dp203
S'addOp'
p204
S'-'
sS'term2'
p205
(i__main__
DelphiIdentAccess
p206
(dp207
g157
S'kBetweenGap'
p208
sg159
(lp209
sbsS'term1'
p210
(idelphi
DelphiAddOp
p211
(dp212
g204
S'-'
sg205
(i__main__
DelphiIdentAccess
p213
(dp214
g157
S'OK'
p215
sg159
(lp216
(idelphi
DelphiFieldEndAccess
p217
(dp218
g163
S'width'
p219
sbasbsg210
(i__main__
DelphiIdentAccess
p220
(dp221
g157
S'self'
p222
sg159
(lp223
(idelphi
DelphiFieldEndAccess
p224
(dp225
g163
S'clientWidth'
p226
sbasbsbsbsg154
(i__main__
DelphiIdentAccess
p227
(dp228
g157
S'OK'
p229
sg159
(lp230
(idelphi
DelphiFieldEndAccess
p231
(dp232
g163
S'left'
p233
sbasbsba(i__main__
DelphiAssignStatement
p234
(dp235
g153
(i__main__
DelphiIdentAccess
p236
(dp237
g157
S'OK'
p238
sg159
(lp239
(idelphi
DelphiFieldEndAccess
p240
(dp241
g163
S'left'
p242
sbasbsg154
(i__main__
DelphiIdentAccess
p243
(dp244
g157
S'Cancel'
p245
sg159
(lp246
(idelphi
DelphiFieldEndAccess
p247
(dp248
g163
S'left'
p249
sbasbsba(i__main__
DelphiAssignStatement
p250
(dp251
g153
(i__main__
DelphiIdentAccess
p252
(dp253
g157
S'OK'
p254
sg159
(lp255
(idelphi
DelphiFieldEndAccess
p256
(dp257
g163
S'left'
p258
sbasbsg154
(i__main__
DelphiIdentAccess
p259
(dp260
g157
S'helpButton'
p261
sg159
(lp262
(idelphi
DelphiFieldEndAccess
p263
(dp264
g163
S'left'
p265
sbasbsba(i__main__
DelphiAssignStatement
p266
(dp267
g153
(idelphi
DelphiAddOp
p268
(dp269
g204
S'+'
sg205
(i__main__
DelphiIdentAccess
p270
(dp271
g157
S'kBetweenGap'
p272
sg159
(lp273
sbsg210
(i__main__
DelphiIdentAccess
p274
(dp275
g157
S'OK'
p276
sg159
(lp277
(idelphi
DelphiFieldEndAccess
p278
(dp279
g163
S'left'
p280
sbasbsbsg154
(i__main__
DelphiIdentAccess
p281
(dp282
g157
S'wrapLines'
p283
sg159
(lp284
(idelphi
DelphiFieldEndAccess
p285
(dp286
g163
S'left'
p287
sbasbsba(idelphi
DelphiWithStatement
p288
(dp289
S'statement'
p290
(i__main__
DelphiAssignStatement
p291
(dp292
g153
Nsg154
(i__main__
DelphiIdentAccess
p293
(dp294
g157
S'setBounds'
p295
sg159
(lp296
(idelphi
DelphiFunctionEndAccess
p297
(dp298
g167
(lp299
(i__main__
DelphiIdentAccess
p300
(dp301
g157
S'kBetweenGap'
p302
sg159
(lp303
sba(i__main__
DelphiIdentAccess
p304
(dp305
g157
S'kBetweenGap'
p306
sg159
(lp307
sba(idelphi
DelphiAddOp
p308
(dp309
g204
S'-'
sg205
(idelphi
DelphiMulOp
p310
(dp311
S'signedFactor2'
p312
(idelphi
DelphiIntegerValue
p313
(dp314
g172
S'2'
sbsS'mulOp'
p315
S'*'
sS'signedFactor1'
p316
(i__main__
DelphiIdentAccess
p317
(dp318
g157
S'kBetweenGap'
p319
sg159
(lp320
sbsbsg210
(i__main__
DelphiIdentAccess
p321
(dp322
g157
S'OK'
p323
sg159
(lp324
(idelphi
DelphiFieldEndAccess
p325
(dp326
g163
S'left'
p327
sbasbsba(idelphi
DelphiAddOp
p328
(dp329
g204
S'-'
sg205
(idelphi
DelphiMulOp
p330
(dp331
g312
(idelphi
DelphiIntegerValue
p332
(dp333
g172
S'2'
sbsg315
S'*'
sg316
(i__main__
DelphiIdentAccess
p334
(dp335
g157
S'kBetweenGap'
p336
sg159
(lp337
sbsbsg210
(i__main__
DelphiIdentAccess
p338
(dp339
g157
S'self'
p340
sg159
(lp341
(idelphi
DelphiFieldEndAccess
p342
(dp343
g163
S'clientHeight'
p344
sbasbsbasbasbsbsS'variableReferenceList'
p345
(lp346
(i__main__
DelphiIdentAccess
p347
(dp348
g157
S'noteEditMemo'
p349
sg159
(lp350
sbasbasbsg176
(lp351
sbsbsS'formcreate'
p352
(i__main__
DelphiMethodImplementation
p353
(dp354
g122
g49
sg19
g51
sg27
(lp355
(i__main__
DelphiFormalParameter
p356
(dp357
g31
Nsg32
(lp358
S'Sender'
p359
asg35
(i__main__
DelphiNamedType
p360
(dp361
g38
S'TObject'
p362
sg40
g1
sg41
Nsbsg42
Nsbasg131
(lp363
sg133
(lp364
sg135
(lp365
g137
ag359
asg138
(dp366
g359
g360
ssg43
S'TNoteEditForm'
p367
sg44
Nsg141
(lp368
sg45
I0
sg46
g47
sg143
(i__main__
DelphiBlock
p369
(dp370
g146
(idelphi
DelphiCompoundStatement
p371
(dp372
g149
(lp373
(i__main__
DelphiAssignStatement
p374
(dp375
g153
(i__main__
DelphiIdentAccess
p376
(dp377
g157
S'domain'
p378
sg159
(lp379
(idelphi
DelphiFieldEndAccess
p380
(dp381
g163
S'options'
p382
sba(idelphi
DelphiFieldEndAccess
p383
(dp384
g163
S'noteEditorWrapLines'
p385
sbasbsg154
(i__main__
DelphiIdentAccess
p386
(dp387
g157
S'noteEditMemo'
p388
sg159
(lp389
(idelphi
DelphiFieldEndAccess
p390
(dp391
g163
S'wordWrap'
p392
sbasbsba(i__main__
DelphiAssignStatement
p393
(dp394
g153
(i__main__
DelphiIdentAccess
p395
(dp396
g157
S'domain'
p397
sg159
(lp398
(idelphi
DelphiFieldEndAccess
p399
(dp400
g163
S'options'
p401
sba(idelphi
DelphiFieldEndAccess
p402
(dp403
g163
S'noteEditorWrapLines'
p404
sbasbsg154
(i__main__
DelphiIdentAccess
p405
(dp406
g157
S'wrapLines'
p407
sg159
(lp408
(idelphi
DelphiFieldEndAccess
p409
(dp410
g163
S'checked'
p411
sbasbsbasbsg176
(lp412
sbsS'commentLinesBefore'
p413
(lp414
S' Private declarations '
p415
aS' Public declarations '
p416
aS'$R *.DFM'
p417
asbsS'wraplinesclick'
p418
(i__main__
DelphiMethodImplementation
p419
(dp420
g122
g73
sg19
g75
sg27
(lp421
(i__main__
DelphiFormalParameter
p422
(dp423
g31
Nsg32
(lp424
S'Sender'
p425
asg35
(i__main__
DelphiNamedType
p426
(dp427
g38
S'TObject'
p428
sg40
g1
sg41
Nsbsg42
Nsbasg131
(lp429
sg133
(lp430
sg135
(lp431
g137
ag425
asg138
(dp432
g425
g426
ssg43
S'TNoteEditForm'
p433
sg44
Nsg141
(lp434
sg45
I0
sg46
g47
sg143
(i__main__
DelphiBlock
p435
(dp436
g146
(idelphi
DelphiCompoundStatement
p437
(dp438
g149
(lp439
(i__main__
DelphiAssignStatement
p440
(dp441
g153
(i__main__
DelphiIdentAccess
p442
(dp443
g157
S'wrapLines'
p444
sg159
(lp445
(idelphi
DelphiFieldEndAccess
p446
(dp447
g163
S'checked'
p448
sbasbsg154
(i__main__
DelphiIdentAccess
p449
(dp450
g157
S'domain'
p451
sg159
(lp452
(idelphi
DelphiFieldEndAccess
p453
(dp454
g163
S'options'
p455
sba(idelphi
DelphiFieldEndAccess
p456
(dp457
g163
S'noteEditorWrapLines'
p458
sbasbsba(i__main__
DelphiAssignStatement
p459
(dp460
g153
(i__main__
DelphiIdentAccess
p461
(dp462
g157
S'domain'
p463
sg159
(lp464
(idelphi
DelphiFieldEndAccess
p465
(dp466
g163
S'options'
p467
sba(idelphi
DelphiFieldEndAccess
p468
(dp469
g163
S'noteEditorWrapLines'
p470
sbasbsg154
(i__main__
DelphiIdentAccess
p471
(dp472
g157
S'noteEditMemo'
p473
sg159
(lp474
(idelphi
DelphiFieldEndAccess
p475
(dp476
g163
S'wordWrap'
p477
sbasbsbasbsg176
(lp478
sbsbssS'propertyDeclarations'
p479
(dp480
sS'variableNamesInDeclaredOrder'
p481
(lp482
g18
ag10
ag14
ag12
ag16
asba(i__main__
DelphiConstSection
p483
(dp484
S'constDeclList'
p485
(lp486
(idelphi
DelphiConstDeclaration
p487
(dp488
S'constExpression'
p489
(idelphi
DelphiIntegerValue
p490
(dp491
g172
S'4'
sbsg157
S'kBetweenGap'
p492
sg35
(idelphi
DelphiPrimitiveType
p493
(dp494
g38
S'UNDEFINED_NEEDS_CALCULATION'
p495
sbsbasS'atTopLevel'
p496
I1
sbasS'includedUnits'
p497
NsS'implementationUses'
p498
(lp499
S'udomain'
p500
asg19
S'unoted'
p501
sS'constSections'
p502
(lp503
g483
asS'globalsInProperCase'
p504
NsS'interfaceUses'
p505
(lp506
S'delphi_compatability'
p507
aS'Windows'
p508
aS'Messages'
p509
aS'SysUtils'
p510
aS'Classes'
p511
aS'Graphics'
p512
aS'Controls'
p513
aS'Forms'
p514
aS'Dialogs'
p515
aS'StdCtrls'
p516
aS'Buttons'
p517
aS'updform'
p518
asS'finalCommentToken'
p519
(i__main__
PassStatement
p520
(dp521
g176
(lp522
sbsS'varSections'
p523
(lp524
sS'globals'
p525
NsS'originalFileName'
p526
S'../../PlantStudioInPython/converted_source/unoted.pas'
p527
sS'proceduralImplementations'
p528
(dp529
sS'fileName'
p530
S'/Users/pdf/Documents/workspace/PlantStudioInPython/converted_source/unoted.pas'
p531
sS'proceduralDeclarations'
p532
(dp533
sS'types'
p534
(dp535
S'tnoteeditform'
p536
g5
ssb.