(i__main__
DelphiUnit
p1
(dp2
S'sectionsInOrderDefined'
p3
(lp4
(i__main__
DelphiClass
p5
(dp6
S'variableNamesInProperCase'
p7
(dp8
S'colordialog'
p9
S'ColorDialog'
p10
sS'groupbox1'
p11
S'GroupBox1'
p12
sS'groupbox3'
p13
S'GroupBox3'
p14
sS'groupbox2'
p15
S'GroupBox2'
p16
sS'cancel'
p17
S'cancel'
p18
sS'close'
p19
S'Close'
p20
sS'helpbutton'
p21
S'helpButton'
p22
sS'useallplants'
p23
S'useAllPlants'
p24
sS'useselectedplants'
p25
S'useSelectedPlants'
p26
sS'resolutionlabel'
p27
S'resolutionLabel'
p28
sS'panel1'
p29
S'Panel1'
p30
sS'colortype'
p31
S'colorType'
p32
sS'backgroundcolorpanel'
p33
S'backgroundColorPanel'
p34
sS'label1'
p35
S'Label1'
p36
sS'label3'
p37
S'Label3'
p38
sS'label4'
p39
S'Label4'
p40
sS'resolutionedit'
p41
S'resolutionEdit'
p42
sS'usevisibleplants'
p43
S'useVisiblePlants'
p44
sS'colorslabel'
p45
S'colorsLabel'
p46
sS'cellcountlabel'
p47
S'cellCountLabel'
p48
sS'cellsizelabel'
p49
S'cellSizeLabel'
p50
sS'filesizelabel'
p51
S'fileSizeLabel'
p52
sS'options'
p53
S'options'
p54
ssS'name'
p55
S'TNozzleOptionsForm'
p56
sS'methodDeclarations'
p57
(dp58
S'helpbuttonclick'
p59
(i__main__
DelphiMethodDeclaration
p60
(dp61
g55
S'helpButtonClick'
p62
sS'formalParameters'
p63
(lp64
(i__main__
DelphiFormalParameter
p65
(dp66
S'initialValue'
p67
NsS'names'
p68
(lp69
S'Sender'
p70
asS'theType'
p71
(i__main__
DelphiNamedType
p72
(dp73
S'typeName'
p74
S'TObject'
p75
sS'unitDefinedIn'
p76
g1
sS'unitName'
p77
NsbsS'parameterVariety'
p78
NsbasS'className'
p79
g56
sS'resultType'
p80
NsS'isClassMethod'
p81
I0
sS'methodType'
p82
S'procedure'
p83
sbsS'initializewithoptions'
p84
(i__main__
DelphiMethodDeclaration
p85
(dp86
g55
S'initializeWithOptions'
p87
sg63
(lp88
(i__main__
DelphiFormalParameter
p89
(dp90
g67
Nsg68
(lp91
S'anOptions'
p92
asg71
(i__main__
DelphiNamedType
p93
(dp94
g74
S'NozzleOptionsStructure'
p95
sg76
g1
sg77
Nsbsg78
Nsbasg79
g56
sg80
Nsg81
I0
sg82
g83
sS'commentLinesBefore'
p96
(lp97
S' Private declarations '
p98
aS' Public declarations '
p99
aS'$R *.DFM'
p100
asbsS'formkeypress'
p101
(i__main__
DelphiMethodDeclaration
p102
(dp103
g55
S'FormKeyPress'
p104
sg63
(lp105
(i__main__
DelphiFormalParameter
p106
(dp107
g67
Nsg68
(lp108
S'Sender'
p109
asg71
(i__main__
DelphiNamedType
p110
(dp111
g74
S'TObject'
p112
sg76
g1
sg77
Nsbsg78
Nsba(i__main__
DelphiFormalParameter
p113
(dp114
g67
Nsg68
(lp115
S'Key'
p116
asg71
(i__main__
DelphiPrimitiveType
p117
(dp118
g74
S'char'
p119
sbsg78
S'var'
p120
sbasg79
g56
sg80
Nsg81
I0
sg82
g83
sbsS'backgroundcolorpanelclick'
p121
(i__main__
DelphiMethodDeclaration
p122
(dp123
g55
S'backgroundColorPanelClick'
p124
sg63
(lp125
(i__main__
DelphiFormalParameter
p126
(dp127
g67
Nsg68
(lp128
S'Sender'
p129
asg71
(i__main__
DelphiNamedType
p130
(dp131
g74
S'TObject'
p132
sg76
g1
sg77
Nsbsg78
Nsbasg79
g56
sg80
Nsg81
I0
sg82
g83
sbsS'updatecellsizeandcountforselection'
p133
(i__main__
DelphiMethodDeclaration
p134
(dp135
g55
S'updateCellSizeAndCountForSelection'
p136
sg63
(lp137
sg79
g56
sg80
Nsg81
I0
sg82
g83
sbsS'colortypechange'
p138
(i__main__
DelphiMethodDeclaration
p139
(dp140
g55
S'colorTypeChange'
p141
sg63
(lp142
(i__main__
DelphiFormalParameter
p143
(dp144
g67
Nsg68
(lp145
S'Sender'
p146
asg71
(i__main__
DelphiNamedType
p147
(dp148
g74
S'TObject'
p149
sg76
g1
sg77
Nsbsg78
Nsbasg79
g56
sg80
Nsg81
I0
sg82
g83
sbsS'resolutioneditchange'
p150
(i__main__
DelphiMethodDeclaration
p151
(dp152
g55
S'resolutionEditChange'
p153
sg63
(lp154
(i__main__
DelphiFormalParameter
p155
(dp156
g67
Nsg68
(lp157
S'Sender'
p158
asg71
(i__main__
DelphiNamedType
p159
(dp160
g74
S'TObject'
p161
sg76
g1
sg77
Nsbsg78
Nsbasg79
g56
sg80
Nsg81
I0
sg82
g83
sbsS'changeselection'
p162
(i__main__
DelphiMethodDeclaration
p163
(dp164
g55
S'changeSelection'
p165
sg63
(lp166
(i__main__
DelphiFormalParameter
p167
(dp168
g67
Nsg68
(lp169
S'Sender'
p170
asg71
(i__main__
DelphiNamedType
p171
(dp172
g74
S'TObject'
p173
sg76
g1
sg77
Nsbsg78
Nsbasg79
g56
sg80
Nsg81
I0
sg82
g83
sbsS'closeclick'
p174
(i__main__
DelphiMethodDeclaration
p175
(dp176
g55
S'CloseClick'
p177
sg63
(lp178
(i__main__
DelphiFormalParameter
p179
(dp180
g67
Nsg68
(lp181
S'Sender'
p182
asg71
(i__main__
DelphiNamedType
p183
(dp184
g74
S'TObject'
p185
sg76
g1
sg77
Nsbsg78
Nsbasg79
g56
sg80
Nsg81
I0
sg82
g83
sbssS'superclassNamedTypes'
p186
(lp187
(i__main__
DelphiNamedType
p188
(dp189
g74
S'PdForm'
p190
sg76
g1
sg77
NsbasS'variableNames'
p191
(dp192
S'colordialog'
p193
(i__main__
DelphiNamedType
p194
(dp195
g74
S'TColorDialog'
p196
sg76
g1
sg77
NsbsS'groupbox1'
p197
(i__main__
DelphiNamedType
p198
(dp199
g74
S'TGroupBox'
p200
sg76
g1
sg77
NsbsS'groupbox3'
p201
(i__main__
DelphiNamedType
p202
(dp203
g74
S'TGroupBox'
p204
sg76
g1
sg77
NsbsS'groupbox2'
p205
(i__main__
DelphiNamedType
p206
(dp207
g74
S'TGroupBox'
p208
sg76
g1
sg77
NsbsS'cancel'
p209
(i__main__
DelphiNamedType
p210
(dp211
g74
S'TButton'
p212
sg76
g1
sg77
NsbsS'close'
p213
(i__main__
DelphiNamedType
p214
(dp215
g74
S'TButton'
p216
sg76
g1
sg77
NsbsS'helpbutton'
p217
(i__main__
DelphiNamedType
p218
(dp219
g74
S'TSpeedButton'
p220
sg76
g1
sg77
NsbsS'useallplants'
p221
(i__main__
DelphiNamedType
p222
(dp223
g74
S'TRadioButton'
p224
sg76
g1
sg77
NsbsS'useselectedplants'
p225
(i__main__
DelphiNamedType
p226
(dp227
g74
S'TRadioButton'
p228
sg76
g1
sg77
NsbsS'resolutionlabel'
p229
(i__main__
DelphiNamedType
p230
(dp231
g74
S'TLabel'
p232
sg76
g1
sg77
NsbsS'panel1'
p233
(i__main__
DelphiNamedType
p234
(dp235
g74
S'TPanel'
p236
sg76
g1
sg77
NsbsS'colortype'
p237
(i__main__
DelphiNamedType
p238
(dp239
g74
S'TComboBox'
p240
sg76
g1
sg77
NsbsS'backgroundcolorpanel'
p241
(i__main__
DelphiNamedType
p242
(dp243
g74
S'TPanel'
p244
sg76
g1
sg77
NsbsS'label1'
p245
(i__main__
DelphiNamedType
p246
(dp247
g74
S'TLabel'
p248
sg76
g1
sg77
NsbsS'label3'
p249
(i__main__
DelphiNamedType
p250
(dp251
g74
S'TLabel'
p252
sg76
g1
sg77
NsbsS'label4'
p253
(i__main__
DelphiNamedType
p254
(dp255
g74
S'TLabel'
p256
sg76
g1
sg77
NsbsS'resolutionedit'
p257
(i__main__
DelphiNamedType
p258
(dp259
g74
S'TSpinEdit'
p260
sg76
g1
sg77
NsbsS'usevisibleplants'
p261
(i__main__
DelphiNamedType
p262
(dp263
g74
S'TRadioButton'
p264
sg76
g1
sg77
NsbsS'colorslabel'
p265
(i__main__
DelphiNamedType
p266
(dp267
g74
S'TLabel'
p268
sg76
g1
sg77
NsbsS'cellcountlabel'
p269
(i__main__
DelphiNamedType
p270
(dp271
g74
S'TLabel'
p272
sg76
g1
sg77
NsbsS'cellsizelabel'
p273
(i__main__
DelphiNamedType
p274
(dp275
g74
S'TLabel'
p276
sg76
g1
sg77
NsbsS'filesizelabel'
p277
(i__main__
DelphiNamedType
p278
(dp279
g74
S'TLabel'
p280
sg76
g1
sg77
NsbsS'options'
p281
(i__main__
DelphiNamedType
p282
(dp283
g74
S'NozzleOptionsStructure'
p284
sg76
g1
sg77
NsbssS'methodNamesInDefinedOrder'
p285
(lp286
S'initializewithoptions'
p287
aS'updatecellsizeandcountforselection'
p288
aS'changeselection'
p289
aS'backgroundcolorpanelclick'
p290
aS'resolutioneditchange'
p291
aS'colortypechange'
p292
aS'helpbuttonclick'
p293
aS'formkeypress'
p294
aS'closeclick'
p295
asS'methodImplementations'
p296
(dp297
S'helpbuttonclick'
p298
(i__main__
DelphiMethodImplementation
p299
(dp300
S'originalDeclaration'
p301
g60
sg55
g62
sg63
(lp302
(i__main__
DelphiFormalParameter
p303
(dp304
g67
Nsg68
(lp305
S'Sender'
p306
asg71
(i__main__
DelphiNamedType
p307
(dp308
g74
S'TObject'
p309
sg76
g1
sg77
Nsbsg78
NsbasS'varParamIndexes'
p310
(lp311
sS'varParamsSkipped'
p312
(lp313
sS'argNames'
p314
(lp315
S'self'
p316
ag306
asS'argTypes'
p317
(dp318
g306
g307
ssg79
S'TNozzleOptionsForm'
p319
sg80
NsS'varParamNames'
p320
(lp321
sg81
I0
sg82
g83
sS'block'
p322
(i__main__
DelphiBlock
p323
(dp324
S'compoundStatement'
p325
(idelphi
DelphiCompoundStatement
p326
(dp327
S'statements'
p328
(lp329
(i__main__
DelphiAssignStatement
p330
(dp331
S'newValueExpression'
p332
NsS'destinationExpression'
p333
(i__main__
DelphiIdentAccess
p334
(dp335
S'ident'
p336
S'Application'
p337
sS'endAccessList'
p338
(lp339
(idelphi
DelphiFieldEndAccess
p340
(dp341
S'field'
p342
S'helpJump'
p343
sba(idelphi
DelphiFunctionEndAccess
p344
(dp345
S'expressionList'
p346
(lp347
(idelphi
DelphiStringAccess
p348
(dp349
g338
(lp350
sS'string'
p351
(idelphi
DelphiStringValue
p352
(dp353
g351
S'Making_a_nozzle_or_tube'
p354
sbsbasbasbsbasbsS'limitedDeclSectionList'
p355
(lp356
sbsbsS'initializewithoptions'
p357
(i__main__
DelphiMethodImplementation
p358
(dp359
g301
g85
sg55
g87
sg63
(lp360
(i__main__
DelphiFormalParameter
p361
(dp362
g67
Nsg68
(lp363
S'anOptions'
p364
asg71
(i__main__
DelphiNamedType
p365
(dp366
g74
S'NozzleOptionsStructure'
p367
sg76
g1
sg77
Nsbsg78
Nsbasg310
(lp368
sg312
(lp369
sg314
(lp370
g316
ag364
asg317
(dp371
g364
g365
ssg79
S'TNozzleOptionsForm'
p372
sg80
Nsg320
(lp373
sg81
I0
sg82
g83
sg322
(i__main__
DelphiBlock
p374
(dp375
g325
(idelphi
DelphiCompoundStatement
p376
(dp377
g328
(lp378
(i__main__
DelphiAssignStatement
p379
(dp380
g332
(i__main__
DelphiIdentAccess
p381
(dp382
g336
S'anOptions'
p383
sg338
(lp384
sbsg333
(i__main__
DelphiIdentAccess
p385
(dp386
g336
S'self'
p387
sg338
(lp388
(idelphi
DelphiFieldEndAccess
p389
(dp390
g342
S'options'
p391
sbasbsba(idelphi
DelphiCaseStatement
p392
(dp393
S'elseStatement'
p394
NsS'expression'
p395
(i__main__
DelphiIdentAccess
p396
(dp397
g336
S'options'
p398
sg338
(lp399
(idelphi
DelphiFieldEndAccess
p400
(dp401
g342
S'exportType'
p402
sbasbsS'caseSelectorList'
p403
(lp404
(idelphi
DelphiCaseSelector
p405
(dp406
S'statement'
p407
(i__main__
DelphiAssignStatement
p408
(dp409
g332
(i__main__
DelphiIdentAccess
p410
(dp411
g336
S'true'
p412
sg338
(lp413
sbsg333
(i__main__
DelphiIdentAccess
p414
(dp415
g336
S'useSelectedPlants'
p416
sg338
(lp417
(idelphi
DelphiFieldEndAccess
p418
(dp419
g342
S'checked'
p420
sbasbsbsS'caseLabelList'
p421
(lp422
(i__main__
DelphiIdentAccess
p423
(dp424
g336
S'kIncludeSelectedPlants'
p425
sg338
(lp426
sbasba(idelphi
DelphiCaseSelector
p427
(dp428
g407
(i__main__
DelphiAssignStatement
p429
(dp430
g332
(i__main__
DelphiIdentAccess
p431
(dp432
g336
S'true'
p433
sg338
(lp434
sbsg333
(i__main__
DelphiIdentAccess
p435
(dp436
g336
S'useVisiblePlants'
p437
sg338
(lp438
(idelphi
DelphiFieldEndAccess
p439
(dp440
g342
S'checked'
p441
sbasbsbsg421
(lp442
(i__main__
DelphiIdentAccess
p443
(dp444
g336
S'kIncludeVisiblePlants'
p445
sg338
(lp446
sbasba(idelphi
DelphiCaseSelector
p447
(dp448
g407
(i__main__
DelphiAssignStatement
p449
(dp450
g332
(i__main__
DelphiIdentAccess
p451
(dp452
g336
S'true'
p453
sg338
(lp454
sbsg333
(i__main__
DelphiIdentAccess
p455
(dp456
g336
S'useAllPlants'
p457
sg338
(lp458
(idelphi
DelphiFieldEndAccess
p459
(dp460
g342
S'checked'
p461
sbasbsbsg421
(lp462
(i__main__
DelphiIdentAccess
p463
(dp464
g336
S'kIncludeAllPlants'
p465
sg338
(lp466
sbasbasba(i__main__
DelphiAssignStatement
p467
(dp468
g332
(i__main__
DelphiIdentAccess
p469
(dp470
g336
S'intToStr'
p471
sg338
(lp472
(idelphi
DelphiFunctionEndAccess
p473
(dp474
g346
(lp475
(i__main__
DelphiIdentAccess
p476
(dp477
g336
S'round'
p478
sg338
(lp479
(idelphi
DelphiFunctionEndAccess
p480
(dp481
g346
(lp482
(i__main__
DelphiIdentAccess
p483
(dp484
g336
S'options'
p485
sg338
(lp486
(idelphi
DelphiFieldEndAccess
p487
(dp488
g342
S'resolution_pixelsPerInch'
p489
sbasbasbasbasbasbsg333
(i__main__
DelphiIdentAccess
p490
(dp491
g336
S'resolutionEdit'
p492
sg338
(lp493
(idelphi
DelphiFieldEndAccess
p494
(dp495
g342
S'text'
p496
sbasbsba(i__main__
DelphiAssignStatement
p497
(dp498
g332
(i__main__
DelphiIdentAccess
p499
(dp500
g336
S'options'
p501
sg338
(lp502
(idelphi
DelphiFieldEndAccess
p503
(dp504
g342
S'backgroundColor'
p505
sbasbsg333
(i__main__
DelphiIdentAccess
p506
(dp507
g336
S'backgroundColorPanel'
p508
sg338
(lp509
(idelphi
DelphiFieldEndAccess
p510
(dp511
g342
S'color'
p512
sbasbsba(i__main__
DelphiAssignStatement
p513
(dp514
g332
(i__main__
DelphiIdentAccess
p515
(dp516
g336
S'ord'
p517
sg338
(lp518
(idelphi
DelphiFunctionEndAccess
p519
(dp520
g346
(lp521
(i__main__
DelphiIdentAccess
p522
(dp523
g336
S'options'
p524
sg338
(lp525
(idelphi
DelphiFieldEndAccess
p526
(dp527
g342
S'colorType'
p528
sbasbasbasbsg333
(i__main__
DelphiIdentAccess
p529
(dp530
g336
S'colorType'
p531
sg338
(lp532
(idelphi
DelphiFieldEndAccess
p533
(dp534
g342
S'itemIndex'
p535
sbasbsba(i__main__
DelphiAssignStatement
p536
(dp537
g332
Nsg333
(i__main__
DelphiIdentAccess
p538
(dp539
g336
S'self'
p540
sg338
(lp541
(idelphi
DelphiFieldEndAccess
p542
(dp543
g342
S'updateCellSizeAndCountForSelection'
p544
sbasbsbasbsg355
(lp545
sbsg96
g97
sbsS'formkeypress'
p546
(i__main__
DelphiMethodImplementation
p547
(dp548
g301
g102
sg55
g104
sg63
(lp549
(i__main__
DelphiFormalParameter
p550
(dp551
g67
Nsg68
(lp552
S'Sender'
p553
asg71
(i__main__
DelphiNamedType
p554
(dp555
g74
S'TObject'
p556
sg76
g1
sg77
Nsbsg78
Nsba(i__main__
DelphiFormalParameter
p557
(dp558
g67
Nsg68
(lp559
S'Key'
p560
asg71
(i__main__
DelphiPrimitiveType
p561
(dp562
g74
g119
sbsg78
g120
sbasg310
(lp563
I1
asg312
(lp564
sg314
(lp565
g316
ag553
ag560
asg317
(dp566
g553
g554
sg560
g561
ssg79
S'TNozzleOptionsForm'
p567
sg80
Nsg320
(lp568
g560
asg81
I0
sg82
g83
sg322
(i__main__
DelphiBlock
p569
(dp570
g325
(idelphi
DelphiCompoundStatement
p571
(dp572
g328
(lp573
(i__main__
DelphiAssignStatement
p574
(dp575
g332
Nsg333
(i__main__
DelphiIdentAccess
p576
(dp577
g336
S'makeEnterWorkAsTab'
p578
sg338
(lp579
(idelphi
DelphiFunctionEndAccess
p580
(dp581
g346
(lp582
(i__main__
DelphiIdentAccess
p583
(dp584
g336
S'self'
p585
sg338
(lp586
sba(i__main__
DelphiIdentAccess
p587
(dp588
g336
S'activeControl'
p589
sg338
(lp590
sba(i__main__
DelphiIdentAccess
p591
(dp592
g336
S'key'
p593
sg338
(lp594
sbasbasbsbasbsg355
(lp595
sbsbsS'backgroundcolorpanelclick'
p596
(i__main__
DelphiMethodImplementation
p597
(dp598
g301
g122
sg55
g124
sg63
(lp599
(i__main__
DelphiFormalParameter
p600
(dp601
g67
Nsg68
(lp602
S'Sender'
p603
asg71
(i__main__
DelphiNamedType
p604
(dp605
g74
S'TObject'
p606
sg76
g1
sg77
Nsbsg78
Nsbasg310
(lp607
sg312
(lp608
sg314
(lp609
g316
ag603
asg317
(dp610
g603
g604
ssg79
S'TNozzleOptionsForm'
p611
sg80
Nsg320
(lp612
sg81
I0
sg82
g83
sg322
(i__main__
DelphiBlock
p613
(dp614
g325
(idelphi
DelphiCompoundStatement
p615
(dp616
g328
(lp617
(i__main__
DelphiAssignStatement
p618
(dp619
g332
(i__main__
DelphiIdentAccess
p620
(dp621
g336
S'domain'
p622
sg338
(lp623
(idelphi
DelphiFieldEndAccess
p624
(dp625
g342
S'getColorUsingCustomColors'
p626
sba(idelphi
DelphiFunctionEndAccess
p627
(dp628
g346
(lp629
(i__main__
DelphiIdentAccess
p630
(dp631
g336
S'backgroundColorPanel'
p632
sg338
(lp633
(idelphi
DelphiFieldEndAccess
p634
(dp635
g342
S'color'
p636
sbasbasbasbsg333
(i__main__
DelphiIdentAccess
p637
(dp638
g336
S'backgroundColorPanel'
p639
sg338
(lp640
(idelphi
DelphiFieldEndAccess
p641
(dp642
g342
S'color'
p643
sbasbsba(i__main__
DelphiAssignStatement
p644
(dp645
g332
(i__main__
DelphiIdentAccess
p646
(dp647
g336
S'backgroundColorPanel'
p648
sg338
(lp649
(idelphi
DelphiFieldEndAccess
p650
(dp651
g342
S'color'
p652
sbasbsg333
(i__main__
DelphiIdentAccess
p653
(dp654
g336
S'options'
p655
sg338
(lp656
(idelphi
DelphiFieldEndAccess
p657
(dp658
g342
S'backgroundColor'
p659
sbasbsbasbsg355
(lp660
sbsbsS'updatecellsizeandcountforselection'
p661
(i__main__
DelphiMethodImplementation
p662
(dp663
g301
g134
sg55
g136
sg63
(lp664
sg310
(lp665
sg312
(lp666
sg314
(lp667
g316
asg317
(dp668
sg79
S'TNozzleOptionsForm'
p669
sg80
Nsg320
(lp670
sg81
I0
sg82
g83
sg322
(i__main__
DelphiBlock
p671
(dp672
g325
(idelphi
DelphiCompoundStatement
p673
(dp674
g328
(lp675
(i__main__
DelphiAssignStatement
p676
(dp677
g332
(idelphi
DelphiNot
p678
(dp679
S'factor'
p680
(i__main__
DelphiIdentAccess
p681
(dp682
g336
S'useAllPlants'
p683
sg338
(lp684
(idelphi
DelphiFieldEndAccess
p685
(dp686
g342
S'checked'
p687
sbasbsbsg333
(i__main__
DelphiIdentAccess
p688
(dp689
g336
S'excludeInvisiblePlants'
p690
sg338
(lp691
sbsba(i__main__
DelphiAssignStatement
p692
(dp693
g332
(i__main__
DelphiIdentAccess
p694
(dp695
g336
S'useSelectedPlants'
p696
sg338
(lp697
(idelphi
DelphiFieldEndAccess
p698
(dp699
g342
S'checked'
p700
sbasbsg333
(i__main__
DelphiIdentAccess
p701
(dp702
g336
S'excludeNonSelectedPlants'
p703
sg338
(lp704
sbsba(i__main__
DelphiAssignStatement
p705
(dp706
g332
(i__main__
DelphiIdentAccess
p707
(dp708
g336
S'domain'
p709
sg338
(lp710
(idelphi
DelphiFieldEndAccess
p711
(dp712
g342
S'plantManager'
p713
sba(idelphi
DelphiFieldEndAccess
p714
(dp715
g342
S'largestPlantBoundsRect'
p716
sba(idelphi
DelphiFunctionEndAccess
p717
(dp718
g346
(lp719
(i__main__
DelphiIdentAccess
p720
(dp721
g336
S'MainForm'
p722
sg338
(lp723
(idelphi
DelphiFieldEndAccess
p724
(dp725
g342
S'selectedPlants'
p726
sbasba(i__main__
DelphiIdentAccess
p727
(dp728
g336
S'excludeInvisiblePlants'
p729
sg338
(lp730
sba(i__main__
DelphiIdentAccess
p731
(dp732
g336
S'excludeNonSelectedPlants'
p733
sg338
(lp734
sbasbasbsg333
(i__main__
DelphiIdentAccess
p735
(dp736
g336
S'cellRect'
p737
sg338
(lp738
sbsba(i__main__
DelphiAssignStatement
p739
(dp740
g332
(i__main__
DelphiIdentAccess
p741
(dp742
g336
S'safedivExcept'
p743
sg338
(lp744
(idelphi
DelphiFunctionEndAccess
p745
(dp746
g346
(lp747
(idelphi
DelphiMulOp
p748
(dp749
S'signedFactor2'
p750
(i__main__
DelphiIdentAccess
p751
(dp752
g336
S'options'
p753
sg338
(lp754
(idelphi
DelphiFieldEndAccess
p755
(dp756
g342
S'resolution_pixelsPerInch'
p757
sbasbsS'mulOp'
p758
S'*'
sS'signedFactor1'
p759
(idelphi
DelphiRealValue
p760
(dp761
g351
S'1.0'
p762
sbsba(idelphi
DelphiMulOp
p763
(dp764
g750
(i__main__
DelphiIdentAccess
p765
(dp766
g336
S'Screen'
p767
sg338
(lp768
(idelphi
DelphiFieldEndAccess
p769
(dp770
g342
S'pixelsPerInch'
p771
sbasbsg758
S'*'
sg759
(idelphi
DelphiRealValue
p772
(dp773
g351
S'1.0'
p774
sbsba(idelphi
DelphiRealValue
p775
(dp776
g351
S'1.0'
p777
sbasbasbsg333
(i__main__
DelphiIdentAccess
p778
(dp779
g336
S'scaleMultiplier'
p780
sg338
(lp781
sbsba(i__main__
DelphiAssignStatement
p782
(dp783
g332
(i__main__
DelphiIdentAccess
p784
(dp785
g336
S'Point'
p786
sg338
(lp787
(idelphi
DelphiFunctionEndAccess
p788
(dp789
g346
(lp790
(i__main__
DelphiIdentAccess
p791
(dp792
g336
S'round'
p793
sg338
(lp794
(idelphi
DelphiFunctionEndAccess
p795
(dp796
g346
(lp797
(idelphi
DelphiMulOp
p798
(dp799
g750
(i__main__
DelphiIdentAccess
p800
(dp801
g336
S'scaleMultiplier'
p802
sg338
(lp803
sbsg758
S'*'
sg759
(i__main__
DelphiIdentAccess
p804
(dp805
g336
S'rWidth'
p806
sg338
(lp807
(idelphi
DelphiFunctionEndAccess
p808
(dp809
g346
(lp810
(i__main__
DelphiIdentAccess
p811
(dp812
g336
S'cellRect'
p813
sg338
(lp814
sbasbasbsbasbasba(i__main__
DelphiIdentAccess
p815
(dp816
g336
S'round'
p817
sg338
(lp818
(idelphi
DelphiFunctionEndAccess
p819
(dp820
g346
(lp821
(idelphi
DelphiMulOp
p822
(dp823
g750
(i__main__
DelphiIdentAccess
p824
(dp825
g336
S'scaleMultiplier'
p826
sg338
(lp827
sbsg758
S'*'
sg759
(i__main__
DelphiIdentAccess
p828
(dp829
g336
S'rHeight'
p830
sg338
(lp831
(idelphi
DelphiFunctionEndAccess
p832
(dp833
g346
(lp834
(i__main__
DelphiIdentAccess
p835
(dp836
g336
S'cellRect'
p837
sg338
(lp838
sbasbasbsbasbasbasbasbsg333
(i__main__
DelphiIdentAccess
p839
(dp840
g336
S'options'
p841
sg338
(lp842
(idelphi
DelphiFieldEndAccess
p843
(dp844
g342
S'cellSize'
p845
sbasbsba(idelphi
DelphiIfStatement
p846
(dp847
g395
(i__main__
DelphiIdentAccess
p848
(dp849
g336
S'useAllPlants'
p850
sg338
(lp851
(idelphi
DelphiFieldEndAccess
p852
(dp853
g342
S'checked'
p854
sbasbsS'ifFalseStatement'
p855
(idelphi
DelphiIfStatement
p856
(dp857
g395
(i__main__
DelphiIdentAccess
p858
(dp859
g336
S'useVisiblePlants'
p860
sg338
(lp861
(idelphi
DelphiFieldEndAccess
p862
(dp863
g342
S'checked'
p864
sbasbsg855
(idelphi
DelphiIfStatement
p865
(dp866
g395
(i__main__
DelphiIdentAccess
p867
(dp868
g336
S'useSelectedPlants'
p869
sg338
(lp870
(idelphi
DelphiFieldEndAccess
p871
(dp872
g342
S'checked'
p873
sbasbsg855
NsS'ifTrueStatement'
p874
(i__main__
DelphiAssignStatement
p875
(dp876
g332
(i__main__
DelphiIdentAccess
p877
(dp878
g336
S'MainForm'
p879
sg338
(lp880
(idelphi
DelphiFieldEndAccess
p881
(dp882
g342
S'selectedPlants'
p883
sba(idelphi
DelphiFieldEndAccess
p884
(dp885
g342
S'count'
p886
sbasbsg333
(i__main__
DelphiIdentAccess
p887
(dp888
g336
S'options'
p889
sg338
(lp890
(idelphi
DelphiFieldEndAccess
p891
(dp892
g342
S'cellCount'
p893
sbasbsbsbsg874
(i__main__
DelphiAssignStatement
p894
(dp895
g332
(i__main__
DelphiIdentAccess
p896
(dp897
g336
S'domain'
p898
sg338
(lp899
(idelphi
DelphiFieldEndAccess
p900
(dp901
g342
S'plantManager'
p902
sba(idelphi
DelphiFieldEndAccess
p903
(dp904
g342
S'visiblePlantCount'
p905
sbasbsg333
(i__main__
DelphiIdentAccess
p906
(dp907
g336
S'options'
p908
sg338
(lp909
(idelphi
DelphiFieldEndAccess
p910
(dp911
g342
S'cellCount'
p912
sbasbsbsbsg874
(i__main__
DelphiAssignStatement
p913
(dp914
g332
(i__main__
DelphiIdentAccess
p915
(dp916
g336
S'domain'
p917
sg338
(lp918
(idelphi
DelphiFieldEndAccess
p919
(dp920
g342
S'plantManager'
p921
sba(idelphi
DelphiFieldEndAccess
p922
(dp923
g342
S'plants'
p924
sba(idelphi
DelphiFieldEndAccess
p925
(dp926
g342
S'count'
p927
sbasbsg333
(i__main__
DelphiIdentAccess
p928
(dp929
g336
S'options'
p930
sg338
(lp931
(idelphi
DelphiFieldEndAccess
p932
(dp933
g342
S'cellCount'
p934
sbasbsbsba(i__main__
DelphiAssignStatement
p935
(dp936
g332
(idelphi
DelphiAddOp
p937
(dp938
S'addOp'
p939
S'+'
sS'term2'
p940
(i__main__
DelphiIdentAccess
p941
(dp942
g336
S'intToStr'
p943
sg338
(lp944
(idelphi
DelphiFunctionEndAccess
p945
(dp946
g346
(lp947
(i__main__
DelphiIdentAccess
p948
(dp949
g336
S'options'
p950
sg338
(lp951
(idelphi
DelphiFieldEndAccess
p952
(dp953
g342
S'cellSize'
p954
sba(idelphi
DelphiFieldEndAccess
p955
(dp956
g342
S'y'
sbasbasbasbsS'term1'
p957
(idelphi
DelphiAddOp
p958
(dp959
g939
S'+'
sg940
(idelphi
DelphiStringAccess
p960
(dp961
g338
(lp962
sg351
(idelphi
DelphiStringValue
p963
(dp964
g351
S' height:  '
p965
sbsbsg957
(idelphi
DelphiAddOp
p966
(dp967
g939
S'+'
sg940
(i__main__
DelphiIdentAccess
p968
(dp969
g336
S'intToStr'
p970
sg338
(lp971
(idelphi
DelphiFunctionEndAccess
p972
(dp973
g346
(lp974
(i__main__
DelphiIdentAccess
p975
(dp976
g336
S'options'
p977
sg338
(lp978
(idelphi
DelphiFieldEndAccess
p979
(dp980
g342
S'cellSize'
p981
sba(idelphi
DelphiFieldEndAccess
p982
(dp983
g342
S'x'
sbasbasbasbsg957
(idelphi
DelphiStringAccess
p984
(dp985
g338
(lp986
sg351
(idelphi
DelphiStringValue
p987
(dp988
g351
S'Nozzle/tube cell width:  '
p989
sbsbsbsbsbsg333
(i__main__
DelphiIdentAccess
p990
(dp991
g336
S'cellSizeLabel'
p992
sg338
(lp993
(idelphi
DelphiFieldEndAccess
p994
(dp995
g342
S'caption'
p996
sbasbsba(i__main__
DelphiAssignStatement
p997
(dp998
g332
(idelphi
DelphiAddOp
p999
(dp1000
g939
S'+'
sg940
(i__main__
DelphiIdentAccess
p1001
(dp1002
g336
S'intToStr'
p1003
sg338
(lp1004
(idelphi
DelphiFunctionEndAccess
p1005
(dp1006
g346
(lp1007
(i__main__
DelphiIdentAccess
p1008
(dp1009
g336
S'options'
p1010
sg338
(lp1011
(idelphi
DelphiFieldEndAccess
p1012
(dp1013
g342
S'cellCount'
p1014
sbasbasbasbsg957
(idelphi
DelphiStringAccess
p1015
(dp1016
g338
(lp1017
sg351
(idelphi
DelphiStringValue
p1018
(dp1019
g351
S'Number of items:  '
p1020
sbsbsbsg333
(i__main__
DelphiIdentAccess
p1021
(dp1022
g336
S'cellCountLabel'
p1023
sg338
(lp1024
(idelphi
DelphiFieldEndAccess
p1025
(dp1026
g342
S'caption'
p1027
sbasbsba(i__main__
DelphiAssignStatement
p1028
(dp1029
g332
(idelphi
DelphiAddOp
p1030
(dp1031
g939
S'+'
sg940
(idelphi
DelphiSizeof
p1032
(dp1033
S'constExpression'
p1034
(i__main__
DelphiIdentAccess
p1035
(dp1036
g336
S'TBitmapInfo'
p1037
sg338
(lp1038
sbsbsg957
(i__main__
DelphiIdentAccess
p1039
(dp1040
g336
S'round'
p1041
sg338
(lp1042
(idelphi
DelphiFunctionEndAccess
p1043
(dp1044
g346
(lp1045
(idelphi
DelphiMulOp
p1046
(dp1047
g750
(idelphi
DelphiRealValue
p1048
(dp1049
g351
S'8.0'
p1050
sbsg758
S'/'
sg759
(idelphi
DelphiMulOp
p1051
(dp1052
g750
(i__main__
DelphiIdentAccess
p1053
(dp1054
g336
S'bitsPerPixelForColorType'
p1055
sg338
(lp1056
(idelphi
DelphiFunctionEndAccess
p1057
(dp1058
g346
(lp1059
(i__main__
DelphiIdentAccess
p1060
(dp1061
g336
S'options'
p1062
sg338
(lp1063
(idelphi
DelphiFieldEndAccess
p1064
(dp1065
g342
S'colorType'
p1066
sbasbasbasbsg758
S'*'
sg759
(idelphi
DelphiMulOp
p1067
(dp1068
g750
(i__main__
DelphiIdentAccess
p1069
(dp1070
g336
S'options'
p1071
sg338
(lp1072
(idelphi
DelphiFieldEndAccess
p1073
(dp1074
g342
S'cellSize'
p1075
sba(idelphi
DelphiFieldEndAccess
p1076
(dp1077
g342
S'y'
sbasbsg758
S'*'
sg759
(idelphi
DelphiMulOp
p1078
(dp1079
g750
(i__main__
DelphiIdentAccess
p1080
(dp1081
g336
S'options'
p1082
sg338
(lp1083
(idelphi
DelphiFieldEndAccess
p1084
(dp1085
g342
S'cellSize'
p1086
sba(idelphi
DelphiFieldEndAccess
p1087
(dp1088
g342
S'x'
sbasbsg758
S'*'
sg759
(i__main__
DelphiIdentAccess
p1089
(dp1090
g336
S'options'
p1091
sg338
(lp1092
(idelphi
DelphiFieldEndAccess
p1093
(dp1094
g342
S'cellCount'
p1095
sbasbsbsbsbsbasbasbsbsg333
(i__main__
DelphiIdentAccess
p1096
(dp1097
g336
S'fileSize'
p1098
sg338
(lp1099
sbsba(idelphi
DelphiIfStatement
p1100
(dp1101
g395
(idelphi
DelphiRelOp
p1102
(dp1103
S'simpleExpression1'
p1104
(i__main__
DelphiIdentAccess
p1105
(dp1106
g336
S'fileSize'
p1107
sg338
(lp1108
sbsS'simpleExpression2'
p1109
(idelphi
DelphiIntegerValue
p1110
(dp1111
g351
S'1024'
p1112
sbsS'relOp'
p1113
S'<'
sbsg855
(idelphi
DelphiIfStatement
p1114
(dp1115
g395
(idelphi
DelphiRelOp
p1116
(dp1117
g1104
(i__main__
DelphiIdentAccess
p1118
(dp1119
g336
S'fileSize'
p1120
sg338
(lp1121
sbsg1109
(idelphi
DelphiMulOp
p1122
(dp1123
g750
(idelphi
DelphiIntegerValue
p1124
(dp1125
g351
S'1024'
p1126
sbsg758
S'*'
sg759
(idelphi
DelphiIntegerValue
p1127
(dp1128
g351
S'1024'
p1129
sbsbsg1113
S'<'
sbsg855
(i__main__
DelphiAssignStatement
p1130
(dp1131
g332
(idelphi
DelphiAddOp
p1132
(dp1133
g939
S'+'
sg940
(idelphi
DelphiStringAccess
p1134
(dp1135
g338
(lp1136
sg351
(idelphi
DelphiStringValue
p1137
(dp1138
g351
S' MB'
p1139
sbsbsg957
(idelphi
DelphiAddOp
p1140
(dp1141
g939
S'+'
sg940
(i__main__
DelphiIdentAccess
p1142
(dp1143
g336
S'floatToStrF'
p1144
sg338
(lp1145
(idelphi
DelphiFunctionEndAccess
p1146
(dp1147
g346
(lp1148
(idelphi
DelphiMulOp
p1149
(dp1150
g750
(idelphi
DelphiNestedExpressionListAccess
p1151
(dp1152
g338
(lp1153
sg346
(lp1154
(idelphi
DelphiMulOp
p1155
(dp1156
g750
(idelphi
DelphiIntegerValue
p1157
(dp1158
g351
S'1024'
p1159
sbsg758
S'*'
sg759
(idelphi
DelphiIntegerValue
p1160
(dp1161
g351
S'1024'
p1162
sbsbasbsg758
S'/'
sg759
(i__main__
DelphiIdentAccess
p1163
(dp1164
g336
S'fileSize'
p1165
sg338
(lp1166
sbsba(i__main__
DelphiIdentAccess
p1167
(dp1168
g336
S'ffFixed'
p1169
sg338
(lp1170
sba(idelphi
DelphiIntegerValue
p1171
(dp1172
g351
S'7'
sba(idelphi
DelphiIntegerValue
p1173
(dp1174
g351
S'1'
sbasbasbsg957
(idelphi
DelphiStringAccess
p1175
(dp1176
g338
(lp1177
sg351
(idelphi
DelphiStringValue
p1178
(dp1179
g351
S'Estimated file size:  '
p1180
sbsbsbsbsg333
(i__main__
DelphiIdentAccess
p1181
(dp1182
g336
S'fileSizeLabel'
p1183
sg338
(lp1184
(idelphi
DelphiFieldEndAccess
p1185
(dp1186
g342
S'caption'
p1187
sbasbsbsg874
(i__main__
DelphiAssignStatement
p1188
(dp1189
g332
(idelphi
DelphiAddOp
p1190
(dp1191
g939
S'+'
sg940
(idelphi
DelphiStringAccess
p1192
(dp1193
g338
(lp1194
sg351
(idelphi
DelphiStringValue
p1195
(dp1196
g351
S' KB'
p1197
sbsbsg957
(idelphi
DelphiAddOp
p1198
(dp1199
g939
S'+'
sg940
(i__main__
DelphiIdentAccess
p1200
(dp1201
g336
S'intToStr'
p1202
sg338
(lp1203
(idelphi
DelphiFunctionEndAccess
p1204
(dp1205
g346
(lp1206
(idelphi
DelphiMulOp
p1207
(dp1208
g750
(idelphi
DelphiIntegerValue
p1209
(dp1210
g351
S'1024'
p1211
sbsg758
S'div'
p1212
sg759
(i__main__
DelphiIdentAccess
p1213
(dp1214
g336
S'fileSize'
p1215
sg338
(lp1216
sbsbasbasbsg957
(idelphi
DelphiStringAccess
p1217
(dp1218
g338
(lp1219
sg351
(idelphi
DelphiStringValue
p1220
(dp1221
g351
S'Estimated file size:  '
p1222
sbsbsbsbsg333
(i__main__
DelphiIdentAccess
p1223
(dp1224
g336
S'fileSizeLabel'
p1225
sg338
(lp1226
(idelphi
DelphiFieldEndAccess
p1227
(dp1228
g342
S'caption'
p1229
sbasbsbsbsg874
(i__main__
DelphiAssignStatement
p1230
(dp1231
g332
(idelphi
DelphiAddOp
p1232
(dp1233
g939
S'+'
sg940
(idelphi
DelphiStringAccess
p1234
(dp1235
g338
(lp1236
sg351
(idelphi
DelphiStringValue
p1237
(dp1238
g351
S' bytes'
p1239
sbsbsg957
(idelphi
DelphiAddOp
p1240
(dp1241
g939
S'+'
sg940
(i__main__
DelphiIdentAccess
p1242
(dp1243
g336
S'intToStr'
p1244
sg338
(lp1245
(idelphi
DelphiFunctionEndAccess
p1246
(dp1247
g346
(lp1248
(i__main__
DelphiIdentAccess
p1249
(dp1250
g336
S'fileSize'
p1251
sg338
(lp1252
sbasbasbsg957
(idelphi
DelphiStringAccess
p1253
(dp1254
g338
(lp1255
sg351
(idelphi
DelphiStringValue
p1256
(dp1257
g351
S'Estimated file size:  '
p1258
sbsbsbsbsg333
(i__main__
DelphiIdentAccess
p1259
(dp1260
g336
S'fileSizeLabel'
p1261
sg338
(lp1262
(idelphi
DelphiFieldEndAccess
p1263
(dp1264
g342
S'caption'
p1265
sbasbsbsba(idelphi
DelphiIfStatement
p1266
(dp1267
g395
(idelphi
DelphiRelOp
p1268
(dp1269
g1104
(i__main__
DelphiIdentAccess
p1270
(dp1271
g336
S'fileSize'
p1272
sg338
(lp1273
sbsg1109
(idelphi
DelphiMulOp
p1274
(dp1275
g750
(idelphi
DelphiIntegerValue
p1276
(dp1277
g351
S'1024'
p1278
sbsg758
S'*'
sg759
(idelphi
DelphiMulOp
p1279
(dp1280
g750
(idelphi
DelphiIntegerValue
p1281
(dp1282
g351
S'1024'
p1283
sbsg758
S'*'
sg759
(idelphi
DelphiRealValue
p1284
(dp1285
g351
S'10.0'
p1286
sbsbsbsg1113
S'>='
p1287
sbsg855
(i__main__
DelphiAssignStatement
p1288
(dp1289
g332
(idelphi
DelphiSetConstructor
p1290
(dp1291
S'setElementList'
p1292
(lp1293
sbsg333
(i__main__
DelphiIdentAccess
p1294
(dp1295
g336
S'fileSizeLabel'
p1296
sg338
(lp1297
(idelphi
DelphiFieldEndAccess
p1298
(dp1299
g342
S'font'
p1300
sba(idelphi
DelphiFieldEndAccess
p1301
(dp1302
g342
S'style'
p1303
sbasbsbsg874
(i__main__
DelphiAssignStatement
p1304
(dp1305
g332
(idelphi
DelphiSetConstructor
p1306
(dp1307
g1292
(lp1308
(i__main__
DelphiIdentAccess
p1309
(dp1310
g336
S'fsBold'
p1311
sg338
(lp1312
sbasbsg333
(i__main__
DelphiIdentAccess
p1313
(dp1314
g336
S'fileSizeLabel'
p1315
sg338
(lp1316
(idelphi
DelphiFieldEndAccess
p1317
(dp1318
g342
S'font'
p1319
sba(idelphi
DelphiFieldEndAccess
p1320
(dp1321
g342
S'style'
p1322
sbasbsbsbasbsg355
(lp1323
(i__main__
DelphiVarSection
p1324
(dp1325
S'atTopLevel'
p1326
I0
sS'varDeclList'
p1327
(lp1328
(idelphi
DelphiVarDecl
p1329
(dp1330
g1034
NsS'identList'
p1331
(lp1332
S'excludeInvisiblePlants'
p1333
aS'excludeNonSelectedPlants'
p1334
asg71
(i__main__
DelphiPrimitiveType
p1335
(dp1336
g74
S'boolean'
p1337
sbsba(idelphi
DelphiVarDecl
p1338
(dp1339
g1034
Nsg1331
(lp1340
S'cellRect'
p1341
asg71
(i__main__
DelphiNamedType
p1342
(dp1343
g74
S'TRect'
p1344
sg76
g1
sg77
Nsbsba(idelphi
DelphiVarDecl
p1345
(dp1346
g1034
Nsg1331
(lp1347
S'scaleMultiplier'
p1348
asg71
(i__main__
DelphiPrimitiveType
p1349
(dp1350
g74
S'single'
p1351
sbsba(idelphi
DelphiVarDecl
p1352
(dp1353
g1034
Nsg1331
(lp1354
S'fileSize'
p1355
asg71
(i__main__
DelphiPrimitiveType
p1356
(dp1357
g74
S'longint'
p1358
sbsbasbasbsbsS'colortypechange'
p1359
(i__main__
DelphiMethodImplementation
p1360
(dp1361
g301
g139
sg55
g141
sg63
(lp1362
(i__main__
DelphiFormalParameter
p1363
(dp1364
g67
Nsg68
(lp1365
S'Sender'
p1366
asg71
(i__main__
DelphiNamedType
p1367
(dp1368
g74
S'TObject'
p1369
sg76
g1
sg77
Nsbsg78
Nsbasg310
(lp1370
sg312
(lp1371
sg314
(lp1372
g316
ag1366
asg317
(dp1373
g1366
g1367
ssg79
S'TNozzleOptionsForm'
p1374
sg80
Nsg320
(lp1375
sg81
I0
sg82
g83
sg322
(i__main__
DelphiBlock
p1376
(dp1377
g325
(idelphi
DelphiCompoundStatement
p1378
(dp1379
g328
(lp1380
(i__main__
DelphiAssignStatement
p1381
(dp1382
g332
(i__main__
DelphiIdentAccess
p1383
(dp1384
g336
S'TPixelFormat'
p1385
sg338
(lp1386
(idelphi
DelphiFunctionEndAccess
p1387
(dp1388
g346
(lp1389
(i__main__
DelphiIdentAccess
p1390
(dp1391
g336
S'colorType'
p1392
sg338
(lp1393
(idelphi
DelphiFieldEndAccess
p1394
(dp1395
g342
S'itemIndex'
p1396
sbasbasbasbsg333
(i__main__
DelphiIdentAccess
p1397
(dp1398
g336
S'options'
p1399
sg338
(lp1400
(idelphi
DelphiFieldEndAccess
p1401
(dp1402
g342
S'colorType'
p1403
sbasbsba(i__main__
DelphiAssignStatement
p1404
(dp1405
g332
Nsg333
(i__main__
DelphiIdentAccess
p1406
(dp1407
g336
S'self'
p1408
sg338
(lp1409
(idelphi
DelphiFieldEndAccess
p1410
(dp1411
g342
S'updateCellSizeAndCountForSelection'
p1412
sbasbsbasbsg355
(lp1413
sbsbsS'resolutioneditchange'
p1414
(i__main__
DelphiMethodImplementation
p1415
(dp1416
g301
g151
sg55
g153
sg63
(lp1417
(i__main__
DelphiFormalParameter
p1418
(dp1419
g67
Nsg68
(lp1420
S'Sender'
p1421
asg71
(i__main__
DelphiNamedType
p1422
(dp1423
g74
S'TObject'
p1424
sg76
g1
sg77
Nsbsg78
Nsbasg310
(lp1425
sg312
(lp1426
sg314
(lp1427
g316
ag1421
asg317
(dp1428
g1421
g1422
ssg79
S'TNozzleOptionsForm'
p1429
sg80
Nsg320
(lp1430
sg81
I0
sg82
g83
sg322
(i__main__
DelphiBlock
p1431
(dp1432
g325
(idelphi
DelphiCompoundStatement
p1433
(dp1434
g328
(lp1435
(i__main__
DelphiAssignStatement
p1436
(dp1437
g332
(i__main__
DelphiIdentAccess
p1438
(dp1439
g336
S'strToIntDef'
p1440
sg338
(lp1441
(idelphi
DelphiFunctionEndAccess
p1442
(dp1443
g346
(lp1444
(i__main__
DelphiIdentAccess
p1445
(dp1446
g336
S'resolutionEdit'
p1447
sg338
(lp1448
(idelphi
DelphiFieldEndAccess
p1449
(dp1450
g342
S'text'
p1451
sbasba(i__main__
DelphiIdentAccess
p1452
(dp1453
g336
S'round'
p1454
sg338
(lp1455
(idelphi
DelphiFunctionEndAccess
p1456
(dp1457
g346
(lp1458
(i__main__
DelphiIdentAccess
p1459
(dp1460
g336
S'options'
p1461
sg338
(lp1462
(idelphi
DelphiFieldEndAccess
p1463
(dp1464
g342
S'resolution_pixelsPerInch'
p1465
sbasbasbasbasbasbsg333
(i__main__
DelphiIdentAccess
p1466
(dp1467
g336
S'options'
p1468
sg338
(lp1469
(idelphi
DelphiFieldEndAccess
p1470
(dp1471
g342
S'resolution_pixelsPerInch'
p1472
sbasbsba(i__main__
DelphiAssignStatement
p1473
(dp1474
g332
Nsg333
(i__main__
DelphiIdentAccess
p1475
(dp1476
g336
S'self'
p1477
sg338
(lp1478
(idelphi
DelphiFieldEndAccess
p1479
(dp1480
g342
S'updateCellSizeAndCountForSelection'
p1481
sbasbsbasbsg355
(lp1482
sbsbsS'changeselection'
p1483
(i__main__
DelphiMethodImplementation
p1484
(dp1485
g301
g163
sg55
g165
sg63
(lp1486
(i__main__
DelphiFormalParameter
p1487
(dp1488
g67
Nsg68
(lp1489
S'Sender'
p1490
asg71
(i__main__
DelphiNamedType
p1491
(dp1492
g74
S'TObject'
p1493
sg76
g1
sg77
Nsbsg78
Nsbasg310
(lp1494
sg312
(lp1495
sg314
(lp1496
g316
ag1490
asg317
(dp1497
g1490
g1491
ssg79
S'TNozzleOptionsForm'
p1498
sg80
Nsg320
(lp1499
sg81
I0
sg82
g83
sg322
(i__main__
DelphiBlock
p1500
(dp1501
g325
(idelphi
DelphiCompoundStatement
p1502
(dp1503
g328
(lp1504
(idelphi
DelphiIfStatement
p1505
(dp1506
g395
(idelphi
DelphiRelOp
p1507
(dp1508
g1104
(i__main__
DelphiIdentAccess
p1509
(dp1510
g336
S'sender'
p1511
sg338
(lp1512
sbsg1109
(i__main__
DelphiIdentAccess
p1513
(dp1514
g336
S'useSelectedPlants'
p1515
sg338
(lp1516
sbsg1113
S'='
sbsg855
(idelphi
DelphiIfStatement
p1517
(dp1518
g395
(idelphi
DelphiRelOp
p1519
(dp1520
g1104
(i__main__
DelphiIdentAccess
p1521
(dp1522
g336
S'sender'
p1523
sg338
(lp1524
sbsg1109
(i__main__
DelphiIdentAccess
p1525
(dp1526
g336
S'useVisiblePlants'
p1527
sg338
(lp1528
sbsg1113
S'='
sbsg855
(idelphi
DelphiIfStatement
p1529
(dp1530
g395
(idelphi
DelphiRelOp
p1531
(dp1532
g1104
(i__main__
DelphiIdentAccess
p1533
(dp1534
g336
S'sender'
p1535
sg338
(lp1536
sbsg1109
(i__main__
DelphiIdentAccess
p1537
(dp1538
g336
S'useAllPlants'
p1539
sg338
(lp1540
sbsg1113
S'='
sbsg855
Nsg874
(i__main__
DelphiAssignStatement
p1541
(dp1542
g332
(i__main__
DelphiIdentAccess
p1543
(dp1544
g336
S'kIncludeAllPlants'
p1545
sg338
(lp1546
sbsg333
(i__main__
DelphiIdentAccess
p1547
(dp1548
g336
S'options'
p1549
sg338
(lp1550
(idelphi
DelphiFieldEndAccess
p1551
(dp1552
g342
S'exportType'
p1553
sbasbsbsbsg874
(i__main__
DelphiAssignStatement
p1554
(dp1555
g332
(i__main__
DelphiIdentAccess
p1556
(dp1557
g336
S'kIncludeVisiblePlants'
p1558
sg338
(lp1559
sbsg333
(i__main__
DelphiIdentAccess
p1560
(dp1561
g336
S'options'
p1562
sg338
(lp1563
(idelphi
DelphiFieldEndAccess
p1564
(dp1565
g342
S'exportType'
p1566
sbasbsbsbsg874
(i__main__
DelphiAssignStatement
p1567
(dp1568
g332
(i__main__
DelphiIdentAccess
p1569
(dp1570
g336
S'kIncludeSelectedPlants'
p1571
sg338
(lp1572
sbsg333
(i__main__
DelphiIdentAccess
p1573
(dp1574
g336
S'options'
p1575
sg338
(lp1576
(idelphi
DelphiFieldEndAccess
p1577
(dp1578
g342
S'exportType'
p1579
sbasbsbsba(i__main__
DelphiAssignStatement
p1580
(dp1581
g332
Nsg333
(i__main__
DelphiIdentAccess
p1582
(dp1583
g336
S'self'
p1584
sg338
(lp1585
(idelphi
DelphiFieldEndAccess
p1586
(dp1587
g342
S'updateCellSizeAndCountForSelection'
p1588
sbasbsbasbsg355
(lp1589
sbsbsS'closeclick'
p1590
(i__main__
DelphiMethodImplementation
p1591
(dp1592
g301
g175
sg55
g177
sg63
(lp1593
(i__main__
DelphiFormalParameter
p1594
(dp1595
g67
Nsg68
(lp1596
S'Sender'
p1597
asg71
(i__main__
DelphiNamedType
p1598
(dp1599
g74
S'TObject'
p1600
sg76
g1
sg77
Nsbsg78
Nsbasg310
(lp1601
sg312
(lp1602
sg314
(lp1603
g316
ag1597
asg317
(dp1604
g1597
g1598
ssg79
S'TNozzleOptionsForm'
p1605
sg80
Nsg320
(lp1606
sg81
I0
sg82
g83
sg322
(i__main__
DelphiBlock
p1607
(dp1608
g325
(idelphi
DelphiCompoundStatement
p1609
(dp1610
g328
(lp1611
(idelphi
DelphiIfStatement
p1612
(dp1613
g395
(idelphi
DelphiMulOp
p1614
(dp1615
g750
(idelphi
DelphiNestedExpressionListAccess
p1616
(dp1617
g338
(lp1618
sg346
(lp1619
(idelphi
DelphiRelOp
p1620
(dp1621
g1104
(i__main__
DelphiIdentAccess
p1622
(dp1623
g336
S'MainForm'
p1624
sg338
(lp1625
(idelphi
DelphiFieldEndAccess
p1626
(dp1627
g342
S'selectedPlants'
p1628
sba(idelphi
DelphiFieldEndAccess
p1629
(dp1630
g342
S'count'
p1631
sbasbsg1109
(idelphi
DelphiIntegerValue
p1632
(dp1633
g351
S'0'
sbsg1113
S'<='
p1634
sbasbsg758
S'and'
p1635
sg759
(idelphi
DelphiNestedExpressionListAccess
p1636
(dp1637
g338
(lp1638
sg346
(lp1639
(idelphi
DelphiRelOp
p1640
(dp1641
g1104
(i__main__
DelphiIdentAccess
p1642
(dp1643
g336
S'options'
p1644
sg338
(lp1645
(idelphi
DelphiFieldEndAccess
p1646
(dp1647
g342
S'exportType'
p1648
sbasbsg1109
(i__main__
DelphiIdentAccess
p1649
(dp1650
g336
S'kIncludeSelectedPlants'
p1651
sg338
(lp1652
sbsg1113
S'='
sbasbsbsg855
(i__main__
DelphiAssignStatement
p1653
(dp1654
g332
(i__main__
DelphiIdentAccess
p1655
(dp1656
g336
S'mrOK'
p1657
sg338
(lp1658
sbsg333
(i__main__
DelphiIdentAccess
p1659
(dp1660
g336
S'modalResult'
p1661
sg338
(lp1662
sbsbsg874
(i__main__
DelphiAssignStatement
p1663
(dp1664
g332
Nsg333
(i__main__
DelphiIdentAccess
p1665
(dp1666
g336
S'MessageDlg'
p1667
sg338
(lp1668
(idelphi
DelphiFunctionEndAccess
p1669
(dp1670
g346
(lp1671
(idelphi
DelphiAddOp
p1672
(dp1673
g939
S'+'
sg940
(idelphi
DelphiStringAccess
p1674
(dp1675
g338
(lp1676
sg351
(idelphi
DelphiStringValue
p1677
(dp1678
g351
S'You should make another choice, or click Cancel and select some plants.'
p1679
sbsbsg957
(idelphi
DelphiAddOp
p1680
(dp1681
g939
S'+'
sg940
(i__main__
DelphiIdentAccess
p1682
(dp1683
g336
S'chr'
p1684
sg338
(lp1685
(idelphi
DelphiFunctionEndAccess
p1686
(dp1687
g346
(lp1688
(idelphi
DelphiIntegerValue
p1689
(dp1690
g351
S'13'
p1691
sbasbasbsg957
(idelphi
DelphiStringAccess
p1692
(dp1693
g338
(lp1694
sg351
(idelphi
DelphiStringValue
p1695
(dp1696
g351
S'You chose "selected" for "Draw which plants", but no plants are selected.'
p1697
sbsbsbsba(i__main__
DelphiIdentAccess
p1698
(dp1699
g336
S'mtError'
p1700
sg338
(lp1701
sba(idelphi
DelphiSetConstructor
p1702
(dp1703
g1292
(lp1704
(i__main__
DelphiIdentAccess
p1705
(dp1706
g336
S'mbOK'
p1707
sg338
(lp1708
sbasba(idelphi
DelphiIntegerValue
p1709
(dp1710
g351
S'0'
sbasbasbsbsbasbsg355
(lp1711
sbsbssS'propertyDeclarations'
p1712
(dp1713
sS'variableNamesInDeclaredOrder'
p1714
(lp1715
g12
ag48
ag50
ag22
ag20
ag18
ag10
ag52
ag30
ag40
ag16
ag28
ag38
ag46
ag36
ag34
ag42
ag32
ag14
ag26
ag44
ag24
ag54
asbasS'includedUnits'
p1716
NsS'implementationUses'
p1717
(lp1718
S'umain'
p1719
aS'usupport'
p1720
aS'umath'
p1721
asg55
S'unozzle'
p1722
sS'constSections'
p1723
(lp1724
sS'globalsInProperCase'
p1725
NsS'interfaceUses'
p1726
(lp1727
S'delphi_compatability'
p1728
aS'Windows'
p1729
aS'Messages'
p1730
aS'SysUtils'
p1731
aS'Classes'
p1732
aS'Graphics'
p1733
aS'Controls'
p1734
aS'Forms'
p1735
aS'Dialogs'
p1736
aS'ExtCtrls'
p1737
aS'StdCtrls'
p1738
aS'Buttons'
p1739
aS'Spin'
p1740
aS'udomain'
p1741
aS'updform'
p1742
asS'finalCommentToken'
p1743
(i__main__
PassStatement
p1744
(dp1745
g355
(lp1746
sbsS'varSections'
p1747
(lp1748
sS'globals'
p1749
NsS'originalFileName'
p1750
S'../../PlantStudioInPython/converted_source/unozzle.pas'
p1751
sS'proceduralImplementations'
p1752
(dp1753
sS'fileName'
p1754
S'/Users/pdf/Documents/workspace/PlantStudioInPython/converted_source/unozzle.pas'
p1755
sS'proceduralDeclarations'
p1756
(dp1757
sS'types'
p1758
(dp1759
S'tnozzleoptionsform'
p1760
g5
ssb.