(i__main__
DelphiUnit
p1
(dp2
S'sectionsInOrderDefined'
p3
(lp4
(i__main__
DelphiClass
p5
(dp6
S'variableNamesInProperCase'
p7
(dp8
S'wholeprogrambox'
p9
S'wholeProgramBox'
p10
sS'backgroundcolorlabel'
p11
S'backgroundColorLabel'
p12
sS'openmostrecentfileatstart'
p13
S'openMostRecentFileAtStart'
p14
sS'transparentcolor'
p15
S'transparentColor'
p16
sS'groupbox5'
p17
S'GroupBox5'
p18
sS'groupbox4'
p19
S'GroupBox4'
p20
sS'groupbox7'
p21
S'GroupBox7'
p22
sS'groupbox6'
p23
S'GroupBox6'
p24
sS'groupbox1'
p25
S'GroupBox1'
p26
sS'groupbox2'
p27
S'GroupBox2'
p28
sS'resizekeyupmultiplierpercent'
p29
S'resizeKeyUpMultiplierPercent'
p30
sS'rotationincrementlabel'
p31
S'rotationIncrementLabel'
p32
sS'cancel'
p33
S'cancel'
p34
sS'close'
p35
S'Close'
p36
sS'transparentcolorlabel'
p37
S'transparentColorLabel'
p38
sS'selectedposedcolor'
p39
S'selectedPosedColor'
p40
sS'nudgedistancelabel'
p41
S'nudgeDistanceLabel'
p42
sS'label10'
p43
S'Label10'
p44
sS'transferdirection'
p45
S'transferDirection'
p46
sS'showplantdrawingprogress'
p47
S'showPlantDrawingProgress'
p48
sS'multiselectionrectanglecolorlabel'
p49
S'multiSelectionRectangleColorLabel'
p50
sS'helpbutton'
p51
S'helpButton'
p52
sS'ghostingcolor'
p53
S'ghostingColor'
p54
sS'multiselectionrectanglecolor'
p55
S'multiSelectionRectangleColor'
p56
sS'undolimitlabel'
p57
S'undoLimitLabel'
p58
sS'undolimitofplants'
p59
S'undoLimitOfPlants'
p60
sS'parametersfontsizelabel'
p61
S'parametersFontSizeLabel'
p62
sS'ignorewindowsettingsinfile'
p63
S'ignoreWindowSettingsInFile'
p64
sS'pauseduringhint'
p65
S'pauseDuringHint'
p66
sS'drawwithopengl'
p67
S'drawWithOpenGL'
p68
sS'optionsnotebook'
p69
S'optionsNotebook'
p70
sS'rotationincrement'
p71
S'rotationIncrement'
p72
sS'optionschanged'
p73
S'optionsChanged'
p74
sS'label9'
p75
S'Label9'
p76
sS'memorylimitforplantbitmaps_mb'
p77
S'memoryLimitForPlantBitmaps_MB'
p78
sS'resizerectsizelabel'
p79
S'resizeRectSizeLabel'
p80
sS'pasterectsize'
p81
S'pasteRectSize'
p82
sS'label1'
p83
S'Label1'
p84
sS'label3'
p85
S'Label3'
p86
sS'parametersfontsize'
p87
S'parametersFontSize'
p88
sS'backgroundcolor'
p89
S'backgroundColor'
p90
sS'panel1'
p91
S'Panel1'
p92
sS'nonhiddenposedcolor'
p93
S'nonHiddenPosedColor'
p94
sS'image1'
p95
S'Image1'
p96
sS'firstselectionrectanglecolorlabel'
p97
S'firstSelectionRectangleColorLabel'
p98
sS'memorylimitlabel'
p99
S'memoryLimitLabel'
p100
sS'resizedistancelabel'
p101
S'resizeDistanceLabel'
p102
sS'undolimitofplantslabel'
p103
S'undoLimitOfPlantsLabel'
p104
sS'pasterectsizelabel'
p105
S'pasteRectSizeLabel'
p106
sS'firstselectionrectanglecolor'
p107
S'firstSelectionRectangleColor'
p108
sS'mainwindowdrawingoptionsbox'
p109
S'mainWindowDrawingOptionsBox'
p110
sS'pausebeforehintlabel'
p111
S'pauseBeforeHintLabel'
p112
sS'usemetricunits'
p113
S'useMetricUnits'
p114
sS'resizerectsize'
p115
S'resizeRectSize'
p116
sS'pauseduringhintlabel'
p117
S'pauseDuringHintLabel'
p118
sS'undolimit'
p119
S'undoLimit'
p120
sS'messageshown'
p121
S'messageShown'
p122
sS'nudgedistance'
p123
S'nudgeDistance'
p124
sS'customdrawoptions'
p125
S'customDrawOptions'
p126
sS'options'
p127
S'options'
p128
sS'pausebeforehint'
p129
S'pauseBeforeHint'
p130
ssS'name'
p131
S'TOptionsForm'
p132
sS'methodDeclarations'
p133
(dp134
S'helpbuttonclick'
p135
(i__main__
DelphiMethodDeclaration
p136
(dp137
g131
S'helpButtonClick'
p138
sS'formalParameters'
p139
(lp140
(i__main__
DelphiFormalParameter
p141
(dp142
S'initialValue'
p143
NsS'names'
p144
(lp145
S'Sender'
p146
asS'theType'
p147
(i__main__
DelphiNamedType
p148
(dp149
S'typeName'
p150
S'TObject'
p151
sS'unitDefinedIn'
p152
g1
sS'unitName'
p153
NsbsS'parameterVariety'
p154
NsbasS'className'
p155
g132
sS'resultType'
p156
NsS'isClassMethod'
p157
I0
sS'methodType'
p158
S'procedure'
p159
sbsS'formactivate'
p160
(i__main__
DelphiMethodDeclaration
p161
(dp162
g131
S'FormActivate'
p163
sg139
(lp164
(i__main__
DelphiFormalParameter
p165
(dp166
g143
Nsg144
(lp167
S'Sender'
p168
asg147
(i__main__
DelphiNamedType
p169
(dp170
g150
S'TObject'
p171
sg152
g1
sg153
Nsbsg154
Nsbasg155
g132
sg156
Nsg157
I0
sg158
g159
sbsS'transfercolor'
p172
(i__main__
DelphiMethodDeclaration
p173
(dp174
g131
S'transferColor'
p175
sg139
(lp176
(i__main__
DelphiFormalParameter
p177
(dp178
g143
Nsg144
(lp179
S'colorPanel'
p180
asg147
(i__main__
DelphiNamedType
p181
(dp182
g150
S'TPanel'
p183
sg152
g1
sg153
Nsbsg154
Nsba(i__main__
DelphiFormalParameter
p184
(dp185
g143
Nsg144
(lp186
S'value'
p187
asg147
(i__main__
DelphiNamedType
p188
(dp189
g150
S'TColorRef'
p190
sg152
g1
sg153
Nsbsg154
S'var'
p191
sbasg155
g132
sg156
Nsg157
I0
sg158
g159
sbsS'multiselectionrectanglecolormouseup'
p192
(i__main__
DelphiMethodDeclaration
p193
(dp194
g131
S'multiSelectionRectangleColorMouseUp'
p195
sg139
(lp196
(i__main__
DelphiFormalParameter
p197
(dp198
g143
Nsg144
(lp199
S'Sender'
p200
asg147
(i__main__
DelphiNamedType
p201
(dp202
g150
S'TObject'
p203
sg152
g1
sg153
Nsbsg154
Nsba(i__main__
DelphiFormalParameter
p204
(dp205
g143
Nsg144
(lp206
S'Button'
p207
asg147
(i__main__
DelphiNamedType
p208
(dp209
g150
S'TMouseButton'
p210
sg152
g1
sg153
Nsbsg154
Nsba(i__main__
DelphiFormalParameter
p211
(dp212
g143
Nsg144
(lp213
S'Shift'
p214
asg147
(i__main__
DelphiNamedType
p215
(dp216
g150
S'TShiftState'
p217
sg152
g1
sg153
Nsbsg154
Nsba(i__main__
DelphiFormalParameter
p218
(dp219
g143
Nsg144
(lp220
S'X'
aS'Y'
asg147
(i__main__
DelphiPrimitiveType
p221
(dp222
g150
S'integer'
p223
sbsg154
Nsbasg155
g132
sg156
Nsg157
I0
sg158
g159
sbsS'cancelclick'
p224
(i__main__
DelphiMethodDeclaration
p225
(dp226
g131
S'cancelClick'
p227
sg139
(lp228
(i__main__
DelphiFormalParameter
p229
(dp230
g143
Nsg144
(lp231
S'Sender'
p232
asg147
(i__main__
DelphiNamedType
p233
(dp234
g150
S'TObject'
p235
sg152
g1
sg153
Nsbsg154
Nsbasg155
g132
sg156
Nsg157
I0
sg158
g159
sbsS'transfercheckbox'
p236
(i__main__
DelphiMethodDeclaration
p237
(dp238
g131
S'transferCheckBox'
p239
sg139
(lp240
(i__main__
DelphiFormalParameter
p241
(dp242
g143
Nsg144
(lp243
S'checkBox'
p244
asg147
(i__main__
DelphiNamedType
p245
(dp246
g150
S'TCheckBox'
p247
sg152
g1
sg153
Nsbsg154
Nsba(i__main__
DelphiFormalParameter
p248
(dp249
g143
Nsg144
(lp250
S'value'
p251
asg147
(i__main__
DelphiPrimitiveType
p252
(dp253
g150
S'boolean'
p254
sbsg154
g191
sbasg155
g132
sg156
Nsg157
I0
sg158
g159
sbsS'formkeypress'
p255
(i__main__
DelphiMethodDeclaration
p256
(dp257
g131
S'FormKeyPress'
p258
sg139
(lp259
(i__main__
DelphiFormalParameter
p260
(dp261
g143
Nsg144
(lp262
S'Sender'
p263
asg147
(i__main__
DelphiNamedType
p264
(dp265
g150
S'TObject'
p266
sg152
g1
sg153
Nsbsg154
Nsba(i__main__
DelphiFormalParameter
p267
(dp268
g143
Nsg144
(lp269
S'Key'
p270
asg147
(i__main__
DelphiPrimitiveType
p271
(dp272
g150
S'char'
p273
sbsg154
g191
sbasg155
g132
sg156
Nsg157
I0
sg158
g159
sbsS'customdrawoptionsclick'
p274
(i__main__
DelphiMethodDeclaration
p275
(dp276
g131
S'customDrawOptionsClick'
p277
sg139
(lp278
(i__main__
DelphiFormalParameter
p279
(dp280
g143
Nsg144
(lp281
S'Sender'
p282
asg147
(i__main__
DelphiNamedType
p283
(dp284
g150
S'TObject'
p285
sg152
g1
sg153
Nsbsg154
Nsbasg155
g132
sg156
Nsg157
I0
sg158
g159
sbsS'transferfloateditbox'
p286
(i__main__
DelphiMethodDeclaration
p287
(dp288
g131
S'transferFloatEditBox'
p289
sg139
(lp290
(i__main__
DelphiFormalParameter
p291
(dp292
g143
Nsg144
(lp293
S'editBox'
p294
asg147
(i__main__
DelphiNamedType
p295
(dp296
g150
S'TEdit'
p297
sg152
g1
sg153
Nsbsg154
Nsba(i__main__
DelphiFormalParameter
p298
(dp299
g143
Nsg144
(lp300
S'value'
p301
asg147
(i__main__
DelphiPrimitiveType
p302
(dp303
g150
S'single'
p304
sbsg154
g191
sbasg155
g132
sg156
Nsg157
I0
sg158
g159
sbsS'selectedposedcolormouseup'
p305
(i__main__
DelphiMethodDeclaration
p306
(dp307
g131
S'selectedPosedColorMouseUp'
p308
sg139
(lp309
(i__main__
DelphiFormalParameter
p310
(dp311
g143
Nsg144
(lp312
S'Sender'
p313
asg147
(i__main__
DelphiNamedType
p314
(dp315
g150
S'TObject'
p316
sg152
g1
sg153
Nsbsg154
Nsba(i__main__
DelphiFormalParameter
p317
(dp318
g143
Nsg144
(lp319
S'Button'
p320
asg147
(i__main__
DelphiNamedType
p321
(dp322
g150
S'TMouseButton'
p323
sg152
g1
sg153
Nsbsg154
Nsba(i__main__
DelphiFormalParameter
p324
(dp325
g143
Nsg144
(lp326
S'Shift'
p327
asg147
(i__main__
DelphiNamedType
p328
(dp329
g150
S'TShiftState'
p330
sg152
g1
sg153
Nsbsg154
Nsba(i__main__
DelphiFormalParameter
p331
(dp332
g143
Nsg144
(lp333
S'X'
aS'Y'
asg147
(i__main__
DelphiPrimitiveType
p334
(dp335
g150
g223
sbsg154
Nsbasg155
g132
sg156
Nsg157
I0
sg158
g159
sbsS'nonhiddenposedcolormouseup'
p336
(i__main__
DelphiMethodDeclaration
p337
(dp338
g131
S'nonHiddenPosedColorMouseUp'
p339
sg139
(lp340
(i__main__
DelphiFormalParameter
p341
(dp342
g143
Nsg144
(lp343
S'Sender'
p344
asg147
(i__main__
DelphiNamedType
p345
(dp346
g150
S'TObject'
p347
sg152
g1
sg153
Nsbsg154
Nsba(i__main__
DelphiFormalParameter
p348
(dp349
g143
Nsg144
(lp350
S'Button'
p351
asg147
(i__main__
DelphiNamedType
p352
(dp353
g150
S'TMouseButton'
p354
sg152
g1
sg153
Nsbsg154
Nsba(i__main__
DelphiFormalParameter
p355
(dp356
g143
Nsg144
(lp357
S'Shift'
p358
asg147
(i__main__
DelphiNamedType
p359
(dp360
g150
S'TShiftState'
p361
sg152
g1
sg153
Nsbsg154
Nsba(i__main__
DelphiFormalParameter
p362
(dp363
g143
Nsg144
(lp364
S'X'
aS'Y'
asg147
(i__main__
DelphiPrimitiveType
p365
(dp366
g150
g223
sbsg154
Nsbasg155
g132
sg156
Nsg157
I0
sg158
g159
sbsS'transparentcolormouseup'
p367
(i__main__
DelphiMethodDeclaration
p368
(dp369
g131
S'transparentColorMouseUp'
p370
sg139
(lp371
(i__main__
DelphiFormalParameter
p372
(dp373
g143
Nsg144
(lp374
S'Sender'
p375
asg147
(i__main__
DelphiNamedType
p376
(dp377
g150
S'TObject'
p378
sg152
g1
sg153
Nsbsg154
Nsba(i__main__
DelphiFormalParameter
p379
(dp380
g143
Nsg144
(lp381
S'Button'
p382
asg147
(i__main__
DelphiNamedType
p383
(dp384
g150
S'TMouseButton'
p385
sg152
g1
sg153
Nsbsg154
Nsba(i__main__
DelphiFormalParameter
p386
(dp387
g143
Nsg144
(lp388
S'Shift'
p389
asg147
(i__main__
DelphiNamedType
p390
(dp391
g150
S'TShiftState'
p392
sg152
g1
sg153
Nsbsg154
Nsba(i__main__
DelphiFormalParameter
p393
(dp394
g143
Nsg144
(lp395
S'X'
aS'Y'
asg147
(i__main__
DelphiPrimitiveType
p396
(dp397
g150
g223
sbsg154
Nsbasg155
g132
sg156
Nsg157
I0
sg158
g159
sbsS'backgroundcolormouseup'
p398
(i__main__
DelphiMethodDeclaration
p399
(dp400
g131
S'backgroundColorMouseUp'
p401
sg139
(lp402
(i__main__
DelphiFormalParameter
p403
(dp404
g143
Nsg144
(lp405
S'Sender'
p406
asg147
(i__main__
DelphiNamedType
p407
(dp408
g150
S'TObject'
p409
sg152
g1
sg153
Nsbsg154
Nsba(i__main__
DelphiFormalParameter
p410
(dp411
g143
Nsg144
(lp412
S'Button'
p413
asg147
(i__main__
DelphiNamedType
p414
(dp415
g150
S'TMouseButton'
p416
sg152
g1
sg153
Nsbsg154
Nsba(i__main__
DelphiFormalParameter
p417
(dp418
g143
Nsg144
(lp419
S'Shift'
p420
asg147
(i__main__
DelphiNamedType
p421
(dp422
g150
S'TShiftState'
p423
sg152
g1
sg153
Nsbsg154
Nsba(i__main__
DelphiFormalParameter
p424
(dp425
g143
Nsg144
(lp426
S'X'
aS'Y'
asg147
(i__main__
DelphiPrimitiveType
p427
(dp428
g150
g223
sbsg154
Nsbasg155
g132
sg156
Nsg157
I0
sg158
g159
sbsS'firstselectionrectanglecolormouseup'
p429
(i__main__
DelphiMethodDeclaration
p430
(dp431
g131
S'firstSelectionRectangleColorMouseUp'
p432
sg139
(lp433
(i__main__
DelphiFormalParameter
p434
(dp435
g143
Nsg144
(lp436
S'Sender'
p437
asg147
(i__main__
DelphiNamedType
p438
(dp439
g150
S'TObject'
p440
sg152
g1
sg153
Nsbsg154
Nsba(i__main__
DelphiFormalParameter
p441
(dp442
g143
Nsg144
(lp443
S'Button'
p444
asg147
(i__main__
DelphiNamedType
p445
(dp446
g150
S'TMouseButton'
p447
sg152
g1
sg153
Nsbsg154
Nsba(i__main__
DelphiFormalParameter
p448
(dp449
g143
Nsg144
(lp450
S'Shift'
p451
asg147
(i__main__
DelphiNamedType
p452
(dp453
g150
S'TShiftState'
p454
sg152
g1
sg153
Nsbsg154
Nsba(i__main__
DelphiFormalParameter
p455
(dp456
g143
Nsg144
(lp457
S'X'
aS'Y'
asg147
(i__main__
DelphiPrimitiveType
p458
(dp459
g150
g223
sbsg154
Nsbasg155
g132
sg156
Nsg157
I0
sg158
g159
sbsS'ghostingcolormouseup'
p460
(i__main__
DelphiMethodDeclaration
p461
(dp462
g131
S'ghostingColorMouseUp'
p463
sg139
(lp464
(i__main__
DelphiFormalParameter
p465
(dp466
g143
Nsg144
(lp467
S'Sender'
p468
asg147
(i__main__
DelphiNamedType
p469
(dp470
g150
S'TObject'
p471
sg152
g1
sg153
Nsbsg154
Nsba(i__main__
DelphiFormalParameter
p472
(dp473
g143
Nsg144
(lp474
S'Button'
p475
asg147
(i__main__
DelphiNamedType
p476
(dp477
g150
S'TMouseButton'
p478
sg152
g1
sg153
Nsbsg154
Nsba(i__main__
DelphiFormalParameter
p479
(dp480
g143
Nsg144
(lp481
S'Shift'
p482
asg147
(i__main__
DelphiNamedType
p483
(dp484
g150
S'TShiftState'
p485
sg152
g1
sg153
Nsbsg154
Nsba(i__main__
DelphiFormalParameter
p486
(dp487
g143
Nsg144
(lp488
S'X'
aS'Y'
asg147
(i__main__
DelphiPrimitiveType
p489
(dp490
g150
g223
sbsg154
Nsbasg155
g132
sg156
Nsg157
I0
sg158
g159
sbsS'transferfields'
p491
(i__main__
DelphiMethodDeclaration
p492
(dp493
g131
S'transferFields'
p494
sg139
(lp495
sg155
g132
sg156
Nsg157
I0
sg158
g159
sS'commentLinesBefore'
p496
(lp497
S' Private declarations '
p498
aS' Public declarations '
p499
asbsS'formcreate'
p500
(i__main__
DelphiMethodDeclaration
p501
(dp502
g131
S'FormCreate'
p503
sg139
(lp504
(i__main__
DelphiFormalParameter
p505
(dp506
g143
Nsg144
(lp507
S'Sender'
p508
asg147
(i__main__
DelphiNamedType
p509
(dp510
g150
S'TObject'
p511
sg152
g1
sg153
Nsbsg154
Nsbasg155
g132
sg156
Nsg157
I0
sg158
g159
sbsS'transfersmallintspineditbox'
p512
(i__main__
DelphiMethodDeclaration
p513
(dp514
g131
S'transferSmallintSpinEditBox'
p515
sg139
(lp516
(i__main__
DelphiFormalParameter
p517
(dp518
g143
Nsg144
(lp519
S'editBox'
p520
asg147
(i__main__
DelphiNamedType
p521
(dp522
g150
S'TSpinEdit'
p523
sg152
g1
sg153
Nsbsg154
Nsba(i__main__
DelphiFormalParameter
p524
(dp525
g143
Nsg144
(lp526
S'value'
p527
asg147
(i__main__
DelphiPrimitiveType
p528
(dp529
g150
S'smallint'
p530
sbsg154
g191
sbasg155
g132
sg156
Nsg157
I0
sg158
g159
sbsS'closeclick'
p531
(i__main__
DelphiMethodDeclaration
p532
(dp533
g131
S'CloseClick'
p534
sg139
(lp535
(i__main__
DelphiFormalParameter
p536
(dp537
g143
Nsg144
(lp538
S'Sender'
p539
asg147
(i__main__
DelphiNamedType
p540
(dp541
g150
S'TObject'
p542
sg152
g1
sg153
Nsbsg154
Nsbasg155
g132
sg156
Nsg157
I0
sg158
g159
sbsS'image1click'
p543
(i__main__
DelphiMethodDeclaration
p544
(dp545
g131
S'Image1Click'
p546
sg139
(lp547
(i__main__
DelphiFormalParameter
p548
(dp549
g143
Nsg144
(lp550
S'Sender'
p551
asg147
(i__main__
DelphiNamedType
p552
(dp553
g150
S'TObject'
p554
sg152
g1
sg153
Nsbsg154
Nsbasg155
g132
sg156
Nsg157
I0
sg158
g159
sbssS'superclassNamedTypes'
p555
(lp556
(i__main__
DelphiNamedType
p557
(dp558
g150
S'PdForm'
p559
sg152
g1
sg153
NsbasS'variableNames'
p560
(dp561
S'wholeprogrambox'
p562
(i__main__
DelphiNamedType
p563
(dp564
g150
S'TGroupBox'
p565
sg152
g1
sg153
NsbsS'backgroundcolorlabel'
p566
(i__main__
DelphiNamedType
p567
(dp568
g150
S'TLabel'
p569
sg152
g1
sg153
NsbsS'openmostrecentfileatstart'
p570
(i__main__
DelphiNamedType
p571
(dp572
g150
S'TCheckBox'
p573
sg152
g1
sg153
NsbsS'transparentcolor'
p574
(i__main__
DelphiNamedType
p575
(dp576
g150
S'TPanel'
p577
sg152
g1
sg153
NsbsS'groupbox5'
p578
(i__main__
DelphiNamedType
p579
(dp580
g150
S'TGroupBox'
p581
sg152
g1
sg153
NsbsS'groupbox4'
p582
(i__main__
DelphiNamedType
p583
(dp584
g150
S'TGroupBox'
p585
sg152
g1
sg153
NsbsS'groupbox7'
p586
(i__main__
DelphiNamedType
p587
(dp588
g150
S'TGroupBox'
p589
sg152
g1
sg153
NsbsS'groupbox6'
p590
(i__main__
DelphiNamedType
p591
(dp592
g150
S'TGroupBox'
p593
sg152
g1
sg153
NsbsS'groupbox1'
p594
(i__main__
DelphiNamedType
p595
(dp596
g150
S'TGroupBox'
p597
sg152
g1
sg153
NsbsS'groupbox2'
p598
(i__main__
DelphiNamedType
p599
(dp600
g150
S'TGroupBox'
p601
sg152
g1
sg153
NsbsS'resizekeyupmultiplierpercent'
p602
(i__main__
DelphiNamedType
p603
(dp604
g150
S'TSpinEdit'
p605
sg152
g1
sg153
NsbsS'rotationincrementlabel'
p606
(i__main__
DelphiNamedType
p607
(dp608
g150
S'TLabel'
p609
sg152
g1
sg153
NsbsS'cancel'
p610
(i__main__
DelphiNamedType
p611
(dp612
g150
S'TButton'
p613
sg152
g1
sg153
NsbsS'close'
p614
(i__main__
DelphiNamedType
p615
(dp616
g150
S'TButton'
p617
sg152
g1
sg153
NsbsS'transparentcolorlabel'
p618
(i__main__
DelphiNamedType
p619
(dp620
g150
S'TLabel'
p621
sg152
g1
sg153
NsbsS'selectedposedcolor'
p622
(i__main__
DelphiNamedType
p623
(dp624
g150
S'TPanel'
p625
sg152
g1
sg153
NsbsS'nudgedistancelabel'
p626
(i__main__
DelphiNamedType
p627
(dp628
g150
S'TLabel'
p629
sg152
g1
sg153
NsbsS'label10'
p630
(i__main__
DelphiNamedType
p631
(dp632
g150
S'TLabel'
p633
sg152
g1
sg153
NsbsS'transferdirection'
p634
(i__main__
DelphiPrimitiveType
p635
(dp636
g150
g530
sbsS'showplantdrawingprogress'
p637
(i__main__
DelphiNamedType
p638
(dp639
g150
S'TCheckBox'
p640
sg152
g1
sg153
NsbsS'multiselectionrectanglecolorlabel'
p641
(i__main__
DelphiNamedType
p642
(dp643
g150
S'TLabel'
p644
sg152
g1
sg153
NsbsS'helpbutton'
p645
(i__main__
DelphiNamedType
p646
(dp647
g150
S'TSpeedButton'
p648
sg152
g1
sg153
NsbsS'ghostingcolor'
p649
(i__main__
DelphiNamedType
p650
(dp651
g150
S'TPanel'
p652
sg152
g1
sg153
NsbsS'multiselectionrectanglecolor'
p653
(i__main__
DelphiNamedType
p654
(dp655
g150
S'TPanel'
p656
sg152
g1
sg153
NsbsS'undolimitlabel'
p657
(i__main__
DelphiNamedType
p658
(dp659
g150
S'TLabel'
p660
sg152
g1
sg153
NsbsS'undolimitofplants'
p661
(i__main__
DelphiNamedType
p662
(dp663
g150
S'TSpinEdit'
p664
sg152
g1
sg153
NsbsS'parametersfontsizelabel'
p665
(i__main__
DelphiNamedType
p666
(dp667
g150
S'TLabel'
p668
sg152
g1
sg153
NsbsS'ignorewindowsettingsinfile'
p669
(i__main__
DelphiNamedType
p670
(dp671
g150
S'TCheckBox'
p672
sg152
g1
sg153
NsbsS'pauseduringhint'
p673
(i__main__
DelphiNamedType
p674
(dp675
g150
S'TSpinEdit'
p676
sg152
g1
sg153
NsbsS'drawwithopengl'
p677
(i__main__
DelphiNamedType
p678
(dp679
g150
S'TCheckBox'
p680
sg152
g1
sg153
NsbsS'optionsnotebook'
p681
(i__main__
DelphiNamedType
p682
(dp683
g150
S'TTabbedNotebook'
p684
sg152
g1
sg153
NsbsS'rotationincrement'
p685
(i__main__
DelphiNamedType
p686
(dp687
g150
S'TSpinEdit'
p688
sg152
g1
sg153
NsbsS'optionschanged'
p689
(i__main__
DelphiPrimitiveType
p690
(dp691
g150
g254
sbsS'label9'
p692
(i__main__
DelphiNamedType
p693
(dp694
g150
S'TLabel'
p695
sg152
g1
sg153
NsbsS'memorylimitforplantbitmaps_mb'
p696
(i__main__
DelphiNamedType
p697
(dp698
g150
S'TSpinEdit'
p699
sg152
g1
sg153
NsbsS'resizerectsizelabel'
p700
(i__main__
DelphiNamedType
p701
(dp702
g150
S'TLabel'
p703
sg152
g1
sg153
NsbsS'pasterectsize'
p704
(i__main__
DelphiNamedType
p705
(dp706
g150
S'TSpinEdit'
p707
sg152
g1
sg153
NsbsS'label1'
p708
(i__main__
DelphiNamedType
p709
(dp710
g150
S'TLabel'
p711
sg152
g1
sg153
NsbsS'label3'
p712
(i__main__
DelphiNamedType
p713
(dp714
g150
S'TLabel'
p715
sg152
g1
sg153
NsbsS'parametersfontsize'
p716
(i__main__
DelphiNamedType
p717
(dp718
g150
S'TSpinEdit'
p719
sg152
g1
sg153
NsbsS'backgroundcolor'
p720
(i__main__
DelphiNamedType
p721
(dp722
g150
S'TPanel'
p723
sg152
g1
sg153
NsbsS'panel1'
p724
(i__main__
DelphiNamedType
p725
(dp726
g150
S'TPanel'
p727
sg152
g1
sg153
NsbsS'nonhiddenposedcolor'
p728
(i__main__
DelphiNamedType
p729
(dp730
g150
S'TPanel'
p731
sg152
g1
sg153
NsbsS'image1'
p732
(i__main__
DelphiNamedType
p733
(dp734
g150
S'TImage'
p735
sg152
g1
sg153
NsbsS'firstselectionrectanglecolorlabel'
p736
(i__main__
DelphiNamedType
p737
(dp738
g150
S'TLabel'
p739
sg152
g1
sg153
NsbsS'memorylimitlabel'
p740
(i__main__
DelphiNamedType
p741
(dp742
g150
S'TLabel'
p743
sg152
g1
sg153
NsbsS'resizedistancelabel'
p744
(i__main__
DelphiNamedType
p745
(dp746
g150
S'TLabel'
p747
sg152
g1
sg153
NsbsS'undolimitofplantslabel'
p748
(i__main__
DelphiNamedType
p749
(dp750
g150
S'TLabel'
p751
sg152
g1
sg153
NsbsS'pasterectsizelabel'
p752
(i__main__
DelphiNamedType
p753
(dp754
g150
S'TLabel'
p755
sg152
g1
sg153
NsbsS'firstselectionrectanglecolor'
p756
(i__main__
DelphiNamedType
p757
(dp758
g150
S'TPanel'
p759
sg152
g1
sg153
NsbsS'mainwindowdrawingoptionsbox'
p760
(i__main__
DelphiNamedType
p761
(dp762
g150
S'TGroupBox'
p763
sg152
g1
sg153
NsbsS'pausebeforehintlabel'
p764
(i__main__
DelphiNamedType
p765
(dp766
g150
S'TLabel'
p767
sg152
g1
sg153
NsbsS'usemetricunits'
p768
(i__main__
DelphiNamedType
p769
(dp770
g150
S'TCheckBox'
p771
sg152
g1
sg153
NsbsS'resizerectsize'
p772
(i__main__
DelphiNamedType
p773
(dp774
g150
S'TSpinEdit'
p775
sg152
g1
sg153
NsbsS'pauseduringhintlabel'
p776
(i__main__
DelphiNamedType
p777
(dp778
g150
S'TLabel'
p779
sg152
g1
sg153
NsbsS'undolimit'
p780
(i__main__
DelphiNamedType
p781
(dp782
g150
S'TSpinEdit'
p783
sg152
g1
sg153
NsbsS'messageshown'
p784
(i__main__
DelphiPrimitiveType
p785
(dp786
g150
g530
sbsS'nudgedistance'
p787
(i__main__
DelphiNamedType
p788
(dp789
g150
S'TSpinEdit'
p790
sg152
g1
sg153
NsbsS'customdrawoptions'
p791
(i__main__
DelphiNamedType
p792
(dp793
g150
S'TButton'
p794
sg152
g1
sg153
NsbsS'options'
p795
(i__main__
DelphiNamedType
p796
(dp797
g150
S'DomainOptionsStructure'
p798
sg152
g1
sg153
NsbsS'pausebeforehint'
p799
(i__main__
DelphiNamedType
p800
(dp801
g150
S'TSpinEdit'
p802
sg152
g1
sg153
NsbssS'methodNamesInDefinedOrder'
p803
(lp804
S'formcreate'
p805
aS'formactivate'
p806
aS'closeclick'
p807
aS'cancelclick'
p808
aS'transferfields'
p809
aS'transfercheckbox'
p810
aS'transfercolor'
p811
aS'transfersmallintspineditbox'
p812
aS'transferfloateditbox'
p813
aS'backgroundcolormouseup'
p814
aS'transparentcolormouseup'
p815
aS'firstselectionrectanglecolormouseup'
p816
aS'multiselectionrectanglecolormouseup'
p817
aS'ghostingcolormouseup'
p818
aS'nonhiddenposedcolormouseup'
p819
aS'selectedposedcolormouseup'
p820
aS'formkeypress'
p821
aS'helpbuttonclick'
p822
aS'customdrawoptionsclick'
p823
aS'image1click'
p824
asS'methodImplementations'
p825
(dp826
S'transferfields'
p827
(i__main__
DelphiMethodImplementation
p828
(dp829
S'originalDeclaration'
p830
g492
sg131
g494
sg139
(lp831
sS'varParamIndexes'
p832
(lp833
sS'varParamsSkipped'
p834
(lp835
sS'argNames'
p836
(lp837
S'self'
p838
asS'argTypes'
p839
(dp840
sg155
S'TOptionsForm'
p841
sg156
NsS'varParamNames'
p842
(lp843
sg157
I0
sg158
g159
sS'block'
p844
(i__main__
DelphiBlock
p845
(dp846
S'compoundStatement'
p847
(idelphi
DelphiCompoundStatement
p848
(dp849
S'statements'
p850
(lp851
(i__main__
DelphiAssignStatement
p852
(dp853
S'newValueExpression'
p854
NsS'destinationExpression'
p855
(i__main__
DelphiIdentAccess
p856
(dp857
S'ident'
p858
S'transferSmallintSpinEditBox'
p859
sS'endAccessList'
p860
(lp861
(idelphi
DelphiFunctionEndAccess
p862
(dp863
S'expressionList'
p864
(lp865
(i__main__
DelphiIdentAccess
p866
(dp867
g858
S'memoryLimitForPlantBitmaps_MB'
p868
sg860
(lp869
sba(i__main__
DelphiIdentAccess
p870
(dp871
g858
S'options'
p872
sg860
(lp873
(idelphi
DelphiFieldEndAccess
p874
(dp875
S'field'
p876
S'memoryLimitForPlantBitmaps_MB'
p877
sbasbasbasbsg496
(lp878
S' DRAWING\r'
p879
asba(i__main__
DelphiAssignStatement
p880
(dp881
g854
Nsg855
(i__main__
DelphiIdentAccess
p882
(dp883
g858
S'transferColor'
p884
sg860
(lp885
(idelphi
DelphiFunctionEndAccess
p886
(dp887
g864
(lp888
(i__main__
DelphiIdentAccess
p889
(dp890
g858
S'backgroundColor'
p891
sg860
(lp892
sba(i__main__
DelphiIdentAccess
p893
(dp894
g858
S'options'
p895
sg860
(lp896
(idelphi
DelphiFieldEndAccess
p897
(dp898
g876
S'backgroundColor'
p899
sbasbasbasbsba(i__main__
DelphiAssignStatement
p900
(dp901
g854
Nsg855
(i__main__
DelphiIdentAccess
p902
(dp903
g858
S'transferColor'
p904
sg860
(lp905
(idelphi
DelphiFunctionEndAccess
p906
(dp907
g864
(lp908
(i__main__
DelphiIdentAccess
p909
(dp910
g858
S'transparentColor'
p911
sg860
(lp912
sba(i__main__
DelphiIdentAccess
p913
(dp914
g858
S'options'
p915
sg860
(lp916
(idelphi
DelphiFieldEndAccess
p917
(dp918
g876
S'transparentColor'
p919
sbasbasbasbsba(i__main__
DelphiAssignStatement
p920
(dp921
g854
Nsg855
(i__main__
DelphiIdentAccess
p922
(dp923
g858
S'transferCheckBox'
p924
sg860
(lp925
(idelphi
DelphiFunctionEndAccess
p926
(dp927
g864
(lp928
(i__main__
DelphiIdentAccess
p929
(dp930
g858
S'showPlantDrawingProgress'
p931
sg860
(lp932
sba(i__main__
DelphiIdentAccess
p933
(dp934
g858
S'options'
p935
sg860
(lp936
(idelphi
DelphiFieldEndAccess
p937
(dp938
g876
S'showPlantDrawingProgress'
p939
sbasbasbasbsba(i__main__
DelphiAssignStatement
p940
(dp941
g854
Nsg855
(i__main__
DelphiIdentAccess
p942
(dp943
g858
S'transferColor'
p944
sg860
(lp945
(idelphi
DelphiFunctionEndAccess
p946
(dp947
g864
(lp948
(i__main__
DelphiIdentAccess
p949
(dp950
g858
S'firstSelectionRectangleColor'
p951
sg860
(lp952
sba(i__main__
DelphiIdentAccess
p953
(dp954
g858
S'options'
p955
sg860
(lp956
(idelphi
DelphiFieldEndAccess
p957
(dp958
g876
S'firstSelectionRectangleColor'
p959
sbasbasbasbsg496
(lp960
S' SELECTING\r'
p961
asba(i__main__
DelphiAssignStatement
p962
(dp963
g854
Nsg855
(i__main__
DelphiIdentAccess
p964
(dp965
g858
S'transferColor'
p966
sg860
(lp967
(idelphi
DelphiFunctionEndAccess
p968
(dp969
g864
(lp970
(i__main__
DelphiIdentAccess
p971
(dp972
g858
S'multiSelectionRectangleColor'
p973
sg860
(lp974
sba(i__main__
DelphiIdentAccess
p975
(dp976
g858
S'options'
p977
sg860
(lp978
(idelphi
DelphiFieldEndAccess
p979
(dp980
g876
S'multiSelectionRectangleColor'
p981
sbasbasbasbsba(i__main__
DelphiAssignStatement
p982
(dp983
g854
Nsg855
(i__main__
DelphiIdentAccess
p984
(dp985
g858
S'transferSmallintSpinEditBox'
p986
sg860
(lp987
(idelphi
DelphiFunctionEndAccess
p988
(dp989
g864
(lp990
(i__main__
DelphiIdentAccess
p991
(dp992
g858
S'resizeRectSize'
p993
sg860
(lp994
sba(i__main__
DelphiIdentAccess
p995
(dp996
g858
S'options'
p997
sg860
(lp998
(idelphi
DelphiFieldEndAccess
p999
(dp1000
g876
S'resizeRectSize'
p1001
sbasbasbasbsba(i__main__
DelphiAssignStatement
p1002
(dp1003
g854
Nsg855
(i__main__
DelphiIdentAccess
p1004
(dp1005
g858
S'transferColor'
p1006
sg860
(lp1007
(idelphi
DelphiFunctionEndAccess
p1008
(dp1009
g864
(lp1010
(i__main__
DelphiIdentAccess
p1011
(dp1012
g858
S'ghostingColor'
p1013
sg860
(lp1014
sba(i__main__
DelphiIdentAccess
p1015
(dp1016
g858
S'options'
p1017
sg860
(lp1018
(idelphi
DelphiFieldEndAccess
p1019
(dp1020
g876
S'ghostingColor'
p1021
sbasbasbasbsba(i__main__
DelphiAssignStatement
p1022
(dp1023
g854
Nsg855
(i__main__
DelphiIdentAccess
p1024
(dp1025
g858
S'transferColor'
p1026
sg860
(lp1027
(idelphi
DelphiFunctionEndAccess
p1028
(dp1029
g864
(lp1030
(i__main__
DelphiIdentAccess
p1031
(dp1032
g858
S'nonHiddenPosedColor'
p1033
sg860
(lp1034
sba(i__main__
DelphiIdentAccess
p1035
(dp1036
g858
S'options'
p1037
sg860
(lp1038
(idelphi
DelphiFieldEndAccess
p1039
(dp1040
g876
S'nonHiddenPosedColor'
p1041
sbasbasbasbsba(i__main__
DelphiAssignStatement
p1042
(dp1043
g854
Nsg855
(i__main__
DelphiIdentAccess
p1044
(dp1045
g858
S'transferColor'
p1046
sg860
(lp1047
(idelphi
DelphiFunctionEndAccess
p1048
(dp1049
g864
(lp1050
(i__main__
DelphiIdentAccess
p1051
(dp1052
g858
S'selectedPosedColor'
p1053
sg860
(lp1054
sba(i__main__
DelphiIdentAccess
p1055
(dp1056
g858
S'options'
p1057
sg860
(lp1058
(idelphi
DelphiFieldEndAccess
p1059
(dp1060
g876
S'selectedPosedColor'
p1061
sbasbasbasbsba(i__main__
DelphiAssignStatement
p1062
(dp1063
g854
Nsg855
(i__main__
DelphiIdentAccess
p1064
(dp1065
g858
S'transferSmallintSpinEditBox'
p1066
sg860
(lp1067
(idelphi
DelphiFunctionEndAccess
p1068
(dp1069
g864
(lp1070
(i__main__
DelphiIdentAccess
p1071
(dp1072
g858
S'rotationIncrement'
p1073
sg860
(lp1074
sba(i__main__
DelphiIdentAccess
p1075
(dp1076
g858
S'options'
p1077
sg860
(lp1078
(idelphi
DelphiFieldEndAccess
p1079
(dp1080
g876
S'rotationIncrement'
p1081
sbasbasbasbsg496
(lp1082
S' EDITING\r'
p1083
asba(i__main__
DelphiAssignStatement
p1084
(dp1085
g854
Nsg855
(i__main__
DelphiIdentAccess
p1086
(dp1087
g858
S'transferSmallintSpinEditBox'
p1088
sg860
(lp1089
(idelphi
DelphiFunctionEndAccess
p1090
(dp1091
g864
(lp1092
(i__main__
DelphiIdentAccess
p1093
(dp1094
g858
S'nudgeDistance'
p1095
sg860
(lp1096
sba(i__main__
DelphiIdentAccess
p1097
(dp1098
g858
S'options'
p1099
sg860
(lp1100
(idelphi
DelphiFieldEndAccess
p1101
(dp1102
g876
S'nudgeDistance'
p1103
sbasbasbasbsba(i__main__
DelphiAssignStatement
p1104
(dp1105
g854
Nsg855
(i__main__
DelphiIdentAccess
p1106
(dp1107
g858
S'transferSmallintSpinEditBox'
p1108
sg860
(lp1109
(idelphi
DelphiFunctionEndAccess
p1110
(dp1111
g864
(lp1112
(i__main__
DelphiIdentAccess
p1113
(dp1114
g858
S'resizeKeyUpMultiplierPercent'
p1115
sg860
(lp1116
sba(i__main__
DelphiIdentAccess
p1117
(dp1118
g858
S'options'
p1119
sg860
(lp1120
(idelphi
DelphiFieldEndAccess
p1121
(dp1122
g876
S'resizeKeyUpMultiplierPercent'
p1123
sbasbasbasbsba(i__main__
DelphiAssignStatement
p1124
(dp1125
g854
Nsg855
(i__main__
DelphiIdentAccess
p1126
(dp1127
g858
S'transferSmallintSpinEditBox'
p1128
sg860
(lp1129
(idelphi
DelphiFunctionEndAccess
p1130
(dp1131
g864
(lp1132
(i__main__
DelphiIdentAccess
p1133
(dp1134
g858
S'pasteRectSize'
p1135
sg860
(lp1136
sba(i__main__
DelphiIdentAccess
p1137
(dp1138
g858
S'options'
p1139
sg860
(lp1140
(idelphi
DelphiFieldEndAccess
p1141
(dp1142
g876
S'pasteRectSize'
p1143
sbasbasbasbsba(i__main__
DelphiAssignStatement
p1144
(dp1145
g854
Nsg855
(i__main__
DelphiIdentAccess
p1146
(dp1147
g858
S'transferSmallintSpinEditBox'
p1148
sg860
(lp1149
(idelphi
DelphiFunctionEndAccess
p1150
(dp1151
g864
(lp1152
(i__main__
DelphiIdentAccess
p1153
(dp1154
g858
S'undoLimit'
p1155
sg860
(lp1156
sba(i__main__
DelphiIdentAccess
p1157
(dp1158
g858
S'options'
p1159
sg860
(lp1160
(idelphi
DelphiFieldEndAccess
p1161
(dp1162
g876
S'undoLimit'
p1163
sbasbasbasbsg496
(lp1164
S' UNDOING\r'
p1165
asba(i__main__
DelphiAssignStatement
p1166
(dp1167
g854
Nsg855
(i__main__
DelphiIdentAccess
p1168
(dp1169
g858
S'transferSmallintSpinEditBox'
p1170
sg860
(lp1171
(idelphi
DelphiFunctionEndAccess
p1172
(dp1173
g864
(lp1174
(i__main__
DelphiIdentAccess
p1175
(dp1176
g858
S'undoLimitOfPlants'
p1177
sg860
(lp1178
sba(i__main__
DelphiIdentAccess
p1179
(dp1180
g858
S'options'
p1181
sg860
(lp1182
(idelphi
DelphiFieldEndAccess
p1183
(dp1184
g876
S'undoLimitOfPlants'
p1185
sbasbasbasbsba(i__main__
DelphiAssignStatement
p1186
(dp1187
g854
Nsg855
(i__main__
DelphiIdentAccess
p1188
(dp1189
g858
S'transferCheckBox'
p1190
sg860
(lp1191
(idelphi
DelphiFunctionEndAccess
p1192
(dp1193
g864
(lp1194
(i__main__
DelphiIdentAccess
p1195
(dp1196
g858
S'openMostRecentFileAtStart'
p1197
sg860
(lp1198
sba(i__main__
DelphiIdentAccess
p1199
(dp1200
g858
S'options'
p1201
sg860
(lp1202
(idelphi
DelphiFieldEndAccess
p1203
(dp1204
g876
S'openMostRecentFileAtStart'
p1205
sbasbasbasbsg496
(lp1206
S' MISCELLANEOUS\r'
p1207
asba(i__main__
DelphiAssignStatement
p1208
(dp1209
g854
Nsg855
(i__main__
DelphiIdentAccess
p1210
(dp1211
g858
S'transferCheckBox'
p1212
sg860
(lp1213
(idelphi
DelphiFunctionEndAccess
p1214
(dp1215
g864
(lp1216
(i__main__
DelphiIdentAccess
p1217
(dp1218
g858
S'ignoreWindowSettingsInFile'
p1219
sg860
(lp1220
sba(i__main__
DelphiIdentAccess
p1221
(dp1222
g858
S'options'
p1223
sg860
(lp1224
(idelphi
DelphiFieldEndAccess
p1225
(dp1226
g876
S'ignoreWindowSettingsInFile'
p1227
sbasbasbasbsg496
(lp1228
S' v2.1\r'
p1229
asba(i__main__
DelphiAssignStatement
p1230
(dp1231
g854
Nsg855
(i__main__
DelphiIdentAccess
p1232
(dp1233
g858
S'transferCheckBox'
p1234
sg860
(lp1235
(idelphi
DelphiFunctionEndAccess
p1236
(dp1237
g864
(lp1238
(i__main__
DelphiIdentAccess
p1239
(dp1240
g858
S'useMetricUnits'
p1241
sg860
(lp1242
sba(i__main__
DelphiIdentAccess
p1243
(dp1244
g858
S'options'
p1245
sg860
(lp1246
(idelphi
DelphiFieldEndAccess
p1247
(dp1248
g876
S'useMetricUnits'
p1249
sbasbasbasbsba(i__main__
DelphiAssignStatement
p1250
(dp1251
g854
Nsg855
(i__main__
DelphiIdentAccess
p1252
(dp1253
g858
S'transferSmallintSpinEditBox'
p1254
sg860
(lp1255
(idelphi
DelphiFunctionEndAccess
p1256
(dp1257
g864
(lp1258
(i__main__
DelphiIdentAccess
p1259
(dp1260
g858
S'parametersFontSize'
p1261
sg860
(lp1262
sba(i__main__
DelphiIdentAccess
p1263
(dp1264
g858
S'options'
p1265
sg860
(lp1266
(idelphi
DelphiFieldEndAccess
p1267
(dp1268
g876
S'parametersFontSize'
p1269
sbasbasbasbsba(i__main__
DelphiAssignStatement
p1270
(dp1271
g854
Nsg855
(i__main__
DelphiIdentAccess
p1272
(dp1273
g858
S'transferSmallintSpinEditBox'
p1274
sg860
(lp1275
(idelphi
DelphiFunctionEndAccess
p1276
(dp1277
g864
(lp1278
(i__main__
DelphiIdentAccess
p1279
(dp1280
g858
S'pauseBeforeHint'
p1281
sg860
(lp1282
sba(i__main__
DelphiIdentAccess
p1283
(dp1284
g858
S'options'
p1285
sg860
(lp1286
(idelphi
DelphiFieldEndAccess
p1287
(dp1288
g876
S'pauseBeforeHint'
p1289
sbasbasbasbsba(i__main__
DelphiAssignStatement
p1290
(dp1291
g854
Nsg855
(i__main__
DelphiIdentAccess
p1292
(dp1293
g858
S'transferSmallintSpinEditBox'
p1294
sg860
(lp1295
(idelphi
DelphiFunctionEndAccess
p1296
(dp1297
g864
(lp1298
(i__main__
DelphiIdentAccess
p1299
(dp1300
g858
S'pauseDuringHint'
p1301
sg860
(lp1302
sba(i__main__
DelphiIdentAccess
p1303
(dp1304
g858
S'options'
p1305
sg860
(lp1306
(idelphi
DelphiFieldEndAccess
p1307
(dp1308
g876
S'pauseDuringHint'
p1309
sbasbasbasbsbasbsS'limitedDeclSectionList'
p1310
(lp1311
sbsg496
g497
sbsS'formactivate'
p1312
(i__main__
DelphiMethodImplementation
p1313
(dp1314
g830
g161
sg131
g163
sg139
(lp1315
(i__main__
DelphiFormalParameter
p1316
(dp1317
g143
Nsg144
(lp1318
S'Sender'
p1319
asg147
(i__main__
DelphiNamedType
p1320
(dp1321
g150
S'TObject'
p1322
sg152
g1
sg153
Nsbsg154
Nsbasg832
(lp1323
sg834
(lp1324
sg836
(lp1325
g838
ag1319
asg839
(dp1326
g1319
g1320
ssg155
S'TOptionsForm'
p1327
sg156
Nsg842
(lp1328
sg157
I0
sg158
g159
sg844
(i__main__
DelphiBlock
p1329
(dp1330
g847
(idelphi
DelphiCompoundStatement
p1331
(dp1332
g850
(lp1333
(i__main__
DelphiAssignStatement
p1334
(dp1335
g854
(i__main__
DelphiIdentAccess
p1336
(dp1337
g858
S'kTransferLoad'
p1338
sg860
(lp1339
sbsg855
(i__main__
DelphiIdentAccess
p1340
(dp1341
g858
S'transferDirection'
p1342
sg860
(lp1343
sbsba(i__main__
DelphiAssignStatement
p1344
(dp1345
g854
Nsg855
(i__main__
DelphiIdentAccess
p1346
(dp1347
g858
S'self'
p1348
sg860
(lp1349
(idelphi
DelphiFieldEndAccess
p1350
(dp1351
g876
S'transferFields'
p1352
sbasbsbasbsg1310
(lp1353
sbsbsS'multiselectionrectanglecolormouseup'
p1354
(i__main__
DelphiMethodImplementation
p1355
(dp1356
g830
g193
sg131
g195
sg139
(lp1357
(i__main__
DelphiFormalParameter
p1358
(dp1359
g143
Nsg144
(lp1360
S'Sender'
p1361
asg147
(i__main__
DelphiNamedType
p1362
(dp1363
g150
S'TObject'
p1364
sg152
g1
sg153
Nsbsg154
Nsba(i__main__
DelphiFormalParameter
p1365
(dp1366
g143
Nsg144
(lp1367
S'Button'
p1368
asg147
(i__main__
DelphiNamedType
p1369
(dp1370
g150
S'TMouseButton'
p1371
sg152
g1
sg153
Nsbsg154
Nsba(i__main__
DelphiFormalParameter
p1372
(dp1373
g143
Nsg144
(lp1374
S'Shift'
p1375
asg147
(i__main__
DelphiNamedType
p1376
(dp1377
g150
S'TShiftState'
p1378
sg152
g1
sg153
Nsbsg154
Nsba(i__main__
DelphiFormalParameter
p1379
(dp1380
g143
Nsg144
(lp1381
S'X'
aS'Y'
asg147
(i__main__
DelphiPrimitiveType
p1382
(dp1383
g150
g223
sbsg154
Nsbasg832
(lp1384
sg834
(lp1385
sg836
(lp1386
g838
ag1361
ag1368
ag1375
aS'X'
aS'Y'
asg839
(dp1387
S'Y'
g1382
sg1375
g1376
sg1368
g1369
sg1361
g1362
sS'X'
g1382
ssg155
S'TOptionsForm'
p1388
sg156
Nsg842
(lp1389
sg157
I0
sg158
g159
sg844
(i__main__
DelphiBlock
p1390
(dp1391
g847
(idelphi
DelphiCompoundStatement
p1392
(dp1393
g850
(lp1394
(i__main__
DelphiAssignStatement
p1395
(dp1396
g854
(i__main__
DelphiIdentAccess
p1397
(dp1398
g858
S'domain'
p1399
sg860
(lp1400
(idelphi
DelphiFieldEndAccess
p1401
(dp1402
g876
S'getColorUsingCustomColors'
p1403
sba(idelphi
DelphiFunctionEndAccess
p1404
(dp1405
g864
(lp1406
(i__main__
DelphiIdentAccess
p1407
(dp1408
g858
S'multiSelectionRectangleColor'
p1409
sg860
(lp1410
(idelphi
DelphiFieldEndAccess
p1411
(dp1412
g876
S'color'
p1413
sbasbasbasbsg855
(i__main__
DelphiIdentAccess
p1414
(dp1415
g858
S'multiSelectionRectangleColor'
p1416
sg860
(lp1417
(idelphi
DelphiFieldEndAccess
p1418
(dp1419
g876
S'color'
p1420
sbasbsbasbsg1310
(lp1421
sbsbsS'cancelclick'
p1422
(i__main__
DelphiMethodImplementation
p1423
(dp1424
g830
g225
sg131
g227
sg139
(lp1425
(i__main__
DelphiFormalParameter
p1426
(dp1427
g143
Nsg144
(lp1428
S'Sender'
p1429
asg147
(i__main__
DelphiNamedType
p1430
(dp1431
g150
S'TObject'
p1432
sg152
g1
sg153
Nsbsg154
Nsbasg832
(lp1433
sg834
(lp1434
sg836
(lp1435
g838
ag1429
asg839
(dp1436
g1429
g1430
ssg155
S'TOptionsForm'
p1437
sg156
Nsg842
(lp1438
sg157
I0
sg158
g159
sg844
(i__main__
DelphiBlock
p1439
(dp1440
g847
(idelphi
DelphiCompoundStatement
p1441
(dp1442
g850
(lp1443
(i__main__
DelphiAssignStatement
p1444
(dp1445
g854
(i__main__
DelphiIdentAccess
p1446
(dp1447
g858
S'mrCancel'
p1448
sg860
(lp1449
sbsg855
(i__main__
DelphiIdentAccess
p1450
(dp1451
g858
S'modalResult'
p1452
sg860
(lp1453
sbsbasbsg1310
(lp1454
sbsbsS'transfercheckbox'
p1455
(i__main__
DelphiMethodImplementation
p1456
(dp1457
g830
g237
sg131
g239
sg139
(lp1458
(i__main__
DelphiFormalParameter
p1459
(dp1460
g143
Nsg144
(lp1461
S'checkBox'
p1462
asg147
(i__main__
DelphiNamedType
p1463
(dp1464
g150
S'TCheckBox'
p1465
sg152
g1
sg153
Nsbsg154
Nsba(i__main__
DelphiFormalParameter
p1466
(dp1467
g143
Nsg144
(lp1468
S'value'
p1469
asg147
(i__main__
DelphiPrimitiveType
p1470
(dp1471
g150
g254
sbsg154
g191
sbasg832
(lp1472
I1
asg834
(lp1473
sg836
(lp1474
g838
ag1462
ag1469
asg839
(dp1475
g1462
g1463
sg1469
g1470
ssg155
S'TOptionsForm'
p1476
sg156
Nsg842
(lp1477
g1469
asg157
I0
sg158
g159
sg844
(i__main__
DelphiBlock
p1478
(dp1479
g847
(idelphi
DelphiCompoundStatement
p1480
(dp1481
g850
(lp1482
(idelphi
DelphiIfStatement
p1483
(dp1484
S'expression'
p1485
(idelphi
DelphiRelOp
p1486
(dp1487
S'simpleExpression1'
p1488
(i__main__
DelphiIdentAccess
p1489
(dp1490
g858
S'transferDirection'
p1491
sg860
(lp1492
sbsS'simpleExpression2'
p1493
(i__main__
DelphiIdentAccess
p1494
(dp1495
g858
S'kTransferLoad'
p1496
sg860
(lp1497
sbsS'relOp'
p1498
S'='
sbsS'ifFalseStatement'
p1499
(idelphi
DelphiIfStatement
p1500
(dp1501
g1485
(idelphi
DelphiRelOp
p1502
(dp1503
g1488
(i__main__
DelphiIdentAccess
p1504
(dp1505
g858
S'transferDirection'
p1506
sg860
(lp1507
sbsg1493
(i__main__
DelphiIdentAccess
p1508
(dp1509
g858
S'kTransferSave'
p1510
sg860
(lp1511
sbsg1498
S'='
sbsg1499
NsS'ifTrueStatement'
p1512
(idelphi
DelphiCompoundStatement
p1513
(dp1514
g850
(lp1515
(idelphi
DelphiIfStatement
p1516
(dp1517
g1485
(idelphi
DelphiRelOp
p1518
(dp1519
g1488
(i__main__
DelphiIdentAccess
p1520
(dp1521
g858
S'value'
p1522
sg860
(lp1523
sbsg1493
(i__main__
DelphiIdentAccess
p1524
(dp1525
g858
S'checkBox'
p1526
sg860
(lp1527
(idelphi
DelphiFieldEndAccess
p1528
(dp1529
g876
S'checked'
p1530
sbasbsg1498
S'<>'
p1531
sbsg1499
Nsg1512
(i__main__
DelphiAssignStatement
p1532
(dp1533
g854
(i__main__
DelphiIdentAccess
p1534
(dp1535
g858
S'true'
p1536
sg860
(lp1537
sbsg855
(i__main__
DelphiIdentAccess
p1538
(dp1539
g858
S'optionsChanged'
p1540
sg860
(lp1541
sbsbsba(i__main__
DelphiAssignStatement
p1542
(dp1543
g854
(i__main__
DelphiIdentAccess
p1544
(dp1545
g858
S'checkBox'
p1546
sg860
(lp1547
(idelphi
DelphiFieldEndAccess
p1548
(dp1549
g876
S'checked'
p1550
sbasbsg855
(i__main__
DelphiIdentAccess
p1551
(dp1552
g858
S'value'
p1553
sg860
(lp1554
sbsbasbsbsg1512
(i__main__
DelphiAssignStatement
p1555
(dp1556
g854
(i__main__
DelphiIdentAccess
p1557
(dp1558
g858
S'value'
p1559
sg860
(lp1560
sbsg855
(i__main__
DelphiIdentAccess
p1561
(dp1562
g858
S'checkBox'
p1563
sg860
(lp1564
(idelphi
DelphiFieldEndAccess
p1565
(dp1566
g876
S'checked'
p1567
sbasbsbsbasbsg1310
(lp1568
sbsbsS'selectedposedcolormouseup'
p1569
(i__main__
DelphiMethodImplementation
p1570
(dp1571
g830
g306
sg131
g308
sg139
(lp1572
(i__main__
DelphiFormalParameter
p1573
(dp1574
g143
Nsg144
(lp1575
S'Sender'
p1576
asg147
(i__main__
DelphiNamedType
p1577
(dp1578
g150
S'TObject'
p1579
sg152
g1
sg153
Nsbsg154
Nsba(i__main__
DelphiFormalParameter
p1580
(dp1581
g143
Nsg144
(lp1582
S'Button'
p1583
asg147
(i__main__
DelphiNamedType
p1584
(dp1585
g150
S'TMouseButton'
p1586
sg152
g1
sg153
Nsbsg154
Nsba(i__main__
DelphiFormalParameter
p1587
(dp1588
g143
Nsg144
(lp1589
S'Shift'
p1590
asg147
(i__main__
DelphiNamedType
p1591
(dp1592
g150
S'TShiftState'
p1593
sg152
g1
sg153
Nsbsg154
Nsba(i__main__
DelphiFormalParameter
p1594
(dp1595
g143
Nsg144
(lp1596
S'X'
aS'Y'
asg147
(i__main__
DelphiPrimitiveType
p1597
(dp1598
g150
g223
sbsg154
Nsbasg832
(lp1599
sg834
(lp1600
sg836
(lp1601
g838
ag1576
ag1583
ag1590
aS'X'
aS'Y'
asg839
(dp1602
S'Y'
g1597
sg1590
g1591
sg1583
g1584
sg1576
g1577
sS'X'
g1597
ssg155
S'TOptionsForm'
p1603
sg156
Nsg842
(lp1604
sg157
I0
sg158
g159
sg844
(i__main__
DelphiBlock
p1605
(dp1606
g847
(idelphi
DelphiCompoundStatement
p1607
(dp1608
g850
(lp1609
(i__main__
DelphiAssignStatement
p1610
(dp1611
g854
(i__main__
DelphiIdentAccess
p1612
(dp1613
g858
S'domain'
p1614
sg860
(lp1615
(idelphi
DelphiFieldEndAccess
p1616
(dp1617
g876
S'getColorUsingCustomColors'
p1618
sba(idelphi
DelphiFunctionEndAccess
p1619
(dp1620
g864
(lp1621
(i__main__
DelphiIdentAccess
p1622
(dp1623
g858
S'selectedPosedColor'
p1624
sg860
(lp1625
(idelphi
DelphiFieldEndAccess
p1626
(dp1627
g876
S'color'
p1628
sbasbasbasbsg855
(i__main__
DelphiIdentAccess
p1629
(dp1630
g858
S'selectedPosedColor'
p1631
sg860
(lp1632
(idelphi
DelphiFieldEndAccess
p1633
(dp1634
g876
S'color'
p1635
sbasbsbasbsg1310
(lp1636
sbsbsS'transfersmallintspineditbox'
p1637
(i__main__
DelphiMethodImplementation
p1638
(dp1639
g830
g513
sg131
g515
sg139
(lp1640
(i__main__
DelphiFormalParameter
p1641
(dp1642
g143
Nsg144
(lp1643
S'editBox'
p1644
asg147
(i__main__
DelphiNamedType
p1645
(dp1646
g150
S'TSpinEdit'
p1647
sg152
g1
sg153
Nsbsg154
Nsba(i__main__
DelphiFormalParameter
p1648
(dp1649
g143
Nsg144
(lp1650
S'value'
p1651
asg147
(i__main__
DelphiPrimitiveType
p1652
(dp1653
g150
g530
sbsg154
g191
sbasg832
(lp1654
I1
asg834
(lp1655
sg836
(lp1656
g838
ag1644
ag1651
asg839
(dp1657
g1644
g1645
sg1651
g1652
ssg155
S'TOptionsForm'
p1658
sg156
Nsg842
(lp1659
g1651
asg157
I0
sg158
g159
sg844
(i__main__
DelphiBlock
p1660
(dp1661
g847
(idelphi
DelphiCompoundStatement
p1662
(dp1663
g850
(lp1664
(idelphi
DelphiIfStatement
p1665
(dp1666
g1485
(idelphi
DelphiRelOp
p1667
(dp1668
g1488
(i__main__
DelphiIdentAccess
p1669
(dp1670
g858
S'transferDirection'
p1671
sg860
(lp1672
sbsg1493
(i__main__
DelphiIdentAccess
p1673
(dp1674
g858
S'kTransferLoad'
p1675
sg860
(lp1676
sbsg1498
S'='
sbsg1499
(idelphi
DelphiIfStatement
p1677
(dp1678
g1485
(idelphi
DelphiRelOp
p1679
(dp1680
g1488
(i__main__
DelphiIdentAccess
p1681
(dp1682
g858
S'transferDirection'
p1683
sg860
(lp1684
sbsg1493
(i__main__
DelphiIdentAccess
p1685
(dp1686
g858
S'kTransferSave'
p1687
sg860
(lp1688
sbsg1498
S'='
sbsg1499
Nsg1512
(idelphi
DelphiCompoundStatement
p1689
(dp1690
g850
(lp1691
(idelphi
DelphiIfStatement
p1692
(dp1693
g1485
(idelphi
DelphiRelOp
p1694
(dp1695
g1488
(i__main__
DelphiIdentAccess
p1696
(dp1697
g858
S'value'
p1698
sg860
(lp1699
sbsg1493
(i__main__
DelphiIdentAccess
p1700
(dp1701
g858
S'strToIntDef'
p1702
sg860
(lp1703
(idelphi
DelphiFunctionEndAccess
p1704
(dp1705
g864
(lp1706
(i__main__
DelphiIdentAccess
p1707
(dp1708
g858
S'editBox'
p1709
sg860
(lp1710
(idelphi
DelphiFieldEndAccess
p1711
(dp1712
g876
S'text'
p1713
sbasba(idelphi
DelphiIntegerValue
p1714
(dp1715
S'string'
p1716
S'0'
sbasbasbsg1498
g1531
sbsg1499
Nsg1512
(i__main__
DelphiAssignStatement
p1717
(dp1718
g854
(i__main__
DelphiIdentAccess
p1719
(dp1720
g858
S'true'
p1721
sg860
(lp1722
sbsg855
(i__main__
DelphiIdentAccess
p1723
(dp1724
g858
S'optionsChanged'
p1725
sg860
(lp1726
sbsbsba(i__main__
DelphiAssignStatement
p1727
(dp1728
g854
(i__main__
DelphiIdentAccess
p1729
(dp1730
g858
S'strToIntDef'
p1731
sg860
(lp1732
(idelphi
DelphiFunctionEndAccess
p1733
(dp1734
g864
(lp1735
(i__main__
DelphiIdentAccess
p1736
(dp1737
g858
S'editBox'
p1738
sg860
(lp1739
(idelphi
DelphiFieldEndAccess
p1740
(dp1741
g876
S'text'
p1742
sbasba(idelphi
DelphiIntegerValue
p1743
(dp1744
g1716
S'0'
sbasbasbsg855
(i__main__
DelphiIdentAccess
p1745
(dp1746
g858
S'value'
p1747
sg860
(lp1748
sbsbasbsbsg1512
(i__main__
DelphiAssignStatement
p1749
(dp1750
g854
(i__main__
DelphiIdentAccess
p1751
(dp1752
g858
S'intToStr'
p1753
sg860
(lp1754
(idelphi
DelphiFunctionEndAccess
p1755
(dp1756
g864
(lp1757
(i__main__
DelphiIdentAccess
p1758
(dp1759
g858
S'value'
p1760
sg860
(lp1761
sbasbasbsg855
(i__main__
DelphiIdentAccess
p1762
(dp1763
g858
S'editBox'
p1764
sg860
(lp1765
(idelphi
DelphiFieldEndAccess
p1766
(dp1767
g876
S'text'
p1768
sbasbsbsbasbsg1310
(lp1769
sbsbsS'transferfloateditbox'
p1770
(i__main__
DelphiMethodImplementation
p1771
(dp1772
g830
g287
sg131
g289
sg139
(lp1773
(i__main__
DelphiFormalParameter
p1774
(dp1775
g143
Nsg144
(lp1776
S'editBox'
p1777
asg147
(i__main__
DelphiNamedType
p1778
(dp1779
g150
S'TEdit'
p1780
sg152
g1
sg153
Nsbsg154
Nsba(i__main__
DelphiFormalParameter
p1781
(dp1782
g143
Nsg144
(lp1783
S'value'
p1784
asg147
(i__main__
DelphiPrimitiveType
p1785
(dp1786
g150
g304
sbsg154
g191
sbasg832
(lp1787
I1
asg834
(lp1788
sg836
(lp1789
g838
ag1777
ag1784
asg839
(dp1790
g1777
g1778
sg1784
g1785
ssg155
S'TOptionsForm'
p1791
sg156
Nsg842
(lp1792
g1784
asg157
I0
sg158
g159
sg844
(i__main__
DelphiBlock
p1793
(dp1794
g847
(idelphi
DelphiCompoundStatement
p1795
(dp1796
g850
(lp1797
(idelphi
DelphiIfStatement
p1798
(dp1799
g1485
(idelphi
DelphiRelOp
p1800
(dp1801
g1488
(i__main__
DelphiIdentAccess
p1802
(dp1803
g858
S'transferDirection'
p1804
sg860
(lp1805
sbsg1493
(i__main__
DelphiIdentAccess
p1806
(dp1807
g858
S'kTransferLoad'
p1808
sg860
(lp1809
sbsg1498
S'='
sbsg1499
(idelphi
DelphiIfStatement
p1810
(dp1811
g1485
(idelphi
DelphiRelOp
p1812
(dp1813
g1488
(i__main__
DelphiIdentAccess
p1814
(dp1815
g858
S'transferDirection'
p1816
sg860
(lp1817
sbsg1493
(i__main__
DelphiIdentAccess
p1818
(dp1819
g858
S'kTransferSave'
p1820
sg860
(lp1821
sbsg1498
S'='
sbsg1499
Nsg1512
(idelphi
DelphiCompoundStatement
p1822
(dp1823
g850
(lp1824
(i__main__
DelphiAssignStatement
p1825
(dp1826
g854
(i__main__
DelphiIdentAccess
p1827
(dp1828
g858
S'value'
p1829
sg860
(lp1830
sbsg855
(i__main__
DelphiIdentAccess
p1831
(dp1832
g858
S'oldValue'
p1833
sg860
(lp1834
sbsba(idelphi
DelphiTryExceptStatement
p1835
(dp1836
S'tryStatements'
p1837
(lp1838
(i__main__
DelphiAssignStatement
p1839
(dp1840
g854
(i__main__
DelphiIdentAccess
p1841
(dp1842
g858
S'strToFloat'
p1843
sg860
(lp1844
(idelphi
DelphiFunctionEndAccess
p1845
(dp1846
g864
(lp1847
(i__main__
DelphiIdentAccess
p1848
(dp1849
g858
S'editBox'
p1850
sg860
(lp1851
(idelphi
DelphiFieldEndAccess
p1852
(dp1853
g876
S'text'
p1854
sbasbasbasbsg855
(i__main__
DelphiIdentAccess
p1855
(dp1856
g858
S'newValue'
p1857
sg860
(lp1858
sbsbasS'exceptionHandlers'
p1859
(idelphi
DelphiExceptionHandlers
p1860
(dp1861
S'exceptionHandlerList'
p1862
NsS'statementList'
p1863
(lp1864
(i__main__
DelphiAssignStatement
p1865
(dp1866
g854
(i__main__
DelphiIdentAccess
p1867
(dp1868
g858
S'oldValue'
p1869
sg860
(lp1870
sbsg855
(i__main__
DelphiIdentAccess
p1871
(dp1872
g858
S'newValue'
p1873
sg860
(lp1874
sbsbasbsba(idelphi
DelphiIfStatement
p1875
(dp1876
g1485
(idelphi
DelphiRelOp
p1877
(dp1878
g1488
(i__main__
DelphiIdentAccess
p1879
(dp1880
g858
S'value'
p1881
sg860
(lp1882
sbsg1493
(i__main__
DelphiIdentAccess
p1883
(dp1884
g858
S'newValue'
p1885
sg860
(lp1886
sbsg1498
g1531
sbsg1499
Nsg1512
(i__main__
DelphiAssignStatement
p1887
(dp1888
g854
(i__main__
DelphiIdentAccess
p1889
(dp1890
g858
S'true'
p1891
sg860
(lp1892
sbsg855
(i__main__
DelphiIdentAccess
p1893
(dp1894
g858
S'optionsChanged'
p1895
sg860
(lp1896
sbsbsba(i__main__
DelphiAssignStatement
p1897
(dp1898
g854
(i__main__
DelphiIdentAccess
p1899
(dp1900
g858
S'newValue'
p1901
sg860
(lp1902
sbsg855
(i__main__
DelphiIdentAccess
p1903
(dp1904
g858
S'value'
p1905
sg860
(lp1906
sbsbasbsbsg1512
(i__main__
DelphiAssignStatement
p1907
(dp1908
g854
(i__main__
DelphiIdentAccess
p1909
(dp1910
g858
S'digitValueString'
p1911
sg860
(lp1912
(idelphi
DelphiFunctionEndAccess
p1913
(dp1914
g864
(lp1915
(i__main__
DelphiIdentAccess
p1916
(dp1917
g858
S'value'
p1918
sg860
(lp1919
sbasbasbsg855
(i__main__
DelphiIdentAccess
p1920
(dp1921
g858
S'editBox'
p1922
sg860
(lp1923
(idelphi
DelphiFieldEndAccess
p1924
(dp1925
g876
S'text'
p1926
sbasbsbsbasbsg1310
(lp1927
(i__main__
DelphiVarSection
p1928
(dp1929
S'atTopLevel'
p1930
I0
sS'varDeclList'
p1931
(lp1932
(idelphi
DelphiVarDecl
p1933
(dp1934
S'constExpression'
p1935
NsS'identList'
p1936
(lp1937
S'oldValue'
p1938
aS'newValue'
p1939
asg147
(i__main__
DelphiPrimitiveType
p1940
(dp1941
g150
g304
sbsbasbasbsbsS'formkeypress'
p1942
(i__main__
DelphiMethodImplementation
p1943
(dp1944
g830
g256
sg131
g258
sg139
(lp1945
(i__main__
DelphiFormalParameter
p1946
(dp1947
g143
Nsg144
(lp1948
S'Sender'
p1949
asg147
(i__main__
DelphiNamedType
p1950
(dp1951
g150
S'TObject'
p1952
sg152
g1
sg153
Nsbsg154
Nsba(i__main__
DelphiFormalParameter
p1953
(dp1954
g143
Nsg144
(lp1955
S'Key'
p1956
asg147
(i__main__
DelphiPrimitiveType
p1957
(dp1958
g150
g273
sbsg154
g191
sbasg832
(lp1959
I1
asg834
(lp1960
sg836
(lp1961
g838
ag1949
ag1956
asg839
(dp1962
g1949
g1950
sg1956
g1957
ssg155
S'TOptionsForm'
p1963
sg156
Nsg842
(lp1964
g1956
asg157
I0
sg158
g159
sg844
(i__main__
DelphiBlock
p1965
(dp1966
g847
(idelphi
DelphiCompoundStatement
p1967
(dp1968
g850
(lp1969
(i__main__
DelphiAssignStatement
p1970
(dp1971
g854
Nsg855
(i__main__
DelphiIdentAccess
p1972
(dp1973
g858
S'makeEnterWorkAsTab'
p1974
sg860
(lp1975
(idelphi
DelphiFunctionEndAccess
p1976
(dp1977
g864
(lp1978
(i__main__
DelphiIdentAccess
p1979
(dp1980
g858
S'self'
p1981
sg860
(lp1982
sba(i__main__
DelphiIdentAccess
p1983
(dp1984
g858
S'activeControl'
p1985
sg860
(lp1986
sba(i__main__
DelphiIdentAccess
p1987
(dp1988
g858
S'key'
p1989
sg860
(lp1990
sbasbasbsbasbsg1310
(lp1991
sbsbsS'nonhiddenposedcolormouseup'
p1992
(i__main__
DelphiMethodImplementation
p1993
(dp1994
g830
g337
sg131
g339
sg139
(lp1995
(i__main__
DelphiFormalParameter
p1996
(dp1997
g143
Nsg144
(lp1998
S'Sender'
p1999
asg147
(i__main__
DelphiNamedType
p2000
(dp2001
g150
S'TObject'
p2002
sg152
g1
sg153
Nsbsg154
Nsba(i__main__
DelphiFormalParameter
p2003
(dp2004
g143
Nsg144
(lp2005
S'Button'
p2006
asg147
(i__main__
DelphiNamedType
p2007
(dp2008
g150
S'TMouseButton'
p2009
sg152
g1
sg153
Nsbsg154
Nsba(i__main__
DelphiFormalParameter
p2010
(dp2011
g143
Nsg144
(lp2012
S'Shift'
p2013
asg147
(i__main__
DelphiNamedType
p2014
(dp2015
g150
S'TShiftState'
p2016
sg152
g1
sg153
Nsbsg154
Nsba(i__main__
DelphiFormalParameter
p2017
(dp2018
g143
Nsg144
(lp2019
S'X'
aS'Y'
asg147
(i__main__
DelphiPrimitiveType
p2020
(dp2021
g150
g223
sbsg154
Nsbasg832
(lp2022
sg834
(lp2023
sg836
(lp2024
g838
ag1999
ag2006
ag2013
aS'X'
aS'Y'
asg839
(dp2025
S'Y'
g2020
sg2013
g2014
sg2006
g2007
sg1999
g2000
sS'X'
g2020
ssg155
S'TOptionsForm'
p2026
sg156
Nsg842
(lp2027
sg157
I0
sg158
g159
sg844
(i__main__
DelphiBlock
p2028
(dp2029
g847
(idelphi
DelphiCompoundStatement
p2030
(dp2031
g850
(lp2032
(i__main__
DelphiAssignStatement
p2033
(dp2034
g854
(i__main__
DelphiIdentAccess
p2035
(dp2036
g858
S'domain'
p2037
sg860
(lp2038
(idelphi
DelphiFieldEndAccess
p2039
(dp2040
g876
S'getColorUsingCustomColors'
p2041
sba(idelphi
DelphiFunctionEndAccess
p2042
(dp2043
g864
(lp2044
(i__main__
DelphiIdentAccess
p2045
(dp2046
g858
S'nonHiddenPosedColor'
p2047
sg860
(lp2048
(idelphi
DelphiFieldEndAccess
p2049
(dp2050
g876
S'color'
p2051
sbasbasbasbsg855
(i__main__
DelphiIdentAccess
p2052
(dp2053
g858
S'nonHiddenPosedColor'
p2054
sg860
(lp2055
(idelphi
DelphiFieldEndAccess
p2056
(dp2057
g876
S'color'
p2058
sbasbsbasbsg1310
(lp2059
sbsbsS'customdrawoptionsclick'
p2060
(i__main__
DelphiMethodImplementation
p2061
(dp2062
g830
g275
sg131
g277
sg139
(lp2063
(i__main__
DelphiFormalParameter
p2064
(dp2065
g143
Nsg144
(lp2066
S'Sender'
p2067
asg147
(i__main__
DelphiNamedType
p2068
(dp2069
g150
S'TObject'
p2070
sg152
g1
sg153
Nsbsg154
Nsbasg832
(lp2071
sg834
(lp2072
sg836
(lp2073
g838
ag2067
asg839
(dp2074
g2067
g2068
ssg155
S'TOptionsForm'
p2075
sg156
Nsg842
(lp2076
sg157
I0
sg158
g159
sg844
(i__main__
DelphiBlock
p2077
(dp2078
g847
(idelphi
DelphiCompoundStatement
p2079
(dp2080
g850
(lp2081
(i__main__
DelphiAssignStatement
p2082
(dp2083
g854
(i__main__
DelphiIdentAccess
p2084
(dp2085
g858
S'TCustomDrawOptionsForm'
p2086
sg860
(lp2087
(idelphi
DelphiFieldEndAccess
p2088
(dp2089
g876
S'create'
p2090
sba(idelphi
DelphiFunctionEndAccess
p2091
(dp2092
g864
(lp2093
(i__main__
DelphiIdentAccess
p2094
(dp2095
g858
S'self'
p2096
sg860
(lp2097
sbasbasbsg855
(i__main__
DelphiIdentAccess
p2098
(dp2099
g858
S'customDrawForm'
p2100
sg860
(lp2101
sbsba(idelphi
DelphiIfStatement
p2102
(dp2103
g1485
(idelphi
DelphiRelOp
p2104
(dp2105
g1488
(i__main__
DelphiIdentAccess
p2106
(dp2107
g858
S'customDrawForm'
p2108
sg860
(lp2109
sbsg1493
(idelphi
DelphiNilValue
p2110
(dp2111
bsg1498
S'='
sbsg1499
Nsg1512
(idelphi
DelphiRaiseStatement
p2112
(dp2113
g1485
(i__main__
DelphiIdentAccess
p2114
(dp2115
g858
S'Exception'
p2116
sg860
(lp2117
(idelphi
DelphiFieldEndAccess
p2118
(dp2119
g876
S'create'
p2120
sba(idelphi
DelphiFunctionEndAccess
p2121
(dp2122
g864
(lp2123
(idelphi
DelphiStringAccess
p2124
(dp2125
g860
(lp2126
sg1716
(idelphi
DelphiStringValue
p2127
(dp2128
g1716
S'Problem: Could not create 3D object mover window.'
p2129
sbsbasbasbsbsba(idelphi
DelphiTryFinallyStatement
p2130
(dp2131
g1837
(lp2132
(i__main__
DelphiAssignStatement
p2133
(dp2134
g854
(i__main__
DelphiIdentAccess
p2135
(dp2136
g858
S'self'
p2137
sg860
(lp2138
(idelphi
DelphiFieldEndAccess
p2139
(dp2140
g876
S'options'
p2141
sbasbsg855
(i__main__
DelphiIdentAccess
p2142
(dp2143
g858
S'customDrawForm'
p2144
sg860
(lp2145
(idelphi
DelphiFieldEndAccess
p2146
(dp2147
g876
S'options'
p2148
sbasbsba(i__main__
DelphiAssignStatement
p2149
(dp2150
g854
(i__main__
DelphiIdentAccess
p2151
(dp2152
g858
S'customDrawForm'
p2153
sg860
(lp2154
(idelphi
DelphiFieldEndAccess
p2155
(dp2156
g876
S'showModal'
p2157
sbasbsg855
(i__main__
DelphiIdentAccess
p2158
(dp2159
g858
S'response'
p2160
sg860
(lp2161
sbsba(idelphi
DelphiIfStatement
p2162
(dp2163
g1485
(idelphi
DelphiMulOp
p2164
(dp2165
S'signedFactor2'
p2166
(idelphi
DelphiNestedExpressionListAccess
p2167
(dp2168
g860
(lp2169
sg864
(lp2170
(i__main__
DelphiIdentAccess
p2171
(dp2172
g858
S'customDrawForm'
p2173
sg860
(lp2174
(idelphi
DelphiFieldEndAccess
p2175
(dp2176
g876
S'optionsChanged'
p2177
sbasbasbsS'mulOp'
p2178
S'and'
p2179
sS'signedFactor1'
p2180
(idelphi
DelphiNestedExpressionListAccess
p2181
(dp2182
g860
(lp2183
sg864
(lp2184
(idelphi
DelphiRelOp
p2185
(dp2186
g1488
(i__main__
DelphiIdentAccess
p2187
(dp2188
g858
S'response'
p2189
sg860
(lp2190
sbsg1493
(i__main__
DelphiIdentAccess
p2191
(dp2192
g858
S'mrOK'
p2193
sg860
(lp2194
sbsg1498
S'='
sbasbsbsg1499
Nsg1512
(idelphi
DelphiCompoundStatement
p2195
(dp2196
g850
(lp2197
(i__main__
DelphiAssignStatement
p2198
(dp2199
g854
(i__main__
DelphiIdentAccess
p2200
(dp2201
g858
S'customDrawForm'
p2202
sg860
(lp2203
(idelphi
DelphiFieldEndAccess
p2204
(dp2205
g876
S'options'
p2206
sbasbsg855
(i__main__
DelphiIdentAccess
p2207
(dp2208
g858
S'self'
p2209
sg860
(lp2210
(idelphi
DelphiFieldEndAccess
p2211
(dp2212
g876
S'options'
p2213
sbasbsba(i__main__
DelphiAssignStatement
p2214
(dp2215
g854
(i__main__
DelphiIdentAccess
p2216
(dp2217
g858
S'true'
p2218
sg860
(lp2219
sbsg855
(i__main__
DelphiIdentAccess
p2220
(dp2221
g858
S'optionsChanged'
p2222
sg860
(lp2223
sbsbasbsbasS'finallyStatements'
p2224
(lp2225
(i__main__
DelphiAssignStatement
p2226
(dp2227
g854
Nsg855
(i__main__
DelphiIdentAccess
p2228
(dp2229
g858
S'customDrawForm'
p2230
sg860
(lp2231
(idelphi
DelphiFieldEndAccess
p2232
(dp2233
g876
S'free'
p2234
sbasbsbasbasbsg1310
(lp2235
(i__main__
DelphiVarSection
p2236
(dp2237
g1930
I0
sg1931
(lp2238
(idelphi
DelphiVarDecl
p2239
(dp2240
g1935
Nsg1936
(lp2241
S'customDrawForm'
p2242
asg147
(i__main__
DelphiNamedType
p2243
(dp2244
g150
S'TCustomDrawOptionsForm'
p2245
sg152
g1
sg153
Nsbsba(idelphi
DelphiVarDecl
p2246
(dp2247
g1935
Nsg1936
(lp2248
S'response'
p2249
asg147
(i__main__
DelphiPrimitiveType
p2250
(dp2251
g150
g223
sbsbasbasbsbsS'transparentcolormouseup'
p2252
(i__main__
DelphiMethodImplementation
p2253
(dp2254
g830
g368
sg131
g370
sg139
(lp2255
(i__main__
DelphiFormalParameter
p2256
(dp2257
g143
Nsg144
(lp2258
S'Sender'
p2259
asg147
(i__main__
DelphiNamedType
p2260
(dp2261
g150
S'TObject'
p2262
sg152
g1
sg153
Nsbsg154
Nsba(i__main__
DelphiFormalParameter
p2263
(dp2264
g143
Nsg144
(lp2265
S'Button'
p2266
asg147
(i__main__
DelphiNamedType
p2267
(dp2268
g150
S'TMouseButton'
p2269
sg152
g1
sg153
Nsbsg154
Nsba(i__main__
DelphiFormalParameter
p2270
(dp2271
g143
Nsg144
(lp2272
S'Shift'
p2273
asg147
(i__main__
DelphiNamedType
p2274
(dp2275
g150
S'TShiftState'
p2276
sg152
g1
sg153
Nsbsg154
Nsba(i__main__
DelphiFormalParameter
p2277
(dp2278
g143
Nsg144
(lp2279
S'X'
aS'Y'
asg147
(i__main__
DelphiPrimitiveType
p2280
(dp2281
g150
g223
sbsg154
Nsbasg832
(lp2282
sg834
(lp2283
sg836
(lp2284
g838
ag2259
ag2266
ag2273
aS'X'
aS'Y'
asg839
(dp2285
S'Y'
g2280
sg2273
g2274
sg2266
g2267
sg2259
g2260
sS'X'
g2280
ssg155
S'TOptionsForm'
p2286
sg156
Nsg842
(lp2287
sg157
I0
sg158
g159
sg844
(i__main__
DelphiBlock
p2288
(dp2289
g847
(idelphi
DelphiCompoundStatement
p2290
(dp2291
g850
(lp2292
(i__main__
DelphiAssignStatement
p2293
(dp2294
g854
(i__main__
DelphiIdentAccess
p2295
(dp2296
g858
S'domain'
p2297
sg860
(lp2298
(idelphi
DelphiFieldEndAccess
p2299
(dp2300
g876
S'getColorUsingCustomColors'
p2301
sba(idelphi
DelphiFunctionEndAccess
p2302
(dp2303
g864
(lp2304
(i__main__
DelphiIdentAccess
p2305
(dp2306
g858
S'transparentColor'
p2307
sg860
(lp2308
(idelphi
DelphiFieldEndAccess
p2309
(dp2310
g876
S'color'
p2311
sbasbasbasbsg855
(i__main__
DelphiIdentAccess
p2312
(dp2313
g858
S'transparentColor'
p2314
sg860
(lp2315
(idelphi
DelphiFieldEndAccess
p2316
(dp2317
g876
S'color'
p2318
sbasbsg496
(lp2319
S' leave this enabled even if not using private bitmaps\r'
p2320
asbasbsg1310
(lp2321
sbsbsS'backgroundcolormouseup'
p2322
(i__main__
DelphiMethodImplementation
p2323
(dp2324
g830
g399
sg131
g401
sg139
(lp2325
(i__main__
DelphiFormalParameter
p2326
(dp2327
g143
Nsg144
(lp2328
S'Sender'
p2329
asg147
(i__main__
DelphiNamedType
p2330
(dp2331
g150
S'TObject'
p2332
sg152
g1
sg153
Nsbsg154
Nsba(i__main__
DelphiFormalParameter
p2333
(dp2334
g143
Nsg144
(lp2335
S'Button'
p2336
asg147
(i__main__
DelphiNamedType
p2337
(dp2338
g150
S'TMouseButton'
p2339
sg152
g1
sg153
Nsbsg154
Nsba(i__main__
DelphiFormalParameter
p2340
(dp2341
g143
Nsg144
(lp2342
S'Shift'
p2343
asg147
(i__main__
DelphiNamedType
p2344
(dp2345
g150
S'TShiftState'
p2346
sg152
g1
sg153
Nsbsg154
Nsba(i__main__
DelphiFormalParameter
p2347
(dp2348
g143
Nsg144
(lp2349
S'X'
aS'Y'
asg147
(i__main__
DelphiPrimitiveType
p2350
(dp2351
g150
g223
sbsg154
Nsbasg832
(lp2352
sg834
(lp2353
sg836
(lp2354
g838
ag2329
ag2336
ag2343
aS'X'
aS'Y'
asg839
(dp2355
S'Y'
g2350
sg2343
g2344
sg2336
g2337
sg2329
g2330
sS'X'
g2350
ssg155
S'TOptionsForm'
p2356
sg156
Nsg842
(lp2357
sg157
I0
sg158
g159
sg844
(i__main__
DelphiBlock
p2358
(dp2359
g847
(idelphi
DelphiCompoundStatement
p2360
(dp2361
g850
(lp2362
(i__main__
DelphiAssignStatement
p2363
(dp2364
g854
(i__main__
DelphiIdentAccess
p2365
(dp2366
g858
S'domain'
p2367
sg860
(lp2368
(idelphi
DelphiFieldEndAccess
p2369
(dp2370
g876
S'getColorUsingCustomColors'
p2371
sba(idelphi
DelphiFunctionEndAccess
p2372
(dp2373
g864
(lp2374
(i__main__
DelphiIdentAccess
p2375
(dp2376
g858
S'backgroundColor'
p2377
sg860
(lp2378
(idelphi
DelphiFieldEndAccess
p2379
(dp2380
g876
S'color'
p2381
sbasbasbasbsg855
(i__main__
DelphiIdentAccess
p2382
(dp2383
g858
S'backgroundColor'
p2384
sg860
(lp2385
(idelphi
DelphiFieldEndAccess
p2386
(dp2387
g876
S'color'
p2388
sbasbsbasbsg1310
(lp2389
sbsbsS'image1click'
p2390
(i__main__
DelphiMethodImplementation
p2391
(dp2392
g830
g544
sg131
g546
sg139
(lp2393
(i__main__
DelphiFormalParameter
p2394
(dp2395
g143
Nsg144
(lp2396
S'Sender'
p2397
asg147
(i__main__
DelphiNamedType
p2398
(dp2399
g150
S'TObject'
p2400
sg152
g1
sg153
Nsbsg154
Nsbasg832
(lp2401
sg834
(lp2402
sg836
(lp2403
g838
ag2397
asg839
(dp2404
g2397
g2398
ssg155
S'TOptionsForm'
p2405
sg156
Nsg842
(lp2406
sg157
I0
sg158
g159
sg844
(i__main__
DelphiBlock
p2407
(dp2408
g847
(idelphi
DelphiCompoundStatement
p2409
(dp2410
g850
(lp2411
(idelphi
DelphiCaseStatement
p2412
(dp2413
S'elseStatement'
p2414
Nsg1485
(i__main__
DelphiIdentAccess
p2415
(dp2416
g858
S'messageShown'
p2417
sg860
(lp2418
sbsS'caseSelectorList'
p2419
(lp2420
(idelphi
DelphiCaseSelector
p2421
(dp2422
S'statement'
p2423
(i__main__
DelphiAssignStatement
p2424
(dp2425
g854
Nsg855
(i__main__
DelphiIdentAccess
p2426
(dp2427
g858
S'showMessage'
p2428
sg860
(lp2429
(idelphi
DelphiFunctionEndAccess
p2430
(dp2431
g864
(lp2432
(idelphi
DelphiAddOp
p2433
(dp2434
S'addOp'
p2435
S'+'
sS'term2'
p2436
(idelphi
DelphiStringAccess
p2437
(dp2438
g860
(lp2439
sg1716
(idelphi
DelphiStringValue
p2440
(dp2441
g1716
S'especially Ana, Joanne and Randy.'
p2442
sbsbsS'term1'
p2443
(idelphi
DelphiAddOp
p2444
(dp2445
g2435
S'+'
sg2436
(i__main__
DelphiIdentAccess
p2446
(dp2447
g858
S'chr'
p2448
sg860
(lp2449
(idelphi
DelphiFunctionEndAccess
p2450
(dp2451
g864
(lp2452
(idelphi
DelphiIntegerValue
p2453
(dp2454
g1716
S'13'
p2455
sbasbasbsg2443
(idelphi
DelphiAddOp
p2456
(dp2457
g2435
S'+'
sg2436
(idelphi
DelphiStringAccess
p2458
(dp2459
g860
(lp2460
sg1716
(idelphi
DelphiStringValue
p2461
(dp2462
g1716
S'to say thank you to our excellent testers, '
p2463
sbsbsg2443
(idelphi
DelphiAddOp
p2464
(dp2465
g2435
S'+'
sg2436
(i__main__
DelphiIdentAccess
p2466
(dp2467
g858
S'chr'
p2468
sg860
(lp2469
(idelphi
DelphiFunctionEndAccess
p2470
(dp2471
g864
(lp2472
(idelphi
DelphiIntegerValue
p2473
(dp2474
g1716
S'13'
p2475
sbasbasbsg2443
(idelphi
DelphiStringAccess
p2476
(dp2477
g860
(lp2478
sg1716
(idelphi
DelphiStringValue
p2479
(dp2480
g1716
S'We would like to take this opportunity'
p2481
sbsbsbsbsbsbasbasbsbsS'caseLabelList'
p2482
(lp2483
(idelphi
DelphiIntegerValue
p2484
(dp2485
g1716
S'0'
sbasba(idelphi
DelphiCaseSelector
p2486
(dp2487
g2423
(i__main__
DelphiAssignStatement
p2488
(dp2489
g854
Nsg855
(i__main__
DelphiIdentAccess
p2490
(dp2491
g858
S'showMessage'
p2492
sg860
(lp2493
(idelphi
DelphiFunctionEndAccess
p2494
(dp2495
g864
(lp2496
(idelphi
DelphiStringAccess
p2497
(dp2498
g860
(lp2499
sg1716
(idelphi
DelphiStringValue
p2500
(dp2501
g1716
S'Thanks to our parents and families.'
p2502
sbsbasbasbsbsg2482
(lp2503
(idelphi
DelphiIntegerValue
p2504
(dp2505
g1716
S'1'
sbasba(idelphi
DelphiCaseSelector
p2506
(dp2507
g2423
(i__main__
DelphiAssignStatement
p2508
(dp2509
g854
Nsg855
(i__main__
DelphiIdentAccess
p2510
(dp2511
g858
S'showMessage'
p2512
sg860
(lp2513
(idelphi
DelphiFunctionEndAccess
p2514
(dp2515
g864
(lp2516
(idelphi
DelphiAddOp
p2517
(dp2518
g2435
S'+'
sg2436
(idelphi
DelphiStringAccess
p2519
(dp2520
g860
(lp2521
sg1716
(idelphi
DelphiStringValue
p2522
(dp2523
g1716
S'for their many interesting suggestions.'
p2524
sbsbsg2443
(idelphi
DelphiAddOp
p2525
(dp2526
g2435
S'+'
sg2436
(i__main__
DelphiIdentAccess
p2527
(dp2528
g858
S'chr'
p2529
sg860
(lp2530
(idelphi
DelphiFunctionEndAccess
p2531
(dp2532
g864
(lp2533
(idelphi
DelphiIntegerValue
p2534
(dp2535
g1716
S'13'
p2536
sbasbasbsg2443
(idelphi
DelphiStringAccess
p2537
(dp2538
g860
(lp2539
sg1716
(idelphi
DelphiStringValue
p2540
(dp2541
g1716
S'Thanks to our dogs Maize and Comet'
p2542
sbsbsbsbasbasbsbsg2482
(lp2543
(idelphi
DelphiIntegerValue
p2544
(dp2545
g1716
S'2'
sbasba(idelphi
DelphiCaseSelector
p2546
(dp2547
g2423
(i__main__
DelphiAssignStatement
p2548
(dp2549
g854
Nsg855
(i__main__
DelphiIdentAccess
p2550
(dp2551
g858
S'showMessage'
p2552
sg860
(lp2553
(idelphi
DelphiFunctionEndAccess
p2554
(dp2555
g864
(lp2556
(idelphi
DelphiStringAccess
p2557
(dp2558
g860
(lp2559
sg1716
(idelphi
DelphiStringValue
p2560
(dp2561
g1716
S'Thanks to those who have graciously supported our work.'
p2562
sbsbasbasbsbsg2482
(lp2563
(idelphi
DelphiIntegerValue
p2564
(dp2565
g1716
S'3'
sbasba(idelphi
DelphiCaseSelector
p2566
(dp2567
g2423
(i__main__
DelphiAssignStatement
p2568
(dp2569
g854
Nsg855
(i__main__
DelphiIdentAccess
p2570
(dp2571
g858
S'showMessage'
p2572
sg860
(lp2573
(idelphi
DelphiFunctionEndAccess
p2574
(dp2575
g864
(lp2576
(idelphi
DelphiStringAccess
p2577
(dp2578
g860
(lp2579
sg1716
(idelphi
DelphiStringValue
p2580
(dp2581
g1716
S'Thanks to everyone who sent letters.'
p2582
sbsbasbasbsbsg2482
(lp2583
(idelphi
DelphiIntegerValue
p2584
(dp2585
g1716
S'4'
sbasba(idelphi
DelphiCaseSelector
p2586
(dp2587
g2423
(i__main__
DelphiAssignStatement
p2588
(dp2589
g854
Nsg855
(i__main__
DelphiIdentAccess
p2590
(dp2591
g858
S'showMessage'
p2592
sg860
(lp2593
(idelphi
DelphiFunctionEndAccess
p2594
(dp2595
g864
(lp2596
(idelphi
DelphiStringAccess
p2597
(dp2598
g860
(lp2599
sg1716
(idelphi
DelphiStringValue
p2600
(dp2601
g1716
S'Thanks to those who have spread the word about PlantStudio.'
p2602
sbsbasbasbsbsg2482
(lp2603
(idelphi
DelphiIntegerValue
p2604
(dp2605
g1716
S'5'
sbasba(idelphi
DelphiCaseSelector
p2606
(dp2607
g2423
(i__main__
DelphiAssignStatement
p2608
(dp2609
g854
Nsg855
(i__main__
DelphiIdentAccess
p2610
(dp2611
g858
S'showMessage'
p2612
sg860
(lp2613
(idelphi
DelphiFunctionEndAccess
p2614
(dp2615
g864
(lp2616
(idelphi
DelphiStringAccess
p2617
(dp2618
g860
(lp2619
sg1716
(idelphi
DelphiStringValue
p2620
(dp2621
g1716
S'And thank YOU for trying PlantStudio!'
p2622
sbsbasbasbsbsg2482
(lp2623
(idelphi
DelphiIntegerValue
p2624
(dp2625
g1716
S'6'
sbasbasba(i__main__
DelphiIncOrDecStatement
p2626
(dp2627
S'incOrDecString'
p2628
S'inc'
p2629
sS'incrementExpression'
p2630
Nsg855
(i__main__
DelphiIdentAccess
p2631
(dp2632
g858
S'messageShown'
p2633
sg860
(lp2634
sbsbasbsg1310
(lp2635
sbsbsS'firstselectionrectanglecolormouseup'
p2636
(i__main__
DelphiMethodImplementation
p2637
(dp2638
g830
g430
sg131
g432
sg139
(lp2639
(i__main__
DelphiFormalParameter
p2640
(dp2641
g143
Nsg144
(lp2642
S'Sender'
p2643
asg147
(i__main__
DelphiNamedType
p2644
(dp2645
g150
S'TObject'
p2646
sg152
g1
sg153
Nsbsg154
Nsba(i__main__
DelphiFormalParameter
p2647
(dp2648
g143
Nsg144
(lp2649
S'Button'
p2650
asg147
(i__main__
DelphiNamedType
p2651
(dp2652
g150
S'TMouseButton'
p2653
sg152
g1
sg153
Nsbsg154
Nsba(i__main__
DelphiFormalParameter
p2654
(dp2655
g143
Nsg144
(lp2656
S'Shift'
p2657
asg147
(i__main__
DelphiNamedType
p2658
(dp2659
g150
S'TShiftState'
p2660
sg152
g1
sg153
Nsbsg154
Nsba(i__main__
DelphiFormalParameter
p2661
(dp2662
g143
Nsg144
(lp2663
S'X'
aS'Y'
asg147
(i__main__
DelphiPrimitiveType
p2664
(dp2665
g150
g223
sbsg154
Nsbasg832
(lp2666
sg834
(lp2667
sg836
(lp2668
g838
ag2643
ag2650
ag2657
aS'X'
aS'Y'
asg839
(dp2669
S'Y'
g2664
sg2657
g2658
sg2650
g2651
sg2643
g2644
sS'X'
g2664
ssg155
S'TOptionsForm'
p2670
sg156
Nsg842
(lp2671
sg157
I0
sg158
g159
sg844
(i__main__
DelphiBlock
p2672
(dp2673
g847
(idelphi
DelphiCompoundStatement
p2674
(dp2675
g850
(lp2676
(i__main__
DelphiAssignStatement
p2677
(dp2678
g854
(i__main__
DelphiIdentAccess
p2679
(dp2680
g858
S'domain'
p2681
sg860
(lp2682
(idelphi
DelphiFieldEndAccess
p2683
(dp2684
g876
S'getColorUsingCustomColors'
p2685
sba(idelphi
DelphiFunctionEndAccess
p2686
(dp2687
g864
(lp2688
(i__main__
DelphiIdentAccess
p2689
(dp2690
g858
S'firstSelectionRectangleColor'
p2691
sg860
(lp2692
(idelphi
DelphiFieldEndAccess
p2693
(dp2694
g876
S'color'
p2695
sbasbasbasbsg855
(i__main__
DelphiIdentAccess
p2696
(dp2697
g858
S'firstSelectionRectangleColor'
p2698
sg860
(lp2699
(idelphi
DelphiFieldEndAccess
p2700
(dp2701
g876
S'color'
p2702
sbasbsbasbsg1310
(lp2703
sbsbsS'ghostingcolormouseup'
p2704
(i__main__
DelphiMethodImplementation
p2705
(dp2706
g830
g461
sg131
g463
sg139
(lp2707
(i__main__
DelphiFormalParameter
p2708
(dp2709
g143
Nsg144
(lp2710
S'Sender'
p2711
asg147
(i__main__
DelphiNamedType
p2712
(dp2713
g150
S'TObject'
p2714
sg152
g1
sg153
Nsbsg154
Nsba(i__main__
DelphiFormalParameter
p2715
(dp2716
g143
Nsg144
(lp2717
S'Button'
p2718
asg147
(i__main__
DelphiNamedType
p2719
(dp2720
g150
S'TMouseButton'
p2721
sg152
g1
sg153
Nsbsg154
Nsba(i__main__
DelphiFormalParameter
p2722
(dp2723
g143
Nsg144
(lp2724
S'Shift'
p2725
asg147
(i__main__
DelphiNamedType
p2726
(dp2727
g150
S'TShiftState'
p2728
sg152
g1
sg153
Nsbsg154
Nsba(i__main__
DelphiFormalParameter
p2729
(dp2730
g143
Nsg144
(lp2731
S'X'
aS'Y'
asg147
(i__main__
DelphiPrimitiveType
p2732
(dp2733
g150
g223
sbsg154
Nsbasg832
(lp2734
sg834
(lp2735
sg836
(lp2736
g838
ag2711
ag2718
ag2725
aS'X'
aS'Y'
asg839
(dp2737
S'Y'
g2732
sg2725
g2726
sg2718
g2719
sg2711
g2712
sS'X'
g2732
ssg155
S'TOptionsForm'
p2738
sg156
Nsg842
(lp2739
sg157
I0
sg158
g159
sg844
(i__main__
DelphiBlock
p2740
(dp2741
g847
(idelphi
DelphiCompoundStatement
p2742
(dp2743
g850
(lp2744
(i__main__
DelphiAssignStatement
p2745
(dp2746
g854
(i__main__
DelphiIdentAccess
p2747
(dp2748
g858
S'domain'
p2749
sg860
(lp2750
(idelphi
DelphiFieldEndAccess
p2751
(dp2752
g876
S'getColorUsingCustomColors'
p2753
sba(idelphi
DelphiFunctionEndAccess
p2754
(dp2755
g864
(lp2756
(i__main__
DelphiIdentAccess
p2757
(dp2758
g858
S'ghostingColor'
p2759
sg860
(lp2760
(idelphi
DelphiFieldEndAccess
p2761
(dp2762
g876
S'color'
p2763
sbasbasbasbsg855
(i__main__
DelphiIdentAccess
p2764
(dp2765
g858
S'ghostingColor'
p2766
sg860
(lp2767
(idelphi
DelphiFieldEndAccess
p2768
(dp2769
g876
S'color'
p2770
sbasbsbasbsg1310
(lp2771
sbsbsS'transfercolor'
p2772
(i__main__
DelphiMethodImplementation
p2773
(dp2774
g830
g173
sg131
g175
sg139
(lp2775
(i__main__
DelphiFormalParameter
p2776
(dp2777
g143
Nsg144
(lp2778
S'colorPanel'
p2779
asg147
(i__main__
DelphiNamedType
p2780
(dp2781
g150
S'TPanel'
p2782
sg152
g1
sg153
Nsbsg154
Nsba(i__main__
DelphiFormalParameter
p2783
(dp2784
g143
Nsg144
(lp2785
S'value'
p2786
asg147
(i__main__
DelphiNamedType
p2787
(dp2788
g150
S'TColorRef'
p2789
sg152
g1
sg153
Nsbsg154
g191
sbasg832
(lp2790
sg834
(lp2791
g2786
asg836
(lp2792
g838
ag2779
ag2786
asg839
(dp2793
g2786
g2787
sg2779
g2780
ssg155
S'TOptionsForm'
p2794
sg156
Nsg842
(lp2795
sg157
I0
sg158
g159
sg844
(i__main__
DelphiBlock
p2796
(dp2797
g847
(idelphi
DelphiCompoundStatement
p2798
(dp2799
g850
(lp2800
(idelphi
DelphiIfStatement
p2801
(dp2802
g1485
(idelphi
DelphiRelOp
p2803
(dp2804
g1488
(i__main__
DelphiIdentAccess
p2805
(dp2806
g858
S'transferDirection'
p2807
sg860
(lp2808
sbsg1493
(i__main__
DelphiIdentAccess
p2809
(dp2810
g858
S'kTransferLoad'
p2811
sg860
(lp2812
sbsg1498
S'='
sbsg1499
(idelphi
DelphiIfStatement
p2813
(dp2814
g1485
(idelphi
DelphiRelOp
p2815
(dp2816
g1488
(i__main__
DelphiIdentAccess
p2817
(dp2818
g858
S'transferDirection'
p2819
sg860
(lp2820
sbsg1493
(i__main__
DelphiIdentAccess
p2821
(dp2822
g858
S'kTransferSave'
p2823
sg860
(lp2824
sbsg1498
S'='
sbsg1499
Nsg1512
(idelphi
DelphiCompoundStatement
p2825
(dp2826
g850
(lp2827
(idelphi
DelphiIfStatement
p2828
(dp2829
g1485
(idelphi
DelphiRelOp
p2830
(dp2831
g1488
(i__main__
DelphiIdentAccess
p2832
(dp2833
g858
S'value'
p2834
sg860
(lp2835
sbsg1493
(i__main__
DelphiIdentAccess
p2836
(dp2837
g858
S'colorPanel'
p2838
sg860
(lp2839
(idelphi
DelphiFieldEndAccess
p2840
(dp2841
g876
S'color'
p2842
sbasbsg1498
g1531
sbsg1499
Nsg1512
(i__main__
DelphiAssignStatement
p2843
(dp2844
g854
(i__main__
DelphiIdentAccess
p2845
(dp2846
g858
S'true'
p2847
sg860
(lp2848
sbsg855
(i__main__
DelphiIdentAccess
p2849
(dp2850
g858
S'optionsChanged'
p2851
sg860
(lp2852
sbsbsba(i__main__
DelphiAssignStatement
p2853
(dp2854
g854
(i__main__
DelphiIdentAccess
p2855
(dp2856
g858
S'colorPanel'
p2857
sg860
(lp2858
(idelphi
DelphiFieldEndAccess
p2859
(dp2860
g876
S'color'
p2861
sbasbsg855
(i__main__
DelphiIdentAccess
p2862
(dp2863
g858
S'value'
p2864
sg860
(lp2865
sbsbasbsbsg1512
(i__main__
DelphiAssignStatement
p2866
(dp2867
g854
(i__main__
DelphiIdentAccess
p2868
(dp2869
g858
S'value'
p2870
sg860
(lp2871
sbsg855
(i__main__
DelphiIdentAccess
p2872
(dp2873
g858
S'colorPanel'
p2874
sg860
(lp2875
(idelphi
DelphiFieldEndAccess
p2876
(dp2877
g876
S'color'
p2878
sbasbsbsbasbsg1310
(lp2879
sbsbsS'formcreate'
p2880
(i__main__
DelphiMethodImplementation
p2881
(dp2882
g830
g501
sg131
g503
sg139
(lp2883
(i__main__
DelphiFormalParameter
p2884
(dp2885
g143
Nsg144
(lp2886
S'Sender'
p2887
asg147
(i__main__
DelphiNamedType
p2888
(dp2889
g150
S'TObject'
p2890
sg152
g1
sg153
Nsbsg154
Nsbasg832
(lp2891
sg834
(lp2892
sg836
(lp2893
g838
ag2887
asg839
(dp2894
g2887
g2888
ssg155
S'TOptionsForm'
p2895
sg156
Nsg842
(lp2896
sg157
I0
sg158
g159
sg844
(i__main__
DelphiBlock
p2897
(dp2898
g847
(idelphi
DelphiCompoundStatement
p2899
(dp2900
g850
(lp2901
(i__main__
DelphiAssignStatement
p2902
(dp2903
g854
(idelphi
DelphiIntegerValue
p2904
(dp2905
g1716
S'0'
sbsg855
(i__main__
DelphiIdentAccess
p2906
(dp2907
g858
S'optionsNotebook'
p2908
sg860
(lp2909
(idelphi
DelphiFieldEndAccess
p2910
(dp2911
g876
S'pageIndex'
p2912
sbasbsbasbsg1310
(lp2913
sbsg496
(lp2914
S'$R *.DFM'
p2915
asbsS'closeclick'
p2916
(i__main__
DelphiMethodImplementation
p2917
(dp2918
g830
g532
sg131
g534
sg139
(lp2919
(i__main__
DelphiFormalParameter
p2920
(dp2921
g143
Nsg144
(lp2922
S'Sender'
p2923
asg147
(i__main__
DelphiNamedType
p2924
(dp2925
g150
S'TObject'
p2926
sg152
g1
sg153
Nsbsg154
Nsbasg832
(lp2927
sg834
(lp2928
sg836
(lp2929
g838
ag2923
asg839
(dp2930
g2923
g2924
ssg155
S'TOptionsForm'
p2931
sg156
Nsg842
(lp2932
sg157
I0
sg158
g159
sg844
(i__main__
DelphiBlock
p2933
(dp2934
g847
(idelphi
DelphiCompoundStatement
p2935
(dp2936
g850
(lp2937
(i__main__
DelphiAssignStatement
p2938
(dp2939
g854
(i__main__
DelphiIdentAccess
p2940
(dp2941
g858
S'kTransferSave'
p2942
sg860
(lp2943
sbsg855
(i__main__
DelphiIdentAccess
p2944
(dp2945
g858
S'transferDirection'
p2946
sg860
(lp2947
sbsba(i__main__
DelphiAssignStatement
p2948
(dp2949
g854
Nsg855
(i__main__
DelphiIdentAccess
p2950
(dp2951
g858
S'self'
p2952
sg860
(lp2953
(idelphi
DelphiFieldEndAccess
p2954
(dp2955
g876
S'transferFields'
p2956
sbasbsba(i__main__
DelphiAssignStatement
p2957
(dp2958
g854
(i__main__
DelphiIdentAccess
p2959
(dp2960
g858
S'mrOK'
p2961
sg860
(lp2962
sbsg855
(i__main__
DelphiIdentAccess
p2963
(dp2964
g858
S'modalResult'
p2965
sg860
(lp2966
sbsbasbsg1310
(lp2967
sbsbsS'helpbuttonclick'
p2968
(i__main__
DelphiMethodImplementation
p2969
(dp2970
g830
g136
sg131
g138
sg139
(lp2971
(i__main__
DelphiFormalParameter
p2972
(dp2973
g143
Nsg144
(lp2974
S'Sender'
p2975
asg147
(i__main__
DelphiNamedType
p2976
(dp2977
g150
S'TObject'
p2978
sg152
g1
sg153
Nsbsg154
Nsbasg832
(lp2979
sg834
(lp2980
sg836
(lp2981
g838
ag2975
asg839
(dp2982
g2975
g2976
ssg155
S'TOptionsForm'
p2983
sg156
Nsg842
(lp2984
sg157
I0
sg158
g159
sg844
(i__main__
DelphiBlock
p2985
(dp2986
g847
(idelphi
DelphiCompoundStatement
p2987
(dp2988
g850
(lp2989
(i__main__
DelphiAssignStatement
p2990
(dp2991
g854
Nsg855
(i__main__
DelphiIdentAccess
p2992
(dp2993
g858
S'application'
p2994
sg860
(lp2995
(idelphi
DelphiFieldEndAccess
p2996
(dp2997
g876
S'helpJump'
p2998
sba(idelphi
DelphiFunctionEndAccess
p2999
(dp3000
g864
(lp3001
(idelphi
DelphiStringAccess
p3002
(dp3003
g860
(lp3004
sg1716
(idelphi
DelphiStringValue
p3005
(dp3006
g1716
S'Changing_preferences'
p3007
sbsbasbasbsbasbsg1310
(lp3008
sbsbssS'propertyDeclarations'
p3009
(dp3010
sS'variableNamesInDeclaredOrder'
p3011
(lp3012
g36
ag34
ag70
ag68
ag10
ag90
ag12
ag48
ag26
ag98
ag50
ag108
ag56
ag28
ag32
ag42
ag72
ag124
ag24
ag62
ag114
ag88
ag22
ag112
ag118
ag14
ag130
ag66
ag52
ag30
ag102
ag110
ag126
ag84
ag16
ag38
ag78
ag100
ag92
ag96
ag82
ag106
ag20
ag76
ag44
ag54
ag94
ag40
ag86
ag18
ag58
ag104
ag120
ag60
ag116
ag80
ag64
ag46
ag128
ag74
ag122
asba(i__main__
DelphiConstSection
p3013
(dp3014
S'constDeclList'
p3015
(lp3016
(idelphi
DelphiConstDeclaration
p3017
(dp3018
g1935
(idelphi
DelphiIntegerValue
p3019
(dp3020
g1716
S'1'
sbsg858
S'kTransferLoad'
p3021
sg147
(idelphi
DelphiPrimitiveType
p3022
(dp3023
g150
S'UNDEFINED_NEEDS_CALCULATION'
p3024
sbsba(idelphi
DelphiConstDeclaration
p3025
(dp3026
g1935
(idelphi
DelphiIntegerValue
p3027
(dp3028
g1716
S'2'
sbsg858
S'kTransferSave'
p3029
sg147
(idelphi
DelphiPrimitiveType
p3030
(dp3031
g150
g3024
sbsbasg1930
I1
sbasS'includedUnits'
p3032
NsS'implementationUses'
p3033
(lp3034
S'usupport'
p3035
aS'umath'
p3036
aS'ucustdrw'
p3037
aS'u3dexport'
p3038
asg131
S'Uoptions'
p3039
sS'constSections'
p3040
(lp3041
g3013
asS'globalsInProperCase'
p3042
NsS'interfaceUses'
p3043
(lp3044
S'delphi_compatability'
p3045
aS'SysUtils'
p3046
aS'WinTypes'
p3047
aS'WinProcs'
p3048
aS'Messages'
p3049
aS'Classes'
p3050
aS'Graphics'
p3051
aS'Controls'
p3052
aS'Forms'
p3053
aS'Dialogs'
p3054
aS'Buttons'
p3055
aS'StdCtrls'
p3056
aS'Spin'
p3057
aS'ExtCtrls'
p3058
aS'TabNotBk'
p3059
aS'udomain'
p3060
aS'updform'
p3061
aS'ComCtrls'
p3062
asS'finalCommentToken'
p3063
(i__main__
PassStatement
p3064
(dp3065
g1310
(lp3066
sbsS'varSections'
p3067
(lp3068
sS'globals'
p3069
NsS'originalFileName'
p3070
S'../../PlantStudioInPython/converted_source/uoptions.pas'
p3071
sS'proceduralImplementations'
p3072
(dp3073
sS'fileName'
p3074
S'/Users/pdf/Documents/workspace/PlantStudioInPython/converted_source/uoptions.pas'
p3075
sS'proceduralDeclarations'
p3076
(dp3077
sS'types'
p3078
(dp3079
S'toptionsform'
p3080
g5
ssb.