(i__main__
DelphiUnit
p1
(dp2
S'sectionsInOrderDefined'
p3
(lp4
(i__main__
DelphiClass
p5
(dp6
S'variableNamesInProperCase'
p7
(dp8
S'label8'
p9
S'Label8'
p10
sS'lengthofshortname'
p11
S'lengthOfShortName'
p12
sS'transferdirection'
p13
S'transferDirection'
p14
sS'nestcompoundleaf'
p15
S'nestCompoundLeaf'
p16
sS'layeringoption'
p17
S'layeringOption'
p18
sS'usevisibleplants'
p19
S'useVisiblePlants'
p20
sS'cancel'
p21
S'cancel'
p22
sS'mintdoscaletowrite'
p23
S'minTdoScaleToWrite'
p24
sS'colorsbyplantpart'
p25
S'colorsByPlantPart'
p26
sS'drawwhichplantsgroupbox'
p27
S'drawWhichPlantsGroupBox'
p28
sS'close'
p29
S'Close'
p30
sS'label10'
p31
S'Label10'
p32
sS'writeplantnumberinfrontofname'
p33
S'writePlantNumberInFrontOfName'
p34
sS'helpbutton'
p35
S'helpButton'
p36
sS'useallplants'
p37
S'useAllPlants'
p38
sS'useselectedplants'
p39
S'useSelectedPlants'
p40
sS'totalplants'
p41
S'totalPlants'
p42
sS'othergroupbox'
p43
S'otherGroupBox'
p44
sS'totalmaterials'
p45
S'totalMaterials'
p46
sS'stemcylinderfaces'
p47
S'stemCylinderFaces'
p48
sS'colordxffromrgb'
p49
S'colorDXFFromRGB'
p50
sS'wholeplantcolor'
p51
S'wholePlantColor'
p52
sS'overallscalingfactor_pct'
p53
S'overallScalingFactor_pct'
p54
sS'commentoutunionatend'
p55
S'commentOutUnionAtEnd'
p56
sS'reorientgroupbox'
p57
S'reorientGroupBox'
p58
sS'optionschanged'
p59
S'optionsChanged'
p60
sS'estimationstringgrid'
p61
S'estimationStringGrid'
p62
sS'label9'
p63
S'Label9'
p64
sS'dxfcolorsgroupbox'
p65
S'dxfColorsGroupBox'
p66
sS'totalpoints'
p67
S'totalPoints'
p68
sS'nestinflorescence'
p69
S'nestInflorescence'
p70
sS'maketrianglesdoublesided'
p71
S'makeTrianglesDoubleSided'
p72
sS'colordxffromonecolor'
p73
S'colorDXFFromOneColor'
p74
sS'label1'
p75
S'Label1'
p76
sS'label2'
p77
S'Label2'
p78
sS'label3'
p79
S'Label3'
p80
sS'label4'
p81
S'Label4'
p82
sS'label5'
p83
S'Label5'
p84
sS'threedswarningpanel'
p85
S'threeDSWarningPanel'
p86
sS'label7'
p87
S'Label7'
p88
sS'totalparts'
p89
S'totalParts'
p90
sS'nestleafandpetiole'
p91
S'nestLeafAndPetiole'
p92
sS'label6'
p93
S'Label6'
p94
sS'writecolors'
p95
S'writeColors'
p96
sS'pressplants'
p97
S'pressPlants'
p98
sS'sideslabel'
p99
S'sidesLabel'
p100
sS'directiontopressplants'
p101
S'directionToPressPlants'
p102
sS'pressplantspanel'
p103
S'pressPlantsPanel'
p104
sS'nestinggroupbox'
p105
S'nestingGroupBox'
p106
sS'colordxffromplantparttype'
p107
S'colorDXFFromPlantPartType'
p108
sS'stemcylinderfaceslabel'
p109
S'stemCylinderFacesLabel'
p110
sS'dxfwritecolors'
p111
S'dxfWriteColors'
p112
sS'minlinelengthtowrite'
p113
S'minLineLengthToWrite'
p114
sS'translateplantstowindowpositions'
p115
S'translatePlantsToWindowPositions'
p116
sS'setplantpartcolor'
p117
S'setPlantPartColor'
p118
sS'plantnameandcylindersidespanel'
p119
S'plantNameAndCylinderSidesPanel'
p120
sS'outputtype'
p121
S'outputType'
p122
sS'vrmlversionradiogroup'
p123
S'vrmlVersionRadioGroup'
p124
sS'povlimitsgroupbox'
p125
S'povLimitsGroupBox'
p126
sS'nestpedicelandflowerfruit'
p127
S'nestPedicelAndFlowerFruit'
p128
sS'nestflorallayers'
p129
S'nestFloralLayers'
p130
sS'options'
p131
S'options'
p132
sS'xrotationbeforedraw'
p133
S'xRotationBeforeDraw'
p134
sS'totaltriangles'
p135
S'totalTriangles'
p136
ssS'name'
p137
S'TGeneric3DOptionsForm'
p138
sS'methodDeclarations'
p139
(dp140
S'estimatebytes'
p141
(i__main__
DelphiMethodDeclaration
p142
(dp143
g137
S'estimateBytes'
p144
sS'formalParameters'
p145
(lp146
(i__main__
DelphiFormalParameter
p147
(dp148
S'initialValue'
p149
NsS'names'
p150
(lp151
S'numPlants'
p152
aS'numParts'
p153
aS'numPoints'
p154
aS'numTriangles'
p155
asS'theType'
p156
(i__main__
DelphiPrimitiveType
p157
(dp158
S'typeName'
p159
S'longint'
p160
sbsS'parameterVariety'
p161
NsbasS'className'
p162
g138
sS'resultType'
p163
(i__main__
DelphiPrimitiveType
p164
(dp165
g159
g160
sbsS'isClassMethod'
p166
I0
sS'methodType'
p167
S'function'
p168
sbsS'setplantpartcolorclick'
p169
(i__main__
DelphiMethodDeclaration
p170
(dp171
g137
S'setPlantPartColorClick'
p172
sg145
(lp173
(i__main__
DelphiFormalParameter
p174
(dp175
g149
Nsg150
(lp176
S'Sender'
p177
asg156
(i__main__
DelphiNamedType
p178
(dp179
g159
S'TObject'
p180
sS'unitDefinedIn'
p181
g1
sS'unitName'
p182
Nsbsg161
Nsbasg162
g138
sg163
Nsg166
I0
sg167
S'procedure'
p183
sbsS'transferradiobutton'
p184
(i__main__
DelphiMethodDeclaration
p185
(dp186
g137
S'transferRadioButton'
p187
sg145
(lp188
(i__main__
DelphiFormalParameter
p189
(dp190
g149
Nsg150
(lp191
S'radioButton'
p192
asg156
(i__main__
DelphiNamedType
p193
(dp194
g159
S'TRadioButton'
p195
sg181
g1
sg182
Nsbsg161
Nsba(i__main__
DelphiFormalParameter
p196
(dp197
g149
Nsg150
(lp198
S'value'
p199
asg156
(i__main__
DelphiPrimitiveType
p200
(dp201
g159
S'smallint'
p202
sbsg161
S'var'
p203
sba(i__main__
DelphiFormalParameter
p204
(dp205
g149
Nsg150
(lp206
S'radioIndex'
p207
asg156
(i__main__
DelphiPrimitiveType
p208
(dp209
g159
g202
sbsg161
Nsbasg162
g138
sg163
Nsg166
I0
sg167
g183
sbsS'fillplantpartcolors'
p210
(i__main__
DelphiMethodDeclaration
p211
(dp212
g137
S'fillPlantPartColors'
p213
sg145
(lp214
sg162
g138
sg163
Nsg166
I0
sg167
g183
sbsS'usevisibleplantsclick'
p215
(i__main__
DelphiMethodDeclaration
p216
(dp217
g137
S'useVisiblePlantsClick'
p218
sg145
(lp219
(i__main__
DelphiFormalParameter
p220
(dp221
g149
Nsg150
(lp222
S'Sender'
p223
asg156
(i__main__
DelphiNamedType
p224
(dp225
g159
S'TObject'
p226
sg181
g1
sg182
Nsbsg161
Nsbasg162
g138
sg163
Nsg166
I0
sg167
g183
sbsS'transfercolor'
p227
(i__main__
DelphiMethodDeclaration
p228
(dp229
g137
S'transferColor'
p230
sg145
(lp231
(i__main__
DelphiFormalParameter
p232
(dp233
g149
Nsg150
(lp234
S'colorPanel'
p235
asg156
(i__main__
DelphiNamedType
p236
(dp237
g159
S'TPanel'
p238
sg181
g1
sg182
Nsbsg161
Nsba(i__main__
DelphiFormalParameter
p239
(dp240
g149
Nsg150
(lp241
S'value'
p242
asg156
(i__main__
DelphiNamedType
p243
(dp244
g159
S'TColorRef'
p245
sg181
g1
sg182
Nsbsg161
g203
sbasg162
g138
sg163
Nsg166
I0
sg167
g183
sbsS'helpbuttonclick'
p246
(i__main__
DelphiMethodDeclaration
p247
(dp248
g137
S'helpButtonClick'
p249
sg145
(lp250
(i__main__
DelphiFormalParameter
p251
(dp252
g149
Nsg150
(lp253
S'Sender'
p254
asg156
(i__main__
DelphiNamedType
p255
(dp256
g159
S'TObject'
p257
sg181
g1
sg182
Nsbsg161
Nsbasg162
g138
sg163
Nsg166
I0
sg167
g183
sbsS'colorsbyplantpartdrawitem'
p258
(i__main__
DelphiMethodDeclaration
p259
(dp260
g137
S'colorsByPlantPartDrawItem'
p261
sg145
(lp262
(i__main__
DelphiFormalParameter
p263
(dp264
g149
Nsg150
(lp265
S'Control'
p266
asg156
(i__main__
DelphiNamedType
p267
(dp268
g159
S'TWinControl'
p269
sg181
g1
sg182
Nsbsg161
Nsba(i__main__
DelphiFormalParameter
p270
(dp271
g149
Nsg150
(lp272
S'index'
p273
asg156
(i__main__
DelphiPrimitiveType
p274
(dp275
g159
S'integer'
p276
sbsg161
Nsba(i__main__
DelphiFormalParameter
p277
(dp278
g149
Nsg150
(lp279
S'Rect'
p280
asg156
(i__main__
DelphiNamedType
p281
(dp282
g159
S'TRect'
p283
sg181
g1
sg182
Nsbsg161
Nsba(i__main__
DelphiFormalParameter
p284
(dp285
g149
Nsg150
(lp286
S'State'
p287
asg156
(i__main__
DelphiNamedType
p288
(dp289
g159
S'TOwnerDrawState'
p290
sg181
g1
sg182
Nsbsg161
Nsbasg162
g138
sg163
Nsg166
I0
sg167
g183
sbsS'cancelclick'
p291
(i__main__
DelphiMethodDeclaration
p292
(dp293
g137
S'cancelClick'
p294
sg145
(lp295
(i__main__
DelphiFormalParameter
p296
(dp297
g149
Nsg150
(lp298
S'Sender'
p299
asg156
(i__main__
DelphiNamedType
p300
(dp301
g159
S'TObject'
p302
sg181
g1
sg182
Nsbsg161
Nsbasg162
g138
sg163
Nsg166
I0
sg167
g183
sbsS'dxfwritecolorsclick'
p303
(i__main__
DelphiMethodDeclaration
p304
(dp305
g137
S'dxfWriteColorsClick'
p306
sg145
(lp307
(i__main__
DelphiFormalParameter
p308
(dp309
g149
Nsg150
(lp310
S'Sender'
p311
asg156
(i__main__
DelphiNamedType
p312
(dp313
g159
S'TObject'
p314
sg181
g1
sg182
Nsbsg161
Nsbasg162
g138
sg163
Nsg166
I0
sg167
g183
sbsS'transferfields'
p315
(i__main__
DelphiMethodDeclaration
p316
(dp317
g137
S'transferFields'
p318
sg145
(lp319
sg162
g138
sg163
Nsg166
I0
sg167
g183
sbsS'colorsbyplantpartdblclick'
p320
(i__main__
DelphiMethodDeclaration
p321
(dp322
g137
S'colorsByPlantPartDblClick'
p323
sg145
(lp324
(i__main__
DelphiFormalParameter
p325
(dp326
g149
Nsg150
(lp327
S'Sender'
p328
asg156
(i__main__
DelphiNamedType
p329
(dp330
g159
S'TObject'
p331
sg181
g1
sg182
Nsbsg161
Nsbasg162
g138
sg163
Nsg166
I0
sg167
g183
sbsS'transfercombobox'
p332
(i__main__
DelphiMethodDeclaration
p333
(dp334
g137
S'transferComboBox'
p335
sg145
(lp336
(i__main__
DelphiFormalParameter
p337
(dp338
g149
Nsg150
(lp339
S'comboBox'
p340
asg156
(i__main__
DelphiNamedType
p341
(dp342
g159
S'TComboBox'
p343
sg181
g1
sg182
Nsbsg161
Nsba(i__main__
DelphiFormalParameter
p344
(dp345
g149
Nsg150
(lp346
S'value'
p347
asg156
(i__main__
DelphiPrimitiveType
p348
(dp349
g159
g202
sbsg161
g203
sbasg162
g138
sg163
Nsg166
I0
sg167
g183
sbsS'transfercheckbox'
p350
(i__main__
DelphiMethodDeclaration
p351
(dp352
g137
S'transferCheckBox'
p353
sg145
(lp354
(i__main__
DelphiFormalParameter
p355
(dp356
g149
Nsg150
(lp357
S'checkBox'
p358
asg156
(i__main__
DelphiNamedType
p359
(dp360
g159
S'TCheckBox'
p361
sg181
g1
sg182
Nsbsg161
Nsba(i__main__
DelphiFormalParameter
p362
(dp363
g149
Nsg150
(lp364
S'value'
p365
asg156
(i__main__
DelphiPrimitiveType
p366
(dp367
g159
S'boolean'
p368
sbsg161
g203
sbasg162
g138
sg163
Nsg166
I0
sg167
g183
sbsS'updatepredictedsizedisplay'
p369
(i__main__
DelphiMethodDeclaration
p370
(dp371
g137
S'updatePredictedSizeDisplay'
p372
sg145
(lp373
sg162
g138
sg163
Nsg166
I0
sg167
g183
sbsS'useallplantsclick'
p374
(i__main__
DelphiMethodDeclaration
p375
(dp376
g137
S'useAllPlantsClick'
p377
sg145
(lp378
(i__main__
DelphiFormalParameter
p379
(dp380
g149
Nsg150
(lp381
S'Sender'
p382
asg156
(i__main__
DelphiNamedType
p383
(dp384
g159
S'TObject'
p385
sg181
g1
sg182
Nsbsg161
Nsbasg162
g138
sg163
Nsg166
I0
sg167
g183
sbsS'transfersingleeditbox'
p386
(i__main__
DelphiMethodDeclaration
p387
(dp388
g137
S'transferSingleEditBox'
p389
sg145
(lp390
(i__main__
DelphiFormalParameter
p391
(dp392
g149
Nsg150
(lp393
S'editBox'
p394
asg156
(i__main__
DelphiNamedType
p395
(dp396
g159
S'TEdit'
p397
sg181
g1
sg182
Nsbsg161
Nsba(i__main__
DelphiFormalParameter
p398
(dp399
g149
Nsg150
(lp400
S'value'
p401
asg156
(i__main__
DelphiPrimitiveType
p402
(dp403
g159
S'single'
p404
sbsg161
g203
sbasg162
g138
sg163
Nsg166
I0
sg167
g183
sbsS'formactivate'
p405
(i__main__
DelphiMethodDeclaration
p406
(dp407
g137
S'FormActivate'
p408
sg145
(lp409
(i__main__
DelphiFormalParameter
p410
(dp411
g149
Nsg150
(lp412
S'Sender'
p413
asg156
(i__main__
DelphiNamedType
p414
(dp415
g159
S'TObject'
p416
sg181
g1
sg182
Nsbsg161
Nsbasg162
g138
sg163
Nsg166
I0
sg167
g183
sbsS'wholeplantcolormouseup'
p417
(i__main__
DelphiMethodDeclaration
p418
(dp419
g137
S'wholePlantColorMouseUp'
p420
sg145
(lp421
(i__main__
DelphiFormalParameter
p422
(dp423
g149
Nsg150
(lp424
S'Sender'
p425
asg156
(i__main__
DelphiNamedType
p426
(dp427
g159
S'TObject'
p428
sg181
g1
sg182
Nsbsg161
Nsba(i__main__
DelphiFormalParameter
p429
(dp430
g149
Nsg150
(lp431
S'Button'
p432
asg156
(i__main__
DelphiNamedType
p433
(dp434
g159
S'TMouseButton'
p435
sg181
g1
sg182
Nsbsg161
Nsba(i__main__
DelphiFormalParameter
p436
(dp437
g149
Nsg150
(lp438
S'Shift'
p439
asg156
(i__main__
DelphiNamedType
p440
(dp441
g159
S'TShiftState'
p442
sg181
g1
sg182
Nsbsg161
Nsba(i__main__
DelphiFormalParameter
p443
(dp444
g149
Nsg150
(lp445
S'X'
aS'Y'
asg156
(i__main__
DelphiPrimitiveType
p446
(dp447
g159
g276
sbsg161
Nsbasg162
g138
sg163
Nsg166
I0
sg167
g183
sbsS'rearrangeitemsforoutputtype'
p448
(i__main__
DelphiMethodDeclaration
p449
(dp450
g137
S'rearrangeItemsForOutputType'
p451
sg145
(lp452
sg162
g138
sg163
Nsg166
I0
sg167
g183
sS'commentLinesBefore'
p453
(lp454
S' Private declarations '
p455
aS' Public declarations '
p456
asbsS'transferradiogroup'
p457
(i__main__
DelphiMethodDeclaration
p458
(dp459
g137
S'transferRadioGroup'
p460
sg145
(lp461
(i__main__
DelphiFormalParameter
p462
(dp463
g149
Nsg150
(lp464
S'radioGroup'
p465
asg156
(i__main__
DelphiNamedType
p466
(dp467
g159
S'TRadioGroup'
p468
sg181
g1
sg182
Nsbsg161
Nsba(i__main__
DelphiFormalParameter
p469
(dp470
g149
Nsg150
(lp471
S'value'
p472
asg156
(i__main__
DelphiPrimitiveType
p473
(dp474
g159
g202
sbsg161
g203
sbasg162
g138
sg163
Nsg166
I0
sg167
g183
sbsS'formkeypress'
p475
(i__main__
DelphiMethodDeclaration
p476
(dp477
g137
S'FormKeyPress'
p478
sg145
(lp479
(i__main__
DelphiFormalParameter
p480
(dp481
g149
Nsg150
(lp482
S'Sender'
p483
asg156
(i__main__
DelphiNamedType
p484
(dp485
g159
S'TObject'
p486
sg181
g1
sg182
Nsbsg161
Nsba(i__main__
DelphiFormalParameter
p487
(dp488
g149
Nsg150
(lp489
S'Key'
p490
asg156
(i__main__
DelphiPrimitiveType
p491
(dp492
g159
S'char'
p493
sbsg161
g203
sbasg162
g138
sg163
Nsg166
I0
sg167
g183
sbsS'stemcylinderfaceschange'
p494
(i__main__
DelphiMethodDeclaration
p495
(dp496
g137
S'stemCylinderFacesChange'
p497
sg145
(lp498
(i__main__
DelphiFormalParameter
p499
(dp500
g149
Nsg150
(lp501
S'Sender'
p502
asg156
(i__main__
DelphiNamedType
p503
(dp504
g159
S'TObject'
p505
sg181
g1
sg182
Nsbsg161
Nsbasg162
g138
sg163
Nsg166
I0
sg167
g183
sbsS'transfersmallintspineditbox'
p506
(i__main__
DelphiMethodDeclaration
p507
(dp508
g137
S'transferSmallintSpinEditBox'
p509
sg145
(lp510
(i__main__
DelphiFormalParameter
p511
(dp512
g149
Nsg150
(lp513
S'editBox'
p514
asg156
(i__main__
DelphiNamedType
p515
(dp516
g159
S'TSpinEdit'
p517
sg181
g1
sg182
Nsbsg161
Nsba(i__main__
DelphiFormalParameter
p518
(dp519
g149
Nsg150
(lp520
S'value'
p521
asg156
(i__main__
DelphiPrimitiveType
p522
(dp523
g159
g202
sbsg161
g203
sbasg162
g138
sg163
Nsg166
I0
sg167
g183
sbsS'useselectedplantsclick'
p524
(i__main__
DelphiMethodDeclaration
p525
(dp526
g137
S'useSelectedPlantsClick'
p527
sg145
(lp528
(i__main__
DelphiFormalParameter
p529
(dp530
g149
Nsg150
(lp531
S'Sender'
p532
asg156
(i__main__
DelphiNamedType
p533
(dp534
g159
S'TObject'
p535
sg181
g1
sg182
Nsbsg161
Nsbasg162
g138
sg163
Nsg166
I0
sg167
g183
sbsS'closeclick'
p536
(i__main__
DelphiMethodDeclaration
p537
(dp538
g137
S'CloseClick'
p539
sg145
(lp540
(i__main__
DelphiFormalParameter
p541
(dp542
g149
Nsg150
(lp543
S'Sender'
p544
asg156
(i__main__
DelphiNamedType
p545
(dp546
g159
S'TObject'
p547
sg181
g1
sg182
Nsbsg161
Nsbasg162
g138
sg163
Nsg166
I0
sg167
g183
sbssS'superclassNamedTypes'
p548
(lp549
(i__main__
DelphiNamedType
p550
(dp551
g159
S'PdForm'
p552
sg181
g1
sg182
NsbasS'variableNames'
p553
(dp554
S'label8'
p555
(i__main__
DelphiNamedType
p556
(dp557
g159
S'TLabel'
p558
sg181
g1
sg182
NsbsS'lengthofshortname'
p559
(i__main__
DelphiNamedType
p560
(dp561
g159
S'TSpinEdit'
p562
sg181
g1
sg182
NsbsS'transferdirection'
p563
(i__main__
DelphiPrimitiveType
p564
(dp565
g159
g202
sbsS'nestcompoundleaf'
p566
(i__main__
DelphiNamedType
p567
(dp568
g159
S'TCheckBox'
p569
sg181
g1
sg182
NsbsS'layeringoption'
p570
(i__main__
DelphiNamedType
p571
(dp572
g159
S'TRadioGroup'
p573
sg181
g1
sg182
NsbsS'usevisibleplants'
p574
(i__main__
DelphiNamedType
p575
(dp576
g159
S'TRadioButton'
p577
sg181
g1
sg182
NsbsS'cancel'
p578
(i__main__
DelphiNamedType
p579
(dp580
g159
S'TButton'
p581
sg181
g1
sg182
NsbsS'mintdoscaletowrite'
p582
(i__main__
DelphiNamedType
p583
(dp584
g159
S'TEdit'
p585
sg181
g1
sg182
NsbsS'colorsbyplantpart'
p586
(i__main__
DelphiNamedType
p587
(dp588
g159
S'TListBox'
p589
sg181
g1
sg182
NsbsS'drawwhichplantsgroupbox'
p590
(i__main__
DelphiNamedType
p591
(dp592
g159
S'TGroupBox'
p593
sg181
g1
sg182
NsbsS'close'
p594
(i__main__
DelphiNamedType
p595
(dp596
g159
S'TButton'
p597
sg181
g1
sg182
NsbsS'label10'
p598
(i__main__
DelphiNamedType
p599
(dp600
g159
S'TLabel'
p601
sg181
g1
sg182
NsbsS'writeplantnumberinfrontofname'
p602
(i__main__
DelphiNamedType
p603
(dp604
g159
S'TCheckBox'
p605
sg181
g1
sg182
NsbsS'helpbutton'
p606
(i__main__
DelphiNamedType
p607
(dp608
g159
S'TSpeedButton'
p609
sg181
g1
sg182
NsbsS'useallplants'
p610
(i__main__
DelphiNamedType
p611
(dp612
g159
S'TRadioButton'
p613
sg181
g1
sg182
NsbsS'useselectedplants'
p614
(i__main__
DelphiNamedType
p615
(dp616
g159
S'TRadioButton'
p617
sg181
g1
sg182
NsbsS'totalplants'
p618
(i__main__
DelphiPrimitiveType
p619
(dp620
g159
g160
sbsS'othergroupbox'
p621
(i__main__
DelphiNamedType
p622
(dp623
g159
S'TGroupBox'
p624
sg181
g1
sg182
NsbsS'totalmaterials'
p625
g619
sS'stemcylinderfaces'
p626
(i__main__
DelphiNamedType
p627
(dp628
g159
S'TSpinEdit'
p629
sg181
g1
sg182
NsbsS'colordxffromrgb'
p630
(i__main__
DelphiNamedType
p631
(dp632
g159
S'TRadioButton'
p633
sg181
g1
sg182
NsbsS'wholeplantcolor'
p634
(i__main__
DelphiNamedType
p635
(dp636
g159
S'TPanel'
p637
sg181
g1
sg182
NsbsS'overallscalingfactor_pct'
p638
(i__main__
DelphiNamedType
p639
(dp640
g159
S'TSpinEdit'
p641
sg181
g1
sg182
NsbsS'commentoutunionatend'
p642
(i__main__
DelphiNamedType
p643
(dp644
g159
S'TCheckBox'
p645
sg181
g1
sg182
NsbsS'reorientgroupbox'
p646
(i__main__
DelphiNamedType
p647
(dp648
g159
S'TGroupBox'
p649
sg181
g1
sg182
NsbsS'optionschanged'
p650
(i__main__
DelphiPrimitiveType
p651
(dp652
g159
g368
sbsS'estimationstringgrid'
p653
(i__main__
DelphiNamedType
p654
(dp655
g159
S'TStringGrid'
p656
sg181
g1
sg182
NsbsS'label9'
p657
(i__main__
DelphiNamedType
p658
(dp659
g159
S'TLabel'
p660
sg181
g1
sg182
NsbsS'dxfcolorsgroupbox'
p661
(i__main__
DelphiNamedType
p662
(dp663
g159
S'TGroupBox'
p664
sg181
g1
sg182
NsbsS'totalpoints'
p665
g619
sS'nestinflorescence'
p666
(i__main__
DelphiNamedType
p667
(dp668
g159
S'TCheckBox'
p669
sg181
g1
sg182
NsbsS'maketrianglesdoublesided'
p670
(i__main__
DelphiNamedType
p671
(dp672
g159
S'TCheckBox'
p673
sg181
g1
sg182
NsbsS'colordxffromonecolor'
p674
(i__main__
DelphiNamedType
p675
(dp676
g159
S'TRadioButton'
p677
sg181
g1
sg182
NsbsS'label1'
p678
(i__main__
DelphiNamedType
p679
(dp680
g159
S'TLabel'
p681
sg181
g1
sg182
NsbsS'label2'
p682
(i__main__
DelphiNamedType
p683
(dp684
g159
S'TLabel'
p685
sg181
g1
sg182
NsbsS'label3'
p686
(i__main__
DelphiNamedType
p687
(dp688
g159
S'TLabel'
p689
sg181
g1
sg182
NsbsS'label4'
p690
(i__main__
DelphiNamedType
p691
(dp692
g159
S'TLabel'
p693
sg181
g1
sg182
NsbsS'label5'
p694
(i__main__
DelphiNamedType
p695
(dp696
g159
S'TLabel'
p697
sg181
g1
sg182
NsbsS'threedswarningpanel'
p698
(i__main__
DelphiNamedType
p699
(dp700
g159
S'TPanel'
p701
sg181
g1
sg182
NsbsS'label7'
p702
(i__main__
DelphiNamedType
p703
(dp704
g159
S'TLabel'
p705
sg181
g1
sg182
NsbsS'totalparts'
p706
g619
sS'nestleafandpetiole'
p707
(i__main__
DelphiNamedType
p708
(dp709
g159
S'TCheckBox'
p710
sg181
g1
sg182
NsbsS'label6'
p711
(i__main__
DelphiNamedType
p712
(dp713
g159
S'TLabel'
p714
sg181
g1
sg182
NsbsS'writecolors'
p715
(i__main__
DelphiNamedType
p716
(dp717
g159
S'TCheckBox'
p718
sg181
g1
sg182
NsbsS'pressplants'
p719
(i__main__
DelphiNamedType
p720
(dp721
g159
S'TCheckBox'
p722
sg181
g1
sg182
NsbsS'sideslabel'
p723
(i__main__
DelphiNamedType
p724
(dp725
g159
S'TLabel'
p726
sg181
g1
sg182
NsbsS'directiontopressplants'
p727
(i__main__
DelphiNamedType
p728
(dp729
g159
S'TComboBox'
p730
sg181
g1
sg182
NsbsS'pressplantspanel'
p731
(i__main__
DelphiNamedType
p732
(dp733
g159
S'TPanel'
p734
sg181
g1
sg182
NsbsS'nestinggroupbox'
p735
(i__main__
DelphiNamedType
p736
(dp737
g159
S'TGroupBox'
p738
sg181
g1
sg182
NsbsS'colordxffromplantparttype'
p739
(i__main__
DelphiNamedType
p740
(dp741
g159
S'TRadioButton'
p742
sg181
g1
sg182
NsbsS'stemcylinderfaceslabel'
p743
(i__main__
DelphiNamedType
p744
(dp745
g159
S'TLabel'
p746
sg181
g1
sg182
NsbsS'dxfwritecolors'
p747
(i__main__
DelphiNamedType
p748
(dp749
g159
S'TCheckBox'
p750
sg181
g1
sg182
NsbsS'minlinelengthtowrite'
p751
(i__main__
DelphiNamedType
p752
(dp753
g159
S'TEdit'
p754
sg181
g1
sg182
NsbsS'translateplantstowindowpositions'
p755
(i__main__
DelphiNamedType
p756
(dp757
g159
S'TCheckBox'
p758
sg181
g1
sg182
NsbsS'setplantpartcolor'
p759
(i__main__
DelphiNamedType
p760
(dp761
g159
S'TButton'
p762
sg181
g1
sg182
NsbsS'plantnameandcylindersidespanel'
p763
(i__main__
DelphiNamedType
p764
(dp765
g159
S'TPanel'
p766
sg181
g1
sg182
NsbsS'outputtype'
p767
(i__main__
DelphiPrimitiveType
p768
(dp769
g159
g202
sbsS'vrmlversionradiogroup'
p770
(i__main__
DelphiNamedType
p771
(dp772
g159
S'TRadioGroup'
p773
sg181
g1
sg182
NsbsS'povlimitsgroupbox'
p774
(i__main__
DelphiNamedType
p775
(dp776
g159
S'TGroupBox'
p777
sg181
g1
sg182
NsbsS'nestpedicelandflowerfruit'
p778
(i__main__
DelphiNamedType
p779
(dp780
g159
S'TCheckBox'
p781
sg181
g1
sg182
NsbsS'nestflorallayers'
p782
(i__main__
DelphiNamedType
p783
(dp784
g159
S'TCheckBox'
p785
sg181
g1
sg182
NsbsS'options'
p786
(i__main__
DelphiNamedType
p787
(dp788
g159
S'FileExport3DOptionsStructure'
p789
sg181
g1
sg182
NsbsS'xrotationbeforedraw'
p790
(i__main__
DelphiNamedType
p791
(dp792
g159
S'TSpinEdit'
p793
sg181
g1
sg182
NsbsS'totaltriangles'
p794
g619
ssS'methodNamesInDefinedOrder'
p795
(lp796
S'formactivate'
p797
aS'closeclick'
p798
aS'cancelclick'
p799
aS'rearrangeitemsforoutputtype'
p800
aS'transferfields'
p801
aS'updatepredictedsizedisplay'
p802
aS'estimatebytes'
p803
aS'fillplantpartcolors'
p804
aS'colorsbyplantpartdrawitem'
p805
aS'wholeplantcolormouseup'
p806
aS'setplantpartcolorclick'
p807
aS'colorsbyplantpartdblclick'
p808
aS'transferradiobutton'
p809
aS'transfercheckbox'
p810
aS'transfercolor'
p811
aS'transfersmallintspineditbox'
p812
aS'transferradiogroup'
p813
aS'transfercombobox'
p814
aS'transfersingleeditbox'
p815
aS'helpbuttonclick'
p816
aS'formkeypress'
p817
aS'useselectedplantsclick'
p818
aS'usevisibleplantsclick'
p819
aS'useallplantsclick'
p820
aS'stemcylinderfaceschange'
p821
aS'dxfwritecolorsclick'
p822
asS'methodImplementations'
p823
(dp824
S'estimatebytes'
p825
(i__main__
DelphiMethodImplementation
p826
(dp827
S'originalDeclaration'
p828
g142
sg137
g144
sg145
(lp829
(i__main__
DelphiFormalParameter
p830
(dp831
g149
Nsg150
(lp832
S'numPlants'
p833
aS'numParts'
p834
aS'numPoints'
p835
aS'numTriangles'
p836
asg156
(i__main__
DelphiPrimitiveType
p837
(dp838
g159
g160
sbsg161
NsbasS'varParamIndexes'
p839
(lp840
sS'varParamsSkipped'
p841
(lp842
sS'argNames'
p843
(lp844
S'self'
p845
ag833
ag834
ag835
ag836
asS'argTypes'
p846
(dp847
g836
g837
sg835
g837
sg834
g837
sg833
g837
ssg162
S'TGeneric3DOptionsForm'
p848
sg163
(i__main__
DelphiPrimitiveType
p849
(dp850
g159
g160
sbsS'varParamNames'
p851
(lp852
sg166
I0
sg167
g168
sS'block'
p853
(i__main__
DelphiBlock
p854
(dp855
S'compoundStatement'
p856
(idelphi
DelphiCompoundStatement
p857
(dp858
S'statements'
p859
(lp860
(idelphi
DelphiCaseStatement
p861
(dp862
S'elseStatement'
p863
(idelphi
DelphiRaiseStatement
p864
(dp865
S'expression'
p866
(i__main__
DelphiIdentAccess
p867
(dp868
S'ident'
p869
S'Exception'
p870
sS'endAccessList'
p871
(lp872
(idelphi
DelphiFieldEndAccess
p873
(dp874
S'field'
p875
S'create'
p876
sba(idelphi
DelphiFunctionEndAccess
p877
(dp878
S'expressionList'
p879
(lp880
(idelphi
DelphiStringAccess
p881
(dp882
g871
(lp883
sS'string'
p884
(idelphi
DelphiStringValue
p885
(dp886
g884
S'Problem: Invalid 3d export type for size estimation.'
p887
sbsbasbasbsbsg866
(i__main__
DelphiIdentAccess
p888
(dp889
g869
S'outputType'
p890
sg871
(lp891
sbsS'caseSelectorList'
p892
(lp893
(idelphi
DelphiCaseSelector
p894
(dp895
S'statement'
p896
(i__main__
DelphiAssignStatement
p897
(dp898
S'newValueExpression'
p899
(idelphi
DelphiMulOp
p900
(dp901
S'signedFactor2'
p902
(idelphi
DelphiIntegerValue
p903
(dp904
g884
S'250'
p905
sbsS'mulOp'
p906
S'*'
sS'signedFactor1'
p907
(i__main__
DelphiIdentAccess
p908
(dp909
g869
S'numPoints'
p910
sg871
(lp911
sbsbsS'destinationExpression'
p912
(i__main__
DelphiIdentAccess
p913
(dp914
g869
S'result'
p915
sg871
(lp916
sbsbsS'caseLabelList'
p917
(lp918
(i__main__
DelphiIdentAccess
p919
(dp920
g869
S'kDXF'
p921
sg871
(lp922
sbasba(idelphi
DelphiCaseSelector
p923
(dp924
g896
(i__main__
DelphiAssignStatement
p925
(dp926
g899
(idelphi
DelphiAddOp
p927
(dp928
S'addOp'
p929
S'+'
sS'term2'
p930
(idelphi
DelphiMulOp
p931
(dp932
g902
(idelphi
DelphiIntegerValue
p933
(dp934
g884
S'150'
p935
sbsg906
S'*'
sg907
(i__main__
DelphiIdentAccess
p936
(dp937
g869
S'numTriangles'
p938
sg871
(lp939
sbsbsS'term1'
p940
(idelphi
DelphiAddOp
p941
(dp942
g929
S'+'
sg930
(idelphi
DelphiMulOp
p943
(dp944
g902
(idelphi
DelphiIntegerValue
p945
(dp946
g884
S'25'
p947
sbsg906
S'*'
sg907
(i__main__
DelphiIdentAccess
p948
(dp949
g869
S'numParts'
p950
sg871
(lp951
sbsbsg940
(idelphi
DelphiMulOp
p952
(dp953
g902
(idelphi
DelphiIntegerValue
p954
(dp955
g884
S'25'
p956
sbsg906
S'*'
sg907
(i__main__
DelphiIdentAccess
p957
(dp958
g869
S'numPlants'
p959
sg871
(lp960
sbsbsbsbsg912
(i__main__
DelphiIdentAccess
p961
(dp962
g869
S'result'
p963
sg871
(lp964
sbsbsg917
(lp965
(i__main__
DelphiIdentAccess
p966
(dp967
g869
S'kPOV'
p968
sg871
(lp969
sbasba(idelphi
DelphiCaseSelector
p970
(dp971
g896
(i__main__
DelphiAssignStatement
p972
(dp973
g899
(idelphi
DelphiAddOp
p974
(dp975
g929
S'+'
sg930
(idelphi
DelphiMulOp
p976
(dp977
g902
(idelphi
DelphiIntegerValue
p978
(dp979
g884
S'24'
p980
sbsg906
S'*'
sg907
(i__main__
DelphiIdentAccess
p981
(dp982
g869
S'numTriangles'
p983
sg871
(lp984
sbsbsg940
(idelphi
DelphiAddOp
p985
(dp986
g929
S'+'
sg930
(idelphi
DelphiMulOp
p987
(dp988
g902
(idelphi
DelphiIntegerValue
p989
(dp990
g884
S'24'
p991
sbsg906
S'*'
sg907
(i__main__
DelphiIdentAccess
p992
(dp993
g869
S'numPoints'
p994
sg871
(lp995
sbsbsg940
(idelphi
DelphiAddOp
p996
(dp997
g929
S'+'
sg930
(idelphi
DelphiMulOp
p998
(dp999
g902
(idelphi
DelphiIntegerValue
p1000
(dp1001
g884
S'48'
p1002
sbsg906
S'*'
sg907
(i__main__
DelphiIdentAccess
p1003
(dp1004
g869
S'numParts'
p1005
sg871
(lp1006
sbsbsg940
(idelphi
DelphiMulOp
p1007
(dp1008
g902
(idelphi
DelphiIntegerValue
p1009
(dp1010
g884
S'48'
p1011
sbsg906
S'*'
sg907
(i__main__
DelphiIdentAccess
p1012
(dp1013
g869
S'numPlants'
p1014
sg871
(lp1015
sbsbsbsbsbsg912
(i__main__
DelphiIdentAccess
p1016
(dp1017
g869
S'result'
p1018
sg871
(lp1019
sbsbsg917
(lp1020
(i__main__
DelphiIdentAccess
p1021
(dp1022
g869
S'k3DS'
p1023
sg871
(lp1024
sbasba(idelphi
DelphiCaseSelector
p1025
(dp1026
g896
(i__main__
DelphiAssignStatement
p1027
(dp1028
g899
(idelphi
DelphiAddOp
p1029
(dp1030
g929
S'+'
sg930
(idelphi
DelphiMulOp
p1031
(dp1032
g902
(idelphi
DelphiIntegerValue
p1033
(dp1034
g884
S'50'
p1035
sbsg906
S'*'
sg907
(i__main__
DelphiIdentAccess
p1036
(dp1037
g869
S'numTriangles'
p1038
sg871
(lp1039
sbsbsg940
(idelphi
DelphiAddOp
p1040
(dp1041
g929
S'+'
sg930
(idelphi
DelphiMulOp
p1042
(dp1043
g902
(idelphi
DelphiIntegerValue
p1044
(dp1045
g884
S'50'
p1046
sbsg906
S'*'
sg907
(i__main__
DelphiIdentAccess
p1047
(dp1048
g869
S'numPoints'
p1049
sg871
(lp1050
sbsbsg940
(idelphi
DelphiAddOp
p1051
(dp1052
g929
S'+'
sg930
(idelphi
DelphiMulOp
p1053
(dp1054
g902
(idelphi
DelphiIntegerValue
p1055
(dp1056
g884
S'100'
p1057
sbsg906
S'*'
sg907
(i__main__
DelphiIdentAccess
p1058
(dp1059
g869
S'numParts'
p1060
sg871
(lp1061
sbsbsg940
(idelphi
DelphiMulOp
p1062
(dp1063
g902
(idelphi
DelphiIntegerValue
p1064
(dp1065
g884
S'100'
p1066
sbsg906
S'*'
sg907
(i__main__
DelphiIdentAccess
p1067
(dp1068
g869
S'numPlants'
p1069
sg871
(lp1070
sbsbsbsbsbsg912
(i__main__
DelphiIdentAccess
p1071
(dp1072
g869
S'result'
p1073
sg871
(lp1074
sbsbsg917
(lp1075
(i__main__
DelphiIdentAccess
p1076
(dp1077
g869
S'kOBJ'
p1078
sg871
(lp1079
sbasba(idelphi
DelphiCaseSelector
p1080
(dp1081
g896
(i__main__
DelphiAssignStatement
p1082
(dp1083
g899
(idelphi
DelphiAddOp
p1084
(dp1085
g929
S'+'
sg930
(idelphi
DelphiMulOp
p1086
(dp1087
g902
(idelphi
DelphiIntegerValue
p1088
(dp1089
g884
S'80'
p1090
sbsg906
S'*'
sg907
(i__main__
DelphiIdentAccess
p1091
(dp1092
g869
S'numTriangles'
p1093
sg871
(lp1094
sbsbsg940
(idelphi
DelphiAddOp
p1095
(dp1096
g929
S'+'
sg930
(idelphi
DelphiMulOp
p1097
(dp1098
g902
(idelphi
DelphiIntegerValue
p1099
(dp1100
g884
S'80'
p1101
sbsg906
S'*'
sg907
(i__main__
DelphiIdentAccess
p1102
(dp1103
g869
S'numPoints'
p1104
sg871
(lp1105
sbsbsg940
(idelphi
DelphiAddOp
p1106
(dp1107
g929
S'+'
sg930
(idelphi
DelphiMulOp
p1108
(dp1109
g902
(idelphi
DelphiIntegerValue
p1110
(dp1111
g884
S'100'
p1112
sbsg906
S'*'
sg907
(i__main__
DelphiIdentAccess
p1113
(dp1114
g869
S'numParts'
p1115
sg871
(lp1116
sbsbsg940
(idelphi
DelphiMulOp
p1117
(dp1118
g902
(idelphi
DelphiIntegerValue
p1119
(dp1120
g884
S'100'
p1121
sbsg906
S'*'
sg907
(i__main__
DelphiIdentAccess
p1122
(dp1123
g869
S'numPlants'
p1124
sg871
(lp1125
sbsbsbsbsbsg912
(i__main__
DelphiIdentAccess
p1126
(dp1127
g869
S'result'
p1128
sg871
(lp1129
sbsbsg917
(lp1130
(i__main__
DelphiIdentAccess
p1131
(dp1132
g869
S'kVRML'
p1133
sg871
(lp1134
sbasba(idelphi
DelphiCaseSelector
p1135
(dp1136
g896
(i__main__
DelphiAssignStatement
p1137
(dp1138
g899
(idelphi
DelphiAddOp
p1139
(dp1140
g929
S'+'
sg930
(idelphi
DelphiMulOp
p1141
(dp1142
g902
(idelphi
DelphiIntegerValue
p1143
(dp1144
g884
S'20'
p1145
sbsg906
S'*'
sg907
(i__main__
DelphiIdentAccess
p1146
(dp1147
g869
S'numTriangles'
p1148
sg871
(lp1149
sbsbsg940
(idelphi
DelphiAddOp
p1150
(dp1151
g929
S'+'
sg930
(idelphi
DelphiMulOp
p1152
(dp1153
g902
(idelphi
DelphiIntegerValue
p1154
(dp1155
g884
S'20'
p1156
sbsg906
S'*'
sg907
(i__main__
DelphiIdentAccess
p1157
(dp1158
g869
S'numPoints'
p1159
sg871
(lp1160
sbsbsg940
(idelphi
DelphiAddOp
p1161
(dp1162
g929
S'+'
sg930
(idelphi
DelphiMulOp
p1163
(dp1164
g902
(idelphi
DelphiIntegerValue
p1165
(dp1166
g884
S'100'
p1167
sbsg906
S'*'
sg907
(i__main__
DelphiIdentAccess
p1168
(dp1169
g869
S'numParts'
p1170
sg871
(lp1171
sbsbsg940
(idelphi
DelphiMulOp
p1172
(dp1173
g902
(idelphi
DelphiIntegerValue
p1174
(dp1175
g884
S'600'
p1176
sbsg906
S'*'
sg907
(i__main__
DelphiIdentAccess
p1177
(dp1178
g869
S'numPlants'
p1179
sg871
(lp1180
sbsbsbsbsbsg912
(i__main__
DelphiIdentAccess
p1181
(dp1182
g869
S'result'
p1183
sg871
(lp1184
sbsbsg917
(lp1185
(i__main__
DelphiIdentAccess
p1186
(dp1187
g869
S'kLWO'
p1188
sg871
(lp1189
sbasbasbasbsS'limitedDeclSectionList'
p1190
(lp1191
sbsbsS'setplantpartcolorclick'
p1192
(i__main__
DelphiMethodImplementation
p1193
(dp1194
g828
g170
sg137
g172
sg145
(lp1195
(i__main__
DelphiFormalParameter
p1196
(dp1197
g149
Nsg150
(lp1198
S'Sender'
p1199
asg156
(i__main__
DelphiNamedType
p1200
(dp1201
g159
S'TObject'
p1202
sg181
g1
sg182
Nsbsg161
Nsbasg839
(lp1203
sg841
(lp1204
sg843
(lp1205
g845
ag1199
asg846
(dp1206
g1199
g1200
ssg162
S'TGeneric3DOptionsForm'
p1207
sg163
Nsg851
(lp1208
sg166
I0
sg167
g183
sg853
(i__main__
DelphiBlock
p1209
(dp1210
g856
(idelphi
DelphiCompoundStatement
p1211
(dp1212
g859
(lp1213
(i__main__
DelphiAssignStatement
p1214
(dp1215
g899
(idelphi
DelphiSign
p1216
(dp1217
S'factor'
p1218
(idelphi
DelphiIntegerValue
p1219
(dp1220
g884
S'1'
sbsS'sign'
p1221
S'-'
sbsg912
(i__main__
DelphiIdentAccess
p1222
(dp1223
g869
S'firstColorIndex'
p1224
sg871
(lp1225
sbsba(idelphi
DelphiIfStatement
p1226
(dp1227
g866
(idelphi
DelphiRelOp
p1228
(dp1229
S'simpleExpression1'
p1230
(i__main__
DelphiIdentAccess
p1231
(dp1232
g869
S'colorsByPlantPart'
p1233
sg871
(lp1234
(idelphi
DelphiFieldEndAccess
p1235
(dp1236
g875
S'items'
p1237
sba(idelphi
DelphiFieldEndAccess
p1238
(dp1239
g875
S'count'
p1240
sbasbsS'simpleExpression2'
p1241
(idelphi
DelphiIntegerValue
p1242
(dp1243
g884
S'0'
sbsS'relOp'
p1244
S'>'
sbsS'ifFalseStatement'
p1245
NsS'ifTrueStatement'
p1246
(idelphi
DelphiForStatement
p1247
(dp1248
S'variable'
p1249
S'i'
sS'finalValue'
p1250
(idelphi
DelphiAddOp
p1251
(dp1252
g929
S'-'
sg930
(idelphi
DelphiIntegerValue
p1253
(dp1254
g884
S'1'
sbsg940
(i__main__
DelphiIdentAccess
p1255
(dp1256
g869
S'colorsByPlantPart'
p1257
sg871
(lp1258
(idelphi
DelphiFieldEndAccess
p1259
(dp1260
g875
S'items'
p1261
sba(idelphi
DelphiFieldEndAccess
p1262
(dp1263
g875
S'count'
p1264
sbasbsbsS'direction'
p1265
S'to'
p1266
sg149
(idelphi
DelphiIntegerValue
p1267
(dp1268
g884
S'0'
sbsg896
(idelphi
DelphiIfStatement
p1269
(dp1270
g866
(i__main__
DelphiIdentAccess
p1271
(dp1272
g869
S'colorsByPlantPart'
p1273
sg871
(lp1274
(idelphi
DelphiFieldEndAccess
p1275
(dp1276
g875
S'selected'
p1277
sba(idelphi
DelphiArrayEndAccess
p1278
(dp1279
g879
(lp1280
(i__main__
DelphiIdentAccess
p1281
(dp1282
g869
S'i'
sg871
(lp1283
sbasbasbsg1245
Nsg1246
(idelphi
DelphiIfStatement
p1284
(dp1285
g866
(idelphi
DelphiRelOp
p1286
(dp1287
g1230
(i__main__
DelphiIdentAccess
p1288
(dp1289
g869
S'firstColorIndex'
p1290
sg871
(lp1291
sbsg1241
(idelphi
DelphiSign
p1292
(dp1293
g1218
(idelphi
DelphiIntegerValue
p1294
(dp1295
g884
S'1'
sbsg1221
S'-'
sbsg1244
S'='
sbsg1245
Nsg1246
(i__main__
DelphiAssignStatement
p1296
(dp1297
g899
(i__main__
DelphiIdentAccess
p1298
(dp1299
g869
S'options'
p1300
sg871
(lp1301
(idelphi
DelphiFieldEndAccess
p1302
(dp1303
g875
S'dxf_plantPartColorIndexes'
p1304
sba(idelphi
DelphiArrayEndAccess
p1305
(dp1306
g879
(lp1307
(i__main__
DelphiIdentAccess
p1308
(dp1309
g869
S'i'
sg871
(lp1310
sbasbasbsg912
(i__main__
DelphiIdentAccess
p1311
(dp1312
g869
S'firstColorIndex'
p1313
sg871
(lp1314
sbsbsbsbsbsba(idelphi
DelphiIfStatement
p1315
(dp1316
g866
(idelphi
DelphiRelOp
p1317
(dp1318
g1230
(i__main__
DelphiIdentAccess
p1319
(dp1320
g869
S'firstColorIndex'
p1321
sg871
(lp1322
sbsg1241
(idelphi
DelphiIntegerValue
p1323
(dp1324
g884
S'0'
sbsg1244
S'<'
sbsg1245
Nsg1246
(i__main__
DelphiExitStatement
p1325
(dp1326
S'proceduralOrMethodImplementation'
p1327
g1193
sbsba(i__main__
DelphiAssignStatement
p1328
(dp1329
g899
(i__main__
DelphiIdentAccess
p1330
(dp1331
g869
S'TChooseDXFColorForm'
p1332
sg871
(lp1333
(idelphi
DelphiFieldEndAccess
p1334
(dp1335
g875
S'create'
p1336
sba(idelphi
DelphiFunctionEndAccess
p1337
(dp1338
g879
(lp1339
(i__main__
DelphiIdentAccess
p1340
(dp1341
g869
S'self'
p1342
sg871
(lp1343
sbasbasbsg912
(i__main__
DelphiIdentAccess
p1344
(dp1345
g869
S'colorForm'
p1346
sg871
(lp1347
sbsba(idelphi
DelphiIfStatement
p1348
(dp1349
g866
(idelphi
DelphiRelOp
p1350
(dp1351
g1230
(i__main__
DelphiIdentAccess
p1352
(dp1353
g869
S'colorForm'
p1354
sg871
(lp1355
sbsg1241
(idelphi
DelphiNilValue
p1356
(dp1357
bsg1244
S'='
sbsg1245
Nsg1246
(idelphi
DelphiRaiseStatement
p1358
(dp1359
g866
(i__main__
DelphiIdentAccess
p1360
(dp1361
g869
S'Exception'
p1362
sg871
(lp1363
(idelphi
DelphiFieldEndAccess
p1364
(dp1365
g875
S'create'
p1366
sba(idelphi
DelphiFunctionEndAccess
p1367
(dp1368
g879
(lp1369
(idelphi
DelphiStringAccess
p1370
(dp1371
g871
(lp1372
sg884
(idelphi
DelphiStringValue
p1373
(dp1374
g884
S'Problem: Could not create color window.'
p1375
sbsbasbasbsbsba(idelphi
DelphiTryFinallyStatement
p1376
(dp1377
S'tryStatements'
p1378
(lp1379
(i__main__
DelphiAssignStatement
p1380
(dp1381
g899
(i__main__
DelphiIdentAccess
p1382
(dp1383
g869
S'firstColorIndex'
p1384
sg871
(lp1385
sbsg912
(i__main__
DelphiIdentAccess
p1386
(dp1387
g869
S'colorForm'
p1388
sg871
(lp1389
(idelphi
DelphiFieldEndAccess
p1390
(dp1391
g875
S'colorIndex'
p1392
sbasbsba(i__main__
DelphiAssignStatement
p1393
(dp1394
g899
(i__main__
DelphiIdentAccess
p1395
(dp1396
g869
S'colorForm'
p1397
sg871
(lp1398
(idelphi
DelphiFieldEndAccess
p1399
(dp1400
g875
S'showModal'
p1401
sbasbsg912
(i__main__
DelphiIdentAccess
p1402
(dp1403
g869
S'response'
p1404
sg871
(lp1405
sbsba(idelphi
DelphiIfStatement
p1406
(dp1407
g866
(idelphi
DelphiRelOp
p1408
(dp1409
g1230
(i__main__
DelphiIdentAccess
p1410
(dp1411
g869
S'response'
p1412
sg871
(lp1413
sbsg1241
(i__main__
DelphiIdentAccess
p1414
(dp1415
g869
S'mrOK'
p1416
sg871
(lp1417
sbsg1244
S'='
sbsg1245
Nsg1246
(idelphi
DelphiCompoundStatement
p1418
(dp1419
g859
(lp1420
(idelphi
DelphiIfStatement
p1421
(dp1422
g866
(idelphi
DelphiRelOp
p1423
(dp1424
g1230
(i__main__
DelphiIdentAccess
p1425
(dp1426
g869
S'colorsByPlantPart'
p1427
sg871
(lp1428
(idelphi
DelphiFieldEndAccess
p1429
(dp1430
g875
S'items'
p1431
sba(idelphi
DelphiFieldEndAccess
p1432
(dp1433
g875
S'count'
p1434
sbasbsg1241
(idelphi
DelphiIntegerValue
p1435
(dp1436
g884
S'0'
sbsg1244
S'>'
sbsg1245
Nsg1246
(idelphi
DelphiForStatement
p1437
(dp1438
g1249
S'i'
sg1250
(idelphi
DelphiAddOp
p1439
(dp1440
g929
S'-'
sg930
(idelphi
DelphiIntegerValue
p1441
(dp1442
g884
S'1'
sbsg940
(i__main__
DelphiIdentAccess
p1443
(dp1444
g869
S'colorsByPlantPart'
p1445
sg871
(lp1446
(idelphi
DelphiFieldEndAccess
p1447
(dp1448
g875
S'items'
p1449
sba(idelphi
DelphiFieldEndAccess
p1450
(dp1451
g875
S'count'
p1452
sbasbsbsg1265
g1266
sg149
(idelphi
DelphiIntegerValue
p1453
(dp1454
g884
S'0'
sbsg896
(idelphi
DelphiIfStatement
p1455
(dp1456
g866
(i__main__
DelphiIdentAccess
p1457
(dp1458
g869
S'colorsByPlantPart'
p1459
sg871
(lp1460
(idelphi
DelphiFieldEndAccess
p1461
(dp1462
g875
S'selected'
p1463
sba(idelphi
DelphiArrayEndAccess
p1464
(dp1465
g879
(lp1466
(i__main__
DelphiIdentAccess
p1467
(dp1468
g869
S'i'
sg871
(lp1469
sbasbasbsg1245
Nsg1246
(i__main__
DelphiAssignStatement
p1470
(dp1471
g899
(i__main__
DelphiIdentAccess
p1472
(dp1473
g869
S'colorForm'
p1474
sg871
(lp1475
(idelphi
DelphiFieldEndAccess
p1476
(dp1477
g875
S'colorIndex'
p1478
sbasbsg912
(i__main__
DelphiIdentAccess
p1479
(dp1480
g869
S'options'
p1481
sg871
(lp1482
(idelphi
DelphiFieldEndAccess
p1483
(dp1484
g875
S'dxf_plantPartColorIndexes'
p1485
sba(idelphi
DelphiArrayEndAccess
p1486
(dp1487
g879
(lp1488
(i__main__
DelphiIdentAccess
p1489
(dp1490
g869
S'i'
sg871
(lp1491
sbasbasbsbsbsbsba(i__main__
DelphiAssignStatement
p1492
(dp1493
g899
Nsg912
(i__main__
DelphiIdentAccess
p1494
(dp1495
g869
S'colorsByPlantPart'
p1496
sg871
(lp1497
(idelphi
DelphiFieldEndAccess
p1498
(dp1499
g875
S'invalidate'
p1500
sbasbsba(i__main__
DelphiAssignStatement
p1501
(dp1502
g899
(i__main__
DelphiIdentAccess
p1503
(dp1504
g869
S'true'
p1505
sg871
(lp1506
sbsg912
(i__main__
DelphiIdentAccess
p1507
(dp1508
g869
S'optionsChanged'
p1509
sg871
(lp1510
sbsbasbsbasS'finallyStatements'
p1511
(lp1512
(i__main__
DelphiAssignStatement
p1513
(dp1514
g899
Nsg912
(i__main__
DelphiIdentAccess
p1515
(dp1516
g869
S'colorForm'
p1517
sg871
(lp1518
(idelphi
DelphiFieldEndAccess
p1519
(dp1520
g875
S'free'
p1521
sbasbsba(i__main__
DelphiAssignStatement
p1522
(dp1523
g899
(idelphi
DelphiNilValue
p1524
(dp1525
bsg912
(i__main__
DelphiIdentAccess
p1526
(dp1527
g869
S'colorForm'
p1528
sg871
(lp1529
sbsbasbasbsg1190
(lp1530
(i__main__
DelphiVarSection
p1531
(dp1532
S'atTopLevel'
p1533
I0
sS'varDeclList'
p1534
(lp1535
(idelphi
DelphiVarDecl
p1536
(dp1537
S'constExpression'
p1538
NsS'identList'
p1539
(lp1540
S'colorForm'
p1541
asg156
(i__main__
DelphiNamedType
p1542
(dp1543
g159
S'TChooseDXFColorForm'
p1544
sg181
g1
sg182
Nsbsba(idelphi
DelphiVarDecl
p1545
(dp1546
g1538
Nsg1539
(lp1547
S'response'
p1548
asg156
(i__main__
DelphiPrimitiveType
p1549
(dp1550
g159
g276
sbsba(idelphi
DelphiVarDecl
p1551
(dp1552
g1538
Nsg1539
(lp1553
S'firstColorIndex'
p1554
asg156
(i__main__
DelphiNamedType
p1555
(dp1556
g159
S'TColorRef'
p1557
sg181
g1
sg182
Nsbsba(idelphi
DelphiVarDecl
p1558
(dp1559
g1538
Nsg1539
(lp1560
S'i'
asg156
(i__main__
DelphiPrimitiveType
p1561
(dp1562
g159
g202
sbsbasbasbsbsS'transferradiobutton'
p1563
(i__main__
DelphiMethodImplementation
p1564
(dp1565
g828
g185
sg137
g187
sg145
(lp1566
(i__main__
DelphiFormalParameter
p1567
(dp1568
g149
Nsg150
(lp1569
S'radioButton'
p1570
asg156
(i__main__
DelphiNamedType
p1571
(dp1572
g159
S'TRadioButton'
p1573
sg181
g1
sg182
Nsbsg161
Nsba(i__main__
DelphiFormalParameter
p1574
(dp1575
g149
Nsg150
(lp1576
S'value'
p1577
asg156
(i__main__
DelphiPrimitiveType
p1578
(dp1579
g159
g202
sbsg161
g203
sba(i__main__
DelphiFormalParameter
p1580
(dp1581
g149
Nsg150
(lp1582
S'radioIndex'
p1583
asg156
(i__main__
DelphiPrimitiveType
p1584
(dp1585
g159
g202
sbsg161
Nsbasg839
(lp1586
I1
asg841
(lp1587
sg843
(lp1588
g845
ag1570
ag1577
ag1583
asg846
(dp1589
g1583
g1584
sg1570
g1571
sg1577
g1578
ssg162
S'TGeneric3DOptionsForm'
p1590
sg163
Nsg851
(lp1591
g1577
asg166
I0
sg167
g183
sg853
(i__main__
DelphiBlock
p1592
(dp1593
g856
(idelphi
DelphiCompoundStatement
p1594
(dp1595
g859
(lp1596
(idelphi
DelphiIfStatement
p1597
(dp1598
g866
(idelphi
DelphiRelOp
p1599
(dp1600
g1230
(i__main__
DelphiIdentAccess
p1601
(dp1602
g869
S'transferDirection'
p1603
sg871
(lp1604
sbsg1241
(i__main__
DelphiIdentAccess
p1605
(dp1606
g869
S'kTransferLoad'
p1607
sg871
(lp1608
sbsg1244
S'='
sbsg1245
(idelphi
DelphiIfStatement
p1609
(dp1610
g866
(idelphi
DelphiRelOp
p1611
(dp1612
g1230
(i__main__
DelphiIdentAccess
p1613
(dp1614
g869
S'transferDirection'
p1615
sg871
(lp1616
sbsg1241
(i__main__
DelphiIdentAccess
p1617
(dp1618
g869
S'kTransferSave'
p1619
sg871
(lp1620
sbsg1244
S'='
sbsg1245
Nsg1246
(idelphi
DelphiCompoundStatement
p1621
(dp1622
g859
(lp1623
(idelphi
DelphiIfStatement
p1624
(dp1625
g866
(idelphi
DelphiMulOp
p1626
(dp1627
g902
(idelphi
DelphiNestedExpressionListAccess
p1628
(dp1629
g871
(lp1630
sg879
(lp1631
(idelphi
DelphiRelOp
p1632
(dp1633
g1230
(i__main__
DelphiIdentAccess
p1634
(dp1635
g869
S'value'
p1636
sg871
(lp1637
sbsg1241
(i__main__
DelphiIdentAccess
p1638
(dp1639
g869
S'radioIndex'
p1640
sg871
(lp1641
sbsg1244
S'<>'
p1642
sbasbsg906
S'and'
p1643
sg907
(idelphi
DelphiNestedExpressionListAccess
p1644
(dp1645
g871
(lp1646
sg879
(lp1647
(i__main__
DelphiIdentAccess
p1648
(dp1649
g869
S'radioButton'
p1650
sg871
(lp1651
(idelphi
DelphiFieldEndAccess
p1652
(dp1653
g875
S'checked'
p1654
sbasbasbsbsg1245
Nsg1246
(i__main__
DelphiAssignStatement
p1655
(dp1656
g899
(i__main__
DelphiIdentAccess
p1657
(dp1658
g869
S'true'
p1659
sg871
(lp1660
sbsg912
(i__main__
DelphiIdentAccess
p1661
(dp1662
g869
S'optionsChanged'
p1663
sg871
(lp1664
sbsbsba(idelphi
DelphiIfStatement
p1665
(dp1666
g866
(i__main__
DelphiIdentAccess
p1667
(dp1668
g869
S'radioButton'
p1669
sg871
(lp1670
(idelphi
DelphiFieldEndAccess
p1671
(dp1672
g875
S'checked'
p1673
sbasbsg1245
Nsg1246
(i__main__
DelphiAssignStatement
p1674
(dp1675
g899
(i__main__
DelphiIdentAccess
p1676
(dp1677
g869
S'radioIndex'
p1678
sg871
(lp1679
sbsg912
(i__main__
DelphiIdentAccess
p1680
(dp1681
g869
S'value'
p1682
sg871
(lp1683
sbsbsbasbsbsg1246
(idelphi
DelphiCompoundStatement
p1684
(dp1685
g859
(lp1686
(idelphi
DelphiIfStatement
p1687
(dp1688
g866
(idelphi
DelphiRelOp
p1689
(dp1690
g1230
(i__main__
DelphiIdentAccess
p1691
(dp1692
g869
S'value'
p1693
sg871
(lp1694
sbsg1241
(i__main__
DelphiIdentAccess
p1695
(dp1696
g869
S'radioIndex'
p1697
sg871
(lp1698
sbsg1244
S'='
sbsg1245
Nsg1246
(i__main__
DelphiAssignStatement
p1699
(dp1700
g899
(i__main__
DelphiIdentAccess
p1701
(dp1702
g869
S'true'
p1703
sg871
(lp1704
sbsg912
(i__main__
DelphiIdentAccess
p1705
(dp1706
g869
S'radioButton'
p1707
sg871
(lp1708
(idelphi
DelphiFieldEndAccess
p1709
(dp1710
g875
S'checked'
p1711
sbasbsbsbasbsbasbsg1190
(lp1712
sbsbsS'fillplantpartcolors'
p1713
(i__main__
DelphiMethodImplementation
p1714
(dp1715
g828
g211
sg137
g213
sg145
(lp1716
sg839
(lp1717
sg841
(lp1718
sg843
(lp1719
g845
asg846
(dp1720
sg162
S'TGeneric3DOptionsForm'
p1721
sg163
Nsg851
(lp1722
sg166
I0
sg167
g183
sg853
(i__main__
DelphiBlock
p1723
(dp1724
g856
(idelphi
DelphiCompoundStatement
p1725
(dp1726
g859
(lp1727
(i__main__
DelphiAssignStatement
p1728
(dp1729
g899
Nsg912
(i__main__
DelphiIdentAccess
p1730
(dp1731
g869
S'colorsByPlantPart'
p1732
sg871
(lp1733
(idelphi
DelphiFieldEndAccess
p1734
(dp1735
g875
S'clear'
p1736
sbasbsba(idelphi
DelphiIfStatement
p1737
(dp1738
g866
(idelphi
DelphiAddOp
p1739
(dp1740
g929
S'or'
p1741
sg930
(idelphi
DelphiNestedExpressionListAccess
p1742
(dp1743
g871
(lp1744
sg879
(lp1745
(idelphi
DelphiRelOp
p1746
(dp1747
g1230
(i__main__
DelphiIdentAccess
p1748
(dp1749
g869
S'domain'
p1750
sg871
(lp1751
(idelphi
DelphiFieldEndAccess
p1752
(dp1753
g875
S'plantManager'
p1754
sba(idelphi
DelphiFieldEndAccess
p1755
(dp1756
g875
S'plants'
p1757
sba(idelphi
DelphiFieldEndAccess
p1758
(dp1759
g875
S'count'
p1760
sbasbsg1241
(idelphi
DelphiIntegerValue
p1761
(dp1762
g884
S'0'
sbsg1244
S'<'
sbasbsg940
(idelphi
DelphiAddOp
p1763
(dp1764
g929
g1741
sg930
(idelphi
DelphiNestedExpressionListAccess
p1765
(dp1766
g871
(lp1767
sg879
(lp1768
(idelphi
DelphiRelOp
p1769
(dp1770
g1230
(i__main__
DelphiIdentAccess
p1771
(dp1772
g869
S'domain'
p1773
sg871
(lp1774
(idelphi
DelphiFieldEndAccess
p1775
(dp1776
g875
S'plantManager'
p1777
sbasbsg1241
(idelphi
DelphiNilValue
p1778
(dp1779
bsg1244
S'='
sbasbsg940
(idelphi
DelphiNestedExpressionListAccess
p1780
(dp1781
g871
(lp1782
sg879
(lp1783
(idelphi
DelphiRelOp
p1784
(dp1785
g1230
(i__main__
DelphiIdentAccess
p1786
(dp1787
g869
S'domain'
p1788
sg871
(lp1789
sbsg1241
(idelphi
DelphiNilValue
p1790
(dp1791
bsg1244
S'='
sbasbsbsbsg1245
Nsg1246
(i__main__
DelphiExitStatement
p1792
(dp1793
g1327
g1714
sg453
(lp1794
S' use first plant to get DXF part type names - there must be at least one plant to bring up this form\r'
p1795
asbsba(i__main__
DelphiAssignStatement
p1796
(dp1797
g899
(i__main__
DelphiIdentAccess
p1798
(dp1799
g869
S'PdPlant'
p1800
sg871
(lp1801
(idelphi
DelphiFunctionEndAccess
p1802
(dp1803
g879
(lp1804
(i__main__
DelphiIdentAccess
p1805
(dp1806
g869
S'domain'
p1807
sg871
(lp1808
(idelphi
DelphiFieldEndAccess
p1809
(dp1810
g875
S'plantManager'
p1811
sba(idelphi
DelphiFieldEndAccess
p1812
(dp1813
g875
S'plants'
p1814
sba(idelphi
DelphiArrayEndAccess
p1815
(dp1816
g879
(lp1817
(idelphi
DelphiIntegerValue
p1818
(dp1819
g884
S'0'
sbasbasbasbasbsg912
(i__main__
DelphiIdentAccess
p1820
(dp1821
g869
S'firstPlant'
p1822
sg871
(lp1823
sbsba(idelphi
DelphiIfStatement
p1824
(dp1825
g866
(idelphi
DelphiRelOp
p1826
(dp1827
g1230
(i__main__
DelphiIdentAccess
p1828
(dp1829
g869
S'firstPlant'
p1830
sg871
(lp1831
sbsg1241
(idelphi
DelphiNilValue
p1832
(dp1833
bsg1244
S'='
sbsg1245
Nsg1246
(i__main__
DelphiExitStatement
p1834
(dp1835
g1327
g1714
sbsba(idelphi
DelphiForStatement
p1836
(dp1837
g1249
S'i'
sg1250
(i__main__
DelphiIdentAccess
p1838
(dp1839
g869
S'kExportPartLast'
p1840
sg871
(lp1841
sbsg1265
g1266
sg149
(idelphi
DelphiIntegerValue
p1842
(dp1843
g884
S'0'
sbsg896
(i__main__
DelphiAssignStatement
p1844
(dp1845
g899
Nsg912
(i__main__
DelphiIdentAccess
p1846
(dp1847
g869
S'colorsByPlantPart'
p1848
sg871
(lp1849
(idelphi
DelphiFieldEndAccess
p1850
(dp1851
g875
S'items'
p1852
sba(idelphi
DelphiFieldEndAccess
p1853
(dp1854
g875
S'add'
p1855
sba(idelphi
DelphiFunctionEndAccess
p1856
(dp1857
g879
(lp1858
(i__main__
DelphiIdentAccess
p1859
(dp1860
g869
S'longNameForDXFPartType'
p1861
sg871
(lp1862
(idelphi
DelphiFunctionEndAccess
p1863
(dp1864
g879
(lp1865
(i__main__
DelphiIdentAccess
p1866
(dp1867
g869
S'i'
sg871
(lp1868
sbasbasbasbasbsbsbasbsg1190
(lp1869
(i__main__
DelphiVarSection
p1870
(dp1871
g1533
I0
sg1534
(lp1872
(idelphi
DelphiVarDecl
p1873
(dp1874
g1538
Nsg1539
(lp1875
S'i'
asg156
(i__main__
DelphiPrimitiveType
p1876
(dp1877
g159
g202
sbsba(idelphi
DelphiVarDecl
p1878
(dp1879
g1538
Nsg1539
(lp1880
S'firstPlant'
p1881
asg156
(i__main__
DelphiNamedType
p1882
(dp1883
g159
S'PdPlant'
p1884
sg181
g1
sg182
NsbsbasbasbsbsS'usevisibleplantsclick'
p1885
(i__main__
DelphiMethodImplementation
p1886
(dp1887
g828
g216
sg137
g218
sg145
(lp1888
(i__main__
DelphiFormalParameter
p1889
(dp1890
g149
Nsg150
(lp1891
S'Sender'
p1892
asg156
(i__main__
DelphiNamedType
p1893
(dp1894
g159
S'TObject'
p1895
sg181
g1
sg182
Nsbsg161
Nsbasg839
(lp1896
sg841
(lp1897
sg843
(lp1898
g845
ag1892
asg846
(dp1899
g1892
g1893
ssg162
S'TGeneric3DOptionsForm'
p1900
sg163
Nsg851
(lp1901
sg166
I0
sg167
g183
sg853
(i__main__
DelphiBlock
p1902
(dp1903
g856
(idelphi
DelphiCompoundStatement
p1904
(dp1905
g859
(lp1906
(i__main__
DelphiAssignStatement
p1907
(dp1908
g899
Nsg912
(i__main__
DelphiIdentAccess
p1909
(dp1910
g869
S'self'
p1911
sg871
(lp1912
(idelphi
DelphiFieldEndAccess
p1913
(dp1914
g875
S'updatePredictedSizeDisplay'
p1915
sbasbsbasbsg1190
(lp1916
sbsbsS'transfercolor'
p1917
(i__main__
DelphiMethodImplementation
p1918
(dp1919
g828
g228
sg137
g230
sg145
(lp1920
(i__main__
DelphiFormalParameter
p1921
(dp1922
g149
Nsg150
(lp1923
S'colorPanel'
p1924
asg156
(i__main__
DelphiNamedType
p1925
(dp1926
g159
S'TPanel'
p1927
sg181
g1
sg182
Nsbsg161
Nsba(i__main__
DelphiFormalParameter
p1928
(dp1929
g149
Nsg150
(lp1930
S'value'
p1931
asg156
(i__main__
DelphiNamedType
p1932
(dp1933
g159
S'TColorRef'
p1934
sg181
g1
sg182
Nsbsg161
g203
sbasg839
(lp1935
sg841
(lp1936
g1931
asg843
(lp1937
g845
ag1924
ag1931
asg846
(dp1938
g1931
g1932
sg1924
g1925
ssg162
S'TGeneric3DOptionsForm'
p1939
sg163
Nsg851
(lp1940
sg166
I0
sg167
g183
sg853
(i__main__
DelphiBlock
p1941
(dp1942
g856
(idelphi
DelphiCompoundStatement
p1943
(dp1944
g859
(lp1945
(idelphi
DelphiIfStatement
p1946
(dp1947
g866
(idelphi
DelphiRelOp
p1948
(dp1949
g1230
(i__main__
DelphiIdentAccess
p1950
(dp1951
g869
S'transferDirection'
p1952
sg871
(lp1953
sbsg1241
(i__main__
DelphiIdentAccess
p1954
(dp1955
g869
S'kTransferLoad'
p1956
sg871
(lp1957
sbsg1244
S'='
sbsg1245
(idelphi
DelphiIfStatement
p1958
(dp1959
g866
(idelphi
DelphiRelOp
p1960
(dp1961
g1230
(i__main__
DelphiIdentAccess
p1962
(dp1963
g869
S'transferDirection'
p1964
sg871
(lp1965
sbsg1241
(i__main__
DelphiIdentAccess
p1966
(dp1967
g869
S'kTransferSave'
p1968
sg871
(lp1969
sbsg1244
S'='
sbsg1245
Nsg1246
(idelphi
DelphiCompoundStatement
p1970
(dp1971
g859
(lp1972
(idelphi
DelphiIfStatement
p1973
(dp1974
g866
(idelphi
DelphiRelOp
p1975
(dp1976
g1230
(i__main__
DelphiIdentAccess
p1977
(dp1978
g869
S'value'
p1979
sg871
(lp1980
sbsg1241
(i__main__
DelphiIdentAccess
p1981
(dp1982
g869
S'colorPanel'
p1983
sg871
(lp1984
(idelphi
DelphiFieldEndAccess
p1985
(dp1986
g875
S'color'
p1987
sbasbsg1244
g1642
sbsg1245
Nsg1246
(i__main__
DelphiAssignStatement
p1988
(dp1989
g899
(i__main__
DelphiIdentAccess
p1990
(dp1991
g869
S'true'
p1992
sg871
(lp1993
sbsg912
(i__main__
DelphiIdentAccess
p1994
(dp1995
g869
S'optionsChanged'
p1996
sg871
(lp1997
sbsbsba(i__main__
DelphiAssignStatement
p1998
(dp1999
g899
(i__main__
DelphiIdentAccess
p2000
(dp2001
g869
S'colorPanel'
p2002
sg871
(lp2003
(idelphi
DelphiFieldEndAccess
p2004
(dp2005
g875
S'color'
p2006
sbasbsg912
(i__main__
DelphiIdentAccess
p2007
(dp2008
g869
S'value'
p2009
sg871
(lp2010
sbsbasbsbsg1246
(i__main__
DelphiAssignStatement
p2011
(dp2012
g899
(i__main__
DelphiIdentAccess
p2013
(dp2014
g869
S'value'
p2015
sg871
(lp2016
sbsg912
(i__main__
DelphiIdentAccess
p2017
(dp2018
g869
S'colorPanel'
p2019
sg871
(lp2020
(idelphi
DelphiFieldEndAccess
p2021
(dp2022
g875
S'color'
p2023
sbasbsbsbasbsg1190
(lp2024
sbsbsS'transferfields'
p2025
(i__main__
DelphiMethodImplementation
p2026
(dp2027
g828
g316
sg137
g318
sg145
(lp2028
sg839
(lp2029
sg841
(lp2030
sg843
(lp2031
g845
asg846
(dp2032
sg162
S'TGeneric3DOptionsForm'
p2033
sg163
Nsg851
(lp2034
sg166
I0
sg167
g183
sg853
(i__main__
DelphiBlock
p2035
(dp2036
g856
(idelphi
DelphiCompoundStatement
p2037
(dp2038
g859
(lp2039
(idelphi
DelphiIfStatement
p2040
(dp2041
g866
(idelphi
DelphiRelOp
p2042
(dp2043
g1230
(i__main__
DelphiIdentAccess
p2044
(dp2045
g869
S'transferDirection'
p2046
sg871
(lp2047
sbsg1241
(i__main__
DelphiIdentAccess
p2048
(dp2049
g869
S'kTransferLoad'
p2050
sg871
(lp2051
sbsg1244
S'='
sbsg1245
(idelphi
DelphiCompoundStatement
p2052
(dp2053
g859
(lp2054
(i__main__
DelphiAssignStatement
p2055
(dp2056
g899
(i__main__
DelphiIdentAccess
p2057
(dp2058
g869
S'options'
p2059
sg871
(lp2060
(idelphi
DelphiFieldEndAccess
p2061
(dp2062
g875
S'exportType'
p2063
sbasbsg912
(i__main__
DelphiIdentAccess
p2064
(dp2065
g869
S'oldExportType'
p2066
sg871
(lp2067
sbsba(idelphi
DelphiIfStatement
p2068
(dp2069
g866
(i__main__
DelphiIdentAccess
p2070
(dp2071
g869
S'useSelectedPlants'
p2072
sg871
(lp2073
(idelphi
DelphiFieldEndAccess
p2074
(dp2075
g875
S'checked'
p2076
sbasbsg1245
(idelphi
DelphiIfStatement
p2077
(dp2078
g866
(i__main__
DelphiIdentAccess
p2079
(dp2080
g869
S'useVisiblePlants'
p2081
sg871
(lp2082
(idelphi
DelphiFieldEndAccess
p2083
(dp2084
g875
S'checked'
p2085
sbasbsg1245
(idelphi
DelphiIfStatement
p2086
(dp2087
g866
(i__main__
DelphiIdentAccess
p2088
(dp2089
g869
S'useAllPlants'
p2090
sg871
(lp2091
(idelphi
DelphiFieldEndAccess
p2092
(dp2093
g875
S'checked'
p2094
sbasbsg1245
Nsg1246
(i__main__
DelphiAssignStatement
p2095
(dp2096
g899
(i__main__
DelphiIdentAccess
p2097
(dp2098
g869
S'kIncludeAllPlants'
p2099
sg871
(lp2100
sbsg912
(i__main__
DelphiIdentAccess
p2101
(dp2102
g869
S'options'
p2103
sg871
(lp2104
(idelphi
DelphiFieldEndAccess
p2105
(dp2106
g875
S'exportType'
p2107
sbasbsbsbsg1246
(i__main__
DelphiAssignStatement
p2108
(dp2109
g899
(i__main__
DelphiIdentAccess
p2110
(dp2111
g869
S'kIncludeVisiblePlants'
p2112
sg871
(lp2113
sbsg912
(i__main__
DelphiIdentAccess
p2114
(dp2115
g869
S'options'
p2116
sg871
(lp2117
(idelphi
DelphiFieldEndAccess
p2118
(dp2119
g875
S'exportType'
p2120
sbasbsbsbsg1246
(i__main__
DelphiAssignStatement
p2121
(dp2122
g899
(i__main__
DelphiIdentAccess
p2123
(dp2124
g869
S'kIncludeSelectedPlants'
p2125
sg871
(lp2126
sbsg912
(i__main__
DelphiIdentAccess
p2127
(dp2128
g869
S'options'
p2129
sg871
(lp2130
(idelphi
DelphiFieldEndAccess
p2131
(dp2132
g875
S'exportType'
p2133
sbasbsbsba(idelphi
DelphiIfStatement
p2134
(dp2135
g866
(idelphi
DelphiNestedExpressionListAccess
p2136
(dp2137
g871
(lp2138
sg879
(lp2139
(idelphi
DelphiRelOp
p2140
(dp2141
g1230
(i__main__
DelphiIdentAccess
p2142
(dp2143
g869
S'oldExportType'
p2144
sg871
(lp2145
sbsg1241
(i__main__
DelphiIdentAccess
p2146
(dp2147
g869
S'options'
p2148
sg871
(lp2149
(idelphi
DelphiFieldEndAccess
p2150
(dp2151
g875
S'exportType'
p2152
sbasbsg1244
g1642
sbasbsg1245
Nsg1246
(i__main__
DelphiAssignStatement
p2153
(dp2154
g899
(i__main__
DelphiIdentAccess
p2155
(dp2156
g869
S'true'
p2157
sg871
(lp2158
sbsg912
(i__main__
DelphiIdentAccess
p2159
(dp2160
g869
S'optionsChanged'
p2161
sg871
(lp2162
sbsbsbasbsg1246
(idelphi
DelphiCompoundStatement
p2163
(dp2164
g859
(lp2165
(idelphi
DelphiCaseStatement
p2166
(dp2167
g863
Nsg866
(i__main__
DelphiIdentAccess
p2168
(dp2169
g869
S'options'
p2170
sg871
(lp2171
(idelphi
DelphiFieldEndAccess
p2172
(dp2173
g875
S'exportType'
p2174
sbasbsg892
(lp2175
(idelphi
DelphiCaseSelector
p2176
(dp2177
g896
(i__main__
DelphiAssignStatement
p2178
(dp2179
g899
(i__main__
DelphiIdentAccess
p2180
(dp2181
g869
S'true'
p2182
sg871
(lp2183
sbsg912
(i__main__
DelphiIdentAccess
p2184
(dp2185
g869
S'useSelectedPlants'
p2186
sg871
(lp2187
(idelphi
DelphiFieldEndAccess
p2188
(dp2189
g875
S'checked'
p2190
sbasbsg453
(lp2191
S' options that work for all types\r'
p2192
asbsg917
(lp2193
(i__main__
DelphiIdentAccess
p2194
(dp2195
g869
S'kIncludeSelectedPlants'
p2196
sg871
(lp2197
sbasba(idelphi
DelphiCaseSelector
p2198
(dp2199
g896
(i__main__
DelphiAssignStatement
p2200
(dp2201
g899
(i__main__
DelphiIdentAccess
p2202
(dp2203
g869
S'true'
p2204
sg871
(lp2205
sbsg912
(i__main__
DelphiIdentAccess
p2206
(dp2207
g869
S'useVisiblePlants'
p2208
sg871
(lp2209
(idelphi
DelphiFieldEndAccess
p2210
(dp2211
g875
S'checked'
p2212
sbasbsbsg917
(lp2213
(i__main__
DelphiIdentAccess
p2214
(dp2215
g869
S'kIncludeVisiblePlants'
p2216
sg871
(lp2217
sbasba(idelphi
DelphiCaseSelector
p2218
(dp2219
g896
(i__main__
DelphiAssignStatement
p2220
(dp2221
g899
(i__main__
DelphiIdentAccess
p2222
(dp2223
g869
S'true'
p2224
sg871
(lp2225
sbsg912
(i__main__
DelphiIdentAccess
p2226
(dp2227
g869
S'useAllPlants'
p2228
sg871
(lp2229
(idelphi
DelphiFieldEndAccess
p2230
(dp2231
g875
S'checked'
p2232
sbasbsbsg917
(lp2233
(i__main__
DelphiIdentAccess
p2234
(dp2235
g869
S'kIncludeAllPlants'
p2236
sg871
(lp2237
sbasbasbasbsba(i__main__
DelphiAssignStatement
p2238
(dp2239
g899
Nsg912
(i__main__
DelphiIdentAccess
p2240
(dp2241
g869
S'self'
p2242
sg871
(lp2243
(idelphi
DelphiFieldEndAccess
p2244
(dp2245
g875
S'transferRadioGroup'
p2246
sba(idelphi
DelphiFunctionEndAccess
p2247
(dp2248
g879
(lp2249
(i__main__
DelphiIdentAccess
p2250
(dp2251
g869
S'layeringOption'
p2252
sg871
(lp2253
sba(i__main__
DelphiIdentAccess
p2254
(dp2255
g869
S'options'
p2256
sg871
(lp2257
(idelphi
DelphiFieldEndAccess
p2258
(dp2259
g875
S'layeringOption'
p2260
sbasbasbasbsba(i__main__
DelphiAssignStatement
p2261
(dp2262
g899
Nsg912
(i__main__
DelphiIdentAccess
p2263
(dp2264
g869
S'self'
p2265
sg871
(lp2266
(idelphi
DelphiFieldEndAccess
p2267
(dp2268
g875
S'transferSmallintSpinEditBox'
p2269
sba(idelphi
DelphiFunctionEndAccess
p2270
(dp2271
g879
(lp2272
(i__main__
DelphiIdentAccess
p2273
(dp2274
g869
S'stemCylinderFaces'
p2275
sg871
(lp2276
sba(i__main__
DelphiIdentAccess
p2277
(dp2278
g869
S'options'
p2279
sg871
(lp2280
(idelphi
DelphiFieldEndAccess
p2281
(dp2282
g875
S'stemCylinderFaces'
p2283
sbasbasbasbsba(i__main__
DelphiAssignStatement
p2284
(dp2285
g899
Nsg912
(i__main__
DelphiIdentAccess
p2286
(dp2287
g869
S'self'
p2288
sg871
(lp2289
(idelphi
DelphiFieldEndAccess
p2290
(dp2291
g875
S'transferSmallintSpinEditBox'
p2292
sba(idelphi
DelphiFunctionEndAccess
p2293
(dp2294
g879
(lp2295
(i__main__
DelphiIdentAccess
p2296
(dp2297
g869
S'lengthOfShortName'
p2298
sg871
(lp2299
sba(i__main__
DelphiIdentAccess
p2300
(dp2301
g869
S'options'
p2302
sg871
(lp2303
(idelphi
DelphiFieldEndAccess
p2304
(dp2305
g875
S'lengthOfShortName'
p2306
sbasbasbasbsba(i__main__
DelphiAssignStatement
p2307
(dp2308
g899
Nsg912
(i__main__
DelphiIdentAccess
p2309
(dp2310
g869
S'self'
p2311
sg871
(lp2312
(idelphi
DelphiFieldEndAccess
p2313
(dp2314
g875
S'transferSmallintSpinEditBox'
p2315
sba(idelphi
DelphiFunctionEndAccess
p2316
(dp2317
g879
(lp2318
(i__main__
DelphiIdentAccess
p2319
(dp2320
g869
S'xRotationBeforeDraw'
p2321
sg871
(lp2322
sba(i__main__
DelphiIdentAccess
p2323
(dp2324
g869
S'options'
p2325
sg871
(lp2326
(idelphi
DelphiFieldEndAccess
p2327
(dp2328
g875
S'xRotationBeforeDraw'
p2329
sbasbasbasbsba(i__main__
DelphiAssignStatement
p2330
(dp2331
g899
Nsg912
(i__main__
DelphiIdentAccess
p2332
(dp2333
g869
S'self'
p2334
sg871
(lp2335
(idelphi
DelphiFieldEndAccess
p2336
(dp2337
g875
S'transferCheckBox'
p2338
sba(idelphi
DelphiFunctionEndAccess
p2339
(dp2340
g879
(lp2341
(i__main__
DelphiIdentAccess
p2342
(dp2343
g869
S'translatePlantsToWindowPositions'
p2344
sg871
(lp2345
sba(i__main__
DelphiIdentAccess
p2346
(dp2347
g869
S'options'
p2348
sg871
(lp2349
(idelphi
DelphiFieldEndAccess
p2350
(dp2351
g875
S'translatePlantsToWindowPositions'
p2352
sbasbasbasbsba(i__main__
DelphiAssignStatement
p2353
(dp2354
g899
Nsg912
(i__main__
DelphiIdentAccess
p2355
(dp2356
g869
S'self'
p2357
sg871
(lp2358
(idelphi
DelphiFieldEndAccess
p2359
(dp2360
g875
S'transferCheckBox'
p2361
sba(idelphi
DelphiFunctionEndAccess
p2362
(dp2363
g879
(lp2364
(i__main__
DelphiIdentAccess
p2365
(dp2366
g869
S'writePlantNumberInFrontOfName'
p2367
sg871
(lp2368
sba(i__main__
DelphiIdentAccess
p2369
(dp2370
g869
S'options'
p2371
sg871
(lp2372
(idelphi
DelphiFieldEndAccess
p2373
(dp2374
g875
S'writePlantNumberInFrontOfName'
p2375
sbasbasbasbsba(i__main__
DelphiAssignStatement
p2376
(dp2377
g899
Nsg912
(i__main__
DelphiIdentAccess
p2378
(dp2379
g869
S'self'
p2380
sg871
(lp2381
(idelphi
DelphiFieldEndAccess
p2382
(dp2383
g875
S'transferCheckBox'
p2384
sba(idelphi
DelphiFunctionEndAccess
p2385
(dp2386
g879
(lp2387
(i__main__
DelphiIdentAccess
p2388
(dp2389
g869
S'writeColors'
p2390
sg871
(lp2391
sba(i__main__
DelphiIdentAccess
p2392
(dp2393
g869
S'options'
p2394
sg871
(lp2395
(idelphi
DelphiFieldEndAccess
p2396
(dp2397
g875
S'writeColors'
p2398
sbasbasbasbsba(i__main__
DelphiAssignStatement
p2399
(dp2400
g899
Nsg912
(i__main__
DelphiIdentAccess
p2401
(dp2402
g869
S'self'
p2403
sg871
(lp2404
(idelphi
DelphiFieldEndAccess
p2405
(dp2406
g875
S'transferSmallintSpinEditBox'
p2407
sba(idelphi
DelphiFunctionEndAccess
p2408
(dp2409
g879
(lp2410
(i__main__
DelphiIdentAccess
p2411
(dp2412
g869
S'overallScalingFactor_pct'
p2413
sg871
(lp2414
sba(i__main__
DelphiIdentAccess
p2415
(dp2416
g869
S'options'
p2417
sg871
(lp2418
(idelphi
DelphiFieldEndAccess
p2419
(dp2420
g875
S'overallScalingFactor_pct'
p2421
sbasbasbasbsba(i__main__
DelphiAssignStatement
p2422
(dp2423
g899
Nsg912
(i__main__
DelphiIdentAccess
p2424
(dp2425
g869
S'self'
p2426
sg871
(lp2427
(idelphi
DelphiFieldEndAccess
p2428
(dp2429
g875
S'transferCheckBox'
p2430
sba(idelphi
DelphiFunctionEndAccess
p2431
(dp2432
g879
(lp2433
(i__main__
DelphiIdentAccess
p2434
(dp2435
g869
S'pressPlants'
p2436
sg871
(lp2437
sba(i__main__
DelphiIdentAccess
p2438
(dp2439
g869
S'options'
p2440
sg871
(lp2441
(idelphi
DelphiFieldEndAccess
p2442
(dp2443
g875
S'pressPlants'
p2444
sbasbasbasbsba(i__main__
DelphiAssignStatement
p2445
(dp2446
g899
Nsg912
(i__main__
DelphiIdentAccess
p2447
(dp2448
g869
S'self'
p2449
sg871
(lp2450
(idelphi
DelphiFieldEndAccess
p2451
(dp2452
g875
S'transferComboBox'
p2453
sba(idelphi
DelphiFunctionEndAccess
p2454
(dp2455
g879
(lp2456
(i__main__
DelphiIdentAccess
p2457
(dp2458
g869
S'directionToPressPlants'
p2459
sg871
(lp2460
sba(i__main__
DelphiIdentAccess
p2461
(dp2462
g869
S'options'
p2463
sg871
(lp2464
(idelphi
DelphiFieldEndAccess
p2465
(dp2466
g875
S'directionToPressPlants'
p2467
sbasbasbasbsba(i__main__
DelphiAssignStatement
p2468
(dp2469
g899
Nsg912
(i__main__
DelphiIdentAccess
p2470
(dp2471
g869
S'self'
p2472
sg871
(lp2473
(idelphi
DelphiFieldEndAccess
p2474
(dp2475
g875
S'transferCheckBox'
p2476
sba(idelphi
DelphiFunctionEndAccess
p2477
(dp2478
g879
(lp2479
(i__main__
DelphiIdentAccess
p2480
(dp2481
g869
S'makeTrianglesDoubleSided'
p2482
sg871
(lp2483
sba(i__main__
DelphiIdentAccess
p2484
(dp2485
g869
S'options'
p2486
sg871
(lp2487
(idelphi
DelphiFieldEndAccess
p2488
(dp2489
g875
S'makeTrianglesDoubleSided'
p2490
sbasbasbasbsba(idelphi
DelphiCaseStatement
p2491
(dp2492
g453
(lp2493
S' nothing yet\r'
p2494
asg863
Nsg866
(i__main__
DelphiIdentAccess
p2495
(dp2496
g869
S'outputType'
p2497
sg871
(lp2498
sbsg892
(lp2499
(idelphi
DelphiCaseSelector
p2500
(dp2501
g896
(idelphi
DelphiCompoundStatement
p2502
(dp2503
g859
(lp2504
(i__main__
DelphiAssignStatement
p2505
(dp2506
g899
Nsg912
(i__main__
DelphiIdentAccess
p2507
(dp2508
g869
S'self'
p2509
sg871
(lp2510
(idelphi
DelphiFieldEndAccess
p2511
(dp2512
g875
S'transferCheckBox'
p2513
sba(idelphi
DelphiFunctionEndAccess
p2514
(dp2515
g879
(lp2516
(i__main__
DelphiIdentAccess
p2517
(dp2518
g869
S'dxfWriteColors'
p2519
sg871
(lp2520
sba(i__main__
DelphiIdentAccess
p2521
(dp2522
g869
S'options'
p2523
sg871
(lp2524
(idelphi
DelphiFieldEndAccess
p2525
(dp2526
g875
S'writeColors'
p2527
sbasbasbasbsg453
(lp2528
S' options for specific types\r'
p2529
aS' do after general one to override\r'
p2530
asba(idelphi
DelphiIfStatement
p2531
(dp2532
g866
(idelphi
DelphiRelOp
p2533
(dp2534
g1230
(i__main__
DelphiIdentAccess
p2535
(dp2536
g869
S'transferDirection'
p2537
sg871
(lp2538
sbsg1241
(i__main__
DelphiIdentAccess
p2539
(dp2540
g869
S'kTransferLoad'
p2541
sg871
(lp2542
sbsg1244
S'='
sbsg1245
Nsg1246
(i__main__
DelphiAssignStatement
p2543
(dp2544
g899
Nsg912
(i__main__
DelphiIdentAccess
p2545
(dp2546
g869
S'dxfWriteColorsClick'
p2547
sg871
(lp2548
(idelphi
DelphiFunctionEndAccess
p2549
(dp2550
g879
(lp2551
(i__main__
DelphiIdentAccess
p2552
(dp2553
g869
S'self'
p2554
sg871
(lp2555
sbasbasbsbsba(i__main__
DelphiAssignStatement
p2556
(dp2557
g899
Nsg912
(i__main__
DelphiIdentAccess
p2558
(dp2559
g869
S'self'
p2560
sg871
(lp2561
(idelphi
DelphiFieldEndAccess
p2562
(dp2563
g875
S'transferRadioButton'
p2564
sba(idelphi
DelphiFunctionEndAccess
p2565
(dp2566
g879
(lp2567
(i__main__
DelphiIdentAccess
p2568
(dp2569
g869
S'colorDXFFromRGB'
p2570
sg871
(lp2571
sba(i__main__
DelphiIdentAccess
p2572
(dp2573
g869
S'options'
p2574
sg871
(lp2575
(idelphi
DelphiFieldEndAccess
p2576
(dp2577
g875
S'dxf_whereToGetColors'
p2578
sbasba(i__main__
DelphiIdentAccess
p2579
(dp2580
g869
S'kColorDXFFromRGB'
p2581
sg871
(lp2582
sbasbasbsba(i__main__
DelphiAssignStatement
p2583
(dp2584
g899
Nsg912
(i__main__
DelphiIdentAccess
p2585
(dp2586
g869
S'self'
p2587
sg871
(lp2588
(idelphi
DelphiFieldEndAccess
p2589
(dp2590
g875
S'transferRadioButton'
p2591
sba(idelphi
DelphiFunctionEndAccess
p2592
(dp2593
g879
(lp2594
(i__main__
DelphiIdentAccess
p2595
(dp2596
g869
S'colorDXFFromOneColor'
p2597
sg871
(lp2598
sba(i__main__
DelphiIdentAccess
p2599
(dp2600
g869
S'options'
p2601
sg871
(lp2602
(idelphi
DelphiFieldEndAccess
p2603
(dp2604
g875
S'dxf_whereToGetColors'
p2605
sbasba(i__main__
DelphiIdentAccess
p2606
(dp2607
g869
S'kColorDXFFromOneColor'
p2608
sg871
(lp2609
sbasbasbsba(i__main__
DelphiAssignStatement
p2610
(dp2611
g899
Nsg912
(i__main__
DelphiIdentAccess
p2612
(dp2613
g869
S'self'
p2614
sg871
(lp2615
(idelphi
DelphiFieldEndAccess
p2616
(dp2617
g875
S'transferRadioButton'
p2618
sba(idelphi
DelphiFunctionEndAccess
p2619
(dp2620
g879
(lp2621
(i__main__
DelphiIdentAccess
p2622
(dp2623
g869
S'colorDXFFromPlantPartType'
p2624
sg871
(lp2625
sba(i__main__
DelphiIdentAccess
p2626
(dp2627
g869
S'options'
p2628
sg871
(lp2629
(idelphi
DelphiFieldEndAccess
p2630
(dp2631
g875
S'dxf_whereToGetColors'
p2632
sbasba(i__main__
DelphiIdentAccess
p2633
(dp2634
g869
S'kColorDXFFromPlantPartType'
p2635
sg871
(lp2636
sbasbasbsba(i__main__
DelphiAssignStatement
p2637
(dp2638
g899
(i__main__
DelphiIdentAccess
p2639
(dp2640
g869
S'dxfColors'
p2641
sg871
(lp2642
(idelphi
DelphiArrayEndAccess
p2643
(dp2644
g879
(lp2645
(i__main__
DelphiIdentAccess
p2646
(dp2647
g869
S'options'
p2648
sg871
(lp2649
(idelphi
DelphiFieldEndAccess
p2650
(dp2651
g875
S'dxf_wholePlantColorIndex'
p2652
sbasbasbasbsg912
(i__main__
DelphiIdentAccess
p2653
(dp2654
g869
S'wholePlantColor'
p2655
sg871
(lp2656
(idelphi
DelphiFieldEndAccess
p2657
(dp2658
g875
S'color'
p2659
sbasbsba(idelphi
DelphiIfStatement
p2660
(dp2661
g866
(idelphi
DelphiRelOp
p2662
(dp2663
g1230
(i__main__
DelphiIdentAccess
p2664
(dp2665
g869
S'transferDirection'
p2666
sg871
(lp2667
sbsg1241
(i__main__
DelphiIdentAccess
p2668
(dp2669
g869
S'kTransferLoad'
p2670
sg871
(lp2671
sbsg1244
S'='
sbsg1245
Nsg1246
(i__main__
DelphiAssignStatement
p2672
(dp2673
g899
Nsg912
(i__main__
DelphiIdentAccess
p2674
(dp2675
g869
S'colorsByPlantPart'
p2676
sg871
(lp2677
(idelphi
DelphiFieldEndAccess
p2678
(dp2679
g875
S'invalidate'
p2680
sbasbsbsbasbsg917
(lp2681
(i__main__
DelphiIdentAccess
p2682
(dp2683
g869
S'kDXF'
p2684
sg871
(lp2685
sbasba(idelphi
DelphiCaseSelector
p2686
(dp2687
g896
(idelphi
DelphiCompoundStatement
p2688
(dp2689
g859
(lp2690
(i__main__
DelphiAssignStatement
p2691
(dp2692
g899
Nsg912
(i__main__
DelphiIdentAccess
p2693
(dp2694
g869
S'self'
p2695
sg871
(lp2696
(idelphi
DelphiFieldEndAccess
p2697
(dp2698
g875
S'transferSingleEditBox'
p2699
sba(idelphi
DelphiFunctionEndAccess
p2700
(dp2701
g879
(lp2702
(i__main__
DelphiIdentAccess
p2703
(dp2704
g869
S'minLineLengthToWrite'
p2705
sg871
(lp2706
sba(i__main__
DelphiIdentAccess
p2707
(dp2708
g869
S'options'
p2709
sg871
(lp2710
(idelphi
DelphiFieldEndAccess
p2711
(dp2712
g875
S'pov_minLineLengthToWrite'
p2713
sbasbasbasbsba(i__main__
DelphiAssignStatement
p2714
(dp2715
g899
Nsg912
(i__main__
DelphiIdentAccess
p2716
(dp2717
g869
S'self'
p2718
sg871
(lp2719
(idelphi
DelphiFieldEndAccess
p2720
(dp2721
g875
S'transferSingleEditBox'
p2722
sba(idelphi
DelphiFunctionEndAccess
p2723
(dp2724
g879
(lp2725
(i__main__
DelphiIdentAccess
p2726
(dp2727
g869
S'minTdoScaleToWrite'
p2728
sg871
(lp2729
sba(i__main__
DelphiIdentAccess
p2730
(dp2731
g869
S'options'
p2732
sg871
(lp2733
(idelphi
DelphiFieldEndAccess
p2734
(dp2735
g875
S'pov_minTdoScaleToWrite'
p2736
sbasbasbasbsba(i__main__
DelphiAssignStatement
p2737
(dp2738
g899
Nsg912
(i__main__
DelphiIdentAccess
p2739
(dp2740
g869
S'self'
p2741
sg871
(lp2742
(idelphi
DelphiFieldEndAccess
p2743
(dp2744
g875
S'transferCheckbox'
p2745
sba(idelphi
DelphiFunctionEndAccess
p2746
(dp2747
g879
(lp2748
(i__main__
DelphiIdentAccess
p2749
(dp2750
g869
S'commentOutUnionAtEnd'
p2751
sg871
(lp2752
sba(i__main__
DelphiIdentAccess
p2753
(dp2754
g869
S'options'
p2755
sg871
(lp2756
(idelphi
DelphiFieldEndAccess
p2757
(dp2758
g875
S'pov_commentOutUnionAtEnd'
p2759
sbasbasbasbsba(i__main__
DelphiAssignStatement
p2760
(dp2761
g899
Nsg912
(i__main__
DelphiIdentAccess
p2762
(dp2763
g869
S'self'
p2764
sg871
(lp2765
(idelphi
DelphiFieldEndAccess
p2766
(dp2767
g875
S'transferCheckbox'
p2768
sba(idelphi
DelphiFunctionEndAccess
p2769
(dp2770
g879
(lp2771
(i__main__
DelphiIdentAccess
p2772
(dp2773
g869
S'nestInflorescence'
p2774
sg871
(lp2775
sba(i__main__
DelphiIdentAccess
p2776
(dp2777
g869
S'options'
p2778
sg871
(lp2779
(idelphi
DelphiFieldEndAccess
p2780
(dp2781
g875
S'nest_Inflorescence'
p2782
sbasbasbasbsba(i__main__
DelphiAssignStatement
p2783
(dp2784
g899
Nsg912
(i__main__
DelphiIdentAccess
p2785
(dp2786
g869
S'self'
p2787
sg871
(lp2788
(idelphi
DelphiFieldEndAccess
p2789
(dp2790
g875
S'transferCheckbox'
p2791
sba(idelphi
DelphiFunctionEndAccess
p2792
(dp2793
g879
(lp2794
(i__main__
DelphiIdentAccess
p2795
(dp2796
g869
S'nestLeafAndPetiole'
p2797
sg871
(lp2798
sba(i__main__
DelphiIdentAccess
p2799
(dp2800
g869
S'options'
p2801
sg871
(lp2802
(idelphi
DelphiFieldEndAccess
p2803
(dp2804
g875
S'nest_LeafAndPetiole'
p2805
sbasbasbasbsba(i__main__
DelphiAssignStatement
p2806
(dp2807
g899
Nsg912
(i__main__
DelphiIdentAccess
p2808
(dp2809
g869
S'self'
p2810
sg871
(lp2811
(idelphi
DelphiFieldEndAccess
p2812
(dp2813
g875
S'transferCheckbox'
p2814
sba(idelphi
DelphiFunctionEndAccess
p2815
(dp2816
g879
(lp2817
(i__main__
DelphiIdentAccess
p2818
(dp2819
g869
S'nestCompoundLeaf'
p2820
sg871
(lp2821
sba(i__main__
DelphiIdentAccess
p2822
(dp2823
g869
S'options'
p2824
sg871
(lp2825
(idelphi
DelphiFieldEndAccess
p2826
(dp2827
g875
S'nest_CompoundLeaf'
p2828
sbasbasbasbsba(i__main__
DelphiAssignStatement
p2829
(dp2830
g899
Nsg912
(i__main__
DelphiIdentAccess
p2831
(dp2832
g869
S'self'
p2833
sg871
(lp2834
(idelphi
DelphiFieldEndAccess
p2835
(dp2836
g875
S'transferCheckbox'
p2837
sba(idelphi
DelphiFunctionEndAccess
p2838
(dp2839
g879
(lp2840
(i__main__
DelphiIdentAccess
p2841
(dp2842
g869
S'nestPedicelAndFlowerFruit'
p2843
sg871
(lp2844
sba(i__main__
DelphiIdentAccess
p2845
(dp2846
g869
S'options'
p2847
sg871
(lp2848
(idelphi
DelphiFieldEndAccess
p2849
(dp2850
g875
S'nest_PedicelAndFlowerFruit'
p2851
sbasbasbasbsba(i__main__
DelphiAssignStatement
p2852
(dp2853
g899
Nsg912
(i__main__
DelphiIdentAccess
p2854
(dp2855
g869
S'self'
p2856
sg871
(lp2857
(idelphi
DelphiFieldEndAccess
p2858
(dp2859
g875
S'transferCheckbox'
p2860
sba(idelphi
DelphiFunctionEndAccess
p2861
(dp2862
g879
(lp2863
(i__main__
DelphiIdentAccess
p2864
(dp2865
g869
S'nestFloralLayers'
p2866
sg871
(lp2867
sba(i__main__
DelphiIdentAccess
p2868
(dp2869
g869
S'options'
p2870
sg871
(lp2871
(idelphi
DelphiFieldEndAccess
p2872
(dp2873
g875
S'nest_FloralLayers'
p2874
sbasbasbasbsbasbsg917
(lp2875
(i__main__
DelphiIdentAccess
p2876
(dp2877
g869
S'kPOV'
p2878
sg871
(lp2879
sbasba(idelphi
DelphiCaseSelector
p2880
(dp2881
g896
(idelphi
DelphiCompoundStatement
p2882
(dp2883
g859
Nsg453
(lp2884
S' nothing special\r'
p2885
asbsg917
(lp2886
(i__main__
DelphiIdentAccess
p2887
(dp2888
g869
S'k3DS'
p2889
sg871
(lp2890
sbasba(idelphi
DelphiCaseSelector
p2891
(dp2892
g896
(idelphi
DelphiCompoundStatement
p2893
(dp2894
g859
Nsg453
(lp2895
S' nothing special\r'
p2896
asbsg917
(lp2897
(i__main__
DelphiIdentAccess
p2898
(dp2899
g869
S'kOBJ'
p2900
sg871
(lp2901
sbasba(idelphi
DelphiCaseSelector
p2902
(dp2903
g896
(idelphi
DelphiCompoundStatement
p2904
(dp2905
g859
(lp2906
(i__main__
DelphiAssignStatement
p2907
(dp2908
g899
Nsg912
(i__main__
DelphiIdentAccess
p2909
(dp2910
g869
S'self'
p2911
sg871
(lp2912
(idelphi
DelphiFieldEndAccess
p2913
(dp2914
g875
S'transferCheckbox'
p2915
sba(idelphi
DelphiFunctionEndAccess
p2916
(dp2917
g879
(lp2918
(i__main__
DelphiIdentAccess
p2919
(dp2920
g869
S'nestInflorescence'
p2921
sg871
(lp2922
sba(i__main__
DelphiIdentAccess
p2923
(dp2924
g869
S'options'
p2925
sg871
(lp2926
(idelphi
DelphiFieldEndAccess
p2927
(dp2928
g875
S'nest_Inflorescence'
p2929
sbasbasbasbsba(i__main__
DelphiAssignStatement
p2930
(dp2931
g899
Nsg912
(i__main__
DelphiIdentAccess
p2932
(dp2933
g869
S'self'
p2934
sg871
(lp2935
(idelphi
DelphiFieldEndAccess
p2936
(dp2937
g875
S'transferCheckbox'
p2938
sba(idelphi
DelphiFunctionEndAccess
p2939
(dp2940
g879
(lp2941
(i__main__
DelphiIdentAccess
p2942
(dp2943
g869
S'nestLeafAndPetiole'
p2944
sg871
(lp2945
sba(i__main__
DelphiIdentAccess
p2946
(dp2947
g869
S'options'
p2948
sg871
(lp2949
(idelphi
DelphiFieldEndAccess
p2950
(dp2951
g875
S'nest_LeafAndPetiole'
p2952
sbasbasbasbsba(i__main__
DelphiAssignStatement
p2953
(dp2954
g899
Nsg912
(i__main__
DelphiIdentAccess
p2955
(dp2956
g869
S'self'
p2957
sg871
(lp2958
(idelphi
DelphiFieldEndAccess
p2959
(dp2960
g875
S'transferCheckbox'
p2961
sba(idelphi
DelphiFunctionEndAccess
p2962
(dp2963
g879
(lp2964
(i__main__
DelphiIdentAccess
p2965
(dp2966
g869
S'nestCompoundLeaf'
p2967
sg871
(lp2968
sba(i__main__
DelphiIdentAccess
p2969
(dp2970
g869
S'options'
p2971
sg871
(lp2972
(idelphi
DelphiFieldEndAccess
p2973
(dp2974
g875
S'nest_CompoundLeaf'
p2975
sbasbasbasbsba(i__main__
DelphiAssignStatement
p2976
(dp2977
g899
Nsg912
(i__main__
DelphiIdentAccess
p2978
(dp2979
g869
S'self'
p2980
sg871
(lp2981
(idelphi
DelphiFieldEndAccess
p2982
(dp2983
g875
S'transferCheckbox'
p2984
sba(idelphi
DelphiFunctionEndAccess
p2985
(dp2986
g879
(lp2987
(i__main__
DelphiIdentAccess
p2988
(dp2989
g869
S'nestPedicelAndFlowerFruit'
p2990
sg871
(lp2991
sba(i__main__
DelphiIdentAccess
p2992
(dp2993
g869
S'options'
p2994
sg871
(lp2995
(idelphi
DelphiFieldEndAccess
p2996
(dp2997
g875
S'nest_PedicelAndFlowerFruit'
p2998
sbasbasbasbsba(i__main__
DelphiAssignStatement
p2999
(dp3000
g899
Nsg912
(i__main__
DelphiIdentAccess
p3001
(dp3002
g869
S'self'
p3003
sg871
(lp3004
(idelphi
DelphiFieldEndAccess
p3005
(dp3006
g875
S'transferCheckbox'
p3007
sba(idelphi
DelphiFunctionEndAccess
p3008
(dp3009
g879
(lp3010
(i__main__
DelphiIdentAccess
p3011
(dp3012
g869
S'nestFloralLayers'
p3013
sg871
(lp3014
sba(i__main__
DelphiIdentAccess
p3015
(dp3016
g869
S'options'
p3017
sg871
(lp3018
(idelphi
DelphiFieldEndAccess
p3019
(dp3020
g875
S'nest_FloralLayers'
p3021
sbasbasbasbsba(i__main__
DelphiAssignStatement
p3022
(dp3023
g899
Nsg912
(i__main__
DelphiIdentAccess
p3024
(dp3025
g869
S'self'
p3026
sg871
(lp3027
(idelphi
DelphiFieldEndAccess
p3028
(dp3029
g875
S'transferRadioGroup'
p3030
sba(idelphi
DelphiFunctionEndAccess
p3031
(dp3032
g879
(lp3033
(i__main__
DelphiIdentAccess
p3034
(dp3035
g869
S'vrmlVersionRadioGroup'
p3036
sg871
(lp3037
sba(i__main__
DelphiIdentAccess
p3038
(dp3039
g869
S'options'
p3040
sg871
(lp3041
(idelphi
DelphiFieldEndAccess
p3042
(dp3043
g875
S'vrml_version'
p3044
sbasbasbasbsbasbsg917
(lp3045
(i__main__
DelphiIdentAccess
p3046
(dp3047
g869
S'kVRML'
p3048
sg871
(lp3049
sbasba(idelphi
DelphiCaseSelector
p3050
(dp3051
g896
Nsg917
(lp3052
(i__main__
DelphiIdentAccess
p3053
(dp3054
g869
S'kLWO'
p3055
sg871
(lp3056
sbasbasbasbsg1190
(lp3057
(i__main__
DelphiVarSection
p3058
(dp3059
g1533
I0
sg1534
(lp3060
(idelphi
DelphiVarDecl
p3061
(dp3062
g1538
Nsg1539
(lp3063
S'oldExportType'
p3064
asg156
(i__main__
DelphiPrimitiveType
p3065
(dp3066
g159
g202
sbsbasbasbsbsS'colorsbyplantpartdrawitem'
p3067
(i__main__
DelphiMethodImplementation
p3068
(dp3069
g828
g259
sg137
g261
sg145
(lp3070
(i__main__
DelphiFormalParameter
p3071
(dp3072
g149
Nsg150
(lp3073
S'Control'
p3074
asg156
(i__main__
DelphiNamedType
p3075
(dp3076
g159
S'TWinControl'
p3077
sg181
g1
sg182
Nsbsg161
Nsba(i__main__
DelphiFormalParameter
p3078
(dp3079
g149
Nsg150
(lp3080
g273
asg156
(i__main__
DelphiPrimitiveType
p3081
(dp3082
g159
g276
sbsg161
Nsba(i__main__
DelphiFormalParameter
p3083
(dp3084
g149
Nsg150
(lp3085
S'Rect'
p3086
asg156
(i__main__
DelphiNamedType
p3087
(dp3088
g159
S'TRect'
p3089
sg181
g1
sg182
Nsbsg161
Nsba(i__main__
DelphiFormalParameter
p3090
(dp3091
g149
Nsg150
(lp3092
S'State'
p3093
asg156
(i__main__
DelphiNamedType
p3094
(dp3095
g159
S'TOwnerDrawState'
p3096
sg181
g1
sg182
Nsbsg161
Nsbasg839
(lp3097
sg841
(lp3098
sg843
(lp3099
g845
ag3074
ag273
ag3086
ag3093
asg846
(dp3100
g3074
g3075
sg273
g3081
sg3093
g3094
sg3086
g3087
ssg162
S'TGeneric3DOptionsForm'
p3101
sg163
Nsg851
(lp3102
sg166
I0
sg167
g183
sg853
(i__main__
DelphiBlock
p3103
(dp3104
g856
(idelphi
DelphiCompoundStatement
p3105
(dp3106
g859
(lp3107
(idelphi
DelphiIfStatement
p3108
(dp3109
g866
(i__main__
DelphiIdentAccess
p3110
(dp3111
g869
S'Application'
p3112
sg871
(lp3113
(idelphi
DelphiFieldEndAccess
p3114
(dp3115
g875
S'terminated'
p3116
sbasbsg1245
Nsg1246
(i__main__
DelphiExitStatement
p3117
(dp3118
g1327
g3068
sbsba(idelphi
DelphiIfStatement
p3119
(dp3120
g866
(idelphi
DelphiAddOp
p3121
(dp3122
g929
g1741
sg930
(idelphi
DelphiNestedExpressionListAccess
p3123
(dp3124
g871
(lp3125
sg879
(lp3126
(idelphi
DelphiRelOp
p3127
(dp3128
g1230
(i__main__
DelphiIdentAccess
p3129
(dp3130
g869
g273
sg871
(lp3131
sbsg1241
(idelphi
DelphiAddOp
p3132
(dp3133
g929
S'-'
sg930
(idelphi
DelphiIntegerValue
p3134
(dp3135
g884
S'1'
sbsg940
(i__main__
DelphiIdentAccess
p3136
(dp3137
g869
S'colorsByPlantPart'
p3138
sg871
(lp3139
(idelphi
DelphiFieldEndAccess
p3140
(dp3141
g875
S'items'
p3142
sba(idelphi
DelphiFieldEndAccess
p3143
(dp3144
g875
S'count'
p3145
sbasbsbsg1244
S'>'
sbasbsg940
(idelphi
DelphiAddOp
p3146
(dp3147
g929
g1741
sg930
(idelphi
DelphiNestedExpressionListAccess
p3148
(dp3149
g871
(lp3150
sg879
(lp3151
(idelphi
DelphiRelOp
p3152
(dp3153
g1230
(i__main__
DelphiIdentAccess
p3154
(dp3155
g869
g273
sg871
(lp3156
sbsg1241
(idelphi
DelphiIntegerValue
p3157
(dp3158
g884
S'0'
sbsg1244
S'<'
sbasbsg940
(idelphi
DelphiNestedExpressionListAccess
p3159
(dp3160
g871
(lp3161
sg879
(lp3162
(idelphi
DelphiRelOp
p3163
(dp3164
g1230
(i__main__
DelphiIdentAccess
p3165
(dp3166
g869
S'colorsByPlantPart'
p3167
sg871
(lp3168
(idelphi
DelphiFieldEndAccess
p3169
(dp3170
g875
S'items'
p3171
sba(idelphi
DelphiFieldEndAccess
p3172
(dp3173
g875
S'count'
p3174
sbasbsg1241
(idelphi
DelphiIntegerValue
p3175
(dp3176
g884
S'0'
sbsg1244
S'<='
p3177
sbasbsbsbsg1245
Nsg1246
(i__main__
DelphiExitStatement
p3178
(dp3179
g1327
g3068
sbsba(i__main__
DelphiAssignStatement
p3180
(dp3181
g899
(idelphi
DelphiNestedExpressionListAccess
p3182
(dp3183
g871
(lp3184
sg879
(lp3185
(idelphi
DelphiRelOp
p3186
(dp3187
g1230
(i__main__
DelphiIdentAccess
p3188
(dp3189
g869
S'odSelected'
p3190
sg871
(lp3191
sbsg1241
(i__main__
DelphiIdentAccess
p3192
(dp3193
g869
S'state'
p3194
sg871
(lp3195
sbsg1244
S'in'
p3196
sbasbsg912
(i__main__
DelphiIdentAccess
p3197
(dp3198
g869
S'selected'
p3199
sg871
(lp3200
sbsba(i__main__
DelphiAssignStatement
p3201
(dp3202
g899
(i__main__
DelphiIdentAccess
p3203
(dp3204
g869
S'rect'
p3205
sg871
(lp3206
sbsg912
(i__main__
DelphiIdentAccess
p3207
(dp3208
g869
S'colorRect'
p3209
sg871
(lp3210
sbsg453
(lp3211
S' set up rectangles '
p3212
asba(i__main__
DelphiAssignStatement
p3213
(dp3214
g899
(idelphi
DelphiAddOp
p3215
(dp3216
g929
S'+'
sg930
(i__main__
DelphiIdentAccess
p3217
(dp3218
g869
S'colorsByPlantPart'
p3219
sg871
(lp3220
(idelphi
DelphiFieldEndAccess
p3221
(dp3222
g875
S'itemHeight'
p3223
sbasbsg940
(i__main__
DelphiIdentAccess
p3224
(dp3225
g869
S'colorRect'
p3226
sg871
(lp3227
(idelphi
DelphiFieldEndAccess
p3228
(dp3229
g875
S'left'
p3230
sbasbsbsg912
(i__main__
DelphiIdentAccess
p3231
(dp3232
g869
S'colorRect'
p3233
sg871
(lp3234
(idelphi
DelphiFieldEndAccess
p3235
(dp3236
g875
S'right'
p3237
sbasbsba(i__main__
DelphiAssignStatement
p3238
(dp3239
g899
(i__main__
DelphiIdentAccess
p3240
(dp3241
g869
S'rect'
p3242
sg871
(lp3243
sbsg912
(i__main__
DelphiIdentAccess
p3244
(dp3245
g869
S'remainderRect'
p3246
sg871
(lp3247
sbsba(i__main__
DelphiAssignStatement
p3248
(dp3249
g899
(idelphi
DelphiAddOp
p3250
(dp3251
g929
S'+'
sg930
(i__main__
DelphiIdentAccess
p3252
(dp3253
g869
S'colorsByPlantPart'
p3254
sg871
(lp3255
(idelphi
DelphiFieldEndAccess
p3256
(dp3257
g875
S'itemHeight'
p3258
sbasbsg940
(i__main__
DelphiIdentAccess
p3259
(dp3260
g869
S'remainderRect'
p3261
sg871
(lp3262
(idelphi
DelphiFieldEndAccess
p3263
(dp3264
g875
S'left'
p3265
sbasbsbsg912
(i__main__
DelphiIdentAccess
p3266
(dp3267
g869
S'remainderRect'
p3268
sg871
(lp3269
(idelphi
DelphiFieldEndAccess
p3270
(dp3271
g875
S'left'
p3272
sbasbsba(idelphi
DelphiWithStatement
p3273
(dp3274
g896
(idelphi
DelphiCompoundStatement
p3275
(dp3276
g859
(lp3277
(i__main__
DelphiAssignStatement
p3278
(dp3279
g899
(i__main__
DelphiIdentAccess
p3280
(dp3281
g869
S'bsSolid'
p3282
sg871
(lp3283
sbsg912
(i__main__
DelphiIdentAccess
p3284
(dp3285
g869
S'brush'
p3286
sg871
(lp3287
(idelphi
DelphiFieldEndAccess
p3288
(dp3289
g875
S'style'
p3290
sbasbsg453
(lp3291
S' fill first box with white, rest with clHighlight if selected '
p3292
asba(i__main__
DelphiAssignStatement
p3293
(dp3294
g899
(i__main__
DelphiIdentAccess
p3295
(dp3296
g869
S'dxfColors'
p3297
sg871
(lp3298
(idelphi
DelphiArrayEndAccess
p3299
(dp3300
g879
(lp3301
(i__main__
DelphiIdentAccess
p3302
(dp3303
g869
S'options'
p3304
sg871
(lp3305
(idelphi
DelphiFieldEndAccess
p3306
(dp3307
g875
S'dxf_plantPartColorIndexes'
p3308
sba(idelphi
DelphiArrayEndAccess
p3309
(dp3310
g879
(lp3311
(i__main__
DelphiIdentAccess
p3312
(dp3313
g869
g273
sg871
(lp3314
sbasbasbasbasbsg912
(i__main__
DelphiIdentAccess
p3315
(dp3316
g869
S'brush'
p3317
sg871
(lp3318
(idelphi
DelphiFieldEndAccess
p3319
(dp3320
g875
S'color'
p3321
sbasbsba(i__main__
DelphiAssignStatement
p3322
(dp3323
g899
Nsg912
(i__main__
DelphiIdentAccess
p3324
(dp3325
g869
S'fillRect'
p3326
sg871
(lp3327
(idelphi
DelphiFunctionEndAccess
p3328
(dp3329
g879
(lp3330
(i__main__
DelphiIdentAccess
p3331
(dp3332
g869
S'colorRect'
p3333
sg871
(lp3334
sbasbasbsba(i__main__
DelphiAssignStatement
p3335
(dp3336
g899
(i__main__
DelphiIdentAccess
p3337
(dp3338
g869
S'colorsByPlantPart'
p3339
sg871
(lp3340
(idelphi
DelphiFieldEndAccess
p3341
(dp3342
g875
S'font'
p3343
sbasbsg912
(i__main__
DelphiIdentAccess
p3344
(dp3345
g869
S'font'
p3346
sg871
(lp3347
sbsba(idelphi
DelphiIfStatement
p3348
(dp3349
g866
(i__main__
DelphiIdentAccess
p3350
(dp3351
g869
S'selected'
p3352
sg871
(lp3353
sbsg1245
(idelphi
DelphiCompoundStatement
p3354
(dp3355
g859
(lp3356
(i__main__
DelphiAssignStatement
p3357
(dp3358
g899
(i__main__
DelphiIdentAccess
p3359
(dp3360
g869
S'clWindow'
p3361
sg871
(lp3362
sbsg912
(i__main__
DelphiIdentAccess
p3363
(dp3364
g869
S'brush'
p3365
sg871
(lp3366
(idelphi
DelphiFieldEndAccess
p3367
(dp3368
g875
S'color'
p3369
sbasbsba(i__main__
DelphiAssignStatement
p3370
(dp3371
g899
(i__main__
DelphiIdentAccess
p3372
(dp3373
g869
S'clBtnText'
p3374
sg871
(lp3375
sbsg912
(i__main__
DelphiIdentAccess
p3376
(dp3377
g869
S'font'
p3378
sg871
(lp3379
(idelphi
DelphiFieldEndAccess
p3380
(dp3381
g875
S'color'
p3382
sbasbsbasbsg1246
(idelphi
DelphiCompoundStatement
p3383
(dp3384
g859
(lp3385
(i__main__
DelphiAssignStatement
p3386
(dp3387
g899
(i__main__
DelphiIdentAccess
p3388
(dp3389
g869
S'clHighlight'
p3390
sg871
(lp3391
sbsg912
(i__main__
DelphiIdentAccess
p3392
(dp3393
g869
S'brush'
p3394
sg871
(lp3395
(idelphi
DelphiFieldEndAccess
p3396
(dp3397
g875
S'color'
p3398
sbasbsba(i__main__
DelphiAssignStatement
p3399
(dp3400
g899
(i__main__
DelphiIdentAccess
p3401
(dp3402
g869
S'clHighlightText'
p3403
sg871
(lp3404
sbsg912
(i__main__
DelphiIdentAccess
p3405
(dp3406
g869
S'font'
p3407
sg871
(lp3408
(idelphi
DelphiFieldEndAccess
p3409
(dp3410
g875
S'color'
p3411
sbasbsbasbsba(i__main__
DelphiAssignStatement
p3412
(dp3413
g899
Nsg912
(i__main__
DelphiIdentAccess
p3414
(dp3415
g869
S'fillRect'
p3416
sg871
(lp3417
(idelphi
DelphiFunctionEndAccess
p3418
(dp3419
g879
(lp3420
(i__main__
DelphiIdentAccess
p3421
(dp3422
g869
S'remainderRect'
p3423
sg871
(lp3424
sbasbasbsba(i__main__
DelphiAssignStatement
p3425
(dp3426
g899
Nsg912
(i__main__
DelphiIdentAccess
p3427
(dp3428
g869
S'strPCopy'
p3429
sg871
(lp3430
(idelphi
DelphiFunctionEndAccess
p3431
(dp3432
g879
(lp3433
(i__main__
DelphiIdentAccess
p3434
(dp3435
g869
S'cText'
p3436
sg871
(lp3437
sba(i__main__
DelphiIdentAccess
p3438
(dp3439
g869
S'colorsByPlantPart'
p3440
sg871
(lp3441
(idelphi
DelphiFieldEndAccess
p3442
(dp3443
g875
S'items'
p3444
sba(idelphi
DelphiArrayEndAccess
p3445
(dp3446
g879
(lp3447
(i__main__
DelphiIdentAccess
p3448
(dp3449
g869
g273
sg871
(lp3450
sbasbasbasbasbsba(i__main__
DelphiAssignStatement
p3451
(dp3452
g899
(idelphi
DelphiAddOp
p3453
(dp3454
g929
S'+'
sg930
(idelphi
DelphiIntegerValue
p3455
(dp3456
g884
S'5'
sbsg940
(i__main__
DelphiIdentAccess
p3457
(dp3458
g869
S'remainderRect'
p3459
sg871
(lp3460
(idelphi
DelphiFieldEndAccess
p3461
(dp3462
g875
S'left'
p3463
sbasbsbsg912
(i__main__
DelphiIdentAccess
p3464
(dp3465
g869
S'remainderRect'
p3466
sg871
(lp3467
(idelphi
DelphiFieldEndAccess
p3468
(dp3469
g875
S'left'
p3470
sbasbsg453
(lp3471
S' margin for text '
p3472
asba(i__main__
DelphiAssignStatement
p3473
(dp3474
g899
Nsg912
(i__main__
DelphiIdentAccess
p3475
(dp3476
g869
S'winprocs'
p3477
sg871
(lp3478
(idelphi
DelphiFieldEndAccess
p3479
(dp3480
g875
S'drawText'
p3481
sba(idelphi
DelphiFunctionEndAccess
p3482
(dp3483
g879
(lp3484
(i__main__
DelphiIdentAccess
p3485
(dp3486
g869
S'handle'
p3487
sg871
(lp3488
sba(i__main__
DelphiIdentAccess
p3489
(dp3490
g869
S'cText'
p3491
sg871
(lp3492
sba(i__main__
DelphiIdentAccess
p3493
(dp3494
g869
S'strLen'
p3495
sg871
(lp3496
(idelphi
DelphiFunctionEndAccess
p3497
(dp3498
g879
(lp3499
(i__main__
DelphiIdentAccess
p3500
(dp3501
g869
S'cText'
p3502
sg871
(lp3503
sbasbasba(i__main__
DelphiIdentAccess
p3504
(dp3505
g869
S'remainderRect'
p3506
sg871
(lp3507
sba(i__main__
DelphiIdentAccess
p3508
(dp3509
g869
S'DT_LEFT'
p3510
sg871
(lp3511
sbasbasbsbasbsS'variableReferenceList'
p3512
(lp3513
(i__main__
DelphiIdentAccess
p3514
(dp3515
g869
S'colorsByPlantPart'
p3516
sg871
(lp3517
(idelphi
DelphiFieldEndAccess
p3518
(dp3519
g875
S'canvas'
p3520
sbasbasbasbsg1190
(lp3521
(i__main__
DelphiVarSection
p3522
(dp3523
g1533
I0
sg1534
(lp3524
(idelphi
DelphiVarDecl
p3525
(dp3526
g1538
Nsg1539
(lp3527
S'selected'
p3528
asg156
(i__main__
DelphiPrimitiveType
p3529
(dp3530
g159
g368
sbsba(idelphi
DelphiVarDecl
p3531
(dp3532
g1538
Nsg1539
(lp3533
S'colorRect'
p3534
aS'remainderRect'
p3535
asg156
(i__main__
DelphiNamedType
p3536
(dp3537
g159
S'TRect'
p3538
sg181
g1
sg182
Nsbsba(idelphi
DelphiVarDecl
p3539
(dp3540
g1538
Nsg1539
(lp3541
S'cText'
p3542
asg156
(i__main__
DelphiArrayType
p3543
(dp3544
g156
(i__main__
DelphiPrimitiveType
p3545
(dp3546
g159
g493
sbsS'sizes'
p3547
(lp3548
(idelphi
DelphiSubrange
p3549
(dp3550
S'high'
p3551
(idelphi
DelphiIntegerValue
p3552
(dp3553
g884
S'255'
p3554
sbsS'low'
p3555
(idelphi
DelphiIntegerValue
p3556
(dp3557
g884
S'0'
sbsg137
S''
sbasbsbasbasbsbsS'cancelclick'
p3558
(i__main__
DelphiMethodImplementation
p3559
(dp3560
g828
g292
sg137
g294
sg145
(lp3561
(i__main__
DelphiFormalParameter
p3562
(dp3563
g149
Nsg150
(lp3564
S'Sender'
p3565
asg156
(i__main__
DelphiNamedType
p3566
(dp3567
g159
S'TObject'
p3568
sg181
g1
sg182
Nsbsg161
Nsbasg839
(lp3569
sg841
(lp3570
sg843
(lp3571
g845
ag3565
asg846
(dp3572
g3565
g3566
ssg162
S'TGeneric3DOptionsForm'
p3573
sg163
Nsg851
(lp3574
sg166
I0
sg167
g183
sg853
(i__main__
DelphiBlock
p3575
(dp3576
g856
(idelphi
DelphiCompoundStatement
p3577
(dp3578
g859
(lp3579
(i__main__
DelphiAssignStatement
p3580
(dp3581
g899
(i__main__
DelphiIdentAccess
p3582
(dp3583
g869
S'mrCancel'
p3584
sg871
(lp3585
sbsg912
(i__main__
DelphiIdentAccess
p3586
(dp3587
g869
S'modalResult'
p3588
sg871
(lp3589
sbsbasbsg1190
(lp3590
sbsbsS'dxfwritecolorsclick'
p3591
(i__main__
DelphiMethodImplementation
p3592
(dp3593
g828
g304
sg137
g306
sg145
(lp3594
(i__main__
DelphiFormalParameter
p3595
(dp3596
g149
Nsg150
(lp3597
S'Sender'
p3598
asg156
(i__main__
DelphiNamedType
p3599
(dp3600
g159
S'TObject'
p3601
sg181
g1
sg182
Nsbsg161
Nsbasg839
(lp3602
sg841
(lp3603
sg843
(lp3604
g845
ag3598
asg846
(dp3605
g3598
g3599
ssg162
S'TGeneric3DOptionsForm'
p3606
sg163
Nsg851
(lp3607
sg166
I0
sg167
g183
sg853
(i__main__
DelphiBlock
p3608
(dp3609
g856
(idelphi
DelphiCompoundStatement
p3610
(dp3611
g859
(lp3612
(i__main__
DelphiAssignStatement
p3613
(dp3614
g899
(i__main__
DelphiIdentAccess
p3615
(dp3616
g869
S'dxfWriteColors'
p3617
sg871
(lp3618
(idelphi
DelphiFieldEndAccess
p3619
(dp3620
g875
S'checked'
p3621
sbasbsg912
(i__main__
DelphiIdentAccess
p3622
(dp3623
g869
S'colorDXFFromRGB'
p3624
sg871
(lp3625
(idelphi
DelphiFieldEndAccess
p3626
(dp3627
g875
S'visible'
p3628
sbasbsba(i__main__
DelphiAssignStatement
p3629
(dp3630
g899
(i__main__
DelphiIdentAccess
p3631
(dp3632
g869
S'dxfWriteColors'
p3633
sg871
(lp3634
(idelphi
DelphiFieldEndAccess
p3635
(dp3636
g875
S'checked'
p3637
sbasbsg912
(i__main__
DelphiIdentAccess
p3638
(dp3639
g869
S'colorDXFFromOneColor'
p3640
sg871
(lp3641
(idelphi
DelphiFieldEndAccess
p3642
(dp3643
g875
S'visible'
p3644
sbasbsba(i__main__
DelphiAssignStatement
p3645
(dp3646
g899
(i__main__
DelphiIdentAccess
p3647
(dp3648
g869
S'dxfWriteColors'
p3649
sg871
(lp3650
(idelphi
DelphiFieldEndAccess
p3651
(dp3652
g875
S'checked'
p3653
sbasbsg912
(i__main__
DelphiIdentAccess
p3654
(dp3655
g869
S'wholePlantColor'
p3656
sg871
(lp3657
(idelphi
DelphiFieldEndAccess
p3658
(dp3659
g875
S'visible'
p3660
sbasbsba(i__main__
DelphiAssignStatement
p3661
(dp3662
g899
(i__main__
DelphiIdentAccess
p3663
(dp3664
g869
S'dxfWriteColors'
p3665
sg871
(lp3666
(idelphi
DelphiFieldEndAccess
p3667
(dp3668
g875
S'checked'
p3669
sbasbsg912
(i__main__
DelphiIdentAccess
p3670
(dp3671
g869
S'colorDXFFromPlantPartType'
p3672
sg871
(lp3673
(idelphi
DelphiFieldEndAccess
p3674
(dp3675
g875
S'visible'
p3676
sbasbsba(i__main__
DelphiAssignStatement
p3677
(dp3678
g899
(i__main__
DelphiIdentAccess
p3679
(dp3680
g869
S'dxfWriteColors'
p3681
sg871
(lp3682
(idelphi
DelphiFieldEndAccess
p3683
(dp3684
g875
S'checked'
p3685
sbasbsg912
(i__main__
DelphiIdentAccess
p3686
(dp3687
g869
S'colorsByPlantPart'
p3688
sg871
(lp3689
(idelphi
DelphiFieldEndAccess
p3690
(dp3691
g875
S'visible'
p3692
sbasbsba(i__main__
DelphiAssignStatement
p3693
(dp3694
g899
(i__main__
DelphiIdentAccess
p3695
(dp3696
g869
S'dxfWriteColors'
p3697
sg871
(lp3698
(idelphi
DelphiFieldEndAccess
p3699
(dp3700
g875
S'checked'
p3701
sbasbsg912
(i__main__
DelphiIdentAccess
p3702
(dp3703
g869
S'setPlantPartColor'
p3704
sg871
(lp3705
(idelphi
DelphiFieldEndAccess
p3706
(dp3707
g875
S'visible'
p3708
sbasbsbasbsg1190
(lp3709
sbsbsS'helpbuttonclick'
p3710
(i__main__
DelphiMethodImplementation
p3711
(dp3712
g828
g247
sg137
g249
sg145
(lp3713
(i__main__
DelphiFormalParameter
p3714
(dp3715
g149
Nsg150
(lp3716
S'Sender'
p3717
asg156
(i__main__
DelphiNamedType
p3718
(dp3719
g159
S'TObject'
p3720
sg181
g1
sg182
Nsbsg161
Nsbasg839
(lp3721
sg841
(lp3722
sg843
(lp3723
g845
ag3717
asg846
(dp3724
g3717
g3718
ssg162
S'TGeneric3DOptionsForm'
p3725
sg163
Nsg851
(lp3726
sg166
I0
sg167
g183
sg853
(i__main__
DelphiBlock
p3727
(dp3728
g856
(idelphi
DelphiCompoundStatement
p3729
(dp3730
g859
(lp3731
(i__main__
DelphiAssignStatement
p3732
(dp3733
g899
Nsg912
(i__main__
DelphiIdentAccess
p3734
(dp3735
g869
S'application'
p3736
sg871
(lp3737
(idelphi
DelphiFieldEndAccess
p3738
(dp3739
g875
S'helpJump'
p3740
sba(idelphi
DelphiFunctionEndAccess
p3741
(dp3742
g879
(lp3743
(idelphi
DelphiStringAccess
p3744
(dp3745
g871
(lp3746
sg884
(idelphi
DelphiStringValue
p3747
(dp3748
g884
S'Exporting_3D_models_in_general'
p3749
sbsbasbasbsbasbsg1190
(lp3750
sbsbsS'colorsbyplantpartdblclick'
p3751
(i__main__
DelphiMethodImplementation
p3752
(dp3753
g828
g321
sg137
g323
sg145
(lp3754
(i__main__
DelphiFormalParameter
p3755
(dp3756
g149
Nsg150
(lp3757
S'Sender'
p3758
asg156
(i__main__
DelphiNamedType
p3759
(dp3760
g159
S'TObject'
p3761
sg181
g1
sg182
Nsbsg161
Nsbasg839
(lp3762
sg841
(lp3763
sg843
(lp3764
g845
ag3758
asg846
(dp3765
g3758
g3759
ssg162
S'TGeneric3DOptionsForm'
p3766
sg163
Nsg851
(lp3767
sg166
I0
sg167
g183
sg853
(i__main__
DelphiBlock
p3768
(dp3769
g856
(idelphi
DelphiCompoundStatement
p3770
(dp3771
g859
(lp3772
(i__main__
DelphiAssignStatement
p3773
(dp3774
g899
Nsg912
(i__main__
DelphiIdentAccess
p3775
(dp3776
g869
S'self'
p3777
sg871
(lp3778
(idelphi
DelphiFieldEndAccess
p3779
(dp3780
g875
S'setPlantPartColorClick'
p3781
sba(idelphi
DelphiFunctionEndAccess
p3782
(dp3783
g879
(lp3784
(i__main__
DelphiIdentAccess
p3785
(dp3786
g869
S'self'
p3787
sg871
(lp3788
sbasbasbsbasbsg1190
(lp3789
sbsbsS'transfercombobox'
p3790
(i__main__
DelphiMethodImplementation
p3791
(dp3792
g828
g333
sg137
g335
sg145
(lp3793
(i__main__
DelphiFormalParameter
p3794
(dp3795
g149
Nsg150
(lp3796
S'comboBox'
p3797
asg156
(i__main__
DelphiNamedType
p3798
(dp3799
g159
S'TComboBox'
p3800
sg181
g1
sg182
Nsbsg161
Nsba(i__main__
DelphiFormalParameter
p3801
(dp3802
g149
Nsg150
(lp3803
S'value'
p3804
asg156
(i__main__
DelphiPrimitiveType
p3805
(dp3806
g159
g202
sbsg161
g203
sbasg839
(lp3807
I1
asg841
(lp3808
sg843
(lp3809
g845
ag3797
ag3804
asg846
(dp3810
g3797
g3798
sg3804
g3805
ssg162
S'TGeneric3DOptionsForm'
p3811
sg163
Nsg851
(lp3812
g3804
asg166
I0
sg167
g183
sg853
(i__main__
DelphiBlock
p3813
(dp3814
g856
(idelphi
DelphiCompoundStatement
p3815
(dp3816
g859
(lp3817
(idelphi
DelphiIfStatement
p3818
(dp3819
g866
(idelphi
DelphiRelOp
p3820
(dp3821
g1230
(i__main__
DelphiIdentAccess
p3822
(dp3823
g869
S'transferDirection'
p3824
sg871
(lp3825
sbsg1241
(i__main__
DelphiIdentAccess
p3826
(dp3827
g869
S'kTransferLoad'
p3828
sg871
(lp3829
sbsg1244
S'='
sbsg1245
(idelphi
DelphiIfStatement
p3830
(dp3831
g866
(idelphi
DelphiRelOp
p3832
(dp3833
g1230
(i__main__
DelphiIdentAccess
p3834
(dp3835
g869
S'transferDirection'
p3836
sg871
(lp3837
sbsg1241
(i__main__
DelphiIdentAccess
p3838
(dp3839
g869
S'kTransferSave'
p3840
sg871
(lp3841
sbsg1244
S'='
sbsg1245
Nsg1246
(idelphi
DelphiCompoundStatement
p3842
(dp3843
g859
(lp3844
(idelphi
DelphiIfStatement
p3845
(dp3846
g866
(idelphi
DelphiRelOp
p3847
(dp3848
g1230
(i__main__
DelphiIdentAccess
p3849
(dp3850
g869
S'value'
p3851
sg871
(lp3852
sbsg1241
(i__main__
DelphiIdentAccess
p3853
(dp3854
g869
S'comboBox'
p3855
sg871
(lp3856
(idelphi
DelphiFieldEndAccess
p3857
(dp3858
g875
S'itemIndex'
p3859
sbasbsg1244
g1642
sbsg1245
Nsg1246
(i__main__
DelphiAssignStatement
p3860
(dp3861
g899
(i__main__
DelphiIdentAccess
p3862
(dp3863
g869
S'true'
p3864
sg871
(lp3865
sbsg912
(i__main__
DelphiIdentAccess
p3866
(dp3867
g869
S'optionsChanged'
p3868
sg871
(lp3869
sbsbsba(i__main__
DelphiAssignStatement
p3870
(dp3871
g899
(i__main__
DelphiIdentAccess
p3872
(dp3873
g869
S'comboBox'
p3874
sg871
(lp3875
(idelphi
DelphiFieldEndAccess
p3876
(dp3877
g875
S'itemIndex'
p3878
sbasbsg912
(i__main__
DelphiIdentAccess
p3879
(dp3880
g869
S'value'
p3881
sg871
(lp3882
sbsbasbsbsg1246
(i__main__
DelphiAssignStatement
p3883
(dp3884
g899
(i__main__
DelphiIdentAccess
p3885
(dp3886
g869
S'value'
p3887
sg871
(lp3888
sbsg912
(i__main__
DelphiIdentAccess
p3889
(dp3890
g869
S'comboBox'
p3891
sg871
(lp3892
(idelphi
DelphiFieldEndAccess
p3893
(dp3894
g875
S'itemIndex'
p3895
sbasbsbsbasbsg1190
(lp3896
sbsbsS'transfercheckbox'
p3897
(i__main__
DelphiMethodImplementation
p3898
(dp3899
g828
g351
sg137
g353
sg145
(lp3900
(i__main__
DelphiFormalParameter
p3901
(dp3902
g149
Nsg150
(lp3903
S'checkBox'
p3904
asg156
(i__main__
DelphiNamedType
p3905
(dp3906
g159
S'TCheckBox'
p3907
sg181
g1
sg182
Nsbsg161
Nsba(i__main__
DelphiFormalParameter
p3908
(dp3909
g149
Nsg150
(lp3910
S'value'
p3911
asg156
(i__main__
DelphiPrimitiveType
p3912
(dp3913
g159
g368
sbsg161
g203
sbasg839
(lp3914
I1
asg841
(lp3915
sg843
(lp3916
g845
ag3904
ag3911
asg846
(dp3917
g3904
g3905
sg3911
g3912
ssg162
S'TGeneric3DOptionsForm'
p3918
sg163
Nsg851
(lp3919
g3911
asg166
I0
sg167
g183
sg853
(i__main__
DelphiBlock
p3920
(dp3921
g856
(idelphi
DelphiCompoundStatement
p3922
(dp3923
g859
(lp3924
(idelphi
DelphiIfStatement
p3925
(dp3926
g866
(idelphi
DelphiRelOp
p3927
(dp3928
g1230
(i__main__
DelphiIdentAccess
p3929
(dp3930
g869
S'transferDirection'
p3931
sg871
(lp3932
sbsg1241
(i__main__
DelphiIdentAccess
p3933
(dp3934
g869
S'kTransferLoad'
p3935
sg871
(lp3936
sbsg1244
S'='
sbsg1245
(idelphi
DelphiIfStatement
p3937
(dp3938
g866
(idelphi
DelphiRelOp
p3939
(dp3940
g1230
(i__main__
DelphiIdentAccess
p3941
(dp3942
g869
S'transferDirection'
p3943
sg871
(lp3944
sbsg1241
(i__main__
DelphiIdentAccess
p3945
(dp3946
g869
S'kTransferSave'
p3947
sg871
(lp3948
sbsg1244
S'='
sbsg1245
Nsg1246
(idelphi
DelphiCompoundStatement
p3949
(dp3950
g859
(lp3951
(idelphi
DelphiIfStatement
p3952
(dp3953
g866
(idelphi
DelphiRelOp
p3954
(dp3955
g1230
(i__main__
DelphiIdentAccess
p3956
(dp3957
g869
S'value'
p3958
sg871
(lp3959
sbsg1241
(i__main__
DelphiIdentAccess
p3960
(dp3961
g869
S'checkBox'
p3962
sg871
(lp3963
(idelphi
DelphiFieldEndAccess
p3964
(dp3965
g875
S'checked'
p3966
sbasbsg1244
g1642
sbsg1245
Nsg1246
(i__main__
DelphiAssignStatement
p3967
(dp3968
g899
(i__main__
DelphiIdentAccess
p3969
(dp3970
g869
S'true'
p3971
sg871
(lp3972
sbsg912
(i__main__
DelphiIdentAccess
p3973
(dp3974
g869
S'optionsChanged'
p3975
sg871
(lp3976
sbsbsba(i__main__
DelphiAssignStatement
p3977
(dp3978
g899
(i__main__
DelphiIdentAccess
p3979
(dp3980
g869
S'checkBox'
p3981
sg871
(lp3982
(idelphi
DelphiFieldEndAccess
p3983
(dp3984
g875
S'checked'
p3985
sbasbsg912
(i__main__
DelphiIdentAccess
p3986
(dp3987
g869
S'value'
p3988
sg871
(lp3989
sbsbasbsbsg1246
(i__main__
DelphiAssignStatement
p3990
(dp3991
g899
(i__main__
DelphiIdentAccess
p3992
(dp3993
g869
S'value'
p3994
sg871
(lp3995
sbsg912
(i__main__
DelphiIdentAccess
p3996
(dp3997
g869
S'checkBox'
p3998
sg871
(lp3999
(idelphi
DelphiFieldEndAccess
p4000
(dp4001
g875
S'checked'
p4002
sbasbsbsbasbsg1190
(lp4003
sbsbsS'updatepredictedsizedisplay'
p4004
(i__main__
DelphiMethodImplementation
p4005
(dp4006
g828
g370
sg137
g372
sg145
(lp4007
sg839
(lp4008
sg841
(lp4009
sg843
(lp4010
g845
asg846
(dp4011
sg162
S'TGeneric3DOptionsForm'
p4012
sg163
Nsg851
(lp4013
sg166
I0
sg167
g183
sg853
(i__main__
DelphiBlock
p4014
(dp4015
g856
(idelphi
DelphiCompoundStatement
p4016
(dp4017
g859
(lp4018
(i__main__
DelphiAssignStatement
p4019
(dp4020
g899
(idelphi
DelphiIntegerValue
p4021
(dp4022
g884
S'0'
sbsg912
(i__main__
DelphiIdentAccess
p4023
(dp4024
g869
S'totalPlants'
p4025
sg871
(lp4026
sbsba(i__main__
DelphiAssignStatement
p4027
(dp4028
g899
(idelphi
DelphiIntegerValue
p4029
(dp4030
g884
S'0'
sbsg912
(i__main__
DelphiIdentAccess
p4031
(dp4032
g869
S'totalPoints'
p4033
sg871
(lp4034
sbsba(i__main__
DelphiAssignStatement
p4035
(dp4036
g899
(idelphi
DelphiIntegerValue
p4037
(dp4038
g884
S'0'
sbsg912
(i__main__
DelphiIdentAccess
p4039
(dp4040
g869
S'totalTriangles'
p4041
sg871
(lp4042
sbsba(i__main__
DelphiAssignStatement
p4043
(dp4044
g899
(idelphi
DelphiIntegerValue
p4045
(dp4046
g884
S'0'
sbsg912
(i__main__
DelphiIdentAccess
p4047
(dp4048
g869
S'totalParts'
p4049
sg871
(lp4050
sbsba(i__main__
DelphiAssignStatement
p4051
(dp4052
g899
(idelphi
DelphiIntegerValue
p4053
(dp4054
g884
S'0'
sbsg912
(i__main__
DelphiIdentAccess
p4055
(dp4056
g869
S'totalMaterials'
p4057
sg871
(lp4058
sbsba(idelphi
DelphiIfStatement
p4059
(dp4060
g866
(idelphi
DelphiRelOp
p4061
(dp4062
g1230
(i__main__
DelphiIdentAccess
p4063
(dp4064
g869
S'domain'
p4065
sg871
(lp4066
(idelphi
DelphiFieldEndAccess
p4067
(dp4068
g875
S'plantManager'
p4069
sba(idelphi
DelphiFieldEndAccess
p4070
(dp4071
g875
S'plants'
p4072
sba(idelphi
DelphiFieldEndAccess
p4073
(dp4074
g875
S'count'
p4075
sbasbsg1241
(idelphi
DelphiIntegerValue
p4076
(dp4077
g884
S'0'
sbsg1244
S'>'
sbsg1245
Nsg1246
(idelphi
DelphiForStatement
p4078
(dp4079
g1249
S'i'
sg1250
(idelphi
DelphiAddOp
p4080
(dp4081
g929
S'-'
sg930
(idelphi
DelphiIntegerValue
p4082
(dp4083
g884
S'1'
sbsg940
(i__main__
DelphiIdentAccess
p4084
(dp4085
g869
S'domain'
p4086
sg871
(lp4087
(idelphi
DelphiFieldEndAccess
p4088
(dp4089
g875
S'plantManager'
p4090
sba(idelphi
DelphiFieldEndAccess
p4091
(dp4092
g875
S'plants'
p4093
sba(idelphi
DelphiFieldEndAccess
p4094
(dp4095
g875
S'count'
p4096
sbasbsbsg1265
g1266
sg149
(idelphi
DelphiIntegerValue
p4097
(dp4098
g884
S'0'
sbsg896
(idelphi
DelphiCompoundStatement
p4099
(dp4100
g859
(lp4101
(i__main__
DelphiAssignStatement
p4102
(dp4103
g899
(i__main__
DelphiIdentAccess
p4104
(dp4105
g869
S'PdPlant'
p4106
sg871
(lp4107
(idelphi
DelphiFunctionEndAccess
p4108
(dp4109
g879
(lp4110
(i__main__
DelphiIdentAccess
p4111
(dp4112
g869
S'domain'
p4113
sg871
(lp4114
(idelphi
DelphiFieldEndAccess
p4115
(dp4116
g875
S'plantManager'
p4117
sba(idelphi
DelphiFieldEndAccess
p4118
(dp4119
g875
S'plants'
p4120
sba(idelphi
DelphiFieldEndAccess
p4121
(dp4122
g875
S'items'
p4123
sba(idelphi
DelphiArrayEndAccess
p4124
(dp4125
g879
(lp4126
(i__main__
DelphiIdentAccess
p4127
(dp4128
g869
S'i'
sg871
(lp4129
sbasbasbasbasbsg912
(i__main__
DelphiIdentAccess
p4130
(dp4131
g869
S'plant'
p4132
sg871
(lp4133
sbsba(idelphi
DelphiIfStatement
p4134
(dp4135
g866
(idelphi
DelphiRelOp
p4136
(dp4137
g1230
(i__main__
DelphiIdentAccess
p4138
(dp4139
g869
S'plant'
p4140
sg871
(lp4141
sbsg1241
(idelphi
DelphiNilValue
p4142
(dp4143
bsg1244
S'='
sbsg1245
Nsg1246
(idelphi
DelphiContinueStatement
p4144
(dp4145
bsba(idelphi
DelphiIfStatement
p4146
(dp4147
g866
(idelphi
DelphiMulOp
p4148
(dp4149
g902
(idelphi
DelphiNestedExpressionListAccess
p4150
(dp4151
g871
(lp4152
sg879
(lp4153
(idelphi
DelphiNot
p4154
(dp4155
g1218
(i__main__
DelphiIdentAccess
p4156
(dp4157
g869
S'MainForm'
p4158
sg871
(lp4159
(idelphi
DelphiFieldEndAccess
p4160
(dp4161
g875
S'isSelected'
p4162
sba(idelphi
DelphiFunctionEndAccess
p4163
(dp4164
g879
(lp4165
(i__main__
DelphiIdentAccess
p4166
(dp4167
g869
S'plant'
p4168
sg871
(lp4169
sbasbasbsbasbsg906
g1643
sg907
(idelphi
DelphiNestedExpressionListAccess
p4170
(dp4171
g871
(lp4172
sg879
(lp4173
(i__main__
DelphiIdentAccess
p4174
(dp4175
g869
S'useSelectedPlants'
p4176
sg871
(lp4177
(idelphi
DelphiFieldEndAccess
p4178
(dp4179
g875
S'checked'
p4180
sbasbasbsbsg1245
Nsg1246
(idelphi
DelphiContinueStatement
p4181
(dp4182
bsba(idelphi
DelphiIfStatement
p4183
(dp4184
g866
(idelphi
DelphiMulOp
p4185
(dp4186
g902
(idelphi
DelphiNestedExpressionListAccess
p4187
(dp4188
g871
(lp4189
sg879
(lp4190
(i__main__
DelphiIdentAccess
p4191
(dp4192
g869
S'plant'
p4193
sg871
(lp4194
(idelphi
DelphiFieldEndAccess
p4195
(dp4196
g875
S'hidden'
p4197
sbasbasbsg906
g1643
sg907
(idelphi
DelphiNestedExpressionListAccess
p4198
(dp4199
g871
(lp4200
sg879
(lp4201
(i__main__
DelphiIdentAccess
p4202
(dp4203
g869
S'useVisiblePlants'
p4204
sg871
(lp4205
(idelphi
DelphiFieldEndAccess
p4206
(dp4207
g875
S'checked'
p4208
sbasbasbsbsg1245
Nsg1246
(idelphi
DelphiContinueStatement
p4209
(dp4210
bsba(i__main__
DelphiAssignStatement
p4211
(dp4212
g899
Nsg912
(i__main__
DelphiIdentAccess
p4213
(dp4214
g869
S'plant'
p4215
sg871
(lp4216
(idelphi
DelphiFieldEndAccess
p4217
(dp4218
g875
S'countPlantPartsFor3DOutput'
p4219
sba(idelphi
DelphiFunctionEndAccess
p4220
(dp4221
g879
(lp4222
(i__main__
DelphiIdentAccess
p4223
(dp4224
g869
S'outputType'
p4225
sg871
(lp4226
sba(i__main__
DelphiIdentAccess
p4227
(dp4228
g869
S'strToIntDef'
p4229
sg871
(lp4230
(idelphi
DelphiFunctionEndAccess
p4231
(dp4232
g879
(lp4233
(i__main__
DelphiIdentAccess
p4234
(dp4235
g869
S'stemCylinderFaces'
p4236
sg871
(lp4237
(idelphi
DelphiFieldEndAccess
p4238
(dp4239
g875
S'text'
p4240
sbasba(idelphi
DelphiIntegerValue
p4241
(dp4242
g884
S'20'
p4243
sbasbasbasbasbsba(i__main__
DelphiAssignStatement
p4244
(dp4245
g899
(idelphi
DelphiAddOp
p4246
(dp4247
g929
S'+'
sg930
(i__main__
DelphiIdentAccess
p4248
(dp4249
g869
S'plant'
p4250
sg871
(lp4251
(idelphi
DelphiFieldEndAccess
p4252
(dp4253
g875
S'total3DExportPoints'
p4254
sbasbsg940
(i__main__
DelphiIdentAccess
p4255
(dp4256
g869
S'totalPoints'
p4257
sg871
(lp4258
sbsbsg912
(i__main__
DelphiIdentAccess
p4259
(dp4260
g869
S'totalPoints'
p4261
sg871
(lp4262
sbsba(i__main__
DelphiAssignStatement
p4263
(dp4264
g899
(idelphi
DelphiAddOp
p4265
(dp4266
g929
S'+'
sg930
(i__main__
DelphiIdentAccess
p4267
(dp4268
g869
S'plant'
p4269
sg871
(lp4270
(idelphi
DelphiFieldEndAccess
p4271
(dp4272
g875
S'total3DExportTriangles'
p4273
sbasbsg940
(i__main__
DelphiIdentAccess
p4274
(dp4275
g869
S'totalTriangles'
p4276
sg871
(lp4277
sbsbsg912
(i__main__
DelphiIdentAccess
p4278
(dp4279
g869
S'totalTriangles'
p4280
sg871
(lp4281
sbsba(i__main__
DelphiAssignStatement
p4282
(dp4283
g899
(idelphi
DelphiAddOp
p4284
(dp4285
g929
S'+'
sg930
(i__main__
DelphiIdentAccess
p4286
(dp4287
g869
S'plant'
p4288
sg871
(lp4289
(idelphi
DelphiFieldEndAccess
p4290
(dp4291
g875
S'totalPlantParts'
p4292
sbasbsg940
(i__main__
DelphiIdentAccess
p4293
(dp4294
g869
S'totalParts'
p4295
sg871
(lp4296
sbsbsg912
(i__main__
DelphiIdentAccess
p4297
(dp4298
g869
S'totalParts'
p4299
sg871
(lp4300
sbsba(i__main__
DelphiAssignStatement
p4301
(dp4302
g899
(idelphi
DelphiAddOp
p4303
(dp4304
g929
S'+'
sg930
(i__main__
DelphiIdentAccess
p4305
(dp4306
g869
S'plant'
p4307
sg871
(lp4308
(idelphi
DelphiFieldEndAccess
p4309
(dp4310
g875
S'total3DExportMaterials'
p4311
sbasbsg940
(i__main__
DelphiIdentAccess
p4312
(dp4313
g869
S'totalMaterials'
p4314
sg871
(lp4315
sbsbsg912
(i__main__
DelphiIdentAccess
p4316
(dp4317
g869
S'totalMaterials'
p4318
sg871
(lp4319
sbsba(i__main__
DelphiIncOrDecStatement
p4320
(dp4321
S'incOrDecString'
p4322
S'inc'
p4323
sS'incrementExpression'
p4324
Nsg912
(i__main__
DelphiIdentAccess
p4325
(dp4326
g869
S'totalPlants'
p4327
sg871
(lp4328
sbsbasbsbsba(i__main__
DelphiAssignStatement
p4329
(dp4330
g899
(i__main__
DelphiIdentAccess
p4331
(dp4332
g869
S'self'
p4333
sg871
(lp4334
(idelphi
DelphiFieldEndAccess
p4335
(dp4336
g875
S'estimateBytes'
p4337
sba(idelphi
DelphiFunctionEndAccess
p4338
(dp4339
g879
(lp4340
(i__main__
DelphiIdentAccess
p4341
(dp4342
g869
S'domain'
p4343
sg871
(lp4344
(idelphi
DelphiFieldEndAccess
p4345
(dp4346
g875
S'plantManager'
p4347
sba(idelphi
DelphiFieldEndAccess
p4348
(dp4349
g875
S'plants'
p4350
sba(idelphi
DelphiFieldEndAccess
p4351
(dp4352
g875
S'count'
p4353
sbasba(i__main__
DelphiIdentAccess
p4354
(dp4355
g869
S'totalParts'
p4356
sg871
(lp4357
sba(i__main__
DelphiIdentAccess
p4358
(dp4359
g869
S'totalPoints'
p4360
sg871
(lp4361
sba(i__main__
DelphiIdentAccess
p4362
(dp4363
g869
S'totalTriangles'
p4364
sg871
(lp4365
sbasbasbsg912
(i__main__
DelphiIdentAccess
p4366
(dp4367
g869
S'estimatedBytes'
p4368
sg871
(lp4369
sbsba(i__main__
DelphiAssignStatement
p4370
(dp4371
g899
(idelphi
DelphiMulOp
p4372
(dp4373
g902
(idelphi
DelphiNestedExpressionListAccess
p4374
(dp4375
g871
(lp4376
sg879
(lp4377
(idelphi
DelphiMulOp
p4378
(dp4379
g902
(idelphi
DelphiIntegerValue
p4380
(dp4381
g884
S'1024'
p4382
sbsg906
S'*'
sg907
(idelphi
DelphiIntegerValue
p4383
(dp4384
g884
S'1024'
p4385
sbsbasbsg906
S'/'
sg907
(idelphi
DelphiMulOp
p4386
(dp4387
g902
(i__main__
DelphiIdentAccess
p4388
(dp4389
g869
S'estimatedBytes'
p4390
sg871
(lp4391
sbsg906
S'*'
sg907
(idelphi
DelphiRealValue
p4392
(dp4393
g884
S'1.0'
p4394
sbsbsbsg912
(i__main__
DelphiIdentAccess
p4395
(dp4396
g869
S'options'
p4397
sg871
(lp4398
(idelphi
DelphiFieldEndAccess
p4399
(dp4400
g875
S'fileSize'
p4401
sbasbsg453
(lp4402
S' in MB\r'
p4403
asba(idelphi
DelphiWithStatement
p4404
(dp4405
g896
(idelphi
DelphiCompoundStatement
p4406
(dp4407
g859
(lp4408
(i__main__
DelphiAssignStatement
p4409
(dp4410
g899
(idelphi
DelphiStringAccess
p4411
(dp4412
g871
(lp4413
sg884
(idelphi
DelphiStringValue
p4414
(dp4415
g884
S' plants'
p4416
sbsbsg912
(i__main__
DelphiIdentAccess
p4417
(dp4418
g869
S'cells'
p4419
sg871
(lp4420
(idelphi
DelphiArrayEndAccess
p4421
(dp4422
g879
(lp4423
(idelphi
DelphiIntegerValue
p4424
(dp4425
g884
S'0'
sba(idelphi
DelphiIntegerValue
p4426
(dp4427
g884
S'0'
sbasbasbsba(i__main__
DelphiAssignStatement
p4428
(dp4429
g899
(idelphi
DelphiAddOp
p4430
(dp4431
g929
S'+'
sg930
(i__main__
DelphiIdentAccess
p4432
(dp4433
g869
S'intToStr'
p4434
sg871
(lp4435
(idelphi
DelphiFunctionEndAccess
p4436
(dp4437
g879
(lp4438
(i__main__
DelphiIdentAccess
p4439
(dp4440
g869
S'totalPlants'
p4441
sg871
(lp4442
sbasbasbsg940
(idelphi
DelphiStringAccess
p4443
(dp4444
g871
(lp4445
sg884
(idelphi
DelphiStringValue
p4446
(dp4447
g884
S' '
sbsbsbsg912
(i__main__
DelphiIdentAccess
p4448
(dp4449
g869
S'cells'
p4450
sg871
(lp4451
(idelphi
DelphiArrayEndAccess
p4452
(dp4453
g879
(lp4454
(idelphi
DelphiIntegerValue
p4455
(dp4456
g884
S'0'
sba(idelphi
DelphiIntegerValue
p4457
(dp4458
g884
S'1'
sbasbasbsba(i__main__
DelphiAssignStatement
p4459
(dp4460
g899
(idelphi
DelphiIntegerValue
p4461
(dp4462
g884
S'36'
p4463
sbsg912
(i__main__
DelphiIdentAccess
p4464
(dp4465
g869
S'colWidths'
p4466
sg871
(lp4467
(idelphi
DelphiArrayEndAccess
p4468
(dp4469
g879
(lp4470
(idelphi
DelphiIntegerValue
p4471
(dp4472
g884
S'0'
sbasbasbsba(i__main__
DelphiAssignStatement
p4473
(dp4474
g899
(idelphi
DelphiStringAccess
p4475
(dp4476
g871
(lp4477
sg884
(idelphi
DelphiStringValue
p4478
(dp4479
g884
S' parts'
p4480
sbsbsg912
(i__main__
DelphiIdentAccess
p4481
(dp4482
g869
S'cells'
p4483
sg871
(lp4484
(idelphi
DelphiArrayEndAccess
p4485
(dp4486
g879
(lp4487
(idelphi
DelphiIntegerValue
p4488
(dp4489
g884
S'1'
sba(idelphi
DelphiIntegerValue
p4490
(dp4491
g884
S'0'
sbasbasbsba(i__main__
DelphiAssignStatement
p4492
(dp4493
g899
(idelphi
DelphiAddOp
p4494
(dp4495
g929
S'+'
sg930
(i__main__
DelphiIdentAccess
p4496
(dp4497
g869
S'intToStr'
p4498
sg871
(lp4499
(idelphi
DelphiFunctionEndAccess
p4500
(dp4501
g879
(lp4502
(i__main__
DelphiIdentAccess
p4503
(dp4504
g869
S'totalParts'
p4505
sg871
(lp4506
sbasbasbsg940
(idelphi
DelphiStringAccess
p4507
(dp4508
g871
(lp4509
sg884
(idelphi
DelphiStringValue
p4510
(dp4511
g884
S' '
sbsbsbsg912
(i__main__
DelphiIdentAccess
p4512
(dp4513
g869
S'cells'
p4514
sg871
(lp4515
(idelphi
DelphiArrayEndAccess
p4516
(dp4517
g879
(lp4518
(idelphi
DelphiIntegerValue
p4519
(dp4520
g884
S'1'
sba(idelphi
DelphiIntegerValue
p4521
(dp4522
g884
S'1'
sbasbasbsba(i__main__
DelphiAssignStatement
p4523
(dp4524
g899
(idelphi
DelphiIntegerValue
p4525
(dp4526
g884
S'36'
p4527
sbsg912
(i__main__
DelphiIdentAccess
p4528
(dp4529
g869
S'colWidths'
p4530
sg871
(lp4531
(idelphi
DelphiArrayEndAccess
p4532
(dp4533
g879
(lp4534
(idelphi
DelphiIntegerValue
p4535
(dp4536
g884
S'1'
sbasbasbsba(i__main__
DelphiAssignStatement
p4537
(dp4538
g899
(idelphi
DelphiStringAccess
p4539
(dp4540
g871
(lp4541
sg884
(idelphi
DelphiStringValue
p4542
(dp4543
g884
S' points'
p4544
sbsbsg912
(i__main__
DelphiIdentAccess
p4545
(dp4546
g869
S'cells'
p4547
sg871
(lp4548
(idelphi
DelphiArrayEndAccess
p4549
(dp4550
g879
(lp4551
(idelphi
DelphiIntegerValue
p4552
(dp4553
g884
S'2'
sba(idelphi
DelphiIntegerValue
p4554
(dp4555
g884
S'0'
sbasbasbsba(i__main__
DelphiAssignStatement
p4556
(dp4557
g899
(idelphi
DelphiAddOp
p4558
(dp4559
g929
S'+'
sg930
(i__main__
DelphiIdentAccess
p4560
(dp4561
g869
S'intToStr'
p4562
sg871
(lp4563
(idelphi
DelphiFunctionEndAccess
p4564
(dp4565
g879
(lp4566
(i__main__
DelphiIdentAccess
p4567
(dp4568
g869
S'totalPoints'
p4569
sg871
(lp4570
sbasbasbsg940
(idelphi
DelphiStringAccess
p4571
(dp4572
g871
(lp4573
sg884
(idelphi
DelphiStringValue
p4574
(dp4575
g884
S' '
sbsbsbsg912
(i__main__
DelphiIdentAccess
p4576
(dp4577
g869
S'cells'
p4578
sg871
(lp4579
(idelphi
DelphiArrayEndAccess
p4580
(dp4581
g879
(lp4582
(idelphi
DelphiIntegerValue
p4583
(dp4584
g884
S'2'
sba(idelphi
DelphiIntegerValue
p4585
(dp4586
g884
S'1'
sbasbasbsba(i__main__
DelphiAssignStatement
p4587
(dp4588
g899
(idelphi
DelphiIntegerValue
p4589
(dp4590
g884
S'44'
p4591
sbsg912
(i__main__
DelphiIdentAccess
p4592
(dp4593
g869
S'colWidths'
p4594
sg871
(lp4595
(idelphi
DelphiArrayEndAccess
p4596
(dp4597
g879
(lp4598
(idelphi
DelphiIntegerValue
p4599
(dp4600
g884
S'2'
sbasbasbsba(i__main__
DelphiAssignStatement
p4601
(dp4602
g899
(idelphi
DelphiStringAccess
p4603
(dp4604
g871
(lp4605
sg884
(idelphi
DelphiStringValue
p4606
(dp4607
g884
S' polygons'
p4608
sbsbsg912
(i__main__
DelphiIdentAccess
p4609
(dp4610
g869
S'cells'
p4611
sg871
(lp4612
(idelphi
DelphiArrayEndAccess
p4613
(dp4614
g879
(lp4615
(idelphi
DelphiIntegerValue
p4616
(dp4617
g884
S'3'
sba(idelphi
DelphiIntegerValue
p4618
(dp4619
g884
S'0'
sbasbasbsba(i__main__
DelphiAssignStatement
p4620
(dp4621
g899
(idelphi
DelphiAddOp
p4622
(dp4623
g929
S'+'
sg930
(i__main__
DelphiIdentAccess
p4624
(dp4625
g869
S'intToStr'
p4626
sg871
(lp4627
(idelphi
DelphiFunctionEndAccess
p4628
(dp4629
g879
(lp4630
(i__main__
DelphiIdentAccess
p4631
(dp4632
g869
S'totalTriangles'
p4633
sg871
(lp4634
sbasbasbsg940
(idelphi
DelphiStringAccess
p4635
(dp4636
g871
(lp4637
sg884
(idelphi
DelphiStringValue
p4638
(dp4639
g884
S' '
sbsbsbsg912
(i__main__
DelphiIdentAccess
p4640
(dp4641
g869
S'cells'
p4642
sg871
(lp4643
(idelphi
DelphiArrayEndAccess
p4644
(dp4645
g879
(lp4646
(idelphi
DelphiIntegerValue
p4647
(dp4648
g884
S'3'
sba(idelphi
DelphiIntegerValue
p4649
(dp4650
g884
S'1'
sbasbasbsba(i__main__
DelphiAssignStatement
p4651
(dp4652
g899
(idelphi
DelphiIntegerValue
p4653
(dp4654
g884
S'50'
p4655
sbsg912
(i__main__
DelphiIdentAccess
p4656
(dp4657
g869
S'colWidths'
p4658
sg871
(lp4659
(idelphi
DelphiArrayEndAccess
p4660
(dp4661
g879
(lp4662
(idelphi
DelphiIntegerValue
p4663
(dp4664
g884
S'3'
sbasbasbsg453
(lp4665
S' polygons is the longest word\r'
p4666
asba(i__main__
DelphiAssignStatement
p4667
(dp4668
g899
(idelphi
DelphiStringAccess
p4669
(dp4670
g871
(lp4671
sg884
(idelphi
DelphiStringValue
p4672
(dp4673
g884
S' colors'
p4674
sbsbsg912
(i__main__
DelphiIdentAccess
p4675
(dp4676
g869
S'cells'
p4677
sg871
(lp4678
(idelphi
DelphiArrayEndAccess
p4679
(dp4680
g879
(lp4681
(idelphi
DelphiIntegerValue
p4682
(dp4683
g884
S'4'
sba(idelphi
DelphiIntegerValue
p4684
(dp4685
g884
S'0'
sbasbasbsba(i__main__
DelphiAssignStatement
p4686
(dp4687
g899
(idelphi
DelphiAddOp
p4688
(dp4689
g929
S'+'
sg930
(i__main__
DelphiIdentAccess
p4690
(dp4691
g869
S'intToStr'
p4692
sg871
(lp4693
(idelphi
DelphiFunctionEndAccess
p4694
(dp4695
g879
(lp4696
(i__main__
DelphiIdentAccess
p4697
(dp4698
g869
S'totalMaterials'
p4699
sg871
(lp4700
sbasbasbsg940
(idelphi
DelphiStringAccess
p4701
(dp4702
g871
(lp4703
sg884
(idelphi
DelphiStringValue
p4704
(dp4705
g884
S' '
sbsbsbsg912
(i__main__
DelphiIdentAccess
p4706
(dp4707
g869
S'cells'
p4708
sg871
(lp4709
(idelphi
DelphiArrayEndAccess
p4710
(dp4711
g879
(lp4712
(idelphi
DelphiIntegerValue
p4713
(dp4714
g884
S'4'
sba(idelphi
DelphiIntegerValue
p4715
(dp4716
g884
S'1'
sbasbasbsba(i__main__
DelphiAssignStatement
p4717
(dp4718
g899
(idelphi
DelphiStringAccess
p4719
(dp4720
g871
(lp4721
sg884
(idelphi
DelphiStringValue
p4722
(dp4723
g884
S' size'
p4724
sbsbsg912
(i__main__
DelphiIdentAccess
p4725
(dp4726
g869
S'cells'
p4727
sg871
(lp4728
(idelphi
DelphiArrayEndAccess
p4729
(dp4730
g879
(lp4731
(idelphi
DelphiIntegerValue
p4732
(dp4733
g884
S'5'
sba(idelphi
DelphiIntegerValue
p4734
(dp4735
g884
S'0'
sbasbasbsba(i__main__
DelphiAssignStatement
p4736
(dp4737
g899
(idelphi
DelphiIntegerValue
p4738
(dp4739
g884
S'64'
p4740
sbsg912
(i__main__
DelphiIdentAccess
p4741
(dp4742
g869
S'colWidths'
p4743
sg871
(lp4744
(idelphi
DelphiArrayEndAccess
p4745
(dp4746
g879
(lp4747
(idelphi
DelphiIntegerValue
p4748
(dp4749
g884
S'5'
sbasbasbsba(idelphi
DelphiIfStatement
p4750
(dp4751
g866
(idelphi
DelphiRelOp
p4752
(dp4753
g1230
(i__main__
DelphiIdentAccess
p4754
(dp4755
g869
S'self'
p4756
sg871
(lp4757
(idelphi
DelphiFieldEndAccess
p4758
(dp4759
g875
S'options'
p4760
sba(idelphi
DelphiFieldEndAccess
p4761
(dp4762
g875
S'fileSize'
p4763
sbasbsg1241
(idelphi
DelphiRealValue
p4764
(dp4765
g884
S'1.0'
p4766
sbsg1244
S'>'
sbsg1245
(i__main__
DelphiAssignStatement
p4767
(dp4768
g899
(idelphi
DelphiAddOp
p4769
(dp4770
g929
S'+'
sg930
(idelphi
DelphiStringAccess
p4771
(dp4772
g871
(lp4773
sg884
(idelphi
DelphiStringValue
p4774
(dp4775
g884
S' K'
p4776
sbsbsg940
(idelphi
DelphiAddOp
p4777
(dp4778
g929
S'+'
sg930
(i__main__
DelphiIdentAccess
p4779
(dp4780
g869
S'intToStr'
p4781
sg871
(lp4782
(idelphi
DelphiFunctionEndAccess
p4783
(dp4784
g879
(lp4785
(i__main__
DelphiIdentAccess
p4786
(dp4787
g869
S'round'
p4788
sg871
(lp4789
(idelphi
DelphiFunctionEndAccess
p4790
(dp4791
g879
(lp4792
(idelphi
DelphiMulOp
p4793
(dp4794
g902
(idelphi
DelphiIntegerValue
p4795
(dp4796
g884
S'1024'
p4797
sbsg906
S'*'
sg907
(i__main__
DelphiIdentAccess
p4798
(dp4799
g869
S'self'
p4800
sg871
(lp4801
(idelphi
DelphiFieldEndAccess
p4802
(dp4803
g875
S'options'
p4804
sba(idelphi
DelphiFieldEndAccess
p4805
(dp4806
g875
S'fileSize'
p4807
sbasbsbasbasbasbasbsg940
(idelphi
DelphiStringAccess
p4808
(dp4809
g871
(lp4810
sg884
(idelphi
DelphiStringValue
p4811
(dp4812
g884
S' '
sbsbsbsbsg912
(i__main__
DelphiIdentAccess
p4813
(dp4814
g869
S'cells'
p4815
sg871
(lp4816
(idelphi
DelphiArrayEndAccess
p4817
(dp4818
g879
(lp4819
(idelphi
DelphiIntegerValue
p4820
(dp4821
g884
S'5'
sba(idelphi
DelphiIntegerValue
p4822
(dp4823
g884
S'1'
sbasbasbsbsg1246
(i__main__
DelphiAssignStatement
p4824
(dp4825
g899
(idelphi
DelphiAddOp
p4826
(dp4827
g929
S'+'
sg930
(idelphi
DelphiStringAccess
p4828
(dp4829
g871
(lp4830
sg884
(idelphi
DelphiStringValue
p4831
(dp4832
g884
S' MB'
p4833
sbsbsg940
(idelphi
DelphiAddOp
p4834
(dp4835
g929
S'+'
sg930
(i__main__
DelphiIdentAccess
p4836
(dp4837
g869
S'floatToStrF'
p4838
sg871
(lp4839
(idelphi
DelphiFunctionEndAccess
p4840
(dp4841
g879
(lp4842
(i__main__
DelphiIdentAccess
p4843
(dp4844
g869
S'self'
p4845
sg871
(lp4846
(idelphi
DelphiFieldEndAccess
p4847
(dp4848
g875
S'options'
p4849
sba(idelphi
DelphiFieldEndAccess
p4850
(dp4851
g875
S'fileSize'
p4852
sbasba(i__main__
DelphiIdentAccess
p4853
(dp4854
g869
S'ffFixed'
p4855
sg871
(lp4856
sba(idelphi
DelphiIntegerValue
p4857
(dp4858
g884
S'7'
sba(idelphi
DelphiIntegerValue
p4859
(dp4860
g884
S'2'
sbasbasbsg940
(idelphi
DelphiStringAccess
p4861
(dp4862
g871
(lp4863
sg884
(idelphi
DelphiStringValue
p4864
(dp4865
g884
S' '
sbsbsbsbsg912
(i__main__
DelphiIdentAccess
p4866
(dp4867
g869
S'cells'
p4868
sg871
(lp4869
(idelphi
DelphiArrayEndAccess
p4870
(dp4871
g879
(lp4872
(idelphi
DelphiIntegerValue
p4873
(dp4874
g884
S'5'
sba(idelphi
DelphiIntegerValue
p4875
(dp4876
g884
S'1'
sbasbasbsbsbasbsg3512
(lp4877
(i__main__
DelphiIdentAccess
p4878
(dp4879
g869
S'estimationStringGrid'
p4880
sg871
(lp4881
sbasba(i__main__
DelphiAssignStatement
p4882
(dp4883
g899
(idelphi
DelphiNestedExpressionListAccess
p4884
(dp4885
g871
(lp4886
sg879
(lp4887
(idelphi
DelphiRelOp
p4888
(dp4889
g1230
(i__main__
DelphiIdentAccess
p4890
(dp4891
g869
S'totalPlants'
p4892
sg871
(lp4893
sbsg1241
(idelphi
DelphiIntegerValue
p4894
(dp4895
g884
S'1'
sbsg1244
S'>'
sbasbsg912
(i__main__
DelphiIdentAccess
p4896
(dp4897
g869
S'translatePlantsToWindowPositions'
p4898
sg871
(lp4899
(idelphi
DelphiFieldEndAccess
p4900
(dp4901
g875
S'visible'
p4902
sbasbsbasbsg1190
(lp4903
(i__main__
DelphiVarSection
p4904
(dp4905
g1533
I0
sg1534
(lp4906
(idelphi
DelphiVarDecl
p4907
(dp4908
g1538
Nsg1539
(lp4909
S'i'
asg156
(i__main__
DelphiPrimitiveType
p4910
(dp4911
g159
g160
sbsba(idelphi
DelphiVarDecl
p4912
(dp4913
g1538
Nsg1539
(lp4914
S'plant'
p4915
asg156
(i__main__
DelphiNamedType
p4916
(dp4917
g159
S'PdPlant'
p4918
sg181
g1
sg182
Nsbsba(idelphi
DelphiVarDecl
p4919
(dp4920
g1538
Nsg1539
(lp4921
S'plantsString'
p4922
asg156
(i__main__
DelphiPrimitiveType
p4923
(dp4924
g159
g884
sbsba(idelphi
DelphiVarDecl
p4925
(dp4926
g1538
Nsg1539
(lp4927
S'estimatedBytes'
p4928
asg156
(i__main__
DelphiPrimitiveType
p4929
(dp4930
g159
g160
sbsbasbasbsbsS'transferradiogroup'
p4931
(i__main__
DelphiMethodImplementation
p4932
(dp4933
g828
g458
sg137
g460
sg145
(lp4934
(i__main__
DelphiFormalParameter
p4935
(dp4936
g149
Nsg150
(lp4937
S'radioGroup'
p4938
asg156
(i__main__
DelphiNamedType
p4939
(dp4940
g159
S'TRadioGroup'
p4941
sg181
g1
sg182
Nsbsg161
Nsba(i__main__
DelphiFormalParameter
p4942
(dp4943
g149
Nsg150
(lp4944
S'value'
p4945
asg156
(i__main__
DelphiPrimitiveType
p4946
(dp4947
g159
g202
sbsg161
g203
sbasg839
(lp4948
I1
asg841
(lp4949
sg843
(lp4950
g845
ag4938
ag4945
asg846
(dp4951
g4938
g4939
sg4945
g4946
ssg162
S'TGeneric3DOptionsForm'
p4952
sg163
Nsg851
(lp4953
g4945
asg166
I0
sg167
g183
sg853
(i__main__
DelphiBlock
p4954
(dp4955
g856
(idelphi
DelphiCompoundStatement
p4956
(dp4957
g859
(lp4958
(idelphi
DelphiIfStatement
p4959
(dp4960
g866
(idelphi
DelphiRelOp
p4961
(dp4962
g1230
(i__main__
DelphiIdentAccess
p4963
(dp4964
g869
S'transferDirection'
p4965
sg871
(lp4966
sbsg1241
(i__main__
DelphiIdentAccess
p4967
(dp4968
g869
S'kTransferLoad'
p4969
sg871
(lp4970
sbsg1244
S'='
sbsg1245
(idelphi
DelphiIfStatement
p4971
(dp4972
g866
(idelphi
DelphiRelOp
p4973
(dp4974
g1230
(i__main__
DelphiIdentAccess
p4975
(dp4976
g869
S'transferDirection'
p4977
sg871
(lp4978
sbsg1241
(i__main__
DelphiIdentAccess
p4979
(dp4980
g869
S'kTransferSave'
p4981
sg871
(lp4982
sbsg1244
S'='
sbsg1245
Nsg1246
(idelphi
DelphiCompoundStatement
p4983
(dp4984
g859
(lp4985
(idelphi
DelphiIfStatement
p4986
(dp4987
g866
(idelphi
DelphiRelOp
p4988
(dp4989
g1230
(i__main__
DelphiIdentAccess
p4990
(dp4991
g869
S'value'
p4992
sg871
(lp4993
sbsg1241
(i__main__
DelphiIdentAccess
p4994
(dp4995
g869
S'radioGroup'
p4996
sg871
(lp4997
(idelphi
DelphiFieldEndAccess
p4998
(dp4999
g875
S'itemIndex'
p5000
sbasbsg1244
g1642
sbsg1245
Nsg1246
(i__main__
DelphiAssignStatement
p5001
(dp5002
g899
(i__main__
DelphiIdentAccess
p5003
(dp5004
g869
S'true'
p5005
sg871
(lp5006
sbsg912
(i__main__
DelphiIdentAccess
p5007
(dp5008
g869
S'optionsChanged'
p5009
sg871
(lp5010
sbsbsba(i__main__
DelphiAssignStatement
p5011
(dp5012
g899
(i__main__
DelphiIdentAccess
p5013
(dp5014
g869
S'radioGroup'
p5015
sg871
(lp5016
(idelphi
DelphiFieldEndAccess
p5017
(dp5018
g875
S'itemIndex'
p5019
sbasbsg912
(i__main__
DelphiIdentAccess
p5020
(dp5021
g869
S'value'
p5022
sg871
(lp5023
sbsbasbsbsg1246
(i__main__
DelphiAssignStatement
p5024
(dp5025
g899
(i__main__
DelphiIdentAccess
p5026
(dp5027
g869
S'value'
p5028
sg871
(lp5029
sbsg912
(i__main__
DelphiIdentAccess
p5030
(dp5031
g869
S'radioGroup'
p5032
sg871
(lp5033
(idelphi
DelphiFieldEndAccess
p5034
(dp5035
g875
S'itemIndex'
p5036
sbasbsbsbasbsg1190
(lp5037
sbsbsS'transfersingleeditbox'
p5038
(i__main__
DelphiMethodImplementation
p5039
(dp5040
g828
g387
sg137
g389
sg145
(lp5041
(i__main__
DelphiFormalParameter
p5042
(dp5043
g149
Nsg150
(lp5044
S'editBox'
p5045
asg156
(i__main__
DelphiNamedType
p5046
(dp5047
g159
S'TEdit'
p5048
sg181
g1
sg182
Nsbsg161
Nsba(i__main__
DelphiFormalParameter
p5049
(dp5050
g149
Nsg150
(lp5051
S'value'
p5052
asg156
(i__main__
DelphiPrimitiveType
p5053
(dp5054
g159
g404
sbsg161
g203
sbasg839
(lp5055
I1
asg841
(lp5056
sg843
(lp5057
g845
ag5045
ag5052
asg846
(dp5058
g5045
g5046
sg5052
g5053
ssg162
S'TGeneric3DOptionsForm'
p5059
sg163
Nsg851
(lp5060
g5052
asg166
I0
sg167
g183
sg853
(i__main__
DelphiBlock
p5061
(dp5062
g856
(idelphi
DelphiCompoundStatement
p5063
(dp5064
g859
(lp5065
(idelphi
DelphiIfStatement
p5066
(dp5067
g866
(idelphi
DelphiRelOp
p5068
(dp5069
g1230
(i__main__
DelphiIdentAccess
p5070
(dp5071
g869
S'transferDirection'
p5072
sg871
(lp5073
sbsg1241
(i__main__
DelphiIdentAccess
p5074
(dp5075
g869
S'kTransferLoad'
p5076
sg871
(lp5077
sbsg1244
S'='
sbsg1245
(idelphi
DelphiIfStatement
p5078
(dp5079
g866
(idelphi
DelphiRelOp
p5080
(dp5081
g1230
(i__main__
DelphiIdentAccess
p5082
(dp5083
g869
S'transferDirection'
p5084
sg871
(lp5085
sbsg1241
(i__main__
DelphiIdentAccess
p5086
(dp5087
g869
S'kTransferSave'
p5088
sg871
(lp5089
sbsg1244
S'='
sbsg1245
Nsg1246
(idelphi
DelphiCompoundStatement
p5090
(dp5091
g859
(lp5092
(idelphi
DelphiTryExceptStatement
p5093
(dp5094
g1378
(lp5095
(i__main__
DelphiAssignStatement
p5096
(dp5097
g899
(i__main__
DelphiIdentAccess
p5098
(dp5099
g869
S'strToFloat'
p5100
sg871
(lp5101
(idelphi
DelphiFunctionEndAccess
p5102
(dp5103
g879
(lp5104
(i__main__
DelphiIdentAccess
p5105
(dp5106
g869
S'editBox'
p5107
sg871
(lp5108
(idelphi
DelphiFieldEndAccess
p5109
(dp5110
g875
S'text'
p5111
sbasbasbasbsg912
(i__main__
DelphiIdentAccess
p5112
(dp5113
g869
S'newValue'
p5114
sg871
(lp5115
sbsbasS'exceptionHandlers'
p5116
(idelphi
DelphiExceptionHandlers
p5117
(dp5118
S'exceptionHandlerList'
p5119
NsS'statementList'
p5120
(lp5121
(i__main__
DelphiAssignStatement
p5122
(dp5123
g899
(i__main__
DelphiIdentAccess
p5124
(dp5125
g869
S'value'
p5126
sg871
(lp5127
sbsg912
(i__main__
DelphiIdentAccess
p5128
(dp5129
g869
S'newValue'
p5130
sg871
(lp5131
sbsbasbsba(idelphi
DelphiIfStatement
p5132
(dp5133
g866
(idelphi
DelphiRelOp
p5134
(dp5135
g1230
(i__main__
DelphiIdentAccess
p5136
(dp5137
g869
S'newValue'
p5138
sg871
(lp5139
sbsg1241
(i__main__
DelphiIdentAccess
p5140
(dp5141
g869
S'value'
p5142
sg871
(lp5143
sbsg1244
g1642
sbsg1245
Nsg1246
(i__main__
DelphiAssignStatement
p5144
(dp5145
g899
(i__main__
DelphiIdentAccess
p5146
(dp5147
g869
S'true'
p5148
sg871
(lp5149
sbsg912
(i__main__
DelphiIdentAccess
p5150
(dp5151
g869
S'optionsChanged'
p5152
sg871
(lp5153
sbsbsba(i__main__
DelphiAssignStatement
p5154
(dp5155
g899
(i__main__
DelphiIdentAccess
p5156
(dp5157
g869
S'newValue'
p5158
sg871
(lp5159
sbsg912
(i__main__
DelphiIdentAccess
p5160
(dp5161
g869
S'value'
p5162
sg871
(lp5163
sbsbasbsbsg1246
(i__main__
DelphiAssignStatement
p5164
(dp5165
g899
(i__main__
DelphiIdentAccess
p5166
(dp5167
g869
S'valueString'
p5168
sg871
(lp5169
(idelphi
DelphiFunctionEndAccess
p5170
(dp5171
g879
(lp5172
(i__main__
DelphiIdentAccess
p5173
(dp5174
g869
S'value'
p5175
sg871
(lp5176
sbasbasbsg912
(i__main__
DelphiIdentAccess
p5177
(dp5178
g869
S'editBox'
p5179
sg871
(lp5180
(idelphi
DelphiFieldEndAccess
p5181
(dp5182
g875
S'text'
p5183
sbasbsbsbasbsg1190
(lp5184
(i__main__
DelphiVarSection
p5185
(dp5186
g1533
I0
sg1534
(lp5187
(idelphi
DelphiVarDecl
p5188
(dp5189
g1538
Nsg1539
(lp5190
S'newValue'
p5191
asg156
(i__main__
DelphiPrimitiveType
p5192
(dp5193
g159
g404
sbsbasbasbsbsS'formactivate'
p5194
(i__main__
DelphiMethodImplementation
p5195
(dp5196
g828
g406
sg137
g408
sg145
(lp5197
(i__main__
DelphiFormalParameter
p5198
(dp5199
g149
Nsg150
(lp5200
S'Sender'
p5201
asg156
(i__main__
DelphiNamedType
p5202
(dp5203
g159
S'TObject'
p5204
sg181
g1
sg182
Nsbsg161
Nsbasg839
(lp5205
sg841
(lp5206
sg843
(lp5207
g845
ag5201
asg846
(dp5208
g5201
g5202
ssg162
S'TGeneric3DOptionsForm'
p5209
sg163
Nsg851
(lp5210
sg166
I0
sg167
g183
sg853
(i__main__
DelphiBlock
p5211
(dp5212
g856
(idelphi
DelphiCompoundStatement
p5213
(dp5214
g859
(lp5215
(i__main__
DelphiAssignStatement
p5216
(dp5217
g899
(i__main__
DelphiIdentAccess
p5218
(dp5219
g869
S'kTransferLoad'
p5220
sg871
(lp5221
sbsg912
(i__main__
DelphiIdentAccess
p5222
(dp5223
g869
S'transferDirection'
p5224
sg871
(lp5225
sbsg453
(lp5226
S' outputType must be set before this is called\r'
p5227
asba(idelphi
DelphiIfStatement
p5228
(dp5229
g866
(idelphi
DelphiRelOp
p5230
(dp5231
g1230
(i__main__
DelphiIdentAccess
p5232
(dp5233
g869
S'outputType'
p5234
sg871
(lp5235
sbsg1241
(i__main__
DelphiIdentAccess
p5236
(dp5237
g869
S'kDXF'
p5238
sg871
(lp5239
sbsg1244
S'='
sbsg1245
Nsg1246
(i__main__
DelphiAssignStatement
p5240
(dp5241
g899
Nsg912
(i__main__
DelphiIdentAccess
p5242
(dp5243
g869
S'self'
p5244
sg871
(lp5245
(idelphi
DelphiFieldEndAccess
p5246
(dp5247
g875
S'fillPlantPartColors'
p5248
sbasbsbsba(i__main__
DelphiAssignStatement
p5249
(dp5250
g899
Nsg912
(i__main__
DelphiIdentAccess
p5251
(dp5252
g869
S'self'
p5253
sg871
(lp5254
(idelphi
DelphiFieldEndAccess
p5255
(dp5256
g875
S'transferFields'
p5257
sbasbsba(i__main__
DelphiAssignStatement
p5258
(dp5259
g899
Nsg912
(i__main__
DelphiIdentAccess
p5260
(dp5261
g869
S'self'
p5262
sg871
(lp5263
(idelphi
DelphiFieldEndAccess
p5264
(dp5265
g875
S'updatePredictedSizeDisplay'
p5266
sbasbsbasbsg1190
(lp5267
sbsg453
(lp5268
S'$R *.DFM'
p5269
asbsS'wholeplantcolormouseup'
p5270
(i__main__
DelphiMethodImplementation
p5271
(dp5272
g828
g418
sg137
g420
sg145
(lp5273
(i__main__
DelphiFormalParameter
p5274
(dp5275
g149
Nsg150
(lp5276
S'Sender'
p5277
asg156
(i__main__
DelphiNamedType
p5278
(dp5279
g159
S'TObject'
p5280
sg181
g1
sg182
Nsbsg161
Nsba(i__main__
DelphiFormalParameter
p5281
(dp5282
g149
Nsg150
(lp5283
S'Button'
p5284
asg156
(i__main__
DelphiNamedType
p5285
(dp5286
g159
S'TMouseButton'
p5287
sg181
g1
sg182
Nsbsg161
Nsba(i__main__
DelphiFormalParameter
p5288
(dp5289
g149
Nsg150
(lp5290
S'Shift'
p5291
asg156
(i__main__
DelphiNamedType
p5292
(dp5293
g159
S'TShiftState'
p5294
sg181
g1
sg182
Nsbsg161
Nsba(i__main__
DelphiFormalParameter
p5295
(dp5296
g149
Nsg150
(lp5297
S'X'
aS'Y'
asg156
(i__main__
DelphiPrimitiveType
p5298
(dp5299
g159
g276
sbsg161
Nsbasg839
(lp5300
sg841
(lp5301
sg843
(lp5302
g845
ag5277
ag5284
ag5291
aS'X'
aS'Y'
asg846
(dp5303
S'Y'
g5298
sg5291
g5292
sg5284
g5285
sg5277
g5278
sS'X'
g5298
ssg162
S'TGeneric3DOptionsForm'
p5304
sg163
Nsg851
(lp5305
sg166
I0
sg167
g183
sg853
(i__main__
DelphiBlock
p5306
(dp5307
g856
(idelphi
DelphiCompoundStatement
p5308
(dp5309
g859
(lp5310
(i__main__
DelphiAssignStatement
p5311
(dp5312
g899
(i__main__
DelphiIdentAccess
p5313
(dp5314
g869
S'TChooseDXFColorForm'
p5315
sg871
(lp5316
(idelphi
DelphiFieldEndAccess
p5317
(dp5318
g875
S'create'
p5319
sba(idelphi
DelphiFunctionEndAccess
p5320
(dp5321
g879
(lp5322
(i__main__
DelphiIdentAccess
p5323
(dp5324
g869
S'self'
p5325
sg871
(lp5326
sbasbasbsg912
(i__main__
DelphiIdentAccess
p5327
(dp5328
g869
S'colorForm'
p5329
sg871
(lp5330
sbsba(idelphi
DelphiIfStatement
p5331
(dp5332
g866
(idelphi
DelphiRelOp
p5333
(dp5334
g1230
(i__main__
DelphiIdentAccess
p5335
(dp5336
g869
S'colorForm'
p5337
sg871
(lp5338
sbsg1241
(idelphi
DelphiNilValue
p5339
(dp5340
bsg1244
S'='
sbsg1245
Nsg1246
(idelphi
DelphiRaiseStatement
p5341
(dp5342
g866
(i__main__
DelphiIdentAccess
p5343
(dp5344
g869
S'Exception'
p5345
sg871
(lp5346
(idelphi
DelphiFieldEndAccess
p5347
(dp5348
g875
S'create'
p5349
sba(idelphi
DelphiFunctionEndAccess
p5350
(dp5351
g879
(lp5352
(idelphi
DelphiStringAccess
p5353
(dp5354
g871
(lp5355
sg884
(idelphi
DelphiStringValue
p5356
(dp5357
g884
S'Problem: Could not create color window.'
p5358
sbsbasbasbsbsba(idelphi
DelphiTryFinallyStatement
p5359
(dp5360
g1378
(lp5361
(i__main__
DelphiAssignStatement
p5362
(dp5363
g899
(i__main__
DelphiIdentAccess
p5364
(dp5365
g869
S'options'
p5366
sg871
(lp5367
(idelphi
DelphiFieldEndAccess
p5368
(dp5369
g875
S'dxf_wholePlantColorIndex'
p5370
sbasbsg912
(i__main__
DelphiIdentAccess
p5371
(dp5372
g869
S'colorForm'
p5373
sg871
(lp5374
(idelphi
DelphiFieldEndAccess
p5375
(dp5376
g875
S'colorIndex'
p5377
sbasbsba(i__main__
DelphiAssignStatement
p5378
(dp5379
g899
(i__main__
DelphiIdentAccess
p5380
(dp5381
g869
S'colorForm'
p5382
sg871
(lp5383
(idelphi
DelphiFieldEndAccess
p5384
(dp5385
g875
S'showModal'
p5386
sbasbsg912
(i__main__
DelphiIdentAccess
p5387
(dp5388
g869
S'response'
p5389
sg871
(lp5390
sbsba(idelphi
DelphiIfStatement
p5391
(dp5392
g866
(idelphi
DelphiRelOp
p5393
(dp5394
g1230
(i__main__
DelphiIdentAccess
p5395
(dp5396
g869
S'response'
p5397
sg871
(lp5398
sbsg1241
(i__main__
DelphiIdentAccess
p5399
(dp5400
g869
S'mrOK'
p5401
sg871
(lp5402
sbsg1244
S'='
sbsg1245
Nsg1246
(idelphi
DelphiCompoundStatement
p5403
(dp5404
g859
(lp5405
(i__main__
DelphiAssignStatement
p5406
(dp5407
g899
(i__main__
DelphiIdentAccess
p5408
(dp5409
g869
S'colorForm'
p5410
sg871
(lp5411
(idelphi
DelphiFieldEndAccess
p5412
(dp5413
g875
S'colorIndex'
p5414
sbasbsg912
(i__main__
DelphiIdentAccess
p5415
(dp5416
g869
S'options'
p5417
sg871
(lp5418
(idelphi
DelphiFieldEndAccess
p5419
(dp5420
g875
S'dxf_wholePlantColorIndex'
p5421
sbasbsba(i__main__
DelphiAssignStatement
p5422
(dp5423
g899
(i__main__
DelphiIdentAccess
p5424
(dp5425
g869
S'dxfColors'
p5426
sg871
(lp5427
(idelphi
DelphiArrayEndAccess
p5428
(dp5429
g879
(lp5430
(i__main__
DelphiIdentAccess
p5431
(dp5432
g869
S'options'
p5433
sg871
(lp5434
(idelphi
DelphiFieldEndAccess
p5435
(dp5436
g875
S'dxf_wholePlantColorIndex'
p5437
sbasbasbasbsg912
(i__main__
DelphiIdentAccess
p5438
(dp5439
g869
S'wholePlantColor'
p5440
sg871
(lp5441
(idelphi
DelphiFieldEndAccess
p5442
(dp5443
g875
S'color'
p5444
sbasbsba(i__main__
DelphiAssignStatement
p5445
(dp5446
g899
Nsg912
(i__main__
DelphiIdentAccess
p5447
(dp5448
g869
S'wholePlantColor'
p5449
sg871
(lp5450
(idelphi
DelphiFieldEndAccess
p5451
(dp5452
g875
S'invalidate'
p5453
sbasbsba(i__main__
DelphiAssignStatement
p5454
(dp5455
g899
(i__main__
DelphiIdentAccess
p5456
(dp5457
g869
S'true'
p5458
sg871
(lp5459
sbsg912
(i__main__
DelphiIdentAccess
p5460
(dp5461
g869
S'optionsChanged'
p5462
sg871
(lp5463
sbsbasbsbasg1511
(lp5464
(i__main__
DelphiAssignStatement
p5465
(dp5466
g899
Nsg912
(i__main__
DelphiIdentAccess
p5467
(dp5468
g869
S'colorForm'
p5469
sg871
(lp5470
(idelphi
DelphiFieldEndAccess
p5471
(dp5472
g875
S'free'
p5473
sbasbsba(i__main__
DelphiAssignStatement
p5474
(dp5475
g899
(idelphi
DelphiNilValue
p5476
(dp5477
bsg912
(i__main__
DelphiIdentAccess
p5478
(dp5479
g869
S'colorForm'
p5480
sg871
(lp5481
sbsbasbasbsg1190
(lp5482
(i__main__
DelphiVarSection
p5483
(dp5484
g1533
I0
sg1534
(lp5485
(idelphi
DelphiVarDecl
p5486
(dp5487
g1538
Nsg1539
(lp5488
S'colorForm'
p5489
asg156
(i__main__
DelphiNamedType
p5490
(dp5491
g159
S'TChooseDXFColorForm'
p5492
sg181
g1
sg182
Nsbsba(idelphi
DelphiVarDecl
p5493
(dp5494
g1538
Nsg1539
(lp5495
S'response'
p5496
asg156
(i__main__
DelphiPrimitiveType
p5497
(dp5498
g159
g276
sbsbasbasbsbsS'rearrangeitemsforoutputtype'
p5499
(i__main__
DelphiMethodImplementation
p5500
(dp5501
g828
g449
sg137
g451
sg145
(lp5502
sg839
(lp5503
sg841
(lp5504
sg843
(lp5505
g845
asg846
(dp5506
sg162
S'TGeneric3DOptionsForm'
p5507
sg163
Nsg851
(lp5508
sg166
I0
sg167
g183
sg853
(i__main__
DelphiBlock
p5509
(dp5510
g856
(idelphi
DelphiCompoundStatement
p5511
(dp5512
g859
(lp5513
(i__main__
DelphiAssignStatement
p5514
(dp5515
g899
(idelphi
DelphiAddOp
p5516
(dp5517
g929
S'+'
sg930
(idelphi
DelphiIntegerValue
p5518
(dp5519
g884
S'4'
sbsg940
(idelphi
DelphiAddOp
p5520
(dp5521
g929
S'+'
sg930
(i__main__
DelphiIdentAccess
p5522
(dp5523
g869
S'otherGroupBox'
p5524
sg871
(lp5525
(idelphi
DelphiFieldEndAccess
p5526
(dp5527
g875
S'height'
p5528
sbasbsg940
(i__main__
DelphiIdentAccess
p5529
(dp5530
g869
S'otherGroupBox'
p5531
sg871
(lp5532
(idelphi
DelphiFieldEndAccess
p5533
(dp5534
g875
S'top'
p5535
sbasbsbsbsg912
(i__main__
DelphiIdentAccess
p5536
(dp5537
g869
S'self'
p5538
sg871
(lp5539
(idelphi
DelphiFieldEndAccess
p5540
(dp5541
g875
S'clientHeight'
p5542
sbasbsba(i__main__
DelphiAssignStatement
p5543
(dp5544
g899
(idelphi
DelphiAddOp
p5545
(dp5546
g929
S'+'
sg930
(idelphi
DelphiIntegerValue
p5547
(dp5548
g884
S'4'
sbsg940
(idelphi
DelphiAddOp
p5549
(dp5550
g929
S'+'
sg930
(i__main__
DelphiIdentAccess
p5551
(dp5552
g869
S'close'
p5553
sg871
(lp5554
(idelphi
DelphiFieldEndAccess
p5555
(dp5556
g875
S'width'
p5557
sbasbsg940
(i__main__
DelphiIdentAccess
p5558
(dp5559
g869
S'close'
p5560
sg871
(lp5561
(idelphi
DelphiFieldEndAccess
p5562
(dp5563
g875
S'left'
p5564
sbasbsbsbsg912
(i__main__
DelphiIdentAccess
p5565
(dp5566
g869
S'self'
p5567
sg871
(lp5568
(idelphi
DelphiFieldEndAccess
p5569
(dp5570
g875
S'clientWidth'
p5571
sbasbsba(idelphi
DelphiCaseStatement
p5572
(dp5573
g863
Nsg866
(i__main__
DelphiIdentAccess
p5574
(dp5575
g869
S'outputType'
p5576
sg871
(lp5577
sbsg892
(lp5578
(idelphi
DelphiCaseSelector
p5579
(dp5580
g896
(idelphi
DelphiCompoundStatement
p5581
(dp5582
g859
(lp5583
(i__main__
DelphiAssignStatement
p5584
(dp5585
g899
(idelphi
DelphiStringAccess
p5586
(dp5587
g871
(lp5588
sg884
(idelphi
DelphiStringValue
p5589
(dp5590
g884
S'Save DXF File'
p5591
sbsbsg912
(i__main__
DelphiIdentAccess
p5592
(dp5593
g869
S'self'
p5594
sg871
(lp5595
(idelphi
DelphiFieldEndAccess
p5596
(dp5597
g875
S'caption'
p5598
sbasbsba(i__main__
DelphiAssignStatement
p5599
(dp5600
g899
(i__main__
DelphiIdentAccess
p5601
(dp5602
g869
S'false'
p5603
sg871
(lp5604
sbsg912
(i__main__
DelphiIdentAccess
p5605
(dp5606
g869
S'writeColors'
p5607
sg871
(lp5608
(idelphi
DelphiFieldEndAccess
p5609
(dp5610
g875
S'visible'
p5611
sbasbsba(i__main__
DelphiAssignStatement
p5612
(dp5613
g899
(i__main__
DelphiIdentAccess
p5614
(dp5615
g869
S'writeColors'
p5616
sg871
(lp5617
(idelphi
DelphiFieldEndAccess
p5618
(dp5619
g875
S'top'
p5620
sbasbsg912
(i__main__
DelphiIdentAccess
p5621
(dp5622
g869
S'makeTrianglesDoubleSided'
p5623
sg871
(lp5624
(idelphi
DelphiFieldEndAccess
p5625
(dp5626
g875
S'top'
p5627
sbasbsba(i__main__
DelphiAssignStatement
p5628
(dp5629
g899
(idelphi
DelphiAddOp
p5630
(dp5631
g929
S'+'
sg930
(idelphi
DelphiIntegerValue
p5632
(dp5633
g884
S'4'
sbsg940
(idelphi
DelphiAddOp
p5634
(dp5635
g929
S'+'
sg930
(i__main__
DelphiIdentAccess
p5636
(dp5637
g869
S'makeTrianglesDoubleSided'
p5638
sg871
(lp5639
(idelphi
DelphiFieldEndAccess
p5640
(dp5641
g875
S'height'
p5642
sbasbsg940
(i__main__
DelphiIdentAccess
p5643
(dp5644
g869
S'makeTrianglesDoubleSided'
p5645
sg871
(lp5646
(idelphi
DelphiFieldEndAccess
p5647
(dp5648
g875
S'top'
p5649
sbasbsbsbsg912
(i__main__
DelphiIdentAccess
p5650
(dp5651
g869
S'translatePlantsToWindowPositions'
p5652
sg871
(lp5653
(idelphi
DelphiFieldEndAccess
p5654
(dp5655
g875
S'top'
p5656
sbasbsba(i__main__
DelphiAssignStatement
p5657
(dp5658
g899
(idelphi
DelphiAddOp
p5659
(dp5660
g929
S'+'
sg930
(idelphi
DelphiIntegerValue
p5661
(dp5662
g884
S'6'
sbsg940
(idelphi
DelphiAddOp
p5663
(dp5664
g929
S'+'
sg930
(i__main__
DelphiIdentAccess
p5665
(dp5666
g869
S'translatePlantsToWindowPositions'
p5667
sg871
(lp5668
(idelphi
DelphiFieldEndAccess
p5669
(dp5670
g875
S'height'
p5671
sbasbsg940
(i__main__
DelphiIdentAccess
p5672
(dp5673
g869
S'translatePlantsToWindowPositions'
p5674
sg871
(lp5675
(idelphi
DelphiFieldEndAccess
p5676
(dp5677
g875
S'top'
p5678
sbasbsbsbsg912
(i__main__
DelphiIdentAccess
p5679
(dp5680
g869
S'otherGroupBox'
p5681
sg871
(lp5682
(idelphi
DelphiFieldEndAccess
p5683
(dp5684
g875
S'height'
p5685
sbasbsba(idelphi
DelphiWithStatement
p5686
(dp5687
g896
(i__main__
DelphiAssignStatement
p5688
(dp5689
g899
Nsg912
(i__main__
DelphiIdentAccess
p5690
(dp5691
g869
S'setBounds'
p5692
sg871
(lp5693
(idelphi
DelphiFunctionEndAccess
p5694
(dp5695
g879
(lp5696
(idelphi
DelphiIntegerValue
p5697
(dp5698
g884
S'4'
sba(idelphi
DelphiAddOp
p5699
(dp5700
g929
S'+'
sg930
(idelphi
DelphiIntegerValue
p5701
(dp5702
g884
S'4'
sbsg940
(idelphi
DelphiAddOp
p5703
(dp5704
g929
S'+'
sg930
(i__main__
DelphiIdentAccess
p5705
(dp5706
g869
S'otherGroupBox'
p5707
sg871
(lp5708
(idelphi
DelphiFieldEndAccess
p5709
(dp5710
g875
S'height'
p5711
sbasbsg940
(i__main__
DelphiIdentAccess
p5712
(dp5713
g869
S'otherGroupBox'
p5714
sg871
(lp5715
(idelphi
DelphiFieldEndAccess
p5716
(dp5717
g875
S'top'
p5718
sbasbsbsba(i__main__
DelphiIdentAccess
p5719
(dp5720
g869
S'width'
p5721
sg871
(lp5722
sba(i__main__
DelphiIdentAccess
p5723
(dp5724
g869
S'height'
p5725
sg871
(lp5726
sbasbasbsbsg3512
(lp5727
(i__main__
DelphiIdentAccess
p5728
(dp5729
g869
S'dxfColorsGroupBox'
p5730
sg871
(lp5731
sbasba(i__main__
DelphiAssignStatement
p5732
(dp5733
g899
(i__main__
DelphiIdentAccess
p5734
(dp5735
g869
S'true'
p5736
sg871
(lp5737
sbsg912
(i__main__
DelphiIdentAccess
p5738
(dp5739
g869
S'dxfColorsGroupBox'
p5740
sg871
(lp5741
(idelphi
DelphiFieldEndAccess
p5742
(dp5743
g875
S'visible'
p5744
sbasbsba(i__main__
DelphiAssignStatement
p5745
(dp5746
g899
(idelphi
DelphiAddOp
p5747
(dp5748
g929
S'+'
sg930
(idelphi
DelphiIntegerValue
p5749
(dp5750
g884
S'4'
sbsg940
(idelphi
DelphiAddOp
p5751
(dp5752
g929
S'+'
sg930
(i__main__
DelphiIdentAccess
p5753
(dp5754
g869
S'dxfColorsGroupBox'
p5755
sg871
(lp5756
(idelphi
DelphiFieldEndAccess
p5757
(dp5758
g875
S'height'
p5759
sbasbsg940
(i__main__
DelphiIdentAccess
p5760
(dp5761
g869
S'dxfColorsGroupBox'
p5762
sg871
(lp5763
(idelphi
DelphiFieldEndAccess
p5764
(dp5765
g875
S'top'
p5766
sbasbsbsbsg912
(i__main__
DelphiIdentAccess
p5767
(dp5768
g869
S'self'
p5769
sg871
(lp5770
(idelphi
DelphiFieldEndAccess
p5771
(dp5772
g875
S'clientHeight'
p5773
sbasbsbasbsg917
(lp5774
(i__main__
DelphiIdentAccess
p5775
(dp5776
g869
S'kDXF'
p5777
sg871
(lp5778
sbasba(idelphi
DelphiCaseSelector
p5779
(dp5780
g896
(idelphi
DelphiCompoundStatement
p5781
(dp5782
g859
(lp5783
(i__main__
DelphiAssignStatement
p5784
(dp5785
g899
(idelphi
DelphiStringAccess
p5786
(dp5787
g871
(lp5788
sg884
(idelphi
DelphiStringValue
p5789
(dp5790
g884
S'Save POV Include (INC) File'
p5791
sbsbsg912
(i__main__
DelphiIdentAccess
p5792
(dp5793
g869
S'self'
p5794
sg871
(lp5795
(idelphi
DelphiFieldEndAccess
p5796
(dp5797
g875
S'caption'
p5798
sbasbsba(i__main__
DelphiAssignStatement
p5799
(dp5800
g899
(i__main__
DelphiIdentAccess
p5801
(dp5802
g869
S'false'
p5803
sg871
(lp5804
sbsg912
(i__main__
DelphiIdentAccess
p5805
(dp5806
g869
S'plantNameAndCylinderSidesPanel'
p5807
sg871
(lp5808
(idelphi
DelphiFieldEndAccess
p5809
(dp5810
g875
S'visible'
p5811
sbasbsba(i__main__
DelphiAssignStatement
p5812
(dp5813
g899
(i__main__
DelphiIdentAccess
p5814
(dp5815
g869
S'false'
p5816
sg871
(lp5817
sbsg912
(i__main__
DelphiIdentAccess
p5818
(dp5819
g869
S'writePlantNumberInFrontOfName'
p5820
sg871
(lp5821
(idelphi
DelphiFieldEndAccess
p5822
(dp5823
g875
S'visible'
p5824
sbasbsba(i__main__
DelphiAssignStatement
p5825
(dp5826
g899
(idelphi
DelphiIntegerValue
p5827
(dp5828
g884
S'16'
p5829
sbsg912
(i__main__
DelphiIdentAccess
p5830
(dp5831
g869
S'pressPlantsPanel'
p5832
sg871
(lp5833
(idelphi
DelphiFieldEndAccess
p5834
(dp5835
g875
S'top'
p5836
sbasbsba(i__main__
DelphiAssignStatement
p5837
(dp5838
g899
(idelphi
DelphiAddOp
p5839
(dp5840
g929
S'+'
sg930
(i__main__
DelphiIdentAccess
p5841
(dp5842
g869
S'pressPlantsPanel'
p5843
sg871
(lp5844
(idelphi
DelphiFieldEndAccess
p5845
(dp5846
g875
S'height'
p5847
sbasbsg940
(i__main__
DelphiIdentAccess
p5848
(dp5849
g869
S'pressPlantsPanel'
p5850
sg871
(lp5851
(idelphi
DelphiFieldEndAccess
p5852
(dp5853
g875
S'top'
p5854
sbasbsbsg912
(i__main__
DelphiIdentAccess
p5855
(dp5856
g869
S'writeColors'
p5857
sg871
(lp5858
(idelphi
DelphiFieldEndAccess
p5859
(dp5860
g875
S'top'
p5861
sbasbsba(i__main__
DelphiAssignStatement
p5862
(dp5863
g899
(idelphi
DelphiAddOp
p5864
(dp5865
g929
S'+'
sg930
(idelphi
DelphiIntegerValue
p5866
(dp5867
g884
S'4'
sbsg940
(idelphi
DelphiAddOp
p5868
(dp5869
g929
S'+'
sg930
(i__main__
DelphiIdentAccess
p5870
(dp5871
g869
S'writeColors'
p5872
sg871
(lp5873
(idelphi
DelphiFieldEndAccess
p5874
(dp5875
g875
S'height'
p5876
sbasbsg940
(i__main__
DelphiIdentAccess
p5877
(dp5878
g869
S'writeColors'
p5879
sg871
(lp5880
(idelphi
DelphiFieldEndAccess
p5881
(dp5882
g875
S'top'
p5883
sbasbsbsbsg912
(i__main__
DelphiIdentAccess
p5884
(dp5885
g869
S'makeTrianglesDoubleSided'
p5886
sg871
(lp5887
(idelphi
DelphiFieldEndAccess
p5888
(dp5889
g875
S'top'
p5890
sbasbsba(i__main__
DelphiAssignStatement
p5891
(dp5892
g899
(idelphi
DelphiAddOp
p5893
(dp5894
g929
S'+'
sg930
(idelphi
DelphiIntegerValue
p5895
(dp5896
g884
S'4'
sbsg940
(idelphi
DelphiAddOp
p5897
(dp5898
g929
S'+'
sg930
(i__main__
DelphiIdentAccess
p5899
(dp5900
g869
S'makeTrianglesDoubleSided'
p5901
sg871
(lp5902
(idelphi
DelphiFieldEndAccess
p5903
(dp5904
g875
S'height'
p5905
sbasbsg940
(i__main__
DelphiIdentAccess
p5906
(dp5907
g869
S'makeTrianglesDoubleSided'
p5908
sg871
(lp5909
(idelphi
DelphiFieldEndAccess
p5910
(dp5911
g875
S'top'
p5912
sbasbsbsbsg912
(i__main__
DelphiIdentAccess
p5913
(dp5914
g869
S'translatePlantsToWindowPositions'
p5915
sg871
(lp5916
(idelphi
DelphiFieldEndAccess
p5917
(dp5918
g875
S'top'
p5919
sbasbsba(i__main__
DelphiAssignStatement
p5920
(dp5921
g899
(idelphi
DelphiAddOp
p5922
(dp5923
g929
S'+'
sg930
(idelphi
DelphiIntegerValue
p5924
(dp5925
g884
S'6'
sbsg940
(idelphi
DelphiAddOp
p5926
(dp5927
g929
S'+'
sg930
(i__main__
DelphiIdentAccess
p5928
(dp5929
g869
S'translatePlantsToWindowPositions'
p5930
sg871
(lp5931
(idelphi
DelphiFieldEndAccess
p5932
(dp5933
g875
S'height'
p5934
sbasbsg940
(i__main__
DelphiIdentAccess
p5935
(dp5936
g869
S'translatePlantsToWindowPositions'
p5937
sg871
(lp5938
(idelphi
DelphiFieldEndAccess
p5939
(dp5940
g875
S'top'
p5941
sbasbsbsbsg912
(i__main__
DelphiIdentAccess
p5942
(dp5943
g869
S'otherGroupBox'
p5944
sg871
(lp5945
(idelphi
DelphiFieldEndAccess
p5946
(dp5947
g875
S'height'
p5948
sbasbsba(idelphi
DelphiWithStatement
p5949
(dp5950
g896
(i__main__
DelphiAssignStatement
p5951
(dp5952
g899
Nsg912
(i__main__
DelphiIdentAccess
p5953
(dp5954
g869
S'setBounds'
p5955
sg871
(lp5956
(idelphi
DelphiFunctionEndAccess
p5957
(dp5958
g879
(lp5959
(idelphi
DelphiIntegerValue
p5960
(dp5961
g884
S'4'
sba(idelphi
DelphiAddOp
p5962
(dp5963
g929
S'+'
sg930
(idelphi
DelphiIntegerValue
p5964
(dp5965
g884
S'4'
sbsg940
(idelphi
DelphiAddOp
p5966
(dp5967
g929
S'+'
sg930
(i__main__
DelphiIdentAccess
p5968
(dp5969
g869
S'drawWhichPlantsGroupBox'
p5970
sg871
(lp5971
(idelphi
DelphiFieldEndAccess
p5972
(dp5973
g875
S'height'
p5974
sbasbsg940
(i__main__
DelphiIdentAccess
p5975
(dp5976
g869
S'drawWhichPlantsGroupBox'
p5977
sg871
(lp5978
(idelphi
DelphiFieldEndAccess
p5979
(dp5980
g875
S'top'
p5981
sbasbsbsba(i__main__
DelphiIdentAccess
p5982
(dp5983
g869
S'width'
p5984
sg871
(lp5985
sba(i__main__
DelphiIdentAccess
p5986
(dp5987
g869
S'height'
p5988
sg871
(lp5989
sbasbasbsbsg3512
(lp5990
(i__main__
DelphiIdentAccess
p5991
(dp5992
g869
S'reorientGroupBox'
p5993
sg871
(lp5994
sbasba(idelphi
DelphiWithStatement
p5995
(dp5996
g896
(i__main__
DelphiAssignStatement
p5997
(dp5998
g899
Nsg912
(i__main__
DelphiIdentAccess
p5999
(dp6000
g869
S'setBounds'
p6001
sg871
(lp6002
(idelphi
DelphiFunctionEndAccess
p6003
(dp6004
g879
(lp6005
(idelphi
DelphiIntegerValue
p6006
(dp6007
g884
S'4'
sba(idelphi
DelphiAddOp
p6008
(dp6009
g929
S'+'
sg930
(idelphi
DelphiIntegerValue
p6010
(dp6011
g884
S'4'
sbsg940
(idelphi
DelphiAddOp
p6012
(dp6013
g929
S'+'
sg930
(i__main__
DelphiIdentAccess
p6014
(dp6015
g869
S'reorientGroupBox'
p6016
sg871
(lp6017
(idelphi
DelphiFieldEndAccess
p6018
(dp6019
g875
S'height'
p6020
sbasbsg940
(i__main__
DelphiIdentAccess
p6021
(dp6022
g869
S'reorientGroupBox'
p6023
sg871
(lp6024
(idelphi
DelphiFieldEndAccess
p6025
(dp6026
g875
S'top'
p6027
sbasbsbsba(i__main__
DelphiIdentAccess
p6028
(dp6029
g869
S'width'
p6030
sg871
(lp6031
sba(i__main__
DelphiIdentAccess
p6032
(dp6033
g869
S'height'
p6034
sg871
(lp6035
sbasbasbsbsg3512
(lp6036
(i__main__
DelphiIdentAccess
p6037
(dp6038
g869
S'otherGroupBox'
p6039
sg871
(lp6040
sbasba(idelphi
DelphiWithStatement
p6041
(dp6042
g896
(i__main__
DelphiAssignStatement
p6043
(dp6044
g899
Nsg912
(i__main__
DelphiIdentAccess
p6045
(dp6046
g869
S'setBounds'
p6047
sg871
(lp6048
(idelphi
DelphiFunctionEndAccess
p6049
(dp6050
g879
(lp6051
(idelphi
DelphiIntegerValue
p6052
(dp6053
g884
S'4'
sba(idelphi
DelphiAddOp
p6054
(dp6055
g929
S'+'
sg930
(idelphi
DelphiIntegerValue
p6056
(dp6057
g884
S'4'
sbsg940
(idelphi
DelphiAddOp
p6058
(dp6059
g929
S'+'
sg930
(i__main__
DelphiIdentAccess
p6060
(dp6061
g869
S'otherGroupBox'
p6062
sg871
(lp6063
(idelphi
DelphiFieldEndAccess
p6064
(dp6065
g875
S'height'
p6066
sbasbsg940
(i__main__
DelphiIdentAccess
p6067
(dp6068
g869
S'otherGroupBox'
p6069
sg871
(lp6070
(idelphi
DelphiFieldEndAccess
p6071
(dp6072
g875
S'top'
p6073
sbasbsbsba(i__main__
DelphiIdentAccess
p6074
(dp6075
g869
S'width'
p6076
sg871
(lp6077
sba(i__main__
DelphiIdentAccess
p6078
(dp6079
g869
S'height'
p6080
sg871
(lp6081
sbasbasbsbsg3512
(lp6082
(i__main__
DelphiIdentAccess
p6083
(dp6084
g869
S'povLimitsGroupBox'
p6085
sg871
(lp6086
sbasba(i__main__
DelphiAssignStatement
p6087
(dp6088
g899
(i__main__
DelphiIdentAccess
p6089
(dp6090
g869
S'true'
p6091
sg871
(lp6092
sbsg912
(i__main__
DelphiIdentAccess
p6093
(dp6094
g869
S'povLimitsGroupBox'
p6095
sg871
(lp6096
(idelphi
DelphiFieldEndAccess
p6097
(dp6098
g875
S'visible'
p6099
sbasbsba(idelphi
DelphiWithStatement
p6100
(dp6101
g896
(i__main__
DelphiAssignStatement
p6102
(dp6103
g899
Nsg912
(i__main__
DelphiIdentAccess
p6104
(dp6105
g869
S'setBounds'
p6106
sg871
(lp6107
(idelphi
DelphiFunctionEndAccess
p6108
(dp6109
g879
(lp6110
(idelphi
DelphiIntegerValue
p6111
(dp6112
g884
S'4'
sba(idelphi
DelphiAddOp
p6113
(dp6114
g929
S'+'
sg930
(idelphi
DelphiIntegerValue
p6115
(dp6116
g884
S'4'
sbsg940
(idelphi
DelphiAddOp
p6117
(dp6118
g929
S'+'
sg930
(i__main__
DelphiIdentAccess
p6119
(dp6120
g869
S'povLimitsGroupBox'
p6121
sg871
(lp6122
(idelphi
DelphiFieldEndAccess
p6123
(dp6124
g875
S'height'
p6125
sbasbsg940
(i__main__
DelphiIdentAccess
p6126
(dp6127
g869
S'povLimitsGroupBox'
p6128
sg871
(lp6129
(idelphi
DelphiFieldEndAccess
p6130
(dp6131
g875
S'top'
p6132
sbasbsbsba(i__main__
DelphiIdentAccess
p6133
(dp6134
g869
S'width'
p6135
sg871
(lp6136
sba(i__main__
DelphiIdentAccess
p6137
(dp6138
g869
S'height'
p6139
sg871
(lp6140
sbasbasbsbsg3512
(lp6141
(i__main__
DelphiIdentAccess
p6142
(dp6143
g869
S'nestingGroupBox'
p6144
sg871
(lp6145
sbasba(i__main__
DelphiAssignStatement
p6146
(dp6147
g899
(i__main__
DelphiIdentAccess
p6148
(dp6149
g869
S'true'
p6150
sg871
(lp6151
sbsg912
(i__main__
DelphiIdentAccess
p6152
(dp6153
g869
S'nestingGroupBox'
p6154
sg871
(lp6155
(idelphi
DelphiFieldEndAccess
p6156
(dp6157
g875
S'visible'
p6158
sbasbsba(i__main__
DelphiAssignStatement
p6159
(dp6160
g899
(idelphi
DelphiAddOp
p6161
(dp6162
g929
S'+'
sg930
(idelphi
DelphiIntegerValue
p6163
(dp6164
g884
S'4'
sbsg940
(idelphi
DelphiAddOp
p6165
(dp6166
g929
S'+'
sg930
(i__main__
DelphiIdentAccess
p6167
(dp6168
g869
S'nestingGroupBox'
p6169
sg871
(lp6170
(idelphi
DelphiFieldEndAccess
p6171
(dp6172
g875
S'height'
p6173
sbasbsg940
(i__main__
DelphiIdentAccess
p6174
(dp6175
g869
S'nestingGroupBox'
p6176
sg871
(lp6177
(idelphi
DelphiFieldEndAccess
p6178
(dp6179
g875
S'top'
p6180
sbasbsbsbsg912
(i__main__
DelphiIdentAccess
p6181
(dp6182
g869
S'self'
p6183
sg871
(lp6184
(idelphi
DelphiFieldEndAccess
p6185
(dp6186
g875
S'clientHeight'
p6187
sbasbsba(i__main__
DelphiAssignStatement
p6188
(dp6189
g899
(i__main__
DelphiIdentAccess
p6190
(dp6191
g869
S'false'
p6192
sg871
(lp6193
sbsg912
(i__main__
DelphiIdentAccess
p6194
(dp6195
g869
S'layeringOption'
p6196
sg871
(lp6197
(idelphi
DelphiFieldEndAccess
p6198
(dp6199
g875
S'visible'
p6200
sbasbsbasbsg917
(lp6201
(i__main__
DelphiIdentAccess
p6202
(dp6203
g869
S'kPOV'
p6204
sg871
(lp6205
sbasba(idelphi
DelphiCaseSelector
p6206
(dp6207
g896
(idelphi
DelphiCompoundStatement
p6208
(dp6209
g859
(lp6210
(i__main__
DelphiAssignStatement
p6211
(dp6212
g899
(idelphi
DelphiStringAccess
p6213
(dp6214
g871
(lp6215
sg884
(idelphi
DelphiStringValue
p6216
(dp6217
g884
S'Save 3DS File'
p6218
sbsbsg912
(i__main__
DelphiIdentAccess
p6219
(dp6220
g869
S'self'
p6221
sg871
(lp6222
(idelphi
DelphiFieldEndAccess
p6223
(dp6224
g875
S'caption'
p6225
sbasbsba(idelphi
DelphiWithStatement
p6226
(dp6227
g896
(i__main__
DelphiAssignStatement
p6228
(dp6229
g899
Nsg912
(i__main__
DelphiIdentAccess
p6230
(dp6231
g869
S'setBounds'
p6232
sg871
(lp6233
(idelphi
DelphiFunctionEndAccess
p6234
(dp6235
g879
(lp6236
(idelphi
DelphiIntegerValue
p6237
(dp6238
g884
S'4'
sba(idelphi
DelphiAddOp
p6239
(dp6240
g929
S'+'
sg930
(idelphi
DelphiIntegerValue
p6241
(dp6242
g884
S'4'
sbsg940
(idelphi
DelphiAddOp
p6243
(dp6244
g929
S'+'
sg930
(i__main__
DelphiIdentAccess
p6245
(dp6246
g869
S'otherGroupBox'
p6247
sg871
(lp6248
(idelphi
DelphiFieldEndAccess
p6249
(dp6250
g875
S'height'
p6251
sbasbsg940
(i__main__
DelphiIdentAccess
p6252
(dp6253
g869
S'otherGroupBox'
p6254
sg871
(lp6255
(idelphi
DelphiFieldEndAccess
p6256
(dp6257
g875
S'top'
p6258
sbasbsbsba(i__main__
DelphiIdentAccess
p6259
(dp6260
g869
S'width'
p6261
sg871
(lp6262
sba(i__main__
DelphiIdentAccess
p6263
(dp6264
g869
S'height'
p6265
sg871
(lp6266
sbasbasbsbsg3512
(lp6267
(i__main__
DelphiIdentAccess
p6268
(dp6269
g869
S'threeDSWarningPanel'
p6270
sg871
(lp6271
sbasba(i__main__
DelphiAssignStatement
p6272
(dp6273
g899
(i__main__
DelphiIdentAccess
p6274
(dp6275
g869
S'true'
p6276
sg871
(lp6277
sbsg912
(i__main__
DelphiIdentAccess
p6278
(dp6279
g869
S'threeDSWarningPanel'
p6280
sg871
(lp6281
(idelphi
DelphiFieldEndAccess
p6282
(dp6283
g875
S'visible'
p6284
sbasbsba(i__main__
DelphiAssignStatement
p6285
(dp6286
g899
(idelphi
DelphiAddOp
p6287
(dp6288
g929
S'+'
sg930
(idelphi
DelphiIntegerValue
p6289
(dp6290
g884
S'4'
sbsg940
(idelphi
DelphiAddOp
p6291
(dp6292
g929
S'+'
sg930
(i__main__
DelphiIdentAccess
p6293
(dp6294
g869
S'threeDSWarningPanel'
p6295
sg871
(lp6296
(idelphi
DelphiFieldEndAccess
p6297
(dp6298
g875
S'height'
p6299
sbasbsg940
(i__main__
DelphiIdentAccess
p6300
(dp6301
g869
S'threeDSWarningPanel'
p6302
sg871
(lp6303
(idelphi
DelphiFieldEndAccess
p6304
(dp6305
g875
S'top'
p6306
sbasbsbsbsg912
(i__main__
DelphiIdentAccess
p6307
(dp6308
g869
S'self'
p6309
sg871
(lp6310
(idelphi
DelphiFieldEndAccess
p6311
(dp6312
g875
S'clientHeight'
p6313
sbasbsbasbsg917
(lp6314
(i__main__
DelphiIdentAccess
p6315
(dp6316
g869
S'k3DS'
p6317
sg871
(lp6318
sbasba(idelphi
DelphiCaseSelector
p6319
(dp6320
g896
(idelphi
DelphiCompoundStatement
p6321
(dp6322
g859
(lp6323
(i__main__
DelphiAssignStatement
p6324
(dp6325
g899
(idelphi
DelphiStringAccess
p6326
(dp6327
g871
(lp6328
sg884
(idelphi
DelphiStringValue
p6329
(dp6330
g884
S'Save WaveFront OBJ File (ASCII)'
p6331
sbsbsg912
(i__main__
DelphiIdentAccess
p6332
(dp6333
g869
S'self'
p6334
sg871
(lp6335
(idelphi
DelphiFieldEndAccess
p6336
(dp6337
g875
S'caption'
p6338
sbasbsbasbsg917
(lp6339
(i__main__
DelphiIdentAccess
p6340
(dp6341
g869
S'kOBJ'
p6342
sg871
(lp6343
sbasba(idelphi
DelphiCaseSelector
p6344
(dp6345
g896
(idelphi
DelphiCompoundStatement
p6346
(dp6347
g859
(lp6348
(i__main__
DelphiAssignStatement
p6349
(dp6350
g899
(idelphi
DelphiStringAccess
p6351
(dp6352
g871
(lp6353
sg884
(idelphi
DelphiStringValue
p6354
(dp6355
g884
S'Save VRML File'
p6356
sbsbsg912
(i__main__
DelphiIdentAccess
p6357
(dp6358
g869
S'self'
p6359
sg871
(lp6360
(idelphi
DelphiFieldEndAccess
p6361
(dp6362
g875
S'caption'
p6363
sbasbsba(i__main__
DelphiAssignStatement
p6364
(dp6365
g899
(i__main__
DelphiIdentAccess
p6366
(dp6367
g869
S'false'
p6368
sg871
(lp6369
sbsg912
(i__main__
DelphiIdentAccess
p6370
(dp6371
g869
S'layeringOption'
p6372
sg871
(lp6373
(idelphi
DelphiFieldEndAccess
p6374
(dp6375
g875
S'visible'
p6376
sbasbsba(idelphi
DelphiWithStatement
p6377
(dp6378
g896
(i__main__
DelphiAssignStatement
p6379
(dp6380
g899
Nsg912
(i__main__
DelphiIdentAccess
p6381
(dp6382
g869
S'setBounds'
p6383
sg871
(lp6384
(idelphi
DelphiFunctionEndAccess
p6385
(dp6386
g879
(lp6387
(idelphi
DelphiIntegerValue
p6388
(dp6389
g884
S'4'
sba(idelphi
DelphiAddOp
p6390
(dp6391
g929
S'+'
sg930
(idelphi
DelphiIntegerValue
p6392
(dp6393
g884
S'4'
sbsg940
(idelphi
DelphiAddOp
p6394
(dp6395
g929
S'+'
sg930
(i__main__
DelphiIdentAccess
p6396
(dp6397
g869
S'drawWhichPlantsGroupBox'
p6398
sg871
(lp6399
(idelphi
DelphiFieldEndAccess
p6400
(dp6401
g875
S'height'
p6402
sbasbsg940
(i__main__
DelphiIdentAccess
p6403
(dp6404
g869
S'drawWhichPlantsGroupBox'
p6405
sg871
(lp6406
(idelphi
DelphiFieldEndAccess
p6407
(dp6408
g875
S'top'
p6409
sbasbsbsba(i__main__
DelphiIdentAccess
p6410
(dp6411
g869
S'width'
p6412
sg871
(lp6413
sba(i__main__
DelphiIdentAccess
p6414
(dp6415
g869
S'height'
p6416
sg871
(lp6417
sbasbasbsbsg3512
(lp6418
(i__main__
DelphiIdentAccess
p6419
(dp6420
g869
S'reorientGroupBox'
p6421
sg871
(lp6422
sbasba(idelphi
DelphiWithStatement
p6423
(dp6424
g896
(i__main__
DelphiAssignStatement
p6425
(dp6426
g899
Nsg912
(i__main__
DelphiIdentAccess
p6427
(dp6428
g869
S'setBounds'
p6429
sg871
(lp6430
(idelphi
DelphiFunctionEndAccess
p6431
(dp6432
g879
(lp6433
(idelphi
DelphiIntegerValue
p6434
(dp6435
g884
S'4'
sba(idelphi
DelphiAddOp
p6436
(dp6437
g929
S'+'
sg930
(idelphi
DelphiIntegerValue
p6438
(dp6439
g884
S'4'
sbsg940
(idelphi
DelphiAddOp
p6440
(dp6441
g929
S'+'
sg930
(i__main__
DelphiIdentAccess
p6442
(dp6443
g869
S'reorientGroupBox'
p6444
sg871
(lp6445
(idelphi
DelphiFieldEndAccess
p6446
(dp6447
g875
S'height'
p6448
sbasbsg940
(i__main__
DelphiIdentAccess
p6449
(dp6450
g869
S'reorientGroupBox'
p6451
sg871
(lp6452
(idelphi
DelphiFieldEndAccess
p6453
(dp6454
g875
S'top'
p6455
sbasbsbsba(i__main__
DelphiIdentAccess
p6456
(dp6457
g869
S'width'
p6458
sg871
(lp6459
sba(i__main__
DelphiIdentAccess
p6460
(dp6461
g869
S'height'
p6462
sg871
(lp6463
sbasbasbsbsg3512
(lp6464
(i__main__
DelphiIdentAccess
p6465
(dp6466
g869
S'otherGroupBox'
p6467
sg871
(lp6468
sbasba(idelphi
DelphiWithStatement
p6469
(dp6470
g896
(i__main__
DelphiAssignStatement
p6471
(dp6472
g899
Nsg912
(i__main__
DelphiIdentAccess
p6473
(dp6474
g869
S'setBounds'
p6475
sg871
(lp6476
(idelphi
DelphiFunctionEndAccess
p6477
(dp6478
g879
(lp6479
(idelphi
DelphiIntegerValue
p6480
(dp6481
g884
S'4'
sba(idelphi
DelphiAddOp
p6482
(dp6483
g929
S'+'
sg930
(idelphi
DelphiIntegerValue
p6484
(dp6485
g884
S'4'
sbsg940
(idelphi
DelphiAddOp
p6486
(dp6487
g929
S'+'
sg930
(i__main__
DelphiIdentAccess
p6488
(dp6489
g869
S'otherGroupBox'
p6490
sg871
(lp6491
(idelphi
DelphiFieldEndAccess
p6492
(dp6493
g875
S'height'
p6494
sbasbsg940
(i__main__
DelphiIdentAccess
p6495
(dp6496
g869
S'otherGroupBox'
p6497
sg871
(lp6498
(idelphi
DelphiFieldEndAccess
p6499
(dp6500
g875
S'top'
p6501
sbasbsbsba(i__main__
DelphiIdentAccess
p6502
(dp6503
g869
S'width'
p6504
sg871
(lp6505
sba(i__main__
DelphiIdentAccess
p6506
(dp6507
g869
S'height'
p6508
sg871
(lp6509
sbasbasbsbsg3512
(lp6510
(i__main__
DelphiIdentAccess
p6511
(dp6512
g869
S'vrmlVersionRadioGroup'
p6513
sg871
(lp6514
sbasba(i__main__
DelphiAssignStatement
p6515
(dp6516
g899
(i__main__
DelphiIdentAccess
p6517
(dp6518
g869
S'true'
p6519
sg871
(lp6520
sbsg912
(i__main__
DelphiIdentAccess
p6521
(dp6522
g869
S'vrmlVersionRadioGroup'
p6523
sg871
(lp6524
(idelphi
DelphiFieldEndAccess
p6525
(dp6526
g875
S'visible'
p6527
sbasbsba(idelphi
DelphiWithStatement
p6528
(dp6529
g896
(i__main__
DelphiAssignStatement
p6530
(dp6531
g899
Nsg912
(i__main__
DelphiIdentAccess
p6532
(dp6533
g869
S'setBounds'
p6534
sg871
(lp6535
(idelphi
DelphiFunctionEndAccess
p6536
(dp6537
g879
(lp6538
(idelphi
DelphiIntegerValue
p6539
(dp6540
g884
S'4'
sba(idelphi
DelphiAddOp
p6541
(dp6542
g929
S'+'
sg930
(idelphi
DelphiIntegerValue
p6543
(dp6544
g884
S'4'
sbsg940
(idelphi
DelphiAddOp
p6545
(dp6546
g929
S'+'
sg930
(i__main__
DelphiIdentAccess
p6547
(dp6548
g869
S'vrmlVersionRadioGroup'
p6549
sg871
(lp6550
(idelphi
DelphiFieldEndAccess
p6551
(dp6552
g875
S'height'
p6553
sbasbsg940
(i__main__
DelphiIdentAccess
p6554
(dp6555
g869
S'vrmlVersionRadioGroup'
p6556
sg871
(lp6557
(idelphi
DelphiFieldEndAccess
p6558
(dp6559
g875
S'top'
p6560
sbasbsbsba(i__main__
DelphiIdentAccess
p6561
(dp6562
g869
S'width'
p6563
sg871
(lp6564
sba(i__main__
DelphiIdentAccess
p6565
(dp6566
g869
S'height'
p6567
sg871
(lp6568
sbasbasbsbsg3512
(lp6569
(i__main__
DelphiIdentAccess
p6570
(dp6571
g869
S'nestingGroupBox'
p6572
sg871
(lp6573
sbasba(i__main__
DelphiAssignStatement
p6574
(dp6575
g899
(i__main__
DelphiIdentAccess
p6576
(dp6577
g869
S'false'
p6578
sg871
(lp6579
sbsg912
(i__main__
DelphiIdentAccess
p6580
(dp6581
g869
S'commentOutUnionAtEnd'
p6582
sg871
(lp6583
(idelphi
DelphiFieldEndAccess
p6584
(dp6585
g875
S'visible'
p6586
sbasbsba(i__main__
DelphiAssignStatement
p6587
(dp6588
g899
(idelphi
DelphiAddOp
p6589
(dp6590
g929
S'+'
sg930
(idelphi
DelphiIntegerValue
p6591
(dp6592
g884
S'6'
sbsg940
(idelphi
DelphiAddOp
p6593
(dp6594
g929
S'+'
sg930
(i__main__
DelphiIdentAccess
p6595
(dp6596
g869
S'nestInflorescence'
p6597
sg871
(lp6598
(idelphi
DelphiFieldEndAccess
p6599
(dp6600
g875
S'height'
p6601
sbasbsg940
(i__main__
DelphiIdentAccess
p6602
(dp6603
g869
S'nestInflorescence'
p6604
sg871
(lp6605
(idelphi
DelphiFieldEndAccess
p6606
(dp6607
g875
S'top'
p6608
sbasbsbsbsg912
(i__main__
DelphiIdentAccess
p6609
(dp6610
g869
S'nestingGroupBox'
p6611
sg871
(lp6612
(idelphi
DelphiFieldEndAccess
p6613
(dp6614
g875
S'height'
p6615
sbasbsba(i__main__
DelphiAssignStatement
p6616
(dp6617
g899
(i__main__
DelphiIdentAccess
p6618
(dp6619
g869
S'true'
p6620
sg871
(lp6621
sbsg912
(i__main__
DelphiIdentAccess
p6622
(dp6623
g869
S'nestingGroupBox'
p6624
sg871
(lp6625
(idelphi
DelphiFieldEndAccess
p6626
(dp6627
g875
S'visible'
p6628
sbasbsba(i__main__
DelphiAssignStatement
p6629
(dp6630
g899
(idelphi
DelphiAddOp
p6631
(dp6632
g929
S'+'
sg930
(idelphi
DelphiIntegerValue
p6633
(dp6634
g884
S'4'
sbsg940
(idelphi
DelphiAddOp
p6635
(dp6636
g929
S'+'
sg930
(i__main__
DelphiIdentAccess
p6637
(dp6638
g869
S'nestingGroupBox'
p6639
sg871
(lp6640
(idelphi
DelphiFieldEndAccess
p6641
(dp6642
g875
S'height'
p6643
sbasbsg940
(i__main__
DelphiIdentAccess
p6644
(dp6645
g869
S'nestingGroupBox'
p6646
sg871
(lp6647
(idelphi
DelphiFieldEndAccess
p6648
(dp6649
g875
S'top'
p6650
sbasbsbsbsg912
(i__main__
DelphiIdentAccess
p6651
(dp6652
g869
S'self'
p6653
sg871
(lp6654
(idelphi
DelphiFieldEndAccess
p6655
(dp6656
g875
S'clientHeight'
p6657
sbasbsbasbsg917
(lp6658
(i__main__
DelphiIdentAccess
p6659
(dp6660
g869
S'kVRML'
p6661
sg871
(lp6662
sbasba(idelphi
DelphiCaseSelector
p6663
(dp6664
g896
(i__main__
DelphiAssignStatement
p6665
(dp6666
g899
(idelphi
DelphiStringAccess
p6667
(dp6668
g871
(lp6669
sg884
(idelphi
DelphiStringValue
p6670
(dp6671
g884
S'Save Lightwave LWO File'
p6672
sbsbsg912
(i__main__
DelphiIdentAccess
p6673
(dp6674
g869
S'self'
p6675
sg871
(lp6676
(idelphi
DelphiFieldEndAccess
p6677
(dp6678
g875
S'caption'
p6679
sbasbsbsg917
(lp6680
(i__main__
DelphiIdentAccess
p6681
(dp6682
g869
S'kLWO'
p6683
sg871
(lp6684
sbasbasbasbsg1190
(lp6685
sbsg453
g454
sbsS'useallplantsclick'
p6686
(i__main__
DelphiMethodImplementation
p6687
(dp6688
g828
g375
sg137
g377
sg145
(lp6689
(i__main__
DelphiFormalParameter
p6690
(dp6691
g149
Nsg150
(lp6692
S'Sender'
p6693
asg156
(i__main__
DelphiNamedType
p6694
(dp6695
g159
S'TObject'
p6696
sg181
g1
sg182
Nsbsg161
Nsbasg839
(lp6697
sg841
(lp6698
sg843
(lp6699
g845
ag6693
asg846
(dp6700
g6693
g6694
ssg162
S'TGeneric3DOptionsForm'
p6701
sg163
Nsg851
(lp6702
sg166
I0
sg167
g183
sg853
(i__main__
DelphiBlock
p6703
(dp6704
g856
(idelphi
DelphiCompoundStatement
p6705
(dp6706
g859
(lp6707
(i__main__
DelphiAssignStatement
p6708
(dp6709
g899
Nsg912
(i__main__
DelphiIdentAccess
p6710
(dp6711
g869
S'self'
p6712
sg871
(lp6713
(idelphi
DelphiFieldEndAccess
p6714
(dp6715
g875
S'updatePredictedSizeDisplay'
p6716
sbasbsbasbsg1190
(lp6717
sbsbsS'formkeypress'
p6718
(i__main__
DelphiMethodImplementation
p6719
(dp6720
g828
g476
sg137
g478
sg145
(lp6721
(i__main__
DelphiFormalParameter
p6722
(dp6723
g149
Nsg150
(lp6724
S'Sender'
p6725
asg156
(i__main__
DelphiNamedType
p6726
(dp6727
g159
S'TObject'
p6728
sg181
g1
sg182
Nsbsg161
Nsba(i__main__
DelphiFormalParameter
p6729
(dp6730
g149
Nsg150
(lp6731
S'Key'
p6732
asg156
(i__main__
DelphiPrimitiveType
p6733
(dp6734
g159
g493
sbsg161
g203
sbasg839
(lp6735
I1
asg841
(lp6736
sg843
(lp6737
g845
ag6725
ag6732
asg846
(dp6738
g6725
g6726
sg6732
g6733
ssg162
S'TGeneric3DOptionsForm'
p6739
sg163
Nsg851
(lp6740
g6732
asg166
I0
sg167
g183
sg853
(i__main__
DelphiBlock
p6741
(dp6742
g856
(idelphi
DelphiCompoundStatement
p6743
(dp6744
g859
(lp6745
(i__main__
DelphiAssignStatement
p6746
(dp6747
g899
Nsg912
(i__main__
DelphiIdentAccess
p6748
(dp6749
g869
S'makeEnterWorkAsTab'
p6750
sg871
(lp6751
(idelphi
DelphiFunctionEndAccess
p6752
(dp6753
g879
(lp6754
(i__main__
DelphiIdentAccess
p6755
(dp6756
g869
S'self'
p6757
sg871
(lp6758
sba(i__main__
DelphiIdentAccess
p6759
(dp6760
g869
S'activeControl'
p6761
sg871
(lp6762
sba(i__main__
DelphiIdentAccess
p6763
(dp6764
g869
S'key'
p6765
sg871
(lp6766
sbasbasbsbasbsg1190
(lp6767
sbsbsS'stemcylinderfaceschange'
p6768
(i__main__
DelphiMethodImplementation
p6769
(dp6770
g828
g495
sg137
g497
sg145
(lp6771
(i__main__
DelphiFormalParameter
p6772
(dp6773
g149
Nsg150
(lp6774
S'Sender'
p6775
asg156
(i__main__
DelphiNamedType
p6776
(dp6777
g159
S'TObject'
p6778
sg181
g1
sg182
Nsbsg161
Nsbasg839
(lp6779
sg841
(lp6780
sg843
(lp6781
g845
ag6775
asg846
(dp6782
g6775
g6776
ssg162
S'TGeneric3DOptionsForm'
p6783
sg163
Nsg851
(lp6784
sg166
I0
sg167
g183
sg853
(i__main__
DelphiBlock
p6785
(dp6786
g856
(idelphi
DelphiCompoundStatement
p6787
(dp6788
g859
(lp6789
(i__main__
DelphiAssignStatement
p6790
(dp6791
g899
(i__main__
DelphiIdentAccess
p6792
(dp6793
g869
S'strToIntDef'
p6794
sg871
(lp6795
(idelphi
DelphiFunctionEndAccess
p6796
(dp6797
g879
(lp6798
(i__main__
DelphiIdentAccess
p6799
(dp6800
g869
S'stemCylinderFaces'
p6801
sg871
(lp6802
(idelphi
DelphiFieldEndAccess
p6803
(dp6804
g875
S'text'
p6805
sbasba(idelphi
DelphiIntegerValue
p6806
(dp6807
g884
S'5'
sbasbasbsg912
(i__main__
DelphiIdentAccess
p6808
(dp6809
g869
S'value'
p6810
sg871
(lp6811
sbsba(idelphi
DelphiIfStatement
p6812
(dp6813
g866
(idelphi
DelphiRelOp
p6814
(dp6815
g1230
(i__main__
DelphiIdentAccess
p6816
(dp6817
g869
S'value'
p6818
sg871
(lp6819
sbsg1241
(i__main__
DelphiIdentAccess
p6820
(dp6821
g869
S'kMinOutputCylinderFaces'
p6822
sg871
(lp6823
sbsg1244
S'<'
sbsg1245
Nsg1246
(i__main__
DelphiAssignStatement
p6824
(dp6825
g899
(i__main__
DelphiIdentAccess
p6826
(dp6827
g869
S'kMinOutputCylinderFaces'
p6828
sg871
(lp6829
sbsg912
(i__main__
DelphiIdentAccess
p6830
(dp6831
g869
S'value'
p6832
sg871
(lp6833
sbsbsba(idelphi
DelphiIfStatement
p6834
(dp6835
g866
(idelphi
DelphiRelOp
p6836
(dp6837
g1230
(i__main__
DelphiIdentAccess
p6838
(dp6839
g869
S'value'
p6840
sg871
(lp6841
sbsg1241
(i__main__
DelphiIdentAccess
p6842
(dp6843
g869
S'kMaxOutputCylinderFaces'
p6844
sg871
(lp6845
sbsg1244
S'>'
sbsg1245
Nsg1246
(i__main__
DelphiAssignStatement
p6846
(dp6847
g899
(i__main__
DelphiIdentAccess
p6848
(dp6849
g869
S'kMaxOutputCylinderFaces'
p6850
sg871
(lp6851
sbsg912
(i__main__
DelphiIdentAccess
p6852
(dp6853
g869
S'value'
p6854
sg871
(lp6855
sbsbsba(i__main__
DelphiAssignStatement
p6856
(dp6857
g899
(i__main__
DelphiIdentAccess
p6858
(dp6859
g869
S'intToStr'
p6860
sg871
(lp6861
(idelphi
DelphiFunctionEndAccess
p6862
(dp6863
g879
(lp6864
(i__main__
DelphiIdentAccess
p6865
(dp6866
g869
S'value'
p6867
sg871
(lp6868
sbasbasbsg912
(i__main__
DelphiIdentAccess
p6869
(dp6870
g869
S'stemCylinderFaces'
p6871
sg871
(lp6872
(idelphi
DelphiFieldEndAccess
p6873
(dp6874
g875
S'text'
p6875
sbasbsba(i__main__
DelphiAssignStatement
p6876
(dp6877
g899
Nsg912
(i__main__
DelphiIdentAccess
p6878
(dp6879
g869
S'self'
p6880
sg871
(lp6881
(idelphi
DelphiFieldEndAccess
p6882
(dp6883
g875
S'updatePredictedSizeDisplay'
p6884
sbasbsbasbsg1190
(lp6885
(i__main__
DelphiVarSection
p6886
(dp6887
g1533
I0
sg1534
(lp6888
(idelphi
DelphiVarDecl
p6889
(dp6890
g1538
Nsg1539
(lp6891
S'value'
p6892
asg156
(i__main__
DelphiPrimitiveType
p6893
(dp6894
g159
g276
sbsbasbasbsbsS'transfersmallintspineditbox'
p6895
(i__main__
DelphiMethodImplementation
p6896
(dp6897
g828
g507
sg137
g509
sg145
(lp6898
(i__main__
DelphiFormalParameter
p6899
(dp6900
g149
Nsg150
(lp6901
S'editBox'
p6902
asg156
(i__main__
DelphiNamedType
p6903
(dp6904
g159
S'TSpinEdit'
p6905
sg181
g1
sg182
Nsbsg161
Nsba(i__main__
DelphiFormalParameter
p6906
(dp6907
g149
Nsg150
(lp6908
S'value'
p6909
asg156
(i__main__
DelphiPrimitiveType
p6910
(dp6911
g159
g202
sbsg161
g203
sbasg839
(lp6912
I1
asg841
(lp6913
sg843
(lp6914
g845
ag6902
ag6909
asg846
(dp6915
g6902
g6903
sg6909
g6910
ssg162
S'TGeneric3DOptionsForm'
p6916
sg163
Nsg851
(lp6917
g6909
asg166
I0
sg167
g183
sg853
(i__main__
DelphiBlock
p6918
(dp6919
g856
(idelphi
DelphiCompoundStatement
p6920
(dp6921
g859
(lp6922
(idelphi
DelphiIfStatement
p6923
(dp6924
g866
(idelphi
DelphiRelOp
p6925
(dp6926
g1230
(i__main__
DelphiIdentAccess
p6927
(dp6928
g869
S'transferDirection'
p6929
sg871
(lp6930
sbsg1241
(i__main__
DelphiIdentAccess
p6931
(dp6932
g869
S'kTransferLoad'
p6933
sg871
(lp6934
sbsg1244
S'='
sbsg1245
(idelphi
DelphiIfStatement
p6935
(dp6936
g866
(idelphi
DelphiRelOp
p6937
(dp6938
g1230
(i__main__
DelphiIdentAccess
p6939
(dp6940
g869
S'transferDirection'
p6941
sg871
(lp6942
sbsg1241
(i__main__
DelphiIdentAccess
p6943
(dp6944
g869
S'kTransferSave'
p6945
sg871
(lp6946
sbsg1244
S'='
sbsg1245
Nsg1246
(idelphi
DelphiCompoundStatement
p6947
(dp6948
g859
(lp6949
(idelphi
DelphiIfStatement
p6950
(dp6951
g866
(idelphi
DelphiRelOp
p6952
(dp6953
g1230
(i__main__
DelphiIdentAccess
p6954
(dp6955
g869
S'value'
p6956
sg871
(lp6957
sbsg1241
(i__main__
DelphiIdentAccess
p6958
(dp6959
g869
S'strToIntDef'
p6960
sg871
(lp6961
(idelphi
DelphiFunctionEndAccess
p6962
(dp6963
g879
(lp6964
(i__main__
DelphiIdentAccess
p6965
(dp6966
g869
S'editBox'
p6967
sg871
(lp6968
(idelphi
DelphiFieldEndAccess
p6969
(dp6970
g875
S'text'
p6971
sbasba(idelphi
DelphiIntegerValue
p6972
(dp6973
g884
S'0'
sbasbasbsg1244
g1642
sbsg1245
Nsg1246
(i__main__
DelphiAssignStatement
p6974
(dp6975
g899
(i__main__
DelphiIdentAccess
p6976
(dp6977
g869
S'true'
p6978
sg871
(lp6979
sbsg912
(i__main__
DelphiIdentAccess
p6980
(dp6981
g869
S'optionsChanged'
p6982
sg871
(lp6983
sbsbsba(i__main__
DelphiAssignStatement
p6984
(dp6985
g899
(i__main__
DelphiIdentAccess
p6986
(dp6987
g869
S'strToIntDef'
p6988
sg871
(lp6989
(idelphi
DelphiFunctionEndAccess
p6990
(dp6991
g879
(lp6992
(i__main__
DelphiIdentAccess
p6993
(dp6994
g869
S'editBox'
p6995
sg871
(lp6996
(idelphi
DelphiFieldEndAccess
p6997
(dp6998
g875
S'text'
p6999
sbasba(idelphi
DelphiIntegerValue
p7000
(dp7001
g884
S'0'
sbasbasbsg912
(i__main__
DelphiIdentAccess
p7002
(dp7003
g869
S'value'
p7004
sg871
(lp7005
sbsbasbsbsg1246
(i__main__
DelphiAssignStatement
p7006
(dp7007
g899
(i__main__
DelphiIdentAccess
p7008
(dp7009
g869
S'intToStr'
p7010
sg871
(lp7011
(idelphi
DelphiFunctionEndAccess
p7012
(dp7013
g879
(lp7014
(i__main__
DelphiIdentAccess
p7015
(dp7016
g869
S'value'
p7017
sg871
(lp7018
sbasbasbsg912
(i__main__
DelphiIdentAccess
p7019
(dp7020
g869
S'editBox'
p7021
sg871
(lp7022
(idelphi
DelphiFieldEndAccess
p7023
(dp7024
g875
S'text'
p7025
sbasbsbsbasbsg1190
(lp7026
sbsbsS'useselectedplantsclick'
p7027
(i__main__
DelphiMethodImplementation
p7028
(dp7029
g828
g525
sg137
g527
sg145
(lp7030
(i__main__
DelphiFormalParameter
p7031
(dp7032
g149
Nsg150
(lp7033
S'Sender'
p7034
asg156
(i__main__
DelphiNamedType
p7035
(dp7036
g159
S'TObject'
p7037
sg181
g1
sg182
Nsbsg161
Nsbasg839
(lp7038
sg841
(lp7039
sg843
(lp7040
g845
ag7034
asg846
(dp7041
g7034
g7035
ssg162
S'TGeneric3DOptionsForm'
p7042
sg163
Nsg851
(lp7043
sg166
I0
sg167
g183
sg853
(i__main__
DelphiBlock
p7044
(dp7045
g856
(idelphi
DelphiCompoundStatement
p7046
(dp7047
g859
(lp7048
(i__main__
DelphiAssignStatement
p7049
(dp7050
g899
Nsg912
(i__main__
DelphiIdentAccess
p7051
(dp7052
g869
S'self'
p7053
sg871
(lp7054
(idelphi
DelphiFieldEndAccess
p7055
(dp7056
g875
S'updatePredictedSizeDisplay'
p7057
sbasbsbasbsg1190
(lp7058
sbsbsS'closeclick'
p7059
(i__main__
DelphiMethodImplementation
p7060
(dp7061
g828
g537
sg137
g539
sg145
(lp7062
(i__main__
DelphiFormalParameter
p7063
(dp7064
g149
Nsg150
(lp7065
S'Sender'
p7066
asg156
(i__main__
DelphiNamedType
p7067
(dp7068
g159
S'TObject'
p7069
sg181
g1
sg182
Nsbsg161
Nsbasg839
(lp7070
sg841
(lp7071
sg843
(lp7072
g845
ag7066
asg846
(dp7073
g7066
g7067
ssg162
S'TGeneric3DOptionsForm'
p7074
sg163
Nsg851
(lp7075
sg166
I0
sg167
g183
sg853
(i__main__
DelphiBlock
p7076
(dp7077
g856
(idelphi
DelphiCompoundStatement
p7078
(dp7079
g859
(lp7080
(idelphi
DelphiIfStatement
p7081
(dp7082
g866
(idelphi
DelphiMulOp
p7083
(dp7084
g902
(idelphi
DelphiNestedExpressionListAccess
p7085
(dp7086
g871
(lp7087
sg879
(lp7088
(idelphi
DelphiRelOp
p7089
(dp7090
g1230
(i__main__
DelphiIdentAccess
p7091
(dp7092
g869
S'MainForm'
p7093
sg871
(lp7094
(idelphi
DelphiFieldEndAccess
p7095
(dp7096
g875
S'selectedPlants'
p7097
sba(idelphi
DelphiFieldEndAccess
p7098
(dp7099
g875
S'count'
p7100
sbasbsg1241
(idelphi
DelphiIntegerValue
p7101
(dp7102
g884
S'0'
sbsg1244
g3177
sbasbsg906
g1643
sg907
(idelphi
DelphiNestedExpressionListAccess
p7103
(dp7104
g871
(lp7105
sg879
(lp7106
(i__main__
DelphiIdentAccess
p7107
(dp7108
g869
S'useSelectedPlants'
p7109
sg871
(lp7110
(idelphi
DelphiFieldEndAccess
p7111
(dp7112
g875
S'checked'
p7113
sbasbasbsbsg1245
Nsg1246
(idelphi
DelphiCompoundStatement
p7114
(dp7115
g859
(lp7116
(i__main__
DelphiAssignStatement
p7117
(dp7118
g899
Nsg912
(i__main__
DelphiIdentAccess
p7119
(dp7120
g869
S'MessageDlg'
p7121
sg871
(lp7122
(idelphi
DelphiFunctionEndAccess
p7123
(dp7124
g879
(lp7125
(idelphi
DelphiAddOp
p7126
(dp7127
g929
S'+'
sg930
(idelphi
DelphiStringAccess
p7128
(dp7129
g871
(lp7130
sg884
(idelphi
DelphiStringValue
p7131
(dp7132
g884
S'You should make another choice, or click Cancel and select some plants.'
p7133
sbsbsg940
(idelphi
DelphiAddOp
p7134
(dp7135
g929
S'+'
sg930
(i__main__
DelphiIdentAccess
p7136
(dp7137
g869
S'chr'
p7138
sg871
(lp7139
(idelphi
DelphiFunctionEndAccess
p7140
(dp7141
g879
(lp7142
(idelphi
DelphiIntegerValue
p7143
(dp7144
g884
S'13'
p7145
sbasbasbsg940
(idelphi
DelphiStringAccess
p7146
(dp7147
g871
(lp7148
sg884
(idelphi
DelphiStringValue
p7149
(dp7150
g884
S'You chose "selected" for "Draw which plants", but no plants are selected.'
p7151
sbsbsbsba(i__main__
DelphiIdentAccess
p7152
(dp7153
g869
S'mtError'
p7154
sg871
(lp7155
sba(idelphi
DelphiSetConstructor
p7156
(dp7157
S'setElementList'
p7158
(lp7159
(i__main__
DelphiIdentAccess
p7160
(dp7161
g869
S'mbOK'
p7162
sg871
(lp7163
sbasba(idelphi
DelphiIntegerValue
p7164
(dp7165
g884
S'0'
sbasbasbsg453
(lp7166
S' do not let them complete action if no plants are selected\r'
p7167
asba(i__main__
DelphiExitStatement
p7168
(dp7169
g1327
g7060
sbasbsba(idelphi
DelphiIfStatement
p7170
(dp7171
g866
(idelphi
DelphiRelOp
p7172
(dp7173
g1230
(i__main__
DelphiIdentAccess
p7174
(dp7175
g869
S'outputType'
p7176
sg871
(lp7177
sbsg1241
(i__main__
DelphiIdentAccess
p7178
(dp7179
g869
S'kLWO'
p7180
sg871
(lp7181
sbsg1244
S'='
sbsg1245
Nsg1246
(idelphi
DelphiIfStatement
p7182
(dp7183
g866
(idelphi
DelphiAddOp
p7184
(dp7185
g929
g1741
sg930
(idelphi
DelphiNestedExpressionListAccess
p7186
(dp7187
g871
(lp7188
sg879
(lp7189
(idelphi
DelphiRelOp
p7190
(dp7191
g1230
(i__main__
DelphiIdentAccess
p7192
(dp7193
g869
S'totalTriangles'
p7194
sg871
(lp7195
sbsg1241
(i__main__
DelphiIdentAccess
p7196
(dp7197
g869
S'kMax3DFaces'
p7198
sg871
(lp7199
sbsg1244
S'>'
sbasbsg940
(idelphi
DelphiNestedExpressionListAccess
p7200
(dp7201
g871
(lp7202
sg879
(lp7203
(idelphi
DelphiRelOp
p7204
(dp7205
g1230
(i__main__
DelphiIdentAccess
p7206
(dp7207
g869
S'totalPoints'
p7208
sg871
(lp7209
sbsg1241
(i__main__
DelphiIdentAccess
p7210
(dp7211
g869
S'kMax3DPoints'
p7212
sg871
(lp7213
sbsg1244
S'>'
sbasbsbsg1245
Nsg1246
(idelphi
DelphiCompoundStatement
p7214
(dp7215
g859
(lp7216
(i__main__
DelphiAssignStatement
p7217
(dp7218
g899
Nsg912
(i__main__
DelphiIdentAccess
p7219
(dp7220
g869
S'MessageDlg'
p7221
sg871
(lp7222
(idelphi
DelphiFunctionEndAccess
p7223
(dp7224
g879
(lp7225
(idelphi
DelphiAddOp
p7226
(dp7227
g929
S'+'
sg930
(idelphi
DelphiStringAccess
p7228
(dp7229
g871
(lp7230
sg884
(idelphi
DelphiStringValue
p7231
(dp7232
g884
S'or export to another format.'
p7233
sbsbsg940
(idelphi
DelphiAddOp
p7234
(dp7235
g929
S'+'
sg930
(i__main__
DelphiIdentAccess
p7236
(dp7237
g869
S'chr'
p7238
sg871
(lp7239
(idelphi
DelphiFunctionEndAccess
p7240
(dp7241
g879
(lp7242
(idelphi
DelphiIntegerValue
p7243
(dp7244
g884
S'13'
p7245
sbasbasbsg940
(idelphi
DelphiAddOp
p7246
(dp7247
g929
S'+'
sg930
(idelphi
DelphiStringAccess
p7248
(dp7249
g871
(lp7250
sg884
(idelphi
DelphiStringValue
p7251
(dp7252
g884
S'You should make another choice of plants, or click Cancel and select fewer plants,'
p7253
sbsbsg940
(idelphi
DelphiAddOp
p7254
(dp7255
g929
S'+'
sg930
(i__main__
DelphiIdentAccess
p7256
(dp7257
g869
S'chr'
p7258
sg871
(lp7259
(idelphi
DelphiFunctionEndAccess
p7260
(dp7261
g879
(lp7262
(idelphi
DelphiIntegerValue
p7263
(dp7264
g884
S'13'
p7265
sbasbasbsg940
(idelphi
DelphiAddOp
p7266
(dp7267
g929
S'+'
sg930
(i__main__
DelphiIdentAccess
p7268
(dp7269
g869
S'chr'
p7270
sg871
(lp7271
(idelphi
DelphiFunctionEndAccess
p7272
(dp7273
g879
(lp7274
(idelphi
DelphiIntegerValue
p7275
(dp7276
g884
S'13'
p7277
sbasbasbsg940
(idelphi
DelphiAddOp
p7278
(dp7279
g929
S'+'
sg930
(idelphi
DelphiStringAccess
p7280
(dp7281
g871
(lp7282
sg884
(idelphi
DelphiStringValue
p7283
(dp7284
g884
S'A maximum of 65,536 points or triangles can be exported to one LWO file.'
p7285
sbsbsg940
(idelphi
DelphiAddOp
p7286
(dp7287
g929
S'+'
sg930
(i__main__
DelphiIdentAccess
p7288
(dp7289
g869
S'chr'
p7290
sg871
(lp7291
(idelphi
DelphiFunctionEndAccess
p7292
(dp7293
g879
(lp7294
(idelphi
DelphiIntegerValue
p7295
(dp7296
g884
S'13'
p7297
sbasbasbsg940
(idelphi
DelphiStringAccess
p7298
(dp7299
g871
(lp7300
sg884
(idelphi
DelphiStringValue
p7301
(dp7302
g884
S'You have selected too many points or triangles for this file format.'
p7303
sbsbsbsbsbsbsbsbsba(i__main__
DelphiIdentAccess
p7304
(dp7305
g869
S'mtWarning'
p7306
sg871
(lp7307
sba(idelphi
DelphiSetConstructor
p7308
(dp7309
g7158
(lp7310
(i__main__
DelphiIdentAccess
p7311
(dp7312
g869
S'mbOK'
p7313
sg871
(lp7314
sbasba(idelphi
DelphiIntegerValue
p7315
(dp7316
g884
S'0'
sbasbasbsg453
(lp7317
S' do not let them complete action if too many points are selected - only for LWO which holds ALL\r'
p7318
aS' points and faces until the end of the file\r'
p7319
asba(i__main__
DelphiExitStatement
p7320
(dp7321
g1327
g7060
sbasbsbsba(idelphi
DelphiCaseStatement
p7322
(dp7323
g863
Nsg866
(i__main__
DelphiIdentAccess
p7324
(dp7325
g869
S'outputType'
p7326
sg871
(lp7327
sbsg892
(lp7328
(idelphi
DelphiCaseSelector
p7329
(dp7330
g896
(idelphi
DelphiIfStatement
p7331
(dp7332
g866
(idelphi
DelphiNestedExpressionListAccess
p7333
(dp7334
g871
(lp7335
sg879
(lp7336
(idelphi
DelphiRelOp
p7337
(dp7338
g1230
(idelphi
DelphiMulOp
p7339
(dp7340
g902
(idelphi
DelphiNestedExpressionListAccess
p7341
(dp7342
g871
(lp7343
sg879
(lp7344
(idelphi
DelphiAddOp
p7345
(dp7346
g929
S'+'
sg930
(idelphi
DelphiIntegerValue
p7347
(dp7348
g884
S'1'
sbsg940
(i__main__
DelphiIdentAccess
p7349
(dp7350
g869
S'kExportPartLast'
p7351
sg871
(lp7352
sbsbasbsg906
S'*'
sg907
(i__main__
DelphiIdentAccess
p7353
(dp7354
g869
S'totalPlants'
p7355
sg871
(lp7356
sbsbsg1241
(i__main__
DelphiIdentAccess
p7357
(dp7358
g869
S'kMaxStoredMaterials'
p7359
sg871
(lp7360
sbsg1244
S'>'
sbasbsg1245
Nsg1246
(idelphi
DelphiCompoundStatement
p7361
(dp7362
g859
(lp7363
(idelphi
DelphiIfStatement
p7364
(dp7365
g866
(idelphi
DelphiRelOp
p7366
(dp7367
g1230
(i__main__
DelphiIdentAccess
p7368
(dp7369
g869
S'MessageDlg'
p7370
sg871
(lp7371
(idelphi
DelphiFunctionEndAccess
p7372
(dp7373
g879
(lp7374
(idelphi
DelphiAddOp
p7375
(dp7376
g929
S'+'
sg930
(idelphi
DelphiStringAccess
p7377
(dp7378
g871
(lp7379
sg884
(idelphi
DelphiStringValue
p7380
(dp7381
g884
S'To proceed anyway, click OK.'
p7382
sbsbsg940
(idelphi
DelphiAddOp
p7383
(dp7384
g929
S'+'
sg930
(i__main__
DelphiIdentAccess
p7385
(dp7386
g869
S'chr'
p7387
sg871
(lp7388
(idelphi
DelphiFunctionEndAccess
p7389
(dp7390
g879
(lp7391
(idelphi
DelphiIntegerValue
p7392
(dp7393
g884
S'13'
p7394
sbasbasbsg940
(idelphi
DelphiAddOp
p7395
(dp7396
g929
S'+'
sg930
(i__main__
DelphiIdentAccess
p7397
(dp7398
g869
S'chr'
p7399
sg871
(lp7400
(idelphi
DelphiFunctionEndAccess
p7401
(dp7402
g879
(lp7403
(idelphi
DelphiIntegerValue
p7404
(dp7405
g884
S'13'
p7406
sbasbasbsg940
(idelphi
DelphiAddOp
p7407
(dp7408
g929
S'+'
sg930
(idelphi
DelphiStringAccess
p7409
(dp7410
g871
(lp7411
sg884
(idelphi
DelphiStringValue
p7412
(dp7413
g884
S'Some plants may refer to non-existent colors.'
p7414
sbsbsg940
(idelphi
DelphiAddOp
p7415
(dp7416
g929
S'+'
sg930
(i__main__
DelphiIdentAccess
p7417
(dp7418
g869
S'chr'
p7419
sg871
(lp7420
(idelphi
DelphiFunctionEndAccess
p7421
(dp7422
g879
(lp7423
(idelphi
DelphiIntegerValue
p7424
(dp7425
g884
S'13'
p7426
sbasbasbsg940
(idelphi
DelphiAddOp
p7427
(dp7428
g929
S'+'
sg930
(idelphi
DelphiStringAccess
p7429
(dp7430
g871
(lp7431
sg884
(idelphi
DelphiStringValue
p7432
(dp7433
g884
S'.'
sbsbsg940
(idelphi
DelphiAddOp
p7434
(dp7435
g929
S'+'
sg930
(i__main__
DelphiIdentAccess
p7436
(dp7437
g869
S'intToStr'
p7438
sg871
(lp7439
(idelphi
DelphiFunctionEndAccess
p7440
(dp7441
g879
(lp7442
(i__main__
DelphiIdentAccess
p7443
(dp7444
g869
S'kMaxStoredMaterials'
p7445
sg871
(lp7446
sbasbasbsg940
(idelphi
DelphiAddOp
p7447
(dp7448
g929
S'+'
sg930
(idelphi
DelphiStringAccess
p7449
(dp7450
g871
(lp7451
sg884
(idelphi
DelphiStringValue
p7452
(dp7453
g884
S'The number of distinct colors will be bounded at '
p7454
sbsbsg940
(idelphi
DelphiAddOp
p7455
(dp7456
g929
S'+'
sg930
(i__main__
DelphiIdentAccess
p7457
(dp7458
g869
S'chr'
p7459
sg871
(lp7460
(idelphi
DelphiFunctionEndAccess
p7461
(dp7462
g879
(lp7463
(idelphi
DelphiIntegerValue
p7464
(dp7465
g884
S'13'
p7466
sbasbasbsg940
(idelphi
DelphiStringAccess
p7467
(dp7468
g871
(lp7469
sg884
(idelphi
DelphiStringValue
p7470
(dp7471
g884
S'You have selected too many materials for this file format.'
p7472
sbsbsbsbsbsbsbsbsbsbsba(i__main__
DelphiIdentAccess
p7473
(dp7474
g869
S'mtWarning'
p7475
sg871
(lp7476
sba(idelphi
DelphiSetConstructor
p7477
(dp7478
g7158
(lp7479
(i__main__
DelphiIdentAccess
p7480
(dp7481
g869
S'mbOK'
p7482
sg871
(lp7483
sba(i__main__
DelphiIdentAccess
p7484
(dp7485
g869
S'mbCancel'
p7486
sg871
(lp7487
sbasba(idelphi
DelphiIntegerValue
p7488
(dp7489
g884
S'0'
sbasbasbsg1241
(i__main__
DelphiIdentAccess
p7490
(dp7491
g869
S'IDCANCEL'
p7492
sg871
(lp7493
sbsg1244
S'='
sbsg1245
Nsg1246
(i__main__
DelphiExitStatement
p7494
(dp7495
g1327
g7060
sg453
(lp7496
S' warn them if the colors list will be truncated\r'
p7497
aS' limit of 1000 materials\r'
p7498
asbsbasbsbsg917
(lp7499
(i__main__
DelphiIdentAccess
p7500
(dp7501
g869
S'kOBJ'
p7502
sg871
(lp7503
sba(i__main__
DelphiIdentAccess
p7504
(dp7505
g869
S'kLWO'
p7506
sg871
(lp7507
sbasbasba(i__main__
DelphiAssignStatement
p7508
(dp7509
g899
(i__main__
DelphiIdentAccess
p7510
(dp7511
g869
S'kTransferSave'
p7512
sg871
(lp7513
sbsg912
(i__main__
DelphiIdentAccess
p7514
(dp7515
g869
S'transferDirection'
p7516
sg871
(lp7517
sbsba(i__main__
DelphiAssignStatement
p7518
(dp7519
g899
Nsg912
(i__main__
DelphiIdentAccess
p7520
(dp7521
g869
S'self'
p7522
sg871
(lp7523
(idelphi
DelphiFieldEndAccess
p7524
(dp7525
g875
S'transferFields'
p7526
sbasbsba(i__main__
DelphiAssignStatement
p7527
(dp7528
g899
(i__main__
DelphiIdentAccess
p7529
(dp7530
g869
S'mrOK'
p7531
sg871
(lp7532
sbsg912
(i__main__
DelphiIdentAccess
p7533
(dp7534
g869
S'modalResult'
p7535
sg871
(lp7536
sbsbasbsg1190
(lp7537
sbsbssS'propertyDeclarations'
p7538
(dp7539
sS'variableNamesInDeclaredOrder'
p7540
(lp7541
g28
ag40
ag20
ag38
ag44
ag116
ag66
ag50
ag74
ag52
ag108
ag26
ag118
ag126
ag82
ag84
ag114
ag24
ag106
ag92
ag16
ag70
ag128
ag130
ag56
ag18
ag96
ag30
ag22
ag36
ag86
ag94
ag120
ag78
ag80
ag110
ag100
ag12
ag48
ag112
ag58
ag134
ag34
ag124
ag32
ag76
ag54
ag64
ag88
ag62
ag104
ag98
ag102
ag10
ag72
ag122
ag14
ag132
ag60
ag42
ag90
ag68
ag136
ag46
asba(i__main__
DelphiConstSection
p7542
(dp7543
S'constDeclList'
p7544
(lp7545
(idelphi
DelphiConstDeclaration
p7546
(dp7547
g1538
(idelphi
DelphiIntegerValue
p7548
(dp7549
g884
S'1'
sbsg869
S'kTransferLoad'
p7550
sg156
(idelphi
DelphiPrimitiveType
p7551
(dp7552
g159
S'UNDEFINED_NEEDS_CALCULATION'
p7553
sbsba(idelphi
DelphiConstDeclaration
p7554
(dp7555
g1538
(idelphi
DelphiIntegerValue
p7556
(dp7557
g884
S'2'
sbsg869
S'kTransferSave'
p7558
sg156
(idelphi
DelphiPrimitiveType
p7559
(dp7560
g159
g7553
sbsbasg1533
I1
sbasS'includedUnits'
p7561
NsS'implementationUses'
p7562
(lp7563
S'WinProcs'
p7564
aS'usupport'
p7565
aS'udxfclr'
p7566
aS'udomain'
p7567
aS'umain'
p7568
aS'uplant'
p7569
asg137
S'uoptions3dexport'
p7570
sS'constSections'
p7571
(lp7572
g7542
asS'globalsInProperCase'
p7573
NsS'interfaceUses'
p7574
(lp7575
S'delphi_compatability'
p7576
aS'Windows'
p7577
aS'Messages'
p7578
aS'SysUtils'
p7579
aS'Classes'
p7580
aS'Graphics'
p7581
aS'Controls'
p7582
aS'Forms'
p7583
aS'Dialogs'
p7584
aS'Buttons'
p7585
aS'ExtCtrls'
p7586
aS'StdCtrls'
p7587
aS'Spin'
p7588
aS'uturtle'
p7589
aS'u3dexport'
p7590
aS'Grids'
p7591
aS'updform'
p7592
asS'finalCommentToken'
p7593
(i__main__
PassStatement
p7594
(dp7595
g1190
(lp7596
sbsS'varSections'
p7597
(lp7598
sS'globals'
p7599
NsS'originalFileName'
p7600
S'../../PlantStudioInPython/converted_source/uoptions3dexport.pas'
p7601
sS'proceduralImplementations'
p7602
(dp7603
sS'fileName'
p7604
S'/Users/pdf/Documents/workspace/PlantStudioInPython/converted_source/uoptions3dexport.pas'
p7605
sS'proceduralDeclarations'
p7606
(dp7607
sS'types'
p7608
(dp7609
S'tgeneric3doptionsform'
p7610
g5
ssb.