(i__main__
DelphiUnit
p1
(dp2
S'sectionsInOrderDefined'
p3
(lp4
(i__main__
DelphiClass
p5
(dp6
S'variableNamesInProperCase'
p7
(dp8
sS'name'
p9
S'PdForm'
p10
sS'methodDeclarations'
p11
(dp12
S'create'
p13
(i__main__
DelphiMethodDeclaration
p14
(dp15
g9
S'create'
p16
sS'formalParameters'
p17
(lp18
(i__main__
DelphiFormalParameter
p19
(dp20
S'initialValue'
p21
NsS'names'
p22
(lp23
S'anOwner'
p24
asS'theType'
p25
(i__main__
DelphiNamedType
p26
(dp27
S'typeName'
p28
S'TComponent'
p29
sS'unitDefinedIn'
p30
g1
sS'unitName'
p31
NsbsS'parameterVariety'
p32
NsbasS'className'
p33
g10
sS'resultType'
p34
NsS'isClassMethod'
p35
I0
sS'methodType'
p36
S'constructor'
p37
sbssS'superclassNamedTypes'
p38
(lp39
(i__main__
DelphiNamedType
p40
(dp41
g28
S'TForm'
p42
sg30
g1
sg31
NsbasS'variableNames'
p43
(dp44
sS'methodNamesInDefinedOrder'
p45
(lp46
S'create'
p47
asS'methodImplementations'
p48
(dp49
S'create'
p50
(i__main__
DelphiMethodImplementation
p51
(dp52
S'originalDeclaration'
p53
g14
sg9
g16
sg17
(lp54
(i__main__
DelphiFormalParameter
p55
(dp56
g21
Nsg22
(lp57
S'anOwner'
p58
asg25
(i__main__
DelphiNamedType
p59
(dp60
g28
S'TComponent'
p61
sg30
g1
sg31
Nsbsg32
NsbasS'varParamIndexes'
p62
(lp63
sS'varParamsSkipped'
p64
(lp65
sS'argNames'
p66
(lp67
S'self'
p68
ag58
asS'argTypes'
p69
(dp70
g58
g59
ssg33
S'PdForm'
p71
sg34
NsS'varParamNames'
p72
(lp73
sg35
I0
sg36
g37
sS'block'
p74
(i__main__
DelphiBlock
p75
(dp76
S'compoundStatement'
p77
(idelphi
DelphiCompoundStatement
p78
(dp79
S'statements'
p80
(lp81
(i__main__
DelphiAssignStatement
p82
(dp83
S'newValueExpression'
p84
NsS'destinationExpression'
p85
(idelphi
DelphiInheritedCall
p86
(dp87
S'ident'
p88
S'create'
p89
sS'expressionList'
p90
(lp91
(i__main__
DelphiIdentAccess
p92
(dp93
g88
S'anOwner'
p94
sS'endAccessList'
p95
(lp96
sbasbsba(i__main__
DelphiAssignStatement
p97
(dp98
g84
Nsg85
(i__main__
DelphiIdentAccess
p99
(dp100
g88
S'MakeAllFormComponentsHaveHints'
p101
sg95
(lp102
(idelphi
DelphiFunctionEndAccess
p103
(dp104
g90
(lp105
(i__main__
DelphiIdentAccess
p106
(dp107
g88
S'self'
p108
sg95
(lp109
sbasbasbsbasbsS'limitedDeclSectionList'
p110
(lp111
sbsbssS'propertyDeclarations'
p112
(dp113
sS'variableNamesInDeclaredOrder'
p114
(lp115
sbasS'includedUnits'
p116
NsS'implementationUses'
p117
(lp118
S'uhints'
p119
asg9
S'Updform'
p120
sS'constSections'
p121
(lp122
sS'globalsInProperCase'
p123
NsS'interfaceUses'
p124
(lp125
S'delphi_compatability'
p126
aS'Forms'
p127
aS'Classes'
p128
asS'finalCommentToken'
p129
(i__main__
PassStatement
p130
(dp131
g110
(lp132
sbsS'varSections'
p133
(lp134
sS'globals'
p135
NsS'originalFileName'
p136
S'../../PlantStudioInPython/converted_source/updform.pas'
p137
sS'proceduralImplementations'
p138
(dp139
sS'fileName'
p140
S'/Users/pdf/Documents/workspace/PlantStudioInPython/converted_source/updform.pas'
p141
sS'proceduralDeclarations'
p142
(dp143
sS'types'
p144
(dp145
S'pdform'
p146
g5
ssb.