(i__main__
DelphiUnit
p1
(dp2
S'sectionsInOrderDefined'
p3
(lp4
(i__main__
DelphiClass
p5
(dp6
S'variableNamesInProperCase'
p7
(dp8
S'tdos'
p9
S'tdos'
p10
sS'helpbutton'
p11
S'helpButton'
p12
sS'librarychanged'
p13
S'libraryChanged'
p14
sS'internalchange'
p15
S'internalChange'
p16
sS'edittdo'
p17
S'editTdo'
p18
sS'sectiontdoschangelibrary'
p19
S'sectionTdosChangeLibrary'
p20
sS'filechangedimage'
p21
S'fileChangedImage'
p22
sS'mover'
p23
S'mover'
p24
sS'deletetdo'
p25
S'deleteTdo'
p26
sS'editedtdo'
p27
S'editedTdo'
p28
sS'grid'
p29
S'grid'
p30
sS'copytdo'
p31
S'copyTdo'
p32
sS'tdoselectionchanged'
p33
S'tdoSelectionChanged'
p34
sS'newtdo'
p35
S'newTdo'
p36
sS'cancel'
p37
S'cancel'
p38
sS'close'
p39
S'Close'
p40
sS'librarygroupbox'
p41
S'libraryGroupBox'
p42
sS'param'
p43
S'param'
p44
sS'apply'
p45
S'apply'
p46
sS'libraryfilename'
p47
S'libraryFileName'
p48
sS'originaltdo'
p49
S'originalTdo'
p50
ssS'name'
p51
S'TPickTdoForm'
p52
sS'methodDeclarations'
p53
(dp54
S'moverclick'
p55
(i__main__
DelphiMethodDeclaration
p56
(dp57
g51
S'moverClick'
p58
sS'formalParameters'
p59
(lp60
(i__main__
DelphiFormalParameter
p61
(dp62
S'initialValue'
p63
NsS'names'
p64
(lp65
S'Sender'
p66
asS'theType'
p67
(i__main__
DelphiNamedType
p68
(dp69
S'typeName'
p70
S'TObject'
p71
sS'unitDefinedIn'
p72
g1
sS'unitName'
p73
NsbsS'parameterVariety'
p74
NsbasS'className'
p75
g52
sS'resultType'
p76
NsS'isClassMethod'
p77
I0
sS'methodType'
p78
S'procedure'
p79
sbsS'griddblclick'
p80
(i__main__
DelphiMethodDeclaration
p81
(dp82
g51
S'gridDblClick'
p83
sg59
(lp84
(i__main__
DelphiFormalParameter
p85
(dp86
g63
Nsg64
(lp87
S'Sender'
p88
asg67
(i__main__
DelphiNamedType
p89
(dp90
g70
S'TObject'
p91
sg72
g1
sg73
Nsbsg74
Nsbasg75
g52
sg76
Nsg77
I0
sg78
g79
sbsS'wmgetminmaxinfo'
p92
(i__main__
DelphiMethodDeclaration
p93
(dp94
g51
S'WMGetMinMaxInfo'
p95
sg59
(lp96
(i__main__
DelphiFormalParameter
p97
(dp98
g63
Nsg64
(lp99
S'MSG'
p100
asg67
(i__main__
DelphiNamedType
p101
(dp102
g70
S'Tmessage'
p103
sg72
g1
sg73
Nsbsg74
S'var'
p104
sbasg75
g52
sg76
Nsg77
I0
sg78
g79
sS'commentLinesBefore'
p105
(lp106
S' Private declarations '
p107
asbsS'setlibrarychanged'
p108
(i__main__
DelphiMethodDeclaration
p109
(dp110
g51
S'setLibraryChanged'
p111
sg59
(lp112
(i__main__
DelphiFormalParameter
p113
(dp114
g63
Nsg64
(lp115
S'fileChanged'
p116
asg67
(i__main__
DelphiPrimitiveType
p117
(dp118
g70
S'boolean'
p119
sbsg74
Nsbasg75
g52
sg76
Nsg77
I0
sg78
g79
sbsS'helpbuttonclick'
p120
(i__main__
DelphiMethodDeclaration
p121
(dp122
g51
S'helpButtonClick'
p123
sg59
(lp124
(i__main__
DelphiFormalParameter
p125
(dp126
g63
Nsg64
(lp127
S'Sender'
p128
asg67
(i__main__
DelphiNamedType
p129
(dp130
g70
S'TObject'
p131
sg72
g1
sg73
Nsbsg74
Nsbasg75
g52
sg76
Nsg77
I0
sg78
g79
sbsS'cancelclick'
p132
(i__main__
DelphiMethodDeclaration
p133
(dp134
g51
S'cancelClick'
p135
sg59
(lp136
(i__main__
DelphiFormalParameter
p137
(dp138
g63
Nsg64
(lp139
S'Sender'
p140
asg67
(i__main__
DelphiNamedType
p141
(dp142
g70
S'TObject'
p143
sg72
g1
sg73
Nsbsg74
Nsbasg75
g52
sg76
Nsg77
I0
sg78
g79
sbsS'hintfortdosdrawgridatpoint'
p144
(i__main__
DelphiMethodDeclaration
p145
(dp146
g51
S'hintForTdosDrawGridAtPoint'
p147
sg59
(lp148
(i__main__
DelphiFormalParameter
p149
(dp150
g63
Nsg64
(lp151
S'aComponent'
p152
asg67
(i__main__
DelphiNamedType
p153
(dp154
g70
S'TComponent'
p155
sg72
g1
sg73
Nsbsg74
Nsba(i__main__
DelphiFormalParameter
p156
(dp157
g63
Nsg64
(lp158
S'aPoint'
p159
asg67
(i__main__
DelphiNamedType
p160
(dp161
g70
S'TPoint'
p162
sg72
g1
sg73
Nsbsg74
Nsba(i__main__
DelphiFormalParameter
p163
(dp164
g63
Nsg64
(lp165
S'cursorRect'
p166
asg67
(i__main__
DelphiNamedType
p167
(dp168
g70
S'TRect'
p169
sg72
g1
sg73
Nsbsg74
g104
sbasg75
g52
sg76
(i__main__
DelphiPrimitiveType
p170
(dp171
g70
S'string'
p172
sbsg77
I0
sg78
S'function'
p173
sbsS'choosetdofromlist'
p174
(i__main__
DelphiMethodDeclaration
p175
(dp176
g51
S'chooseTdoFromList'
p177
sg59
(lp178
(i__main__
DelphiFormalParameter
p179
(dp180
g63
Nsg64
(lp181
S'index'
p182
asg67
(i__main__
DelphiPrimitiveType
p183
(dp184
g70
S'smallint'
p185
sbsg74
Nsbasg75
g52
sg76
Nsg77
I0
sg78
g79
sbsS'savetdostolibrary'
p186
(i__main__
DelphiMethodDeclaration
p187
(dp188
g51
S'saveTdosToLibrary'
p189
sg59
(lp190
sg75
g52
sg76
Nsg77
I0
sg78
g79
sbsS'gridselectcell'
p191
(i__main__
DelphiMethodDeclaration
p192
(dp193
g51
S'gridSelectCell'
p194
sg59
(lp195
(i__main__
DelphiFormalParameter
p196
(dp197
g63
Nsg64
(lp198
S'Sender'
p199
asg67
(i__main__
DelphiNamedType
p200
(dp201
g70
S'TObject'
p202
sg72
g1
sg73
Nsbsg74
Nsba(i__main__
DelphiFormalParameter
p203
(dp204
g63
Nsg64
(lp205
S'Col'
p206
aS'Row'
p207
asg67
(i__main__
DelphiPrimitiveType
p208
(dp209
g70
S'integer'
p210
sbsg74
Nsba(i__main__
DelphiFormalParameter
p211
(dp212
g63
Nsg64
(lp213
S'CanSelect'
p214
asg67
(i__main__
DelphiPrimitiveType
p215
(dp216
g70
g119
sbsg74
g104
sbasg75
g52
sg76
Nsg77
I0
sg78
g79
sbsS'selecttdoatindex'
p217
(i__main__
DelphiMethodDeclaration
p218
(dp219
g51
S'selectTdoAtIndex'
p220
sg59
(lp221
(i__main__
DelphiFormalParameter
p222
(dp223
g63
Nsg64
(lp224
S'indexToSelect'
p225
asg67
(i__main__
DelphiPrimitiveType
p226
(dp227
g70
g185
sbsg74
Nsbasg75
g52
sg76
Nsg77
I0
sg78
g79
sbsS'selectedtdo'
p228
(i__main__
DelphiMethodDeclaration
p229
(dp230
g51
S'selectedTdo'
p231
sg59
(lp232
sg75
g52
sg76
(i__main__
DelphiNamedType
p233
(dp234
g70
S'KfObject3D'
p235
sg72
g1
sg73
Nsbsg77
I0
sg78
g173
sbsS'copytdoclick'
p236
(i__main__
DelphiMethodDeclaration
p237
(dp238
g51
S'copyTdoClick'
p239
sg59
(lp240
(i__main__
DelphiFormalParameter
p241
(dp242
g63
Nsg64
(lp243
S'Sender'
p244
asg67
(i__main__
DelphiNamedType
p245
(dp246
g70
S'TObject'
p247
sg72
g1
sg73
Nsbsg74
Nsbasg75
g52
sg76
Nsg77
I0
sg78
g79
sbsS'tdoforindex'
p248
(i__main__
DelphiMethodDeclaration
p249
(dp250
g51
S'tdoForIndex'
p251
sg59
(lp252
(i__main__
DelphiFormalParameter
p253
(dp254
g63
Nsg64
(lp255
g182
asg67
(i__main__
DelphiPrimitiveType
p256
(dp257
g70
g185
sbsg74
Nsbasg75
g52
sg76
(i__main__
DelphiNamedType
p258
(dp259
g70
S'KfObject3D'
p260
sg72
g1
sg73
Nsbsg77
I0
sg78
g173
sbsS'loadnewtdolibrary'
p261
(i__main__
DelphiMethodDeclaration
p262
(dp263
g51
S'loadNewTdoLibrary'
p264
sg59
(lp265
sg75
g52
sg76
Nsg77
I0
sg78
g79
sg105
(lp266
S' Public declarations '
p267
asbsS'deletetdoclick'
p268
(i__main__
DelphiMethodDeclaration
p269
(dp270
g51
S'deleteTdoClick'
p271
sg59
(lp272
(i__main__
DelphiFormalParameter
p273
(dp274
g63
Nsg64
(lp275
S'Sender'
p276
asg67
(i__main__
DelphiNamedType
p277
(dp278
g70
S'TObject'
p279
sg72
g1
sg73
Nsbsg74
Nsbasg75
g52
sg76
Nsg77
I0
sg78
g79
sbsS'readtdosfromfile'
p280
(i__main__
DelphiMethodDeclaration
p281
(dp282
g51
S'readTdosFromFile'
p283
sg59
(lp284
sg75
g52
sg76
(i__main__
DelphiPrimitiveType
p285
(dp286
g70
g119
sbsg77
I0
sg78
g173
sbsS'griddrawcell'
p287
(i__main__
DelphiMethodDeclaration
p288
(dp289
g51
S'gridDrawCell'
p290
sg59
(lp291
(i__main__
DelphiFormalParameter
p292
(dp293
g63
Nsg64
(lp294
S'Sender'
p295
asg67
(i__main__
DelphiNamedType
p296
(dp297
g70
S'TObject'
p298
sg72
g1
sg73
Nsbsg74
Nsba(i__main__
DelphiFormalParameter
p299
(dp300
g63
Nsg64
(lp301
S'Col'
p302
aS'Row'
p303
asg67
(i__main__
DelphiPrimitiveType
p304
(dp305
g70
g210
sbsg74
Nsba(i__main__
DelphiFormalParameter
p306
(dp307
g63
Nsg64
(lp308
S'Rect'
p309
asg67
(i__main__
DelphiNamedType
p310
(dp311
g70
S'TRect'
p312
sg72
g1
sg73
Nsbsg74
Nsba(i__main__
DelphiFormalParameter
p313
(dp314
g63
Nsg64
(lp315
S'State'
p316
asg67
(i__main__
DelphiNamedType
p317
(dp318
g70
S'TGridDrawState'
p319
sg72
g1
sg73
Nsbsg74
Nsbasg75
g52
sg76
Nsg77
I0
sg78
g79
sbsS'newtdoclick'
p320
(i__main__
DelphiMethodDeclaration
p321
(dp322
g51
S'newTdoClick'
p323
sg59
(lp324
(i__main__
DelphiFormalParameter
p325
(dp326
g63
Nsg64
(lp327
S'Sender'
p328
asg67
(i__main__
DelphiNamedType
p329
(dp330
g70
S'TObject'
p331
sg72
g1
sg73
Nsbsg74
Nsbasg75
g52
sg76
Nsg77
I0
sg78
g79
sbsS'formactivate'
p332
(i__main__
DelphiMethodDeclaration
p333
(dp334
g51
S'FormActivate'
p335
sg59
(lp336
(i__main__
DelphiFormalParameter
p337
(dp338
g63
Nsg64
(lp339
S'Sender'
p340
asg67
(i__main__
DelphiNamedType
p341
(dp342
g70
S'TObject'
p343
sg72
g1
sg73
Nsbsg74
Nsbasg75
g52
sg76
Nsg77
I0
sg78
g79
sbsS'initializewithtdoparameterandplantname'
p344
(i__main__
DelphiMethodDeclaration
p345
(dp346
g51
S'initializeWithTdoParameterAndPlantName'
p347
sg59
(lp348
(i__main__
DelphiFormalParameter
p349
(dp350
g63
Nsg64
(lp351
S'aTdo'
p352
asg67
(i__main__
DelphiNamedType
p353
(dp354
g70
S'KfObject3d'
p355
sg72
g1
sg73
Nsbsg74
Nsba(i__main__
DelphiFormalParameter
p356
(dp357
g63
Nsg64
(lp358
S'aParam'
p359
asg67
(i__main__
DelphiNamedType
p360
(dp361
g70
S'PdParameter'
p362
sg72
g1
sg73
Nsbsg74
Nsba(i__main__
DelphiFormalParameter
p363
(dp364
g63
Nsg64
(lp365
S'aName'
p366
asg67
(i__main__
DelphiPrimitiveType
p367
(dp368
g70
g172
sbsg74
S'const'
p369
sbasg75
g52
sg76
(i__main__
DelphiPrimitiveType
p370
(dp371
g70
g119
sbsg77
I0
sg78
g173
sbsS'formresize'
p372
(i__main__
DelphiMethodDeclaration
p373
(dp374
g51
S'FormResize'
p375
sg59
(lp376
(i__main__
DelphiFormalParameter
p377
(dp378
g63
Nsg64
(lp379
S'Sender'
p380
asg67
(i__main__
DelphiNamedType
p381
(dp382
g70
S'TObject'
p383
sg72
g1
sg73
Nsbsg74
Nsbasg75
g52
sg76
Nsg77
I0
sg78
g79
sbsS'edittdoclick'
p384
(i__main__
DelphiMethodDeclaration
p385
(dp386
g51
S'editTdoClick'
p387
sg59
(lp388
(i__main__
DelphiFormalParameter
p389
(dp390
g63
Nsg64
(lp391
S'Sender'
p392
asg67
(i__main__
DelphiNamedType
p393
(dp394
g70
S'TObject'
p395
sg72
g1
sg73
Nsbsg74
Nsbasg75
g52
sg76
Nsg77
I0
sg78
g79
sbsS'formclose'
p396
(i__main__
DelphiMethodDeclaration
p397
(dp398
g51
S'FormClose'
p399
sg59
(lp400
(i__main__
DelphiFormalParameter
p401
(dp402
g63
Nsg64
(lp403
S'Sender'
p404
asg67
(i__main__
DelphiNamedType
p405
(dp406
g70
S'TObject'
p407
sg72
g1
sg73
Nsbsg74
Nsba(i__main__
DelphiFormalParameter
p408
(dp409
g63
Nsg64
(lp410
S'Action'
p411
asg67
(i__main__
DelphiNamedType
p412
(dp413
g70
S'TCloseAction'
p414
sg72
g1
sg73
Nsbsg74
g104
sbasg75
g52
sg76
Nsg77
I0
sg78
g79
sbsS'sectiontdoschangelibraryclick'
p415
(i__main__
DelphiMethodDeclaration
p416
(dp417
g51
S'sectionTdosChangeLibraryClick'
p418
sg59
(lp419
(i__main__
DelphiFormalParameter
p420
(dp421
g63
Nsg64
(lp422
S'Sender'
p423
asg67
(i__main__
DelphiNamedType
p424
(dp425
g70
S'TObject'
p426
sg72
g1
sg73
Nsbsg74
Nsbasg75
g52
sg76
Nsg77
I0
sg78
g79
sbsS'selecttdobasedon'
p427
(i__main__
DelphiMethodDeclaration
p428
(dp429
g51
S'selectTdoBasedOn'
p430
sg59
(lp431
(i__main__
DelphiFormalParameter
p432
(dp433
g63
Nsg64
(lp434
S'aTdo'
p435
asg67
(i__main__
DelphiNamedType
p436
(dp437
g70
S'KfObject3D'
p438
sg72
g1
sg73
Nsbsg74
Nsbasg75
g52
sg76
Nsg77
I0
sg78
g79
sbsS'applyclick'
p439
(i__main__
DelphiMethodDeclaration
p440
(dp441
g51
S'applyClick'
p442
sg59
(lp443
(i__main__
DelphiFormalParameter
p444
(dp445
g63
Nsg64
(lp446
S'Sender'
p447
asg67
(i__main__
DelphiNamedType
p448
(dp449
g70
S'TObject'
p450
sg72
g1
sg73
Nsbsg74
Nsbasg75
g52
sg76
Nsg77
I0
sg78
g79
sbsS'tdoschange'
p451
(i__main__
DelphiMethodDeclaration
p452
(dp453
g51
S'tdosChange'
p454
sg59
(lp455
(i__main__
DelphiFormalParameter
p456
(dp457
g63
Nsg64
(lp458
S'Sender'
p459
asg67
(i__main__
DelphiNamedType
p460
(dp461
g70
S'TObject'
p462
sg72
g1
sg73
Nsbsg74
Nsbasg75
g52
sg76
Nsg77
I0
sg78
g79
sbsS'closeclick'
p463
(i__main__
DelphiMethodDeclaration
p464
(dp465
g51
S'CloseClick'
p466
sg59
(lp467
(i__main__
DelphiFormalParameter
p468
(dp469
g63
Nsg64
(lp470
S'Sender'
p471
asg67
(i__main__
DelphiNamedType
p472
(dp473
g70
S'TObject'
p474
sg72
g1
sg73
Nsbsg74
Nsbasg75
g52
sg76
Nsg77
I0
sg78
g79
sbssS'superclassNamedTypes'
p475
(lp476
(i__main__
DelphiNamedType
p477
(dp478
g70
S'PdForm'
p479
sg72
g1
sg73
NsbasS'variableNames'
p480
(dp481
S'tdos'
p482
(i__main__
DelphiNamedType
p483
(dp484
g70
S'TComboBox'
p485
sg72
g1
sg73
NsbsS'helpbutton'
p486
(i__main__
DelphiNamedType
p487
(dp488
g70
S'TSpeedButton'
p489
sg72
g1
sg73
NsbsS'librarychanged'
p490
(i__main__
DelphiPrimitiveType
p491
(dp492
g70
g119
sbsS'internalchange'
p493
(i__main__
DelphiPrimitiveType
p494
(dp495
g70
g119
sbsS'edittdo'
p496
(i__main__
DelphiNamedType
p497
(dp498
g70
S'TButton'
p499
sg72
g1
sg73
NsbsS'sectiontdoschangelibrary'
p500
(i__main__
DelphiNamedType
p501
(dp502
g70
S'TSpeedButton'
p503
sg72
g1
sg73
NsbsS'filechangedimage'
p504
(i__main__
DelphiNamedType
p505
(dp506
g70
S'TImage'
p507
sg72
g1
sg73
NsbsS'mover'
p508
(i__main__
DelphiNamedType
p509
(dp510
g70
S'TButton'
p511
sg72
g1
sg73
NsbsS'deletetdo'
p512
(i__main__
DelphiNamedType
p513
(dp514
g70
S'TButton'
p515
sg72
g1
sg73
NsbsS'editedtdo'
p516
g491
sS'grid'
p517
(i__main__
DelphiNamedType
p518
(dp519
g70
S'TDrawGrid'
p520
sg72
g1
sg73
NsbsS'copytdo'
p521
(i__main__
DelphiNamedType
p522
(dp523
g70
S'TButton'
p524
sg72
g1
sg73
NsbsS'tdoselectionchanged'
p525
g491
sS'newtdo'
p526
(i__main__
DelphiNamedType
p527
(dp528
g70
S'TButton'
p529
sg72
g1
sg73
NsbsS'cancel'
p530
(i__main__
DelphiNamedType
p531
(dp532
g70
S'TButton'
p533
sg72
g1
sg73
NsbsS'close'
p534
(i__main__
DelphiNamedType
p535
(dp536
g70
S'TButton'
p537
sg72
g1
sg73
NsbsS'librarygroupbox'
p538
(i__main__
DelphiNamedType
p539
(dp540
g70
S'TGroupBox'
p541
sg72
g1
sg73
NsbsS'param'
p542
(i__main__
DelphiNamedType
p543
(dp544
g70
S'PdParameter'
p545
sg72
g1
sg73
NsbsS'apply'
p546
(i__main__
DelphiNamedType
p547
(dp548
g70
S'TButton'
p549
sg72
g1
sg73
NsbsS'libraryfilename'
p550
(i__main__
DelphiNamedType
p551
(dp552
g70
S'TEdit'
p553
sg72
g1
sg73
NsbsS'originaltdo'
p554
(i__main__
DelphiNamedType
p555
(dp556
g70
S'KfObject3D'
p557
sg72
g1
sg73
NsbssS'methodNamesInDefinedOrder'
p558
(lp559
S'initializewithtdoparameterandplantname'
p560
aS'formactivate'
p561
aS'selecttdobasedon'
p562
aS'selecttdoatindex'
p563
aS'selectedtdo'
p564
aS'choosetdofromlist'
p565
aS'closeclick'
p566
aS'cancelclick'
p567
aS'applyclick'
p568
aS'loadnewtdolibrary'
p569
aS'readtdosfromfile'
p570
aS'savetdostolibrary'
p571
aS'setlibrarychanged'
p572
aS'tdoforindex'
p573
aS'griddrawcell'
p574
aS'gridselectcell'
p575
aS'tdoschange'
p576
aS'hintfortdosdrawgridatpoint'
p577
aS'sectiontdoschangelibraryclick'
p578
aS'helpbuttonclick'
p579
aS'formclose'
p580
aS'griddblclick'
p581
aS'edittdoclick'
p582
aS'newtdoclick'
p583
aS'copytdoclick'
p584
aS'deletetdoclick'
p585
aS'wmgetminmaxinfo'
p586
aS'formresize'
p587
aS'moverclick'
p588
asS'methodImplementations'
p589
(dp590
S'choosetdofromlist'
p591
(i__main__
DelphiMethodImplementation
p592
(dp593
S'originalDeclaration'
p594
g175
sg51
g177
sg59
(lp595
(i__main__
DelphiFormalParameter
p596
(dp597
g63
Nsg64
(lp598
g182
asg67
(i__main__
DelphiPrimitiveType
p599
(dp600
g70
g185
sbsg74
NsbasS'varParamIndexes'
p601
(lp602
sS'varParamsSkipped'
p603
(lp604
sS'argNames'
p605
(lp606
S'self'
p607
ag182
asS'argTypes'
p608
(dp609
g182
g599
ssg75
S'TPickTdoForm'
p610
sg76
NsS'varParamNames'
p611
(lp612
sg77
I0
sg78
g79
sS'block'
p613
(i__main__
DelphiBlock
p614
(dp615
S'compoundStatement'
p616
(idelphi
DelphiCompoundStatement
p617
(dp618
S'statements'
p619
(lp620
(idelphi
DelphiIfStatement
p621
(dp622
S'expression'
p623
(idelphi
DelphiMulOp
p624
(dp625
S'signedFactor2'
p626
(idelphi
DelphiNestedExpressionListAccess
p627
(dp628
S'endAccessList'
p629
(lp630
sS'expressionList'
p631
(lp632
(idelphi
DelphiRelOp
p633
(dp634
S'simpleExpression1'
p635
(i__main__
DelphiIdentAccess
p636
(dp637
S'ident'
p638
g182
sg629
(lp639
sbsS'simpleExpression2'
p640
(idelphi
DelphiAddOp
p641
(dp642
S'addOp'
p643
S'-'
sS'term2'
p644
(idelphi
DelphiIntegerValue
p645
(dp646
g172
S'1'
sbsS'term1'
p647
(i__main__
DelphiIdentAccess
p648
(dp649
g638
S'tdos'
p650
sg629
(lp651
(idelphi
DelphiFieldEndAccess
p652
(dp653
S'field'
p654
S'items'
p655
sba(idelphi
DelphiFieldEndAccess
p656
(dp657
g654
S'count'
p658
sbasbsbsS'relOp'
p659
S'<='
p660
sbasbsS'mulOp'
p661
S'and'
p662
sS'signedFactor1'
p663
(idelphi
DelphiNestedExpressionListAccess
p664
(dp665
g629
(lp666
sg631
(lp667
(idelphi
DelphiRelOp
p668
(dp669
g635
(i__main__
DelphiIdentAccess
p670
(dp671
g638
g182
sg629
(lp672
sbsg640
(idelphi
DelphiIntegerValue
p673
(dp674
g172
S'0'
sbsg659
S'>='
p675
sbasbsbsS'ifFalseStatement'
p676
NsS'ifTrueStatement'
p677
(i__main__
DelphiAssignStatement
p678
(dp679
S'newValueExpression'
p680
(i__main__
DelphiIdentAccess
p681
(dp682
g638
g182
sg629
(lp683
sbsS'destinationExpression'
p684
(i__main__
DelphiIdentAccess
p685
(dp686
g638
S'tdos'
p687
sg629
(lp688
(idelphi
DelphiFieldEndAccess
p689
(dp690
g654
S'itemIndex'
p691
sbasbsbsbasbsS'limitedDeclSectionList'
p692
(lp693
sbsbsS'griddblclick'
p694
(i__main__
DelphiMethodImplementation
p695
(dp696
g594
g81
sg51
g83
sg59
(lp697
(i__main__
DelphiFormalParameter
p698
(dp699
g63
Nsg64
(lp700
S'Sender'
p701
asg67
(i__main__
DelphiNamedType
p702
(dp703
g70
S'TObject'
p704
sg72
g1
sg73
Nsbsg74
Nsbasg601
(lp705
sg603
(lp706
sg605
(lp707
g607
ag701
asg608
(dp708
g701
g702
ssg75
S'TPickTdoForm'
p709
sg76
Nsg611
(lp710
sg77
I0
sg78
g79
sg613
(i__main__
DelphiBlock
p711
(dp712
g616
(idelphi
DelphiCompoundStatement
p713
(dp714
g619
(lp715
(i__main__
DelphiAssignStatement
p716
(dp717
g680
Nsg684
(i__main__
DelphiIdentAccess
p718
(dp719
g638
S'self'
p720
sg629
(lp721
(idelphi
DelphiFieldEndAccess
p722
(dp723
g654
S'applyClick'
p724
sba(idelphi
DelphiFunctionEndAccess
p725
(dp726
g631
(lp727
(i__main__
DelphiIdentAccess
p728
(dp729
g638
S'self'
p730
sg629
(lp731
sbasbasbsbasbsg692
(lp732
sbsbsS'wmgetminmaxinfo'
p733
(i__main__
DelphiMethodImplementation
p734
(dp735
g594
g93
sg51
g95
sg59
(lp736
(i__main__
DelphiFormalParameter
p737
(dp738
g63
Nsg64
(lp739
S'MSG'
p740
asg67
(i__main__
DelphiNamedType
p741
(dp742
g70
S'Tmessage'
p743
sg72
g1
sg73
Nsbsg74
g104
sbasg601
(lp744
sg603
(lp745
g740
asg605
(lp746
g607
ag740
asg608
(dp747
g740
g741
ssg75
S'TPickTdoForm'
p748
sg76
Nsg611
(lp749
sg77
I0
sg78
g79
sg613
(i__main__
DelphiBlock
p750
(dp751
g616
(idelphi
DelphiCompoundStatement
p752
(dp753
g619
(lp754
(i__main__
DelphiAssignStatement
p755
(dp756
g680
Nsg684
(idelphi
DelphiInheritedCall
p757
(dp758
g638
Nsg631
Nsbsba(idelphi
DelphiWithStatement
p759
(dp760
S'statement'
p761
(idelphi
DelphiCompoundStatement
p762
(dp763
g619
(lp764
(i__main__
DelphiAssignStatement
p765
(dp766
g680
(idelphi
DelphiIntegerValue
p767
(dp768
g172
S'404'
p769
sbsg684
(i__main__
DelphiIdentAccess
p770
(dp771
g638
S'ptMinTrackSize'
p772
sg629
(lp773
(idelphi
DelphiFieldEndAccess
p774
(dp775
g654
S'x'
sbasbsba(i__main__
DelphiAssignStatement
p776
(dp777
g680
(idelphi
DelphiIntegerValue
p778
(dp779
g172
S'404'
p780
sbsg684
(i__main__
DelphiIdentAccess
p781
(dp782
g638
S'ptMaxTrackSize'
p783
sg629
(lp784
(idelphi
DelphiFieldEndAccess
p785
(dp786
g654
S'x'
sbasbsg105
(lp787
S' only resizes vertically\r'
p788
asba(i__main__
DelphiAssignStatement
p789
(dp790
g680
(idelphi
DelphiIntegerValue
p791
(dp792
g172
S'303'
p793
sbsg684
(i__main__
DelphiIdentAccess
p794
(dp795
g638
S'ptMinTrackSize'
p796
sg629
(lp797
(idelphi
DelphiFieldEndAccess
p798
(dp799
g654
S'y'
sbasbsbasbsS'variableReferenceList'
p800
(lp801
(i__main__
DelphiIdentAccess
p802
(dp803
g638
S'PMinMaxInfo'
p804
sg629
(lp805
(idelphi
DelphiFunctionEndAccess
p806
(dp807
g631
(lp808
(i__main__
DelphiIdentAccess
p809
(dp810
g638
S'MSG'
p811
sg629
(lp812
(idelphi
DelphiFieldEndAccess
p813
(dp814
g654
S'lparam'
p815
sbasbasba(idelphi
DelphiPointerEndAccess
p816
(dp817
basbasbasbsg692
(lp818
sbsg105
g106
sbsS'setlibrarychanged'
p819
(i__main__
DelphiMethodImplementation
p820
(dp821
g594
g109
sg51
g111
sg59
(lp822
(i__main__
DelphiFormalParameter
p823
(dp824
g63
Nsg64
(lp825
S'fileChanged'
p826
asg67
(i__main__
DelphiPrimitiveType
p827
(dp828
g70
g119
sbsg74
Nsbasg601
(lp829
sg603
(lp830
sg605
(lp831
g607
ag826
asg608
(dp832
g826
g827
ssg75
S'TPickTdoForm'
p833
sg76
Nsg611
(lp834
sg77
I0
sg78
g79
sg613
(i__main__
DelphiBlock
p835
(dp836
g616
(idelphi
DelphiCompoundStatement
p837
(dp838
g619
(lp839
(i__main__
DelphiAssignStatement
p840
(dp841
g680
(i__main__
DelphiIdentAccess
p842
(dp843
g638
S'fileChanged'
p844
sg629
(lp845
sbsg684
(i__main__
DelphiIdentAccess
p846
(dp847
g638
S'libraryChanged'
p848
sg629
(lp849
sbsba(idelphi
DelphiIfStatement
p850
(dp851
g623
(i__main__
DelphiIdentAccess
p852
(dp853
g638
S'libraryChanged'
p854
sg629
(lp855
sbsg676
(i__main__
DelphiAssignStatement
p856
(dp857
g680
(i__main__
DelphiIdentAccess
p858
(dp859
g638
S'MainForm'
p860
sg629
(lp861
(idelphi
DelphiFieldEndAccess
p862
(dp863
g654
S'fileNotChangedImage'
p864
sba(idelphi
DelphiFieldEndAccess
p865
(dp866
g654
S'picture'
p867
sbasbsg684
(i__main__
DelphiIdentAccess
p868
(dp869
g638
S'fileChangedImage'
p870
sg629
(lp871
(idelphi
DelphiFieldEndAccess
p872
(dp873
g654
S'picture'
p874
sbasbsbsg677
(i__main__
DelphiAssignStatement
p875
(dp876
g680
(i__main__
DelphiIdentAccess
p877
(dp878
g638
S'MainForm'
p879
sg629
(lp880
(idelphi
DelphiFieldEndAccess
p881
(dp882
g654
S'fileChangedImage'
p883
sba(idelphi
DelphiFieldEndAccess
p884
(dp885
g654
S'picture'
p886
sbasbsg684
(i__main__
DelphiIdentAccess
p887
(dp888
g638
S'fileChangedImage'
p889
sg629
(lp890
(idelphi
DelphiFieldEndAccess
p891
(dp892
g654
S'picture'
p893
sbasbsbsbasbsg692
(lp894
sbsbsS'helpbuttonclick'
p895
(i__main__
DelphiMethodImplementation
p896
(dp897
g594
g121
sg51
g123
sg59
(lp898
(i__main__
DelphiFormalParameter
p899
(dp900
g63
Nsg64
(lp901
S'Sender'
p902
asg67
(i__main__
DelphiNamedType
p903
(dp904
g70
S'TObject'
p905
sg72
g1
sg73
Nsbsg74
Nsbasg601
(lp906
sg603
(lp907
sg605
(lp908
g607
ag902
asg608
(dp909
g902
g903
ssg75
S'TPickTdoForm'
p910
sg76
Nsg611
(lp911
sg77
I0
sg78
g79
sg613
(i__main__
DelphiBlock
p912
(dp913
g616
(idelphi
DelphiCompoundStatement
p914
(dp915
g619
(lp916
(i__main__
DelphiAssignStatement
p917
(dp918
g680
Nsg684
(i__main__
DelphiIdentAccess
p919
(dp920
g638
S'application'
p921
sg629
(lp922
(idelphi
DelphiFieldEndAccess
p923
(dp924
g654
S'helpJump'
p925
sba(idelphi
DelphiFunctionEndAccess
p926
(dp927
g631
(lp928
(idelphi
DelphiStringAccess
p929
(dp930
g629
(lp931
sg172
(idelphi
DelphiStringValue
p932
(dp933
g172
S'Using_3D_object_parameter_panels'
p934
sbsbasbasbsbasbsg692
(lp935
sbsbsS'cancelclick'
p936
(i__main__
DelphiMethodImplementation
p937
(dp938
g594
g133
sg51
g135
sg59
(lp939
(i__main__
DelphiFormalParameter
p940
(dp941
g63
Nsg64
(lp942
S'Sender'
p943
asg67
(i__main__
DelphiNamedType
p944
(dp945
g70
S'TObject'
p946
sg72
g1
sg73
Nsbsg74
Nsbasg601
(lp947
sg603
(lp948
sg605
(lp949
g607
ag943
asg608
(dp950
g943
g944
ssg75
S'TPickTdoForm'
p951
sg76
Nsg611
(lp952
sg77
I0
sg78
g79
sg613
(i__main__
DelphiBlock
p953
(dp954
g616
(idelphi
DelphiCompoundStatement
p955
(dp956
g619
(lp957
(i__main__
DelphiAssignStatement
p958
(dp959
g680
(i__main__
DelphiIdentAccess
p960
(dp961
g638
S'mrCancel'
p962
sg629
(lp963
sbsg684
(i__main__
DelphiIdentAccess
p964
(dp965
g638
S'modalResult'
p966
sg629
(lp967
sbsbasbsg692
(lp968
sbsbsS'sectiontdoschangelibraryclick'
p969
(i__main__
DelphiMethodImplementation
p970
(dp971
g594
g416
sg51
g418
sg59
(lp972
(i__main__
DelphiFormalParameter
p973
(dp974
g63
Nsg64
(lp975
S'Sender'
p976
asg67
(i__main__
DelphiNamedType
p977
(dp978
g70
S'TObject'
p979
sg72
g1
sg73
Nsbsg74
Nsbasg601
(lp980
sg603
(lp981
sg605
(lp982
g607
ag976
asg608
(dp983
g976
g977
ssg75
S'TPickTdoForm'
p984
sg76
Nsg611
(lp985
sg77
I0
sg78
g79
sg613
(i__main__
DelphiBlock
p986
(dp987
g616
(idelphi
DelphiCompoundStatement
p988
(dp989
g619
(lp990
(i__main__
DelphiAssignStatement
p991
(dp992
g680
Nsg684
(i__main__
DelphiIdentAccess
p993
(dp994
g638
S'self'
p995
sg629
(lp996
(idelphi
DelphiFieldEndAccess
p997
(dp998
g654
S'loadNewTdoLibrary'
p999
sbasbsba(i__main__
DelphiAssignStatement
p1000
(dp1001
g680
Nsg684
(i__main__
DelphiIdentAccess
p1002
(dp1003
g638
S'grid'
p1004
sg629
(lp1005
(idelphi
DelphiFieldEndAccess
p1006
(dp1007
g654
S'invalidate'
p1008
sbasbsba(i__main__
DelphiAssignStatement
p1009
(dp1010
g680
(i__main__
DelphiIdentAccess
p1011
(dp1012
g638
S'domain'
p1013
sg629
(lp1014
(idelphi
DelphiFieldEndAccess
p1015
(dp1016
g654
S'defaultTdoLibraryFileName'
p1017
sbasbsg684
(i__main__
DelphiIdentAccess
p1018
(dp1019
g638
S'libraryFileName'
p1020
sg629
(lp1021
(idelphi
DelphiFieldEndAccess
p1022
(dp1023
g654
S'text'
p1024
sbasbsba(i__main__
DelphiAssignStatement
p1025
(dp1026
g680
(i__main__
DelphiIdentAccess
p1027
(dp1028
g638
S'length'
p1029
sg629
(lp1030
(idelphi
DelphiFunctionEndAccess
p1031
(dp1032
g631
(lp1033
(i__main__
DelphiIdentAccess
p1034
(dp1035
g638
S'libraryFileName'
p1036
sg629
(lp1037
(idelphi
DelphiFieldEndAccess
p1038
(dp1039
g654
S'text'
p1040
sbasbasbasbsg684
(i__main__
DelphiIdentAccess
p1041
(dp1042
g638
S'libraryFileName'
p1043
sg629
(lp1044
(idelphi
DelphiFieldEndAccess
p1045
(dp1046
g654
S'selStart'
p1047
sbasbsbasbsg692
(lp1048
sbsbsS'selecttdobasedon'
p1049
(i__main__
DelphiMethodImplementation
p1050
(dp1051
g594
g428
sg51
g430
sg59
(lp1052
(i__main__
DelphiFormalParameter
p1053
(dp1054
g63
Nsg64
(lp1055
S'aTdo'
p1056
asg67
(i__main__
DelphiNamedType
p1057
(dp1058
g70
S'KfObject3D'
p1059
sg72
g1
sg73
Nsbsg74
Nsbasg601
(lp1060
sg603
(lp1061
sg605
(lp1062
g607
ag1056
asg608
(dp1063
g1056
g1057
ssg75
S'TPickTdoForm'
p1064
sg76
Nsg611
(lp1065
sg77
I0
sg78
g79
sg613
(i__main__
DelphiBlock
p1066
(dp1067
g616
(idelphi
DelphiCompoundStatement
p1068
(dp1069
g619
(lp1070
(i__main__
DelphiAssignStatement
p1071
(dp1072
g680
(idelphi
DelphiSign
p1073
(dp1074
S'factor'
p1075
(idelphi
DelphiIntegerValue
p1076
(dp1077
g172
S'1'
sbsS'sign'
p1078
S'-'
sbsg684
(i__main__
DelphiIdentAccess
p1079
(dp1080
g638
S'indexToSelect'
p1081
sg629
(lp1082
sbsg105
(lp1083
S' assumes initialize already called and tdos already in list\r'
p1084
asba(idelphi
DelphiIfStatement
p1085
(dp1086
g623
(idelphi
DelphiRelOp
p1087
(dp1088
g635
(i__main__
DelphiIdentAccess
p1089
(dp1090
g638
S'tdos'
p1091
sg629
(lp1092
(idelphi
DelphiFieldEndAccess
p1093
(dp1094
g654
S'items'
p1095
sba(idelphi
DelphiFieldEndAccess
p1096
(dp1097
g654
S'count'
p1098
sbasbsg640
(idelphi
DelphiIntegerValue
p1099
(dp1100
g172
S'0'
sbsg659
S'>'
sbsg676
Nsg677
(idelphi
DelphiForStatement
p1101
(dp1102
S'variable'
p1103
S'i'
sS'finalValue'
p1104
(idelphi
DelphiAddOp
p1105
(dp1106
g643
S'-'
sg644
(idelphi
DelphiIntegerValue
p1107
(dp1108
g172
S'1'
sbsg647
(i__main__
DelphiIdentAccess
p1109
(dp1110
g638
S'tdos'
p1111
sg629
(lp1112
(idelphi
DelphiFieldEndAccess
p1113
(dp1114
g654
S'items'
p1115
sba(idelphi
DelphiFieldEndAccess
p1116
(dp1117
g654
S'count'
p1118
sbasbsbsS'direction'
p1119
S'to'
p1120
sg63
(idelphi
DelphiIntegerValue
p1121
(dp1122
g172
S'0'
sbsg761
(idelphi
DelphiCompoundStatement
p1123
(dp1124
g619
(lp1125
(i__main__
DelphiAssignStatement
p1126
(dp1127
g680
(i__main__
DelphiIdentAccess
p1128
(dp1129
g638
S'KfObject3d'
p1130
sg629
(lp1131
(idelphi
DelphiFunctionEndAccess
p1132
(dp1133
g631
(lp1134
(i__main__
DelphiIdentAccess
p1135
(dp1136
g638
S'tdos'
p1137
sg629
(lp1138
(idelphi
DelphiFieldEndAccess
p1139
(dp1140
g654
S'items'
p1141
sba(idelphi
DelphiFieldEndAccess
p1142
(dp1143
g654
S'objects'
p1144
sba(idelphi
DelphiArrayEndAccess
p1145
(dp1146
g631
(lp1147
(i__main__
DelphiIdentAccess
p1148
(dp1149
g638
S'i'
sg629
(lp1150
sbasbasbasbasbsg684
(i__main__
DelphiIdentAccess
p1151
(dp1152
g638
S'tdo'
p1153
sg629
(lp1154
sbsba(idelphi
DelphiIfStatement
p1155
(dp1156
g623
(i__main__
DelphiIdentAccess
p1157
(dp1158
g638
S'tdo'
p1159
sg629
(lp1160
(idelphi
DelphiFieldEndAccess
p1161
(dp1162
g654
S'isSameAs'
p1163
sba(idelphi
DelphiFunctionEndAccess
p1164
(dp1165
g631
(lp1166
(i__main__
DelphiIdentAccess
p1167
(dp1168
g638
S'aTdo'
p1169
sg629
(lp1170
sbasbasbsg676
Nsg677
(idelphi
DelphiCompoundStatement
p1171
(dp1172
g619
(lp1173
(i__main__
DelphiAssignStatement
p1174
(dp1175
g680
(i__main__
DelphiIdentAccess
p1176
(dp1177
g638
S'i'
sg629
(lp1178
sbsg684
(i__main__
DelphiIdentAccess
p1179
(dp1180
g638
S'indexToSelect'
p1181
sg629
(lp1182
sbsba(idelphi
DelphiBreakStatement
p1183
(dp1184
basbsbasbsbsba(idelphi
DelphiIfStatement
p1185
(dp1186
g623
(idelphi
DelphiRelOp
p1187
(dp1188
g635
(i__main__
DelphiIdentAccess
p1189
(dp1190
g638
S'indexToSelect'
p1191
sg629
(lp1192
sbsg640
(idelphi
DelphiIntegerValue
p1193
(dp1194
g172
S'0'
sbsg659
S'<'
sbsg676
Nsg677
(idelphi
DelphiCompoundStatement
p1195
(dp1196
g619
(lp1197
(idelphi
DelphiIfStatement
p1198
(dp1199
g623
(idelphi
DelphiRelOp
p1200
(dp1201
g635
(i__main__
DelphiIdentAccess
p1202
(dp1203
g638
S'MessageDlg'
p1204
sg629
(lp1205
(idelphi
DelphiFunctionEndAccess
p1206
(dp1207
g631
(lp1208
(idelphi
DelphiAddOp
p1209
(dp1210
g643
S'+'
sg644
(idelphi
DelphiStringAccess
p1211
(dp1212
g629
(lp1213
sg172
(idelphi
DelphiStringValue
p1214
(dp1215
g172
S'Do you want to add this 3D object to the library?'
p1216
sbsbsg647
(idelphi
DelphiAddOp
p1217
(dp1218
g643
S'+'
sg644
(i__main__
DelphiIdentAccess
p1219
(dp1220
g638
S'chr'
p1221
sg629
(lp1222
(idelphi
DelphiFunctionEndAccess
p1223
(dp1224
g631
(lp1225
(idelphi
DelphiIntegerValue
p1226
(dp1227
g172
S'13'
p1228
sbasbasbsg647
(idelphi
DelphiAddOp
p1229
(dp1230
g643
S'+'
sg644
(i__main__
DelphiIdentAccess
p1231
(dp1232
g638
S'chr'
p1233
sg629
(lp1234
(idelphi
DelphiFunctionEndAccess
p1235
(dp1236
g631
(lp1237
(idelphi
DelphiIntegerValue
p1238
(dp1239
g172
S'13'
p1240
sbasbasbsg647
(idelphi
DelphiAddOp
p1241
(dp1242
g643
S'+'
sg644
(idelphi
DelphiStringAccess
p1243
(dp1244
g629
(lp1245
sg172
(idelphi
DelphiStringValue
p1246
(dp1247
g172
S'Its name or shape is different from the 3D objects in the list.'
p1248
sbsbsg647
(idelphi
DelphiAddOp
p1249
(dp1250
g643
S'+'
sg644
(i__main__
DelphiIdentAccess
p1251
(dp1252
g638
S'chr'
p1253
sg629
(lp1254
(idelphi
DelphiFunctionEndAccess
p1255
(dp1256
g631
(lp1257
(idelphi
DelphiIntegerValue
p1258
(dp1259
g172
S'13'
p1260
sbasbasbsg647
(idelphi
DelphiStringAccess
p1261
(dp1262
g629
(lp1263
sg172
(idelphi
DelphiStringValue
p1264
(dp1265
g172
S'This 3D object is not in the current library.'
p1266
sbsbsbsbsbsbsba(i__main__
DelphiIdentAccess
p1267
(dp1268
g638
S'mtWarning'
p1269
sg629
(lp1270
sba(idelphi
DelphiSetConstructor
p1271
(dp1272
S'setElementList'
p1273
(lp1274
(i__main__
DelphiIdentAccess
p1275
(dp1276
g638
S'mbYes'
p1277
sg629
(lp1278
sba(i__main__
DelphiIdentAccess
p1279
(dp1280
g638
S'mbNo'
p1281
sg629
(lp1282
sbasba(idelphi
DelphiIntegerValue
p1283
(dp1284
g172
S'0'
sbasbasbsg640
(i__main__
DelphiIdentAccess
p1285
(dp1286
g638
S'IDNO'
p1287
sg629
(lp1288
sbsg659
S'='
sbsg676
Nsg677
(i__main__
DelphiExitStatement
p1289
(dp1290
S'proceduralOrMethodImplementation'
p1291
g1050
sbsba(i__main__
DelphiAssignStatement
p1292
(dp1293
g680
(i__main__
DelphiIdentAccess
p1294
(dp1295
g638
S'KfObject3D'
p1296
sg629
(lp1297
(idelphi
DelphiFieldEndAccess
p1298
(dp1299
g654
S'create'
p1300
sbasbsg684
(i__main__
DelphiIdentAccess
p1301
(dp1302
g638
S'tdo'
p1303
sg629
(lp1304
sbsba(i__main__
DelphiAssignStatement
p1305
(dp1306
g680
Nsg684
(i__main__
DelphiIdentAccess
p1307
(dp1308
g638
S'tdo'
p1309
sg629
(lp1310
(idelphi
DelphiFieldEndAccess
p1311
(dp1312
g654
S'copyFrom'
p1313
sba(idelphi
DelphiFunctionEndAccess
p1314
(dp1315
g631
(lp1316
(i__main__
DelphiIdentAccess
p1317
(dp1318
g638
S'aTdo'
p1319
sg629
(lp1320
sbasbasbsba(i__main__
DelphiAssignStatement
p1321
(dp1322
g680
Nsg684
(i__main__
DelphiIdentAccess
p1323
(dp1324
g638
S'tdos'
p1325
sg629
(lp1326
(idelphi
DelphiFieldEndAccess
p1327
(dp1328
g654
S'items'
p1329
sba(idelphi
DelphiFieldEndAccess
p1330
(dp1331
g654
S'addObject'
p1332
sba(idelphi
DelphiFunctionEndAccess
p1333
(dp1334
g631
(lp1335
(i__main__
DelphiIdentAccess
p1336
(dp1337
g638
S'tdo'
p1338
sg629
(lp1339
(idelphi
DelphiFieldEndAccess
p1340
(dp1341
g654
S'name'
p1342
sbasba(i__main__
DelphiIdentAccess
p1343
(dp1344
g638
S'tdo'
p1345
sg629
(lp1346
sbasbasbsba(i__main__
DelphiAssignStatement
p1347
(dp1348
g680
(idelphi
DelphiAddOp
p1349
(dp1350
g643
S'+'
sg644
(idelphi
DelphiIntegerValue
p1351
(dp1352
g172
S'1'
sbsg647
(idelphi
DelphiMulOp
p1353
(dp1354
g626
(i__main__
DelphiIdentAccess
p1355
(dp1356
g638
S'grid'
p1357
sg629
(lp1358
(idelphi
DelphiFieldEndAccess
p1359
(dp1360
g654
S'colCount'
p1361
sbasbsg661
S'div'
p1362
sg663
(i__main__
DelphiIdentAccess
p1363
(dp1364
g638
S'tdos'
p1365
sg629
(lp1366
(idelphi
DelphiFieldEndAccess
p1367
(dp1368
g654
S'items'
p1369
sba(idelphi
DelphiFieldEndAccess
p1370
(dp1371
g654
S'count'
p1372
sbasbsbsbsg684
(i__main__
DelphiIdentAccess
p1373
(dp1374
g638
S'grid'
p1375
sg629
(lp1376
(idelphi
DelphiFieldEndAccess
p1377
(dp1378
g654
S'rowCount'
p1379
sbasbsba(i__main__
DelphiAssignStatement
p1380
(dp1381
g680
(idelphi
DelphiAddOp
p1382
(dp1383
g643
S'+'
sg644
(idelphi
DelphiStringAccess
p1384
(dp1385
g629
(lp1386
sg172
(idelphi
DelphiStringValue
p1387
(dp1388
g172
S' object(s)'
p1389
sbsbsg647
(idelphi
DelphiAddOp
p1390
(dp1391
g643
S'+'
sg644
(i__main__
DelphiIdentAccess
p1392
(dp1393
g638
S'intToStr'
p1394
sg629
(lp1395
(idelphi
DelphiFunctionEndAccess
p1396
(dp1397
g631
(lp1398
(i__main__
DelphiIdentAccess
p1399
(dp1400
g638
S'tdos'
p1401
sg629
(lp1402
(idelphi
DelphiFieldEndAccess
p1403
(dp1404
g654
S'items'
p1405
sba(idelphi
DelphiFieldEndAccess
p1406
(dp1407
g654
S'count'
p1408
sbasbasbasbsg647
(idelphi
DelphiStringAccess
p1409
(dp1410
g629
(lp1411
sg172
(idelphi
DelphiStringValue
p1412
(dp1413
g172
S'The current library has '
p1414
sbsbsbsbsg684
(i__main__
DelphiIdentAccess
p1415
(dp1416
g638
S'libraryGroupBox'
p1417
sg629
(lp1418
(idelphi
DelphiFieldEndAccess
p1419
(dp1420
g654
S'caption'
p1421
sbasbsba(i__main__
DelphiAssignStatement
p1422
(dp1423
g680
Nsg684
(i__main__
DelphiIdentAccess
p1424
(dp1425
g638
S'self'
p1426
sg629
(lp1427
(idelphi
DelphiFieldEndAccess
p1428
(dp1429
g654
S'setLibraryChanged'
p1430
sba(idelphi
DelphiFunctionEndAccess
p1431
(dp1432
g631
(lp1433
(i__main__
DelphiIdentAccess
p1434
(dp1435
g638
S'true'
p1436
sg629
(lp1437
sbasbasbsba(i__main__
DelphiAssignStatement
p1438
(dp1439
g680
(idelphi
DelphiAddOp
p1440
(dp1441
g643
S'-'
sg644
(idelphi
DelphiIntegerValue
p1442
(dp1443
g172
S'1'
sbsg647
(i__main__
DelphiIdentAccess
p1444
(dp1445
g638
S'tdos'
p1446
sg629
(lp1447
(idelphi
DelphiFieldEndAccess
p1448
(dp1449
g654
S'items'
p1450
sba(idelphi
DelphiFieldEndAccess
p1451
(dp1452
g654
S'count'
p1453
sbasbsbsg684
(i__main__
DelphiIdentAccess
p1454
(dp1455
g638
S'indexToSelect'
p1456
sg629
(lp1457
sbsbasbsba(idelphi
DelphiIfStatement
p1458
(dp1459
g623
(idelphi
DelphiRelOp
p1460
(dp1461
g635
(i__main__
DelphiIdentAccess
p1462
(dp1463
g638
S'indexToSelect'
p1464
sg629
(lp1465
sbsg640
(idelphi
DelphiIntegerValue
p1466
(dp1467
g172
S'0'
sbsg659
g675
sbsg676
Nsg677
(i__main__
DelphiAssignStatement
p1468
(dp1469
g680
Nsg684
(i__main__
DelphiIdentAccess
p1470
(dp1471
g638
S'self'
p1472
sg629
(lp1473
(idelphi
DelphiFieldEndAccess
p1474
(dp1475
g654
S'selectTdoAtIndex'
p1476
sba(idelphi
DelphiFunctionEndAccess
p1477
(dp1478
g631
(lp1479
(i__main__
DelphiIdentAccess
p1480
(dp1481
g638
S'indexToSelect'
p1482
sg629
(lp1483
sbasbasbsbsbasbsg692
(lp1484
(i__main__
DelphiVarSection
p1485
(dp1486
S'atTopLevel'
p1487
I0
sS'varDeclList'
p1488
(lp1489
(idelphi
DelphiVarDecl
p1490
(dp1491
S'constExpression'
p1492
NsS'identList'
p1493
(lp1494
S'indexToSelect'
p1495
aS'i'
asg67
(i__main__
DelphiPrimitiveType
p1496
(dp1497
g70
g210
sbsba(idelphi
DelphiVarDecl
p1498
(dp1499
g1492
Nsg1493
(lp1500
S'tdo'
p1501
asg67
(i__main__
DelphiNamedType
p1502
(dp1503
g70
S'KfObject3D'
p1504
sg72
g1
sg73
NsbsbasbasbsbsS'savetdostolibrary'
p1505
(i__main__
DelphiMethodImplementation
p1506
(dp1507
g594
g187
sg51
g189
sg59
(lp1508
sg601
(lp1509
sg603
(lp1510
sg605
(lp1511
g607
asg608
(dp1512
sg75
S'TPickTdoForm'
p1513
sg76
Nsg611
(lp1514
sg77
I0
sg78
g79
sg613
(i__main__
DelphiBlock
p1515
(dp1516
g616
(idelphi
DelphiCompoundStatement
p1517
(dp1518
g619
(lp1519
(i__main__
DelphiAssignStatement
p1520
(dp1521
g680
(i__main__
DelphiIdentAccess
p1522
(dp1523
g638
S'domain'
p1524
sg629
(lp1525
(idelphi
DelphiFieldEndAccess
p1526
(dp1527
g654
S'defaultTdoLibraryFileName'
p1528
sbasbsg684
(i__main__
DelphiIdentAccess
p1529
(dp1530
g638
S'suggestedName'
p1531
sg629
(lp1532
sbsba(idelphi
DelphiIfStatement
p1533
(dp1534
g623
(idelphi
DelphiNot
p1535
(dp1536
g1075
(i__main__
DelphiIdentAccess
p1537
(dp1538
g638
S'getFileSaveInfo'
p1539
sg629
(lp1540
(idelphi
DelphiFunctionEndAccess
p1541
(dp1542
g631
(lp1543
(i__main__
DelphiIdentAccess
p1544
(dp1545
g638
S'kFileTypeTdo'
p1546
sg629
(lp1547
sba(i__main__
DelphiIdentAccess
p1548
(dp1549
g638
S'kDontAskForFileName'
p1550
sg629
(lp1551
sba(i__main__
DelphiIdentAccess
p1552
(dp1553
g638
S'suggestedName'
p1554
sg629
(lp1555
sba(i__main__
DelphiIdentAccess
p1556
(dp1557
g638
S'fileInfo'
p1558
sg629
(lp1559
sbasbasbsbsg676
Nsg677
(i__main__
DelphiExitStatement
p1560
(dp1561
g1291
g1506
sbsba(i__main__
DelphiAssignStatement
p1562
(dp1563
g680
Nsg684
(i__main__
DelphiIdentAccess
p1564
(dp1565
g638
S'assignFile'
p1566
sg629
(lp1567
(idelphi
DelphiFunctionEndAccess
p1568
(dp1569
g631
(lp1570
(i__main__
DelphiIdentAccess
p1571
(dp1572
g638
S'outputFile'
p1573
sg629
(lp1574
sba(i__main__
DelphiIdentAccess
p1575
(dp1576
g638
S'fileInfo'
p1577
sg629
(lp1578
(idelphi
DelphiFieldEndAccess
p1579
(dp1580
g654
S'tempFile'
p1581
sbasbasbasbsba(idelphi
DelphiTryFinallyStatement
p1582
(dp1583
S'tryStatements'
p1584
(lp1585
(i__main__
DelphiAssignStatement
p1586
(dp1587
g680
Nsg684
(i__main__
DelphiIdentAccess
p1588
(dp1589
g638
S'setDecimalSeparator'
p1590
sg629
(lp1591
sbsg105
(lp1592
S' v1.5\r'
p1593
asba(i__main__
DelphiAssignStatement
p1594
(dp1595
g680
Nsg684
(i__main__
DelphiIdentAccess
p1596
(dp1597
g638
S'rewrite'
p1598
sg629
(lp1599
(idelphi
DelphiFunctionEndAccess
p1600
(dp1601
g631
(lp1602
(i__main__
DelphiIdentAccess
p1603
(dp1604
g638
S'outputFile'
p1605
sg629
(lp1606
sbasbasbsba(i__main__
DelphiAssignStatement
p1607
(dp1608
g680
Nsg684
(i__main__
DelphiIdentAccess
p1609
(dp1610
g638
S'startFileSave'
p1611
sg629
(lp1612
(idelphi
DelphiFunctionEndAccess
p1613
(dp1614
g631
(lp1615
(i__main__
DelphiIdentAccess
p1616
(dp1617
g638
S'fileInfo'
p1618
sg629
(lp1619
sbasbasbsba(idelphi
DelphiIfStatement
p1620
(dp1621
g623
(idelphi
DelphiRelOp
p1622
(dp1623
g635
(i__main__
DelphiIdentAccess
p1624
(dp1625
g638
S'tdos'
p1626
sg629
(lp1627
(idelphi
DelphiFieldEndAccess
p1628
(dp1629
g654
S'items'
p1630
sba(idelphi
DelphiFieldEndAccess
p1631
(dp1632
g654
S'count'
p1633
sbasbsg640
(idelphi
DelphiIntegerValue
p1634
(dp1635
g172
S'0'
sbsg659
S'>'
sbsg676
Nsg677
(idelphi
DelphiForStatement
p1636
(dp1637
g1103
S'i'
sg1104
(idelphi
DelphiAddOp
p1638
(dp1639
g643
S'-'
sg644
(idelphi
DelphiIntegerValue
p1640
(dp1641
g172
S'1'
sbsg647
(i__main__
DelphiIdentAccess
p1642
(dp1643
g638
S'tdos'
p1644
sg629
(lp1645
(idelphi
DelphiFieldEndAccess
p1646
(dp1647
g654
S'items'
p1648
sba(idelphi
DelphiFieldEndAccess
p1649
(dp1650
g654
S'count'
p1651
sbasbsbsg1119
g1120
sg63
(idelphi
DelphiIntegerValue
p1652
(dp1653
g172
S'0'
sbsg761
(idelphi
DelphiCompoundStatement
p1654
(dp1655
g619
(lp1656
(i__main__
DelphiAssignStatement
p1657
(dp1658
g680
(idelphi
DelphiMulOp
p1659
(dp1660
g626
(i__main__
DelphiIdentAccess
p1661
(dp1662
g638
S'KfObject3D'
p1663
sg629
(lp1664
sbsg661
S'as'
p1665
sg663
(i__main__
DelphiIdentAccess
p1666
(dp1667
g638
S'TObject'
p1668
sg629
(lp1669
(idelphi
DelphiFunctionEndAccess
p1670
(dp1671
g631
(lp1672
(i__main__
DelphiIdentAccess
p1673
(dp1674
g638
S'tdos'
p1675
sg629
(lp1676
(idelphi
DelphiFieldEndAccess
p1677
(dp1678
g654
S'items'
p1679
sba(idelphi
DelphiFieldEndAccess
p1680
(dp1681
g654
S'objects'
p1682
sba(idelphi
DelphiArrayEndAccess
p1683
(dp1684
g631
(lp1685
(i__main__
DelphiIdentAccess
p1686
(dp1687
g638
S'i'
sg629
(lp1688
sbasbasbasbasbsbsg684
(i__main__
DelphiIdentAccess
p1689
(dp1690
g638
S'tdo'
p1691
sg629
(lp1692
sbsba(idelphi
DelphiIfStatement
p1693
(dp1694
g623
(idelphi
DelphiRelOp
p1695
(dp1696
g635
(i__main__
DelphiIdentAccess
p1697
(dp1698
g638
S'tdo'
p1699
sg629
(lp1700
sbsg640
(idelphi
DelphiNilValue
p1701
(dp1702
bsg659
S'='
sbsg676
Nsg677
(idelphi
DelphiContinueStatement
p1703
(dp1704
bsba(i__main__
DelphiAssignStatement
p1705
(dp1706
g680
Nsg684
(i__main__
DelphiIdentAccess
p1707
(dp1708
g638
S'tdo'
p1709
sg629
(lp1710
(idelphi
DelphiFieldEndAccess
p1711
(dp1712
g654
S'writeToFileStream'
p1713
sba(idelphi
DelphiFunctionEndAccess
p1714
(dp1715
g631
(lp1716
(i__main__
DelphiIdentAccess
p1717
(dp1718
g638
S'outputFile'
p1719
sg629
(lp1720
sba(i__main__
DelphiIdentAccess
p1721
(dp1722
g638
S'kInTdoLibrary'
p1723
sg629
(lp1724
sbasbasbsbasbsbsba(i__main__
DelphiAssignStatement
p1725
(dp1726
g680
(i__main__
DelphiIdentAccess
p1727
(dp1728
g638
S'true'
p1729
sg629
(lp1730
sbsg684
(i__main__
DelphiIdentAccess
p1731
(dp1732
g638
S'fileInfo'
p1733
sg629
(lp1734
(idelphi
DelphiFieldEndAccess
p1735
(dp1736
g654
S'writingWasSuccessful'
p1737
sbasbsbasS'finallyStatements'
p1738
(lp1739
(i__main__
DelphiAssignStatement
p1740
(dp1741
g680
Nsg684
(i__main__
DelphiIdentAccess
p1742
(dp1743
g638
S'closeFile'
p1744
sg629
(lp1745
(idelphi
DelphiFunctionEndAccess
p1746
(dp1747
g631
(lp1748
(i__main__
DelphiIdentAccess
p1749
(dp1750
g638
S'outputFile'
p1751
sg629
(lp1752
sbasbasbsba(i__main__
DelphiAssignStatement
p1753
(dp1754
g680
Nsg684
(i__main__
DelphiIdentAccess
p1755
(dp1756
g638
S'cleanUpAfterFileSave'
p1757
sg629
(lp1758
(idelphi
DelphiFunctionEndAccess
p1759
(dp1760
g631
(lp1761
(i__main__
DelphiIdentAccess
p1762
(dp1763
g638
S'fileInfo'
p1764
sg629
(lp1765
sbasbasbsba(i__main__
DelphiAssignStatement
p1766
(dp1767
g680
Nsg684
(i__main__
DelphiIdentAccess
p1768
(dp1769
g638
S'setLibraryChanged'
p1770
sg629
(lp1771
(idelphi
DelphiFunctionEndAccess
p1772
(dp1773
g631
(lp1774
(i__main__
DelphiIdentAccess
p1775
(dp1776
g638
S'false'
p1777
sg629
(lp1778
sbasbasbsbasbasbsg692
(lp1779
(i__main__
DelphiVarSection
p1780
(dp1781
g1487
I0
sg1488
(lp1782
(idelphi
DelphiVarDecl
p1783
(dp1784
g1492
Nsg1493
(lp1785
S'fileInfo'
p1786
asg67
(i__main__
DelphiNamedType
p1787
(dp1788
g70
S'SaveFileNamesStructure'
p1789
sg72
g1
sg73
Nsbsba(idelphi
DelphiVarDecl
p1790
(dp1791
g1492
Nsg1493
(lp1792
S'suggestedName'
p1793
asg67
(i__main__
DelphiPrimitiveType
p1794
(dp1795
g70
g172
sbsba(idelphi
DelphiVarDecl
p1796
(dp1797
g1492
Nsg1493
(lp1798
S'outputFile'
p1799
asg67
(i__main__
DelphiNamedType
p1800
(dp1801
g70
S'TextFile'
p1802
sg72
g1
sg73
Nsbsba(idelphi
DelphiVarDecl
p1803
(dp1804
g1492
Nsg1493
(lp1805
S'i'
asg67
(i__main__
DelphiPrimitiveType
p1806
(dp1807
g70
g185
sbsba(idelphi
DelphiVarDecl
p1808
(dp1809
g1492
Nsg1493
(lp1810
S'tdo'
p1811
asg67
(i__main__
DelphiNamedType
p1812
(dp1813
g70
S'KfObject3D'
p1814
sg72
g1
sg73
NsbsbasbasbsbsS'moverclick'
p1815
(i__main__
DelphiMethodImplementation
p1816
(dp1817
g594
g56
sg51
g58
sg59
(lp1818
(i__main__
DelphiFormalParameter
p1819
(dp1820
g63
Nsg64
(lp1821
S'Sender'
p1822
asg67
(i__main__
DelphiNamedType
p1823
(dp1824
g70
S'TObject'
p1825
sg72
g1
sg73
Nsbsg74
Nsbasg601
(lp1826
sg603
(lp1827
sg605
(lp1828
g607
ag1822
asg608
(dp1829
g1822
g1823
ssg75
S'TPickTdoForm'
p1830
sg76
Nsg611
(lp1831
sg77
I0
sg78
g79
sg613
(i__main__
DelphiBlock
p1832
(dp1833
g616
(idelphi
DelphiCompoundStatement
p1834
(dp1835
g619
(lp1836
(idelphi
DelphiIfStatement
p1837
(dp1838
g623
(i__main__
DelphiIdentAccess
p1839
(dp1840
g638
S'libraryChanged'
p1841
sg629
(lp1842
sbsg676
Nsg677
(idelphi
DelphiCompoundStatement
p1843
(dp1844
g619
(lp1845
(i__main__
DelphiAssignStatement
p1846
(dp1847
g680
(i__main__
DelphiIdentAccess
p1848
(dp1849
g638
S'MessageDlg'
p1850
sg629
(lp1851
(idelphi
DelphiFunctionEndAccess
p1852
(dp1853
g631
(lp1854
(idelphi
DelphiAddOp
p1855
(dp1856
g643
S'+'
sg644
(idelphi
DelphiStringAccess
p1857
(dp1858
g629
(lp1859
sg172
(idelphi
DelphiStringValue
p1860
(dp1861
g172
S'If not, they will be lost.'
p1862
sbsbsg647
(idelphi
DelphiAddOp
p1863
(dp1864
g643
S'+'
sg644
(i__main__
DelphiIdentAccess
p1865
(dp1866
g638
S'chr'
p1867
sg629
(lp1868
(idelphi
DelphiFunctionEndAccess
p1869
(dp1870
g631
(lp1871
(idelphi
DelphiIntegerValue
p1872
(dp1873
g172
S'13'
p1874
sbasbasbsg647
(idelphi
DelphiAddOp
p1875
(dp1876
g643
S'+'
sg644
(i__main__
DelphiIdentAccess
p1877
(dp1878
g638
S'chr'
p1879
sg629
(lp1880
(idelphi
DelphiFunctionEndAccess
p1881
(dp1882
g631
(lp1883
(idelphi
DelphiIntegerValue
p1884
(dp1885
g172
S'13'
p1886
sbasbasbsg647
(idelphi
DelphiAddOp
p1887
(dp1888
g643
S'+'
sg644
(idelphi
DelphiStringAccess
p1889
(dp1890
g629
(lp1891
sg172
(idelphi
DelphiStringValue
p1892
(dp1893
g172
S'before you use the 3D object mover?'
p1894
sbsbsg647
(idelphi
DelphiAddOp
p1895
(dp1896
g643
S'+'
sg644
(i__main__
DelphiIdentAccess
p1897
(dp1898
g638
S'chr'
p1899
sg629
(lp1900
(idelphi
DelphiFunctionEndAccess
p1901
(dp1902
g631
(lp1903
(idelphi
DelphiIntegerValue
p1904
(dp1905
g172
S'13'
p1906
sbasbasbsg647
(idelphi
DelphiAddOp
p1907
(dp1908
g643
S'+'
sg644
(i__main__
DelphiIdentAccess
p1909
(dp1910
g638
S'extractFileName'
p1911
sg629
(lp1912
(idelphi
DelphiFunctionEndAccess
p1913
(dp1914
g631
(lp1915
(i__main__
DelphiIdentAccess
p1916
(dp1917
g638
S'domain'
p1918
sg629
(lp1919
(idelphi
DelphiFieldEndAccess
p1920
(dp1921
g654
S'defaultTdoLibraryFileName'
p1922
sbasbasbasbsg647
(idelphi
DelphiStringAccess
p1923
(dp1924
g629
(lp1925
sg172
(idelphi
DelphiStringValue
p1926
(dp1927
g172
S'Do you want to save your changes to '
p1928
sbsbsbsbsbsbsbsba(i__main__
DelphiIdentAccess
p1929
(dp1930
g638
S'mtConfirmation'
p1931
sg629
(lp1932
sba(i__main__
DelphiIdentAccess
p1933
(dp1934
g638
S'mbYesNoCancel'
p1935
sg629
(lp1936
sba(idelphi
DelphiIntegerValue
p1937
(dp1938
g172
S'0'
sbasbasbsg684
(i__main__
DelphiIdentAccess
p1939
(dp1940
g638
S'response'
p1941
sg629
(lp1942
sbsba(idelphi
DelphiCaseStatement
p1943
(dp1944
S'elseStatement'
p1945
Nsg623
(i__main__
DelphiIdentAccess
p1946
(dp1947
g638
S'response'
p1948
sg629
(lp1949
sbsS'caseSelectorList'
p1950
(lp1951
(idelphi
DelphiCaseSelector
p1952
(dp1953
g761
(i__main__
DelphiExitStatement
p1954
(dp1955
g1291
g1816
sbsS'caseLabelList'
p1956
(lp1957
(i__main__
DelphiIdentAccess
p1958
(dp1959
g638
S'idCancel'
p1960
sg629
(lp1961
sbasba(idelphi
DelphiCaseSelector
p1962
(dp1963
g761
(i__main__
DelphiAssignStatement
p1964
(dp1965
g680
Nsg684
(i__main__
DelphiIdentAccess
p1966
(dp1967
g638
S'self'
p1968
sg629
(lp1969
(idelphi
DelphiFieldEndAccess
p1970
(dp1971
g654
S'saveTdosToLibrary'
p1972
sbasbsbsg1956
(lp1973
(i__main__
DelphiIdentAccess
p1974
(dp1975
g638
S'idYes'
p1976
sg629
(lp1977
sbasba(idelphi
DelphiCaseSelector
p1978
(dp1979
g761
Nsg1956
(lp1980
(i__main__
DelphiIdentAccess
p1981
(dp1982
g638
S'idNo'
p1983
sg629
(lp1984
sbasbasbasbsba(i__main__
DelphiAssignStatement
p1985
(dp1986
g680
(i__main__
DelphiIdentAccess
p1987
(dp1988
g638
S'TTdoMoverForm'
p1989
sg629
(lp1990
(idelphi
DelphiFieldEndAccess
p1991
(dp1992
g654
S'create'
p1993
sba(idelphi
DelphiFunctionEndAccess
p1994
(dp1995
g631
(lp1996
(i__main__
DelphiIdentAccess
p1997
(dp1998
g638
S'self'
p1999
sg629
(lp2000
sbasbasbsg684
(i__main__
DelphiIdentAccess
p2001
(dp2002
g638
S'tdoMoverForm'
p2003
sg629
(lp2004
sbsba(idelphi
DelphiIfStatement
p2005
(dp2006
g623
(idelphi
DelphiRelOp
p2007
(dp2008
g635
(i__main__
DelphiIdentAccess
p2009
(dp2010
g638
S'tdoMoverForm'
p2011
sg629
(lp2012
sbsg640
(idelphi
DelphiNilValue
p2013
(dp2014
bsg659
S'='
sbsg676
Nsg677
(idelphi
DelphiRaiseStatement
p2015
(dp2016
g623
(i__main__
DelphiIdentAccess
p2017
(dp2018
g638
S'Exception'
p2019
sg629
(lp2020
(idelphi
DelphiFieldEndAccess
p2021
(dp2022
g654
S'create'
p2023
sba(idelphi
DelphiFunctionEndAccess
p2024
(dp2025
g631
(lp2026
(idelphi
DelphiStringAccess
p2027
(dp2028
g629
(lp2029
sg172
(idelphi
DelphiStringValue
p2030
(dp2031
g172
S'Problem: Could not create 3D object mover window.'
p2032
sbsbasbasbsbsba(idelphi
DelphiTryFinallyStatement
p2033
(dp2034
g1584
(lp2035
(i__main__
DelphiAssignStatement
p2036
(dp2037
g680
Nsg684
(i__main__
DelphiIdentAccess
p2038
(dp2039
g638
S'tdoMoverForm'
p2040
sg629
(lp2041
(idelphi
DelphiFieldEndAccess
p2042
(dp2043
g654
S'showModal'
p2044
sbasbsba(i__main__
DelphiAssignStatement
p2045
(dp2046
g680
Nsg684
(i__main__
DelphiIdentAccess
p2047
(dp2048
g638
S'self'
p2049
sg629
(lp2050
(idelphi
DelphiFieldEndAccess
p2051
(dp2052
g654
S'readTdosFromFile'
p2053
sbasbsba(i__main__
DelphiAssignStatement
p2054
(dp2055
g680
Nsg684
(i__main__
DelphiIdentAccess
p2056
(dp2057
g638
S'self'
p2058
sg629
(lp2059
(idelphi
DelphiFieldEndAccess
p2060
(dp2061
g654
S'selectTdoAtIndex'
p2062
sba(idelphi
DelphiFunctionEndAccess
p2063
(dp2064
g631
(lp2065
(idelphi
DelphiSign
p2066
(dp2067
g1075
(idelphi
DelphiIntegerValue
p2068
(dp2069
g172
S'1'
sbsg1078
S'-'
sbasbasbsbasg1738
(lp2070
(i__main__
DelphiAssignStatement
p2071
(dp2072
g680
Nsg684
(i__main__
DelphiIdentAccess
p2073
(dp2074
g638
S'tdoMoverForm'
p2075
sg629
(lp2076
(idelphi
DelphiFieldEndAccess
p2077
(dp2078
g654
S'free'
p2079
sbasbsba(i__main__
DelphiAssignStatement
p2080
(dp2081
g680
(idelphi
DelphiNilValue
p2082
(dp2083
bsg684
(i__main__
DelphiIdentAccess
p2084
(dp2085
g638
S'tdoMoverForm'
p2086
sg629
(lp2087
sbsbasbasbsg692
(lp2088
(i__main__
DelphiVarSection
p2089
(dp2090
g1487
I0
sg1488
(lp2091
(idelphi
DelphiVarDecl
p2092
(dp2093
g1492
Nsg1493
(lp2094
S'tdoMoverForm'
p2095
asg67
(i__main__
DelphiNamedType
p2096
(dp2097
g70
S'TTdoMoverForm'
p2098
sg72
g1
sg73
Nsbsba(idelphi
DelphiVarDecl
p2099
(dp2100
g1492
Nsg1493
(lp2101
S'response'
p2102
asg67
(i__main__
DelphiPrimitiveType
p2103
(dp2104
g70
g210
sbsbasbasbsbsS'gridselectcell'
p2105
(i__main__
DelphiMethodImplementation
p2106
(dp2107
g594
g192
sg51
g194
sg59
(lp2108
(i__main__
DelphiFormalParameter
p2109
(dp2110
g63
Nsg64
(lp2111
S'Sender'
p2112
asg67
(i__main__
DelphiNamedType
p2113
(dp2114
g70
S'TObject'
p2115
sg72
g1
sg73
Nsbsg74
Nsba(i__main__
DelphiFormalParameter
p2116
(dp2117
g63
Nsg64
(lp2118
S'Col'
p2119
aS'Row'
p2120
asg67
(i__main__
DelphiPrimitiveType
p2121
(dp2122
g70
g210
sbsg74
Nsba(i__main__
DelphiFormalParameter
p2123
(dp2124
g63
Nsg64
(lp2125
S'CanSelect'
p2126
asg67
(i__main__
DelphiPrimitiveType
p2127
(dp2128
g70
g119
sbsg74
g104
sbasg601
(lp2129
I3
asg603
(lp2130
sg605
(lp2131
g607
ag2112
ag2119
ag2120
ag2126
asg608
(dp2132
g2126
g2127
sg2120
g2121
sg2112
g2113
sg2119
g2121
ssg75
S'TPickTdoForm'
p2133
sg76
Nsg611
(lp2134
g2126
asg77
I0
sg78
g79
sg613
(i__main__
DelphiBlock
p2135
(dp2136
g616
(idelphi
DelphiCompoundStatement
p2137
(dp2138
g619
(lp2139
(idelphi
DelphiIfStatement
p2140
(dp2141
g623
(i__main__
DelphiIdentAccess
p2142
(dp2143
g638
S'internalChange'
p2144
sg629
(lp2145
sbsg676
Nsg677
(i__main__
DelphiExitStatement
p2146
(dp2147
g1291
g2106
sbsba(i__main__
DelphiAssignStatement
p2148
(dp2149
g680
(i__main__
DelphiIdentAccess
p2150
(dp2151
g638
S'true'
p2152
sg629
(lp2153
sbsg684
(i__main__
DelphiIdentAccess
p2154
(dp2155
g638
S'tdoSelectionChanged'
p2156
sg629
(lp2157
sbsba(i__main__
DelphiAssignStatement
p2158
(dp2159
g680
Nsg684
(i__main__
DelphiIdentAccess
p2160
(dp2161
g638
S'chooseTdoFromList'
p2162
sg629
(lp2163
(idelphi
DelphiFunctionEndAccess
p2164
(dp2165
g631
(lp2166
(idelphi
DelphiAddOp
p2167
(dp2168
g643
S'+'
sg644
(i__main__
DelphiIdentAccess
p2169
(dp2170
g638
S'col'
p2171
sg629
(lp2172
sbsg647
(idelphi
DelphiMulOp
p2173
(dp2174
g626
(i__main__
DelphiIdentAccess
p2175
(dp2176
g638
S'grid'
p2177
sg629
(lp2178
(idelphi
DelphiFieldEndAccess
p2179
(dp2180
g654
S'colCount'
p2181
sbasbsg661
S'*'
sg663
(i__main__
DelphiIdentAccess
p2182
(dp2183
g638
S'row'
p2184
sg629
(lp2185
sbsbsbasbasbsbasbsg692
(lp2186
sbsbsS'selecttdoatindex'
p2187
(i__main__
DelphiMethodImplementation
p2188
(dp2189
g594
g218
sg51
g220
sg59
(lp2190
(i__main__
DelphiFormalParameter
p2191
(dp2192
g63
Nsg64
(lp2193
S'indexToSelect'
p2194
asg67
(i__main__
DelphiPrimitiveType
p2195
(dp2196
g70
g185
sbsg74
Nsbasg601
(lp2197
sg603
(lp2198
sg605
(lp2199
g607
ag2194
asg608
(dp2200
g2194
g2195
ssg75
S'TPickTdoForm'
p2201
sg76
Nsg611
(lp2202
sg77
I0
sg78
g79
sg613
(i__main__
DelphiBlock
p2203
(dp2204
g616
(idelphi
DelphiCompoundStatement
p2205
(dp2206
g619
(lp2207
(i__main__
DelphiAssignStatement
p2208
(dp2209
g680
Nsg684
(i__main__
DelphiIdentAccess
p2210
(dp2211
g638
S'self'
p2212
sg629
(lp2213
(idelphi
DelphiFieldEndAccess
p2214
(dp2215
g654
S'chooseTdoFromList'
p2216
sba(idelphi
DelphiFunctionEndAccess
p2217
(dp2218
g631
(lp2219
(i__main__
DelphiIdentAccess
p2220
(dp2221
g638
S'indexToSelect'
p2222
sg629
(lp2223
sbasbasbsba(idelphi
DelphiIfStatement
p2224
(dp2225
g623
(idelphi
DelphiAddOp
p2226
(dp2227
g643
S'or'
p2228
sg644
(idelphi
DelphiNestedExpressionListAccess
p2229
(dp2230
g629
(lp2231
sg631
(lp2232
(idelphi
DelphiRelOp
p2233
(dp2234
g635
(i__main__
DelphiIdentAccess
p2235
(dp2236
g638
S'indexToSelect'
p2237
sg629
(lp2238
sbsg640
(idelphi
DelphiAddOp
p2239
(dp2240
g643
S'-'
sg644
(idelphi
DelphiIntegerValue
p2241
(dp2242
g172
S'1'
sbsg647
(i__main__
DelphiIdentAccess
p2243
(dp2244
g638
S'tdos'
p2245
sg629
(lp2246
(idelphi
DelphiFieldEndAccess
p2247
(dp2248
g654
S'items'
p2249
sba(idelphi
DelphiFieldEndAccess
p2250
(dp2251
g654
S'count'
p2252
sbasbsbsg659
S'>'
sbasbsg647
(idelphi
DelphiNestedExpressionListAccess
p2253
(dp2254
g629
(lp2255
sg631
(lp2256
(idelphi
DelphiRelOp
p2257
(dp2258
g635
(i__main__
DelphiIdentAccess
p2259
(dp2260
g638
S'indexToSelect'
p2261
sg629
(lp2262
sbsg640
(idelphi
DelphiIntegerValue
p2263
(dp2264
g172
S'0'
sbsg659
S'<'
sbasbsbsg676
(idelphi
DelphiCompoundStatement
p2265
(dp2266
g619
(lp2267
(i__main__
DelphiAssignStatement
p2268
(dp2269
g680
(idelphi
DelphiMulOp
p2270
(dp2271
g626
(i__main__
DelphiIdentAccess
p2272
(dp2273
g638
S'grid'
p2274
sg629
(lp2275
(idelphi
DelphiFieldEndAccess
p2276
(dp2277
g654
S'colCount'
p2278
sbasbsg661
S'mod'
p2279
sg663
(i__main__
DelphiIdentAccess
p2280
(dp2281
g638
S'indexToSelect'
p2282
sg629
(lp2283
sbsbsg684
(i__main__
DelphiIdentAccess
p2284
(dp2285
g638
S'gridRect'
p2286
sg629
(lp2287
(idelphi
DelphiFieldEndAccess
p2288
(dp2289
g654
S'left'
p2290
sbasbsba(i__main__
DelphiAssignStatement
p2291
(dp2292
g680
(idelphi
DelphiMulOp
p2293
(dp2294
g626
(i__main__
DelphiIdentAccess
p2295
(dp2296
g638
S'grid'
p2297
sg629
(lp2298
(idelphi
DelphiFieldEndAccess
p2299
(dp2300
g654
S'colCount'
p2301
sbasbsg661
g1362
sg663
(i__main__
DelphiIdentAccess
p2302
(dp2303
g638
S'indexToSelect'
p2304
sg629
(lp2305
sbsbsg684
(i__main__
DelphiIdentAccess
p2306
(dp2307
g638
S'gridRect'
p2308
sg629
(lp2309
(idelphi
DelphiFieldEndAccess
p2310
(dp2311
g654
S'top'
p2312
sbasbsbasbsg677
(idelphi
DelphiCompoundStatement
p2313
(dp2314
g619
(lp2315
(i__main__
DelphiAssignStatement
p2316
(dp2317
g680
(idelphi
DelphiSign
p2318
(dp2319
g1075
(idelphi
DelphiIntegerValue
p2320
(dp2321
g172
S'1'
sbsg1078
S'-'
sbsg684
(i__main__
DelphiIdentAccess
p2322
(dp2323
g638
S'gridRect'
p2324
sg629
(lp2325
(idelphi
DelphiFieldEndAccess
p2326
(dp2327
g654
S'left'
p2328
sbasbsba(i__main__
DelphiAssignStatement
p2329
(dp2330
g680
(idelphi
DelphiSign
p2331
(dp2332
g1075
(idelphi
DelphiIntegerValue
p2333
(dp2334
g172
S'1'
sbsg1078
S'-'
sbsg684
(i__main__
DelphiIdentAccess
p2335
(dp2336
g638
S'gridRect'
p2337
sg629
(lp2338
(idelphi
DelphiFieldEndAccess
p2339
(dp2340
g654
S'top'
p2341
sbasbsbasbsba(i__main__
DelphiAssignStatement
p2342
(dp2343
g680
(i__main__
DelphiIdentAccess
p2344
(dp2345
g638
S'gridRect'
p2346
sg629
(lp2347
(idelphi
DelphiFieldEndAccess
p2348
(dp2349
g654
S'left'
p2350
sbasbsg684
(i__main__
DelphiIdentAccess
p2351
(dp2352
g638
S'gridRect'
p2353
sg629
(lp2354
(idelphi
DelphiFieldEndAccess
p2355
(dp2356
g654
S'right'
p2357
sbasbsba(i__main__
DelphiAssignStatement
p2358
(dp2359
g680
(i__main__
DelphiIdentAccess
p2360
(dp2361
g638
S'gridRect'
p2362
sg629
(lp2363
(idelphi
DelphiFieldEndAccess
p2364
(dp2365
g654
S'top'
p2366
sbasbsg684
(i__main__
DelphiIdentAccess
p2367
(dp2368
g638
S'gridRect'
p2369
sg629
(lp2370
(idelphi
DelphiFieldEndAccess
p2371
(dp2372
g654
S'bottom'
p2373
sbasbsba(i__main__
DelphiAssignStatement
p2374
(dp2375
g680
(i__main__
DelphiIdentAccess
p2376
(dp2377
g638
S'gridRect'
p2378
sg629
(lp2379
sbsg684
(i__main__
DelphiIdentAccess
p2380
(dp2381
g638
S'grid'
p2382
sg629
(lp2383
(idelphi
DelphiFieldEndAccess
p2384
(dp2385
g654
S'selection'
p2386
sbasbsba(i__main__
DelphiAssignStatement
p2387
(dp2388
g680
(idelphi
DelphiAddOp
p2389
(dp2390
g643
S'-'
sg644
(idelphi
DelphiIntegerValue
p2391
(dp2392
g172
S'1'
sbsg647
(idelphi
DelphiAddOp
p2393
(dp2394
g643
S'+'
sg644
(i__main__
DelphiIdentAccess
p2395
(dp2396
g638
S'grid'
p2397
sg629
(lp2398
(idelphi
DelphiFieldEndAccess
p2399
(dp2400
g654
S'visibleRowCount'
p2401
sbasbsg647
(i__main__
DelphiIdentAccess
p2402
(dp2403
g638
S'grid'
p2404
sg629
(lp2405
(idelphi
DelphiFieldEndAccess
p2406
(dp2407
g654
S'topRow'
p2408
sbasbsbsbsg684
(i__main__
DelphiIdentAccess
p2409
(dp2410
g638
S'lastRow'
p2411
sg629
(lp2412
sbsg105
(lp2413
S' keep selection in view\r'
p2414
asba(idelphi
DelphiIfStatement
p2415
(dp2416
g623
(idelphi
DelphiRelOp
p2417
(dp2418
g635
(i__main__
DelphiIdentAccess
p2419
(dp2420
g638
S'gridRect'
p2421
sg629
(lp2422
(idelphi
DelphiFieldEndAccess
p2423
(dp2424
g654
S'top'
p2425
sbasbsg640
(i__main__
DelphiIdentAccess
p2426
(dp2427
g638
S'lastRow'
p2428
sg629
(lp2429
sbsg659
S'>'
sbsg676
Nsg677
(i__main__
DelphiAssignStatement
p2430
(dp2431
g680
(idelphi
DelphiAddOp
p2432
(dp2433
g643
S'+'
sg644
(idelphi
DelphiNestedExpressionListAccess
p2434
(dp2435
g629
(lp2436
sg631
(lp2437
(idelphi
DelphiAddOp
p2438
(dp2439
g643
S'-'
sg644
(i__main__
DelphiIdentAccess
p2440
(dp2441
g638
S'lastRow'
p2442
sg629
(lp2443
sbsg647
(i__main__
DelphiIdentAccess
p2444
(dp2445
g638
S'gridRect'
p2446
sg629
(lp2447
(idelphi
DelphiFieldEndAccess
p2448
(dp2449
g654
S'top'
p2450
sbasbsbasbsg647
(i__main__
DelphiIdentAccess
p2451
(dp2452
g638
S'grid'
p2453
sg629
(lp2454
(idelphi
DelphiFieldEndAccess
p2455
(dp2456
g654
S'topRow'
p2457
sbasbsbsg684
(i__main__
DelphiIdentAccess
p2458
(dp2459
g638
S'grid'
p2460
sg629
(lp2461
(idelphi
DelphiFieldEndAccess
p2462
(dp2463
g654
S'topRow'
p2464
sbasbsbsbasbsg692
(lp2465
(i__main__
DelphiVarSection
p2466
(dp2467
g1487
I0
sg1488
(lp2468
(idelphi
DelphiVarDecl
p2469
(dp2470
g1492
Nsg1493
(lp2471
S'gridRect'
p2472
asg67
(i__main__
DelphiNamedType
p2473
(dp2474
g70
S'TGridRect'
p2475
sg72
g1
sg73
Nsbsba(idelphi
DelphiVarDecl
p2476
(dp2477
g1492
Nsg1493
(lp2478
S'lastRow'
p2479
asg67
(i__main__
DelphiPrimitiveType
p2480
(dp2481
g70
g210
sbsbasbasbsbsS'selectedtdo'
p2482
(i__main__
DelphiMethodImplementation
p2483
(dp2484
g594
g229
sg51
g231
sg59
(lp2485
sg601
(lp2486
sg603
(lp2487
sg605
(lp2488
g607
asg608
(dp2489
sg75
S'TPickTdoForm'
p2490
sg76
(i__main__
DelphiNamedType
p2491
(dp2492
g70
S'KfObject3D'
p2493
sg72
g1
sg73
Nsbsg611
(lp2494
sg77
I0
sg78
g173
sg613
(i__main__
DelphiBlock
p2495
(dp2496
g616
(idelphi
DelphiCompoundStatement
p2497
(dp2498
g619
(lp2499
(i__main__
DelphiAssignStatement
p2500
(dp2501
g680
(idelphi
DelphiNilValue
p2502
(dp2503
bsg684
(i__main__
DelphiIdentAccess
p2504
(dp2505
g638
S'result'
p2506
sg629
(lp2507
sbsba(i__main__
DelphiAssignStatement
p2508
(dp2509
g680
(idelphi
DelphiAddOp
p2510
(dp2511
g643
S'+'
sg644
(i__main__
DelphiIdentAccess
p2512
(dp2513
g638
S'grid'
p2514
sg629
(lp2515
(idelphi
DelphiFieldEndAccess
p2516
(dp2517
g654
S'selection'
p2518
sba(idelphi
DelphiFieldEndAccess
p2519
(dp2520
g654
S'left'
p2521
sbasbsg647
(idelphi
DelphiMulOp
p2522
(dp2523
g626
(i__main__
DelphiIdentAccess
p2524
(dp2525
g638
S'grid'
p2526
sg629
(lp2527
(idelphi
DelphiFieldEndAccess
p2528
(dp2529
g654
S'colCount'
p2530
sbasbsg661
S'*'
sg663
(i__main__
DelphiIdentAccess
p2531
(dp2532
g638
S'grid'
p2533
sg629
(lp2534
(idelphi
DelphiFieldEndAccess
p2535
(dp2536
g654
S'selection'
p2537
sba(idelphi
DelphiFieldEndAccess
p2538
(dp2539
g654
S'top'
p2540
sbasbsbsbsg684
(i__main__
DelphiIdentAccess
p2541
(dp2542
g638
g182
sg629
(lp2543
sbsba(idelphi
DelphiIfStatement
p2544
(dp2545
g623
(idelphi
DelphiMulOp
p2546
(dp2547
g626
(idelphi
DelphiNestedExpressionListAccess
p2548
(dp2549
g629
(lp2550
sg631
(lp2551
(idelphi
DelphiRelOp
p2552
(dp2553
g635
(i__main__
DelphiIdentAccess
p2554
(dp2555
g638
g182
sg629
(lp2556
sbsg640
(idelphi
DelphiAddOp
p2557
(dp2558
g643
S'-'
sg644
(idelphi
DelphiIntegerValue
p2559
(dp2560
g172
S'1'
sbsg647
(i__main__
DelphiIdentAccess
p2561
(dp2562
g638
S'tdos'
p2563
sg629
(lp2564
(idelphi
DelphiFieldEndAccess
p2565
(dp2566
g654
S'items'
p2567
sba(idelphi
DelphiFieldEndAccess
p2568
(dp2569
g654
S'count'
p2570
sbasbsbsg659
g660
sbasbsg661
g662
sg663
(idelphi
DelphiNestedExpressionListAccess
p2571
(dp2572
g629
(lp2573
sg631
(lp2574
(idelphi
DelphiRelOp
p2575
(dp2576
g635
(i__main__
DelphiIdentAccess
p2577
(dp2578
g638
g182
sg629
(lp2579
sbsg640
(idelphi
DelphiIntegerValue
p2580
(dp2581
g172
S'0'
sbsg659
g675
sbasbsbsg676
Nsg677
(i__main__
DelphiAssignStatement
p2582
(dp2583
g680
(idelphi
DelphiMulOp
p2584
(dp2585
g626
(i__main__
DelphiIdentAccess
p2586
(dp2587
g638
S'KfObject3D'
p2588
sg629
(lp2589
sbsg661
g1665
sg663
(i__main__
DelphiIdentAccess
p2590
(dp2591
g638
S'TObject'
p2592
sg629
(lp2593
(idelphi
DelphiFunctionEndAccess
p2594
(dp2595
g631
(lp2596
(i__main__
DelphiIdentAccess
p2597
(dp2598
g638
S'tdos'
p2599
sg629
(lp2600
(idelphi
DelphiFieldEndAccess
p2601
(dp2602
g654
S'items'
p2603
sba(idelphi
DelphiFieldEndAccess
p2604
(dp2605
g654
S'objects'
p2606
sba(idelphi
DelphiArrayEndAccess
p2607
(dp2608
g631
(lp2609
(i__main__
DelphiIdentAccess
p2610
(dp2611
g638
g182
sg629
(lp2612
sbasbasbasbasbsbsg684
(i__main__
DelphiIdentAccess
p2613
(dp2614
g638
S'result'
p2615
sg629
(lp2616
sbsbsbasbsg692
(lp2617
(i__main__
DelphiVarSection
p2618
(dp2619
g1487
I0
sg1488
(lp2620
(idelphi
DelphiVarDecl
p2621
(dp2622
g1492
Nsg1493
(lp2623
g182
asg67
(i__main__
DelphiPrimitiveType
p2624
(dp2625
g70
g210
sbsbasbasbsbsS'copytdoclick'
p2626
(i__main__
DelphiMethodImplementation
p2627
(dp2628
g594
g237
sg51
g239
sg59
(lp2629
(i__main__
DelphiFormalParameter
p2630
(dp2631
g63
Nsg64
(lp2632
S'Sender'
p2633
asg67
(i__main__
DelphiNamedType
p2634
(dp2635
g70
S'TObject'
p2636
sg72
g1
sg73
Nsbsg74
Nsbasg601
(lp2637
sg603
(lp2638
sg605
(lp2639
g607
ag2633
asg608
(dp2640
g2633
g2634
ssg75
S'TPickTdoForm'
p2641
sg76
Nsg611
(lp2642
sg77
I0
sg78
g79
sg613
(i__main__
DelphiBlock
p2643
(dp2644
g616
(idelphi
DelphiCompoundStatement
p2645
(dp2646
g619
(lp2647
(idelphi
DelphiIfStatement
p2648
(dp2649
g623
(idelphi
DelphiRelOp
p2650
(dp2651
g635
(i__main__
DelphiIdentAccess
p2652
(dp2653
g638
S'selectedTdo'
p2654
sg629
(lp2655
sbsg640
(idelphi
DelphiNilValue
p2656
(dp2657
bsg659
S'='
sbsg676
Nsg677
(i__main__
DelphiExitStatement
p2658
(dp2659
g1291
g2627
sbsba(i__main__
DelphiAssignStatement
p2660
(dp2661
g680
(idelphi
DelphiAddOp
p2662
(dp2663
g643
S'+'
sg644
(i__main__
DelphiIdentAccess
p2664
(dp2665
g638
S'selectedTdo'
p2666
sg629
(lp2667
(idelphi
DelphiFieldEndAccess
p2668
(dp2669
g654
S'getName'
p2670
sbasbsg647
(idelphi
DelphiStringAccess
p2671
(dp2672
g629
(lp2673
sg172
(idelphi
DelphiStringValue
p2674
(dp2675
g172
S'Copy of '
p2676
sbsbsbsg684
(i__main__
DelphiIdentAccess
p2677
(dp2678
g638
S'newName'
p2679
sg629
(lp2680
sbsba(idelphi
DelphiIfStatement
p2681
(dp2682
g623
(idelphi
DelphiNot
p2683
(dp2684
g1075
(i__main__
DelphiIdentAccess
p2685
(dp2686
g638
S'inputQuery'
p2687
sg629
(lp2688
(idelphi
DelphiFunctionEndAccess
p2689
(dp2690
g631
(lp2691
(idelphi
DelphiStringAccess
p2692
(dp2693
g629
(lp2694
sg172
(idelphi
DelphiStringValue
p2695
(dp2696
g172
S'Enter name for copy'
p2697
sbsba(idelphi
DelphiAddOp
p2698
(dp2699
g643
S'+'
sg644
(i__main__
DelphiIdentAccess
p2700
(dp2701
g638
S'selectedTdo'
p2702
sg629
(lp2703
(idelphi
DelphiFieldEndAccess
p2704
(dp2705
g654
S'getName'
p2706
sbasbsg647
(idelphi
DelphiStringAccess
p2707
(dp2708
g629
(lp2709
sg172
(idelphi
DelphiStringValue
p2710
(dp2711
g172
S'Type a name for the copy of '
p2712
sbsbsba(i__main__
DelphiIdentAccess
p2713
(dp2714
g638
S'newName'
p2715
sg629
(lp2716
sbasbasbsbsg676
Nsg677
(i__main__
DelphiExitStatement
p2717
(dp2718
g1291
g2627
sbsba(i__main__
DelphiAssignStatement
p2719
(dp2720
g680
(i__main__
DelphiIdentAccess
p2721
(dp2722
g638
S'KfObject3D'
p2723
sg629
(lp2724
(idelphi
DelphiFieldEndAccess
p2725
(dp2726
g654
S'create'
p2727
sbasbsg684
(i__main__
DelphiIdentAccess
p2728
(dp2729
g638
S'newTdo'
p2730
sg629
(lp2731
sbsba(i__main__
DelphiAssignStatement
p2732
(dp2733
g680
Nsg684
(i__main__
DelphiIdentAccess
p2734
(dp2735
g638
S'selectedTdo'
p2736
sg629
(lp2737
(idelphi
DelphiFieldEndAccess
p2738
(dp2739
g654
S'copyTo'
p2740
sba(idelphi
DelphiFunctionEndAccess
p2741
(dp2742
g631
(lp2743
(i__main__
DelphiIdentAccess
p2744
(dp2745
g638
S'newTdo'
p2746
sg629
(lp2747
sbasbasbsba(i__main__
DelphiAssignStatement
p2748
(dp2749
g680
Nsg684
(i__main__
DelphiIdentAccess
p2750
(dp2751
g638
S'newTdo'
p2752
sg629
(lp2753
(idelphi
DelphiFieldEndAccess
p2754
(dp2755
g654
S'setName'
p2756
sba(idelphi
DelphiFunctionEndAccess
p2757
(dp2758
g631
(lp2759
(i__main__
DelphiIdentAccess
p2760
(dp2761
g638
S'newName'
p2762
sg629
(lp2763
sbasbasbsba(i__main__
DelphiAssignStatement
p2764
(dp2765
g680
Nsg684
(i__main__
DelphiIdentAccess
p2766
(dp2767
g638
S'tdos'
p2768
sg629
(lp2769
(idelphi
DelphiFieldEndAccess
p2770
(dp2771
g654
S'items'
p2772
sba(idelphi
DelphiFieldEndAccess
p2773
(dp2774
g654
S'addObject'
p2775
sba(idelphi
DelphiFunctionEndAccess
p2776
(dp2777
g631
(lp2778
(i__main__
DelphiIdentAccess
p2779
(dp2780
g638
S'newTdo'
p2781
sg629
(lp2782
(idelphi
DelphiFieldEndAccess
p2783
(dp2784
g654
S'name'
p2785
sbasba(i__main__
DelphiIdentAccess
p2786
(dp2787
g638
S'newTdo'
p2788
sg629
(lp2789
sbasbasbsba(i__main__
DelphiAssignStatement
p2790
(dp2791
g680
(idelphi
DelphiAddOp
p2792
(dp2793
g643
S'+'
sg644
(idelphi
DelphiIntegerValue
p2794
(dp2795
g172
S'1'
sbsg647
(idelphi
DelphiMulOp
p2796
(dp2797
g626
(i__main__
DelphiIdentAccess
p2798
(dp2799
g638
S'grid'
p2800
sg629
(lp2801
(idelphi
DelphiFieldEndAccess
p2802
(dp2803
g654
S'colCount'
p2804
sbasbsg661
g1362
sg663
(i__main__
DelphiIdentAccess
p2805
(dp2806
g638
S'tdos'
p2807
sg629
(lp2808
(idelphi
DelphiFieldEndAccess
p2809
(dp2810
g654
S'items'
p2811
sba(idelphi
DelphiFieldEndAccess
p2812
(dp2813
g654
S'count'
p2814
sbasbsbsbsg684
(i__main__
DelphiIdentAccess
p2815
(dp2816
g638
S'grid'
p2817
sg629
(lp2818
(idelphi
DelphiFieldEndAccess
p2819
(dp2820
g654
S'rowCount'
p2821
sbasbsba(i__main__
DelphiAssignStatement
p2822
(dp2823
g680
Nsg684
(i__main__
DelphiIdentAccess
p2824
(dp2825
g638
S'self'
p2826
sg629
(lp2827
(idelphi
DelphiFieldEndAccess
p2828
(dp2829
g654
S'selectTdoAtIndex'
p2830
sba(idelphi
DelphiFunctionEndAccess
p2831
(dp2832
g631
(lp2833
(idelphi
DelphiAddOp
p2834
(dp2835
g643
S'-'
sg644
(idelphi
DelphiIntegerValue
p2836
(dp2837
g172
S'1'
sbsg647
(i__main__
DelphiIdentAccess
p2838
(dp2839
g638
S'tdos'
p2840
sg629
(lp2841
(idelphi
DelphiFieldEndAccess
p2842
(dp2843
g654
S'items'
p2844
sba(idelphi
DelphiFieldEndAccess
p2845
(dp2846
g654
S'count'
p2847
sbasbsbasbasbsba(i__main__
DelphiAssignStatement
p2848
(dp2849
g680
(idelphi
DelphiAddOp
p2850
(dp2851
g643
S'+'
sg644
(idelphi
DelphiStringAccess
p2852
(dp2853
g629
(lp2854
sg172
(idelphi
DelphiStringValue
p2855
(dp2856
g172
S' object(s)'
p2857
sbsbsg647
(idelphi
DelphiAddOp
p2858
(dp2859
g643
S'+'
sg644
(i__main__
DelphiIdentAccess
p2860
(dp2861
g638
S'intToStr'
p2862
sg629
(lp2863
(idelphi
DelphiFunctionEndAccess
p2864
(dp2865
g631
(lp2866
(i__main__
DelphiIdentAccess
p2867
(dp2868
g638
S'tdos'
p2869
sg629
(lp2870
(idelphi
DelphiFieldEndAccess
p2871
(dp2872
g654
S'items'
p2873
sba(idelphi
DelphiFieldEndAccess
p2874
(dp2875
g654
S'count'
p2876
sbasbasbasbsg647
(idelphi
DelphiStringAccess
p2877
(dp2878
g629
(lp2879
sg172
(idelphi
DelphiStringValue
p2880
(dp2881
g172
S'The current library has '
p2882
sbsbsbsbsg684
(i__main__
DelphiIdentAccess
p2883
(dp2884
g638
S'libraryGroupBox'
p2885
sg629
(lp2886
(idelphi
DelphiFieldEndAccess
p2887
(dp2888
g654
S'caption'
p2889
sbasbsba(i__main__
DelphiAssignStatement
p2890
(dp2891
g680
Nsg684
(i__main__
DelphiIdentAccess
p2892
(dp2893
g638
S'self'
p2894
sg629
(lp2895
(idelphi
DelphiFieldEndAccess
p2896
(dp2897
g654
S'setLibraryChanged'
p2898
sba(idelphi
DelphiFunctionEndAccess
p2899
(dp2900
g631
(lp2901
(i__main__
DelphiIdentAccess
p2902
(dp2903
g638
S'true'
p2904
sg629
(lp2905
sbasbasbsba(i__main__
DelphiAssignStatement
p2906
(dp2907
g680
Nsg684
(i__main__
DelphiIdentAccess
p2908
(dp2909
g638
S'self'
p2910
sg629
(lp2911
(idelphi
DelphiFieldEndAccess
p2912
(dp2913
g654
S'chooseTdoFromList'
p2914
sba(idelphi
DelphiFunctionEndAccess
p2915
(dp2916
g631
(lp2917
(i__main__
DelphiIdentAccess
p2918
(dp2919
g638
S'tdos'
p2920
sg629
(lp2921
(idelphi
DelphiFieldEndAccess
p2922
(dp2923
g654
S'items'
p2924
sba(idelphi
DelphiFieldEndAccess
p2925
(dp2926
g654
S'indexOfObject'
p2927
sba(idelphi
DelphiFunctionEndAccess
p2928
(dp2929
g631
(lp2930
(i__main__
DelphiIdentAccess
p2931
(dp2932
g638
S'selectedTdo'
p2933
sg629
(lp2934
sbasbasbasbasbsbasbsg692
(lp2935
(i__main__
DelphiVarSection
p2936
(dp2937
g1487
I0
sg1488
(lp2938
(idelphi
DelphiVarDecl
p2939
(dp2940
g1492
Nsg1493
(lp2941
S'newTdo'
p2942
asg67
(i__main__
DelphiNamedType
p2943
(dp2944
g70
S'KfObject3D'
p2945
sg72
g1
sg73
Nsbsba(idelphi
DelphiVarDecl
p2946
(dp2947
g1492
Nsg1493
(lp2948
S'newName'
p2949
asg67
(i__main__
DelphiPrimitiveType
p2950
(dp2951
g70
g172
sbsbasbasbsbsS'tdoforindex'
p2952
(i__main__
DelphiMethodImplementation
p2953
(dp2954
g594
g249
sg51
g251
sg59
(lp2955
(i__main__
DelphiFormalParameter
p2956
(dp2957
g63
Nsg64
(lp2958
g182
asg67
(i__main__
DelphiPrimitiveType
p2959
(dp2960
g70
g185
sbsg74
Nsbasg601
(lp2961
sg603
(lp2962
sg605
(lp2963
g607
ag182
asg608
(dp2964
g182
g2959
ssg75
S'TPickTdoForm'
p2965
sg76
(i__main__
DelphiNamedType
p2966
(dp2967
g70
S'KfObject3D'
p2968
sg72
g1
sg73
Nsbsg611
(lp2969
sg77
I0
sg78
g173
sg613
(i__main__
DelphiBlock
p2970
(dp2971
g616
(idelphi
DelphiCompoundStatement
p2972
(dp2973
g619
(lp2974
(i__main__
DelphiAssignStatement
p2975
(dp2976
g680
(idelphi
DelphiNilValue
p2977
(dp2978
bsg684
(i__main__
DelphiIdentAccess
p2979
(dp2980
g638
S'result'
p2981
sg629
(lp2982
sbsba(idelphi
DelphiIfStatement
p2983
(dp2984
g623
(idelphi
DelphiMulOp
p2985
(dp2986
g626
(idelphi
DelphiNestedExpressionListAccess
p2987
(dp2988
g629
(lp2989
sg631
(lp2990
(idelphi
DelphiRelOp
p2991
(dp2992
g635
(i__main__
DelphiIdentAccess
p2993
(dp2994
g638
g182
sg629
(lp2995
sbsg640
(idelphi
DelphiAddOp
p2996
(dp2997
g643
S'-'
sg644
(idelphi
DelphiIntegerValue
p2998
(dp2999
g172
S'1'
sbsg647
(i__main__
DelphiIdentAccess
p3000
(dp3001
g638
S'tdos'
p3002
sg629
(lp3003
(idelphi
DelphiFieldEndAccess
p3004
(dp3005
g654
S'items'
p3006
sba(idelphi
DelphiFieldEndAccess
p3007
(dp3008
g654
S'count'
p3009
sbasbsbsg659
g660
sbasbsg661
g662
sg663
(idelphi
DelphiNestedExpressionListAccess
p3010
(dp3011
g629
(lp3012
sg631
(lp3013
(idelphi
DelphiRelOp
p3014
(dp3015
g635
(i__main__
DelphiIdentAccess
p3016
(dp3017
g638
g182
sg629
(lp3018
sbsg640
(idelphi
DelphiIntegerValue
p3019
(dp3020
g172
S'0'
sbsg659
g675
sbasbsbsg676
Nsg677
(i__main__
DelphiAssignStatement
p3021
(dp3022
g680
(i__main__
DelphiIdentAccess
p3023
(dp3024
g638
S'KfObject3D'
p3025
sg629
(lp3026
(idelphi
DelphiFunctionEndAccess
p3027
(dp3028
g631
(lp3029
(i__main__
DelphiIdentAccess
p3030
(dp3031
g638
S'tdos'
p3032
sg629
(lp3033
(idelphi
DelphiFieldEndAccess
p3034
(dp3035
g654
S'items'
p3036
sba(idelphi
DelphiFieldEndAccess
p3037
(dp3038
g654
S'objects'
p3039
sba(idelphi
DelphiArrayEndAccess
p3040
(dp3041
g631
(lp3042
(i__main__
DelphiIdentAccess
p3043
(dp3044
g638
g182
sg629
(lp3045
sbasbasbasbasbsg684
(i__main__
DelphiIdentAccess
p3046
(dp3047
g638
S'result'
p3048
sg629
(lp3049
sbsbsbasbsg692
(lp3050
sbsbsS'loadnewtdolibrary'
p3051
(i__main__
DelphiMethodImplementation
p3052
(dp3053
g594
g262
sg51
g264
sg59
(lp3054
sg601
(lp3055
sg603
(lp3056
sg605
(lp3057
g607
asg608
(dp3058
sg75
S'TPickTdoForm'
p3059
sg76
Nsg611
(lp3060
sg77
I0
sg78
g79
sg613
(i__main__
DelphiBlock
p3061
(dp3062
g616
(idelphi
DelphiCompoundStatement
p3063
(dp3064
g619
(lp3065
(i__main__
DelphiAssignStatement
p3066
(dp3067
g680
(i__main__
DelphiIdentAccess
p3068
(dp3069
g638
S'getFileOpenInfo'
p3070
sg629
(lp3071
(idelphi
DelphiFunctionEndAccess
p3072
(dp3073
g631
(lp3074
(i__main__
DelphiIdentAccess
p3075
(dp3076
g638
S'kFileTypeTdo'
p3077
sg629
(lp3078
sba(i__main__
DelphiIdentAccess
p3079
(dp3080
g638
S'domain'
p3081
sg629
(lp3082
(idelphi
DelphiFieldEndAccess
p3083
(dp3084
g654
S'defaultTdoLibraryFileName'
p3085
sbasba(idelphi
DelphiStringAccess
p3086
(dp3087
g629
(lp3088
sg172
(idelphi
DelphiStringValue
p3089
(dp3090
g172
S'Choose a 3D object library (tdo) file'
p3091
sbsbasbasbsg684
(i__main__
DelphiIdentAccess
p3092
(dp3093
g638
S'fileNameWithPath'
p3094
sg629
(lp3095
sbsba(idelphi
DelphiIfStatement
p3096
(dp3097
g623
(idelphi
DelphiRelOp
p3098
(dp3099
g635
(i__main__
DelphiIdentAccess
p3100
(dp3101
g638
S'fileNameWithPath'
p3102
sg629
(lp3103
sbsg640
(idelphi
DelphiStringAccess
p3104
(dp3105
g629
(lp3106
sg172
(idelphi
DelphiStringValue
p3107
(dp3108
g172
S''
sbsbsg659
S'='
sbsg676
Nsg677
(i__main__
DelphiExitStatement
p3109
(dp3110
g1291
g3052
sbsba(i__main__
DelphiAssignStatement
p3111
(dp3112
g680
(i__main__
DelphiIdentAccess
p3113
(dp3114
g638
S'fileNameWithPath'
p3115
sg629
(lp3116
sbsg684
(i__main__
DelphiIdentAccess
p3117
(dp3118
g638
S'domain'
p3119
sg629
(lp3120
(idelphi
DelphiFieldEndAccess
p3121
(dp3122
g654
S'defaultTdoLibraryFileName'
p3123
sbasbsba(i__main__
DelphiAssignStatement
p3124
(dp3125
g680
Nsg684
(i__main__
DelphiIdentAccess
p3126
(dp3127
g638
S'self'
p3128
sg629
(lp3129
(idelphi
DelphiFieldEndAccess
p3130
(dp3131
g654
S'readTdosFromFile'
p3132
sbasbsbasbsg692
(lp3133
(i__main__
DelphiVarSection
p3134
(dp3135
g1487
I0
sg1488
(lp3136
(idelphi
DelphiVarDecl
p3137
(dp3138
g1492
Nsg1493
(lp3139
S'fileNameWithPath'
p3140
asg67
(i__main__
DelphiPrimitiveType
p3141
(dp3142
g70
g172
sbsbasbasbsg105
g266
sbsS'deletetdoclick'
p3143
(i__main__
DelphiMethodImplementation
p3144
(dp3145
g594
g269
sg51
g271
sg59
(lp3146
(i__main__
DelphiFormalParameter
p3147
(dp3148
g63
Nsg64
(lp3149
S'Sender'
p3150
asg67
(i__main__
DelphiNamedType
p3151
(dp3152
g70
S'TObject'
p3153
sg72
g1
sg73
Nsbsg74
Nsbasg601
(lp3154
sg603
(lp3155
sg605
(lp3156
g607
ag3150
asg608
(dp3157
g3150
g3151
ssg75
S'TPickTdoForm'
p3158
sg76
Nsg611
(lp3159
sg77
I0
sg78
g79
sg613
(i__main__
DelphiBlock
p3160
(dp3161
g616
(idelphi
DelphiCompoundStatement
p3162
(dp3163
g619
(lp3164
(idelphi
DelphiIfStatement
p3165
(dp3166
g623
(idelphi
DelphiRelOp
p3167
(dp3168
g635
(i__main__
DelphiIdentAccess
p3169
(dp3170
g638
S'selectedTdo'
p3171
sg629
(lp3172
sbsg640
(idelphi
DelphiNilValue
p3173
(dp3174
bsg659
S'='
sbsg676
Nsg677
(i__main__
DelphiExitStatement
p3175
(dp3176
g1291
g3144
sbsba(i__main__
DelphiAssignStatement
p3177
(dp3178
g680
(i__main__
DelphiIdentAccess
p3179
(dp3180
g638
S'selectedTdo'
p3181
sg629
(lp3182
(idelphi
DelphiFieldEndAccess
p3183
(dp3184
g654
S'getName'
p3185
sbasbsg684
(i__main__
DelphiIdentAccess
p3186
(dp3187
g638
S'nameToShow'
p3188
sg629
(lp3189
sbsba(idelphi
DelphiIfStatement
p3190
(dp3191
g623
(idelphi
DelphiRelOp
p3192
(dp3193
g635
(i__main__
DelphiIdentAccess
p3194
(dp3195
g638
S'nameToShow'
p3196
sg629
(lp3197
sbsg640
(idelphi
DelphiStringAccess
p3198
(dp3199
g629
(lp3200
sg172
(idelphi
DelphiStringValue
p3201
(dp3202
g172
S''
sbsbsg659
S'='
sbsg676
Nsg677
(i__main__
DelphiAssignStatement
p3203
(dp3204
g680
(idelphi
DelphiStringAccess
p3205
(dp3206
g629
(lp3207
sg172
(idelphi
DelphiStringValue
p3208
(dp3209
g172
S'[unnamed]'
p3210
sbsbsg684
(i__main__
DelphiIdentAccess
p3211
(dp3212
g638
S'nameToShow'
p3213
sg629
(lp3214
sbsbsba(idelphi
DelphiIfStatement
p3215
(dp3216
g623
(idelphi
DelphiRelOp
p3217
(dp3218
g635
(i__main__
DelphiIdentAccess
p3219
(dp3220
g638
S'MessageDlg'
p3221
sg629
(lp3222
(idelphi
DelphiFunctionEndAccess
p3223
(dp3224
g631
(lp3225
(idelphi
DelphiAddOp
p3226
(dp3227
g643
S'+'
sg644
(idelphi
DelphiStringAccess
p3228
(dp3229
g629
(lp3230
sg172
(idelphi
DelphiStringValue
p3231
(dp3232
g172
S'if you need to get this 3D object back.)'
p3233
sbsbsg647
(idelphi
DelphiAddOp
p3234
(dp3235
g643
S'+'
sg644
(i__main__
DelphiIdentAccess
p3236
(dp3237
g638
S'chr'
p3238
sg629
(lp3239
(idelphi
DelphiFunctionEndAccess
p3240
(dp3241
g631
(lp3242
(idelphi
DelphiIntegerValue
p3243
(dp3244
g172
S'13'
p3245
sbasbasbsg647
(idelphi
DelphiAddOp
p3246
(dp3247
g643
S'+'
sg644
(idelphi
DelphiStringAccess
p3248
(dp3249
g629
(lp3250
sg172
(idelphi
DelphiStringValue
p3251
(dp3252
g172
S'but you can close the window and not save your changes'
p3253
sbsbsg647
(idelphi
DelphiAddOp
p3254
(dp3255
g643
S'+'
sg644
(i__main__
DelphiIdentAccess
p3256
(dp3257
g638
S'chr'
p3258
sg629
(lp3259
(idelphi
DelphiFunctionEndAccess
p3260
(dp3261
g631
(lp3262
(idelphi
DelphiIntegerValue
p3263
(dp3264
g172
S'13'
p3265
sbasbasbsg647
(idelphi
DelphiAddOp
p3266
(dp3267
g643
S'+'
sg644
(idelphi
DelphiStringAccess
p3268
(dp3269
g629
(lp3270
sg172
(idelphi
DelphiStringValue
p3271
(dp3272
g172
S'(You cannot undo this action,'
p3273
sbsbsg647
(idelphi
DelphiAddOp
p3274
(dp3275
g643
S'+'
sg644
(i__main__
DelphiIdentAccess
p3276
(dp3277
g638
S'chr'
p3278
sg629
(lp3279
(idelphi
DelphiFunctionEndAccess
p3280
(dp3281
g631
(lp3282
(idelphi
DelphiIntegerValue
p3283
(dp3284
g172
S'13'
p3285
sbasbasbsg647
(idelphi
DelphiAddOp
p3286
(dp3287
g643
S'+'
sg644
(i__main__
DelphiIdentAccess
p3288
(dp3289
g638
S'chr'
p3290
sg629
(lp3291
(idelphi
DelphiFunctionEndAccess
p3292
(dp3293
g631
(lp3294
(idelphi
DelphiIntegerValue
p3295
(dp3296
g172
S'13'
p3297
sbasbasbsg647
(idelphi
DelphiAddOp
p3298
(dp3299
g643
S'+'
sg644
(idelphi
DelphiStringAccess
p3300
(dp3301
g629
(lp3302
sg172
(idelphi
DelphiStringValue
p3303
(dp3304
g172
S'?'
sbsbsg647
(idelphi
DelphiAddOp
p3305
(dp3306
g643
S'+'
sg644
(i__main__
DelphiIdentAccess
p3307
(dp3308
g638
S'nameToShow'
p3309
sg629
(lp3310
sbsg647
(idelphi
DelphiStringAccess
p3311
(dp3312
g629
(lp3313
sg172
(idelphi
DelphiStringValue
p3314
(dp3315
g172
S'Really delete the 3D object named '
p3316
sbsbsbsbsbsbsbsbsbsbsba(i__main__
DelphiIdentAccess
p3317
(dp3318
g638
S'mtConfirmation'
p3319
sg629
(lp3320
sba(idelphi
DelphiSetConstructor
p3321
(dp3322
g1273
(lp3323
(i__main__
DelphiIdentAccess
p3324
(dp3325
g638
S'mbYes'
p3326
sg629
(lp3327
sba(i__main__
DelphiIdentAccess
p3328
(dp3329
g638
S'mbNo'
p3330
sg629
(lp3331
sbasba(idelphi
DelphiIntegerValue
p3332
(dp3333
g172
S'0'
sbasbasbsg640
(i__main__
DelphiIdentAccess
p3334
(dp3335
g638
S'IDNO'
p3336
sg629
(lp3337
sbsg659
S'='
sbsg676
Nsg677
(i__main__
DelphiExitStatement
p3338
(dp3339
g1291
g3144
sbsba(i__main__
DelphiAssignStatement
p3340
(dp3341
g680
(i__main__
DelphiIdentAccess
p3342
(dp3343
g638
S'tdos'
p3344
sg629
(lp3345
(idelphi
DelphiFieldEndAccess
p3346
(dp3347
g654
S'items'
p3348
sba(idelphi
DelphiFieldEndAccess
p3349
(dp3350
g654
S'indexOfObject'
p3351
sba(idelphi
DelphiFunctionEndAccess
p3352
(dp3353
g631
(lp3354
(i__main__
DelphiIdentAccess
p3355
(dp3356
g638
S'selectedTdo'
p3357
sg629
(lp3358
sbasbasbsg684
(i__main__
DelphiIdentAccess
p3359
(dp3360
g638
S'oldIndex'
p3361
sg629
(lp3362
sbsba(i__main__
DelphiAssignStatement
p3363
(dp3364
g680
Nsg684
(i__main__
DelphiIdentAccess
p3365
(dp3366
g638
S'tdos'
p3367
sg629
(lp3368
(idelphi
DelphiFieldEndAccess
p3369
(dp3370
g654
S'items'
p3371
sba(idelphi
DelphiFieldEndAccess
p3372
(dp3373
g654
S'delete'
p3374
sba(idelphi
DelphiFunctionEndAccess
p3375
(dp3376
g631
(lp3377
(i__main__
DelphiIdentAccess
p3378
(dp3379
g638
S'oldIndex'
p3380
sg629
(lp3381
sbasbasbsba(i__main__
DelphiAssignStatement
p3382
(dp3383
g680
(idelphi
DelphiAddOp
p3384
(dp3385
g643
S'+'
sg644
(idelphi
DelphiIntegerValue
p3386
(dp3387
g172
S'1'
sbsg647
(idelphi
DelphiMulOp
p3388
(dp3389
g626
(i__main__
DelphiIdentAccess
p3390
(dp3391
g638
S'grid'
p3392
sg629
(lp3393
(idelphi
DelphiFieldEndAccess
p3394
(dp3395
g654
S'colCount'
p3396
sbasbsg661
g1362
sg663
(i__main__
DelphiIdentAccess
p3397
(dp3398
g638
S'tdos'
p3399
sg629
(lp3400
(idelphi
DelphiFieldEndAccess
p3401
(dp3402
g654
S'items'
p3403
sba(idelphi
DelphiFieldEndAccess
p3404
(dp3405
g654
S'count'
p3406
sbasbsbsbsg684
(i__main__
DelphiIdentAccess
p3407
(dp3408
g638
S'grid'
p3409
sg629
(lp3410
(idelphi
DelphiFieldEndAccess
p3411
(dp3412
g654
S'rowCount'
p3413
sbasbsba(i__main__
DelphiAssignStatement
p3414
(dp3415
g680
Nsg684
(i__main__
DelphiIdentAccess
p3416
(dp3417
g638
S'self'
p3418
sg629
(lp3419
(idelphi
DelphiFieldEndAccess
p3420
(dp3421
g654
S'selectTdoAtIndex'
p3422
sba(idelphi
DelphiFunctionEndAccess
p3423
(dp3424
g631
(lp3425
(i__main__
DelphiIdentAccess
p3426
(dp3427
g638
S'oldIndex'
p3428
sg629
(lp3429
sbasbasbsba(i__main__
DelphiAssignStatement
p3430
(dp3431
g680
(idelphi
DelphiAddOp
p3432
(dp3433
g643
S'+'
sg644
(idelphi
DelphiStringAccess
p3434
(dp3435
g629
(lp3436
sg172
(idelphi
DelphiStringValue
p3437
(dp3438
g172
S' object(s)'
p3439
sbsbsg647
(idelphi
DelphiAddOp
p3440
(dp3441
g643
S'+'
sg644
(i__main__
DelphiIdentAccess
p3442
(dp3443
g638
S'intToStr'
p3444
sg629
(lp3445
(idelphi
DelphiFunctionEndAccess
p3446
(dp3447
g631
(lp3448
(i__main__
DelphiIdentAccess
p3449
(dp3450
g638
S'tdos'
p3451
sg629
(lp3452
(idelphi
DelphiFieldEndAccess
p3453
(dp3454
g654
S'items'
p3455
sba(idelphi
DelphiFieldEndAccess
p3456
(dp3457
g654
S'count'
p3458
sbasbasbasbsg647
(idelphi
DelphiStringAccess
p3459
(dp3460
g629
(lp3461
sg172
(idelphi
DelphiStringValue
p3462
(dp3463
g172
S'The current library has '
p3464
sbsbsbsbsg684
(i__main__
DelphiIdentAccess
p3465
(dp3466
g638
S'libraryGroupBox'
p3467
sg629
(lp3468
(idelphi
DelphiFieldEndAccess
p3469
(dp3470
g654
S'caption'
p3471
sbasbsba(i__main__
DelphiAssignStatement
p3472
(dp3473
g680
Nsg684
(i__main__
DelphiIdentAccess
p3474
(dp3475
g638
S'self'
p3476
sg629
(lp3477
(idelphi
DelphiFieldEndAccess
p3478
(dp3479
g654
S'setLibraryChanged'
p3480
sba(idelphi
DelphiFunctionEndAccess
p3481
(dp3482
g631
(lp3483
(i__main__
DelphiIdentAccess
p3484
(dp3485
g638
S'true'
p3486
sg629
(lp3487
sbasbasbsba(i__main__
DelphiAssignStatement
p3488
(dp3489
g680
Nsg684
(i__main__
DelphiIdentAccess
p3490
(dp3491
g638
S'self'
p3492
sg629
(lp3493
(idelphi
DelphiFieldEndAccess
p3494
(dp3495
g654
S'chooseTdoFromList'
p3496
sba(idelphi
DelphiFunctionEndAccess
p3497
(dp3498
g631
(lp3499
(i__main__
DelphiIdentAccess
p3500
(dp3501
g638
S'tdos'
p3502
sg629
(lp3503
(idelphi
DelphiFieldEndAccess
p3504
(dp3505
g654
S'items'
p3506
sba(idelphi
DelphiFieldEndAccess
p3507
(dp3508
g654
S'indexOfObject'
p3509
sba(idelphi
DelphiFunctionEndAccess
p3510
(dp3511
g631
(lp3512
(i__main__
DelphiIdentAccess
p3513
(dp3514
g638
S'selectedTdo'
p3515
sg629
(lp3516
sbasbasbasbasbsba(i__main__
DelphiAssignStatement
p3517
(dp3518
g680
Nsg684
(i__main__
DelphiIdentAccess
p3519
(dp3520
g638
S'grid'
p3521
sg629
(lp3522
(idelphi
DelphiFieldEndAccess
p3523
(dp3524
g654
S'invalidate'
p3525
sbasbsbasbsg692
(lp3526
(i__main__
DelphiVarSection
p3527
(dp3528
g1487
I0
sg1488
(lp3529
(idelphi
DelphiVarDecl
p3530
(dp3531
g1492
Nsg1493
(lp3532
S'oldIndex'
p3533
asg67
(i__main__
DelphiPrimitiveType
p3534
(dp3535
g70
g210
sbsba(idelphi
DelphiVarDecl
p3536
(dp3537
g1492
Nsg1493
(lp3538
S'nameToShow'
p3539
asg67
(i__main__
DelphiPrimitiveType
p3540
(dp3541
g70
g172
sbsbasbasbsbsS'readtdosfromfile'
p3542
(i__main__
DelphiMethodImplementation
p3543
(dp3544
g594
g281
sg51
g283
sg59
(lp3545
sg601
(lp3546
sg603
(lp3547
sg605
(lp3548
g607
asg608
(dp3549
sg75
S'TPickTdoForm'
p3550
sg76
(i__main__
DelphiPrimitiveType
p3551
(dp3552
g70
g119
sbsg611
(lp3553
sg77
I0
sg78
g173
sg613
(i__main__
DelphiBlock
p3554
(dp3555
g616
(idelphi
DelphiCompoundStatement
p3556
(dp3557
g619
(lp3558
(i__main__
DelphiAssignStatement
p3559
(dp3560
g680
(i__main__
DelphiIdentAccess
p3561
(dp3562
g638
S'true'
p3563
sg629
(lp3564
sbsg684
(i__main__
DelphiIdentAccess
p3565
(dp3566
g638
S'result'
p3567
sg629
(lp3568
sbsg105
(lp3569
S' returns false if file could not be found and user canceled finding another\r'
p3570
asba(i__main__
DelphiAssignStatement
p3571
(dp3572
g680
Nsg684
(i__main__
DelphiIdentAccess
p3573
(dp3574
g638
S'tdos'
p3575
sg629
(lp3576
(idelphi
DelphiFieldEndAccess
p3577
(dp3578
g654
S'clear'
p3579
sbasbsba(idelphi
DelphiIfStatement
p3580
(dp3581
g623
(idelphi
DelphiRelOp
p3582
(dp3583
g635
(i__main__
DelphiIdentAccess
p3584
(dp3585
g638
S'domain'
p3586
sg629
(lp3587
sbsg640
(idelphi
DelphiNilValue
p3588
(dp3589
bsg659
S'='
sbsg676
Nsg677
(i__main__
DelphiExitStatement
p3590
(dp3591
g1291
g3543
sbsba(idelphi
DelphiIfStatement
p3592
(dp3593
g623
(idelphi
DelphiNot
p3594
(dp3595
g1075
(i__main__
DelphiIdentAccess
p3596
(dp3597
g638
S'domain'
p3598
sg629
(lp3599
(idelphi
DelphiFieldEndAccess
p3600
(dp3601
g654
S'checkForExistingDefaultTdoLibrary'
p3602
sbasbsbsg676
Nsg677
(idelphi
DelphiCompoundStatement
p3603
(dp3604
g619
(lp3605
(i__main__
DelphiAssignStatement
p3606
(dp3607
g680
(i__main__
DelphiIdentAccess
p3608
(dp3609
g638
S'false'
p3610
sg629
(lp3611
sbsg684
(i__main__
DelphiIdentAccess
p3612
(dp3613
g638
S'result'
p3614
sg629
(lp3615
sbsba(i__main__
DelphiExitStatement
p3616
(dp3617
g1291
g3543
sbasbsba(i__main__
DelphiAssignStatement
p3618
(dp3619
g680
Nsg684
(i__main__
DelphiIdentAccess
p3620
(dp3621
g638
S'assignFile'
p3622
sg629
(lp3623
(idelphi
DelphiFunctionEndAccess
p3624
(dp3625
g631
(lp3626
(i__main__
DelphiIdentAccess
p3627
(dp3628
g638
S'inputFile'
p3629
sg629
(lp3630
sba(i__main__
DelphiIdentAccess
p3631
(dp3632
g638
S'domain'
p3633
sg629
(lp3634
(idelphi
DelphiFieldEndAccess
p3635
(dp3636
g654
S'defaultTdoLibraryFileName'
p3637
sbasbasbasbsba(idelphi
DelphiTryFinallyStatement
p3638
(dp3639
g1584
(lp3640
(i__main__
DelphiAssignStatement
p3641
(dp3642
g680
Nsg684
(i__main__
DelphiIdentAccess
p3643
(dp3644
g638
S'setDecimalSeparator'
p3645
sg629
(lp3646
sbsg105
(lp3647
S' v1.5\r'
p3648
asba(i__main__
DelphiAssignStatement
p3649
(dp3650
g680
Nsg684
(i__main__
DelphiIdentAccess
p3651
(dp3652
g638
S'reset'
p3653
sg629
(lp3654
(idelphi
DelphiFunctionEndAccess
p3655
(dp3656
g631
(lp3657
(i__main__
DelphiIdentAccess
p3658
(dp3659
g638
S'inputFile'
p3660
sg629
(lp3661
sbasbasbsba(idelphi
DelphiWhileStatement
p3662
(dp3663
g761
(idelphi
DelphiCompoundStatement
p3664
(dp3665
g619
(lp3666
(i__main__
DelphiAssignStatement
p3667
(dp3668
g680
(i__main__
DelphiIdentAccess
p3669
(dp3670
g638
S'KfObject3D'
p3671
sg629
(lp3672
(idelphi
DelphiFieldEndAccess
p3673
(dp3674
g654
S'create'
p3675
sbasbsg684
(i__main__
DelphiIdentAccess
p3676
(dp3677
g638
S'newTdo'
p3678
sg629
(lp3679
sbsba(i__main__
DelphiAssignStatement
p3680
(dp3681
g680
Nsg684
(i__main__
DelphiIdentAccess
p3682
(dp3683
g638
S'newTdo'
p3684
sg629
(lp3685
(idelphi
DelphiFieldEndAccess
p3686
(dp3687
g654
S'readFromFileStream'
p3688
sba(idelphi
DelphiFunctionEndAccess
p3689
(dp3690
g631
(lp3691
(i__main__
DelphiIdentAccess
p3692
(dp3693
g638
S'inputFile'
p3694
sg629
(lp3695
sba(i__main__
DelphiIdentAccess
p3696
(dp3697
g638
S'kInTdoLibrary'
p3698
sg629
(lp3699
sbasbasbsba(i__main__
DelphiAssignStatement
p3700
(dp3701
g680
Nsg684
(i__main__
DelphiIdentAccess
p3702
(dp3703
g638
S'tdos'
p3704
sg629
(lp3705
(idelphi
DelphiFieldEndAccess
p3706
(dp3707
g654
S'items'
p3708
sba(idelphi
DelphiFieldEndAccess
p3709
(dp3710
g654
S'addObject'
p3711
sba(idelphi
DelphiFunctionEndAccess
p3712
(dp3713
g631
(lp3714
(i__main__
DelphiIdentAccess
p3715
(dp3716
g638
S'newTdo'
p3717
sg629
(lp3718
(idelphi
DelphiFieldEndAccess
p3719
(dp3720
g654
S'name'
p3721
sbasba(i__main__
DelphiIdentAccess
p3722
(dp3723
g638
S'newTdo'
p3724
sg629
(lp3725
sbasbasbsbasbsS'whileExpression'
p3726
(idelphi
DelphiNot
p3727
(dp3728
g1075
(i__main__
DelphiIdentAccess
p3729
(dp3730
g638
S'eof'
p3731
sg629
(lp3732
(idelphi
DelphiFunctionEndAccess
p3733
(dp3734
g631
(lp3735
(i__main__
DelphiIdentAccess
p3736
(dp3737
g638
S'inputFile'
p3738
sg629
(lp3739
sbasbasbsbsbasg1738
(lp3740
(i__main__
DelphiAssignStatement
p3741
(dp3742
g680
Nsg684
(i__main__
DelphiIdentAccess
p3743
(dp3744
g638
S'closeFile'
p3745
sg629
(lp3746
(idelphi
DelphiFunctionEndAccess
p3747
(dp3748
g631
(lp3749
(i__main__
DelphiIdentAccess
p3750
(dp3751
g638
S'inputFile'
p3752
sg629
(lp3753
sbasbasbsba(i__main__
DelphiAssignStatement
p3754
(dp3755
g680
(idelphi
DelphiAddOp
p3756
(dp3757
g643
S'+'
sg644
(idelphi
DelphiIntegerValue
p3758
(dp3759
g172
S'1'
sbsg647
(idelphi
DelphiMulOp
p3760
(dp3761
g626
(i__main__
DelphiIdentAccess
p3762
(dp3763
g638
S'grid'
p3764
sg629
(lp3765
(idelphi
DelphiFieldEndAccess
p3766
(dp3767
g654
S'colCount'
p3768
sbasbsg661
g1362
sg663
(i__main__
DelphiIdentAccess
p3769
(dp3770
g638
S'tdos'
p3771
sg629
(lp3772
(idelphi
DelphiFieldEndAccess
p3773
(dp3774
g654
S'items'
p3775
sba(idelphi
DelphiFieldEndAccess
p3776
(dp3777
g654
S'count'
p3778
sbasbsbsbsg684
(i__main__
DelphiIdentAccess
p3779
(dp3780
g638
S'grid'
p3781
sg629
(lp3782
(idelphi
DelphiFieldEndAccess
p3783
(dp3784
g654
S'rowCount'
p3785
sbasbsba(i__main__
DelphiAssignStatement
p3786
(dp3787
g680
(idelphi
DelphiAddOp
p3788
(dp3789
g643
S'+'
sg644
(idelphi
DelphiStringAccess
p3790
(dp3791
g629
(lp3792
sg172
(idelphi
DelphiStringValue
p3793
(dp3794
g172
S' object(s)'
p3795
sbsbsg647
(idelphi
DelphiAddOp
p3796
(dp3797
g643
S'+'
sg644
(i__main__
DelphiIdentAccess
p3798
(dp3799
g638
S'intToStr'
p3800
sg629
(lp3801
(idelphi
DelphiFunctionEndAccess
p3802
(dp3803
g631
(lp3804
(i__main__
DelphiIdentAccess
p3805
(dp3806
g638
S'tdos'
p3807
sg629
(lp3808
(idelphi
DelphiFieldEndAccess
p3809
(dp3810
g654
S'items'
p3811
sba(idelphi
DelphiFieldEndAccess
p3812
(dp3813
g654
S'count'
p3814
sbasbasbasbsg647
(idelphi
DelphiStringAccess
p3815
(dp3816
g629
(lp3817
sg172
(idelphi
DelphiStringValue
p3818
(dp3819
g172
S'The current library has '
p3820
sbsbsbsbsg684
(i__main__
DelphiIdentAccess
p3821
(dp3822
g638
S'libraryGroupBox'
p3823
sg629
(lp3824
(idelphi
DelphiFieldEndAccess
p3825
(dp3826
g654
S'caption'
p3827
sbasbsbasbasbsg692
(lp3828
(i__main__
DelphiVarSection
p3829
(dp3830
g1487
I0
sg1488
(lp3831
(idelphi
DelphiVarDecl
p3832
(dp3833
g1492
Nsg1493
(lp3834
S'newTdo'
p3835
asg67
(i__main__
DelphiNamedType
p3836
(dp3837
g70
S'KfObject3D'
p3838
sg72
g1
sg73
Nsbsba(idelphi
DelphiVarDecl
p3839
(dp3840
g1492
Nsg1493
(lp3841
S'inputFile'
p3842
asg67
(i__main__
DelphiNamedType
p3843
(dp3844
g70
S'TextFile'
p3845
sg72
g1
sg73
NsbsbasbasbsbsS'griddrawcell'
p3846
(i__main__
DelphiMethodImplementation
p3847
(dp3848
g594
g288
sg51
g290
sg59
(lp3849
(i__main__
DelphiFormalParameter
p3850
(dp3851
g63
Nsg64
(lp3852
S'Sender'
p3853
asg67
(i__main__
DelphiNamedType
p3854
(dp3855
g70
S'TObject'
p3856
sg72
g1
sg73
Nsbsg74
Nsba(i__main__
DelphiFormalParameter
p3857
(dp3858
g63
Nsg64
(lp3859
S'Col'
p3860
aS'Row'
p3861
asg67
(i__main__
DelphiPrimitiveType
p3862
(dp3863
g70
g210
sbsg74
Nsba(i__main__
DelphiFormalParameter
p3864
(dp3865
g63
Nsg64
(lp3866
S'Rect'
p3867
asg67
(i__main__
DelphiNamedType
p3868
(dp3869
g70
S'TRect'
p3870
sg72
g1
sg73
Nsbsg74
Nsba(i__main__
DelphiFormalParameter
p3871
(dp3872
g63
Nsg64
(lp3873
S'State'
p3874
asg67
(i__main__
DelphiNamedType
p3875
(dp3876
g70
S'TGridDrawState'
p3877
sg72
g1
sg73
Nsbsg74
Nsbasg601
(lp3878
sg603
(lp3879
sg605
(lp3880
g607
ag3853
ag3860
ag3861
ag3867
ag3874
asg608
(dp3881
g3874
g3875
sg3861
g3862
sg3853
g3854
sg3867
g3868
sg3860
g3862
ssg75
S'TPickTdoForm'
p3882
sg76
Nsg611
(lp3883
sg77
I0
sg78
g79
sg613
(i__main__
DelphiBlock
p3884
(dp3885
g616
(idelphi
DelphiCompoundStatement
p3886
(dp3887
g619
(lp3888
(i__main__
DelphiAssignStatement
p3889
(dp3890
g680
(i__main__
DelphiIdentAccess
p3891
(dp3892
g638
S'grid'
p3893
sg629
(lp3894
(idelphi
DelphiFieldEndAccess
p3895
(dp3896
g654
S'color'
p3897
sbasbsg684
(i__main__
DelphiIdentAccess
p3898
(dp3899
g638
S'grid'
p3900
sg629
(lp3901
(idelphi
DelphiFieldEndAccess
p3902
(dp3903
g654
S'canvas'
p3904
sba(idelphi
DelphiFieldEndAccess
p3905
(dp3906
g654
S'brush'
p3907
sba(idelphi
DelphiFieldEndAccess
p3908
(dp3909
g654
S'color'
p3910
sbasbsba(i__main__
DelphiAssignStatement
p3911
(dp3912
g680
(i__main__
DelphiIdentAccess
p3913
(dp3914
g638
S'psClear'
p3915
sg629
(lp3916
sbsg684
(i__main__
DelphiIdentAccess
p3917
(dp3918
g638
S'grid'
p3919
sg629
(lp3920
(idelphi
DelphiFieldEndAccess
p3921
(dp3922
g654
S'canvas'
p3923
sba(idelphi
DelphiFieldEndAccess
p3924
(dp3925
g654
S'pen'
p3926
sba(idelphi
DelphiFieldEndAccess
p3927
(dp3928
g654
S'style'
p3929
sbasbsba(i__main__
DelphiAssignStatement
p3930
(dp3931
g680
Nsg684
(i__main__
DelphiIdentAccess
p3932
(dp3933
g638
S'grid'
p3934
sg629
(lp3935
(idelphi
DelphiFieldEndAccess
p3936
(dp3937
g654
S'canvas'
p3938
sba(idelphi
DelphiFieldEndAccess
p3939
(dp3940
g654
S'fillRect'
p3941
sba(idelphi
DelphiFunctionEndAccess
p3942
(dp3943
g631
(lp3944
(i__main__
DelphiIdentAccess
p3945
(dp3946
g638
S'rect'
p3947
sg629
(lp3948
sbasbasbsba(i__main__
DelphiAssignStatement
p3949
(dp3950
g680
(idelphi
DelphiRelOp
p3951
(dp3952
g635
(i__main__
DelphiIdentAccess
p3953
(dp3954
g638
S'gdSelected'
p3955
sg629
(lp3956
sbsg640
(i__main__
DelphiIdentAccess
p3957
(dp3958
g638
S'state'
p3959
sg629
(lp3960
sbsg659
S'in'
p3961
sbsg684
(i__main__
DelphiIdentAccess
p3962
(dp3963
g638
S'selected'
p3964
sg629
(lp3965
sbsba(i__main__
DelphiAssignStatement
p3966
(dp3967
g680
(idelphi
DelphiNilValue
p3968
(dp3969
bsg684
(i__main__
DelphiIdentAccess
p3970
(dp3971
g638
S'tdo'
p3972
sg629
(lp3973
sbsba(i__main__
DelphiAssignStatement
p3974
(dp3975
g680
(idelphi
DelphiAddOp
p3976
(dp3977
g643
S'+'
sg644
(i__main__
DelphiIdentAccess
p3978
(dp3979
g638
S'col'
p3980
sg629
(lp3981
sbsg647
(idelphi
DelphiMulOp
p3982
(dp3983
g626
(i__main__
DelphiIdentAccess
p3984
(dp3985
g638
S'grid'
p3986
sg629
(lp3987
(idelphi
DelphiFieldEndAccess
p3988
(dp3989
g654
S'colCount'
p3990
sbasbsg661
S'*'
sg663
(i__main__
DelphiIdentAccess
p3991
(dp3992
g638
S'row'
p3993
sg629
(lp3994
sbsbsbsg684
(i__main__
DelphiIdentAccess
p3995
(dp3996
g638
g182
sg629
(lp3997
sbsba(i__main__
DelphiAssignStatement
p3998
(dp3999
g680
(i__main__
DelphiIdentAccess
p4000
(dp4001
g638
S'self'
p4002
sg629
(lp4003
(idelphi
DelphiFieldEndAccess
p4004
(dp4005
g654
S'tdoForIndex'
p4006
sba(idelphi
DelphiFunctionEndAccess
p4007
(dp4008
g631
(lp4009
(i__main__
DelphiIdentAccess
p4010
(dp4011
g638
g182
sg629
(lp4012
sbasbasbsg684
(i__main__
DelphiIdentAccess
p4013
(dp4014
g638
S'tdo'
p4015
sg629
(lp4016
sbsba(idelphi
DelphiIfStatement
p4017
(dp4018
g623
(idelphi
DelphiRelOp
p4019
(dp4020
g635
(i__main__
DelphiIdentAccess
p4021
(dp4022
g638
S'tdo'
p4023
sg629
(lp4024
sbsg640
(idelphi
DelphiNilValue
p4025
(dp4026
bsg659
S'='
sbsg676
Nsg677
(i__main__
DelphiExitStatement
p4027
(dp4028
g1291
g3847
sbsba(i__main__
DelphiAssignStatement
p4029
(dp4030
g680
(i__main__
DelphiIdentAccess
p4031
(dp4032
g638
S'KfTurtle'
p4033
sg629
(lp4034
(idelphi
DelphiFieldEndAccess
p4035
(dp4036
g654
S'defaultStartUsing'
p4037
sbasbsg684
(i__main__
DelphiIdentAccess
p4038
(dp4039
g638
S'turtle'
p4040
sg629
(lp4041
sbsg105
(lp4042
S' draw tdo '
p4043
asba(i__main__
DelphiAssignStatement
p4044
(dp4045
g680
(i__main__
DelphiIdentAccess
p4046
(dp4047
g638
S'TBitmap'
p4048
sg629
(lp4049
(idelphi
DelphiFieldEndAccess
p4050
(dp4051
g654
S'create'
p4052
sbasbsg684
(i__main__
DelphiIdentAccess
p4053
(dp4054
g638
S'bitmap'
p4055
sg629
(lp4056
sbsba(idelphi
DelphiTryExceptStatement
p4057
(dp4058
g1584
(lp4059
(i__main__
DelphiAssignStatement
p4060
(dp4061
g680
(i__main__
DelphiIdentAccess
p4062
(dp4063
g638
S'grid'
p4064
sg629
(lp4065
(idelphi
DelphiFieldEndAccess
p4066
(dp4067
g654
S'defaultColWidth'
p4068
sbasbsg684
(i__main__
DelphiIdentAccess
p4069
(dp4070
g638
S'bitmap'
p4071
sg629
(lp4072
(idelphi
DelphiFieldEndAccess
p4073
(dp4074
g654
S'width'
p4075
sbasbsba(i__main__
DelphiAssignStatement
p4076
(dp4077
g680
(i__main__
DelphiIdentAccess
p4078
(dp4079
g638
S'grid'
p4080
sg629
(lp4081
(idelphi
DelphiFieldEndAccess
p4082
(dp4083
g654
S'defaultRowHeight'
p4084
sbasbsg684
(i__main__
DelphiIdentAccess
p4085
(dp4086
g638
S'bitmap'
p4087
sg629
(lp4088
(idelphi
DelphiFieldEndAccess
p4089
(dp4090
g654
S'height'
p4091
sbasbsbasS'exceptionHandlers'
p4092
(idelphi
DelphiExceptionHandlers
p4093
(dp4094
S'exceptionHandlerList'
p4095
NsS'statementList'
p4096
(lp4097
(i__main__
DelphiAssignStatement
p4098
(dp4099
g680
(idelphi
DelphiIntegerValue
p4100
(dp4101
g172
S'1'
sbsg684
(i__main__
DelphiIdentAccess
p4102
(dp4103
g638
S'bitmap'
p4104
sg629
(lp4105
(idelphi
DelphiFieldEndAccess
p4106
(dp4107
g654
S'width'
p4108
sbasbsba(i__main__
DelphiAssignStatement
p4109
(dp4110
g680
(idelphi
DelphiIntegerValue
p4111
(dp4112
g172
S'1'
sbsg684
(i__main__
DelphiIdentAccess
p4113
(dp4114
g638
S'bitmap'
p4115
sg629
(lp4116
(idelphi
DelphiFieldEndAccess
p4117
(dp4118
g654
S'height'
p4119
sbasbsbasbsba(idelphi
DelphiIfStatement
p4120
(dp4121
g623
(idelphi
DelphiNot
p4122
(dp4123
g1075
(i__main__
DelphiIdentAccess
p4124
(dp4125
g638
S'selected'
p4126
sg629
(lp4127
sbsbsg676
(i__main__
DelphiAssignStatement
p4128
(dp4129
g680
(i__main__
DelphiIdentAccess
p4130
(dp4131
g638
S'clHighlight'
p4132
sg629
(lp4133
sbsg684
(i__main__
DelphiIdentAccess
p4134
(dp4135
g638
S'bitmap'
p4136
sg629
(lp4137
(idelphi
DelphiFieldEndAccess
p4138
(dp4139
g654
S'canvas'
p4140
sba(idelphi
DelphiFieldEndAccess
p4141
(dp4142
g654
S'brush'
p4143
sba(idelphi
DelphiFieldEndAccess
p4144
(dp4145
g654
S'color'
p4146
sbasbsbsg677
(i__main__
DelphiAssignStatement
p4147
(dp4148
g680
(i__main__
DelphiIdentAccess
p4149
(dp4150
g638
S'clWhite'
p4151
sg629
(lp4152
sbsg684
(i__main__
DelphiIdentAccess
p4153
(dp4154
g638
S'bitmap'
p4155
sg629
(lp4156
(idelphi
DelphiFieldEndAccess
p4157
(dp4158
g654
S'canvas'
p4159
sba(idelphi
DelphiFieldEndAccess
p4160
(dp4161
g654
S'brush'
p4162
sba(idelphi
DelphiFieldEndAccess
p4163
(dp4164
g654
S'color'
p4165
sbasbsbsba(i__main__
DelphiAssignStatement
p4166
(dp4167
g680
Nsg684
(i__main__
DelphiIdentAccess
p4168
(dp4169
g638
S'bitmap'
p4170
sg629
(lp4171
(idelphi
DelphiFieldEndAccess
p4172
(dp4173
g654
S'canvas'
p4174
sba(idelphi
DelphiFieldEndAccess
p4175
(dp4176
g654
S'fillRect'
p4177
sba(idelphi
DelphiFunctionEndAccess
p4178
(dp4179
g631
(lp4180
(i__main__
DelphiIdentAccess
p4181
(dp4182
g638
S'classes'
p4183
sg629
(lp4184
(idelphi
DelphiFieldEndAccess
p4185
(dp4186
g654
S'Rect'
p4187
sba(idelphi
DelphiFunctionEndAccess
p4188
(dp4189
g631
(lp4190
(idelphi
DelphiIntegerValue
p4191
(dp4192
g172
S'0'
sba(idelphi
DelphiIntegerValue
p4193
(dp4194
g172
S'0'
sba(i__main__
DelphiIdentAccess
p4195
(dp4196
g638
S'bitmap'
p4197
sg629
(lp4198
(idelphi
DelphiFieldEndAccess
p4199
(dp4200
g654
S'width'
p4201
sbasba(i__main__
DelphiIdentAccess
p4202
(dp4203
g638
S'bitmap'
p4204
sg629
(lp4205
(idelphi
DelphiFieldEndAccess
p4206
(dp4207
g654
S'height'
p4208
sbasbasbasbasbasbsba(idelphi
DelphiTryFinallyStatement
p4209
(dp4210
g1584
(lp4211
(i__main__
DelphiAssignStatement
p4212
(dp4213
g680
(i__main__
DelphiIdentAccess
p4214
(dp4215
g638
S'bitmap'
p4216
sg629
(lp4217
(idelphi
DelphiFieldEndAccess
p4218
(dp4219
g654
S'canvas'
p4220
sbasbsg684
(i__main__
DelphiIdentAccess
p4221
(dp4222
g638
S'turtle'
p4223
sg629
(lp4224
(idelphi
DelphiFieldEndAccess
p4225
(dp4226
g654
S'drawingSurface'
p4227
sba(idelphi
DelphiFieldEndAccess
p4228
(dp4229
g654
S'pane'
p4230
sbasbsg105
(lp4231
S'grid.canvas;\r'
p4232
asba(i__main__
DelphiAssignStatement
p4233
(dp4234
g680
Nsg684
(i__main__
DelphiIdentAccess
p4235
(dp4236
g638
S'turtle'
p4237
sg629
(lp4238
(idelphi
DelphiFieldEndAccess
p4239
(dp4240
g654
S'setDrawOptionsForDrawingTdoOnly'
p4241
sbasbsba(i__main__
DelphiAssignStatement
p4242
(dp4243
g680
Nsg684
(i__main__
DelphiIdentAccess
p4244
(dp4245
g638
S'turtle'
p4246
sg629
(lp4247
(idelphi
DelphiFieldEndAccess
p4248
(dp4249
g654
S'reset'
p4250
sbasbsg105
(lp4251
S' must be after pane and draw options set '
p4252
asba(i__main__
DelphiAssignStatement
p4253
(dp4254
g680
(i__main__
DelphiIdentAccess
p4255
(dp4256
g638
S'tdo'
p4257
sg629
(lp4258
(idelphi
DelphiFieldEndAccess
p4259
(dp4260
g654
S'bestPointForDrawingAtScale'
p4261
sba(idelphi
DelphiFunctionEndAccess
p4262
(dp4263
g631
(lp4264
(i__main__
DelphiIdentAccess
p4265
(dp4266
g638
S'turtle'
p4267
sg629
(lp4268
sba(i__main__
DelphiIdentAccess
p4269
(dp4270
g638
S'Point'
p4271
sg629
(lp4272
(idelphi
DelphiFunctionEndAccess
p4273
(dp4274
g631
(lp4275
(idelphi
DelphiIntegerValue
p4276
(dp4277
g172
S'0'
sba(idelphi
DelphiIntegerValue
p4278
(dp4279
g172
S'0'
sbasbasba(i__main__
DelphiIdentAccess
p4280
(dp4281
g638
S'Point'
p4282
sg629
(lp4283
(idelphi
DelphiFunctionEndAccess
p4284
(dp4285
g631
(lp4286
(i__main__
DelphiIdentAccess
p4287
(dp4288
g638
S'bitmap'
p4289
sg629
(lp4290
(idelphi
DelphiFieldEndAccess
p4291
(dp4292
g654
S'width'
p4293
sbasba(i__main__
DelphiIdentAccess
p4294
(dp4295
g638
S'bitmap'
p4296
sg629
(lp4297
(idelphi
DelphiFieldEndAccess
p4298
(dp4299
g654
S'height'
p4300
sbasbasbasba(idelphi
DelphiRealValue
p4301
(dp4302
g172
S'0.3'
p4303
sbasbasbsg684
(i__main__
DelphiIdentAccess
p4304
(dp4305
g638
S'bestPoint'
p4306
sg629
(lp4307
sbsg105
(lp4308
S' v1.6b1 added method for centering tdo\r'
p4309
asba(i__main__
DelphiAssignStatement
p4310
(dp4311
g680
Nsg684
(i__main__
DelphiIdentAccess
p4312
(dp4313
g638
S'turtle'
p4314
sg629
(lp4315
(idelphi
DelphiFieldEndAccess
p4316
(dp4317
g654
S'xyz'
p4318
sba(idelphi
DelphiFunctionEndAccess
p4319
(dp4320
g631
(lp4321
(i__main__
DelphiIdentAccess
p4322
(dp4323
g638
S'bestPoint'
p4324
sg629
(lp4325
(idelphi
DelphiFieldEndAccess
p4326
(dp4327
g654
S'x'
sbasba(i__main__
DelphiIdentAccess
p4328
(dp4329
g638
S'bestPoint'
p4330
sg629
(lp4331
(idelphi
DelphiFieldEndAccess
p4332
(dp4333
g654
S'y'
sbasba(idelphi
DelphiIntegerValue
p4334
(dp4335
g172
S'0'
sbasbasbsba(i__main__
DelphiAssignStatement
p4336
(dp4337
g680
Nsg684
(i__main__
DelphiIdentAccess
p4338
(dp4339
g638
S'turtle'
p4340
sg629
(lp4341
(idelphi
DelphiFieldEndAccess
p4342
(dp4343
g654
S'drawingSurface'
p4344
sba(idelphi
DelphiFieldEndAccess
p4345
(dp4346
g654
S'recordingStart'
p4347
sbasbsba(i__main__
DelphiAssignStatement
p4348
(dp4349
g680
Nsg684
(i__main__
DelphiIdentAccess
p4350
(dp4351
g638
S'tdo'
p4352
sg629
(lp4353
(idelphi
DelphiFieldEndAccess
p4354
(dp4355
g654
S'draw'
p4356
sba(idelphi
DelphiFunctionEndAccess
p4357
(dp4358
g631
(lp4359
(i__main__
DelphiIdentAccess
p4360
(dp4361
g638
S'turtle'
p4362
sg629
(lp4363
sba(idelphi
DelphiRealValue
p4364
(dp4365
g172
S'0.3'
p4366
sba(idelphi
DelphiStringAccess
p4367
(dp4368
g629
(lp4369
sg172
(idelphi
DelphiStringValue
p4370
(dp4371
g172
S''
sbsba(idelphi
DelphiStringAccess
p4372
(dp4373
g629
(lp4374
sg172
(idelphi
DelphiStringValue
p4375
(dp4376
g172
S''
sbsba(idelphi
DelphiIntegerValue
p4377
(dp4378
g172
S'0'
sba(idelphi
DelphiIntegerValue
p4379
(dp4380
g172
S'0'
sbasbasbsg105
(lp4381
S'0.15);\r'
p4382
asba(i__main__
DelphiAssignStatement
p4383
(dp4384
g680
Nsg684
(i__main__
DelphiIdentAccess
p4385
(dp4386
g638
S'turtle'
p4387
sg629
(lp4388
(idelphi
DelphiFieldEndAccess
p4389
(dp4390
g654
S'drawingSurface'
p4391
sba(idelphi
DelphiFieldEndAccess
p4392
(dp4393
g654
S'recordingStop'
p4394
sbasbsba(i__main__
DelphiAssignStatement
p4395
(dp4396
g680
Nsg684
(i__main__
DelphiIdentAccess
p4397
(dp4398
g638
S'turtle'
p4399
sg629
(lp4400
(idelphi
DelphiFieldEndAccess
p4401
(dp4402
g654
S'drawingSurface'
p4403
sba(idelphi
DelphiFieldEndAccess
p4404
(dp4405
g654
S'recordingDraw'
p4406
sbasbsba(i__main__
DelphiAssignStatement
p4407
(dp4408
g680
Nsg684
(i__main__
DelphiIdentAccess
p4409
(dp4410
g638
S'turtle'
p4411
sg629
(lp4412
(idelphi
DelphiFieldEndAccess
p4413
(dp4414
g654
S'drawingSurface'
p4415
sba(idelphi
DelphiFieldEndAccess
p4416
(dp4417
g654
S'clearTriangles'
p4418
sbasbsba(i__main__
DelphiAssignStatement
p4419
(dp4420
g680
Nsg684
(i__main__
DelphiIdentAccess
p4421
(dp4422
g638
S'grid'
p4423
sg629
(lp4424
(idelphi
DelphiFieldEndAccess
p4425
(dp4426
g654
S'canvas'
p4427
sba(idelphi
DelphiFieldEndAccess
p4428
(dp4429
g654
S'draw'
p4430
sba(idelphi
DelphiFunctionEndAccess
p4431
(dp4432
g631
(lp4433
(i__main__
DelphiIdentAccess
p4434
(dp4435
g638
S'rect'
p4436
sg629
(lp4437
(idelphi
DelphiFieldEndAccess
p4438
(dp4439
g654
S'left'
p4440
sbasba(i__main__
DelphiIdentAccess
p4441
(dp4442
g638
S'rect'
p4443
sg629
(lp4444
(idelphi
DelphiFieldEndAccess
p4445
(dp4446
g654
S'top'
p4447
sbasba(i__main__
DelphiIdentAccess
p4448
(dp4449
g638
S'bitmap'
p4450
sg629
(lp4451
sbasbasbsba(i__main__
DelphiAssignStatement
p4452
(dp4453
g680
(i__main__
DelphiIdentAccess
p4454
(dp4455
g638
S'bsClear'
p4456
sg629
(lp4457
sbsg684
(i__main__
DelphiIdentAccess
p4458
(dp4459
g638
S'grid'
p4460
sg629
(lp4461
(idelphi
DelphiFieldEndAccess
p4462
(dp4463
g654
S'canvas'
p4464
sba(idelphi
DelphiFieldEndAccess
p4465
(dp4466
g654
S'brush'
p4467
sba(idelphi
DelphiFieldEndAccess
p4468
(dp4469
g654
S'style'
p4470
sbasbsba(i__main__
DelphiAssignStatement
p4471
(dp4472
g680
(i__main__
DelphiIdentAccess
p4473
(dp4474
g638
S'clSilver'
p4475
sg629
(lp4476
sbsg684
(i__main__
DelphiIdentAccess
p4477
(dp4478
g638
S'grid'
p4479
sg629
(lp4480
(idelphi
DelphiFieldEndAccess
p4481
(dp4482
g654
S'canvas'
p4483
sba(idelphi
DelphiFieldEndAccess
p4484
(dp4485
g654
S'pen'
p4486
sba(idelphi
DelphiFieldEndAccess
p4487
(dp4488
g654
S'color'
p4489
sbasbsba(i__main__
DelphiAssignStatement
p4490
(dp4491
g680
(i__main__
DelphiIdentAccess
p4492
(dp4493
g638
S'psSolid'
p4494
sg629
(lp4495
sbsg684
(i__main__
DelphiIdentAccess
p4496
(dp4497
g638
S'grid'
p4498
sg629
(lp4499
(idelphi
DelphiFieldEndAccess
p4500
(dp4501
g654
S'canvas'
p4502
sba(idelphi
DelphiFieldEndAccess
p4503
(dp4504
g654
S'pen'
p4505
sba(idelphi
DelphiFieldEndAccess
p4506
(dp4507
g654
S'style'
p4508
sbasbsba(idelphi
DelphiWithStatement
p4509
(dp4510
g761
(i__main__
DelphiAssignStatement
p4511
(dp4512
g680
Nsg684
(i__main__
DelphiIdentAccess
p4513
(dp4514
g638
S'grid'
p4515
sg629
(lp4516
(idelphi
DelphiFieldEndAccess
p4517
(dp4518
g654
S'canvas'
p4519
sba(idelphi
DelphiFieldEndAccess
p4520
(dp4521
g654
S'rectangle'
p4522
sba(idelphi
DelphiFunctionEndAccess
p4523
(dp4524
g631
(lp4525
(i__main__
DelphiIdentAccess
p4526
(dp4527
g638
S'left'
p4528
sg629
(lp4529
sba(i__main__
DelphiIdentAccess
p4530
(dp4531
g638
S'top'
p4532
sg629
(lp4533
sba(i__main__
DelphiIdentAccess
p4534
(dp4535
g638
S'right'
p4536
sg629
(lp4537
sba(i__main__
DelphiIdentAccess
p4538
(dp4539
g638
S'bottom'
p4540
sg629
(lp4541
sbasbasbsbsg800
(lp4542
(i__main__
DelphiIdentAccess
p4543
(dp4544
g638
S'rect'
p4545
sg629
(lp4546
sbasbasg1738
(lp4547
(i__main__
DelphiAssignStatement
p4548
(dp4549
g680
Nsg684
(i__main__
DelphiIdentAccess
p4550
(dp4551
g638
S'KfTurtle'
p4552
sg629
(lp4553
(idelphi
DelphiFieldEndAccess
p4554
(dp4555
g654
S'defaultStopUsing'
p4556
sbasbsba(i__main__
DelphiAssignStatement
p4557
(dp4558
g680
Nsg684
(i__main__
DelphiIdentAccess
p4559
(dp4560
g638
S'bitmap'
p4561
sg629
(lp4562
(idelphi
DelphiFieldEndAccess
p4563
(dp4564
g654
S'free'
p4565
sbasbsbasbasbsg692
(lp4566
(i__main__
DelphiVarSection
p4567
(dp4568
g1487
I0
sg1488
(lp4569
(idelphi
DelphiVarDecl
p4570
(dp4571
g1492
Nsg1493
(lp4572
S'tdo'
p4573
asg67
(i__main__
DelphiNamedType
p4574
(dp4575
g70
S'KfObject3d'
p4576
sg72
g1
sg73
Nsbsba(idelphi
DelphiVarDecl
p4577
(dp4578
g1492
Nsg1493
(lp4579
S'turtle'
p4580
asg67
(i__main__
DelphiNamedType
p4581
(dp4582
g70
S'KfTurtle'
p4583
sg72
g1
sg73
Nsbsba(idelphi
DelphiVarDecl
p4584
(dp4585
g1492
Nsg1493
(lp4586
S'selected'
p4587
asg67
(i__main__
DelphiPrimitiveType
p4588
(dp4589
g70
g119
sbsba(idelphi
DelphiVarDecl
p4590
(dp4591
g1492
Nsg1493
(lp4592
g182
asg67
(i__main__
DelphiPrimitiveType
p4593
(dp4594
g70
g185
sbsba(idelphi
DelphiVarDecl
p4595
(dp4596
g1492
Nsg1493
(lp4597
S'bitmap'
p4598
asg67
(i__main__
DelphiNamedType
p4599
(dp4600
g70
S'TBitmap'
p4601
sg72
g1
sg73
Nsbsba(idelphi
DelphiVarDecl
p4602
(dp4603
g1492
Nsg1493
(lp4604
S'bestPoint'
p4605
asg67
(i__main__
DelphiNamedType
p4606
(dp4607
g70
S'TPoint'
p4608
sg72
g1
sg73
NsbsbasbasbsbsS'newtdoclick'
p4609
(i__main__
DelphiMethodImplementation
p4610
(dp4611
g594
g321
sg51
g323
sg59
(lp4612
(i__main__
DelphiFormalParameter
p4613
(dp4614
g63
Nsg64
(lp4615
S'Sender'
p4616
asg67
(i__main__
DelphiNamedType
p4617
(dp4618
g70
S'TObject'
p4619
sg72
g1
sg73
Nsbsg74
Nsbasg601
(lp4620
sg603
(lp4621
sg605
(lp4622
g607
ag4616
asg608
(dp4623
g4616
g4617
ssg75
S'TPickTdoForm'
p4624
sg76
Nsg611
(lp4625
sg77
I0
sg78
g79
sg613
(i__main__
DelphiBlock
p4626
(dp4627
g616
(idelphi
DelphiCompoundStatement
p4628
(dp4629
g619
(lp4630
(i__main__
DelphiAssignStatement
p4631
(dp4632
g680
(idelphi
DelphiStringAccess
p4633
(dp4634
g629
(lp4635
sg172
(idelphi
DelphiStringValue
p4636
(dp4637
g172
S''
sbsbsg684
(i__main__
DelphiIdentAccess
p4638
(dp4639
g638
S'newName'
p4640
sg629
(lp4641
sbsba(i__main__
DelphiAssignStatement
p4642
(dp4643
g680
(i__main__
DelphiIdentAccess
p4644
(dp4645
g638
S'KfObject3D'
p4646
sg629
(lp4647
(idelphi
DelphiFieldEndAccess
p4648
(dp4649
g654
S'create'
p4650
sbasbsg684
(i__main__
DelphiIdentAccess
p4651
(dp4652
g638
S'newTdo'
p4653
sg629
(lp4654
sbsba(i__main__
DelphiAssignStatement
p4655
(dp4656
g680
Nsg684
(i__main__
DelphiIdentAccess
p4657
(dp4658
g638
S'newTdo'
p4659
sg629
(lp4660
(idelphi
DelphiFieldEndAccess
p4661
(dp4662
g654
S'setName'
p4663
sba(idelphi
DelphiFunctionEndAccess
p4664
(dp4665
g631
(lp4666
(idelphi
DelphiStringAccess
p4667
(dp4668
g629
(lp4669
sg172
(idelphi
DelphiStringValue
p4670
(dp4671
g172
S'New 3D object'
p4672
sbsbasbasbsba(i__main__
DelphiAssignStatement
p4673
(dp4674
g680
(i__main__
DelphiIdentAccess
p4675
(dp4676
g638
S'TTdoEditorForm'
p4677
sg629
(lp4678
(idelphi
DelphiFieldEndAccess
p4679
(dp4680
g654
S'create'
p4681
sba(idelphi
DelphiFunctionEndAccess
p4682
(dp4683
g631
(lp4684
(i__main__
DelphiIdentAccess
p4685
(dp4686
g638
S'self'
p4687
sg629
(lp4688
sbasbasbsg684
(i__main__
DelphiIdentAccess
p4689
(dp4690
g638
S'tdoEditorForm'
p4691
sg629
(lp4692
sbsba(idelphi
DelphiIfStatement
p4693
(dp4694
g623
(idelphi
DelphiRelOp
p4695
(dp4696
g635
(i__main__
DelphiIdentAccess
p4697
(dp4698
g638
S'tdoEditorForm'
p4699
sg629
(lp4700
sbsg640
(idelphi
DelphiNilValue
p4701
(dp4702
bsg659
S'='
sbsg676
Nsg677
(idelphi
DelphiRaiseStatement
p4703
(dp4704
g623
(i__main__
DelphiIdentAccess
p4705
(dp4706
g638
S'Exception'
p4707
sg629
(lp4708
(idelphi
DelphiFieldEndAccess
p4709
(dp4710
g654
S'create'
p4711
sba(idelphi
DelphiFunctionEndAccess
p4712
(dp4713
g631
(lp4714
(idelphi
DelphiStringAccess
p4715
(dp4716
g629
(lp4717
sg172
(idelphi
DelphiStringValue
p4718
(dp4719
g172
S'Problem: Could not create 3D object editor window.'
p4720
sbsbasbasbsbsba(idelphi
DelphiTryFinallyStatement
p4721
(dp4722
g1584
(lp4723
(i__main__
DelphiAssignStatement
p4724
(dp4725
g680
Nsg684
(i__main__
DelphiIdentAccess
p4726
(dp4727
g638
S'tdoEditorForm'
p4728
sg629
(lp4729
(idelphi
DelphiFieldEndAccess
p4730
(dp4731
g654
S'initializeWithTdo'
p4732
sba(idelphi
DelphiFunctionEndAccess
p4733
(dp4734
g631
(lp4735
(i__main__
DelphiIdentAccess
p4736
(dp4737
g638
S'newTdo'
p4738
sg629
(lp4739
sbasbasbsba(i__main__
DelphiAssignStatement
p4740
(dp4741
g680
(i__main__
DelphiIdentAccess
p4742
(dp4743
g638
S'tdoEditorForm'
p4744
sg629
(lp4745
(idelphi
DelphiFieldEndAccess
p4746
(dp4747
g654
S'showModal'
p4748
sbasbsg684
(i__main__
DelphiIdentAccess
p4749
(dp4750
g638
S'response'
p4751
sg629
(lp4752
sbsba(idelphi
DelphiIfStatement
p4753
(dp4754
g623
(idelphi
DelphiRelOp
p4755
(dp4756
g635
(i__main__
DelphiIdentAccess
p4757
(dp4758
g638
S'response'
p4759
sg629
(lp4760
sbsg640
(i__main__
DelphiIdentAccess
p4761
(dp4762
g638
S'mrOK'
p4763
sg629
(lp4764
sbsg659
S'='
sbsg676
Nsg677
(idelphi
DelphiCompoundStatement
p4765
(dp4766
g619
(lp4767
(idelphi
DelphiIfStatement
p4768
(dp4769
g623
(idelphi
DelphiRelOp
p4770
(dp4771
g635
(i__main__
DelphiIdentAccess
p4772
(dp4773
g638
S'newTdo'
p4774
sg629
(lp4775
(idelphi
DelphiFieldEndAccess
p4776
(dp4777
g654
S'getName'
p4778
sbasbsg640
(idelphi
DelphiStringAccess
p4779
(dp4780
g629
(lp4781
sg172
(idelphi
DelphiStringValue
p4782
(dp4783
g172
S'New 3D object'
p4784
sbsbsg659
S'='
sbsg676
Nsg677
(idelphi
DelphiIfStatement
p4785
(dp4786
g623
(i__main__
DelphiIdentAccess
p4787
(dp4788
g638
S'inputQuery'
p4789
sg629
(lp4790
(idelphi
DelphiFunctionEndAccess
p4791
(dp4792
g631
(lp4793
(idelphi
DelphiStringAccess
p4794
(dp4795
g629
(lp4796
sg172
(idelphi
DelphiStringValue
p4797
(dp4798
g172
S'Name 3D object'
p4799
sbsba(idelphi
DelphiStringAccess
p4800
(dp4801
g629
(lp4802
sg172
(idelphi
DelphiStringValue
p4803
(dp4804
g172
S'Enter a name for the new 3D object'
p4805
sbsba(i__main__
DelphiIdentAccess
p4806
(dp4807
g638
S'newName'
p4808
sg629
(lp4809
sbasbasbsg676
(i__main__
DelphiAssignStatement
p4810
(dp4811
g680
Nsg684
(i__main__
DelphiIdentAccess
p4812
(dp4813
g638
S'newTdo'
p4814
sg629
(lp4815
(idelphi
DelphiFieldEndAccess
p4816
(dp4817
g654
S'setName'
p4818
sba(idelphi
DelphiFunctionEndAccess
p4819
(dp4820
g631
(lp4821
(idelphi
DelphiStringAccess
p4822
(dp4823
g629
(lp4824
sg172
(idelphi
DelphiStringValue
p4825
(dp4826
g172
S'Unnamed 3D object'
p4827
sbsbasbasbsbsg677
(i__main__
DelphiAssignStatement
p4828
(dp4829
g680
Nsg684
(i__main__
DelphiIdentAccess
p4830
(dp4831
g638
S'newTdo'
p4832
sg629
(lp4833
(idelphi
DelphiFieldEndAccess
p4834
(dp4835
g654
S'setName'
p4836
sba(idelphi
DelphiFunctionEndAccess
p4837
(dp4838
g631
(lp4839
(i__main__
DelphiIdentAccess
p4840
(dp4841
g638
S'newName'
p4842
sg629
(lp4843
sbasbasbsbsbsba(i__main__
DelphiAssignStatement
p4844
(dp4845
g680
Nsg684
(i__main__
DelphiIdentAccess
p4846
(dp4847
g638
S'newTdo'
p4848
sg629
(lp4849
(idelphi
DelphiFieldEndAccess
p4850
(dp4851
g654
S'copyFrom'
p4852
sba(idelphi
DelphiFunctionEndAccess
p4853
(dp4854
g631
(lp4855
(i__main__
DelphiIdentAccess
p4856
(dp4857
g638
S'tdoEditorForm'
p4858
sg629
(lp4859
(idelphi
DelphiFieldEndAccess
p4860
(dp4861
g654
S'tdo'
p4862
sbasbasbasbsba(i__main__
DelphiAssignStatement
p4863
(dp4864
g680
(i__main__
DelphiIdentAccess
p4865
(dp4866
g638
S'true'
p4867
sg629
(lp4868
sbsg684
(i__main__
DelphiIdentAccess
p4869
(dp4870
g638
S'editedTdo'
p4871
sg629
(lp4872
sbsba(i__main__
DelphiAssignStatement
p4873
(dp4874
g680
Nsg684
(i__main__
DelphiIdentAccess
p4875
(dp4876
g638
S'tdos'
p4877
sg629
(lp4878
(idelphi
DelphiFieldEndAccess
p4879
(dp4880
g654
S'items'
p4881
sba(idelphi
DelphiFieldEndAccess
p4882
(dp4883
g654
S'addObject'
p4884
sba(idelphi
DelphiFunctionEndAccess
p4885
(dp4886
g631
(lp4887
(i__main__
DelphiIdentAccess
p4888
(dp4889
g638
S'newTdo'
p4890
sg629
(lp4891
(idelphi
DelphiFieldEndAccess
p4892
(dp4893
g654
S'name'
p4894
sbasba(i__main__
DelphiIdentAccess
p4895
(dp4896
g638
S'newTdo'
p4897
sg629
(lp4898
sbasbasbsba(i__main__
DelphiAssignStatement
p4899
(dp4900
g680
(idelphi
DelphiAddOp
p4901
(dp4902
g643
S'+'
sg644
(idelphi
DelphiIntegerValue
p4903
(dp4904
g172
S'1'
sbsg647
(idelphi
DelphiMulOp
p4905
(dp4906
g626
(i__main__
DelphiIdentAccess
p4907
(dp4908
g638
S'grid'
p4909
sg629
(lp4910
(idelphi
DelphiFieldEndAccess
p4911
(dp4912
g654
S'colCount'
p4913
sbasbsg661
g1362
sg663
(i__main__
DelphiIdentAccess
p4914
(dp4915
g638
S'tdos'
p4916
sg629
(lp4917
(idelphi
DelphiFieldEndAccess
p4918
(dp4919
g654
S'items'
p4920
sba(idelphi
DelphiFieldEndAccess
p4921
(dp4922
g654
S'count'
p4923
sbasbsbsbsg684
(i__main__
DelphiIdentAccess
p4924
(dp4925
g638
S'grid'
p4926
sg629
(lp4927
(idelphi
DelphiFieldEndAccess
p4928
(dp4929
g654
S'rowCount'
p4930
sbasbsba(i__main__
DelphiAssignStatement
p4931
(dp4932
g680
Nsg684
(i__main__
DelphiIdentAccess
p4933
(dp4934
g638
S'self'
p4935
sg629
(lp4936
(idelphi
DelphiFieldEndAccess
p4937
(dp4938
g654
S'selectTdoAtIndex'
p4939
sba(idelphi
DelphiFunctionEndAccess
p4940
(dp4941
g631
(lp4942
(idelphi
DelphiAddOp
p4943
(dp4944
g643
S'-'
sg644
(idelphi
DelphiIntegerValue
p4945
(dp4946
g172
S'1'
sbsg647
(i__main__
DelphiIdentAccess
p4947
(dp4948
g638
S'tdos'
p4949
sg629
(lp4950
(idelphi
DelphiFieldEndAccess
p4951
(dp4952
g654
S'items'
p4953
sba(idelphi
DelphiFieldEndAccess
p4954
(dp4955
g654
S'count'
p4956
sbasbsbasbasbsba(i__main__
DelphiAssignStatement
p4957
(dp4958
g680
(idelphi
DelphiAddOp
p4959
(dp4960
g643
S'+'
sg644
(idelphi
DelphiStringAccess
p4961
(dp4962
g629
(lp4963
sg172
(idelphi
DelphiStringValue
p4964
(dp4965
g172
S' object(s)'
p4966
sbsbsg647
(idelphi
DelphiAddOp
p4967
(dp4968
g643
S'+'
sg644
(i__main__
DelphiIdentAccess
p4969
(dp4970
g638
S'intToStr'
p4971
sg629
(lp4972
(idelphi
DelphiFunctionEndAccess
p4973
(dp4974
g631
(lp4975
(i__main__
DelphiIdentAccess
p4976
(dp4977
g638
S'tdos'
p4978
sg629
(lp4979
(idelphi
DelphiFieldEndAccess
p4980
(dp4981
g654
S'items'
p4982
sba(idelphi
DelphiFieldEndAccess
p4983
(dp4984
g654
S'count'
p4985
sbasbasbasbsg647
(idelphi
DelphiStringAccess
p4986
(dp4987
g629
(lp4988
sg172
(idelphi
DelphiStringValue
p4989
(dp4990
g172
S'The current library has '
p4991
sbsbsbsbsg684
(i__main__
DelphiIdentAccess
p4992
(dp4993
g638
S'libraryGroupBox'
p4994
sg629
(lp4995
(idelphi
DelphiFieldEndAccess
p4996
(dp4997
g654
S'caption'
p4998
sbasbsba(i__main__
DelphiAssignStatement
p4999
(dp5000
g680
Nsg684
(i__main__
DelphiIdentAccess
p5001
(dp5002
g638
S'self'
p5003
sg629
(lp5004
(idelphi
DelphiFieldEndAccess
p5005
(dp5006
g654
S'setLibraryChanged'
p5007
sba(idelphi
DelphiFunctionEndAccess
p5008
(dp5009
g631
(lp5010
(i__main__
DelphiIdentAccess
p5011
(dp5012
g638
S'true'
p5013
sg629
(lp5014
sbasbasbsba(i__main__
DelphiAssignStatement
p5015
(dp5016
g680
Nsg684
(i__main__
DelphiIdentAccess
p5017
(dp5018
g638
S'self'
p5019
sg629
(lp5020
(idelphi
DelphiFieldEndAccess
p5021
(dp5022
g654
S'chooseTdoFromList'
p5023
sba(idelphi
DelphiFunctionEndAccess
p5024
(dp5025
g631
(lp5026
(i__main__
DelphiIdentAccess
p5027
(dp5028
g638
S'tdos'
p5029
sg629
(lp5030
(idelphi
DelphiFieldEndAccess
p5031
(dp5032
g654
S'items'
p5033
sba(idelphi
DelphiFieldEndAccess
p5034
(dp5035
g654
S'indexOfObject'
p5036
sba(idelphi
DelphiFunctionEndAccess
p5037
(dp5038
g631
(lp5039
(i__main__
DelphiIdentAccess
p5040
(dp5041
g638
S'selectedTdo'
p5042
sg629
(lp5043
sbasbasbasbasbsbasbsbasg1738
(lp5044
(i__main__
DelphiAssignStatement
p5045
(dp5046
g680
Nsg684
(i__main__
DelphiIdentAccess
p5047
(dp5048
g638
S'tdoEditorForm'
p5049
sg629
(lp5050
(idelphi
DelphiFieldEndAccess
p5051
(dp5052
g654
S'free'
p5053
sbasbsba(i__main__
DelphiAssignStatement
p5054
(dp5055
g680
(idelphi
DelphiNilValue
p5056
(dp5057
bsg684
(i__main__
DelphiIdentAccess
p5058
(dp5059
g638
S'tdoEditorForm'
p5060
sg629
(lp5061
sbsbasbasbsg692
(lp5062
(i__main__
DelphiVarSection
p5063
(dp5064
g1487
I0
sg1488
(lp5065
(idelphi
DelphiVarDecl
p5066
(dp5067
g1492
Nsg1493
(lp5068
S'tdoEditorForm'
p5069
asg67
(i__main__
DelphiNamedType
p5070
(dp5071
g70
S'TTdoEditorForm'
p5072
sg72
g1
sg73
Nsbsba(idelphi
DelphiVarDecl
p5073
(dp5074
g1492
Nsg1493
(lp5075
S'response'
p5076
asg67
(i__main__
DelphiPrimitiveType
p5077
(dp5078
g70
g210
sbsba(idelphi
DelphiVarDecl
p5079
(dp5080
g1492
Nsg1493
(lp5081
S'newTdo'
p5082
asg67
(i__main__
DelphiNamedType
p5083
(dp5084
g70
S'KfObject3D'
p5085
sg72
g1
sg73
Nsbsba(idelphi
DelphiVarDecl
p5086
(dp5087
g1492
Nsg1493
(lp5088
S'newName'
p5089
asg67
(i__main__
DelphiPrimitiveType
p5090
(dp5091
g70
g172
sbsbasbasbsbsS'formactivate'
p5092
(i__main__
DelphiMethodImplementation
p5093
(dp5094
g594
g333
sg51
g335
sg59
(lp5095
(i__main__
DelphiFormalParameter
p5096
(dp5097
g63
Nsg64
(lp5098
S'Sender'
p5099
asg67
(i__main__
DelphiNamedType
p5100
(dp5101
g70
S'TObject'
p5102
sg72
g1
sg73
Nsbsg74
Nsbasg601
(lp5103
sg603
(lp5104
sg605
(lp5105
g607
ag5099
asg608
(dp5106
g5099
g5100
ssg75
S'TPickTdoForm'
p5107
sg76
Nsg611
(lp5108
sg77
I0
sg78
g79
sg613
(i__main__
DelphiBlock
p5109
(dp5110
g616
(idelphi
DelphiCompoundStatement
p5111
(dp5112
g619
(lp5113
(i__main__
DelphiAssignStatement
p5114
(dp5115
g680
Nsg684
(i__main__
DelphiIdentAccess
p5116
(dp5117
g638
S'self'
p5118
sg629
(lp5119
(idelphi
DelphiFieldEndAccess
p5120
(dp5121
g654
S'selectTdoBasedOn'
p5122
sba(idelphi
DelphiFunctionEndAccess
p5123
(dp5124
g631
(lp5125
(i__main__
DelphiIdentAccess
p5126
(dp5127
g638
S'originalTdo'
p5128
sg629
(lp5129
sbasbasbsbasbsg692
(lp5130
sbsbsS'initializewithtdoparameterandplantname'
p5131
(i__main__
DelphiMethodImplementation
p5132
(dp5133
g594
g345
sg51
g347
sg59
(lp5134
(i__main__
DelphiFormalParameter
p5135
(dp5136
g63
Nsg64
(lp5137
S'aTdo'
p5138
asg67
(i__main__
DelphiNamedType
p5139
(dp5140
g70
S'KfObject3d'
p5141
sg72
g1
sg73
Nsbsg74
Nsba(i__main__
DelphiFormalParameter
p5142
(dp5143
g63
Nsg64
(lp5144
S'aParam'
p5145
asg67
(i__main__
DelphiNamedType
p5146
(dp5147
g70
S'PdParameter'
p5148
sg72
g1
sg73
Nsbsg74
Nsba(i__main__
DelphiFormalParameter
p5149
(dp5150
g63
Nsg64
(lp5151
S'aName'
p5152
asg67
(i__main__
DelphiPrimitiveType
p5153
(dp5154
g70
g172
sbsg74
g369
sbasg601
(lp5155
sg603
(lp5156
sg605
(lp5157
g607
ag5138
ag5145
ag5152
asg608
(dp5158
g5138
g5139
sg5152
g5153
sg5145
g5146
ssg75
S'TPickTdoForm'
p5159
sg76
(i__main__
DelphiPrimitiveType
p5160
(dp5161
g70
g119
sbsg611
(lp5162
sg77
I0
sg78
g173
sg613
(i__main__
DelphiBlock
p5163
(dp5164
g616
(idelphi
DelphiCompoundStatement
p5165
(dp5166
g619
(lp5167
(i__main__
DelphiAssignStatement
p5168
(dp5169
g680
(i__main__
DelphiIdentAccess
p5170
(dp5171
g638
S'true'
p5172
sg629
(lp5173
sbsg684
(i__main__
DelphiIdentAccess
p5174
(dp5175
g638
S'result'
p5176
sg629
(lp5177
sbsg105
(lp5178
S' returns false if user canceled action\r'
p5179
asba(idelphi
DelphiIfStatement
p5180
(dp5181
g623
(idelphi
DelphiNot
p5182
(dp5183
g1075
(i__main__
DelphiIdentAccess
p5184
(dp5185
g638
S'self'
p5186
sg629
(lp5187
(idelphi
DelphiFieldEndAccess
p5188
(dp5189
g654
S'readTdosFromFile'
p5190
sbasbsbsg676
Nsg677
(idelphi
DelphiCompoundStatement
p5191
(dp5192
g619
(lp5193
(i__main__
DelphiAssignStatement
p5194
(dp5195
g680
Nsg684
(i__main__
DelphiIdentAccess
p5196
(dp5197
g638
S'messageDlg'
p5198
sg629
(lp5199
(idelphi
DelphiFunctionEndAccess
p5200
(dp5201
g631
(lp5202
(idelphi
DelphiAddOp
p5203
(dp5204
g643
S'+'
sg644
(idelphi
DelphiStringAccess
p5205
(dp5206
g629
(lp5207
sg172
(idelphi
DelphiStringValue
p5208
(dp5209
g172
S'until you choose a 3D object library.'
p5210
sbsbsg647
(idelphi
DelphiAddOp
p5211
(dp5212
g643
S'+'
sg644
(i__main__
DelphiIdentAccess
p5213
(dp5214
g638
S'chr'
p5215
sg629
(lp5216
(idelphi
DelphiFunctionEndAccess
p5217
(dp5218
g631
(lp5219
(idelphi
DelphiIntegerValue
p5220
(dp5221
g172
S'13'
p5222
sbasbasbsg647
(idelphi
DelphiStringAccess
p5223
(dp5224
g629
(lp5225
sg172
(idelphi
DelphiStringValue
p5226
(dp5227
g172
S'You cannot change or edit this 3D object'
p5228
sbsbsbsba(i__main__
DelphiIdentAccess
p5229
(dp5230
g638
S'mtWarning'
p5231
sg629
(lp5232
sba(idelphi
DelphiSetConstructor
p5233
(dp5234
g1273
(lp5235
(i__main__
DelphiIdentAccess
p5236
(dp5237
g638
S'mbOk'
p5238
sg629
(lp5239
sbasba(idelphi
DelphiIntegerValue
p5240
(dp5241
g172
S'0'
sbasbasbsba(i__main__
DelphiAssignStatement
p5242
(dp5243
g680
(i__main__
DelphiIdentAccess
p5244
(dp5245
g638
S'false'
p5246
sg629
(lp5247
sbsg684
(i__main__
DelphiIdentAccess
p5248
(dp5249
g638
S'result'
p5250
sg629
(lp5251
sbsba(i__main__
DelphiExitStatement
p5252
(dp5253
g1291
g5132
sbasbsba(i__main__
DelphiAssignStatement
p5254
(dp5255
g680
(i__main__
DelphiIdentAccess
p5256
(dp5257
g638
S'domain'
p5258
sg629
(lp5259
(idelphi
DelphiFieldEndAccess
p5260
(dp5261
g654
S'defaultTdoLibraryFileName'
p5262
sbasbsg684
(i__main__
DelphiIdentAccess
p5263
(dp5264
g638
S'libraryFileName'
p5265
sg629
(lp5266
(idelphi
DelphiFieldEndAccess
p5267
(dp5268
g654
S'text'
p5269
sbasbsba(i__main__
DelphiAssignStatement
p5270
(dp5271
g680
(i__main__
DelphiIdentAccess
p5272
(dp5273
g638
S'length'
p5274
sg629
(lp5275
(idelphi
DelphiFunctionEndAccess
p5276
(dp5277
g631
(lp5278
(i__main__
DelphiIdentAccess
p5279
(dp5280
g638
S'libraryFileName'
p5281
sg629
(lp5282
(idelphi
DelphiFieldEndAccess
p5283
(dp5284
g654
S'text'
p5285
sbasbasbasbsg684
(i__main__
DelphiIdentAccess
p5286
(dp5287
g638
S'libraryFileName'
p5288
sg629
(lp5289
(idelphi
DelphiFieldEndAccess
p5290
(dp5291
g654
S'selStart'
p5292
sbasbsba(i__main__
DelphiAssignStatement
p5293
(dp5294
g680
(i__main__
DelphiIdentAccess
p5295
(dp5296
g638
S'aTdo'
p5297
sg629
(lp5298
sbsg684
(i__main__
DelphiIdentAccess
p5299
(dp5300
g638
S'originalTdo'
p5301
sg629
(lp5302
sbsba(idelphi
DelphiIfStatement
p5303
(dp5304
g623
(idelphi
DelphiRelOp
p5305
(dp5306
g635
(i__main__
DelphiIdentAccess
p5307
(dp5308
g638
S'originalTdo'
p5309
sg629
(lp5310
sbsg640
(idelphi
DelphiNilValue
p5311
(dp5312
bsg659
S'='
sbsg676
Nsg677
(idelphi
DelphiRaiseStatement
p5313
(dp5314
g623
(i__main__
DelphiIdentAccess
p5315
(dp5316
g638
S'Exception'
p5317
sg629
(lp5318
(idelphi
DelphiFieldEndAccess
p5319
(dp5320
g654
S'create'
p5321
sba(idelphi
DelphiFunctionEndAccess
p5322
(dp5323
g631
(lp5324
(idelphi
DelphiStringAccess
p5325
(dp5326
g629
(lp5327
sg172
(idelphi
DelphiStringValue
p5328
(dp5329
g172
S'Problem: Nil 3D object in method TPickTdoForm.initializeWithTdoParameterAndPlantName.'
p5330
sbsbasbasbsbsba(i__main__
DelphiAssignStatement
p5331
(dp5332
g680
(i__main__
DelphiIdentAccess
p5333
(dp5334
g638
S'aParam'
p5335
sg629
(lp5336
sbsg684
(i__main__
DelphiIdentAccess
p5337
(dp5338
g638
S'param'
p5339
sg629
(lp5340
sbsba(idelphi
DelphiIfStatement
p5341
(dp5342
g623
(idelphi
DelphiRelOp
p5343
(dp5344
g635
(i__main__
DelphiIdentAccess
p5345
(dp5346
g638
S'param'
p5347
sg629
(lp5348
sbsg640
(idelphi
DelphiNilValue
p5349
(dp5350
bsg659
S'='
sbsg676
Nsg677
(idelphi
DelphiRaiseStatement
p5351
(dp5352
g623
(i__main__
DelphiIdentAccess
p5353
(dp5354
g638
S'Exception'
p5355
sg629
(lp5356
(idelphi
DelphiFieldEndAccess
p5357
(dp5358
g654
S'create'
p5359
sba(idelphi
DelphiFunctionEndAccess
p5360
(dp5361
g631
(lp5362
(idelphi
DelphiStringAccess
p5363
(dp5364
g629
(lp5365
sg172
(idelphi
DelphiStringValue
p5366
(dp5367
g172
S'Problem: Nil parameter in method TPickTdoForm.initializeWithTdoParameterAndPlantName.'
p5368
sbsbasbasbsbsba(i__main__
DelphiAssignStatement
p5369
(dp5370
g680
(idelphi
DelphiAddOp
p5371
(dp5372
g643
S'+'
sg644
(i__main__
DelphiIdentAccess
p5373
(dp5374
g638
S'aName'
p5375
sg629
(lp5376
sbsg647
(idelphi
DelphiAddOp
p5377
(dp5378
g643
S'+'
sg644
(idelphi
DelphiStringAccess
p5379
(dp5380
g629
(lp5381
sg172
(idelphi
DelphiStringValue
p5382
(dp5383
g172
S' for '
p5384
sbsbsg647
(i__main__
DelphiIdentAccess
p5385
(dp5386
g638
S'param'
p5387
sg629
(lp5388
(idelphi
DelphiFieldEndAccess
p5389
(dp5390
g654
S'name'
p5391
sbasbsbsbsg684
(i__main__
DelphiIdentAccess
p5392
(dp5393
g638
S'self'
p5394
sg629
(lp5395
(idelphi
DelphiFieldEndAccess
p5396
(dp5397
g654
S'caption'
p5398
sbasbsbasbsg692
(lp5399
sbsg105
(lp5400
S'$R *.DFM'
p5401
asbsS'formresize'
p5402
(i__main__
DelphiMethodImplementation
p5403
(dp5404
g594
g373
sg51
g375
sg59
(lp5405
(i__main__
DelphiFormalParameter
p5406
(dp5407
g63
Nsg64
(lp5408
S'Sender'
p5409
asg67
(i__main__
DelphiNamedType
p5410
(dp5411
g70
S'TObject'
p5412
sg72
g1
sg73
Nsbsg74
Nsbasg601
(lp5413
sg603
(lp5414
sg605
(lp5415
g607
ag5409
asg608
(dp5416
g5409
g5410
ssg75
S'TPickTdoForm'
p5417
sg76
Nsg611
(lp5418
sg77
I0
sg78
g79
sg613
(i__main__
DelphiBlock
p5419
(dp5420
g616
(idelphi
DelphiCompoundStatement
p5421
(dp5422
g619
(lp5423
(idelphi
DelphiIfStatement
p5424
(dp5425
g623
(i__main__
DelphiIdentAccess
p5426
(dp5427
g638
S'Application'
p5428
sg629
(lp5429
(idelphi
DelphiFieldEndAccess
p5430
(dp5431
g654
S'terminated'
p5432
sbasbsg676
Nsg677
(i__main__
DelphiExitStatement
p5433
(dp5434
g1291
g5403
sg105
(lp5435
S' only resizes vertically\r'
p5436
asbsba(idelphi
DelphiIfStatement
p5437
(dp5438
g623
(idelphi
DelphiRelOp
p5439
(dp5440
g635
(i__main__
DelphiIdentAccess
p5441
(dp5442
g638
S'param'
p5443
sg629
(lp5444
sbsg640
(idelphi
DelphiNilValue
p5445
(dp5446
bsg659
S'='
sbsg676
Nsg677
(i__main__
DelphiExitStatement
p5447
(dp5448
g1291
g5403
sbsba(idelphi
DelphiIfStatement
p5449
(dp5450
g623
(idelphi
DelphiRelOp
p5451
(dp5452
g635
(i__main__
DelphiIdentAccess
p5453
(dp5454
g638
S'originalTdo'
p5455
sg629
(lp5456
sbsg640
(idelphi
DelphiNilValue
p5457
(dp5458
bsg659
S'='
sbsg676
Nsg677
(i__main__
DelphiExitStatement
p5459
(dp5460
g1291
g5403
sbsba(idelphi
DelphiWithStatement
p5461
(dp5462
g761
(i__main__
DelphiAssignStatement
p5463
(dp5464
g680
Nsg684
(i__main__
DelphiIdentAccess
p5465
(dp5466
g638
S'setBounds'
p5467
sg629
(lp5468
(idelphi
DelphiFunctionEndAccess
p5469
(dp5470
g631
(lp5471
(i__main__
DelphiIdentAccess
p5472
(dp5473
g638
S'left'
p5474
sg629
(lp5475
sba(idelphi
DelphiIntegerValue
p5476
(dp5477
g172
S'4'
sba(i__main__
DelphiIdentAccess
p5478
(dp5479
g638
S'width'
p5480
sg629
(lp5481
sba(i__main__
DelphiIdentAccess
p5482
(dp5483
g638
S'height'
p5484
sg629
(lp5485
sbasbasbsbsg800
(lp5486
(i__main__
DelphiIdentAccess
p5487
(dp5488
g638
S'tdos'
p5489
sg629
(lp5490
sbasba(i__main__
DelphiAssignStatement
p5491
(dp5492
g680
(idelphi
DelphiAddOp
p5493
(dp5494
g643
S'-'
sg644
(idelphi
DelphiMulOp
p5495
(dp5496
g626
(idelphi
DelphiIntegerValue
p5497
(dp5498
g172
S'4'
sbsg661
S'*'
sg663
(idelphi
DelphiIntegerValue
p5499
(dp5500
g172
S'4'
sbsbsg647
(idelphi
DelphiAddOp
p5501
(dp5502
g643
S'-'
sg644
(i__main__
DelphiIdentAccess
p5503
(dp5504
g638
S'tdos'
p5505
sg629
(lp5506
(idelphi
DelphiFieldEndAccess
p5507
(dp5508
g654
S'height'
p5509
sbasbsg647
(idelphi
DelphiAddOp
p5510
(dp5511
g643
S'-'
sg644
(i__main__
DelphiIdentAccess
p5512
(dp5513
g638
S'libraryGroupBox'
p5514
sg629
(lp5515
(idelphi
DelphiFieldEndAccess
p5516
(dp5517
g654
S'height'
p5518
sbasbsg647
(i__main__
DelphiIdentAccess
p5519
(dp5520
g638
S'self'
p5521
sg629
(lp5522
(idelphi
DelphiFieldEndAccess
p5523
(dp5524
g654
S'clientHeight'
p5525
sbasbsbsbsbsg684
(i__main__
DelphiIdentAccess
p5526
(dp5527
g638
S'resizeGridHeight'
p5528
sg629
(lp5529
sbsba(i__main__
DelphiAssignStatement
p5530
(dp5531
g680
(idelphi
DelphiMulOp
p5532
(dp5533
g626
(i__main__
DelphiIdentAccess
p5534
(dp5535
g638
S'grid'
p5536
sg629
(lp5537
(idelphi
DelphiFieldEndAccess
p5538
(dp5539
g654
S'defaultRowHeight'
p5540
sbasbsg661
g1362
sg663
(i__main__
DelphiIdentAccess
p5541
(dp5542
g638
S'resizeGridHeight'
p5543
sg629
(lp5544
sbsbsg684
(i__main__
DelphiIdentAccess
p5545
(dp5546
g638
S'rowsToShow'
p5547
sg629
(lp5548
sbsba(i__main__
DelphiAssignStatement
p5549
(dp5550
g680
(idelphi
DelphiAddOp
p5551
(dp5552
g643
S'+'
sg644
(idelphi
DelphiIntegerValue
p5553
(dp5554
g172
S'2'
sbsg647
(idelphi
DelphiAddOp
p5555
(dp5556
g643
S'+'
sg644
(idelphi
DelphiMulOp
p5557
(dp5558
g626
(idelphi
DelphiNestedExpressionListAccess
p5559
(dp5560
g629
(lp5561
sg631
(lp5562
(idelphi
DelphiAddOp
p5563
(dp5564
g643
S'-'
sg644
(idelphi
DelphiIntegerValue
p5565
(dp5566
g172
S'1'
sbsg647
(i__main__
DelphiIdentAccess
p5567
(dp5568
g638
S'rowsToShow'
p5569
sg629
(lp5570
sbsbasbsg661
S'*'
sg663
(i__main__
DelphiIdentAccess
p5571
(dp5572
g638
S'grid'
p5573
sg629
(lp5574
(idelphi
DelphiFieldEndAccess
p5575
(dp5576
g654
S'gridLineWidth'
p5577
sbasbsbsg647
(idelphi
DelphiMulOp
p5578
(dp5579
g626
(i__main__
DelphiIdentAccess
p5580
(dp5581
g638
S'rowsToShow'
p5582
sg629
(lp5583
sbsg661
S'*'
sg663
(i__main__
DelphiIdentAccess
p5584
(dp5585
g638
S'grid'
p5586
sg629
(lp5587
(idelphi
DelphiFieldEndAccess
p5588
(dp5589
g654
S'defaultRowHeight'
p5590
sbasbsbsbsbsg684
(i__main__
DelphiIdentAccess
p5591
(dp5592
g638
S'integralGridHeight'
p5593
sg629
(lp5594
sbsba(idelphi
DelphiWithStatement
p5595
(dp5596
g761
(i__main__
DelphiAssignStatement
p5597
(dp5598
g680
Nsg684
(i__main__
DelphiIdentAccess
p5599
(dp5600
g638
S'setBounds'
p5601
sg629
(lp5602
(idelphi
DelphiFunctionEndAccess
p5603
(dp5604
g631
(lp5605
(i__main__
DelphiIdentAccess
p5606
(dp5607
g638
S'left'
p5608
sg629
(lp5609
sba(idelphi
DelphiAddOp
p5610
(dp5611
g643
S'+'
sg644
(idelphi
DelphiIntegerValue
p5612
(dp5613
g172
S'4'
sbsg647
(idelphi
DelphiAddOp
p5614
(dp5615
g643
S'+'
sg644
(i__main__
DelphiIdentAccess
p5616
(dp5617
g638
S'tdos'
p5618
sg629
(lp5619
(idelphi
DelphiFieldEndAccess
p5620
(dp5621
g654
S'height'
p5622
sbasbsg647
(i__main__
DelphiIdentAccess
p5623
(dp5624
g638
S'tdos'
p5625
sg629
(lp5626
(idelphi
DelphiFieldEndAccess
p5627
(dp5628
g654
S'top'
p5629
sbasbsbsba(i__main__
DelphiIdentAccess
p5630
(dp5631
g638
S'width'
p5632
sg629
(lp5633
sba(i__main__
DelphiIdentAccess
p5634
(dp5635
g638
S'integralGridHeight'
p5636
sg629
(lp5637
sbasbasbsbsg800
(lp5638
(i__main__
DelphiIdentAccess
p5639
(dp5640
g638
S'grid'
p5641
sg629
(lp5642
sbasba(idelphi
DelphiWithStatement
p5643
(dp5644
g761
(i__main__
DelphiAssignStatement
p5645
(dp5646
g680
Nsg684
(i__main__
DelphiIdentAccess
p5647
(dp5648
g638
S'setBounds'
p5649
sg629
(lp5650
(idelphi
DelphiFunctionEndAccess
p5651
(dp5652
g631
(lp5653
(i__main__
DelphiIdentAccess
p5654
(dp5655
g638
S'left'
p5656
sg629
(lp5657
sba(idelphi
DelphiAddOp
p5658
(dp5659
g643
S'-'
sg644
(idelphi
DelphiIntegerValue
p5660
(dp5661
g172
S'4'
sbsg647
(idelphi
DelphiAddOp
p5662
(dp5663
g643
S'-'
sg644
(i__main__
DelphiIdentAccess
p5664
(dp5665
g638
S'libraryGroupBox'
p5666
sg629
(lp5667
(idelphi
DelphiFieldEndAccess
p5668
(dp5669
g654
S'height'
p5670
sbasbsg647
(i__main__
DelphiIdentAccess
p5671
(dp5672
g638
S'self'
p5673
sg629
(lp5674
(idelphi
DelphiFieldEndAccess
p5675
(dp5676
g654
S'clientHeight'
p5677
sbasbsbsba(i__main__
DelphiIdentAccess
p5678
(dp5679
g638
S'width'
p5680
sg629
(lp5681
sba(i__main__
DelphiIdentAccess
p5682
(dp5683
g638
S'height'
p5684
sg629
(lp5685
sbasbasbsbsg800
(lp5686
(i__main__
DelphiIdentAccess
p5687
(dp5688
g638
S'libraryGroupBox'
p5689
sg629
(lp5690
sbasbasbsg692
(lp5691
(i__main__
DelphiVarSection
p5692
(dp5693
g1487
I0
sg1488
(lp5694
(idelphi
DelphiVarDecl
p5695
(dp5696
g1492
Nsg1493
(lp5697
S'resizeGridHeight'
p5698
aS'rowsToShow'
p5699
aS'integralGridHeight'
p5700
asg67
(i__main__
DelphiPrimitiveType
p5701
(dp5702
g70
g210
sbsbasbasbsbsS'edittdoclick'
p5703
(i__main__
DelphiMethodImplementation
p5704
(dp5705
g594
g385
sg51
g387
sg59
(lp5706
(i__main__
DelphiFormalParameter
p5707
(dp5708
g63
Nsg64
(lp5709
S'Sender'
p5710
asg67
(i__main__
DelphiNamedType
p5711
(dp5712
g70
S'TObject'
p5713
sg72
g1
sg73
Nsbsg74
Nsbasg601
(lp5714
sg603
(lp5715
sg605
(lp5716
g607
ag5710
asg608
(dp5717
g5710
g5711
ssg75
S'TPickTdoForm'
p5718
sg76
Nsg611
(lp5719
sg77
I0
sg78
g79
sg613
(i__main__
DelphiBlock
p5720
(dp5721
g616
(idelphi
DelphiCompoundStatement
p5722
(dp5723
g619
(lp5724
(idelphi
DelphiIfStatement
p5725
(dp5726
g623
(idelphi
DelphiRelOp
p5727
(dp5728
g635
(i__main__
DelphiIdentAccess
p5729
(dp5730
g638
S'self'
p5731
sg629
(lp5732
(idelphi
DelphiFieldEndAccess
p5733
(dp5734
g654
S'selectedTdo'
p5735
sbasbsg640
(idelphi
DelphiNilValue
p5736
(dp5737
bsg659
S'='
sbsg676
Nsg677
(i__main__
DelphiExitStatement
p5738
(dp5739
g1291
g5704
sbsba(i__main__
DelphiAssignStatement
p5740
(dp5741
g680
(i__main__
DelphiIdentAccess
p5742
(dp5743
g638
S'TTdoEditorForm'
p5744
sg629
(lp5745
(idelphi
DelphiFieldEndAccess
p5746
(dp5747
g654
S'create'
p5748
sba(idelphi
DelphiFunctionEndAccess
p5749
(dp5750
g631
(lp5751
(i__main__
DelphiIdentAccess
p5752
(dp5753
g638
S'self'
p5754
sg629
(lp5755
sbasbasbsg684
(i__main__
DelphiIdentAccess
p5756
(dp5757
g638
S'tdoEditorForm'
p5758
sg629
(lp5759
sbsba(idelphi
DelphiIfStatement
p5760
(dp5761
g623
(idelphi
DelphiRelOp
p5762
(dp5763
g635
(i__main__
DelphiIdentAccess
p5764
(dp5765
g638
S'tdoEditorForm'
p5766
sg629
(lp5767
sbsg640
(idelphi
DelphiNilValue
p5768
(dp5769
bsg659
S'='
sbsg676
Nsg677
(idelphi
DelphiRaiseStatement
p5770
(dp5771
g623
(i__main__
DelphiIdentAccess
p5772
(dp5773
g638
S'Exception'
p5774
sg629
(lp5775
(idelphi
DelphiFieldEndAccess
p5776
(dp5777
g654
S'create'
p5778
sba(idelphi
DelphiFunctionEndAccess
p5779
(dp5780
g631
(lp5781
(idelphi
DelphiStringAccess
p5782
(dp5783
g629
(lp5784
sg172
(idelphi
DelphiStringValue
p5785
(dp5786
g172
S'Problem: Could not create 3D object editor window.'
p5787
sbsbasbasbsbsba(idelphi
DelphiTryFinallyStatement
p5788
(dp5789
g1584
(lp5790
(i__main__
DelphiAssignStatement
p5791
(dp5792
g680
Nsg684
(i__main__
DelphiIdentAccess
p5793
(dp5794
g638
S'tdoEditorForm'
p5795
sg629
(lp5796
(idelphi
DelphiFieldEndAccess
p5797
(dp5798
g654
S'initializeWithTdo'
p5799
sba(idelphi
DelphiFunctionEndAccess
p5800
(dp5801
g631
(lp5802
(i__main__
DelphiIdentAccess
p5803
(dp5804
g638
S'self'
p5805
sg629
(lp5806
(idelphi
DelphiFieldEndAccess
p5807
(dp5808
g654
S'selectedTdo'
p5809
sbasbasbasbsba(i__main__
DelphiAssignStatement
p5810
(dp5811
g680
(i__main__
DelphiIdentAccess
p5812
(dp5813
g638
S'tdoEditorForm'
p5814
sg629
(lp5815
(idelphi
DelphiFieldEndAccess
p5816
(dp5817
g654
S'showModal'
p5818
sbasbsg684
(i__main__
DelphiIdentAccess
p5819
(dp5820
g638
S'response'
p5821
sg629
(lp5822
sbsba(idelphi
DelphiIfStatement
p5823
(dp5824
g623
(idelphi
DelphiRelOp
p5825
(dp5826
g635
(i__main__
DelphiIdentAccess
p5827
(dp5828
g638
S'response'
p5829
sg629
(lp5830
sbsg640
(i__main__
DelphiIdentAccess
p5831
(dp5832
g638
S'mrOK'
p5833
sg629
(lp5834
sbsg659
S'='
sbsg676
Nsg677
(idelphi
DelphiCompoundStatement
p5835
(dp5836
g619
(lp5837
(i__main__
DelphiAssignStatement
p5838
(dp5839
g680
Nsg684
(i__main__
DelphiIdentAccess
p5840
(dp5841
g638
S'self'
p5842
sg629
(lp5843
(idelphi
DelphiFieldEndAccess
p5844
(dp5845
g654
S'selectedTdo'
p5846
sba(idelphi
DelphiFieldEndAccess
p5847
(dp5848
g654
S'copyFrom'
p5849
sba(idelphi
DelphiFunctionEndAccess
p5850
(dp5851
g631
(lp5852
(i__main__
DelphiIdentAccess
p5853
(dp5854
g638
S'tdoEditorForm'
p5855
sg629
(lp5856
(idelphi
DelphiFieldEndAccess
p5857
(dp5858
g654
S'tdo'
p5859
sbasbasbasbsba(i__main__
DelphiAssignStatement
p5860
(dp5861
g680
(i__main__
DelphiIdentAccess
p5862
(dp5863
g638
S'true'
p5864
sg629
(lp5865
sbsg684
(i__main__
DelphiIdentAccess
p5866
(dp5867
g638
S'editedTdo'
p5868
sg629
(lp5869
sbsba(i__main__
DelphiAssignStatement
p5870
(dp5871
g680
Nsg684
(i__main__
DelphiIdentAccess
p5872
(dp5873
g638
S'grid'
p5874
sg629
(lp5875
(idelphi
DelphiFieldEndAccess
p5876
(dp5877
g654
S'invalidate'
p5878
sbasbsba(i__main__
DelphiAssignStatement
p5879
(dp5880
g680
Nsg684
(i__main__
DelphiIdentAccess
p5881
(dp5882
g638
S'self'
p5883
sg629
(lp5884
(idelphi
DelphiFieldEndAccess
p5885
(dp5886
g654
S'setLibraryChanged'
p5887
sba(idelphi
DelphiFunctionEndAccess
p5888
(dp5889
g631
(lp5890
(i__main__
DelphiIdentAccess
p5891
(dp5892
g638
S'true'
p5893
sg629
(lp5894
sbasbasbsba(i__main__
DelphiAssignStatement
p5895
(dp5896
g680
Nsg684
(i__main__
DelphiIdentAccess
p5897
(dp5898
g638
S'self'
p5899
sg629
(lp5900
(idelphi
DelphiFieldEndAccess
p5901
(dp5902
g654
S'chooseTdoFromList'
p5903
sba(idelphi
DelphiFunctionEndAccess
p5904
(dp5905
g631
(lp5906
(i__main__
DelphiIdentAccess
p5907
(dp5908
g638
S'tdos'
p5909
sg629
(lp5910
(idelphi
DelphiFieldEndAccess
p5911
(dp5912
g654
S'items'
p5913
sba(idelphi
DelphiFieldEndAccess
p5914
(dp5915
g654
S'indexOfObject'
p5916
sba(idelphi
DelphiFunctionEndAccess
p5917
(dp5918
g631
(lp5919
(i__main__
DelphiIdentAccess
p5920
(dp5921
g638
S'selectedTdo'
p5922
sg629
(lp5923
sbasbasbasbasbsbasbsbasg1738
(lp5924
(i__main__
DelphiAssignStatement
p5925
(dp5926
g680
Nsg684
(i__main__
DelphiIdentAccess
p5927
(dp5928
g638
S'tdoEditorForm'
p5929
sg629
(lp5930
(idelphi
DelphiFieldEndAccess
p5931
(dp5932
g654
S'free'
p5933
sbasbsba(i__main__
DelphiAssignStatement
p5934
(dp5935
g680
(idelphi
DelphiNilValue
p5936
(dp5937
bsg684
(i__main__
DelphiIdentAccess
p5938
(dp5939
g638
S'tdoEditorForm'
p5940
sg629
(lp5941
sbsbasbasbsg692
(lp5942
(i__main__
DelphiVarSection
p5943
(dp5944
g1487
I0
sg1488
(lp5945
(idelphi
DelphiVarDecl
p5946
(dp5947
g1492
Nsg1493
(lp5948
S'tdoEditorForm'
p5949
asg67
(i__main__
DelphiNamedType
p5950
(dp5951
g70
S'TTdoEditorForm'
p5952
sg72
g1
sg73
Nsbsba(idelphi
DelphiVarDecl
p5953
(dp5954
g1492
Nsg1493
(lp5955
S'response'
p5956
asg67
(i__main__
DelphiPrimitiveType
p5957
(dp5958
g70
g210
sbsbasbasbsbsS'formclose'
p5959
(i__main__
DelphiMethodImplementation
p5960
(dp5961
g594
g397
sg51
g399
sg59
(lp5962
(i__main__
DelphiFormalParameter
p5963
(dp5964
g63
Nsg64
(lp5965
S'Sender'
p5966
asg67
(i__main__
DelphiNamedType
p5967
(dp5968
g70
S'TObject'
p5969
sg72
g1
sg73
Nsbsg74
Nsba(i__main__
DelphiFormalParameter
p5970
(dp5971
g63
Nsg64
(lp5972
S'Action'
p5973
asg67
(i__main__
DelphiNamedType
p5974
(dp5975
g70
S'TCloseAction'
p5976
sg72
g1
sg73
Nsbsg74
g104
sbasg601
(lp5977
sg603
(lp5978
g5973
asg605
(lp5979
g607
ag5966
ag5973
asg608
(dp5980
g5973
g5974
sg5966
g5967
ssg75
S'TPickTdoForm'
p5981
sg76
Nsg611
(lp5982
sg77
I0
sg78
g79
sg613
(i__main__
DelphiBlock
p5983
(dp5984
g616
(idelphi
DelphiCompoundStatement
p5985
(dp5986
g619
(lp5987
(idelphi
DelphiIfStatement
p5988
(dp5989
g623
(i__main__
DelphiIdentAccess
p5990
(dp5991
g638
S'libraryChanged'
p5992
sg629
(lp5993
sbsg676
Nsg677
(idelphi
DelphiCompoundStatement
p5994
(dp5995
g619
(lp5996
(idelphi
DelphiIfStatement
p5997
(dp5998
g623
(idelphi
DelphiRelOp
p5999
(dp6000
g635
(i__main__
DelphiIdentAccess
p6001
(dp6002
g638
S'modalResult'
p6003
sg629
(lp6004
sbsg640
(i__main__
DelphiIdentAccess
p6005
(dp6006
g638
S'mrOK'
p6007
sg629
(lp6008
sbsg659
S'='
sbsg676
(idelphi
DelphiIfStatement
p6009
(dp6010
g623
(idelphi
DelphiRelOp
p6011
(dp6012
g635
(i__main__
DelphiIdentAccess
p6013
(dp6014
g638
S'modalResult'
p6015
sg629
(lp6016
sbsg640
(i__main__
DelphiIdentAccess
p6017
(dp6018
g638
S'mrCancel'
p6019
sg629
(lp6020
sbsg659
S'='
sbsg676
Nsg677
(idelphi
DelphiCompoundStatement
p6021
(dp6022
g619
(lp6023
(i__main__
DelphiAssignStatement
p6024
(dp6025
g680
(i__main__
DelphiIdentAccess
p6026
(dp6027
g638
S'messageDlg'
p6028
sg629
(lp6029
(idelphi
DelphiFunctionEndAccess
p6030
(dp6031
g631
(lp6032
(idelphi
DelphiAddOp
p6033
(dp6034
g643
S'+'
sg644
(idelphi
DelphiStringAccess
p6035
(dp6036
g629
(lp6037
sg172
(idelphi
DelphiStringValue
p6038
(dp6039
g172
S'to the 3D object library?'
p6040
sbsbsg647
(idelphi
DelphiAddOp
p6041
(dp6042
g643
S'+'
sg644
(i__main__
DelphiIdentAccess
p6043
(dp6044
g638
S'chr'
p6045
sg629
(lp6046
(idelphi
DelphiFunctionEndAccess
p6047
(dp6048
g631
(lp6049
(idelphi
DelphiIntegerValue
p6050
(dp6051
g172
S'13'
p6052
sbasbasbsg647
(idelphi
DelphiStringAccess
p6053
(dp6054
g629
(lp6055
sg172
(idelphi
DelphiStringValue
p6056
(dp6057
g172
S'Do you want to save the changes you made'
p6058
sbsbsbsba(i__main__
DelphiIdentAccess
p6059
(dp6060
g638
S'mtConfirmation'
p6061
sg629
(lp6062
sba(idelphi
DelphiSetConstructor
p6063
(dp6064
g1273
(lp6065
(i__main__
DelphiIdentAccess
p6066
(dp6067
g638
S'mbYes'
p6068
sg629
(lp6069
sba(i__main__
DelphiIdentAccess
p6070
(dp6071
g638
S'mbNo'
p6072
sg629
(lp6073
sba(i__main__
DelphiIdentAccess
p6074
(dp6075
g638
S'mbCancel'
p6076
sg629
(lp6077
sbasba(idelphi
DelphiIntegerValue
p6078
(dp6079
g172
S'0'
sbasbasbsg684
(i__main__
DelphiIdentAccess
p6080
(dp6081
g638
S'response'
p6082
sg629
(lp6083
sbsba(idelphi
DelphiCaseStatement
p6084
(dp6085
g1945
Nsg623
(i__main__
DelphiIdentAccess
p6086
(dp6087
g638
S'response'
p6088
sg629
(lp6089
sbsg1950
(lp6090
(idelphi
DelphiCaseSelector
p6091
(dp6092
g761
(idelphi
DelphiCompoundStatement
p6093
(dp6094
g619
(lp6095
(i__main__
DelphiAssignStatement
p6096
(dp6097
g680
Nsg684
(i__main__
DelphiIdentAccess
p6098
(dp6099
g638
S'self'
p6100
sg629
(lp6101
(idelphi
DelphiFieldEndAccess
p6102
(dp6103
g654
S'saveTdosToLibrary'
p6104
sbasbsba(i__main__
DelphiAssignStatement
p6105
(dp6106
g680
(i__main__
DelphiIdentAccess
p6107
(dp6108
g638
S'caFree'
p6109
sg629
(lp6110
sbsg684
(i__main__
DelphiIdentAccess
p6111
(dp6112
g638
S'action'
p6113
sg629
(lp6114
sbsbasbsg1956
(lp6115
(i__main__
DelphiIdentAccess
p6116
(dp6117
g638
S'IDYES'
p6118
sg629
(lp6119
sbasba(idelphi
DelphiCaseSelector
p6120
(dp6121
g761
(i__main__
DelphiAssignStatement
p6122
(dp6123
g680
(i__main__
DelphiIdentAccess
p6124
(dp6125
g638
S'caFree'
p6126
sg629
(lp6127
sbsg684
(i__main__
DelphiIdentAccess
p6128
(dp6129
g638
S'action'
p6130
sg629
(lp6131
sbsbsg1956
(lp6132
(i__main__
DelphiIdentAccess
p6133
(dp6134
g638
S'IDNO'
p6135
sg629
(lp6136
sbasba(idelphi
DelphiCaseSelector
p6137
(dp6138
g761
(i__main__
DelphiAssignStatement
p6139
(dp6140
g680
(i__main__
DelphiIdentAccess
p6141
(dp6142
g638
S'caNone'
p6143
sg629
(lp6144
sbsg684
(i__main__
DelphiIdentAccess
p6145
(dp6146
g638
S'action'
p6147
sg629
(lp6148
sbsbsg1956
(lp6149
(i__main__
DelphiIdentAccess
p6150
(dp6151
g638
S'IDCANCEL'
p6152
sg629
(lp6153
sbasbasbasbsbsg677
(i__main__
DelphiAssignStatement
p6154
(dp6155
g680
Nsg684
(i__main__
DelphiIdentAccess
p6156
(dp6157
g638
S'self'
p6158
sg629
(lp6159
(idelphi
DelphiFieldEndAccess
p6160
(dp6161
g654
S'saveTdosToLibrary'
p6162
sbasbsbsbasbsbasbsg692
(lp6163
(i__main__
DelphiVarSection
p6164
(dp6165
g1487
I0
sg1488
(lp6166
(idelphi
DelphiVarDecl
p6167
(dp6168
g1492
Nsg1493
(lp6169
S'response'
p6170
asg67
(i__main__
DelphiPrimitiveType
p6171
(dp6172
g70
g210
sbsbasbasbsbsS'hintfortdosdrawgridatpoint'
p6173
(i__main__
DelphiMethodImplementation
p6174
(dp6175
g594
g145
sg51
g147
sg59
(lp6176
(i__main__
DelphiFormalParameter
p6177
(dp6178
g63
Nsg64
(lp6179
S'aComponent'
p6180
asg67
(i__main__
DelphiNamedType
p6181
(dp6182
g70
S'TComponent'
p6183
sg72
g1
sg73
Nsbsg74
Nsba(i__main__
DelphiFormalParameter
p6184
(dp6185
g63
Nsg64
(lp6186
S'aPoint'
p6187
asg67
(i__main__
DelphiNamedType
p6188
(dp6189
g70
S'TPoint'
p6190
sg72
g1
sg73
Nsbsg74
Nsba(i__main__
DelphiFormalParameter
p6191
(dp6192
g63
Nsg64
(lp6193
S'cursorRect'
p6194
asg67
(i__main__
DelphiNamedType
p6195
(dp6196
g70
S'TRect'
p6197
sg72
g1
sg73
Nsbsg74
g104
sbasg601
(lp6198
sg603
(lp6199
g6194
asg605
(lp6200
g607
ag6180
ag6187
ag6194
asg608
(dp6201
g6180
g6181
sg6194
g6195
sg6187
g6188
ssg75
S'TPickTdoForm'
p6202
sg76
(i__main__
DelphiPrimitiveType
p6203
(dp6204
g70
g172
sbsg611
(lp6205
sg77
I0
sg78
g173
sg613
(i__main__
DelphiBlock
p6206
(dp6207
g616
(idelphi
DelphiCompoundStatement
p6208
(dp6209
g619
(lp6210
(i__main__
DelphiAssignStatement
p6211
(dp6212
g680
(idelphi
DelphiStringAccess
p6213
(dp6214
g629
(lp6215
sg172
(idelphi
DelphiStringValue
p6216
(dp6217
g172
S''
sbsbsg684
(i__main__
DelphiIdentAccess
p6218
(dp6219
g638
S'result'
p6220
sg629
(lp6221
sbsba(i__main__
DelphiAssignStatement
p6222
(dp6223
g680
Nsg684
(i__main__
DelphiIdentAccess
p6224
(dp6225
g638
S'grid'
p6226
sg629
(lp6227
(idelphi
DelphiFieldEndAccess
p6228
(dp6229
g654
S'mouseToCell'
p6230
sba(idelphi
DelphiFunctionEndAccess
p6231
(dp6232
g631
(lp6233
(i__main__
DelphiIdentAccess
p6234
(dp6235
g638
S'aPoint'
p6236
sg629
(lp6237
(idelphi
DelphiFieldEndAccess
p6238
(dp6239
g654
S'x'
sbasba(i__main__
DelphiIdentAccess
p6240
(dp6241
g638
S'aPoint'
p6242
sg629
(lp6243
(idelphi
DelphiFieldEndAccess
p6244
(dp6245
g654
S'y'
sbasba(i__main__
DelphiIdentAccess
p6246
(dp6247
g638
S'col'
p6248
sg629
(lp6249
sba(i__main__
DelphiIdentAccess
p6250
(dp6251
g638
S'row'
p6252
sg629
(lp6253
sbasbasbsba(i__main__
DelphiAssignStatement
p6254
(dp6255
g680
(idelphi
DelphiAddOp
p6256
(dp6257
g643
S'+'
sg644
(i__main__
DelphiIdentAccess
p6258
(dp6259
g638
S'col'
p6260
sg629
(lp6261
sbsg647
(idelphi
DelphiMulOp
p6262
(dp6263
g626
(i__main__
DelphiIdentAccess
p6264
(dp6265
g638
S'grid'
p6266
sg629
(lp6267
(idelphi
DelphiFieldEndAccess
p6268
(dp6269
g654
S'colCount'
p6270
sbasbsg661
S'*'
sg663
(i__main__
DelphiIdentAccess
p6271
(dp6272
g638
S'row'
p6273
sg629
(lp6274
sbsbsbsg684
(i__main__
DelphiIdentAccess
p6275
(dp6276
g638
g182
sg629
(lp6277
sbsba(i__main__
DelphiAssignStatement
p6278
(dp6279
g680
(i__main__
DelphiIdentAccess
p6280
(dp6281
g638
S'self'
p6282
sg629
(lp6283
(idelphi
DelphiFieldEndAccess
p6284
(dp6285
g654
S'tdoForIndex'
p6286
sba(idelphi
DelphiFunctionEndAccess
p6287
(dp6288
g631
(lp6289
(i__main__
DelphiIdentAccess
p6290
(dp6291
g638
g182
sg629
(lp6292
sbasbasbsg684
(i__main__
DelphiIdentAccess
p6293
(dp6294
g638
S'tdo'
p6295
sg629
(lp6296
sbsba(idelphi
DelphiIfStatement
p6297
(dp6298
g623
(idelphi
DelphiRelOp
p6299
(dp6300
g635
(i__main__
DelphiIdentAccess
p6301
(dp6302
g638
S'tdo'
p6303
sg629
(lp6304
sbsg640
(idelphi
DelphiNilValue
p6305
(dp6306
bsg659
S'='
sbsg676
Nsg677
(i__main__
DelphiExitStatement
p6307
(dp6308
g1291
g6174
sbsba(i__main__
DelphiAssignStatement
p6309
(dp6310
g680
(i__main__
DelphiIdentAccess
p6311
(dp6312
g638
S'tdo'
p6313
sg629
(lp6314
(idelphi
DelphiFieldEndAccess
p6315
(dp6316
g654
S'getName'
p6317
sbasbsg684
(i__main__
DelphiIdentAccess
p6318
(dp6319
g638
S'result'
p6320
sg629
(lp6321
sbsba(i__main__
DelphiAssignStatement
p6322
(dp6323
g680
(i__main__
DelphiIdentAccess
p6324
(dp6325
g638
S'grid'
p6326
sg629
(lp6327
(idelphi
DelphiFieldEndAccess
p6328
(dp6329
g654
S'cellRect'
p6330
sba(idelphi
DelphiFunctionEndAccess
p6331
(dp6332
g631
(lp6333
(i__main__
DelphiIdentAccess
p6334
(dp6335
g638
S'col'
p6336
sg629
(lp6337
sba(i__main__
DelphiIdentAccess
p6338
(dp6339
g638
S'row'
p6340
sg629
(lp6341
sbasbasbsg684
(i__main__
DelphiIdentAccess
p6342
(dp6343
g638
S'cursorRect'
p6344
sg629
(lp6345
sbsg105
(lp6346
S" change hint if cursor moves out of the current item's rectangle "
p6347
asbasbsg692
(lp6348
(i__main__
DelphiVarSection
p6349
(dp6350
g1487
I0
sg1488
(lp6351
(idelphi
DelphiVarDecl
p6352
(dp6353
g1492
Nsg1493
(lp6354
S'col'
p6355
aS'row'
p6356
ag182
asg67
(i__main__
DelphiPrimitiveType
p6357
(dp6358
g70
g210
sbsba(idelphi
DelphiVarDecl
p6359
(dp6360
g1492
Nsg1493
(lp6361
S'tdo'
p6362
asg67
(i__main__
DelphiNamedType
p6363
(dp6364
g70
S'KfObject3D'
p6365
sg72
g1
sg73
NsbsbasbasbsbsS'closeclick'
p6366
(i__main__
DelphiMethodImplementation
p6367
(dp6368
g594
g464
sg51
g466
sg59
(lp6369
(i__main__
DelphiFormalParameter
p6370
(dp6371
g63
Nsg64
(lp6372
S'Sender'
p6373
asg67
(i__main__
DelphiNamedType
p6374
(dp6375
g70
S'TObject'
p6376
sg72
g1
sg73
Nsbsg74
Nsbasg601
(lp6377
sg603
(lp6378
sg605
(lp6379
g607
ag6373
asg608
(dp6380
g6373
g6374
ssg75
S'TPickTdoForm'
p6381
sg76
Nsg611
(lp6382
sg77
I0
sg78
g79
sg613
(i__main__
DelphiBlock
p6383
(dp6384
g616
(idelphi
DelphiCompoundStatement
p6385
(dp6386
g619
(lp6387
(idelphi
DelphiIfStatement
p6388
(dp6389
g623
(idelphi
DelphiMulOp
p6390
(dp6391
g626
(idelphi
DelphiNestedExpressionListAccess
p6392
(dp6393
g629
(lp6394
sg631
(lp6395
(idelphi
DelphiRelOp
p6396
(dp6397
g635
(i__main__
DelphiIdentAccess
p6398
(dp6399
g638
S'self'
p6400
sg629
(lp6401
(idelphi
DelphiFieldEndAccess
p6402
(dp6403
g654
S'selectedTdo'
p6404
sbasbsg640
(idelphi
DelphiNilValue
p6405
(dp6406
bsg659
S'<>'
p6407
sbasbsg661
g662
sg663
(idelphi
DelphiNestedExpressionListAccess
p6408
(dp6409
g629
(lp6410
sg631
(lp6411
(idelphi
DelphiAddOp
p6412
(dp6413
g643
g2228
sg644
(i__main__
DelphiIdentAccess
p6414
(dp6415
g638
S'editedTdo'
p6416
sg629
(lp6417
sbsg647
(i__main__
DelphiIdentAccess
p6418
(dp6419
g638
S'tdoSelectionChanged'
p6420
sg629
(lp6421
sbsbasbsbsg676
Nsg677
(i__main__
DelphiAssignStatement
p6422
(dp6423
g680
Nsg684
(i__main__
DelphiIdentAccess
p6424
(dp6425
g638
S'self'
p6426
sg629
(lp6427
(idelphi
DelphiFieldEndAccess
p6428
(dp6429
g654
S'applyClick'
p6430
sba(idelphi
DelphiFunctionEndAccess
p6431
(dp6432
g631
(lp6433
(i__main__
DelphiIdentAccess
p6434
(dp6435
g638
S'self'
p6436
sg629
(lp6437
sbasbasbsbsba(i__main__
DelphiAssignStatement
p6438
(dp6439
g680
(i__main__
DelphiIdentAccess
p6440
(dp6441
g638
S'mrOK'
p6442
sg629
(lp6443
sbsg684
(i__main__
DelphiIdentAccess
p6444
(dp6445
g638
S'modalResult'
p6446
sg629
(lp6447
sbsbasbsg692
(lp6448
sbsbsS'tdoschange'
p6449
(i__main__
DelphiMethodImplementation
p6450
(dp6451
g594
g452
sg51
g454
sg59
(lp6452
(i__main__
DelphiFormalParameter
p6453
(dp6454
g63
Nsg64
(lp6455
S'Sender'
p6456
asg67
(i__main__
DelphiNamedType
p6457
(dp6458
g70
S'TObject'
p6459
sg72
g1
sg73
Nsbsg74
Nsbasg601
(lp6460
sg603
(lp6461
sg605
(lp6462
g607
ag6456
asg608
(dp6463
g6456
g6457
ssg75
S'TPickTdoForm'
p6464
sg76
Nsg611
(lp6465
sg77
I0
sg78
g79
sg613
(i__main__
DelphiBlock
p6466
(dp6467
g616
(idelphi
DelphiCompoundStatement
p6468
(dp6469
g619
(lp6470
(i__main__
DelphiAssignStatement
p6471
(dp6472
g680
(i__main__
DelphiIdentAccess
p6473
(dp6474
g638
S'true'
p6475
sg629
(lp6476
sbsg684
(i__main__
DelphiIdentAccess
p6477
(dp6478
g638
S'internalChange'
p6479
sg629
(lp6480
sbsba(i__main__
DelphiAssignStatement
p6481
(dp6482
g680
(i__main__
DelphiIdentAccess
p6483
(dp6484
g638
S'true'
p6485
sg629
(lp6486
sbsg684
(i__main__
DelphiIdentAccess
p6487
(dp6488
g638
S'tdoSelectionChanged'
p6489
sg629
(lp6490
sbsba(i__main__
DelphiAssignStatement
p6491
(dp6492
g680
(idelphi
DelphiMulOp
p6493
(dp6494
g626
(i__main__
DelphiIdentAccess
p6495
(dp6496
g638
S'grid'
p6497
sg629
(lp6498
(idelphi
DelphiFieldEndAccess
p6499
(dp6500
g654
S'colCount'
p6501
sbasbsg661
g1362
sg663
(i__main__
DelphiIdentAccess
p6502
(dp6503
g638
S'tdos'
p6504
sg629
(lp6505
(idelphi
DelphiFieldEndAccess
p6506
(dp6507
g654
S'itemIndex'
p6508
sbasbsbsg684
(i__main__
DelphiIdentAccess
p6509
(dp6510
g638
S'grid'
p6511
sg629
(lp6512
(idelphi
DelphiFieldEndAccess
p6513
(dp6514
g654
S'row'
p6515
sbasbsba(i__main__
DelphiAssignStatement
p6516
(dp6517
g680
(idelphi
DelphiMulOp
p6518
(dp6519
g626
(i__main__
DelphiIdentAccess
p6520
(dp6521
g638
S'grid'
p6522
sg629
(lp6523
(idelphi
DelphiFieldEndAccess
p6524
(dp6525
g654
S'colCount'
p6526
sbasbsg661
g2279
sg663
(i__main__
DelphiIdentAccess
p6527
(dp6528
g638
S'tdos'
p6529
sg629
(lp6530
(idelphi
DelphiFieldEndAccess
p6531
(dp6532
g654
S'itemIndex'
p6533
sbasbsbsg684
(i__main__
DelphiIdentAccess
p6534
(dp6535
g638
S'grid'
p6536
sg629
(lp6537
(idelphi
DelphiFieldEndAccess
p6538
(dp6539
g654
S'col'
p6540
sbasbsba(i__main__
DelphiAssignStatement
p6541
(dp6542
g680
(i__main__
DelphiIdentAccess
p6543
(dp6544
g638
S'false'
p6545
sg629
(lp6546
sbsg684
(i__main__
DelphiIdentAccess
p6547
(dp6548
g638
S'internalChange'
p6549
sg629
(lp6550
sbsbasbsg692
(lp6551
sbsbsS'applyclick'
p6552
(i__main__
DelphiMethodImplementation
p6553
(dp6554
g594
g440
sg51
g442
sg59
(lp6555
(i__main__
DelphiFormalParameter
p6556
(dp6557
g63
Nsg64
(lp6558
S'Sender'
p6559
asg67
(i__main__
DelphiNamedType
p6560
(dp6561
g70
S'TObject'
p6562
sg72
g1
sg73
Nsbsg74
Nsbasg601
(lp6563
sg603
(lp6564
sg605
(lp6565
g607
ag6559
asg608
(dp6566
g6559
g6560
ssg75
S'TPickTdoForm'
p6567
sg76
Nsg611
(lp6568
sg77
I0
sg78
g79
sg613
(i__main__
DelphiBlock
p6569
(dp6570
g616
(idelphi
DelphiCompoundStatement
p6571
(dp6572
g619
(lp6573
(idelphi
DelphiIfStatement
p6574
(dp6575
g623
(idelphi
DelphiRelOp
p6576
(dp6577
g635
(i__main__
DelphiIdentAccess
p6578
(dp6579
g638
S'self'
p6580
sg629
(lp6581
(idelphi
DelphiFieldEndAccess
p6582
(dp6583
g654
S'selectedTdo'
p6584
sbasbsg640
(idelphi
DelphiNilValue
p6585
(dp6586
bsg659
g6407
sbsg676
Nsg677
(i__main__
DelphiAssignStatement
p6587
(dp6588
g680
Nsg684
(i__main__
DelphiIdentAccess
p6589
(dp6590
g638
S'MainForm'
p6591
sg629
(lp6592
(idelphi
DelphiFieldEndAccess
p6593
(dp6594
g654
S'doCommand'
p6595
sba(idelphi
DelphiFunctionEndAccess
p6596
(dp6597
g631
(lp6598
(i__main__
DelphiIdentAccess
p6599
(dp6600
g638
S'PdChangeTdoValueCommand'
p6601
sg629
(lp6602
(idelphi
DelphiFieldEndAccess
p6603
(dp6604
g654
S'createCommandWithListOfPlants'
p6605
sba(idelphi
DelphiFunctionEndAccess
p6606
(dp6607
g631
(lp6608
(i__main__
DelphiIdentAccess
p6609
(dp6610
g638
S'MainForm'
p6611
sg629
(lp6612
(idelphi
DelphiFieldEndAccess
p6613
(dp6614
g654
S'selectedPlants'
p6615
sbasba(i__main__
DelphiIdentAccess
p6616
(dp6617
g638
S'self'
p6618
sg629
(lp6619
(idelphi
DelphiFieldEndAccess
p6620
(dp6621
g654
S'selectedTdo'
p6622
sbasba(i__main__
DelphiIdentAccess
p6623
(dp6624
g638
S'param'
p6625
sg629
(lp6626
(idelphi
DelphiFieldEndAccess
p6627
(dp6628
g654
S'fieldNumber'
p6629
sbasba(i__main__
DelphiIdentAccess
p6630
(dp6631
g638
S'param'
p6632
sg629
(lp6633
(idelphi
DelphiFieldEndAccess
p6634
(dp6635
g654
S'regrow'
p6636
sbasbasbasbasbasbsbsbasbsg692
(lp6637
sbsbssS'propertyDeclarations'
p6638
(dp6639
sS'variableNamesInDeclaredOrder'
p6640
(lp6641
g30
ag40
ag38
ag36
ag42
ag22
ag48
ag46
ag12
ag20
ag18
ag24
ag32
ag26
ag10
ag44
ag50
ag34
ag14
ag28
ag16
asbasS'includedUnits'
p6642
NsS'implementationUses'
p6643
(lp6644
S'usupport'
p6645
aS'udomain'
p6646
aS'uturtle'
p6647
aS'umain'
p6648
aS'utdoedit'
p6649
aS'updcom'
p6650
aS'utdomove'
p6651
asg51
S'upicktdo'
p6652
sS'constSections'
p6653
(lp6654
sS'globalsInProperCase'
p6655
NsS'interfaceUses'
p6656
(lp6657
S'delphi_compatability'
p6658
aS'Windows'
p6659
aS'Messages'
p6660
aS'SysUtils'
p6661
aS'Classes'
p6662
aS'Graphics'
p6663
aS'Controls'
p6664
aS'Forms'
p6665
aS'Dialogs'
p6666
aS'StdCtrls'
p6667
aS'Buttons'
p6668
aS'Grids'
p6669
aS'ExtCtrls'
p6670
aS'ucollect'
p6671
aS'utdo'
p6672
aS'uparams'
p6673
aS'updform'
p6674
asS'finalCommentToken'
p6675
(i__main__
PassStatement
p6676
(dp6677
g692
(lp6678
sbsS'varSections'
p6679
(lp6680
sS'globals'
p6681
NsS'originalFileName'
p6682
S'../../PlantStudioInPython/converted_source/upicktdo.pas'
p6683
sS'proceduralImplementations'
p6684
(dp6685
sS'fileName'
p6686
S'/Users/pdf/Documents/workspace/PlantStudioInPython/converted_source/upicktdo.pas'
p6687
sS'proceduralDeclarations'
p6688
(dp6689
sS'types'
p6690
(dp6691
S'tpicktdoform'
p6692
g5
ssb.