(i__main__
DelphiUnit
p1
(dp2
S'sectionsInOrderDefined'
p3
(lp4
(i__main__
DelphiClass
p5
(dp6
S'variableNamesInProperCase'
p7
(dp8
S'plants'
p9
S'plants'
p10
sS'showboundsrectangle'
p11
S'showBoundsRectangle'
p12
sS'plantdrawscale_pixelspermm'
p13
S'plantDrawScale_PixelsPerMm'
p14
sS'mainwindowviewmode'
p15
S'mainWindowViewMode'
p16
sS'mainwindoworientation'
p17
S'mainWindowOrientation'
p18
sS'privateplantclipboard'
p19
S'privatePlantClipboard'
p20
sS'fitinvisibleareaforconcentrationchange'
p21
S'fitInVisibleAreaForConcentrationChange'
p22
sS'plantdrawoffset_mm'
p23
S'plantDrawOffset_mm'
p24
ssS'name'
p25
S'PdPlantManager'
p26
sS'methodDeclarations'
p27
(dp28
S'combinedplantboundsrects'
p29
(i__main__
DelphiMethodDeclaration
p30
(dp31
g25
S'combinedPlantBoundsRects'
p32
sS'formalParameters'
p33
(lp34
(i__main__
DelphiFormalParameter
p35
(dp36
S'initialValue'
p37
NsS'names'
p38
(lp39
S'selectedPlants'
p40
asS'theType'
p41
(i__main__
DelphiNamedType
p42
(dp43
S'typeName'
p44
S'TList'
p45
sS'unitDefinedIn'
p46
g1
sS'unitName'
p47
NsbsS'parameterVariety'
p48
Nsba(i__main__
DelphiFormalParameter
p49
(dp50
g37
Nsg38
(lp51
S'excludeInvisiblePlants'
p52
aS'excludeNonSelectedPlants'
p53
asg41
(i__main__
DelphiPrimitiveType
p54
(dp55
g44
S'boolean'
p56
sbsg48
NsbasS'className'
p57
g26
sS'resultType'
p58
(i__main__
DelphiNamedType
p59
(dp60
g44
S'TRect'
p61
sg46
g1
sg47
NsbsS'isClassMethod'
p62
I0
sS'methodType'
p63
S'function'
p64
sbsS'reconcilefilewithtdolibrary'
p65
(i__main__
DelphiMethodDeclaration
p66
(dp67
g25
S'reconcileFileWithTdoLibrary'
p68
sg33
(lp69
(i__main__
DelphiFormalParameter
p70
(dp71
g37
Nsg38
(lp72
S'plantFileName'
p73
aS'tdoLibrary'
p74
asg41
(i__main__
DelphiPrimitiveType
p75
(dp76
g44
S'string'
p77
sbsg48
Nsbasg57
g26
sg58
(i__main__
DelphiPrimitiveType
p78
(dp79
g44
S'integer'
p80
sbsg62
I0
sg63
g64
sS'commentLinesBefore'
p81
(lp82
S' v1.11\r'
p83
asbsS'copyplantsinlisttoprivateplantclipboard'
p84
(i__main__
DelphiMethodDeclaration
p85
(dp86
g25
S'copyPlantsInListToPrivatePlantClipboard'
p87
sg33
(lp88
(i__main__
DelphiFormalParameter
p89
(dp90
g37
Nsg38
(lp91
S'aList'
p92
asg41
(i__main__
DelphiNamedType
p93
(dp94
g44
S'TList'
p95
sg46
g1
sg47
Nsbsg48
Nsbasg57
g26
sg58
Nsg62
I0
sg63
S'procedure'
p96
sbsS'addplant'
p97
(i__main__
DelphiMethodDeclaration
p98
(dp99
g25
S'addPlant'
p100
sg33
(lp101
(i__main__
DelphiFormalParameter
p102
(dp103
g37
Nsg38
(lp104
S'newPlant'
p105
asg41
(i__main__
DelphiNamedType
p106
(dp107
g44
S'PdPlant'
p108
sg46
g1
sg47
Nsbsg48
Nsbasg57
g26
sg58
Nsg62
I0
sg63
g96
sbsS'copyfromplant'
p109
(i__main__
DelphiMethodDeclaration
p110
(dp111
g25
S'copyFromPlant'
p112
sg33
(lp113
(i__main__
DelphiFormalParameter
p114
(dp115
g37
Nsg38
(lp116
S'plant'
p117
asg41
(i__main__
DelphiNamedType
p118
(dp119
g44
S'PdPlant'
p120
sg46
g1
sg47
Nsbsg48
Nsbasg57
g26
sg58
(i__main__
DelphiNamedType
p121
(dp122
g44
S'PdPlant'
p123
sg46
g1
sg47
Nsbsg62
I0
sg63
g64
sbsS'write3doutputfiletofilename'
p124
(i__main__
DelphiMethodDeclaration
p125
(dp126
g25
S'write3DOutputFileToFileName'
p127
sg33
(lp128
(i__main__
DelphiFormalParameter
p129
(dp130
g37
Nsg38
(lp131
S'selectedPlants'
p132
asg41
(i__main__
DelphiNamedType
p133
(dp134
g44
S'TList'
p135
sg46
g1
sg47
Nsbsg48
Nsba(i__main__
DelphiFormalParameter
p136
(dp137
g37
Nsg38
(lp138
S'excludeInvisiblePlants'
p139
aS'excludeNonSelectedPlants'
p140
asg41
(i__main__
DelphiPrimitiveType
p141
(dp142
g44
g56
sbsg48
Nsba(i__main__
DelphiFormalParameter
p143
(dp144
g37
Nsg38
(lp145
S'fileName'
p146
asg41
(i__main__
DelphiPrimitiveType
p147
(dp148
g44
g77
sbsg48
Nsba(i__main__
DelphiFormalParameter
p149
(dp150
g37
Nsg38
(lp151
S'outputType'
p152
asg41
(i__main__
DelphiPrimitiveType
p153
(dp154
g44
S'smallint'
p155
sbsg48
Nsbasg57
g26
sg58
Nsg62
I0
sg63
g96
sbsS'findplantatpoint'
p156
(i__main__
DelphiMethodDeclaration
p157
(dp158
g25
S'findPlantAtPoint'
p159
sg33
(lp160
(i__main__
DelphiFormalParameter
p161
(dp162
g37
Nsg38
(lp163
S'aPoint'
p164
asg41
(i__main__
DelphiNamedType
p165
(dp166
g44
S'TPoint'
p167
sg46
g1
sg47
Nsbsg48
Nsbasg57
g26
sg58
(i__main__
DelphiNamedType
p168
(dp169
g44
S'PdPlant'
p170
sg46
g1
sg47
Nsbsg62
I0
sg63
g64
sbsS'loadplantsfromfile'
p171
(i__main__
DelphiMethodDeclaration
p172
(dp173
g25
S'loadPlantsFromFile'
p174
sg33
(lp175
(i__main__
DelphiFormalParameter
p176
(dp177
g37
Nsg38
(lp178
S'fileName'
p179
asg41
(i__main__
DelphiPrimitiveType
p180
(dp181
g44
g77
sbsg48
Nsba(i__main__
DelphiFormalParameter
p182
(dp183
g37
Nsg38
(lp184
S'inPlantMover'
p185
asg41
(i__main__
DelphiPrimitiveType
p186
(dp187
g44
g56
sbsg48
Nsbasg57
g26
sg58
Nsg62
I0
sg63
g96
sbsS'totalplantpartcountininvalidrect'
p188
(i__main__
DelphiMethodDeclaration
p189
(dp190
g25
S'totalPlantPartCountInInvalidRect'
p191
sg33
(lp192
(i__main__
DelphiFormalParameter
p193
(dp194
g37
Nsg38
(lp195
S'selectedPlants'
p196
asg41
(i__main__
DelphiNamedType
p197
(dp198
g44
S'TList'
p199
sg46
g1
sg47
Nsbsg48
Nsba(i__main__
DelphiFormalParameter
p200
(dp201
g37
Nsg38
(lp202
S'invalidRect'
p203
asg41
(i__main__
DelphiNamedType
p204
(dp205
g44
S'TRect'
p206
sg46
g1
sg47
Nsbsg48
Nsba(i__main__
DelphiFormalParameter
p207
(dp208
g37
Nsg38
(lp209
S'excludeInvisiblePlants'
p210
aS'excludeNonSelectedPlants'
p211
asg41
(i__main__
DelphiPrimitiveType
p212
(dp213
g44
g56
sbsg48
Nsbasg57
g26
sg58
(i__main__
DelphiPrimitiveType
p214
(dp215
g44
S'longint'
p216
sbsg62
I0
sg63
g64
sg81
(lp217
S'procedure drawWithOpenGLOnInvalidRect(form: TForm; selectedPlants: TList; invalidRect: TRect;\r'
p218
aS'  glRect: TRect; excludeInvisiblePlants, excludeNonSelectedPlants: boolean);\r'
p219
asbsS'largestplantboundsrect'
p220
(i__main__
DelphiMethodDeclaration
p221
(dp222
g25
S'largestPlantBoundsRect'
p223
sg33
(lp224
(i__main__
DelphiFormalParameter
p225
(dp226
g37
Nsg38
(lp227
S'selectedPlants'
p228
asg41
(i__main__
DelphiNamedType
p229
(dp230
g44
S'TList'
p231
sg46
g1
sg47
Nsbsg48
Nsba(i__main__
DelphiFormalParameter
p232
(dp233
g37
Nsg38
(lp234
S'excludeInvisiblePlants'
p235
aS'excludeNonSelectedPlants'
p236
asg41
(i__main__
DelphiPrimitiveType
p237
(dp238
g44
g56
sbsg48
Nsbasg57
g26
sg58
(i__main__
DelphiNamedType
p239
(dp240
g44
S'TRect'
p241
sg46
g1
sg47
Nsbsg62
I0
sg63
g64
sbsS'create'
p242
(i__main__
DelphiMethodDeclaration
p243
(dp244
g25
S'create'
p245
sg33
(lp246
sg57
g26
sg58
Nsg62
I0
sg63
S'constructor'
p247
sbsS'saveplantstofile'
p248
(i__main__
DelphiMethodDeclaration
p249
(dp250
g25
S'savePlantsToFile'
p251
sg33
(lp252
(i__main__
DelphiFormalParameter
p253
(dp254
g37
Nsg38
(lp255
S'fileName'
p256
asg41
(i__main__
DelphiPrimitiveType
p257
(dp258
g44
g77
sbsg48
Nsba(i__main__
DelphiFormalParameter
p259
(dp260
g37
Nsg38
(lp261
S'inPlantMover'
p262
asg41
(i__main__
DelphiPrimitiveType
p263
(dp264
g44
g56
sbsg48
Nsbasg57
g26
sg58
Nsg62
I0
sg63
g96
sbsS'removeplant'
p265
(i__main__
DelphiMethodDeclaration
p266
(dp267
g25
S'removePlant'
p268
sg33
(lp269
(i__main__
DelphiFormalParameter
p270
(dp271
g37
Nsg38
(lp272
S'aPlant'
p273
asg41
(i__main__
DelphiNamedType
p274
(dp275
g44
S'PdPlant'
p276
sg46
g1
sg47
Nsbsg48
Nsbasg57
g26
sg58
(i__main__
DelphiPrimitiveType
p277
(dp278
g44
g56
sbsg62
I0
sg63
g64
sbsS'plantforindex'
p279
(i__main__
DelphiMethodDeclaration
p280
(dp281
g25
S'plantForIndex'
p282
sg33
(lp283
(i__main__
DelphiFormalParameter
p284
(dp285
g37
Nsg38
(lp286
S'index'
p287
asg41
(i__main__
DelphiPrimitiveType
p288
(dp289
g44
g216
sbsg48
Nsbasg57
g26
sg58
(i__main__
DelphiNamedType
p290
(dp291
g44
S'PdPlant'
p292
sg46
g1
sg47
Nsbsg62
I0
sg63
g64
sbsS'setcopiedfrommainwindowflaginclipboardplants'
p293
(i__main__
DelphiMethodDeclaration
p294
(dp295
g25
S'setCopiedFromMainWindowFlagInClipboardPlants'
p296
sg33
(lp297
sg57
g26
sg58
Nsg62
I0
sg63
g96
sbsS'zeroallboundsrectstoforceredraw'
p298
(i__main__
DelphiMethodDeclaration
p299
(dp300
g25
S'zeroAllBoundsRectsToForceRedraw'
p301
sg33
(lp302
sg57
g26
sg58
Nsg62
I0
sg63
g96
sbsS'findfirstplantwithboundsrectatpoint'
p303
(i__main__
DelphiMethodDeclaration
p304
(dp305
g25
S'findFirstPlantWithBoundsRectAtPoint'
p306
sg33
(lp307
(i__main__
DelphiFormalParameter
p308
(dp309
g37
Nsg38
(lp310
S'aPoint'
p311
asg41
(i__main__
DelphiNamedType
p312
(dp313
g44
S'TPoint'
p314
sg46
g1
sg47
Nsbsg48
Nsbasg57
g26
sg58
(i__main__
DelphiNamedType
p315
(dp316
g44
S'PdPlant'
p317
sg46
g1
sg47
Nsbsg62
I0
sg63
g64
sbsS'pasteplantsfromprivateplantclipboardtolist'
p318
(i__main__
DelphiMethodDeclaration
p319
(dp320
g25
S'pastePlantsFromPrivatePlantClipboardToList'
p321
sg33
(lp322
(i__main__
DelphiFormalParameter
p323
(dp324
g37
Nsg38
(lp325
S'aList'
p326
asg41
(i__main__
DelphiNamedType
p327
(dp328
g44
S'TList'
p329
sg46
g1
sg47
Nsbsg48
Nsbasg57
g26
sg58
Nsg62
I0
sg63
g96
sbsS'destroy'
p330
(i__main__
DelphiMethodDeclaration
p331
(dp332
g25
S'destroy'
p333
sg33
(lp334
sg57
g26
sg58
Nsg62
I0
sg63
S'destructor'
p335
sbsS'loadplantobjectsintotstrings'
p336
(i__main__
DelphiMethodDeclaration
p337
(dp338
g25
S'loadPlantObjectsIntoTStrings'
p339
sg33
(lp340
(i__main__
DelphiFormalParameter
p341
(dp342
g37
Nsg38
(lp343
S'stringList'
p344
asg41
(i__main__
DelphiNamedType
p345
(dp346
g44
S'TStrings'
p347
sg46
g1
sg47
Nsbsg48
Nsbasg57
g26
sg58
Nsg62
I0
sg63
g96
sbsS'filllistwithplantsinrectangle'
p348
(i__main__
DelphiMethodDeclaration
p349
(dp350
g25
S'fillListWithPlantsInRectangle'
p351
sg33
(lp352
(i__main__
DelphiFormalParameter
p353
(dp354
g37
Nsg38
(lp355
S'aRect'
p356
asg41
(i__main__
DelphiNamedType
p357
(dp358
g44
S'TRect'
p359
sg46
g1
sg47
Nsbsg48
Nsba(i__main__
DelphiFormalParameter
p360
(dp361
g37
Nsg38
(lp362
S'aList'
p363
asg41
(i__main__
DelphiNamedType
p364
(dp365
g44
S'TList'
p366
sg46
g1
sg47
Nsbsg48
Nsbasg57
g26
sg58
Nsg62
I0
sg63
g96
sbsS'drawoninvalidrect'
p367
(i__main__
DelphiMethodDeclaration
p368
(dp369
g25
S'drawOnInvalidRect'
p370
sg33
(lp371
(i__main__
DelphiFormalParameter
p372
(dp373
g37
Nsg38
(lp374
S'destCanvas'
p375
asg41
(i__main__
DelphiNamedType
p376
(dp377
g44
S'TCanvas'
p378
sg46
g1
sg47
Nsbsg48
Nsba(i__main__
DelphiFormalParameter
p379
(dp380
g37
Nsg38
(lp381
S'selectedPlants'
p382
asg41
(i__main__
DelphiNamedType
p383
(dp384
g44
S'TList'
p385
sg46
g1
sg47
Nsbsg48
Nsba(i__main__
DelphiFormalParameter
p386
(dp387
g37
Nsg38
(lp388
S'invalidRect'
p389
asg41
(i__main__
DelphiNamedType
p390
(dp391
g44
S'TRect'
p392
sg46
g1
sg47
Nsbsg48
Nsba(i__main__
DelphiFormalParameter
p393
(dp394
g37
Nsg38
(lp395
S'excludeInvisiblePlants'
p396
aS'excludeNonSelectedPlants'
p397
asg41
(i__main__
DelphiPrimitiveType
p398
(dp399
g44
g56
sbsg48
Nsbasg57
g26
sg58
Nsg62
I0
sg63
g96
sbsS'pastefirstplantfromprivateplantclipboardtoplant'
p400
(i__main__
DelphiMethodDeclaration
p401
(dp402
g25
S'pasteFirstPlantFromPrivatePlantClipboardToPlant'
p403
sg33
(lp404
(i__main__
DelphiFormalParameter
p405
(dp406
g37
Nsg38
(lp407
S'newPlant'
p408
asg41
(i__main__
DelphiNamedType
p409
(dp410
g44
S'PdPlant'
p411
sg46
g1
sg47
Nsbsg48
Nsbasg57
g26
sg58
Nsg62
I0
sg63
g96
sbsS'visibleplantcount'
p412
(i__main__
DelphiMethodDeclaration
p413
(dp414
g25
S'visiblePlantCount'
p415
sg33
(lp416
sg57
g26
sg58
(i__main__
DelphiPrimitiveType
p417
(dp418
g44
g155
sbsg62
I0
sg63
g64
sbssS'superclassNamedTypes'
p419
(lp420
(i__main__
DelphiNamedType
p421
(dp422
g44
S'TObject'
p423
sg46
g1
sg47
NsbasS'variableNames'
p424
(dp425
S'plants'
p426
(i__main__
DelphiNamedType
p427
(dp428
g44
S'TListCollection'
p429
sg46
g1
sg47
NsbsS'showboundsrectangle'
p430
(i__main__
DelphiPrimitiveType
p431
(dp432
g44
g56
sbsS'plantdrawscale_pixelspermm'
p433
(i__main__
DelphiPrimitiveType
p434
(dp435
g44
S'single'
p436
sbsS'mainwindowviewmode'
p437
(i__main__
DelphiPrimitiveType
p438
(dp439
g44
g155
sbsS'mainwindoworientation'
p440
(i__main__
DelphiPrimitiveType
p441
(dp442
g44
g155
sbsS'privateplantclipboard'
p443
(i__main__
DelphiNamedType
p444
(dp445
g44
S'TListCollection'
p446
sg46
g1
sg47
NsbsS'fitinvisibleareaforconcentrationchange'
p447
(i__main__
DelphiPrimitiveType
p448
(dp449
g44
g56
sbsS'plantdrawoffset_mm'
p450
(i__main__
DelphiNamedType
p451
(dp452
g44
S'SinglePoint'
p453
sg46
g1
sg47
NsbssS'methodNamesInDefinedOrder'
p454
(lp455
S'create'
p456
aS'destroy'
p457
aS'addplant'
p458
aS'removeplant'
p459
aS'copyfromplant'
p460
aS'plantforindex'
p461
aS'findplantatpoint'
p462
aS'findfirstplantwithboundsrectatpoint'
p463
aS'loadplantobjectsintotstrings'
p464
aS'loadplantsfromfile'
p465
aS'saveplantstofile'
p466
aS'reconcilefilewithtdolibrary'
p467
aS'visibleplantcount'
p468
aS'drawoninvalidrect'
p469
aS'totalplantpartcountininvalidrect'
p470
aS'zeroallboundsrectstoforceredraw'
p471
aS'filllistwithplantsinrectangle'
p472
aS'write3doutputfiletofilename'
p473
aS'combinedplantboundsrects'
p474
aS'largestplantboundsrect'
p475
aS'copyplantsinlisttoprivateplantclipboard'
p476
aS'setcopiedfrommainwindowflaginclipboardplants'
p477
aS'pasteplantsfromprivateplantclipboardtolist'
p478
aS'pastefirstplantfromprivateplantclipboardtoplant'
p479
asS'methodImplementations'
p480
(dp481
S'combinedplantboundsrects'
p482
(i__main__
DelphiMethodImplementation
p483
(dp484
S'originalDeclaration'
p485
g30
sg25
g32
sg33
(lp486
(i__main__
DelphiFormalParameter
p487
(dp488
g37
Nsg38
(lp489
S'selectedPlants'
p490
asg41
(i__main__
DelphiNamedType
p491
(dp492
g44
S'TList'
p493
sg46
g1
sg47
Nsbsg48
Nsba(i__main__
DelphiFormalParameter
p494
(dp495
g37
Nsg38
(lp496
S'excludeInvisiblePlants'
p497
aS'excludeNonSelectedPlants'
p498
asg41
(i__main__
DelphiPrimitiveType
p499
(dp500
g44
g56
sbsg48
NsbasS'varParamIndexes'
p501
(lp502
sS'varParamsSkipped'
p503
(lp504
sS'argNames'
p505
(lp506
S'self'
p507
ag490
ag497
ag498
asS'argTypes'
p508
(dp509
g497
g499
sg498
g499
sg490
g491
ssg57
S'PdPlantManager'
p510
sg58
(i__main__
DelphiNamedType
p511
(dp512
g44
S'TRect'
p513
sg46
g1
sg47
NsbsS'varParamNames'
p514
(lp515
sg62
I0
sg63
g64
sS'block'
p516
(i__main__
DelphiBlock
p517
(dp518
S'compoundStatement'
p519
(idelphi
DelphiCompoundStatement
p520
(dp521
S'statements'
p522
(lp523
(i__main__
DelphiAssignStatement
p524
(dp525
S'newValueExpression'
p526
(i__main__
DelphiIdentAccess
p527
(dp528
S'ident'
p529
S'bounds'
p530
sS'endAccessList'
p531
(lp532
(idelphi
DelphiFunctionEndAccess
p533
(dp534
S'expressionList'
p535
(lp536
(idelphi
DelphiIntegerValue
p537
(dp538
g77
S'0'
sba(idelphi
DelphiIntegerValue
p539
(dp540
g77
S'0'
sba(idelphi
DelphiIntegerValue
p541
(dp542
g77
S'0'
sba(idelphi
DelphiIntegerValue
p543
(dp544
g77
S'0'
sbasbasbsS'destinationExpression'
p545
(i__main__
DelphiIdentAccess
p546
(dp547
g529
S'result'
p548
sg531
(lp549
sbsba(idelphi
DelphiIfStatement
p550
(dp551
S'expression'
p552
(idelphi
DelphiRelOp
p553
(dp554
S'simpleExpression1'
p555
(i__main__
DelphiIdentAccess
p556
(dp557
g529
S'plants'
p558
sg531
(lp559
(idelphi
DelphiFieldEndAccess
p560
(dp561
S'field'
p562
S'count'
p563
sbasbsS'simpleExpression2'
p564
(idelphi
DelphiIntegerValue
p565
(dp566
g77
S'0'
sbsS'relOp'
p567
S'>'
sbsS'ifFalseStatement'
p568
NsS'ifTrueStatement'
p569
(idelphi
DelphiForStatement
p570
(dp571
S'variable'
p572
S'plantIndex'
p573
sS'finalValue'
p574
(idelphi
DelphiAddOp
p575
(dp576
S'addOp'
p577
S'-'
sS'term2'
p578
(idelphi
DelphiIntegerValue
p579
(dp580
g77
S'1'
sbsS'term1'
p581
(i__main__
DelphiIdentAccess
p582
(dp583
g529
S'plants'
p584
sg531
(lp585
(idelphi
DelphiFieldEndAccess
p586
(dp587
g562
S'count'
p588
sbasbsbsS'direction'
p589
S'to'
p590
sg37
(idelphi
DelphiIntegerValue
p591
(dp592
g77
S'0'
sbsS'statement'
p593
(idelphi
DelphiCompoundStatement
p594
(dp595
g522
(lp596
(i__main__
DelphiAssignStatement
p597
(dp598
g526
(i__main__
DelphiIdentAccess
p599
(dp600
g529
S'PdPlant'
p601
sg531
(lp602
(idelphi
DelphiFunctionEndAccess
p603
(dp604
g535
(lp605
(i__main__
DelphiIdentAccess
p606
(dp607
g529
S'plants'
p608
sg531
(lp609
(idelphi
DelphiFieldEndAccess
p610
(dp611
g562
S'items'
p612
sba(idelphi
DelphiArrayEndAccess
p613
(dp614
g535
(lp615
(i__main__
DelphiIdentAccess
p616
(dp617
g529
S'plantIndex'
p618
sg531
(lp619
sbasbasbasbasbsg545
(i__main__
DelphiIdentAccess
p620
(dp621
g529
S'plant'
p622
sg531
(lp623
sbsba(i__main__
DelphiAssignStatement
p624
(dp625
g526
(i__main__
DelphiIdentAccess
p626
(dp627
g529
S'true'
p628
sg531
(lp629
sbsg545
(i__main__
DelphiIdentAccess
p630
(dp631
g529
S'includePlant'
p632
sg531
(lp633
sbsba(idelphi
DelphiIfStatement
p634
(dp635
g552
(i__main__
DelphiIdentAccess
p636
(dp637
g529
S'excludeInvisiblePlants'
p638
sg531
(lp639
sbsg568
Nsg569
(i__main__
DelphiAssignStatement
p640
(dp641
g526
(idelphi
DelphiMulOp
p642
(dp643
S'signedFactor2'
p644
(idelphi
DelphiNot
p645
(dp646
S'factor'
p647
(i__main__
DelphiIdentAccess
p648
(dp649
g529
S'plant'
p650
sg531
(lp651
(idelphi
DelphiFieldEndAccess
p652
(dp653
g562
S'hidden'
p654
sbasbsbsS'mulOp'
p655
S'and'
p656
sS'signedFactor1'
p657
(i__main__
DelphiIdentAccess
p658
(dp659
g529
S'includePlant'
p660
sg531
(lp661
sbsbsg545
(i__main__
DelphiIdentAccess
p662
(dp663
g529
S'includePlant'
p664
sg531
(lp665
sbsbsba(idelphi
DelphiIfStatement
p666
(dp667
g552
(i__main__
DelphiIdentAccess
p668
(dp669
g529
S'excludeNonSelectedPlants'
p670
sg531
(lp671
sbsg568
Nsg569
(i__main__
DelphiAssignStatement
p672
(dp673
g526
(idelphi
DelphiMulOp
p674
(dp675
g644
(idelphi
DelphiNestedExpressionListAccess
p676
(dp677
g531
(lp678
sg535
(lp679
(idelphi
DelphiRelOp
p680
(dp681
g555
(i__main__
DelphiIdentAccess
p682
(dp683
g529
S'selectedPlants'
p684
sg531
(lp685
(idelphi
DelphiFieldEndAccess
p686
(dp687
g562
S'indexOf'
p688
sba(idelphi
DelphiFunctionEndAccess
p689
(dp690
g535
(lp691
(i__main__
DelphiIdentAccess
p692
(dp693
g529
S'plant'
p694
sg531
(lp695
sbasbasbsg564
(idelphi
DelphiIntegerValue
p696
(dp697
g77
S'0'
sbsg567
S'>='
p698
sbasbsg655
g656
sg657
(i__main__
DelphiIdentAccess
p699
(dp700
g529
S'includePlant'
p701
sg531
(lp702
sbsbsg545
(i__main__
DelphiIdentAccess
p703
(dp704
g529
S'includePlant'
p705
sg531
(lp706
sbsbsba(idelphi
DelphiIfStatement
p707
(dp708
g552
(i__main__
DelphiIdentAccess
p709
(dp710
g529
S'includePlant'
p711
sg531
(lp712
sbsg568
Nsg569
(i__main__
DelphiAssignStatement
p713
(dp714
g526
Nsg545
(i__main__
DelphiIdentAccess
p715
(dp716
g529
S'unionRect'
p717
sg531
(lp718
(idelphi
DelphiFunctionEndAccess
p719
(dp720
g535
(lp721
(i__main__
DelphiIdentAccess
p722
(dp723
g529
S'result'
p724
sg531
(lp725
sba(i__main__
DelphiIdentAccess
p726
(dp727
g529
S'result'
p728
sg531
(lp729
sba(i__main__
DelphiIdentAccess
p730
(dp731
g529
S'plant'
p732
sg531
(lp733
(idelphi
DelphiFieldEndAccess
p734
(dp735
g562
S'boundsRect_pixels'
p736
sbasbasbasbsbsbasbsbsbasbsS'limitedDeclSectionList'
p737
(lp738
(i__main__
DelphiVarSection
p739
(dp740
S'atTopLevel'
p741
I0
sS'varDeclList'
p742
(lp743
(idelphi
DelphiVarDecl
p744
(dp745
S'constExpression'
p746
NsS'identList'
p747
(lp748
S'plant'
p749
asg41
(i__main__
DelphiNamedType
p750
(dp751
g44
S'PdPlant'
p752
sg46
g1
sg47
Nsbsba(idelphi
DelphiVarDecl
p753
(dp754
g746
Nsg747
(lp755
S'plantIndex'
p756
asg41
(i__main__
DelphiPrimitiveType
p757
(dp758
g44
g80
sbsba(idelphi
DelphiVarDecl
p759
(dp760
g746
Nsg747
(lp761
S'includePlant'
p762
asg41
(i__main__
DelphiPrimitiveType
p763
(dp764
g44
g56
sbsbasbasbsbsS'reconcilefilewithtdolibrary'
p765
(i__main__
DelphiMethodImplementation
p766
(dp767
g485
g66
sg25
g68
sg33
(lp768
(i__main__
DelphiFormalParameter
p769
(dp770
g37
Nsg38
(lp771
S'plantFileName'
p772
aS'tdoLibrary'
p773
asg41
(i__main__
DelphiPrimitiveType
p774
(dp775
g44
g77
sbsg48
Nsbasg501
(lp776
sg503
(lp777
sg505
(lp778
g507
ag772
ag773
asg508
(dp779
g773
g774
sg772
g774
ssg57
S'PdPlantManager'
p780
sg58
(i__main__
DelphiPrimitiveType
p781
(dp782
g44
g80
sbsg514
(lp783
sg62
I0
sg63
g64
sg516
(i__main__
DelphiBlock
p784
(dp785
g519
(idelphi
DelphiCompoundStatement
p786
(dp787
g522
(lp788
(i__main__
DelphiAssignStatement
p789
(dp790
g526
(idelphi
DelphiIntegerValue
p791
(dp792
g77
S'0'
sbsg545
(i__main__
DelphiIdentAccess
p793
(dp794
g529
S'result'
p795
sg531
(lp796
sbsba(idelphi
DelphiIfStatement
p797
(dp798
g552
(idelphi
DelphiNot
p799
(dp800
g647
(i__main__
DelphiIdentAccess
p801
(dp802
g529
S'fileExists'
p803
sg531
(lp804
(idelphi
DelphiFunctionEndAccess
p805
(dp806
g535
(lp807
(i__main__
DelphiIdentAccess
p808
(dp809
g529
S'plantFileName'
p810
sg531
(lp811
sbasbasbsbsg568
Nsg569
(idelphi
DelphiCompoundStatement
p812
(dp813
g522
(lp814
(i__main__
DelphiAssignStatement
p815
(dp816
g526
(i__main__
DelphiIdentAccess
p817
(dp818
g529
S'getFileOpenInfo'
p819
sg531
(lp820
(idelphi
DelphiFunctionEndAccess
p821
(dp822
g535
(lp823
(i__main__
DelphiIdentAccess
p824
(dp825
g529
S'kFileTypePlant'
p826
sg531
(lp827
sba(i__main__
DelphiIdentAccess
p828
(dp829
g529
S'plantFileName'
p830
sg531
(lp831
sba(idelphi
DelphiStringAccess
p832
(dp833
g531
(lp834
sg77
(idelphi
DelphiStringValue
p835
(dp836
g77
S'Choose a plant file'
p837
sbsbasbasbsg545
(i__main__
DelphiIdentAccess
p838
(dp839
g529
S'plantFileName'
p840
sg531
(lp841
sbsg81
(lp842
S' check that files exist\r'
p843
asba(idelphi
DelphiIfStatement
p844
(dp845
g552
(idelphi
DelphiRelOp
p846
(dp847
g555
(i__main__
DelphiIdentAccess
p848
(dp849
g529
S'plantFileName'
p850
sg531
(lp851
sbsg564
(idelphi
DelphiStringAccess
p852
(dp853
g531
(lp854
sg77
(idelphi
DelphiStringValue
p855
(dp856
g77
S''
sbsbsg567
S'='
sbsg568
Nsg569
(i__main__
DelphiExitStatement
p857
(dp858
S'proceduralOrMethodImplementation'
p859
g766
sbsbasbsba(idelphi
DelphiIfStatement
p860
(dp861
g552
(idelphi
DelphiNot
p862
(dp863
g647
(i__main__
DelphiIdentAccess
p864
(dp865
g529
S'fileExists'
p866
sg531
(lp867
(idelphi
DelphiFunctionEndAccess
p868
(dp869
g535
(lp870
(i__main__
DelphiIdentAccess
p871
(dp872
g529
S'tdoLibrary'
p873
sg531
(lp874
sbasbasbsbsg568
Nsg569
(idelphi
DelphiCompoundStatement
p875
(dp876
g522
(lp877
(i__main__
DelphiAssignStatement
p878
(dp879
g526
(i__main__
DelphiIdentAccess
p880
(dp881
g529
S'getFileOpenInfo'
p882
sg531
(lp883
(idelphi
DelphiFunctionEndAccess
p884
(dp885
g535
(lp886
(i__main__
DelphiIdentAccess
p887
(dp888
g529
S'kFileTypeTdo'
p889
sg531
(lp890
sba(i__main__
DelphiIdentAccess
p891
(dp892
g529
S'tdoLibrary'
p893
sg531
(lp894
sba(idelphi
DelphiStringAccess
p895
(dp896
g531
(lp897
sg77
(idelphi
DelphiStringValue
p898
(dp899
g77
S'Choose a 3D object library (tdo) file'
p900
sbsbasbasbsg545
(i__main__
DelphiIdentAccess
p901
(dp902
g529
S'tdoLibrary'
p903
sg531
(lp904
sbsba(idelphi
DelphiIfStatement
p905
(dp906
g552
(idelphi
DelphiRelOp
p907
(dp908
g555
(i__main__
DelphiIdentAccess
p909
(dp910
g529
S'tdoLibrary'
p911
sg531
(lp912
sbsg564
(idelphi
DelphiStringAccess
p913
(dp914
g531
(lp915
sg77
(idelphi
DelphiStringValue
p916
(dp917
g77
S''
sbsbsg567
S'='
sbsg568
Nsg569
(i__main__
DelphiExitStatement
p918
(dp919
g859
g766
sbsbasbsba(i__main__
DelphiAssignStatement
p920
(dp921
g526
(i__main__
DelphiIdentAccess
p922
(dp923
g529
S'TListCollection'
p924
sg531
(lp925
(idelphi
DelphiFieldEndAccess
p926
(dp927
g562
S'create'
p928
sbasbsg545
(i__main__
DelphiIdentAccess
p929
(dp930
g529
S'plantFileTdos'
p931
sg531
(lp932
sbsba(i__main__
DelphiAssignStatement
p933
(dp934
g526
(i__main__
DelphiIdentAccess
p935
(dp936
g529
S'TListCollection'
p937
sg531
(lp938
(idelphi
DelphiFieldEndAccess
p939
(dp940
g562
S'create'
p941
sbasbsg545
(i__main__
DelphiIdentAccess
p942
(dp943
g529
S'libraryFileTdos'
p944
sg531
(lp945
sbsba(idelphi
DelphiTryFinallyStatement
p946
(dp947
S'tryStatements'
p948
(lp949
(i__main__
DelphiAssignStatement
p950
(dp951
g526
Nsg545
(i__main__
DelphiIdentAccess
p952
(dp953
g529
S'cursor_startWait'
p954
sg531
(lp955
sbsba(i__main__
DelphiAssignStatement
p956
(dp957
g526
Nsg545
(i__main__
DelphiIdentAccess
p958
(dp959
g529
S'assignFile'
p960
sg531
(lp961
(idelphi
DelphiFunctionEndAccess
p962
(dp963
g535
(lp964
(i__main__
DelphiIdentAccess
p965
(dp966
g529
S'plantFile'
p967
sg531
(lp968
sba(i__main__
DelphiIdentAccess
p969
(dp970
g529
S'plantFileName'
p971
sg531
(lp972
sbasbasbsg81
(lp973
S' read tdos from plants\r'
p974
asba(idelphi
DelphiTryFinallyStatement
p975
(dp976
g948
(lp977
(i__main__
DelphiAssignStatement
p978
(dp979
g526
Nsg545
(i__main__
DelphiIdentAccess
p980
(dp981
g529
S'setDecimalSeparator'
p982
sg531
(lp983
sbsg81
(lp984
S' v1.5\r'
p985
asba(i__main__
DelphiAssignStatement
p986
(dp987
g526
Nsg545
(i__main__
DelphiIdentAccess
p988
(dp989
g529
S'reset'
p990
sg531
(lp991
(idelphi
DelphiFunctionEndAccess
p992
(dp993
g535
(lp994
(i__main__
DelphiIdentAccess
p995
(dp996
g529
S'plantFile'
p997
sg531
(lp998
sbasbasbsba(idelphi
DelphiWhileStatement
p999
(dp1000
g593
(idelphi
DelphiCompoundStatement
p1001
(dp1002
g522
(lp1003
(i__main__
DelphiAssignStatement
p1004
(dp1005
g526
Nsg545
(i__main__
DelphiIdentAccess
p1006
(dp1007
g529
S'readln'
p1008
sg531
(lp1009
(idelphi
DelphiFunctionEndAccess
p1010
(dp1011
g535
(lp1012
(i__main__
DelphiIdentAccess
p1013
(dp1014
g529
S'plantFile'
p1015
sg531
(lp1016
sba(i__main__
DelphiIdentAccess
p1017
(dp1018
g529
S'aLine'
p1019
sg531
(lp1020
sbasbasbsba(idelphi
DelphiIfStatement
p1021
(dp1022
g552
(idelphi
DelphiRelOp
p1023
(dp1024
g555
(i__main__
DelphiIdentAccess
p1025
(dp1026
g529
S'pos'
p1027
sg531
(lp1028
(idelphi
DelphiFunctionEndAccess
p1029
(dp1030
g535
(lp1031
(i__main__
DelphiIdentAccess
p1032
(dp1033
g529
S'kStartTdoString'
p1034
sg531
(lp1035
sba(i__main__
DelphiIdentAccess
p1036
(dp1037
g529
S'aLine'
p1038
sg531
(lp1039
sbasbasbsg564
(idelphi
DelphiIntegerValue
p1040
(dp1041
g77
S'0'
sbsg567
S'>'
sbsg568
Nsg569
(idelphi
DelphiCompoundStatement
p1042
(dp1043
g522
(lp1044
(i__main__
DelphiAssignStatement
p1045
(dp1046
g526
(i__main__
DelphiIdentAccess
p1047
(dp1048
g529
S'KfObject3d'
p1049
sg531
(lp1050
(idelphi
DelphiFieldEndAccess
p1051
(dp1052
g562
S'create'
p1053
sbasbsg545
(i__main__
DelphiIdentAccess
p1054
(dp1055
g529
S'tdo'
p1056
sg531
(lp1057
sbsba(i__main__
DelphiAssignStatement
p1058
(dp1059
g526
Nsg545
(i__main__
DelphiIdentAccess
p1060
(dp1061
g529
S'tdo'
p1062
sg531
(lp1063
(idelphi
DelphiFieldEndAccess
p1064
(dp1065
g562
S'readFromFileStream'
p1066
sba(idelphi
DelphiFunctionEndAccess
p1067
(dp1068
g535
(lp1069
(i__main__
DelphiIdentAccess
p1070
(dp1071
g529
S'plantFile'
p1072
sg531
(lp1073
sba(i__main__
DelphiIdentAccess
p1074
(dp1075
g529
S'kInTdoLibrary'
p1076
sg531
(lp1077
sbasbasbsba(i__main__
DelphiAssignStatement
p1078
(dp1079
g526
Nsg545
(i__main__
DelphiIdentAccess
p1080
(dp1081
g529
S'plantFileTdos'
p1082
sg531
(lp1083
(idelphi
DelphiFieldEndAccess
p1084
(dp1085
g562
S'add'
p1086
sba(idelphi
DelphiFunctionEndAccess
p1087
(dp1088
g535
(lp1089
(i__main__
DelphiIdentAccess
p1090
(dp1091
g529
S'tdo'
p1092
sg531
(lp1093
sbasbasbsbasbsbasbsS'whileExpression'
p1094
(idelphi
DelphiNot
p1095
(dp1096
g647
(i__main__
DelphiIdentAccess
p1097
(dp1098
g529
S'eof'
p1099
sg531
(lp1100
(idelphi
DelphiFunctionEndAccess
p1101
(dp1102
g535
(lp1103
(i__main__
DelphiIdentAccess
p1104
(dp1105
g529
S'plantFile'
p1106
sg531
(lp1107
sbasbasbsbsbasS'finallyStatements'
p1108
(lp1109
(i__main__
DelphiAssignStatement
p1110
(dp1111
g526
Nsg545
(i__main__
DelphiIdentAccess
p1112
(dp1113
g529
S'closeFile'
p1114
sg531
(lp1115
(idelphi
DelphiFunctionEndAccess
p1116
(dp1117
g535
(lp1118
(i__main__
DelphiIdentAccess
p1119
(dp1120
g529
S'plantFile'
p1121
sg531
(lp1122
sbasbasbsbasba(i__main__
DelphiAssignStatement
p1123
(dp1124
g526
Nsg545
(i__main__
DelphiIdentAccess
p1125
(dp1126
g529
S'assignFile'
p1127
sg531
(lp1128
(idelphi
DelphiFunctionEndAccess
p1129
(dp1130
g535
(lp1131
(i__main__
DelphiIdentAccess
p1132
(dp1133
g529
S'tdoFile'
p1134
sg531
(lp1135
sba(i__main__
DelphiIdentAccess
p1136
(dp1137
g529
S'tdoLibrary'
p1138
sg531
(lp1139
sbasbasbsg81
(lp1140
S' read tdos from library\r'
p1141
asba(idelphi
DelphiTryFinallyStatement
p1142
(dp1143
g948
(lp1144
(i__main__
DelphiAssignStatement
p1145
(dp1146
g526
Nsg545
(i__main__
DelphiIdentAccess
p1147
(dp1148
g529
S'setDecimalSeparator'
p1149
sg531
(lp1150
sbsg81
(lp1151
S' v1.5\r'
p1152
asba(i__main__
DelphiAssignStatement
p1153
(dp1154
g526
Nsg545
(i__main__
DelphiIdentAccess
p1155
(dp1156
g529
S'reset'
p1157
sg531
(lp1158
(idelphi
DelphiFunctionEndAccess
p1159
(dp1160
g535
(lp1161
(i__main__
DelphiIdentAccess
p1162
(dp1163
g529
S'tdoFile'
p1164
sg531
(lp1165
sbasbasbsba(idelphi
DelphiWhileStatement
p1166
(dp1167
g593
(idelphi
DelphiCompoundStatement
p1168
(dp1169
g522
(lp1170
(i__main__
DelphiAssignStatement
p1171
(dp1172
g526
(i__main__
DelphiIdentAccess
p1173
(dp1174
g529
S'KfObject3D'
p1175
sg531
(lp1176
(idelphi
DelphiFieldEndAccess
p1177
(dp1178
g562
S'create'
p1179
sbasbsg545
(i__main__
DelphiIdentAccess
p1180
(dp1181
g529
S'tdo'
p1182
sg531
(lp1183
sbsba(i__main__
DelphiAssignStatement
p1184
(dp1185
g526
Nsg545
(i__main__
DelphiIdentAccess
p1186
(dp1187
g529
S'tdo'
p1188
sg531
(lp1189
(idelphi
DelphiFieldEndAccess
p1190
(dp1191
g562
S'readFromFileStream'
p1192
sba(idelphi
DelphiFunctionEndAccess
p1193
(dp1194
g535
(lp1195
(i__main__
DelphiIdentAccess
p1196
(dp1197
g529
S'tdoFile'
p1198
sg531
(lp1199
sba(i__main__
DelphiIdentAccess
p1200
(dp1201
g529
S'kInTdoLibrary'
p1202
sg531
(lp1203
sbasbasbsba(i__main__
DelphiAssignStatement
p1204
(dp1205
g526
Nsg545
(i__main__
DelphiIdentAccess
p1206
(dp1207
g529
S'libraryFileTdos'
p1208
sg531
(lp1209
(idelphi
DelphiFieldEndAccess
p1210
(dp1211
g562
S'add'
p1212
sba(idelphi
DelphiFunctionEndAccess
p1213
(dp1214
g535
(lp1215
(i__main__
DelphiIdentAccess
p1216
(dp1217
g529
S'tdo'
p1218
sg531
(lp1219
sbasbasbsbasbsg1094
(idelphi
DelphiNot
p1220
(dp1221
g647
(i__main__
DelphiIdentAccess
p1222
(dp1223
g529
S'eof'
p1224
sg531
(lp1225
(idelphi
DelphiFunctionEndAccess
p1226
(dp1227
g535
(lp1228
(i__main__
DelphiIdentAccess
p1229
(dp1230
g529
S'tdoFile'
p1231
sg531
(lp1232
sbasbasbsbsbasg1108
(lp1233
(i__main__
DelphiAssignStatement
p1234
(dp1235
g526
Nsg545
(i__main__
DelphiIdentAccess
p1236
(dp1237
g529
S'closeFile'
p1238
sg531
(lp1239
(idelphi
DelphiFunctionEndAccess
p1240
(dp1241
g535
(lp1242
(i__main__
DelphiIdentAccess
p1243
(dp1244
g529
S'tdoFile'
p1245
sg531
(lp1246
sbasbasbsbasba(idelphi
DelphiIfStatement
p1247
(dp1248
g552
(idelphi
DelphiRelOp
p1249
(dp1250
g555
(i__main__
DelphiIdentAccess
p1251
(dp1252
g529
S'plantFileTdos'
p1253
sg531
(lp1254
(idelphi
DelphiFieldEndAccess
p1255
(dp1256
g562
S'count'
p1257
sbasbsg564
(idelphi
DelphiIntegerValue
p1258
(dp1259
g77
S'0'
sbsg567
S'>'
sbsg568
Nsg569
(idelphi
DelphiForStatement
p1260
(dp1261
g572
S'i'
sg574
(idelphi
DelphiAddOp
p1262
(dp1263
g577
S'-'
sg578
(idelphi
DelphiIntegerValue
p1264
(dp1265
g77
S'1'
sbsg581
(i__main__
DelphiIdentAccess
p1266
(dp1267
g529
S'plantFileTdos'
p1268
sg531
(lp1269
(idelphi
DelphiFieldEndAccess
p1270
(dp1271
g562
S'count'
p1272
sbasbsbsg589
g590
sg37
(idelphi
DelphiIntegerValue
p1273
(dp1274
g77
S'0'
sbsg593
(idelphi
DelphiCompoundStatement
p1275
(dp1276
g522
(lp1277
(i__main__
DelphiAssignStatement
p1278
(dp1279
g526
(i__main__
DelphiIdentAccess
p1280
(dp1281
g529
S'KfObject3D'
p1282
sg531
(lp1283
(idelphi
DelphiFunctionEndAccess
p1284
(dp1285
g535
(lp1286
(i__main__
DelphiIdentAccess
p1287
(dp1288
g529
S'plantFileTdos'
p1289
sg531
(lp1290
(idelphi
DelphiFieldEndAccess
p1291
(dp1292
g562
S'items'
p1293
sba(idelphi
DelphiArrayEndAccess
p1294
(dp1295
g535
(lp1296
(i__main__
DelphiIdentAccess
p1297
(dp1298
g529
S'i'
sg531
(lp1299
sbasbasbasbasbsg545
(i__main__
DelphiIdentAccess
p1300
(dp1301
g529
S'plantFileTdo'
p1302
sg531
(lp1303
sbsg81
(lp1304
S' add plant tdos not in library list to library list\r'
p1305
asba(i__main__
DelphiAssignStatement
p1306
(dp1307
g526
(i__main__
DelphiIdentAccess
p1308
(dp1309
g529
S'false'
p1310
sg531
(lp1311
sbsg545
(i__main__
DelphiIdentAccess
p1312
(dp1313
g529
S'matchInLibrary'
p1314
sg531
(lp1315
sbsba(idelphi
DelphiIfStatement
p1316
(dp1317
g552
(idelphi
DelphiRelOp
p1318
(dp1319
g555
(i__main__
DelphiIdentAccess
p1320
(dp1321
g529
S'libraryFileTdos'
p1322
sg531
(lp1323
(idelphi
DelphiFieldEndAccess
p1324
(dp1325
g562
S'count'
p1326
sbasbsg564
(idelphi
DelphiIntegerValue
p1327
(dp1328
g77
S'0'
sbsg567
S'>'
sbsg568
Nsg569
(idelphi
DelphiForStatement
p1329
(dp1330
g572
S'j'
sg574
(idelphi
DelphiAddOp
p1331
(dp1332
g577
S'-'
sg578
(idelphi
DelphiIntegerValue
p1333
(dp1334
g77
S'1'
sbsg581
(i__main__
DelphiIdentAccess
p1335
(dp1336
g529
S'libraryFileTdos'
p1337
sg531
(lp1338
(idelphi
DelphiFieldEndAccess
p1339
(dp1340
g562
S'count'
p1341
sbasbsbsg589
g590
sg37
(idelphi
DelphiIntegerValue
p1342
(dp1343
g77
S'0'
sbsg593
(idelphi
DelphiCompoundStatement
p1344
(dp1345
g522
(lp1346
(i__main__
DelphiAssignStatement
p1347
(dp1348
g526
(i__main__
DelphiIdentAccess
p1349
(dp1350
g529
S'KfObject3d'
p1351
sg531
(lp1352
(idelphi
DelphiFunctionEndAccess
p1353
(dp1354
g535
(lp1355
(i__main__
DelphiIdentAccess
p1356
(dp1357
g529
S'libraryFileTdos'
p1358
sg531
(lp1359
(idelphi
DelphiFieldEndAccess
p1360
(dp1361
g562
S'items'
p1362
sba(idelphi
DelphiArrayEndAccess
p1363
(dp1364
g535
(lp1365
(i__main__
DelphiIdentAccess
p1366
(dp1367
g529
S'j'
sg531
(lp1368
sbasbasbasbasbsg545
(i__main__
DelphiIdentAccess
p1369
(dp1370
g529
S'libraryTdo'
p1371
sg531
(lp1372
sbsba(idelphi
DelphiIfStatement
p1373
(dp1374
g552
(i__main__
DelphiIdentAccess
p1375
(dp1376
g529
S'plantFileTdo'
p1377
sg531
(lp1378
(idelphi
DelphiFieldEndAccess
p1379
(dp1380
g562
S'isSameAs'
p1381
sba(idelphi
DelphiFunctionEndAccess
p1382
(dp1383
g535
(lp1384
(i__main__
DelphiIdentAccess
p1385
(dp1386
g529
S'libraryTdo'
p1387
sg531
(lp1388
sbasbasbsg568
Nsg569
(idelphi
DelphiCompoundStatement
p1389
(dp1390
g522
(lp1391
(i__main__
DelphiAssignStatement
p1392
(dp1393
g526
(i__main__
DelphiIdentAccess
p1394
(dp1395
g529
S'true'
p1396
sg531
(lp1397
sbsg545
(i__main__
DelphiIdentAccess
p1398
(dp1399
g529
S'matchInLibrary'
p1400
sg531
(lp1401
sbsba(idelphi
DelphiBreakStatement
p1402
(dp1403
basbsbasbsbsba(idelphi
DelphiIfStatement
p1404
(dp1405
g552
(idelphi
DelphiNot
p1406
(dp1407
g647
(i__main__
DelphiIdentAccess
p1408
(dp1409
g529
S'matchInLibrary'
p1410
sg531
(lp1411
sbsbsg568
Nsg569
(idelphi
DelphiCompoundStatement
p1412
(dp1413
g522
(lp1414
(i__main__
DelphiAssignStatement
p1415
(dp1416
g526
(i__main__
DelphiIdentAccess
p1417
(dp1418
g529
S'KfObject3D'
p1419
sg531
(lp1420
(idelphi
DelphiFieldEndAccess
p1421
(dp1422
g562
S'create'
p1423
sbasbsg545
(i__main__
DelphiIdentAccess
p1424
(dp1425
g529
S'tdo'
p1426
sg531
(lp1427
sbsba(i__main__
DelphiAssignStatement
p1428
(dp1429
g526
Nsg545
(i__main__
DelphiIdentAccess
p1430
(dp1431
g529
S'tdo'
p1432
sg531
(lp1433
(idelphi
DelphiFieldEndAccess
p1434
(dp1435
g562
S'copyFrom'
p1436
sba(idelphi
DelphiFunctionEndAccess
p1437
(dp1438
g535
(lp1439
(i__main__
DelphiIdentAccess
p1440
(dp1441
g529
S'plantFileTdo'
p1442
sg531
(lp1443
sbasbasbsba(i__main__
DelphiAssignStatement
p1444
(dp1445
g526
Nsg545
(i__main__
DelphiIdentAccess
p1446
(dp1447
g529
S'libraryFileTdos'
p1448
sg531
(lp1449
(idelphi
DelphiFieldEndAccess
p1450
(dp1451
g562
S'add'
p1452
sba(idelphi
DelphiFunctionEndAccess
p1453
(dp1454
g535
(lp1455
(i__main__
DelphiIdentAccess
p1456
(dp1457
g529
S'tdo'
p1458
sg531
(lp1459
sbasbasbsba(i__main__
DelphiIncOrDecStatement
p1460
(dp1461
S'incOrDecString'
p1462
S'inc'
p1463
sS'incrementExpression'
p1464
Nsg545
(i__main__
DelphiIdentAccess
p1465
(dp1466
g529
S'result'
p1467
sg531
(lp1468
sbsbasbsbasbsbsba(idelphi
DelphiIfStatement
p1469
(dp1470
g552
(idelphi
DelphiRelOp
p1471
(dp1472
g555
(i__main__
DelphiIdentAccess
p1473
(dp1474
g529
S'result'
p1475
sg531
(lp1476
sbsg564
(idelphi
DelphiIntegerValue
p1477
(dp1478
g77
S'0'
sbsg567
S'>'
sbsg568
Nsg569
(idelphi
DelphiCompoundStatement
p1479
(dp1480
g522
(lp1481
(idelphi
DelphiIfStatement
p1482
(dp1483
g552
(i__main__
DelphiIdentAccess
p1484
(dp1485
g529
S'getFileSaveInfo'
p1486
sg531
(lp1487
(idelphi
DelphiFunctionEndAccess
p1488
(dp1489
g535
(lp1490
(i__main__
DelphiIdentAccess
p1491
(dp1492
g529
S'kFileTypeTdo'
p1493
sg531
(lp1494
sba(i__main__
DelphiIdentAccess
p1495
(dp1496
g529
S'kDontAskForFileName'
p1497
sg531
(lp1498
sba(i__main__
DelphiIdentAccess
p1499
(dp1500
g529
S'tdoLibrary'
p1501
sg531
(lp1502
sba(i__main__
DelphiIdentAccess
p1503
(dp1504
g529
S'fileInfo'
p1505
sg531
(lp1506
sbasbasbsg568
Nsg569
(idelphi
DelphiCompoundStatement
p1507
(dp1508
g522
(lp1509
(i__main__
DelphiAssignStatement
p1510
(dp1511
g526
Nsg545
(i__main__
DelphiIdentAccess
p1512
(dp1513
g529
S'assignFile'
p1514
sg531
(lp1515
(idelphi
DelphiFunctionEndAccess
p1516
(dp1517
g535
(lp1518
(i__main__
DelphiIdentAccess
p1519
(dp1520
g529
S'outputTdoFile'
p1521
sg531
(lp1522
sba(i__main__
DelphiIdentAccess
p1523
(dp1524
g529
S'fileInfo'
p1525
sg531
(lp1526
(idelphi
DelphiFieldEndAccess
p1527
(dp1528
g562
S'tempFile'
p1529
sbasbasbasbsg81
(lp1530
S' if any tdos in plant file but not in library, rewrite library\r'
p1531
asba(idelphi
DelphiTryFinallyStatement
p1532
(dp1533
g948
(lp1534
(i__main__
DelphiAssignStatement
p1535
(dp1536
g526
Nsg545
(i__main__
DelphiIdentAccess
p1537
(dp1538
g529
S'setDecimalSeparator'
p1539
sg531
(lp1540
sbsg81
(lp1541
S' v1.5\r'
p1542
asba(i__main__
DelphiAssignStatement
p1543
(dp1544
g526
Nsg545
(i__main__
DelphiIdentAccess
p1545
(dp1546
g529
S'rewrite'
p1547
sg531
(lp1548
(idelphi
DelphiFunctionEndAccess
p1549
(dp1550
g535
(lp1551
(i__main__
DelphiIdentAccess
p1552
(dp1553
g529
S'outputTdoFile'
p1554
sg531
(lp1555
sbasbasbsba(i__main__
DelphiAssignStatement
p1556
(dp1557
g526
Nsg545
(i__main__
DelphiIdentAccess
p1558
(dp1559
g529
S'startFileSave'
p1560
sg531
(lp1561
(idelphi
DelphiFunctionEndAccess
p1562
(dp1563
g535
(lp1564
(i__main__
DelphiIdentAccess
p1565
(dp1566
g529
S'fileInfo'
p1567
sg531
(lp1568
sbasbasbsba(idelphi
DelphiIfStatement
p1569
(dp1570
g552
(idelphi
DelphiRelOp
p1571
(dp1572
g555
(i__main__
DelphiIdentAccess
p1573
(dp1574
g529
S'libraryFileTdos'
p1575
sg531
(lp1576
(idelphi
DelphiFieldEndAccess
p1577
(dp1578
g562
S'count'
p1579
sbasbsg564
(idelphi
DelphiIntegerValue
p1580
(dp1581
g77
S'0'
sbsg567
S'>'
sbsg568
Nsg569
(idelphi
DelphiForStatement
p1582
(dp1583
g572
S'i'
sg574
(idelphi
DelphiAddOp
p1584
(dp1585
g577
S'-'
sg578
(idelphi
DelphiIntegerValue
p1586
(dp1587
g77
S'1'
sbsg581
(i__main__
DelphiIdentAccess
p1588
(dp1589
g529
S'libraryFileTdos'
p1590
sg531
(lp1591
(idelphi
DelphiFieldEndAccess
p1592
(dp1593
g562
S'count'
p1594
sbasbsbsg589
g590
sg37
(idelphi
DelphiIntegerValue
p1595
(dp1596
g77
S'0'
sbsg593
(idelphi
DelphiCompoundStatement
p1597
(dp1598
g522
(lp1599
(i__main__
DelphiAssignStatement
p1600
(dp1601
g526
(idelphi
DelphiMulOp
p1602
(dp1603
g644
(i__main__
DelphiIdentAccess
p1604
(dp1605
g529
S'KfObject3D'
p1606
sg531
(lp1607
sbsg655
S'as'
p1608
sg657
(i__main__
DelphiIdentAccess
p1609
(dp1610
g529
S'TObject'
p1611
sg531
(lp1612
(idelphi
DelphiFunctionEndAccess
p1613
(dp1614
g535
(lp1615
(i__main__
DelphiIdentAccess
p1616
(dp1617
g529
S'libraryFileTdos'
p1618
sg531
(lp1619
(idelphi
DelphiFieldEndAccess
p1620
(dp1621
g562
S'items'
p1622
sba(idelphi
DelphiArrayEndAccess
p1623
(dp1624
g535
(lp1625
(i__main__
DelphiIdentAccess
p1626
(dp1627
g529
S'i'
sg531
(lp1628
sbasbasbasbasbsbsg545
(i__main__
DelphiIdentAccess
p1629
(dp1630
g529
S'tdo'
p1631
sg531
(lp1632
sbsba(idelphi
DelphiIfStatement
p1633
(dp1634
g552
(idelphi
DelphiRelOp
p1635
(dp1636
g555
(i__main__
DelphiIdentAccess
p1637
(dp1638
g529
S'tdo'
p1639
sg531
(lp1640
sbsg564
(idelphi
DelphiNilValue
p1641
(dp1642
bsg567
S'='
sbsg568
Nsg569
(idelphi
DelphiContinueStatement
p1643
(dp1644
bsba(i__main__
DelphiAssignStatement
p1645
(dp1646
g526
Nsg545
(i__main__
DelphiIdentAccess
p1647
(dp1648
g529
S'tdo'
p1649
sg531
(lp1650
(idelphi
DelphiFieldEndAccess
p1651
(dp1652
g562
S'writeToFileStream'
p1653
sba(idelphi
DelphiFunctionEndAccess
p1654
(dp1655
g535
(lp1656
(i__main__
DelphiIdentAccess
p1657
(dp1658
g529
S'outputTdoFile'
p1659
sg531
(lp1660
sba(i__main__
DelphiIdentAccess
p1661
(dp1662
g529
S'kInTdoLibrary'
p1663
sg531
(lp1664
sbasbasbsbasbsbsba(i__main__
DelphiAssignStatement
p1665
(dp1666
g526
(i__main__
DelphiIdentAccess
p1667
(dp1668
g529
S'true'
p1669
sg531
(lp1670
sbsg545
(i__main__
DelphiIdentAccess
p1671
(dp1672
g529
S'fileInfo'
p1673
sg531
(lp1674
(idelphi
DelphiFieldEndAccess
p1675
(dp1676
g562
S'writingWasSuccessful'
p1677
sbasbsbasg1108
(lp1678
(i__main__
DelphiAssignStatement
p1679
(dp1680
g526
Nsg545
(i__main__
DelphiIdentAccess
p1681
(dp1682
g529
S'closeFile'
p1683
sg531
(lp1684
(idelphi
DelphiFunctionEndAccess
p1685
(dp1686
g535
(lp1687
(i__main__
DelphiIdentAccess
p1688
(dp1689
g529
S'outputTdoFile'
p1690
sg531
(lp1691
sbasbasbsba(i__main__
DelphiAssignStatement
p1692
(dp1693
g526
Nsg545
(i__main__
DelphiIdentAccess
p1694
(dp1695
g529
S'cleanUpAfterFileSave'
p1696
sg531
(lp1697
(idelphi
DelphiFunctionEndAccess
p1698
(dp1699
g535
(lp1700
(i__main__
DelphiIdentAccess
p1701
(dp1702
g529
S'fileInfo'
p1703
sg531
(lp1704
sbasbasbsbasbasbsbasbsbasg1108
(lp1705
(i__main__
DelphiAssignStatement
p1706
(dp1707
g526
Nsg545
(i__main__
DelphiIdentAccess
p1708
(dp1709
g529
S'plantFileTdos'
p1710
sg531
(lp1711
(idelphi
DelphiFieldEndAccess
p1712
(dp1713
g562
S'free'
p1714
sbasbsba(i__main__
DelphiAssignStatement
p1715
(dp1716
g526
Nsg545
(i__main__
DelphiIdentAccess
p1717
(dp1718
g529
S'libraryFileTdos'
p1719
sg531
(lp1720
(idelphi
DelphiFieldEndAccess
p1721
(dp1722
g562
S'free'
p1723
sbasbsba(i__main__
DelphiAssignStatement
p1724
(dp1725
g526
Nsg545
(i__main__
DelphiIdentAccess
p1726
(dp1727
g529
S'cursor_stopWait'
p1728
sg531
(lp1729
sbsbasbasbsg737
(lp1730
(i__main__
DelphiVarSection
p1731
(dp1732
g741
I0
sg742
(lp1733
(idelphi
DelphiVarDecl
p1734
(dp1735
g746
Nsg747
(lp1736
S'plantFileTdos'
p1737
aS'libraryFileTdos'
p1738
asg41
(i__main__
DelphiNamedType
p1739
(dp1740
g44
S'TListCollection'
p1741
sg46
g1
sg47
Nsbsba(idelphi
DelphiVarDecl
p1742
(dp1743
g746
Nsg747
(lp1744
S'plantFile'
p1745
asg41
(i__main__
DelphiNamedType
p1746
(dp1747
g44
S'TextFile'
p1748
sg46
g1
sg47
Nsbsba(idelphi
DelphiVarDecl
p1749
(dp1750
g746
Nsg747
(lp1751
S'tdoFile'
p1752
asg41
(i__main__
DelphiNamedType
p1753
(dp1754
g44
S'TextFile'
p1755
sg46
g1
sg47
Nsbsba(idelphi
DelphiVarDecl
p1756
(dp1757
g746
Nsg747
(lp1758
S'outputTdoFile'
p1759
asg41
(i__main__
DelphiNamedType
p1760
(dp1761
g44
S'TextFile'
p1762
sg46
g1
sg47
Nsbsba(idelphi
DelphiVarDecl
p1763
(dp1764
g746
Nsg747
(lp1765
S'i'
aS'j'
asg41
(i__main__
DelphiPrimitiveType
p1766
(dp1767
g44
g155
sbsba(idelphi
DelphiVarDecl
p1768
(dp1769
g746
Nsg747
(lp1770
S'tdo'
p1771
aS'plantFileTdo'
p1772
aS'libraryTdo'
p1773
asg41
(i__main__
DelphiNamedType
p1774
(dp1775
g44
S'KfObject3d'
p1776
sg46
g1
sg47
Nsbsba(idelphi
DelphiVarDecl
p1777
(dp1778
g746
Nsg747
(lp1779
S'matchInLibrary'
p1780
asg41
(i__main__
DelphiPrimitiveType
p1781
(dp1782
g44
g56
sbsba(idelphi
DelphiVarDecl
p1783
(dp1784
g746
Nsg747
(lp1785
S'aLine'
p1786
asg41
(i__main__
DelphiPrimitiveType
p1787
(dp1788
g44
g77
sbsba(idelphi
DelphiVarDecl
p1789
(dp1790
g746
Nsg747
(lp1791
S'fileInfo'
p1792
asg41
(i__main__
DelphiNamedType
p1793
(dp1794
g44
S'SaveFileNamesStructure'
p1795
sg46
g1
sg47
Nsbsbasbasbsg81
g82
sbsS'copyplantsinlisttoprivateplantclipboard'
p1796
(i__main__
DelphiMethodImplementation
p1797
(dp1798
g485
g85
sg25
g87
sg33
(lp1799
(i__main__
DelphiFormalParameter
p1800
(dp1801
g37
Nsg38
(lp1802
S'aList'
p1803
asg41
(i__main__
DelphiNamedType
p1804
(dp1805
g44
S'TList'
p1806
sg46
g1
sg47
Nsbsg48
Nsbasg501
(lp1807
sg503
(lp1808
sg505
(lp1809
g507
ag1803
asg508
(dp1810
g1803
g1804
ssg57
S'PdPlantManager'
p1811
sg58
Nsg514
(lp1812
sg62
I0
sg63
g96
sg516
(i__main__
DelphiBlock
p1813
(dp1814
g519
(idelphi
DelphiCompoundStatement
p1815
(dp1816
g522
(lp1817
(i__main__
DelphiAssignStatement
p1818
(dp1819
g526
Nsg545
(i__main__
DelphiIdentAccess
p1820
(dp1821
g529
S'privatePlantClipboard'
p1822
sg531
(lp1823
(idelphi
DelphiFieldEndAccess
p1824
(dp1825
g562
S'clear'
p1826
sbasbsba(idelphi
DelphiIfStatement
p1827
(dp1828
g552
(idelphi
DelphiRelOp
p1829
(dp1830
g555
(i__main__
DelphiIdentAccess
p1831
(dp1832
g529
S'aList'
p1833
sg531
(lp1834
(idelphi
DelphiFieldEndAccess
p1835
(dp1836
g562
S'count'
p1837
sbasbsg564
(idelphi
DelphiIntegerValue
p1838
(dp1839
g77
S'0'
sbsg567
S'>'
sbsg568
Nsg569
(idelphi
DelphiForStatement
p1840
(dp1841
g572
S'i'
sg574
(idelphi
DelphiAddOp
p1842
(dp1843
g577
S'-'
sg578
(idelphi
DelphiIntegerValue
p1844
(dp1845
g77
S'1'
sbsg581
(i__main__
DelphiIdentAccess
p1846
(dp1847
g529
S'aList'
p1848
sg531
(lp1849
(idelphi
DelphiFieldEndAccess
p1850
(dp1851
g562
S'count'
p1852
sbasbsbsg589
g590
sg37
(idelphi
DelphiIntegerValue
p1853
(dp1854
g77
S'0'
sbsg593
(idelphi
DelphiCompoundStatement
p1855
(dp1856
g522
(lp1857
(i__main__
DelphiAssignStatement
p1858
(dp1859
g526
(i__main__
DelphiIdentAccess
p1860
(dp1861
g529
S'PdPlant'
p1862
sg531
(lp1863
(idelphi
DelphiFunctionEndAccess
p1864
(dp1865
g535
(lp1866
(i__main__
DelphiIdentAccess
p1867
(dp1868
g529
S'aList'
p1869
sg531
(lp1870
(idelphi
DelphiFieldEndAccess
p1871
(dp1872
g562
S'items'
p1873
sba(idelphi
DelphiArrayEndAccess
p1874
(dp1875
g535
(lp1876
(i__main__
DelphiIdentAccess
p1877
(dp1878
g529
S'i'
sg531
(lp1879
sbasbasbasbasbsg545
(i__main__
DelphiIdentAccess
p1880
(dp1881
g529
S'plant'
p1882
sg531
(lp1883
sbsba(i__main__
DelphiAssignStatement
p1884
(dp1885
g526
(i__main__
DelphiIdentAccess
p1886
(dp1887
g529
S'PdPlant'
p1888
sg531
(lp1889
(idelphi
DelphiFieldEndAccess
p1890
(dp1891
g562
S'create'
p1892
sbasbsg545
(i__main__
DelphiIdentAccess
p1893
(dp1894
g529
S'newPlant'
p1895
sg531
(lp1896
sbsba(i__main__
DelphiAssignStatement
p1897
(dp1898
g526
Nsg545
(i__main__
DelphiIdentAccess
p1899
(dp1900
g529
S'plant'
p1901
sg531
(lp1902
(idelphi
DelphiFieldEndAccess
p1903
(dp1904
g562
S'copyTo'
p1905
sba(idelphi
DelphiFunctionEndAccess
p1906
(dp1907
g535
(lp1908
(i__main__
DelphiIdentAccess
p1909
(dp1910
g529
S'newPlant'
p1911
sg531
(lp1912
sbasbasbsba(i__main__
DelphiAssignStatement
p1913
(dp1914
g526
Nsg545
(i__main__
DelphiIdentAccess
p1915
(dp1916
g529
S'newPlant'
p1917
sg531
(lp1918
(idelphi
DelphiFieldEndAccess
p1919
(dp1920
g562
S'setName'
p1921
sba(idelphi
DelphiFunctionEndAccess
p1922
(dp1923
g535
(lp1924
(idelphi
DelphiAddOp
p1925
(dp1926
g577
S'+'
sg578
(i__main__
DelphiIdentAccess
p1927
(dp1928
g529
S'newPlant'
p1929
sg531
(lp1930
(idelphi
DelphiFieldEndAccess
p1931
(dp1932
g562
S'getName'
p1933
sbasbsg581
(idelphi
DelphiStringAccess
p1934
(dp1935
g531
(lp1936
sg77
(idelphi
DelphiStringValue
p1937
(dp1938
g77
S'Copy of '
p1939
sbsbsbasbasbsba(i__main__
DelphiAssignStatement
p1940
(dp1941
g526
Nsg545
(i__main__
DelphiIdentAccess
p1942
(dp1943
g529
S'privatePlantClipboard'
p1944
sg531
(lp1945
(idelphi
DelphiFieldEndAccess
p1946
(dp1947
g562
S'add'
p1948
sba(idelphi
DelphiFunctionEndAccess
p1949
(dp1950
g535
(lp1951
(i__main__
DelphiIdentAccess
p1952
(dp1953
g529
S'newPlant'
p1954
sg531
(lp1955
sbasbasbsbasbsbsbasbsg737
(lp1956
(i__main__
DelphiVarSection
p1957
(dp1958
g741
I0
sg742
(lp1959
(idelphi
DelphiVarDecl
p1960
(dp1961
g746
Nsg747
(lp1962
S'i'
asg41
(i__main__
DelphiPrimitiveType
p1963
(dp1964
g44
g155
sbsba(idelphi
DelphiVarDecl
p1965
(dp1966
g746
Nsg747
(lp1967
S'plant'
p1968
aS'newPlant'
p1969
asg41
(i__main__
DelphiNamedType
p1970
(dp1971
g44
S'PdPlant'
p1972
sg46
g1
sg47
Nsbsbasbasbsg81
(lp1973
S' --------------------------------------------------------------------------------------- private clipboard '
p1974
asbsS'addplant'
p1975
(i__main__
DelphiMethodImplementation
p1976
(dp1977
g485
g98
sg25
g100
sg33
(lp1978
(i__main__
DelphiFormalParameter
p1979
(dp1980
g37
Nsg38
(lp1981
S'newPlant'
p1982
asg41
(i__main__
DelphiNamedType
p1983
(dp1984
g44
S'PdPlant'
p1985
sg46
g1
sg47
Nsbsg48
Nsbasg501
(lp1986
sg503
(lp1987
sg505
(lp1988
g507
ag1982
asg508
(dp1989
g1982
g1983
ssg57
S'PdPlantManager'
p1990
sg58
Nsg514
(lp1991
sg62
I0
sg63
g96
sg516
(i__main__
DelphiBlock
p1992
(dp1993
g519
(idelphi
DelphiCompoundStatement
p1994
(dp1995
g522
(lp1996
(i__main__
DelphiAssignStatement
p1997
(dp1998
g526
Nsg545
(i__main__
DelphiIdentAccess
p1999
(dp2000
g529
S'plants'
p2001
sg531
(lp2002
(idelphi
DelphiFieldEndAccess
p2003
(dp2004
g562
S'add'
p2005
sba(idelphi
DelphiFunctionEndAccess
p2006
(dp2007
g535
(lp2008
(i__main__
DelphiIdentAccess
p2009
(dp2010
g529
S'newPlant'
p2011
sg531
(lp2012
sbasbasbsbasbsg737
(lp2013
sbsbsS'copyfromplant'
p2014
(i__main__
DelphiMethodImplementation
p2015
(dp2016
g485
g110
sg25
g112
sg33
(lp2017
(i__main__
DelphiFormalParameter
p2018
(dp2019
g37
Nsg38
(lp2020
S'plant'
p2021
asg41
(i__main__
DelphiNamedType
p2022
(dp2023
g44
S'PdPlant'
p2024
sg46
g1
sg47
Nsbsg48
Nsbasg501
(lp2025
sg503
(lp2026
sg505
(lp2027
g507
ag2021
asg508
(dp2028
g2021
g2022
ssg57
S'PdPlantManager'
p2029
sg58
(i__main__
DelphiNamedType
p2030
(dp2031
g44
S'PdPlant'
p2032
sg46
g1
sg47
Nsbsg514
(lp2033
sg62
I0
sg63
g64
sg516
(i__main__
DelphiBlock
p2034
(dp2035
g519
(idelphi
DelphiCompoundStatement
p2036
(dp2037
g522
(lp2038
(idelphi
DelphiIfStatement
p2039
(dp2040
g552
(idelphi
DelphiRelOp
p2041
(dp2042
g555
(i__main__
DelphiIdentAccess
p2043
(dp2044
g529
S'plant'
p2045
sg531
(lp2046
sbsg564
(idelphi
DelphiNilValue
p2047
(dp2048
bsg567
S'='
sbsg568
Nsg569
(idelphi
DelphiRaiseStatement
p2049
(dp2050
g552
(i__main__
DelphiIdentAccess
p2051
(dp2052
g529
S'Exception'
p2053
sg531
(lp2054
(idelphi
DelphiFieldEndAccess
p2055
(dp2056
g562
S'create'
p2057
sba(idelphi
DelphiFunctionEndAccess
p2058
(dp2059
g535
(lp2060
(idelphi
DelphiStringAccess
p2061
(dp2062
g531
(lp2063
sg77
(idelphi
DelphiStringValue
p2064
(dp2065
g77
S'Problem: Nil plant in method PdPlantManager.copyFromPlant.'
p2066
sbsbasbasbsbsba(i__main__
DelphiAssignStatement
p2067
(dp2068
g526
(i__main__
DelphiIdentAccess
p2069
(dp2070
g529
S'PdPlant'
p2071
sg531
(lp2072
(idelphi
DelphiFieldEndAccess
p2073
(dp2074
g562
S'create'
p2075
sbasbsg545
(i__main__
DelphiIdentAccess
p2076
(dp2077
g529
S'newPlant'
p2078
sg531
(lp2079
sbsba(i__main__
DelphiAssignStatement
p2080
(dp2081
g526
Nsg545
(i__main__
DelphiIdentAccess
p2082
(dp2083
g529
S'plant'
p2084
sg531
(lp2085
(idelphi
DelphiFieldEndAccess
p2086
(dp2087
g562
S'copyTo'
p2088
sba(idelphi
DelphiFunctionEndAccess
p2089
(dp2090
g535
(lp2091
(i__main__
DelphiIdentAccess
p2092
(dp2093
g529
S'newPlant'
p2094
sg531
(lp2095
sbasbasbsba(i__main__
DelphiAssignStatement
p2096
(dp2097
g526
Nsg545
(i__main__
DelphiIdentAccess
p2098
(dp2099
g529
S'plants'
p2100
sg531
(lp2101
(idelphi
DelphiFieldEndAccess
p2102
(dp2103
g562
S'add'
p2104
sba(idelphi
DelphiFunctionEndAccess
p2105
(dp2106
g535
(lp2107
(i__main__
DelphiIdentAccess
p2108
(dp2109
g529
S'newPlant'
p2110
sg531
(lp2111
sbasbasbsba(i__main__
DelphiAssignStatement
p2112
(dp2113
g526
(i__main__
DelphiIdentAccess
p2114
(dp2115
g529
S'newPlant'
p2116
sg531
(lp2117
sbsg545
(i__main__
DelphiIdentAccess
p2118
(dp2119
g529
S'result'
p2120
sg531
(lp2121
sbsbasbsg737
(lp2122
(i__main__
DelphiVarSection
p2123
(dp2124
g741
I0
sg742
(lp2125
(idelphi
DelphiVarDecl
p2126
(dp2127
g746
Nsg747
(lp2128
S'newPlant'
p2129
asg41
(i__main__
DelphiNamedType
p2130
(dp2131
g44
S'PdPlant'
p2132
sg46
g1
sg47
NsbsbasbasbsbsS'write3doutputfiletofilename'
p2133
(i__main__
DelphiMethodImplementation
p2134
(dp2135
g485
g125
sg25
g127
sg33
(lp2136
(i__main__
DelphiFormalParameter
p2137
(dp2138
g37
Nsg38
(lp2139
S'selectedPlants'
p2140
asg41
(i__main__
DelphiNamedType
p2141
(dp2142
g44
S'TList'
p2143
sg46
g1
sg47
Nsbsg48
Nsba(i__main__
DelphiFormalParameter
p2144
(dp2145
g37
Nsg38
(lp2146
S'excludeInvisiblePlants'
p2147
aS'excludeNonSelectedPlants'
p2148
asg41
(i__main__
DelphiPrimitiveType
p2149
(dp2150
g44
g56
sbsg48
Nsba(i__main__
DelphiFormalParameter
p2151
(dp2152
g37
Nsg38
(lp2153
S'fileName'
p2154
asg41
(i__main__
DelphiPrimitiveType
p2155
(dp2156
g44
g77
sbsg48
Nsba(i__main__
DelphiFormalParameter
p2157
(dp2158
g37
Nsg38
(lp2159
S'outputType'
p2160
asg41
(i__main__
DelphiPrimitiveType
p2161
(dp2162
g44
g155
sbsg48
Nsbasg501
(lp2163
sg503
(lp2164
sg505
(lp2165
g507
ag2140
ag2147
ag2148
ag2154
ag2160
asg508
(dp2166
g2147
g2149
sg2148
g2149
sg2140
g2141
sg2160
g2161
sg2154
g2155
ssg57
S'PdPlantManager'
p2167
sg58
Nsg514
(lp2168
sg62
I0
sg63
g96
sg516
(i__main__
DelphiBlock
p2169
(dp2170
g519
(idelphi
DelphiCompoundStatement
p2171
(dp2172
g522
(lp2173
(i__main__
DelphiAssignStatement
p2174
(dp2175
g526
Nsg545
(i__main__
DelphiIdentAccess
p2176
(dp2177
g529
S'setDecimalSeparator'
p2178
sg531
(lp2179
sbsba(i__main__
DelphiAssignStatement
p2180
(dp2181
g526
(idelphi
DelphiNilValue
p2182
(dp2183
bsg545
(i__main__
DelphiIdentAccess
p2184
(dp2185
g529
S'includedPlants'
p2186
sg531
(lp2187
sbsba(i__main__
DelphiAssignStatement
p2188
(dp2189
g526
(i__main__
DelphiIdentAccess
p2190
(dp2191
g529
S'self'
p2192
sg531
(lp2193
(idelphi
DelphiFieldEndAccess
p2194
(dp2195
g562
S'combinedPlantBoundsRects'
p2196
sba(idelphi
DelphiFunctionEndAccess
p2197
(dp2198
g535
(lp2199
(i__main__
DelphiIdentAccess
p2200
(dp2201
g529
S'selectedPlants'
p2202
sg531
(lp2203
sba(i__main__
DelphiIdentAccess
p2204
(dp2205
g529
S'excludeInvisiblePlants'
p2206
sg531
(lp2207
sba(i__main__
DelphiIdentAccess
p2208
(dp2209
g529
S'excludeNonSelectedPlants'
p2210
sg531
(lp2211
sbasbasbsg545
(i__main__
DelphiIdentAccess
p2212
(dp2213
g529
S'includeRect'
p2214
sg531
(lp2215
sbsba(idelphi
DelphiIfStatement
p2216
(dp2217
g552
(idelphi
DelphiAddOp
p2218
(dp2219
g577
S'or'
p2220
sg578
(idelphi
DelphiNestedExpressionListAccess
p2221
(dp2222
g531
(lp2223
sg535
(lp2224
(idelphi
DelphiRelOp
p2225
(dp2226
g555
(i__main__
DelphiIdentAccess
p2227
(dp2228
g529
S'rHeight'
p2229
sg531
(lp2230
(idelphi
DelphiFunctionEndAccess
p2231
(dp2232
g535
(lp2233
(i__main__
DelphiIdentAccess
p2234
(dp2235
g529
S'includeRect'
p2236
sg531
(lp2237
sbasbasbsg564
(idelphi
DelphiIntegerValue
p2238
(dp2239
g77
S'0'
sbsg567
S'<='
p2240
sbasbsg581
(idelphi
DelphiNestedExpressionListAccess
p2241
(dp2242
g531
(lp2243
sg535
(lp2244
(idelphi
DelphiRelOp
p2245
(dp2246
g555
(i__main__
DelphiIdentAccess
p2247
(dp2248
g529
S'rWidth'
p2249
sg531
(lp2250
(idelphi
DelphiFunctionEndAccess
p2251
(dp2252
g535
(lp2253
(i__main__
DelphiIdentAccess
p2254
(dp2255
g529
S'includeRect'
p2256
sg531
(lp2257
sbasbasbsg564
(idelphi
DelphiIntegerValue
p2258
(dp2259
g77
S'0'
sbsg567
g2240
sbasbsbsg568
Nsg569
(i__main__
DelphiExitStatement
p2260
(dp2261
g859
g2134
sbsba(i__main__
DelphiAssignStatement
p2262
(dp2263
g526
(i__main__
DelphiIdentAccess
p2264
(dp2265
g529
S'TList'
p2266
sg531
(lp2267
(idelphi
DelphiFieldEndAccess
p2268
(dp2269
g562
S'create'
p2270
sbasbsg545
(i__main__
DelphiIdentAccess
p2271
(dp2272
g529
S'includedPlants'
p2273
sg531
(lp2274
sbsba(i__main__
DelphiAssignStatement
p2275
(dp2276
g526
(i__main__
DelphiIdentAccess
p2277
(dp2278
g529
S'KfTurtle'
p2279
sg531
(lp2280
(idelphi
DelphiFieldEndAccess
p2281
(dp2282
g562
S'createFor3DOutput'
p2283
sba(idelphi
DelphiFunctionEndAccess
p2284
(dp2285
g535
(lp2286
(i__main__
DelphiIdentAccess
p2287
(dp2288
g529
S'outputType'
p2289
sg531
(lp2290
sba(i__main__
DelphiIdentAccess
p2291
(dp2292
g529
S'fileName'
p2293
sg531
(lp2294
sbasbasbsg545
(i__main__
DelphiIdentAccess
p2295
(dp2296
g529
S'turtle'
p2297
sg531
(lp2298
sbsba(idelphi
DelphiTryFinallyStatement
p2299
(dp2300
g948
(lp2301
(i__main__
DelphiAssignStatement
p2302
(dp2303
g526
Nsg545
(i__main__
DelphiIdentAccess
p2304
(dp2305
g529
S'turtle'
p2306
sg531
(lp2307
(idelphi
DelphiFieldEndAccess
p2308
(dp2309
g562
S'start3DExportFile'
p2310
sbasbsba(idelphi
DelphiIfStatement
p2311
(dp2312
g552
(idelphi
DelphiRelOp
p2313
(dp2314
g555
(i__main__
DelphiIdentAccess
p2315
(dp2316
g529
S'plants'
p2317
sg531
(lp2318
(idelphi
DelphiFieldEndAccess
p2319
(dp2320
g562
S'count'
p2321
sbasbsg564
(idelphi
DelphiIntegerValue
p2322
(dp2323
g77
S'0'
sbsg567
S'>'
sbsg568
Nsg569
(idelphi
DelphiForStatement
p2324
(dp2325
g572
S'i'
sg574
(idelphi
DelphiAddOp
p2326
(dp2327
g577
S'-'
sg578
(idelphi
DelphiIntegerValue
p2328
(dp2329
g77
S'1'
sbsg581
(i__main__
DelphiIdentAccess
p2330
(dp2331
g529
S'plants'
p2332
sg531
(lp2333
(idelphi
DelphiFieldEndAccess
p2334
(dp2335
g562
S'count'
p2336
sbasbsbsg589
g590
sg37
(idelphi
DelphiIntegerValue
p2337
(dp2338
g77
S'0'
sbsg593
(idelphi
DelphiCompoundStatement
p2339
(dp2340
g522
(lp2341
(i__main__
DelphiAssignStatement
p2342
(dp2343
g526
(i__main__
DelphiIdentAccess
p2344
(dp2345
g529
S'PdPlant'
p2346
sg531
(lp2347
(idelphi
DelphiFunctionEndAccess
p2348
(dp2349
g535
(lp2350
(i__main__
DelphiIdentAccess
p2351
(dp2352
g529
S'plants'
p2353
sg531
(lp2354
(idelphi
DelphiFieldEndAccess
p2355
(dp2356
g562
S'items'
p2357
sba(idelphi
DelphiArrayEndAccess
p2358
(dp2359
g535
(lp2360
(i__main__
DelphiIdentAccess
p2361
(dp2362
g529
S'i'
sg531
(lp2363
sbasbasbasbasbsg545
(i__main__
DelphiIdentAccess
p2364
(dp2365
g529
S'plant'
p2366
sg531
(lp2367
sbsg81
(lp2368
S' count the plants to be drawn so we know if there is more than one\r'
p2369
asba(i__main__
DelphiAssignStatement
p2370
(dp2371
g526
(i__main__
DelphiIdentAccess
p2372
(dp2373
g529
S'true'
p2374
sg531
(lp2375
sbsg545
(i__main__
DelphiIdentAccess
p2376
(dp2377
g529
S'includePlant'
p2378
sg531
(lp2379
sbsba(idelphi
DelphiIfStatement
p2380
(dp2381
g552
(i__main__
DelphiIdentAccess
p2382
(dp2383
g529
S'excludeInvisiblePlants'
p2384
sg531
(lp2385
sbsg568
Nsg569
(i__main__
DelphiAssignStatement
p2386
(dp2387
g526
(idelphi
DelphiMulOp
p2388
(dp2389
g644
(idelphi
DelphiNot
p2390
(dp2391
g647
(i__main__
DelphiIdentAccess
p2392
(dp2393
g529
S'plant'
p2394
sg531
(lp2395
(idelphi
DelphiFieldEndAccess
p2396
(dp2397
g562
S'hidden'
p2398
sbasbsbsg655
g656
sg657
(i__main__
DelphiIdentAccess
p2399
(dp2400
g529
S'includePlant'
p2401
sg531
(lp2402
sbsbsg545
(i__main__
DelphiIdentAccess
p2403
(dp2404
g529
S'includePlant'
p2405
sg531
(lp2406
sbsbsba(idelphi
DelphiIfStatement
p2407
(dp2408
g552
(i__main__
DelphiIdentAccess
p2409
(dp2410
g529
S'excludeNonSelectedPlants'
p2411
sg531
(lp2412
sbsg568
Nsg569
(i__main__
DelphiAssignStatement
p2413
(dp2414
g526
(idelphi
DelphiMulOp
p2415
(dp2416
g644
(idelphi
DelphiNestedExpressionListAccess
p2417
(dp2418
g531
(lp2419
sg535
(lp2420
(idelphi
DelphiRelOp
p2421
(dp2422
g555
(i__main__
DelphiIdentAccess
p2423
(dp2424
g529
S'selectedPlants'
p2425
sg531
(lp2426
(idelphi
DelphiFieldEndAccess
p2427
(dp2428
g562
S'indexOf'
p2429
sba(idelphi
DelphiFunctionEndAccess
p2430
(dp2431
g535
(lp2432
(i__main__
DelphiIdentAccess
p2433
(dp2434
g529
S'plant'
p2435
sg531
(lp2436
sbasbasbsg564
(idelphi
DelphiIntegerValue
p2437
(dp2438
g77
S'0'
sbsg567
g698
sbasbsg655
g656
sg657
(i__main__
DelphiIdentAccess
p2439
(dp2440
g529
S'includePlant'
p2441
sg531
(lp2442
sbsbsg545
(i__main__
DelphiIdentAccess
p2443
(dp2444
g529
S'includePlant'
p2445
sg531
(lp2446
sbsbsba(idelphi
DelphiIfStatement
p2447
(dp2448
g552
(i__main__
DelphiIdentAccess
p2449
(dp2450
g529
S'includePlant'
p2451
sg531
(lp2452
sbsg568
Nsg569
(i__main__
DelphiAssignStatement
p2453
(dp2454
g526
Nsg545
(i__main__
DelphiIdentAccess
p2455
(dp2456
g529
S'includedPlants'
p2457
sg531
(lp2458
(idelphi
DelphiFieldEndAccess
p2459
(dp2460
g562
S'add'
p2461
sba(idelphi
DelphiFunctionEndAccess
p2462
(dp2463
g535
(lp2464
(i__main__
DelphiIdentAccess
p2465
(dp2466
g529
S'plant'
p2467
sg531
(lp2468
sbasbasbsbsbasbsbsba(idelphi
DelphiIfStatement
p2469
(dp2470
g552
(idelphi
DelphiRelOp
p2471
(dp2472
g555
(i__main__
DelphiIdentAccess
p2473
(dp2474
g529
S'includedPlants'
p2475
sg531
(lp2476
(idelphi
DelphiFieldEndAccess
p2477
(dp2478
g562
S'count'
p2479
sbasbsg564
(idelphi
DelphiIntegerValue
p2480
(dp2481
g77
S'1'
sbsg567
g2240
sbsg568
(i__main__
DelphiAssignStatement
p2482
(dp2483
g526
(i__main__
DelphiIdentAccess
p2484
(dp2485
g529
S'domain'
p2486
sg531
(lp2487
(idelphi
DelphiFieldEndAccess
p2488
(dp2489
g562
S'exportOptionsFor3D'
p2490
sba(idelphi
DelphiArrayEndAccess
p2491
(dp2492
g535
(lp2493
(i__main__
DelphiIdentAccess
p2494
(dp2495
g529
S'outputType'
p2496
sg531
(lp2497
sbasba(idelphi
DelphiFieldEndAccess
p2498
(dp2499
g562
S'translatePlantsToWindowPositions'
p2500
sbasbsg545
(i__main__
DelphiIdentAccess
p2501
(dp2502
g529
S'translatePlants'
p2503
sg531
(lp2504
sbsbsg569
(i__main__
DelphiAssignStatement
p2505
(dp2506
g526
(i__main__
DelphiIdentAccess
p2507
(dp2508
g529
S'false'
p2509
sg531
(lp2510
sbsg545
(i__main__
DelphiIdentAccess
p2511
(dp2512
g529
S'translatePlants'
p2513
sg531
(lp2514
sbsg81
(lp2515
S" if only one plant, don't translate or scale\r"
p2516
asbsba(idelphi
DelphiIfStatement
p2517
(dp2518
g552
(idelphi
DelphiRelOp
p2519
(dp2520
g555
(i__main__
DelphiIdentAccess
p2521
(dp2522
g529
S'includedPlants'
p2523
sg531
(lp2524
(idelphi
DelphiFieldEndAccess
p2525
(dp2526
g562
S'count'
p2527
sbasbsg564
(idelphi
DelphiIntegerValue
p2528
(dp2529
g77
S'0'
sbsg567
S'>'
sbsg568
Nsg569
(idelphi
DelphiForStatement
p2530
(dp2531
g572
S'i'
sg574
(idelphi
DelphiAddOp
p2532
(dp2533
g577
S'-'
sg578
(idelphi
DelphiIntegerValue
p2534
(dp2535
g77
S'1'
sbsg581
(i__main__
DelphiIdentAccess
p2536
(dp2537
g529
S'includedPlants'
p2538
sg531
(lp2539
(idelphi
DelphiFieldEndAccess
p2540
(dp2541
g562
S'count'
p2542
sbasbsbsg589
g590
sg37
(idelphi
DelphiIntegerValue
p2543
(dp2544
g77
S'0'
sbsg593
(i__main__
DelphiAssignStatement
p2545
(dp2546
g526
Nsg545
(i__main__
DelphiIdentAccess
p2547
(dp2548
g529
S'PdPlant'
p2549
sg531
(lp2550
(idelphi
DelphiFunctionEndAccess
p2551
(dp2552
g535
(lp2553
(i__main__
DelphiIdentAccess
p2554
(dp2555
g529
S'includedPlants'
p2556
sg531
(lp2557
(idelphi
DelphiFieldEndAccess
p2558
(dp2559
g562
S'items'
p2560
sba(idelphi
DelphiArrayEndAccess
p2561
(dp2562
g535
(lp2563
(i__main__
DelphiIdentAccess
p2564
(dp2565
g529
S'i'
sg531
(lp2566
sbasbasbasba(idelphi
DelphiFieldEndAccess
p2567
(dp2568
g562
S'saveToGlobal3DOutputFile'
p2569
sba(idelphi
DelphiFunctionEndAccess
p2570
(dp2571
g535
(lp2572
(i__main__
DelphiIdentAccess
p2573
(dp2574
g529
S'i'
sg531
(lp2575
sba(i__main__
DelphiIdentAccess
p2576
(dp2577
g529
S'translatePlants'
p2578
sg531
(lp2579
sba(i__main__
DelphiIdentAccess
p2580
(dp2581
g529
S'includeRect'
p2582
sg531
(lp2583
sba(i__main__
DelphiIdentAccess
p2584
(dp2585
g529
S'outputType'
p2586
sg531
(lp2587
sba(i__main__
DelphiIdentAccess
p2588
(dp2589
g529
S'turtle'
p2590
sg531
(lp2591
sbasbasbsg81
(lp2592
S' iterate over included plants\r'
p2593
asbsbsbasg1108
(lp2594
(i__main__
DelphiAssignStatement
p2595
(dp2596
g526
Nsg545
(i__main__
DelphiIdentAccess
p2597
(dp2598
g529
S'turtle'
p2599
sg531
(lp2600
(idelphi
DelphiFieldEndAccess
p2601
(dp2602
g562
S'end3DExportFile'
p2603
sbasbsba(i__main__
DelphiAssignStatement
p2604
(dp2605
g526
Nsg545
(i__main__
DelphiIdentAccess
p2606
(dp2607
g529
S'turtle'
p2608
sg531
(lp2609
(idelphi
DelphiFieldEndAccess
p2610
(dp2611
g562
S'free'
p2612
sbasbsba(i__main__
DelphiAssignStatement
p2613
(dp2614
g526
(idelphi
DelphiNilValue
p2615
(dp2616
bsg545
(i__main__
DelphiIdentAccess
p2617
(dp2618
g529
S'turtle'
p2619
sg531
(lp2620
sbsba(i__main__
DelphiAssignStatement
p2621
(dp2622
g526
Nsg545
(i__main__
DelphiIdentAccess
p2623
(dp2624
g529
S'includedPlants'
p2625
sg531
(lp2626
(idelphi
DelphiFieldEndAccess
p2627
(dp2628
g562
S'free'
p2629
sbasbsba(i__main__
DelphiAssignStatement
p2630
(dp2631
g526
(idelphi
DelphiNilValue
p2632
(dp2633
bsg545
(i__main__
DelphiIdentAccess
p2634
(dp2635
g529
S'includedPlants'
p2636
sg531
(lp2637
sbsbasbasbsg737
(lp2638
(i__main__
DelphiVarSection
p2639
(dp2640
g741
I0
sg742
(lp2641
(idelphi
DelphiVarDecl
p2642
(dp2643
g746
Nsg747
(lp2644
S'plant'
p2645
asg41
(i__main__
DelphiNamedType
p2646
(dp2647
g44
S'PdPlant'
p2648
sg46
g1
sg47
Nsbsba(idelphi
DelphiVarDecl
p2649
(dp2650
g746
Nsg747
(lp2651
S'i'
asg41
(i__main__
DelphiPrimitiveType
p2652
(dp2653
g44
g80
sbsba(idelphi
DelphiVarDecl
p2654
(dp2655
g746
Nsg747
(lp2656
S'includePlant'
p2657
asg41
(i__main__
DelphiPrimitiveType
p2658
(dp2659
g44
g56
sbsba(idelphi
DelphiVarDecl
p2660
(dp2661
g746
Nsg747
(lp2662
S'includeRect'
p2663
asg41
(i__main__
DelphiNamedType
p2664
(dp2665
g44
S'TRect'
p2666
sg46
g1
sg47
Nsbsba(idelphi
DelphiVarDecl
p2667
(dp2668
g746
Nsg747
(lp2669
S'includedPlants'
p2670
asg41
(i__main__
DelphiNamedType
p2671
(dp2672
g44
S'TList'
p2673
sg46
g1
sg47
Nsbsba(idelphi
DelphiVarDecl
p2674
(dp2675
g746
Nsg747
(lp2676
S'translatePlants'
p2677
asg41
(i__main__
DelphiPrimitiveType
p2678
(dp2679
g44
g56
sbsba(idelphi
DelphiVarDecl
p2680
(dp2681
g746
Nsg747
(lp2682
S'turtle'
p2683
asg41
(i__main__
DelphiNamedType
p2684
(dp2685
g44
S'KfTurtle'
p2686
sg46
g1
sg47
NsbsbasbasbsbsS'findplantatpoint'
p2687
(i__main__
DelphiMethodImplementation
p2688
(dp2689
g485
g157
sg25
g159
sg33
(lp2690
(i__main__
DelphiFormalParameter
p2691
(dp2692
g37
Nsg38
(lp2693
S'aPoint'
p2694
asg41
(i__main__
DelphiNamedType
p2695
(dp2696
g44
S'TPoint'
p2697
sg46
g1
sg47
Nsbsg48
Nsbasg501
(lp2698
sg503
(lp2699
sg505
(lp2700
g507
ag2694
asg508
(dp2701
g2694
g2695
ssg57
S'PdPlantManager'
p2702
sg58
(i__main__
DelphiNamedType
p2703
(dp2704
g44
S'PdPlant'
p2705
sg46
g1
sg47
Nsbsg514
(lp2706
sg62
I0
sg63
g64
sg516
(i__main__
DelphiBlock
p2707
(dp2708
g519
(idelphi
DelphiCompoundStatement
p2709
(dp2710
g522
(lp2711
(i__main__
DelphiAssignStatement
p2712
(dp2713
g526
(idelphi
DelphiNilValue
p2714
(dp2715
bsg545
(i__main__
DelphiIdentAccess
p2716
(dp2717
g529
S'result'
p2718
sg531
(lp2719
sbsba(idelphi
DelphiIfStatement
p2720
(dp2721
g552
(idelphi
DelphiRelOp
p2722
(dp2723
g555
(i__main__
DelphiIdentAccess
p2724
(dp2725
g529
S'plants'
p2726
sg531
(lp2727
(idelphi
DelphiFieldEndAccess
p2728
(dp2729
g562
S'count'
p2730
sbasbsg564
(idelphi
DelphiIntegerValue
p2731
(dp2732
g77
S'0'
sbsg567
S'>'
sbsg568
Nsg569
(idelphi
DelphiForStatement
p2733
(dp2734
g572
S'i'
sg574
(idelphi
DelphiAddOp
p2735
(dp2736
g577
S'-'
sg578
(idelphi
DelphiIntegerValue
p2737
(dp2738
g77
S'1'
sbsg581
(i__main__
DelphiIdentAccess
p2739
(dp2740
g529
S'plants'
p2741
sg531
(lp2742
(idelphi
DelphiFieldEndAccess
p2743
(dp2744
g562
S'count'
p2745
sbasbsbsg589
g590
sg37
(idelphi
DelphiIntegerValue
p2746
(dp2747
g77
S'0'
sbsg593
(idelphi
DelphiCompoundStatement
p2748
(dp2749
g522
(lp2750
(i__main__
DelphiAssignStatement
p2751
(dp2752
g526
(i__main__
DelphiIdentAccess
p2753
(dp2754
g529
S'PdPlant'
p2755
sg531
(lp2756
(idelphi
DelphiFunctionEndAccess
p2757
(dp2758
g535
(lp2759
(i__main__
DelphiIdentAccess
p2760
(dp2761
g529
S'plants'
p2762
sg531
(lp2763
(idelphi
DelphiFieldEndAccess
p2764
(dp2765
g562
S'items'
p2766
sba(idelphi
DelphiArrayEndAccess
p2767
(dp2768
g535
(lp2769
(i__main__
DelphiIdentAccess
p2770
(dp2771
g529
S'i'
sg531
(lp2772
sbasbasbasbasbsg545
(i__main__
DelphiIdentAccess
p2773
(dp2774
g529
S'plant'
p2775
sg531
(lp2776
sbsba(idelphi
DelphiIfStatement
p2777
(dp2778
g552
(i__main__
DelphiIdentAccess
p2779
(dp2780
g529
S'plant'
p2781
sg531
(lp2782
(idelphi
DelphiFieldEndAccess
p2783
(dp2784
g562
S'hidden'
p2785
sbasbsg568
Nsg569
(idelphi
DelphiContinueStatement
p2786
(dp2787
bsba(idelphi
DelphiIfStatement
p2788
(dp2789
g552
(i__main__
DelphiIdentAccess
p2790
(dp2791
g529
S'plant'
p2792
sg531
(lp2793
(idelphi
DelphiFieldEndAccess
p2794
(dp2795
g562
S'includesPoint'
p2796
sba(idelphi
DelphiFunctionEndAccess
p2797
(dp2798
g535
(lp2799
(i__main__
DelphiIdentAccess
p2800
(dp2801
g529
S'aPoint'
p2802
sg531
(lp2803
sbasbasbsg568
Nsg569
(idelphi
DelphiCompoundStatement
p2804
(dp2805
g522
(lp2806
(i__main__
DelphiAssignStatement
p2807
(dp2808
g526
(i__main__
DelphiIdentAccess
p2809
(dp2810
g529
S'plant'
p2811
sg531
(lp2812
sbsg545
(i__main__
DelphiIdentAccess
p2813
(dp2814
g529
S'result'
p2815
sg531
(lp2816
sbsba(i__main__
DelphiExitStatement
p2817
(dp2818
g859
g2688
sbasbsbasbsbsbasbsg737
(lp2819
(i__main__
DelphiVarSection
p2820
(dp2821
g741
I0
sg742
(lp2822
(idelphi
DelphiVarDecl
p2823
(dp2824
g746
Nsg747
(lp2825
S'plant'
p2826
asg41
(i__main__
DelphiNamedType
p2827
(dp2828
g44
S'PdPlant'
p2829
sg46
g1
sg47
Nsbsba(idelphi
DelphiVarDecl
p2830
(dp2831
g746
Nsg747
(lp2832
S'i'
asg41
(i__main__
DelphiPrimitiveType
p2833
(dp2834
g44
g155
sbsbasbasbsbsS'loadplantsfromfile'
p2835
(i__main__
DelphiMethodImplementation
p2836
(dp2837
g485
g172
sg25
g174
sg33
(lp2838
(i__main__
DelphiFormalParameter
p2839
(dp2840
g37
Nsg38
(lp2841
S'fileName'
p2842
asg41
(i__main__
DelphiPrimitiveType
p2843
(dp2844
g44
g77
sbsg48
Nsba(i__main__
DelphiFormalParameter
p2845
(dp2846
g37
Nsg38
(lp2847
S'inPlantMover'
p2848
asg41
(i__main__
DelphiPrimitiveType
p2849
(dp2850
g44
g56
sbsg48
Nsbasg501
(lp2851
sg503
(lp2852
sg505
(lp2853
g507
ag2842
ag2848
asg508
(dp2854
g2848
g2849
sg2842
g2843
ssg57
S'PdPlantManager'
p2855
sg58
Nsg514
(lp2856
sg62
I0
sg63
g96
sg516
(i__main__
DelphiBlock
p2857
(dp2858
g519
(idelphi
DelphiCompoundStatement
p2859
(dp2860
g522
(lp2861
(i__main__
DelphiAssignStatement
p2862
(dp2863
g526
Nsg545
(i__main__
DelphiIdentAccess
p2864
(dp2865
g529
S'assignFile'
p2866
sg531
(lp2867
(idelphi
DelphiFunctionEndAccess
p2868
(dp2869
g535
(lp2870
(i__main__
DelphiIdentAccess
p2871
(dp2872
g529
S'inputFile'
p2873
sg531
(lp2874
sba(i__main__
DelphiIdentAccess
p2875
(dp2876
g529
S'fileName'
p2877
sg531
(lp2878
sbasbasbsba(idelphi
DelphiTryFinallyStatement
p2879
(dp2880
g948
(lp2881
(i__main__
DelphiAssignStatement
p2882
(dp2883
g526
Nsg545
(i__main__
DelphiIdentAccess
p2884
(dp2885
g529
S'setDecimalSeparator'
p2886
sg531
(lp2887
sbsg81
(lp2888
S' v1.5\r'
p2889
asba(i__main__
DelphiAssignStatement
p2890
(dp2891
g526
Nsg545
(i__main__
DelphiIdentAccess
p2892
(dp2893
g529
S'reset'
p2894
sg531
(lp2895
(idelphi
DelphiFunctionEndAccess
p2896
(dp2897
g535
(lp2898
(i__main__
DelphiIdentAccess
p2899
(dp2900
g529
S'inputFile'
p2901
sg531
(lp2902
sbasbasbsba(i__main__
DelphiAssignStatement
p2903
(dp2904
g526
Nsg545
(i__main__
DelphiIdentAccess
p2905
(dp2906
g529
S'plants'
p2907
sg531
(lp2908
(idelphi
DelphiFieldEndAccess
p2909
(dp2910
g562
S'clear'
p2911
sbasbsba(i__main__
DelphiAssignStatement
p2912
(dp2913
g526
(i__main__
DelphiIdentAccess
p2914
(dp2915
g529
S'SetSinglePoint'
p2916
sg531
(lp2917
(idelphi
DelphiFunctionEndAccess
p2918
(dp2919
g535
(lp2920
(idelphi
DelphiIntegerValue
p2921
(dp2922
g77
S'0'
sba(idelphi
DelphiIntegerValue
p2923
(dp2924
g77
S'0'
sbasbasbsg545
(i__main__
DelphiIdentAccess
p2925
(dp2926
g529
S'self'
p2927
sg531
(lp2928
(idelphi
DelphiFieldEndAccess
p2929
(dp2930
g562
S'plantDrawOffset_mm'
p2931
sbasbsg81
(lp2932
S' defaults in case things are missing from file\r'
p2933
asba(i__main__
DelphiAssignStatement
p2934
(dp2935
g526
(idelphi
DelphiRealValue
p2936
(dp2937
g77
S'1.0'
p2938
sbsg545
(i__main__
DelphiIdentAccess
p2939
(dp2940
g529
S'self'
p2941
sg531
(lp2942
(idelphi
DelphiFieldEndAccess
p2943
(dp2944
g562
S'plantDrawScale_PixelsPerMm'
p2945
sbasbsba(i__main__
DelphiAssignStatement
p2946
(dp2947
g526
(i__main__
DelphiIdentAccess
p2948
(dp2949
g529
S'domain'
p2950
sg531
(lp2951
(idelphi
DelphiFieldEndAccess
p2952
(dp2953
g562
S'options'
p2954
sba(idelphi
DelphiFieldEndAccess
p2955
(dp2956
g562
S'mainWindowViewMode'
p2957
sbasbsg545
(i__main__
DelphiIdentAccess
p2958
(dp2959
g529
S'self'
p2960
sg531
(lp2961
(idelphi
DelphiFieldEndAccess
p2962
(dp2963
g562
S'mainWindowViewMode'
p2964
sbasbsba(i__main__
DelphiAssignStatement
p2965
(dp2966
g526
(i__main__
DelphiIdentAccess
p2967
(dp2968
g529
S'domain'
p2969
sg531
(lp2970
(idelphi
DelphiFieldEndAccess
p2971
(dp2972
g562
S'options'
p2973
sba(idelphi
DelphiFieldEndAccess
p2974
(dp2975
g562
S'mainWindowOrientation'
p2976
sbasbsg545
(i__main__
DelphiIdentAccess
p2977
(dp2978
g529
S'self'
p2979
sg531
(lp2980
(idelphi
DelphiFieldEndAccess
p2981
(dp2982
g562
S'mainWindowOrientation'
p2983
sbasbsba(i__main__
DelphiAssignStatement
p2984
(dp2985
g526
(i__main__
DelphiIdentAccess
p2986
(dp2987
g529
S'domain'
p2988
sg531
(lp2989
(idelphi
DelphiFieldEndAccess
p2990
(dp2991
g562
S'options'
p2992
sba(idelphi
DelphiFieldEndAccess
p2993
(dp2994
g562
S'showBoundsRectangle'
p2995
sbasbsg545
(i__main__
DelphiIdentAccess
p2996
(dp2997
g529
S'self'
p2998
sg531
(lp2999
(idelphi
DelphiFieldEndAccess
p3000
(dp3001
g562
S'showBoundsRectangle'
p3002
sbasbsba(i__main__
DelphiAssignStatement
p3003
(dp3004
g526
(i__main__
DelphiIdentAccess
p3005
(dp3006
g529
S'false'
p3007
sg531
(lp3008
sbsg545
(i__main__
DelphiIdentAccess
p3009
(dp3010
g529
S'concentratedLastTimeSaved'
p3011
sg531
(lp3012
sbsba(i__main__
DelphiAssignStatement
p3013
(dp3014
g526
(i__main__
DelphiIdentAccess
p3015
(dp3016
g529
S'false'
p3017
sg531
(lp3018
sbsg545
(i__main__
DelphiIdentAccess
p3019
(dp3020
g529
S'self'
p3021
sg531
(lp3022
(idelphi
DelphiFieldEndAccess
p3023
(dp3024
g562
S'fitInVisibleAreaForConcentrationChange'
p3025
sbasbsba(idelphi
DelphiWhileStatement
p3026
(dp3027
g593
(idelphi
DelphiCompoundStatement
p3028
(dp3029
g522
(lp3030
(i__main__
DelphiAssignStatement
p3031
(dp3032
g526
Nsg545
(i__main__
DelphiIdentAccess
p3033
(dp3034
g529
S'tolerantReadln'
p3035
sg531
(lp3036
(idelphi
DelphiFunctionEndAccess
p3037
(dp3038
g535
(lp3039
(i__main__
DelphiIdentAccess
p3040
(dp3041
g529
S'inputFile'
p3042
sg531
(lp3043
sba(i__main__
DelphiIdentAccess
p3044
(dp3045
g529
S'aLine'
p3046
sg531
(lp3047
sbasbasbsg81
(lp3048
S' cfk testing\r'
p3049
asba(idelphi
DelphiIfStatement
p3050
(dp3051
g552
(idelphi
DelphiAddOp
p3052
(dp3053
g577
g2220
sg578
(idelphi
DelphiNestedExpressionListAccess
p3054
(dp3055
g531
(lp3056
sg535
(lp3057
(idelphi
DelphiRelOp
p3058
(dp3059
g555
(i__main__
DelphiIdentAccess
p3060
(dp3061
g529
S'pos'
p3062
sg531
(lp3063
(idelphi
DelphiFunctionEndAccess
p3064
(dp3065
g535
(lp3066
(idelphi
DelphiStringAccess
p3067
(dp3068
g531
(lp3069
sg77
(idelphi
DelphiStringValue
p3070
(dp3071
g77
S';'
sbsba(i__main__
DelphiIdentAccess
p3072
(dp3073
g529
S'aLine'
p3074
sg531
(lp3075
sbasbasbsg564
(idelphi
DelphiIntegerValue
p3076
(dp3077
g77
S'1'
sbsg567
S'='
sbasbsg581
(idelphi
DelphiNestedExpressionListAccess
p3078
(dp3079
g531
(lp3080
sg535
(lp3081
(idelphi
DelphiRelOp
p3082
(dp3083
g555
(i__main__
DelphiIdentAccess
p3084
(dp3085
g529
S'aLine'
p3086
sg531
(lp3087
sbsg564
(idelphi
DelphiStringAccess
p3088
(dp3089
g531
(lp3090
sg77
(idelphi
DelphiStringValue
p3091
(dp3092
g77
S''
sbsbsg567
S'='
sbasbsbsg568
Nsg569
(idelphi
DelphiContinueStatement
p3093
(dp3094
bsba(idelphi
DelphiIfStatement
p3095
(dp3096
g552
(idelphi
DelphiRelOp
p3097
(dp3098
g555
(i__main__
DelphiIdentAccess
p3099
(dp3100
g529
S'pos'
p3101
sg531
(lp3102
(idelphi
DelphiFunctionEndAccess
p3103
(dp3104
g535
(lp3105
(idelphi
DelphiStringAccess
p3106
(dp3107
g531
(lp3108
sg77
(idelphi
DelphiStringValue
p3109
(dp3110
g77
S'offset='
p3111
sbsba(i__main__
DelphiIdentAccess
p3112
(dp3113
g529
S'aLine'
p3114
sg531
(lp3115
sbasbasbsg564
(idelphi
DelphiIntegerValue
p3116
(dp3117
g77
S'1'
sbsg567
S'='
sbsg568
(idelphi
DelphiIfStatement
p3118
(dp3119
g552
(idelphi
DelphiRelOp
p3120
(dp3121
g555
(i__main__
DelphiIdentAccess
p3122
(dp3123
g529
S'pos'
p3124
sg531
(lp3125
(idelphi
DelphiFunctionEndAccess
p3126
(dp3127
g535
(lp3128
(idelphi
DelphiStringAccess
p3129
(dp3130
g531
(lp3131
sg77
(idelphi
DelphiStringValue
p3132
(dp3133
g77
S'scale='
p3134
sbsba(i__main__
DelphiIdentAccess
p3135
(dp3136
g529
S'aLine'
p3137
sg531
(lp3138
sbasbasbsg564
(idelphi
DelphiIntegerValue
p3139
(dp3140
g77
S'1'
sbsg567
S'='
sbsg568
(idelphi
DelphiIfStatement
p3141
(dp3142
g552
(idelphi
DelphiRelOp
p3143
(dp3144
g555
(i__main__
DelphiIdentAccess
p3145
(dp3146
g529
S'pos'
p3147
sg531
(lp3148
(idelphi
DelphiFunctionEndAccess
p3149
(dp3150
g535
(lp3151
(idelphi
DelphiStringAccess
p3152
(dp3153
g531
(lp3154
sg77
(idelphi
DelphiStringValue
p3155
(dp3156
g77
S'concentrated='
p3157
sbsba(i__main__
DelphiIdentAccess
p3158
(dp3159
g529
S'aLine'
p3160
sg531
(lp3161
sbasbasbsg564
(idelphi
DelphiIntegerValue
p3162
(dp3163
g77
S'1'
sbsg567
S'='
sbsg568
(idelphi
DelphiIfStatement
p3164
(dp3165
g552
(idelphi
DelphiRelOp
p3166
(dp3167
g555
(i__main__
DelphiIdentAccess
p3168
(dp3169
g529
S'pos'
p3170
sg531
(lp3171
(idelphi
DelphiFunctionEndAccess
p3172
(dp3173
g535
(lp3174
(idelphi
DelphiStringAccess
p3175
(dp3176
g531
(lp3177
sg77
(idelphi
DelphiStringValue
p3178
(dp3179
g77
S'orientation (top/side)='
p3180
sbsba(i__main__
DelphiIdentAccess
p3181
(dp3182
g529
S'aLine'
p3183
sg531
(lp3184
sbasbasbsg564
(idelphi
DelphiIntegerValue
p3185
(dp3186
g77
S'1'
sbsg567
S'='
sbsg568
(idelphi
DelphiIfStatement
p3187
(dp3188
g552
(idelphi
DelphiRelOp
p3189
(dp3190
g555
(i__main__
DelphiIdentAccess
p3191
(dp3192
g529
S'pos'
p3193
sg531
(lp3194
(idelphi
DelphiFunctionEndAccess
p3195
(dp3196
g535
(lp3197
(idelphi
DelphiStringAccess
p3198
(dp3199
g531
(lp3200
sg77
(idelphi
DelphiStringValue
p3201
(dp3202
g77
S'boxes='
p3203
sbsba(i__main__
DelphiIdentAccess
p3204
(dp3205
g529
S'aLine'
p3206
sg531
(lp3207
sbasbasbsg564
(idelphi
DelphiIntegerValue
p3208
(dp3209
g77
S'1'
sbsg567
S'='
sbsg568
(idelphi
DelphiIfStatement
p3210
(dp3211
g552
(idelphi
DelphiRelOp
p3212
(dp3213
g555
(i__main__
DelphiIdentAccess
p3214
(dp3215
g529
S'pos'
p3216
sg531
(lp3217
(idelphi
DelphiFunctionEndAccess
p3218
(dp3219
g535
(lp3220
(idelphi
DelphiStringAccess
p3221
(dp3222
g531
(lp3223
sg77
(idelphi
DelphiStringValue
p3224
(dp3225
g77
S'['
sbsba(i__main__
DelphiIdentAccess
p3226
(dp3227
g529
S'aLine'
p3228
sg531
(lp3229
sbasbasbsg564
(idelphi
DelphiIntegerValue
p3230
(dp3231
g77
S'1'
sbsg567
S'='
sbsg568
Nsg569
(idelphi
DelphiCompoundStatement
p3232
(dp3233
g522
(lp3234
(i__main__
DelphiAssignStatement
p3235
(dp3236
g526
Nsg545
(i__main__
DelphiIdentAccess
p3237
(dp3238
g529
S'checkVersionNumberInPlantNameLine'
p3239
sg531
(lp3240
(idelphi
DelphiFunctionEndAccess
p3241
(dp3242
g535
(lp3243
(i__main__
DelphiIdentAccess
p3244
(dp3245
g529
S'aLine'
p3246
sg531
(lp3247
sbasbasbsg81
(lp3248
S' plant start line\r'
p3249
asba(i__main__
DelphiAssignStatement
p3250
(dp3251
g526
(i__main__
DelphiIdentAccess
p3252
(dp3253
g529
S'PdPlant'
p3254
sg531
(lp3255
(idelphi
DelphiFieldEndAccess
p3256
(dp3257
g562
S'create'
p3258
sbasbsg545
(i__main__
DelphiIdentAccess
p3259
(dp3260
g529
S'plant'
p3261
sg531
(lp3262
sbsba(i__main__
DelphiAssignStatement
p3263
(dp3264
g526
(i__main__
DelphiIdentAccess
p3265
(dp3266
g529
S'stringBeyond'
p3267
sg531
(lp3268
(idelphi
DelphiFunctionEndAccess
p3269
(dp3270
g535
(lp3271
(i__main__
DelphiIdentAccess
p3272
(dp3273
g529
S'aLine'
p3274
sg531
(lp3275
sba(idelphi
DelphiStringAccess
p3276
(dp3277
g531
(lp3278
sg77
(idelphi
DelphiStringValue
p3279
(dp3280
g77
S'['
sbsbasbasbsg545
(i__main__
DelphiIdentAccess
p3281
(dp3282
g529
S'plantName'
p3283
sg531
(lp3284
sbsba(i__main__
DelphiAssignStatement
p3285
(dp3286
g526
(i__main__
DelphiIdentAccess
p3287
(dp3288
g529
S'stringUpTo'
p3289
sg531
(lp3290
(idelphi
DelphiFunctionEndAccess
p3291
(dp3292
g535
(lp3293
(i__main__
DelphiIdentAccess
p3294
(dp3295
g529
S'plantName'
p3296
sg531
(lp3297
sba(idelphi
DelphiStringAccess
p3298
(dp3299
g531
(lp3300
sg77
(idelphi
DelphiStringValue
p3301
(dp3302
g77
S']'
sbsbasbasbsg545
(i__main__
DelphiIdentAccess
p3303
(dp3304
g529
S'plantName'
p3305
sg531
(lp3306
sbsba(i__main__
DelphiAssignStatement
p3307
(dp3308
g526
Nsg545
(i__main__
DelphiIdentAccess
p3309
(dp3310
g529
S'plant'
p3311
sg531
(lp3312
(idelphi
DelphiFieldEndAccess
p3313
(dp3314
g562
S'setName'
p3315
sba(idelphi
DelphiFunctionEndAccess
p3316
(dp3317
g535
(lp3318
(i__main__
DelphiIdentAccess
p3319
(dp3320
g529
S'plantName'
p3321
sg531
(lp3322
sbasbasbsba(i__main__
DelphiAssignStatement
p3323
(dp3324
g526
Nsg545
(i__main__
DelphiIdentAccess
p3325
(dp3326
g529
S'domain'
p3327
sg531
(lp3328
(idelphi
DelphiFieldEndAccess
p3329
(dp3330
g562
S'parameterManager'
p3331
sba(idelphi
DelphiFieldEndAccess
p3332
(dp3333
g562
S'setAllReadFlagsToFalse'
p3334
sbasbsba(i__main__
DelphiAssignStatement
p3335
(dp3336
g526
(idelphi
DelphiIntegerValue
p3337
(dp3338
g77
S'0'
sbsg545
(i__main__
DelphiIdentAccess
p3339
(dp3340
g529
S'lineCount'
p3341
sg531
(lp3342
sbsg81
(lp3343
S' cfk change v1.3\r'
p3344
aS' changed reading end of plant to read "end PlantStudio plant" instead of empty line because\r'
p3345
aS' sometimes text wrapping puts empty lines in, not a good measure of completion.\r'
p3346
aS' now end of plant must be there to be read. could produce endless loop if no end\r'
p3347
aS' of plant, so stop at absolute cutoff of 300 non-empty, non-comment lines (there are now 215 parameters).\r'
p3348
aS' also stop reading if reach next plant square bracket or end of file.\r'
p3349
aS' v2.0 increased number of params to 350 so 300 is problem, changed to 3000 to avoid this in future, oops\r'
p3350
asba(idelphi
DelphiWhileStatement
p3351
(dp3352
g593
(idelphi
DelphiCompoundStatement
p3353
(dp3354
g522
(lp3355
(i__main__
DelphiAssignStatement
p3356
(dp3357
g526
Nsg545
(i__main__
DelphiIdentAccess
p3358
(dp3359
g529
S'tolerantReadln'
p3360
sg531
(lp3361
(idelphi
DelphiFunctionEndAccess
p3362
(dp3363
g535
(lp3364
(i__main__
DelphiIdentAccess
p3365
(dp3366
g529
S'inputFile'
p3367
sg531
(lp3368
sba(i__main__
DelphiIdentAccess
p3369
(dp3370
g529
S'aLine'
p3371
sg531
(lp3372
sbasbasbsg81
(lp3373
S" aLine <> '' do\r"
p3374
asba(idelphi
DelphiIfStatement
p3375
(dp3376
g552
(idelphi
DelphiAddOp
p3377
(dp3378
g577
g2220
sg578
(idelphi
DelphiNestedExpressionListAccess
p3379
(dp3380
g531
(lp3381
sg535
(lp3382
(i__main__
DelphiIdentAccess
p3383
(dp3384
g529
S'eof'
p3385
sg531
(lp3386
(idelphi
DelphiFunctionEndAccess
p3387
(dp3388
g535
(lp3389
(i__main__
DelphiIdentAccess
p3390
(dp3391
g529
S'inputFile'
p3392
sg531
(lp3393
sbasbasbasbsg581
(idelphi
DelphiNestedExpressionListAccess
p3394
(dp3395
g531
(lp3396
sg535
(lp3397
(idelphi
DelphiRelOp
p3398
(dp3399
g555
(i__main__
DelphiIdentAccess
p3400
(dp3401
g529
S'pos'
p3402
sg531
(lp3403
(idelphi
DelphiFunctionEndAccess
p3404
(dp3405
g535
(lp3406
(idelphi
DelphiStringAccess
p3407
(dp3408
g531
(lp3409
sg77
(idelphi
DelphiStringValue
p3410
(dp3411
g77
S'['
sbsba(i__main__
DelphiIdentAccess
p3412
(dp3413
g529
S'aLine'
p3414
sg531
(lp3415
sbasbasbsg564
(idelphi
DelphiIntegerValue
p3416
(dp3417
g77
S'1'
sbsg567
S'='
sbasbsbsg568
Nsg569
(idelphi
DelphiBreakStatement
p3418
(dp3419
g81
(lp3420
S' v1.60 reversed order of the next two lines -- fixes infinite loop when no end of plant\r'
p3421
aS' v1.3 added check for next plant or eof\r'
p3422
asbsba(idelphi
DelphiIfStatement
p3423
(dp3424
g552
(idelphi
DelphiAddOp
p3425
(dp3426
g577
g2220
sg578
(idelphi
DelphiNestedExpressionListAccess
p3427
(dp3428
g531
(lp3429
sg535
(lp3430
(idelphi
DelphiRelOp
p3431
(dp3432
g555
(i__main__
DelphiIdentAccess
p3433
(dp3434
g529
S'pos'
p3435
sg531
(lp3436
(idelphi
DelphiFunctionEndAccess
p3437
(dp3438
g535
(lp3439
(idelphi
DelphiStringAccess
p3440
(dp3441
g531
(lp3442
sg77
(idelphi
DelphiStringValue
p3443
(dp3444
g77
S';'
sbsba(i__main__
DelphiIdentAccess
p3445
(dp3446
g529
S'aLine'
p3447
sg531
(lp3448
sbasbasbsg564
(idelphi
DelphiIntegerValue
p3449
(dp3450
g77
S'1'
sbsg567
S'='
sbasbsg581
(idelphi
DelphiNestedExpressionListAccess
p3451
(dp3452
g531
(lp3453
sg535
(lp3454
(idelphi
DelphiRelOp
p3455
(dp3456
g555
(i__main__
DelphiIdentAccess
p3457
(dp3458
g529
S'trim'
p3459
sg531
(lp3460
(idelphi
DelphiFunctionEndAccess
p3461
(dp3462
g535
(lp3463
(i__main__
DelphiIdentAccess
p3464
(dp3465
g529
S'aLine'
p3466
sg531
(lp3467
sbasbasbsg564
(idelphi
DelphiStringAccess
p3468
(dp3469
g531
(lp3470
sg77
(idelphi
DelphiStringValue
p3471
(dp3472
g77
S''
sbsbsg567
S'='
sbasbsbsg568
Nsg569
(idelphi
DelphiContinueStatement
p3473
(dp3474
g81
(lp3475
S' v1.3 added skip empty lines\r'
p3476
asbsba(i__main__
DelphiAssignStatement
p3477
(dp3478
g526
Nsg545
(i__main__
DelphiIdentAccess
p3479
(dp3480
g529
S'plant'
p3481
sg531
(lp3482
(idelphi
DelphiFieldEndAccess
p3483
(dp3484
g562
S'readLineAndTdoFromPlantFile'
p3485
sba(idelphi
DelphiFunctionEndAccess
p3486
(dp3487
g535
(lp3488
(i__main__
DelphiIdentAccess
p3489
(dp3490
g529
S'aLine'
p3491
sg531
(lp3492
sba(i__main__
DelphiIdentAccess
p3493
(dp3494
g529
S'inputFile'
p3495
sg531
(lp3496
sbasbasbsba(i__main__
DelphiAssignStatement
p3497
(dp3498
g526
(idelphi
DelphiAddOp
p3499
(dp3500
g577
S'+'
sg578
(idelphi
DelphiIntegerValue
p3501
(dp3502
g77
S'1'
sbsg581
(i__main__
DelphiIdentAccess
p3503
(dp3504
g529
S'lineCount'
p3505
sg531
(lp3506
sbsbsg545
(i__main__
DelphiIdentAccess
p3507
(dp3508
g529
S'lineCount'
p3509
sg531
(lp3510
sbsbasbsg1094
(idelphi
DelphiMulOp
p3511
(dp3512
g644
(idelphi
DelphiNestedExpressionListAccess
p3513
(dp3514
g531
(lp3515
sg535
(lp3516
(idelphi
DelphiRelOp
p3517
(dp3518
g555
(i__main__
DelphiIdentAccess
p3519
(dp3520
g529
S'lineCount'
p3521
sg531
(lp3522
sbsg564
(idelphi
DelphiIntegerValue
p3523
(dp3524
g77
S'3000'
p3525
sbsg567
g2240
sbasbsg655
g656
sg657
(idelphi
DelphiNestedExpressionListAccess
p3526
(dp3527
g531
(lp3528
sg535
(lp3529
(idelphi
DelphiRelOp
p3530
(dp3531
g555
(i__main__
DelphiIdentAccess
p3532
(dp3533
g529
S'pos'
p3534
sg531
(lp3535
(idelphi
DelphiFunctionEndAccess
p3536
(dp3537
g535
(lp3538
(i__main__
DelphiIdentAccess
p3539
(dp3540
g529
S'kPlantAsTextEndString'
p3541
sg531
(lp3542
sba(i__main__
DelphiIdentAccess
p3543
(dp3544
g529
S'aLine'
p3545
sg531
(lp3546
sbasbasbsg564
(idelphi
DelphiIntegerValue
p3547
(dp3548
g77
S'0'
sbsg567
g2240
sbasbsbsba(i__main__
DelphiAssignStatement
p3549
(dp3550
g526
Nsg545
(i__main__
DelphiIdentAccess
p3551
(dp3552
g529
S'plant'
p3553
sg531
(lp3554
(idelphi
DelphiFieldEndAccess
p3555
(dp3556
g562
S'finishLoadingOrDefaulting'
p3557
sba(idelphi
DelphiFunctionEndAccess
p3558
(dp3559
g535
(lp3560
(i__main__
DelphiIdentAccess
p3561
(dp3562
g529
S'kCheckForUnreadParams'
p3563
sg531
(lp3564
sbasbasbsba(i__main__
DelphiAssignStatement
p3565
(dp3566
g526
Nsg545
(i__main__
DelphiIdentAccess
p3567
(dp3568
g529
S'plants'
p3569
sg531
(lp3570
(idelphi
DelphiFieldEndAccess
p3571
(dp3572
g562
S'add'
p3573
sba(idelphi
DelphiFunctionEndAccess
p3574
(dp3575
g535
(lp3576
(i__main__
DelphiIdentAccess
p3577
(dp3578
g529
S'plant'
p3579
sg531
(lp3580
sbasbasbsbasbsbsg569
(idelphi
DelphiCompoundStatement
p3581
(dp3582
g522
(lp3583
(i__main__
DelphiAssignStatement
p3584
(dp3585
g526
(i__main__
DelphiIdentAccess
p3586
(dp3587
g529
S'strToBool'
p3588
sg531
(lp3589
(idelphi
DelphiFunctionEndAccess
p3590
(dp3591
g535
(lp3592
(i__main__
DelphiIdentAccess
p3593
(dp3594
g529
S'stringBeyond'
p3595
sg531
(lp3596
(idelphi
DelphiFunctionEndAccess
p3597
(dp3598
g535
(lp3599
(i__main__
DelphiIdentAccess
p3600
(dp3601
g529
S'aLine'
p3602
sg531
(lp3603
sba(idelphi
DelphiStringAccess
p3604
(dp3605
g531
(lp3606
sg77
(idelphi
DelphiStringValue
p3607
(dp3608
g77
S'='
sbsbasbasbasbasbsg545
(i__main__
DelphiIdentAccess
p3609
(dp3610
g529
S'self'
p3611
sg531
(lp3612
(idelphi
DelphiFieldEndAccess
p3613
(dp3614
g562
S'showBoundsRectangle'
p3615
sbasbsba(idelphi
DelphiIfStatement
p3616
(dp3617
g552
(idelphi
DelphiNot
p3618
(dp3619
g647
(i__main__
DelphiIdentAccess
p3620
(dp3621
g529
S'inPlantMover'
p3622
sg531
(lp3623
sbsbsg568
Nsg569
(i__main__
DelphiAssignStatement
p3624
(dp3625
g526
(i__main__
DelphiIdentAccess
p3626
(dp3627
g529
S'self'
p3628
sg531
(lp3629
(idelphi
DelphiFieldEndAccess
p3630
(dp3631
g562
S'showBoundsRectangle'
p3632
sbasbsg545
(i__main__
DelphiIdentAccess
p3633
(dp3634
g529
S'domain'
p3635
sg531
(lp3636
(idelphi
DelphiFieldEndAccess
p3637
(dp3638
g562
S'options'
p3639
sba(idelphi
DelphiFieldEndAccess
p3640
(dp3641
g562
S'showBoundsRectangle'
p3642
sbasbsbsba(idelphi
DelphiIfStatement
p3643
(dp3644
g552
(idelphi
DelphiMulOp
p3645
(dp3646
g644
(idelphi
DelphiNestedExpressionListAccess
p3647
(dp3648
g531
(lp3649
sg535
(lp3650
(idelphi
DelphiNot
p3651
(dp3652
g647
(i__main__
DelphiIdentAccess
p3653
(dp3654
g529
S'inPlantMover'
p3655
sg531
(lp3656
sbsbasbsg655
g656
sg657
(idelphi
DelphiMulOp
p3657
(dp3658
g644
(idelphi
DelphiNestedExpressionListAccess
p3659
(dp3660
g531
(lp3661
sg535
(lp3662
(idelphi
DelphiNot
p3663
(dp3664
g647
(i__main__
DelphiIdentAccess
p3665
(dp3666
g529
S'MainForm'
p3667
sg531
(lp3668
(idelphi
DelphiFieldEndAccess
p3669
(dp3670
g562
S'inFormCreation'
p3671
sbasbsbasbsg655
g656
sg657
(idelphi
DelphiNestedExpressionListAccess
p3672
(dp3673
g531
(lp3674
sg535
(lp3675
(idelphi
DelphiRelOp
p3676
(dp3677
g555
(i__main__
DelphiIdentAccess
p3678
(dp3679
g529
S'MainForm'
p3680
sg531
(lp3681
sbsg564
(idelphi
DelphiNilValue
p3682
(dp3683
bsg567
S'<>'
p3684
sbasbsbsbsg568
Nsg569
(idelphi
DelphiCompoundStatement
p3685
(dp3686
g522
(lp3687
(i__main__
DelphiAssignStatement
p3688
(dp3689
g526
Nsg545
(i__main__
DelphiIdentAccess
p3690
(dp3691
g529
S'MainForm'
p3692
sg531
(lp3693
(idelphi
DelphiFieldEndAccess
p3694
(dp3695
g562
S'updateForChangeToDomainOptions'
p3696
sbasbsba(i__main__
DelphiAssignStatement
p3697
(dp3698
g526
Nsg545
(i__main__
DelphiIdentAccess
p3699
(dp3700
g529
S'MainForm'
p3701
sg531
(lp3702
(idelphi
DelphiFieldEndAccess
p3703
(dp3704
g562
S'copyDrawingBitmapToPaintBox'
p3705
sbasbsbasbsbasbsbsg569
(idelphi
DelphiCompoundStatement
p3706
(dp3707
g522
(lp3708
(idelphi
DelphiIfStatement
p3709
(dp3710
g552
(idelphi
DelphiNot
p3711
(dp3712
g647
(i__main__
DelphiIdentAccess
p3713
(dp3714
g529
S'domain'
p3715
sg531
(lp3716
(idelphi
DelphiFieldEndAccess
p3717
(dp3718
g562
S'options'
p3719
sba(idelphi
DelphiFieldEndAccess
p3720
(dp3721
g562
S'ignoreWindowSettingsInFile'
p3722
sbasbsbsg568
Nsg569
(i__main__
DelphiAssignStatement
p3723
(dp3724
g526
(i__main__
DelphiIdentAccess
p3725
(dp3726
g529
S'strToInt'
p3727
sg531
(lp3728
(idelphi
DelphiFunctionEndAccess
p3729
(dp3730
g535
(lp3731
(i__main__
DelphiIdentAccess
p3732
(dp3733
g529
S'stringBeyond'
p3734
sg531
(lp3735
(idelphi
DelphiFunctionEndAccess
p3736
(dp3737
g535
(lp3738
(i__main__
DelphiIdentAccess
p3739
(dp3740
g529
S'aLine'
p3741
sg531
(lp3742
sba(idelphi
DelphiStringAccess
p3743
(dp3744
g531
(lp3745
sg77
(idelphi
DelphiStringValue
p3746
(dp3747
g77
S'='
sbsbasbasbasbasbsg545
(i__main__
DelphiIdentAccess
p3748
(dp3749
g529
S'self'
p3750
sg531
(lp3751
(idelphi
DelphiFieldEndAccess
p3752
(dp3753
g562
S'mainWindowOrientation'
p3754
sbasbsg81
(lp3755
S' v2.1 only read if not ignoring settings in file\r'
p3756
asbsbasbsbsg569
(idelphi
DelphiCompoundStatement
p3757
(dp3758
g522
(lp3759
(i__main__
DelphiAssignStatement
p3760
(dp3761
g526
(i__main__
DelphiIdentAccess
p3762
(dp3763
g529
S'domain'
p3764
sg531
(lp3765
(idelphi
DelphiFieldEndAccess
p3766
(dp3767
g562
S'viewPlantsInMainWindowOnePlantAtATime'
p3768
sbasbsg545
(i__main__
DelphiIdentAccess
p3769
(dp3770
g529
S'concentratedLastTimeSaved'
p3771
sg531
(lp3772
sbsba(idelphi
DelphiIfStatement
p3773
(dp3774
g552
(i__main__
DelphiIdentAccess
p3775
(dp3776
g529
S'domain'
p3777
sg531
(lp3778
(idelphi
DelphiFieldEndAccess
p3779
(dp3780
g562
S'options'
p3781
sba(idelphi
DelphiFieldEndAccess
p3782
(dp3783
g562
S'ignoreWindowSettingsInFile'
p3784
sbasbsg568
(i__main__
DelphiAssignStatement
p3785
(dp3786
g526
(i__main__
DelphiIdentAccess
p3787
(dp3788
g529
S'strToBool'
p3789
sg531
(lp3790
(idelphi
DelphiFunctionEndAccess
p3791
(dp3792
g535
(lp3793
(i__main__
DelphiIdentAccess
p3794
(dp3795
g529
S'stringBeyond'
p3796
sg531
(lp3797
(idelphi
DelphiFunctionEndAccess
p3798
(dp3799
g535
(lp3800
(i__main__
DelphiIdentAccess
p3801
(dp3802
g529
S'aLine'
p3803
sg531
(lp3804
sba(idelphi
DelphiStringAccess
p3805
(dp3806
g531
(lp3807
sg77
(idelphi
DelphiStringValue
p3808
(dp3809
g77
S'='
sbsbasbasbasbasbsg545
(i__main__
DelphiIdentAccess
p3810
(dp3811
g529
S'concentratedInFile'
p3812
sg531
(lp3813
sbsbsg569
(i__main__
DelphiAssignStatement
p3814
(dp3815
g526
(idelphi
DelphiNestedExpressionListAccess
p3816
(dp3817
g531
(lp3818
sg535
(lp3819
(idelphi
DelphiRelOp
p3820
(dp3821
g555
(i__main__
DelphiIdentAccess
p3822
(dp3823
g529
S'self'
p3824
sg531
(lp3825
(idelphi
DelphiFieldEndAccess
p3826
(dp3827
g562
S'mainWindowViewMode'
p3828
sbasbsg564
(i__main__
DelphiIdentAccess
p3829
(dp3830
g529
S'kViewPlantsInMainWindowOneAtATime'
p3831
sg531
(lp3832
sbsg567
S'='
sbasbsg545
(i__main__
DelphiIdentAccess
p3833
(dp3834
g529
S'concentratedInFile'
p3835
sg531
(lp3836
sbsg81
(lp3837
S' v2.1 if ignoring settings in file, use current settings, otherwise use what is in file\r'
p3838
asbsba(idelphi
DelphiIfStatement
p3839
(dp3840
g552
(i__main__
DelphiIdentAccess
p3841
(dp3842
g529
S'concentratedInFile'
p3843
sg531
(lp3844
sbsg568
(i__main__
DelphiAssignStatement
p3845
(dp3846
g526
(i__main__
DelphiIdentAccess
p3847
(dp3848
g529
S'kViewPlantsInMainWindowFreeFloating'
p3849
sg531
(lp3850
sbsg545
(i__main__
DelphiIdentAccess
p3851
(dp3852
g529
S'self'
p3853
sg531
(lp3854
(idelphi
DelphiFieldEndAccess
p3855
(dp3856
g562
S'mainWindowViewMode'
p3857
sbasbsbsg569
(i__main__
DelphiAssignStatement
p3858
(dp3859
g526
(i__main__
DelphiIdentAccess
p3860
(dp3861
g529
S'kViewPlantsInMainWindowOneAtATime'
p3862
sg531
(lp3863
sbsg545
(i__main__
DelphiIdentAccess
p3864
(dp3865
g529
S'self'
p3866
sg531
(lp3867
(idelphi
DelphiFieldEndAccess
p3868
(dp3869
g562
S'mainWindowViewMode'
p3870
sbasbsbsba(idelphi
DelphiIfStatement
p3871
(dp3872
g552
(idelphi
DelphiNot
p3873
(dp3874
g647
(i__main__
DelphiIdentAccess
p3875
(dp3876
g529
S'inPlantMover'
p3877
sg531
(lp3878
sbsbsg568
Nsg569
(i__main__
DelphiAssignStatement
p3879
(dp3880
g526
(i__main__
DelphiIdentAccess
p3881
(dp3882
g529
S'self'
p3883
sg531
(lp3884
(idelphi
DelphiFieldEndAccess
p3885
(dp3886
g562
S'mainWindowViewMode'
p3887
sbasbsg545
(i__main__
DelphiIdentAccess
p3888
(dp3889
g529
S'domain'
p3890
sg531
(lp3891
(idelphi
DelphiFieldEndAccess
p3892
(dp3893
g562
S'options'
p3894
sba(idelphi
DelphiFieldEndAccess
p3895
(dp3896
g562
S'mainWindowViewMode'
p3897
sbasbsbsba(i__main__
DelphiAssignStatement
p3898
(dp3899
g526
(idelphi
DelphiMulOp
p3900
(dp3901
g644
(idelphi
DelphiNot
p3902
(dp3903
g647
(i__main__
DelphiIdentAccess
p3904
(dp3905
g529
S'concentratedLastTimeSaved'
p3906
sg531
(lp3907
sbsbsg655
g656
sg657
(i__main__
DelphiIdentAccess
p3908
(dp3909
g529
S'concentratedInFile'
p3910
sg531
(lp3911
sbsbsg545
(i__main__
DelphiIdentAccess
p3912
(dp3913
g529
S'self'
p3914
sg531
(lp3915
(idelphi
DelphiFieldEndAccess
p3916
(dp3917
g562
S'fitInVisibleAreaForConcentrationChange'
p3918
sbasbsbasbsbsg569
(idelphi
DelphiTryExceptStatement
p3919
(dp3920
g948
(lp3921
(i__main__
DelphiAssignStatement
p3922
(dp3923
g526
(idelphi
DelphiMulOp
p3924
(dp3925
g644
(idelphi
DelphiRealValue
p3926
(dp3927
g77
S'100.0'
p3928
sbsg655
S'/'
sg657
(i__main__
DelphiIdentAccess
p3929
(dp3930
g529
S'round'
p3931
sg531
(lp3932
(idelphi
DelphiFunctionEndAccess
p3933
(dp3934
g535
(lp3935
(idelphi
DelphiMulOp
p3936
(dp3937
g644
(idelphi
DelphiRealValue
p3938
(dp3939
g77
S'100.0'
p3940
sbsg655
S'*'
sg657
(i__main__
DelphiIdentAccess
p3941
(dp3942
g529
S'strToFloat'
p3943
sg531
(lp3944
(idelphi
DelphiFunctionEndAccess
p3945
(dp3946
g535
(lp3947
(i__main__
DelphiIdentAccess
p3948
(dp3949
g529
S'stringBeyond'
p3950
sg531
(lp3951
(idelphi
DelphiFunctionEndAccess
p3952
(dp3953
g535
(lp3954
(i__main__
DelphiIdentAccess
p3955
(dp3956
g529
S'aLine'
p3957
sg531
(lp3958
sba(idelphi
DelphiStringAccess
p3959
(dp3960
g531
(lp3961
sg77
(idelphi
DelphiStringValue
p3962
(dp3963
g77
S'='
sbsbasbasbasbasbsbasbasbsbsg545
(i__main__
DelphiIdentAccess
p3964
(dp3965
g529
S'self'
p3966
sg531
(lp3967
(idelphi
DelphiFieldEndAccess
p3968
(dp3969
g562
S'plantDrawScale_PixelsPerMm'
p3970
sbasbsbasS'exceptionHandlers'
p3971
(idelphi
DelphiExceptionHandlers
p3972
(dp3973
S'exceptionHandlerList'
p3974
NsS'statementList'
p3975
(lp3976
(i__main__
DelphiAssignStatement
p3977
(dp3978
g526
(idelphi
DelphiRealValue
p3979
(dp3980
g77
S'1.0'
p3981
sbsg545
(i__main__
DelphiIdentAccess
p3982
(dp3983
g529
S'self'
p3984
sg531
(lp3985
(idelphi
DelphiFieldEndAccess
p3986
(dp3987
g562
S'plantDrawScale_PixelsPerMm'
p3988
sbasbsbasbsbsbsg569
(i__main__
DelphiAssignStatement
p3989
(dp3990
g526
(i__main__
DelphiIdentAccess
p3991
(dp3992
g529
S'stringToSinglePoint'
p3993
sg531
(lp3994
(idelphi
DelphiFunctionEndAccess
p3995
(dp3996
g535
(lp3997
(i__main__
DelphiIdentAccess
p3998
(dp3999
g529
S'stringBeyond'
p4000
sg531
(lp4001
(idelphi
DelphiFunctionEndAccess
p4002
(dp4003
g535
(lp4004
(i__main__
DelphiIdentAccess
p4005
(dp4006
g529
S'aLine'
p4007
sg531
(lp4008
sba(idelphi
DelphiStringAccess
p4009
(dp4010
g531
(lp4011
sg77
(idelphi
DelphiStringValue
p4012
(dp4013
g77
S'='
sbsbasbasbasbasbsg545
(i__main__
DelphiIdentAccess
p4014
(dp4015
g529
S'self'
p4016
sg531
(lp4017
(idelphi
DelphiFieldEndAccess
p4018
(dp4019
g562
S'plantDrawOffset_mm'
p4020
sbasbsbsbasbsg1094
(idelphi
DelphiNot
p4021
(dp4022
g647
(i__main__
DelphiIdentAccess
p4023
(dp4024
g529
S'eof'
p4025
sg531
(lp4026
(idelphi
DelphiFunctionEndAccess
p4027
(dp4028
g535
(lp4029
(i__main__
DelphiIdentAccess
p4030
(dp4031
g529
S'inputFile'
p4032
sg531
(lp4033
sbasbasbsbsbasg1108
(lp4034
(i__main__
DelphiAssignStatement
p4035
(dp4036
g526
Nsg545
(i__main__
DelphiIdentAccess
p4037
(dp4038
g529
S'closeFile'
p4039
sg531
(lp4040
(idelphi
DelphiFunctionEndAccess
p4041
(dp4042
g535
(lp4043
(i__main__
DelphiIdentAccess
p4044
(dp4045
g529
S'inputFile'
p4046
sg531
(lp4047
sbasbasbsbasbasbsg737
(lp4048
(i__main__
DelphiVarSection
p4049
(dp4050
g741
I0
sg742
(lp4051
(idelphi
DelphiVarDecl
p4052
(dp4053
g746
Nsg747
(lp4054
S'inputFile'
p4055
asg41
(i__main__
DelphiNamedType
p4056
(dp4057
g44
S'TextFile'
p4058
sg46
g1
sg47
Nsbsba(idelphi
DelphiVarDecl
p4059
(dp4060
g746
Nsg747
(lp4061
S'plant'
p4062
asg41
(i__main__
DelphiNamedType
p4063
(dp4064
g44
S'PdPlant'
p4065
sg46
g1
sg47
Nsbsba(idelphi
DelphiVarDecl
p4066
(dp4067
g746
Nsg747
(lp4068
S'aLine'
p4069
aS'plantName'
p4070
asg41
(i__main__
DelphiPrimitiveType
p4071
(dp4072
g44
g77
sbsba(idelphi
DelphiVarDecl
p4073
(dp4074
g746
Nsg747
(lp4075
S'concentratedInFile'
p4076
aS'concentratedLastTimeSaved'
p4077
asg41
(i__main__
DelphiPrimitiveType
p4078
(dp4079
g44
g56
sbsba(idelphi
DelphiVarDecl
p4080
(dp4081
g746
Nsg747
(lp4082
S'lineCount'
p4083
asg41
(i__main__
DelphiPrimitiveType
p4084
(dp4085
g44
g80
sbsbasbasbsg81
(lp4086
S' --------------------------------------------------------------------------------------- input/output '
p4087
asbsS'totalplantpartcountininvalidrect'
p4088
(i__main__
DelphiMethodImplementation
p4089
(dp4090
g485
g189
sg25
g191
sg33
(lp4091
(i__main__
DelphiFormalParameter
p4092
(dp4093
g37
Nsg38
(lp4094
S'selectedPlants'
p4095
asg41
(i__main__
DelphiNamedType
p4096
(dp4097
g44
S'TList'
p4098
sg46
g1
sg47
Nsbsg48
Nsba(i__main__
DelphiFormalParameter
p4099
(dp4100
g37
Nsg38
(lp4101
S'invalidRect'
p4102
asg41
(i__main__
DelphiNamedType
p4103
(dp4104
g44
S'TRect'
p4105
sg46
g1
sg47
Nsbsg48
Nsba(i__main__
DelphiFormalParameter
p4106
(dp4107
g37
Nsg38
(lp4108
S'excludeInvisiblePlants'
p4109
aS'excludeNonSelectedPlants'
p4110
asg41
(i__main__
DelphiPrimitiveType
p4111
(dp4112
g44
g56
sbsg48
Nsbasg501
(lp4113
sg503
(lp4114
sg505
(lp4115
g507
ag4095
ag4102
ag4109
ag4110
asg508
(dp4116
g4109
g4111
sg4110
g4111
sg4095
g4096
sg4102
g4103
ssg57
S'PdPlantManager'
p4117
sg58
(i__main__
DelphiPrimitiveType
p4118
(dp4119
g44
g216
sbsg514
(lp4120
sg62
I0
sg63
g64
sg516
(i__main__
DelphiBlock
p4121
(dp4122
g519
(idelphi
DelphiCompoundStatement
p4123
(dp4124
g522
(lp4125
(i__main__
DelphiAssignStatement
p4126
(dp4127
g526
(idelphi
DelphiIntegerValue
p4128
(dp4129
g77
S'0'
sbsg545
(i__main__
DelphiIdentAccess
p4130
(dp4131
g529
S'result'
p4132
sg531
(lp4133
sbsba(idelphi
DelphiIfStatement
p4134
(dp4135
g552
(i__main__
DelphiIdentAccess
p4136
(dp4137
g529
S'application'
p4138
sg531
(lp4139
(idelphi
DelphiFieldEndAccess
p4140
(dp4141
g562
S'terminated'
p4142
sbasbsg568
Nsg569
(i__main__
DelphiExitStatement
p4143
(dp4144
g859
g4089
sbsba(idelphi
DelphiIfStatement
p4145
(dp4146
g552
(idelphi
DelphiRelOp
p4147
(dp4148
g555
(i__main__
DelphiIdentAccess
p4149
(dp4150
g529
S'plants'
p4151
sg531
(lp4152
(idelphi
DelphiFieldEndAccess
p4153
(dp4154
g562
S'count'
p4155
sbasbsg564
(idelphi
DelphiIntegerValue
p4156
(dp4157
g77
S'0'
sbsg567
S'>'
sbsg568
Nsg569
(idelphi
DelphiForStatement
p4158
(dp4159
g572
S'plantIndex'
p4160
sg574
(idelphi
DelphiIntegerValue
p4161
(dp4162
g77
S'0'
sbsg589
S'downto'
p4163
sg37
(idelphi
DelphiAddOp
p4164
(dp4165
g577
S'-'
sg578
(idelphi
DelphiIntegerValue
p4166
(dp4167
g77
S'1'
sbsg581
(i__main__
DelphiIdentAccess
p4168
(dp4169
g529
S'plants'
p4170
sg531
(lp4171
(idelphi
DelphiFieldEndAccess
p4172
(dp4173
g562
S'count'
p4174
sbasbsbsg593
(idelphi
DelphiCompoundStatement
p4175
(dp4176
g522
(lp4177
(i__main__
DelphiAssignStatement
p4178
(dp4179
g526
(i__main__
DelphiIdentAccess
p4180
(dp4181
g529
S'PdPlant'
p4182
sg531
(lp4183
(idelphi
DelphiFunctionEndAccess
p4184
(dp4185
g535
(lp4186
(i__main__
DelphiIdentAccess
p4187
(dp4188
g529
S'plants'
p4189
sg531
(lp4190
(idelphi
DelphiFieldEndAccess
p4191
(dp4192
g562
S'items'
p4193
sba(idelphi
DelphiArrayEndAccess
p4194
(dp4195
g535
(lp4196
(i__main__
DelphiIdentAccess
p4197
(dp4198
g529
S'plantIndex'
p4199
sg531
(lp4200
sbasbasbasbasbsg545
(i__main__
DelphiIdentAccess
p4201
(dp4202
g529
S'plant'
p4203
sg531
(lp4204
sbsba(i__main__
DelphiAssignStatement
p4205
(dp4206
g526
(i__main__
DelphiIdentAccess
p4207
(dp4208
g529
S'false'
p4209
sg531
(lp4210
sbsg545
(i__main__
DelphiIdentAccess
p4211
(dp4212
g529
S'includePlant'
p4213
sg531
(lp4214
sbsba(i__main__
DelphiAssignStatement
p4215
(dp4216
g526
(i__main__
DelphiIdentAccess
p4217
(dp4218
g529
S'plant'
p4219
sg531
(lp4220
(idelphi
DelphiFieldEndAccess
p4221
(dp4222
g562
S'boundsRect_pixels'
p4223
sbasbsg545
(i__main__
DelphiIdentAccess
p4224
(dp4225
g529
S'plantRect'
p4226
sg531
(lp4227
sbsba(idelphi
DelphiWithStatement
p4228
(dp4229
g593
(idelphi
DelphiIfStatement
p4230
(dp4231
g552
(idelphi
DelphiMulOp
p4232
(dp4233
g644
(idelphi
DelphiNestedExpressionListAccess
p4234
(dp4235
g531
(lp4236
sg535
(lp4237
(idelphi
DelphiRelOp
p4238
(dp4239
g555
(i__main__
DelphiIdentAccess
p4240
(dp4241
g529
S'bottom'
p4242
sg531
(lp4243
sbsg564
(idelphi
DelphiIntegerValue
p4244
(dp4245
g77
S'0'
sbsg567
S'='
sbasbsg655
g656
sg657
(idelphi
DelphiMulOp
p4246
(dp4247
g644
(idelphi
DelphiNestedExpressionListAccess
p4248
(dp4249
g531
(lp4250
sg535
(lp4251
(idelphi
DelphiRelOp
p4252
(dp4253
g555
(i__main__
DelphiIdentAccess
p4254
(dp4255
g529
S'top'
p4256
sg531
(lp4257
sbsg564
(idelphi
DelphiIntegerValue
p4258
(dp4259
g77
S'0'
sbsg567
S'='
sbasbsg655
g656
sg657
(idelphi
DelphiMulOp
p4260
(dp4261
g644
(idelphi
DelphiNestedExpressionListAccess
p4262
(dp4263
g531
(lp4264
sg535
(lp4265
(idelphi
DelphiRelOp
p4266
(dp4267
g555
(i__main__
DelphiIdentAccess
p4268
(dp4269
g529
S'right'
p4270
sg531
(lp4271
sbsg564
(idelphi
DelphiIntegerValue
p4272
(dp4273
g77
S'0'
sbsg567
S'='
sbasbsg655
g656
sg657
(idelphi
DelphiNestedExpressionListAccess
p4274
(dp4275
g531
(lp4276
sg535
(lp4277
(idelphi
DelphiRelOp
p4278
(dp4279
g555
(i__main__
DelphiIdentAccess
p4280
(dp4281
g529
S'left'
p4282
sg531
(lp4283
sbsg564
(idelphi
DelphiIntegerValue
p4284
(dp4285
g77
S'0'
sbsg567
S'='
sbasbsbsbsbsg568
Nsg569
(i__main__
DelphiAssignStatement
p4286
(dp4287
g526
(i__main__
DelphiIdentAccess
p4288
(dp4289
g529
S'true'
p4290
sg531
(lp4291
sbsg545
(i__main__
DelphiIdentAccess
p4292
(dp4293
g529
S'includePlant'
p4294
sg531
(lp4295
sbsg81
(lp4296
S' if plant has just been read in, recalculate bounds rect by drawing it '
p4297
asbsbsS'variableReferenceList'
p4298
(lp4299
(i__main__
DelphiIdentAccess
p4300
(dp4301
g529
S'plantRect'
p4302
sg531
(lp4303
sbasba(i__main__
DelphiAssignStatement
p4304
(dp4305
g526
(i__main__
DelphiIdentAccess
p4306
(dp4307
g529
S'IntersectRect'
p4308
sg531
(lp4309
(idelphi
DelphiFunctionEndAccess
p4310
(dp4311
g535
(lp4312
(i__main__
DelphiIdentAccess
p4313
(dp4314
g529
S'intersection'
p4315
sg531
(lp4316
sba(i__main__
DelphiIdentAccess
p4317
(dp4318
g529
S'plantRect'
p4319
sg531
(lp4320
sba(i__main__
DelphiIdentAccess
p4321
(dp4322
g529
S'invalidRect'
p4323
sg531
(lp4324
sbasbasbsg545
(i__main__
DelphiIdentAccess
p4325
(dp4326
g529
S'intersectResult'
p4327
sg531
(lp4328
sbsba(i__main__
DelphiAssignStatement
p4329
(dp4330
g526
(idelphi
DelphiAddOp
p4331
(dp4332
g577
g2220
sg578
(i__main__
DelphiIdentAccess
p4333
(dp4334
g529
S'intersectResult'
p4335
sg531
(lp4336
sbsg581
(i__main__
DelphiIdentAccess
p4337
(dp4338
g529
S'includePlant'
p4339
sg531
(lp4340
sbsbsg545
(i__main__
DelphiIdentAccess
p4341
(dp4342
g529
S'includePlant'
p4343
sg531
(lp4344
sbsba(idelphi
DelphiIfStatement
p4345
(dp4346
g552
(i__main__
DelphiIdentAccess
p4347
(dp4348
g529
S'excludeInvisiblePlants'
p4349
sg531
(lp4350
sbsg568
Nsg569
(i__main__
DelphiAssignStatement
p4351
(dp4352
g526
(idelphi
DelphiMulOp
p4353
(dp4354
g644
(idelphi
DelphiNot
p4355
(dp4356
g647
(i__main__
DelphiIdentAccess
p4357
(dp4358
g529
S'plant'
p4359
sg531
(lp4360
(idelphi
DelphiFieldEndAccess
p4361
(dp4362
g562
S'hidden'
p4363
sbasbsbsg655
g656
sg657
(i__main__
DelphiIdentAccess
p4364
(dp4365
g529
S'includePlant'
p4366
sg531
(lp4367
sbsbsg545
(i__main__
DelphiIdentAccess
p4368
(dp4369
g529
S'includePlant'
p4370
sg531
(lp4371
sbsbsba(idelphi
DelphiIfStatement
p4372
(dp4373
g552
(i__main__
DelphiIdentAccess
p4374
(dp4375
g529
S'excludeNonSelectedPlants'
p4376
sg531
(lp4377
sbsg568
Nsg569
(i__main__
DelphiAssignStatement
p4378
(dp4379
g526
(idelphi
DelphiMulOp
p4380
(dp4381
g644
(idelphi
DelphiNestedExpressionListAccess
p4382
(dp4383
g531
(lp4384
sg535
(lp4385
(idelphi
DelphiRelOp
p4386
(dp4387
g555
(i__main__
DelphiIdentAccess
p4388
(dp4389
g529
S'selectedPlants'
p4390
sg531
(lp4391
(idelphi
DelphiFieldEndAccess
p4392
(dp4393
g562
S'indexOf'
p4394
sba(idelphi
DelphiFunctionEndAccess
p4395
(dp4396
g535
(lp4397
(i__main__
DelphiIdentAccess
p4398
(dp4399
g529
S'plant'
p4400
sg531
(lp4401
sbasbasbsg564
(idelphi
DelphiIntegerValue
p4402
(dp4403
g77
S'0'
sbsg567
g698
sbasbsg655
g656
sg657
(i__main__
DelphiIdentAccess
p4404
(dp4405
g529
S'includePlant'
p4406
sg531
(lp4407
sbsbsg545
(i__main__
DelphiIdentAccess
p4408
(dp4409
g529
S'includePlant'
p4410
sg531
(lp4411
sbsbsba(idelphi
DelphiIfStatement
p4412
(dp4413
g552
(i__main__
DelphiIdentAccess
p4414
(dp4415
g529
S'includePlant'
p4416
sg531
(lp4417
sbsg568
Nsg569
(idelphi
DelphiCompoundStatement
p4418
(dp4419
g522
(lp4420
(i__main__
DelphiAssignStatement
p4421
(dp4422
g526
Nsg545
(i__main__
DelphiIdentAccess
p4423
(dp4424
g529
S'plant'
p4425
sg531
(lp4426
(idelphi
DelphiFieldEndAccess
p4427
(dp4428
g562
S'countPlantParts'
p4429
sbasbsba(i__main__
DelphiAssignStatement
p4430
(dp4431
g526
(idelphi
DelphiAddOp
p4432
(dp4433
g577
S'+'
sg578
(i__main__
DelphiIdentAccess
p4434
(dp4435
g529
S'plant'
p4436
sg531
(lp4437
(idelphi
DelphiFieldEndAccess
p4438
(dp4439
g562
S'totalPlantParts'
p4440
sbasbsg581
(i__main__
DelphiIdentAccess
p4441
(dp4442
g529
S'result'
p4443
sg531
(lp4444
sbsbsg545
(i__main__
DelphiIdentAccess
p4445
(dp4446
g529
S'result'
p4447
sg531
(lp4448
sbsbasbsbasbsbsbasbsg737
(lp4449
(i__main__
DelphiVarSection
p4450
(dp4451
g741
I0
sg742
(lp4452
(idelphi
DelphiVarDecl
p4453
(dp4454
g746
Nsg747
(lp4455
S'plantIndex'
p4456
asg41
(i__main__
DelphiPrimitiveType
p4457
(dp4458
g44
g80
sbsba(idelphi
DelphiVarDecl
p4459
(dp4460
g746
Nsg747
(lp4461
S'plant'
p4462
asg41
(i__main__
DelphiNamedType
p4463
(dp4464
g44
S'PdPlant'
p4465
sg46
g1
sg47
Nsbsba(idelphi
DelphiVarDecl
p4466
(dp4467
g746
Nsg747
(lp4468
S'intersection'
p4469
aS'plantRect'
p4470
asg41
(i__main__
DelphiNamedType
p4471
(dp4472
g44
S'TRect'
p4473
sg46
g1
sg47
Nsbsba(idelphi
DelphiVarDecl
p4474
(dp4475
g746
Nsg747
(lp4476
S'intersectResult'
p4477
asg41
(i__main__
DelphiNamedType
p4478
(dp4479
g44
S'longbool'
p4480
sg46
g1
sg47
Nsbsba(idelphi
DelphiVarDecl
p4481
(dp4482
g746
Nsg747
(lp4483
S'includePlant'
p4484
asg41
(i__main__
DelphiPrimitiveType
p4485
(dp4486
g44
g56
sbsbasbasbsg81
g217
sbsS'largestplantboundsrect'
p4487
(i__main__
DelphiMethodImplementation
p4488
(dp4489
g485
g221
sg25
g223
sg33
(lp4490
(i__main__
DelphiFormalParameter
p4491
(dp4492
g37
Nsg38
(lp4493
S'selectedPlants'
p4494
asg41
(i__main__
DelphiNamedType
p4495
(dp4496
g44
S'TList'
p4497
sg46
g1
sg47
Nsbsg48
Nsba(i__main__
DelphiFormalParameter
p4498
(dp4499
g37
Nsg38
(lp4500
S'excludeInvisiblePlants'
p4501
aS'excludeNonSelectedPlants'
p4502
asg41
(i__main__
DelphiPrimitiveType
p4503
(dp4504
g44
g56
sbsg48
Nsbasg501
(lp4505
sg503
(lp4506
sg505
(lp4507
g507
ag4494
ag4501
ag4502
asg508
(dp4508
g4501
g4503
sg4502
g4503
sg4494
g4495
ssg57
S'PdPlantManager'
p4509
sg58
(i__main__
DelphiNamedType
p4510
(dp4511
g44
S'TRect'
p4512
sg46
g1
sg47
Nsbsg514
(lp4513
sg62
I0
sg63
g64
sg516
(i__main__
DelphiBlock
p4514
(dp4515
g519
(idelphi
DelphiCompoundStatement
p4516
(dp4517
g522
(lp4518
(i__main__
DelphiAssignStatement
p4519
(dp4520
g526
(i__main__
DelphiIdentAccess
p4521
(dp4522
g529
S'bounds'
p4523
sg531
(lp4524
(idelphi
DelphiFunctionEndAccess
p4525
(dp4526
g535
(lp4527
(idelphi
DelphiIntegerValue
p4528
(dp4529
g77
S'0'
sba(idelphi
DelphiIntegerValue
p4530
(dp4531
g77
S'0'
sba(idelphi
DelphiIntegerValue
p4532
(dp4533
g77
S'0'
sba(idelphi
DelphiIntegerValue
p4534
(dp4535
g77
S'0'
sbasbasbsg545
(i__main__
DelphiIdentAccess
p4536
(dp4537
g529
S'result'
p4538
sg531
(lp4539
sbsba(idelphi
DelphiIfStatement
p4540
(dp4541
g552
(idelphi
DelphiRelOp
p4542
(dp4543
g555
(i__main__
DelphiIdentAccess
p4544
(dp4545
g529
S'plants'
p4546
sg531
(lp4547
(idelphi
DelphiFieldEndAccess
p4548
(dp4549
g562
S'count'
p4550
sbasbsg564
(idelphi
DelphiIntegerValue
p4551
(dp4552
g77
S'0'
sbsg567
S'>'
sbsg568
Nsg569
(idelphi
DelphiForStatement
p4553
(dp4554
g572
S'plantIndex'
p4555
sg574
(idelphi
DelphiAddOp
p4556
(dp4557
g577
S'-'
sg578
(idelphi
DelphiIntegerValue
p4558
(dp4559
g77
S'1'
sbsg581
(i__main__
DelphiIdentAccess
p4560
(dp4561
g529
S'plants'
p4562
sg531
(lp4563
(idelphi
DelphiFieldEndAccess
p4564
(dp4565
g562
S'count'
p4566
sbasbsbsg589
g590
sg37
(idelphi
DelphiIntegerValue
p4567
(dp4568
g77
S'0'
sbsg593
(idelphi
DelphiCompoundStatement
p4569
(dp4570
g522
(lp4571
(i__main__
DelphiAssignStatement
p4572
(dp4573
g526
(i__main__
DelphiIdentAccess
p4574
(dp4575
g529
S'PdPlant'
p4576
sg531
(lp4577
(idelphi
DelphiFunctionEndAccess
p4578
(dp4579
g535
(lp4580
(i__main__
DelphiIdentAccess
p4581
(dp4582
g529
S'plants'
p4583
sg531
(lp4584
(idelphi
DelphiFieldEndAccess
p4585
(dp4586
g562
S'items'
p4587
sba(idelphi
DelphiArrayEndAccess
p4588
(dp4589
g535
(lp4590
(i__main__
DelphiIdentAccess
p4591
(dp4592
g529
S'plantIndex'
p4593
sg531
(lp4594
sbasbasbasbasbsg545
(i__main__
DelphiIdentAccess
p4595
(dp4596
g529
S'plant'
p4597
sg531
(lp4598
sbsba(i__main__
DelphiAssignStatement
p4599
(dp4600
g526
(i__main__
DelphiIdentAccess
p4601
(dp4602
g529
S'true'
p4603
sg531
(lp4604
sbsg545
(i__main__
DelphiIdentAccess
p4605
(dp4606
g529
S'includePlant'
p4607
sg531
(lp4608
sbsba(idelphi
DelphiIfStatement
p4609
(dp4610
g552
(i__main__
DelphiIdentAccess
p4611
(dp4612
g529
S'excludeInvisiblePlants'
p4613
sg531
(lp4614
sbsg568
Nsg569
(i__main__
DelphiAssignStatement
p4615
(dp4616
g526
(idelphi
DelphiMulOp
p4617
(dp4618
g644
(idelphi
DelphiNot
p4619
(dp4620
g647
(i__main__
DelphiIdentAccess
p4621
(dp4622
g529
S'plant'
p4623
sg531
(lp4624
(idelphi
DelphiFieldEndAccess
p4625
(dp4626
g562
S'hidden'
p4627
sbasbsbsg655
g656
sg657
(i__main__
DelphiIdentAccess
p4628
(dp4629
g529
S'includePlant'
p4630
sg531
(lp4631
sbsbsg545
(i__main__
DelphiIdentAccess
p4632
(dp4633
g529
S'includePlant'
p4634
sg531
(lp4635
sbsbsba(idelphi
DelphiIfStatement
p4636
(dp4637
g552
(i__main__
DelphiIdentAccess
p4638
(dp4639
g529
S'excludeNonSelectedPlants'
p4640
sg531
(lp4641
sbsg568
Nsg569
(i__main__
DelphiAssignStatement
p4642
(dp4643
g526
(idelphi
DelphiMulOp
p4644
(dp4645
g644
(idelphi
DelphiNestedExpressionListAccess
p4646
(dp4647
g531
(lp4648
sg535
(lp4649
(idelphi
DelphiRelOp
p4650
(dp4651
g555
(i__main__
DelphiIdentAccess
p4652
(dp4653
g529
S'selectedPlants'
p4654
sg531
(lp4655
(idelphi
DelphiFieldEndAccess
p4656
(dp4657
g562
S'indexOf'
p4658
sba(idelphi
DelphiFunctionEndAccess
p4659
(dp4660
g535
(lp4661
(i__main__
DelphiIdentAccess
p4662
(dp4663
g529
S'plant'
p4664
sg531
(lp4665
sbasbasbsg564
(idelphi
DelphiIntegerValue
p4666
(dp4667
g77
S'0'
sbsg567
g698
sbasbsg655
g656
sg657
(i__main__
DelphiIdentAccess
p4668
(dp4669
g529
S'includePlant'
p4670
sg531
(lp4671
sbsbsg545
(i__main__
DelphiIdentAccess
p4672
(dp4673
g529
S'includePlant'
p4674
sg531
(lp4675
sbsbsba(idelphi
DelphiIfStatement
p4676
(dp4677
g552
(i__main__
DelphiIdentAccess
p4678
(dp4679
g529
S'includePlant'
p4680
sg531
(lp4681
sbsg568
Nsg569
(idelphi
DelphiCompoundStatement
p4682
(dp4683
g522
(lp4684
(i__main__
DelphiAssignStatement
p4685
(dp4686
g526
(i__main__
DelphiIdentAccess
p4687
(dp4688
g529
S'plant'
p4689
sg531
(lp4690
(idelphi
DelphiFieldEndAccess
p4691
(dp4692
g562
S'boundsRect_pixels'
p4693
sbasbsg545
(i__main__
DelphiIdentAccess
p4694
(dp4695
g529
S'plantRect'
p4696
sg531
(lp4697
sbsba(idelphi
DelphiIfStatement
p4698
(dp4699
g552
(idelphi
DelphiRelOp
p4700
(dp4701
g555
(i__main__
DelphiIdentAccess
p4702
(dp4703
g529
S'rWidth'
p4704
sg531
(lp4705
(idelphi
DelphiFunctionEndAccess
p4706
(dp4707
g535
(lp4708
(i__main__
DelphiIdentAccess
p4709
(dp4710
g529
S'plantRect'
p4711
sg531
(lp4712
sbasbasbsg564
(i__main__
DelphiIdentAccess
p4713
(dp4714
g529
S'result'
p4715
sg531
(lp4716
(idelphi
DelphiFieldEndAccess
p4717
(dp4718
g562
S'right'
p4719
sbasbsg567
S'>'
sbsg568
Nsg569
(i__main__
DelphiAssignStatement
p4720
(dp4721
g526
(i__main__
DelphiIdentAccess
p4722
(dp4723
g529
S'rWidth'
p4724
sg531
(lp4725
(idelphi
DelphiFunctionEndAccess
p4726
(dp4727
g535
(lp4728
(i__main__
DelphiIdentAccess
p4729
(dp4730
g529
S'plantRect'
p4731
sg531
(lp4732
sbasbasbsg545
(i__main__
DelphiIdentAccess
p4733
(dp4734
g529
S'result'
p4735
sg531
(lp4736
(idelphi
DelphiFieldEndAccess
p4737
(dp4738
g562
S'right'
p4739
sbasbsbsba(idelphi
DelphiIfStatement
p4740
(dp4741
g552
(idelphi
DelphiRelOp
p4742
(dp4743
g555
(i__main__
DelphiIdentAccess
p4744
(dp4745
g529
S'rHeight'
p4746
sg531
(lp4747
(idelphi
DelphiFunctionEndAccess
p4748
(dp4749
g535
(lp4750
(i__main__
DelphiIdentAccess
p4751
(dp4752
g529
S'plantRect'
p4753
sg531
(lp4754
sbasbasbsg564
(i__main__
DelphiIdentAccess
p4755
(dp4756
g529
S'result'
p4757
sg531
(lp4758
(idelphi
DelphiFieldEndAccess
p4759
(dp4760
g562
S'bottom'
p4761
sbasbsg567
S'>'
sbsg568
Nsg569
(i__main__
DelphiAssignStatement
p4762
(dp4763
g526
(i__main__
DelphiIdentAccess
p4764
(dp4765
g529
S'rHeight'
p4766
sg531
(lp4767
(idelphi
DelphiFunctionEndAccess
p4768
(dp4769
g535
(lp4770
(i__main__
DelphiIdentAccess
p4771
(dp4772
g529
S'plantRect'
p4773
sg531
(lp4774
sbasbasbsg545
(i__main__
DelphiIdentAccess
p4775
(dp4776
g529
S'result'
p4777
sg531
(lp4778
(idelphi
DelphiFieldEndAccess
p4779
(dp4780
g562
S'bottom'
p4781
sbasbsbsbasbsbasbsbsbasbsg737
(lp4782
(i__main__
DelphiVarSection
p4783
(dp4784
g741
I0
sg742
(lp4785
(idelphi
DelphiVarDecl
p4786
(dp4787
g746
Nsg747
(lp4788
S'plant'
p4789
asg41
(i__main__
DelphiNamedType
p4790
(dp4791
g44
S'PdPlant'
p4792
sg46
g1
sg47
Nsbsba(idelphi
DelphiVarDecl
p4793
(dp4794
g746
Nsg747
(lp4795
S'plantIndex'
p4796
asg41
(i__main__
DelphiPrimitiveType
p4797
(dp4798
g44
g80
sbsba(idelphi
DelphiVarDecl
p4799
(dp4800
g746
Nsg747
(lp4801
S'includePlant'
p4802
asg41
(i__main__
DelphiPrimitiveType
p4803
(dp4804
g44
g56
sbsba(idelphi
DelphiVarDecl
p4805
(dp4806
g746
Nsg747
(lp4807
S'plantRect'
p4808
asg41
(i__main__
DelphiNamedType
p4809
(dp4810
g44
S'TRect'
p4811
sg46
g1
sg47
NsbsbasbasbsbsS'create'
p4812
(i__main__
DelphiMethodImplementation
p4813
(dp4814
g485
g243
sg25
g245
sg33
(lp4815
sg501
(lp4816
sg503
(lp4817
sg505
(lp4818
g507
asg508
(dp4819
sg57
S'PdPlantManager'
p4820
sg58
Nsg514
(lp4821
sg62
I0
sg63
g247
sg516
(i__main__
DelphiBlock
p4822
(dp4823
g519
(idelphi
DelphiCompoundStatement
p4824
(dp4825
g522
(lp4826
(i__main__
DelphiAssignStatement
p4827
(dp4828
g526
Nsg545
(idelphi
DelphiInheritedCall
p4829
(dp4830
g529
S'create'
p4831
sg535
Nsbsba(i__main__
DelphiAssignStatement
p4832
(dp4833
g526
(i__main__
DelphiIdentAccess
p4834
(dp4835
g529
S'TListCollection'
p4836
sg531
(lp4837
(idelphi
DelphiFieldEndAccess
p4838
(dp4839
g562
S'create'
p4840
sbasbsg545
(i__main__
DelphiIdentAccess
p4841
(dp4842
g529
S'plants'
p4843
sg531
(lp4844
sbsba(i__main__
DelphiAssignStatement
p4845
(dp4846
g526
(i__main__
DelphiIdentAccess
p4847
(dp4848
g529
S'TListCollection'
p4849
sg531
(lp4850
(idelphi
DelphiFieldEndAccess
p4851
(dp4852
g562
S'create'
p4853
sbasbsg545
(i__main__
DelphiIdentAccess
p4854
(dp4855
g529
S'privatePlantClipboard'
p4856
sg531
(lp4857
sbsba(i__main__
DelphiAssignStatement
p4858
(dp4859
g526
(idelphi
DelphiRealValue
p4860
(dp4861
g77
S'1.0'
p4862
sbsg545
(i__main__
DelphiIdentAccess
p4863
(dp4864
g529
S'plantDrawScale_PixelsPerMm'
p4865
sg531
(lp4866
sbsbasbsg737
(lp4867
sbsbsS'saveplantstofile'
p4868
(i__main__
DelphiMethodImplementation
p4869
(dp4870
g485
g249
sg25
g251
sg33
(lp4871
(i__main__
DelphiFormalParameter
p4872
(dp4873
g37
Nsg38
(lp4874
S'fileName'
p4875
asg41
(i__main__
DelphiPrimitiveType
p4876
(dp4877
g44
g77
sbsg48
Nsba(i__main__
DelphiFormalParameter
p4878
(dp4879
g37
Nsg38
(lp4880
S'inPlantMover'
p4881
asg41
(i__main__
DelphiPrimitiveType
p4882
(dp4883
g44
g56
sbsg48
Nsbasg501
(lp4884
sg503
(lp4885
sg505
(lp4886
g507
ag4875
ag4881
asg508
(dp4887
g4881
g4882
sg4875
g4876
ssg57
S'PdPlantManager'
p4888
sg58
Nsg514
(lp4889
sg62
I0
sg63
g96
sg516
(i__main__
DelphiBlock
p4890
(dp4891
g519
(idelphi
DelphiCompoundStatement
p4892
(dp4893
g522
(lp4894
(idelphi
DelphiIfStatement
p4895
(dp4896
g552
(idelphi
DelphiRelOp
p4897
(dp4898
g555
(i__main__
DelphiIdentAccess
p4899
(dp4900
g529
S'plants'
p4901
sg531
(lp4902
(idelphi
DelphiFieldEndAccess
p4903
(dp4904
g562
S'count'
p4905
sbasbsg564
(idelphi
DelphiIntegerValue
p4906
(dp4907
g77
S'0'
sbsg567
g2240
sbsg568
Nsg569
(i__main__
DelphiExitStatement
p4908
(dp4909
g859
g4869
sbsba(i__main__
DelphiAssignStatement
p4910
(dp4911
g526
Nsg545
(i__main__
DelphiIdentAccess
p4912
(dp4913
g529
S'assignFile'
p4914
sg531
(lp4915
(idelphi
DelphiFunctionEndAccess
p4916
(dp4917
g535
(lp4918
(i__main__
DelphiIdentAccess
p4919
(dp4920
g529
S'outputFile'
p4921
sg531
(lp4922
sba(i__main__
DelphiIdentAccess
p4923
(dp4924
g529
S'fileName'
p4925
sg531
(lp4926
sbasbasbsba(idelphi
DelphiTryFinallyStatement
p4927
(dp4928
g948
(lp4929
(i__main__
DelphiAssignStatement
p4930
(dp4931
g526
Nsg545
(i__main__
DelphiIdentAccess
p4932
(dp4933
g529
S'setDecimalSeparator'
p4934
sg531
(lp4935
sbsg81
(lp4936
S' v1.5\r'
p4937
asba(idelphi
DelphiIfStatement
p4938
(dp4939
g552
(idelphi
DelphiNot
p4940
(dp4941
g647
(i__main__
DelphiIdentAccess
p4942
(dp4943
g529
S'inPlantMover'
p4944
sg531
(lp4945
sbsbsg568
Nsg569
(idelphi
DelphiCompoundStatement
p4946
(dp4947
g522
(lp4948
(i__main__
DelphiAssignStatement
p4949
(dp4950
g526
(i__main__
DelphiIdentAccess
p4951
(dp4952
g529
S'domain'
p4953
sg531
(lp4954
(idelphi
DelphiFieldEndAccess
p4955
(dp4956
g562
S'options'
p4957
sba(idelphi
DelphiFieldEndAccess
p4958
(dp4959
g562
S'mainWindowViewMode'
p4960
sbasbsg545
(i__main__
DelphiIdentAccess
p4961
(dp4962
g529
S'self'
p4963
sg531
(lp4964
(idelphi
DelphiFieldEndAccess
p4965
(dp4966
g562
S'mainWindowViewMode'
p4967
sbasbsg81
(lp4968
S' update before writing out (keep as read in if in mover)\r'
p4969
aS' plantDrawOffset_mm is used from here\r'
p4970
aS' plantDrawScale_PixelsPerMm is used from here\r'
p4971
asba(i__main__
DelphiAssignStatement
p4972
(dp4973
g526
(i__main__
DelphiIdentAccess
p4974
(dp4975
g529
S'domain'
p4976
sg531
(lp4977
(idelphi
DelphiFieldEndAccess
p4978
(dp4979
g562
S'options'
p4980
sba(idelphi
DelphiFieldEndAccess
p4981
(dp4982
g562
S'mainWindowOrientation'
p4983
sbasbsg545
(i__main__
DelphiIdentAccess
p4984
(dp4985
g529
S'self'
p4986
sg531
(lp4987
(idelphi
DelphiFieldEndAccess
p4988
(dp4989
g562
S'mainWindowOrientation'
p4990
sbasbsba(i__main__
DelphiAssignStatement
p4991
(dp4992
g526
(i__main__
DelphiIdentAccess
p4993
(dp4994
g529
S'domain'
p4995
sg531
(lp4996
(idelphi
DelphiFieldEndAccess
p4997
(dp4998
g562
S'options'
p4999
sba(idelphi
DelphiFieldEndAccess
p5000
(dp5001
g562
S'showBoundsRectangle'
p5002
sbasbsg545
(i__main__
DelphiIdentAccess
p5003
(dp5004
g529
S'self'
p5005
sg531
(lp5006
(idelphi
DelphiFieldEndAccess
p5007
(dp5008
g562
S'showBoundsRectangle'
p5009
sbasbsbasbsba(i__main__
DelphiAssignStatement
p5010
(dp5011
g526
Nsg545
(i__main__
DelphiIdentAccess
p5012
(dp5013
g529
S'rewrite'
p5014
sg531
(lp5015
(idelphi
DelphiFunctionEndAccess
p5016
(dp5017
g535
(lp5018
(i__main__
DelphiIdentAccess
p5019
(dp5020
g529
S'outputFile'
p5021
sg531
(lp5022
sbasbasbsba(i__main__
DelphiAssignStatement
p5023
(dp5024
g526
Nsg545
(i__main__
DelphiIdentAccess
p5025
(dp5026
g529
S'writeln'
p5027
sg531
(lp5028
(idelphi
DelphiFunctionEndAccess
p5029
(dp5030
g535
(lp5031
(i__main__
DelphiIdentAccess
p5032
(dp5033
g529
S'outputFile'
p5034
sg531
(lp5035
sba(idelphi
DelphiStringAccess
p5036
(dp5037
g531
(lp5038
sg77
(idelphi
DelphiStringValue
p5039
(dp5040
g77
S'; PlantStudio version 2.0 plant file'
p5041
sbsbasbasbsg81
(lp5042
S' v2.0\r'
p5043
asba(i__main__
DelphiAssignStatement
p5044
(dp5045
g526
Nsg545
(i__main__
DelphiIdentAccess
p5046
(dp5047
g529
S'writeln'
p5048
sg531
(lp5049
(idelphi
DelphiFunctionEndAccess
p5050
(dp5051
g535
(lp5052
(i__main__
DelphiIdentAccess
p5053
(dp5054
g529
S'outputFile'
p5055
sg531
(lp5056
sba(idelphi
DelphiAddOp
p5057
(dp5058
g577
S'+'
sg578
(i__main__
DelphiIdentAccess
p5059
(dp5060
g529
S'singlePointToString'
p5061
sg531
(lp5062
(idelphi
DelphiFunctionEndAccess
p5063
(dp5064
g535
(lp5065
(i__main__
DelphiIdentAccess
p5066
(dp5067
g529
S'self'
p5068
sg531
(lp5069
(idelphi
DelphiFieldEndAccess
p5070
(dp5071
g562
S'plantDrawOffset_mm'
p5072
sbasbasbasbsg581
(idelphi
DelphiStringAccess
p5073
(dp5074
g531
(lp5075
sg77
(idelphi
DelphiStringValue
p5076
(dp5077
g77
S'offset='
p5078
sbsbsbasbasbsba(i__main__
DelphiAssignStatement
p5079
(dp5080
g526
Nsg545
(i__main__
DelphiIdentAccess
p5081
(dp5082
g529
S'writeln'
p5083
sg531
(lp5084
(idelphi
DelphiFunctionEndAccess
p5085
(dp5086
g535
(lp5087
(i__main__
DelphiIdentAccess
p5088
(dp5089
g529
S'outputFile'
p5090
sg531
(lp5091
sba(idelphi
DelphiAddOp
p5092
(dp5093
g577
S'+'
sg578
(i__main__
DelphiIdentAccess
p5094
(dp5095
g529
S'digitValueString'
p5096
sg531
(lp5097
(idelphi
DelphiFunctionEndAccess
p5098
(dp5099
g535
(lp5100
(i__main__
DelphiIdentAccess
p5101
(dp5102
g529
S'self'
p5103
sg531
(lp5104
(idelphi
DelphiFieldEndAccess
p5105
(dp5106
g562
S'plantDrawScale_PixelsPerMm'
p5107
sbasbasbasbsg581
(idelphi
DelphiStringAccess
p5108
(dp5109
g531
(lp5110
sg77
(idelphi
DelphiStringValue
p5111
(dp5112
g77
S'scale='
p5113
sbsbsbasbasbsba(idelphi
DelphiIfStatement
p5114
(dp5115
g552
(idelphi
DelphiRelOp
p5116
(dp5117
g555
(i__main__
DelphiIdentAccess
p5118
(dp5119
g529
S'self'
p5120
sg531
(lp5121
(idelphi
DelphiFieldEndAccess
p5122
(dp5123
g562
S'mainWindowViewMode'
p5124
sbasbsg564
(i__main__
DelphiIdentAccess
p5125
(dp5126
g529
S'kViewPlantsInMainWindowOneAtATime'
p5127
sg531
(lp5128
sbsg567
S'='
sbsg568
(i__main__
DelphiAssignStatement
p5129
(dp5130
g526
Nsg545
(i__main__
DelphiIdentAccess
p5131
(dp5132
g529
S'writeln'
p5133
sg531
(lp5134
(idelphi
DelphiFunctionEndAccess
p5135
(dp5136
g535
(lp5137
(i__main__
DelphiIdentAccess
p5138
(dp5139
g529
S'outputFile'
p5140
sg531
(lp5141
sba(idelphi
DelphiStringAccess
p5142
(dp5143
g531
(lp5144
sg77
(idelphi
DelphiStringValue
p5145
(dp5146
g77
S'concentrated=false'
p5147
sbsbasbasbsbsg569
(i__main__
DelphiAssignStatement
p5148
(dp5149
g526
Nsg545
(i__main__
DelphiIdentAccess
p5150
(dp5151
g529
S'writeln'
p5152
sg531
(lp5153
(idelphi
DelphiFunctionEndAccess
p5154
(dp5155
g535
(lp5156
(i__main__
DelphiIdentAccess
p5157
(dp5158
g529
S'outputFile'
p5159
sg531
(lp5160
sba(idelphi
DelphiStringAccess
p5161
(dp5162
g531
(lp5163
sg77
(idelphi
DelphiStringValue
p5164
(dp5165
g77
S'concentrated=true'
p5166
sbsbasbasbsbsba(i__main__
DelphiAssignStatement
p5167
(dp5168
g526
Nsg545
(i__main__
DelphiIdentAccess
p5169
(dp5170
g529
S'writeln'
p5171
sg531
(lp5172
(idelphi
DelphiFunctionEndAccess
p5173
(dp5174
g535
(lp5175
(i__main__
DelphiIdentAccess
p5176
(dp5177
g529
S'outputFile'
p5178
sg531
(lp5179
sba(idelphi
DelphiAddOp
p5180
(dp5181
g577
S'+'
sg578
(i__main__
DelphiIdentAccess
p5182
(dp5183
g529
S'intToStr'
p5184
sg531
(lp5185
(idelphi
DelphiFunctionEndAccess
p5186
(dp5187
g535
(lp5188
(i__main__
DelphiIdentAccess
p5189
(dp5190
g529
S'self'
p5191
sg531
(lp5192
(idelphi
DelphiFieldEndAccess
p5193
(dp5194
g562
S'mainWindowOrientation'
p5195
sbasbasbasbsg581
(idelphi
DelphiStringAccess
p5196
(dp5197
g531
(lp5198
sg77
(idelphi
DelphiStringValue
p5199
(dp5200
g77
S'orientation (top/side)='
p5201
sbsbsbasbasbsg81
(lp5202
S' v2.0\r'
p5203
asba(i__main__
DelphiAssignStatement
p5204
(dp5205
g526
Nsg545
(i__main__
DelphiIdentAccess
p5206
(dp5207
g529
S'writeln'
p5208
sg531
(lp5209
(idelphi
DelphiFunctionEndAccess
p5210
(dp5211
g535
(lp5212
(i__main__
DelphiIdentAccess
p5213
(dp5214
g529
S'outputFile'
p5215
sg531
(lp5216
sba(idelphi
DelphiAddOp
p5217
(dp5218
g577
S'+'
sg578
(i__main__
DelphiIdentAccess
p5219
(dp5220
g529
S'boolToStr'
p5221
sg531
(lp5222
(idelphi
DelphiFunctionEndAccess
p5223
(dp5224
g535
(lp5225
(i__main__
DelphiIdentAccess
p5226
(dp5227
g529
S'self'
p5228
sg531
(lp5229
(idelphi
DelphiFieldEndAccess
p5230
(dp5231
g562
S'showBoundsRectangle'
p5232
sbasbasbasbsg581
(idelphi
DelphiStringAccess
p5233
(dp5234
g531
(lp5235
sg77
(idelphi
DelphiStringValue
p5236
(dp5237
g77
S'boxes='
p5238
sbsbsbasbasbsg81
(lp5239
S' v2.0\r'
p5240
asba(i__main__
DelphiAssignStatement
p5241
(dp5242
g526
Nsg545
(i__main__
DelphiIdentAccess
p5243
(dp5244
g529
S'writeln'
p5245
sg531
(lp5246
(idelphi
DelphiFunctionEndAccess
p5247
(dp5248
g535
(lp5249
(i__main__
DelphiIdentAccess
p5250
(dp5251
g529
S'outputFile'
p5252
sg531
(lp5253
sbasbasbsba(idelphi
DelphiForStatement
p5254
(dp5255
g572
S'i'
sg574
(idelphi
DelphiAddOp
p5256
(dp5257
g577
S'-'
sg578
(idelphi
DelphiIntegerValue
p5258
(dp5259
g77
S'1'
sbsg581
(i__main__
DelphiIdentAccess
p5260
(dp5261
g529
S'plants'
p5262
sg531
(lp5263
(idelphi
DelphiFieldEndAccess
p5264
(dp5265
g562
S'count'
p5266
sbasbsbsg589
g590
sg37
(idelphi
DelphiIntegerValue
p5267
(dp5268
g77
S'0'
sbsg593
(idelphi
DelphiCompoundStatement
p5269
(dp5270
g522
(lp5271
(i__main__
DelphiAssignStatement
p5272
(dp5273
g526
(i__main__
DelphiIdentAccess
p5274
(dp5275
g529
S'PdPlant'
p5276
sg531
(lp5277
(idelphi
DelphiFunctionEndAccess
p5278
(dp5279
g535
(lp5280
(i__main__
DelphiIdentAccess
p5281
(dp5282
g529
S'plants'
p5283
sg531
(lp5284
(idelphi
DelphiFieldEndAccess
p5285
(dp5286
g562
S'items'
p5287
sba(idelphi
DelphiArrayEndAccess
p5288
(dp5289
g535
(lp5290
(i__main__
DelphiIdentAccess
p5291
(dp5292
g529
S'i'
sg531
(lp5293
sbasbasbasbasbsg545
(i__main__
DelphiIdentAccess
p5294
(dp5295
g529
S'plant'
p5296
sg531
(lp5297
sbsba(idelphi
DelphiIfStatement
p5298
(dp5299
g552
(idelphi
DelphiRelOp
p5300
(dp5301
g555
(i__main__
DelphiIdentAccess
p5302
(dp5303
g529
S'plant'
p5304
sg531
(lp5305
sbsg564
(idelphi
DelphiNilValue
p5306
(dp5307
bsg567
S'='
sbsg568
Nsg569
(idelphi
DelphiContinueStatement
p5308
(dp5309
bsba(i__main__
DelphiAssignStatement
p5310
(dp5311
g526
Nsg545
(i__main__
DelphiIdentAccess
p5312
(dp5313
g529
S'plant'
p5314
sg531
(lp5315
(idelphi
DelphiFieldEndAccess
p5316
(dp5317
g562
S'writeToPlantFile'
p5318
sba(idelphi
DelphiFunctionEndAccess
p5319
(dp5320
g535
(lp5321
(i__main__
DelphiIdentAccess
p5322
(dp5323
g529
S'outputFile'
p5324
sg531
(lp5325
sbasbasbsbasbsbasg1108
(lp5326
(i__main__
DelphiAssignStatement
p5327
(dp5328
g526
Nsg545
(i__main__
DelphiIdentAccess
p5329
(dp5330
g529
S'closeFile'
p5331
sg531
(lp5332
(idelphi
DelphiFunctionEndAccess
p5333
(dp5334
g535
(lp5335
(i__main__
DelphiIdentAccess
p5336
(dp5337
g529
S'outputFile'
p5338
sg531
(lp5339
sbasbasbsbasbasbsg737
(lp5340
(i__main__
DelphiVarSection
p5341
(dp5342
g741
I0
sg742
(lp5343
(idelphi
DelphiVarDecl
p5344
(dp5345
g746
Nsg747
(lp5346
S'outputFile'
p5347
asg41
(i__main__
DelphiNamedType
p5348
(dp5349
g44
S'TextFile'
p5350
sg46
g1
sg47
Nsbsba(idelphi
DelphiVarDecl
p5351
(dp5352
g746
Nsg747
(lp5353
S'i'
asg41
(i__main__
DelphiPrimitiveType
p5354
(dp5355
g44
g155
sbsba(idelphi
DelphiVarDecl
p5356
(dp5357
g746
Nsg747
(lp5358
S'plant'
p5359
asg41
(i__main__
DelphiNamedType
p5360
(dp5361
g44
S'PdPlant'
p5362
sg46
g1
sg47
NsbsbasbasbsbsS'removeplant'
p5363
(i__main__
DelphiMethodImplementation
p5364
(dp5365
g485
g266
sg25
g268
sg33
(lp5366
(i__main__
DelphiFormalParameter
p5367
(dp5368
g37
Nsg38
(lp5369
S'aPlant'
p5370
asg41
(i__main__
DelphiNamedType
p5371
(dp5372
g44
S'PdPlant'
p5373
sg46
g1
sg47
Nsbsg48
Nsbasg501
(lp5374
sg503
(lp5375
sg505
(lp5376
g507
ag5370
asg508
(dp5377
g5370
g5371
ssg57
S'PdPlantManager'
p5378
sg58
(i__main__
DelphiPrimitiveType
p5379
(dp5380
g44
g56
sbsg514
(lp5381
sg62
I0
sg63
g64
sg516
(i__main__
DelphiBlock
p5382
(dp5383
g519
(idelphi
DelphiCompoundStatement
p5384
(dp5385
g522
(lp5386
(i__main__
DelphiAssignStatement
p5387
(dp5388
g526
(idelphi
DelphiNestedExpressionListAccess
p5389
(dp5390
g531
(lp5391
sg535
(lp5392
(idelphi
DelphiRelOp
p5393
(dp5394
g555
(i__main__
DelphiIdentAccess
p5395
(dp5396
g529
S'plants'
p5397
sg531
(lp5398
(idelphi
DelphiFieldEndAccess
p5399
(dp5400
g562
S'remove'
p5401
sba(idelphi
DelphiFunctionEndAccess
p5402
(dp5403
g535
(lp5404
(i__main__
DelphiIdentAccess
p5405
(dp5406
g529
S'aPlant'
p5407
sg531
(lp5408
sbasbasbsg564
(idelphi
DelphiIntegerValue
p5409
(dp5410
g77
S'0'
sbsg567
g698
sbasbsg545
(i__main__
DelphiIdentAccess
p5411
(dp5412
g529
S'result'
p5413
sg531
(lp5414
sbsg81
(lp5415
S' remove returns index of object in list before removal '
p5416
asbasbsg737
(lp5417
sbsbsS'plantforindex'
p5418
(i__main__
DelphiMethodImplementation
p5419
(dp5420
g485
g280
sg25
g282
sg33
(lp5421
(i__main__
DelphiFormalParameter
p5422
(dp5423
g37
Nsg38
(lp5424
g287
asg41
(i__main__
DelphiPrimitiveType
p5425
(dp5426
g44
g216
sbsg48
Nsbasg501
(lp5427
sg503
(lp5428
sg505
(lp5429
g507
ag287
asg508
(dp5430
g287
g5425
ssg57
S'PdPlantManager'
p5431
sg58
(i__main__
DelphiNamedType
p5432
(dp5433
g44
S'PdPlant'
p5434
sg46
g1
sg47
Nsbsg514
(lp5435
sg62
I0
sg63
g64
sg516
(i__main__
DelphiBlock
p5436
(dp5437
g519
(idelphi
DelphiCompoundStatement
p5438
(dp5439
g522
(lp5440
(i__main__
DelphiAssignStatement
p5441
(dp5442
g526
(i__main__
DelphiIdentAccess
p5443
(dp5444
g529
S'PdPlant'
p5445
sg531
(lp5446
(idelphi
DelphiFunctionEndAccess
p5447
(dp5448
g535
(lp5449
(i__main__
DelphiIdentAccess
p5450
(dp5451
g529
S'plants'
p5452
sg531
(lp5453
(idelphi
DelphiFieldEndAccess
p5454
(dp5455
g562
S'items'
p5456
sba(idelphi
DelphiArrayEndAccess
p5457
(dp5458
g535
(lp5459
(i__main__
DelphiIdentAccess
p5460
(dp5461
g529
g287
sg531
(lp5462
sbasbasbasbasbsg545
(i__main__
DelphiIdentAccess
p5463
(dp5464
g529
S'result'
p5465
sg531
(lp5466
sbsbasbsg737
(lp5467
sbsbsS'setcopiedfrommainwindowflaginclipboardplants'
p5468
(i__main__
DelphiMethodImplementation
p5469
(dp5470
g485
g294
sg25
g296
sg33
(lp5471
sg501
(lp5472
sg503
(lp5473
sg505
(lp5474
g507
asg508
(dp5475
sg57
S'PdPlantManager'
p5476
sg58
Nsg514
(lp5477
sg62
I0
sg63
g96
sg516
(i__main__
DelphiBlock
p5478
(dp5479
g519
(idelphi
DelphiCompoundStatement
p5480
(dp5481
g522
(lp5482
(idelphi
DelphiIfStatement
p5483
(dp5484
g552
(idelphi
DelphiRelOp
p5485
(dp5486
g555
(i__main__
DelphiIdentAccess
p5487
(dp5488
g529
S'privatePlantClipboard'
p5489
sg531
(lp5490
(idelphi
DelphiFieldEndAccess
p5491
(dp5492
g562
S'count'
p5493
sbasbsg564
(idelphi
DelphiIntegerValue
p5494
(dp5495
g77
S'0'
sbsg567
S'>'
sbsg568
Nsg569
(idelphi
DelphiForStatement
p5496
(dp5497
g572
S'i'
sg574
(idelphi
DelphiAddOp
p5498
(dp5499
g577
S'-'
sg578
(idelphi
DelphiIntegerValue
p5500
(dp5501
g77
S'1'
sbsg581
(i__main__
DelphiIdentAccess
p5502
(dp5503
g529
S'privatePlantClipboard'
p5504
sg531
(lp5505
(idelphi
DelphiFieldEndAccess
p5506
(dp5507
g562
S'count'
p5508
sbasbsbsg589
g590
sg37
(idelphi
DelphiIntegerValue
p5509
(dp5510
g77
S'0'
sbsg593
(i__main__
DelphiAssignStatement
p5511
(dp5512
g526
(i__main__
DelphiIdentAccess
p5513
(dp5514
g529
S'true'
p5515
sg531
(lp5516
sbsg545
(i__main__
DelphiIdentAccess
p5517
(dp5518
g529
S'PdPlant'
p5519
sg531
(lp5520
(idelphi
DelphiFunctionEndAccess
p5521
(dp5522
g535
(lp5523
(i__main__
DelphiIdentAccess
p5524
(dp5525
g529
S'privatePlantClipboard'
p5526
sg531
(lp5527
(idelphi
DelphiFieldEndAccess
p5528
(dp5529
g562
S'items'
p5530
sba(idelphi
DelphiArrayEndAccess
p5531
(dp5532
g535
(lp5533
(i__main__
DelphiIdentAccess
p5534
(dp5535
g529
S'i'
sg531
(lp5536
sbasbasbasba(idelphi
DelphiFieldEndAccess
p5537
(dp5538
g562
S'justCopiedFromMainWindow'
p5539
sbasbsbsbsbasbsg737
(lp5540
(i__main__
DelphiVarSection
p5541
(dp5542
g741
I0
sg742
(lp5543
(idelphi
DelphiVarDecl
p5544
(dp5545
g746
Nsg747
(lp5546
S'i'
asg41
(i__main__
DelphiPrimitiveType
p5547
(dp5548
g44
g155
sbsbasbasbsbsS'zeroallboundsrectstoforceredraw'
p5549
(i__main__
DelphiMethodImplementation
p5550
(dp5551
g485
g299
sg25
g301
sg33
(lp5552
sg501
(lp5553
sg503
(lp5554
sg505
(lp5555
g507
asg508
(dp5556
sg57
S'PdPlantManager'
p5557
sg58
Nsg514
(lp5558
sg62
I0
sg63
g96
sg516
(i__main__
DelphiBlock
p5559
(dp5560
g519
(idelphi
DelphiCompoundStatement
p5561
(dp5562
g522
(lp5563
(idelphi
DelphiIfStatement
p5564
(dp5565
g552
(idelphi
DelphiRelOp
p5566
(dp5567
g555
(i__main__
DelphiIdentAccess
p5568
(dp5569
g529
S'plants'
p5570
sg531
(lp5571
(idelphi
DelphiFieldEndAccess
p5572
(dp5573
g562
S'count'
p5574
sbasbsg564
(idelphi
DelphiIntegerValue
p5575
(dp5576
g77
S'0'
sbsg567
S'>'
sbsg568
Nsg569
(idelphi
DelphiForStatement
p5577
(dp5578
g572
S'i'
sg574
(idelphi
DelphiAddOp
p5579
(dp5580
g577
S'-'
sg578
(idelphi
DelphiIntegerValue
p5581
(dp5582
g77
S'1'
sbsg581
(i__main__
DelphiIdentAccess
p5583
(dp5584
g529
S'plants'
p5585
sg531
(lp5586
(idelphi
DelphiFieldEndAccess
p5587
(dp5588
g562
S'count'
p5589
sbasbsbsg589
g590
sg37
(idelphi
DelphiIntegerValue
p5590
(dp5591
g77
S'0'
sbsg593
(idelphi
DelphiCompoundStatement
p5592
(dp5593
g522
(lp5594
(i__main__
DelphiAssignStatement
p5595
(dp5596
g526
(i__main__
DelphiIdentAccess
p5597
(dp5598
g529
S'PdPlant'
p5599
sg531
(lp5600
(idelphi
DelphiFunctionEndAccess
p5601
(dp5602
g535
(lp5603
(i__main__
DelphiIdentAccess
p5604
(dp5605
g529
S'plants'
p5606
sg531
(lp5607
(idelphi
DelphiFieldEndAccess
p5608
(dp5609
g562
S'items'
p5610
sba(idelphi
DelphiArrayEndAccess
p5611
(dp5612
g535
(lp5613
(i__main__
DelphiIdentAccess
p5614
(dp5615
g529
S'i'
sg531
(lp5616
sbasbasbasbasbsg545
(i__main__
DelphiIdentAccess
p5617
(dp5618
g529
S'plant'
p5619
sg531
(lp5620
sbsba(i__main__
DelphiAssignStatement
p5621
(dp5622
g526
Nsg545
(i__main__
DelphiIdentAccess
p5623
(dp5624
g529
S'plant'
p5625
sg531
(lp5626
(idelphi
DelphiFieldEndAccess
p5627
(dp5628
g562
S'setBoundsRect_pixels'
p5629
sba(idelphi
DelphiFunctionEndAccess
p5630
(dp5631
g535
(lp5632
(i__main__
DelphiIdentAccess
p5633
(dp5634
g529
S'rect'
p5635
sg531
(lp5636
(idelphi
DelphiFunctionEndAccess
p5637
(dp5638
g535
(lp5639
(idelphi
DelphiIntegerValue
p5640
(dp5641
g77
S'0'
sba(idelphi
DelphiIntegerValue
p5642
(dp5643
g77
S'0'
sba(idelphi
DelphiIntegerValue
p5644
(dp5645
g77
S'0'
sba(idelphi
DelphiIntegerValue
p5646
(dp5647
g77
S'0'
sbasbasbasbasbsbasbsbsbasbsg737
(lp5648
(i__main__
DelphiVarSection
p5649
(dp5650
g741
I0
sg742
(lp5651
(idelphi
DelphiVarDecl
p5652
(dp5653
g746
Nsg747
(lp5654
S'i'
asg41
(i__main__
DelphiPrimitiveType
p5655
(dp5656
g44
g155
sbsba(idelphi
DelphiVarDecl
p5657
(dp5658
g746
Nsg747
(lp5659
S'plant'
p5660
asg41
(i__main__
DelphiNamedType
p5661
(dp5662
g44
S'PdPlant'
p5663
sg46
g1
sg47
NsbsbasbasbsbsS'findfirstplantwithboundsrectatpoint'
p5664
(i__main__
DelphiMethodImplementation
p5665
(dp5666
g485
g304
sg25
g306
sg33
(lp5667
(i__main__
DelphiFormalParameter
p5668
(dp5669
g37
Nsg38
(lp5670
S'aPoint'
p5671
asg41
(i__main__
DelphiNamedType
p5672
(dp5673
g44
S'TPoint'
p5674
sg46
g1
sg47
Nsbsg48
Nsbasg501
(lp5675
sg503
(lp5676
sg505
(lp5677
g507
ag5671
asg508
(dp5678
g5671
g5672
ssg57
S'PdPlantManager'
p5679
sg58
(i__main__
DelphiNamedType
p5680
(dp5681
g44
S'PdPlant'
p5682
sg46
g1
sg47
Nsbsg514
(lp5683
sg62
I0
sg63
g64
sg516
(i__main__
DelphiBlock
p5684
(dp5685
g519
(idelphi
DelphiCompoundStatement
p5686
(dp5687
g522
(lp5688
(i__main__
DelphiAssignStatement
p5689
(dp5690
g526
(idelphi
DelphiNilValue
p5691
(dp5692
bsg545
(i__main__
DelphiIdentAccess
p5693
(dp5694
g529
S'result'
p5695
sg531
(lp5696
sbsba(idelphi
DelphiIfStatement
p5697
(dp5698
g552
(idelphi
DelphiRelOp
p5699
(dp5700
g555
(i__main__
DelphiIdentAccess
p5701
(dp5702
g529
S'plants'
p5703
sg531
(lp5704
(idelphi
DelphiFieldEndAccess
p5705
(dp5706
g562
S'count'
p5707
sbasbsg564
(idelphi
DelphiIntegerValue
p5708
(dp5709
g77
S'0'
sbsg567
S'>'
sbsg568
Nsg569
(idelphi
DelphiForStatement
p5710
(dp5711
g572
S'plantIndex'
p5712
sg574
(idelphi
DelphiIntegerValue
p5713
(dp5714
g77
S'0'
sbsg589
g4163
sg37
(idelphi
DelphiAddOp
p5715
(dp5716
g577
S'-'
sg578
(idelphi
DelphiIntegerValue
p5717
(dp5718
g77
S'1'
sbsg581
(i__main__
DelphiIdentAccess
p5719
(dp5720
g529
S'plants'
p5721
sg531
(lp5722
(idelphi
DelphiFieldEndAccess
p5723
(dp5724
g562
S'count'
p5725
sbasbsbsg593
(idelphi
DelphiCompoundStatement
p5726
(dp5727
g522
(lp5728
(i__main__
DelphiAssignStatement
p5729
(dp5730
g526
(i__main__
DelphiIdentAccess
p5731
(dp5732
g529
S'PdPlant'
p5733
sg531
(lp5734
(idelphi
DelphiFunctionEndAccess
p5735
(dp5736
g535
(lp5737
(i__main__
DelphiIdentAccess
p5738
(dp5739
g529
S'plants'
p5740
sg531
(lp5741
(idelphi
DelphiFieldEndAccess
p5742
(dp5743
g562
S'items'
p5744
sba(idelphi
DelphiArrayEndAccess
p5745
(dp5746
g535
(lp5747
(i__main__
DelphiIdentAccess
p5748
(dp5749
g529
S'plantIndex'
p5750
sg531
(lp5751
sbasbasbasbasbsg545
(i__main__
DelphiIdentAccess
p5752
(dp5753
g529
S'plant'
p5754
sg531
(lp5755
sbsg81
(lp5756
S' go through list backwards because list order is drawing order is from front to back\r'
p5757
asba(idelphi
DelphiIfStatement
p5758
(dp5759
g552
(i__main__
DelphiIdentAccess
p5760
(dp5761
g529
S'plant'
p5762
sg531
(lp5763
(idelphi
DelphiFieldEndAccess
p5764
(dp5765
g562
S'hidden'
p5766
sbasbsg568
Nsg569
(idelphi
DelphiContinueStatement
p5767
(dp5768
bsba(idelphi
DelphiIfStatement
p5769
(dp5770
g552
(i__main__
DelphiIdentAccess
p5771
(dp5772
g529
S'plant'
p5773
sg531
(lp5774
(idelphi
DelphiFieldEndAccess
p5775
(dp5776
g562
S'pointInBoundsRect'
p5777
sba(idelphi
DelphiFunctionEndAccess
p5778
(dp5779
g535
(lp5780
(i__main__
DelphiIdentAccess
p5781
(dp5782
g529
S'aPoint'
p5783
sg531
(lp5784
sbasbasbsg568
Nsg569
(idelphi
DelphiCompoundStatement
p5785
(dp5786
g522
(lp5787
(i__main__
DelphiAssignStatement
p5788
(dp5789
g526
(i__main__
DelphiIdentAccess
p5790
(dp5791
g529
S'plant'
p5792
sg531
(lp5793
sbsg545
(i__main__
DelphiIdentAccess
p5794
(dp5795
g529
S'result'
p5796
sg531
(lp5797
sbsba(i__main__
DelphiExitStatement
p5798
(dp5799
g859
g5665
sbasbsbasbsbsbasbsg737
(lp5800
(i__main__
DelphiVarSection
p5801
(dp5802
g741
I0
sg742
(lp5803
(idelphi
DelphiVarDecl
p5804
(dp5805
g746
Nsg747
(lp5806
S'plant'
p5807
asg41
(i__main__
DelphiNamedType
p5808
(dp5809
g44
S'PdPlant'
p5810
sg46
g1
sg47
Nsbsba(idelphi
DelphiVarDecl
p5811
(dp5812
g746
Nsg747
(lp5813
S'plantIndex'
p5814
asg41
(i__main__
DelphiPrimitiveType
p5815
(dp5816
g44
g155
sbsbasbasbsbsS'pasteplantsfromprivateplantclipboardtolist'
p5817
(i__main__
DelphiMethodImplementation
p5818
(dp5819
g485
g319
sg25
g321
sg33
(lp5820
(i__main__
DelphiFormalParameter
p5821
(dp5822
g37
Nsg38
(lp5823
S'aList'
p5824
asg41
(i__main__
DelphiNamedType
p5825
(dp5826
g44
S'TList'
p5827
sg46
g1
sg47
Nsbsg48
Nsbasg501
(lp5828
sg503
(lp5829
sg505
(lp5830
g507
ag5824
asg508
(dp5831
g5824
g5825
ssg57
S'PdPlantManager'
p5832
sg58
Nsg514
(lp5833
sg62
I0
sg63
g96
sg516
(i__main__
DelphiBlock
p5834
(dp5835
g519
(idelphi
DelphiCompoundStatement
p5836
(dp5837
g522
(lp5838
(idelphi
DelphiIfStatement
p5839
(dp5840
g552
(idelphi
DelphiRelOp
p5841
(dp5842
g555
(i__main__
DelphiIdentAccess
p5843
(dp5844
g529
S'privatePlantClipboard'
p5845
sg531
(lp5846
(idelphi
DelphiFieldEndAccess
p5847
(dp5848
g562
S'count'
p5849
sbasbsg564
(idelphi
DelphiIntegerValue
p5850
(dp5851
g77
S'0'
sbsg567
S'>'
sbsg568
Nsg569
(idelphi
DelphiForStatement
p5852
(dp5853
g572
S'i'
sg574
(idelphi
DelphiAddOp
p5854
(dp5855
g577
S'-'
sg578
(idelphi
DelphiIntegerValue
p5856
(dp5857
g77
S'1'
sbsg581
(i__main__
DelphiIdentAccess
p5858
(dp5859
g529
S'privatePlantClipboard'
p5860
sg531
(lp5861
(idelphi
DelphiFieldEndAccess
p5862
(dp5863
g562
S'count'
p5864
sbasbsbsg589
g590
sg37
(idelphi
DelphiIntegerValue
p5865
(dp5866
g77
S'0'
sbsg593
(idelphi
DelphiCompoundStatement
p5867
(dp5868
g522
(lp5869
(i__main__
DelphiAssignStatement
p5870
(dp5871
g526
(i__main__
DelphiIdentAccess
p5872
(dp5873
g529
S'PdPlant'
p5874
sg531
(lp5875
(idelphi
DelphiFunctionEndAccess
p5876
(dp5877
g535
(lp5878
(i__main__
DelphiIdentAccess
p5879
(dp5880
g529
S'privatePlantClipboard'
p5881
sg531
(lp5882
(idelphi
DelphiFieldEndAccess
p5883
(dp5884
g562
S'items'
p5885
sba(idelphi
DelphiArrayEndAccess
p5886
(dp5887
g535
(lp5888
(i__main__
DelphiIdentAccess
p5889
(dp5890
g529
S'i'
sg531
(lp5891
sbasbasbasbasbsg545
(i__main__
DelphiIdentAccess
p5892
(dp5893
g529
S'plant'
p5894
sg531
(lp5895
sbsg81
(lp5896
S' caller takes responsibility of freeing plants '
p5897
asba(i__main__
DelphiAssignStatement
p5898
(dp5899
g526
(i__main__
DelphiIdentAccess
p5900
(dp5901
g529
S'PdPlant'
p5902
sg531
(lp5903
(idelphi
DelphiFieldEndAccess
p5904
(dp5905
g562
S'create'
p5906
sbasbsg545
(i__main__
DelphiIdentAccess
p5907
(dp5908
g529
S'newPlant'
p5909
sg531
(lp5910
sbsba(i__main__
DelphiAssignStatement
p5911
(dp5912
g526
Nsg545
(i__main__
DelphiIdentAccess
p5913
(dp5914
g529
S'plant'
p5915
sg531
(lp5916
(idelphi
DelphiFieldEndAccess
p5917
(dp5918
g562
S'copyTo'
p5919
sba(idelphi
DelphiFunctionEndAccess
p5920
(dp5921
g535
(lp5922
(i__main__
DelphiIdentAccess
p5923
(dp5924
g529
S'newPlant'
p5925
sg531
(lp5926
sbasbasbsba(i__main__
DelphiAssignStatement
p5927
(dp5928
g526
Nsg545
(i__main__
DelphiIdentAccess
p5929
(dp5930
g529
S'newPlant'
p5931
sg531
(lp5932
(idelphi
DelphiFieldEndAccess
p5933
(dp5934
g562
S'moveBy'
p5935
sba(idelphi
DelphiFunctionEndAccess
p5936
(dp5937
g535
(lp5938
(i__main__
DelphiIdentAccess
p5939
(dp5940
g529
S'point'
p5941
sg531
(lp5942
(idelphi
DelphiFunctionEndAccess
p5943
(dp5944
g535
(lp5945
(i__main__
DelphiIdentAccess
p5946
(dp5947
g529
S'kPasteMoveDistance'
p5948
sg531
(lp5949
sba(idelphi
DelphiIntegerValue
p5950
(dp5951
g77
S'0'
sbasbasbasbasbsba(i__main__
DelphiAssignStatement
p5952
(dp5953
g526
Nsg545
(i__main__
DelphiIdentAccess
p5954
(dp5955
g529
S'aList'
p5956
sg531
(lp5957
(idelphi
DelphiFieldEndAccess
p5958
(dp5959
g562
S'add'
p5960
sba(idelphi
DelphiFunctionEndAccess
p5961
(dp5962
g535
(lp5963
(i__main__
DelphiIdentAccess
p5964
(dp5965
g529
S'newPlant'
p5966
sg531
(lp5967
sbasbasbsbasbsbsbasbsg737
(lp5968
(i__main__
DelphiVarSection
p5969
(dp5970
g741
I0
sg742
(lp5971
(idelphi
DelphiVarDecl
p5972
(dp5973
g746
Nsg747
(lp5974
S'i'
asg41
(i__main__
DelphiPrimitiveType
p5975
(dp5976
g44
g155
sbsba(idelphi
DelphiVarDecl
p5977
(dp5978
g746
Nsg747
(lp5979
S'plant'
p5980
aS'newPlant'
p5981
asg41
(i__main__
DelphiNamedType
p5982
(dp5983
g44
S'PdPlant'
p5984
sg46
g1
sg47
NsbsbasbasbsbsS'destroy'
p5985
(i__main__
DelphiMethodImplementation
p5986
(dp5987
g485
g331
sg25
g333
sg33
(lp5988
sg501
(lp5989
sg503
(lp5990
sg505
(lp5991
g507
asg508
(dp5992
sg57
S'PdPlantManager'
p5993
sg58
Nsg514
(lp5994
sg62
I0
sg63
g335
sg516
(i__main__
DelphiBlock
p5995
(dp5996
g519
(idelphi
DelphiCompoundStatement
p5997
(dp5998
g522
(lp5999
(i__main__
DelphiAssignStatement
p6000
(dp6001
g526
Nsg545
(i__main__
DelphiIdentAccess
p6002
(dp6003
g529
S'plants'
p6004
sg531
(lp6005
(idelphi
DelphiFieldEndAccess
p6006
(dp6007
g562
S'free'
p6008
sbasbsba(i__main__
DelphiAssignStatement
p6009
(dp6010
g526
(idelphi
DelphiNilValue
p6011
(dp6012
bsg545
(i__main__
DelphiIdentAccess
p6013
(dp6014
g529
S'plants'
p6015
sg531
(lp6016
sbsba(i__main__
DelphiAssignStatement
p6017
(dp6018
g526
Nsg545
(i__main__
DelphiIdentAccess
p6019
(dp6020
g529
S'privatePlantClipboard'
p6021
sg531
(lp6022
(idelphi
DelphiFieldEndAccess
p6023
(dp6024
g562
S'free'
p6025
sbasbsba(i__main__
DelphiAssignStatement
p6026
(dp6027
g526
(idelphi
DelphiNilValue
p6028
(dp6029
bsg545
(i__main__
DelphiIdentAccess
p6030
(dp6031
g529
S'privatePlantClipboard'
p6032
sg531
(lp6033
sbsba(i__main__
DelphiAssignStatement
p6034
(dp6035
g526
Nsg545
(idelphi
DelphiInheritedCall
p6036
(dp6037
g529
S'destroy'
p6038
sg535
Nsbsbasbsg737
(lp6039
sbsbsS'loadplantobjectsintotstrings'
p6040
(i__main__
DelphiMethodImplementation
p6041
(dp6042
g485
g337
sg25
g339
sg33
(lp6043
(i__main__
DelphiFormalParameter
p6044
(dp6045
g37
Nsg38
(lp6046
S'stringList'
p6047
asg41
(i__main__
DelphiNamedType
p6048
(dp6049
g44
S'TStrings'
p6050
sg46
g1
sg47
Nsbsg48
Nsbasg501
(lp6051
sg503
(lp6052
sg505
(lp6053
g507
ag6047
asg508
(dp6054
g6047
g6048
ssg57
S'PdPlantManager'
p6055
sg58
Nsg514
(lp6056
sg62
I0
sg63
g96
sg516
(i__main__
DelphiBlock
p6057
(dp6058
g519
(idelphi
DelphiCompoundStatement
p6059
(dp6060
g522
(lp6061
(idelphi
DelphiIfStatement
p6062
(dp6063
g552
(idelphi
DelphiRelOp
p6064
(dp6065
g555
(i__main__
DelphiIdentAccess
p6066
(dp6067
g529
S'plants'
p6068
sg531
(lp6069
(idelphi
DelphiFieldEndAccess
p6070
(dp6071
g562
S'count'
p6072
sbasbsg564
(idelphi
DelphiIntegerValue
p6073
(dp6074
g77
S'0'
sbsg567
S'>'
sbsg568
Nsg569
(idelphi
DelphiCompoundStatement
p6075
(dp6076
g522
(lp6077
(idelphi
DelphiForStatement
p6078
(dp6079
g572
S'i'
sg574
(idelphi
DelphiAddOp
p6080
(dp6081
g577
S'-'
sg578
(idelphi
DelphiIntegerValue
p6082
(dp6083
g77
S'1'
sbsg581
(i__main__
DelphiIdentAccess
p6084
(dp6085
g529
S'plants'
p6086
sg531
(lp6087
(idelphi
DelphiFieldEndAccess
p6088
(dp6089
g562
S'count'
p6090
sbasbsbsg589
g590
sg37
(idelphi
DelphiIntegerValue
p6091
(dp6092
g77
S'0'
sbsg593
(idelphi
DelphiCompoundStatement
p6093
(dp6094
g522
(lp6095
(i__main__
DelphiAssignStatement
p6096
(dp6097
g526
(i__main__
DelphiIdentAccess
p6098
(dp6099
g529
S'PdPlant'
p6100
sg531
(lp6101
(idelphi
DelphiFunctionEndAccess
p6102
(dp6103
g535
(lp6104
(i__main__
DelphiIdentAccess
p6105
(dp6106
g529
S'plants'
p6107
sg531
(lp6108
(idelphi
DelphiFieldEndAccess
p6109
(dp6110
g562
S'items'
p6111
sba(idelphi
DelphiArrayEndAccess
p6112
(dp6113
g535
(lp6114
(i__main__
DelphiIdentAccess
p6115
(dp6116
g529
S'i'
sg531
(lp6117
sbasbasbasbasbsg545
(i__main__
DelphiIdentAccess
p6118
(dp6119
g529
S'plant'
p6120
sg531
(lp6121
sbsba(i__main__
DelphiAssignStatement
p6122
(dp6123
g526
Nsg545
(i__main__
DelphiIdentAccess
p6124
(dp6125
g529
S'stringList'
p6126
sg531
(lp6127
(idelphi
DelphiFieldEndAccess
p6128
(dp6129
g562
S'addObject'
p6130
sba(idelphi
DelphiFunctionEndAccess
p6131
(dp6132
g535
(lp6133
(i__main__
DelphiIdentAccess
p6134
(dp6135
g529
S'plant'
p6136
sg531
(lp6137
(idelphi
DelphiFieldEndAccess
p6138
(dp6139
g562
S'getName'
p6140
sbasba(i__main__
DelphiIdentAccess
p6141
(dp6142
g529
S'plant'
p6143
sg531
(lp6144
sbasbasbsbasbsbasbsbasbsg737
(lp6145
(i__main__
DelphiVarSection
p6146
(dp6147
g741
I0
sg742
(lp6148
(idelphi
DelphiVarDecl
p6149
(dp6150
g746
Nsg747
(lp6151
S'i'
asg41
(i__main__
DelphiPrimitiveType
p6152
(dp6153
g44
g80
sbsba(idelphi
DelphiVarDecl
p6154
(dp6155
g746
Nsg747
(lp6156
S'plant'
p6157
asg41
(i__main__
DelphiNamedType
p6158
(dp6159
g44
S'PdPlant'
p6160
sg46
g1
sg47
NsbsbasbasbsbsS'filllistwithplantsinrectangle'
p6161
(i__main__
DelphiMethodImplementation
p6162
(dp6163
g485
g349
sg25
g351
sg33
(lp6164
(i__main__
DelphiFormalParameter
p6165
(dp6166
g37
Nsg38
(lp6167
S'aRect'
p6168
asg41
(i__main__
DelphiNamedType
p6169
(dp6170
g44
S'TRect'
p6171
sg46
g1
sg47
Nsbsg48
Nsba(i__main__
DelphiFormalParameter
p6172
(dp6173
g37
Nsg38
(lp6174
S'aList'
p6175
asg41
(i__main__
DelphiNamedType
p6176
(dp6177
g44
S'TList'
p6178
sg46
g1
sg47
Nsbsg48
Nsbasg501
(lp6179
sg503
(lp6180
sg505
(lp6181
g507
ag6168
ag6175
asg508
(dp6182
g6168
g6169
sg6175
g6176
ssg57
S'PdPlantManager'
p6183
sg58
Nsg514
(lp6184
sg62
I0
sg63
g96
sg516
(i__main__
DelphiBlock
p6185
(dp6186
g519
(idelphi
DelphiCompoundStatement
p6187
(dp6188
g522
(lp6189
(idelphi
DelphiIfStatement
p6190
(dp6191
g552
(idelphi
DelphiRelOp
p6192
(dp6193
g555
(i__main__
DelphiIdentAccess
p6194
(dp6195
g529
S'aList'
p6196
sg531
(lp6197
sbsg564
(idelphi
DelphiNilValue
p6198
(dp6199
bsg567
S'='
sbsg568
Nsg569
(idelphi
DelphiRaiseStatement
p6200
(dp6201
g552
(i__main__
DelphiIdentAccess
p6202
(dp6203
g529
S'Exception'
p6204
sg531
(lp6205
(idelphi
DelphiFieldEndAccess
p6206
(dp6207
g562
S'create'
p6208
sba(idelphi
DelphiFunctionEndAccess
p6209
(dp6210
g535
(lp6211
(idelphi
DelphiStringAccess
p6212
(dp6213
g531
(lp6214
sg77
(idelphi
DelphiStringValue
p6215
(dp6216
g77
S'Problem: Nil list in method PdPlantManager.fillListWithPlantsInRectangle.'
p6217
sbsbasbasbsbsba(idelphi
DelphiIfStatement
p6218
(dp6219
g552
(i__main__
DelphiIdentAccess
p6220
(dp6221
g529
S'application'
p6222
sg531
(lp6223
(idelphi
DelphiFieldEndAccess
p6224
(dp6225
g562
S'terminated'
p6226
sbasbsg568
Nsg569
(i__main__
DelphiExitStatement
p6227
(dp6228
g859
g6162
sbsba(idelphi
DelphiIfStatement
p6229
(dp6230
g552
(idelphi
DelphiRelOp
p6231
(dp6232
g555
(i__main__
DelphiIdentAccess
p6233
(dp6234
g529
S'plants'
p6235
sg531
(lp6236
(idelphi
DelphiFieldEndAccess
p6237
(dp6238
g562
S'count'
p6239
sbasbsg564
(idelphi
DelphiIntegerValue
p6240
(dp6241
g77
S'0'
sbsg567
S'>'
sbsg568
Nsg569
(idelphi
DelphiForStatement
p6242
(dp6243
g572
S'plantIndex'
p6244
sg574
(idelphi
DelphiAddOp
p6245
(dp6246
g577
S'-'
sg578
(idelphi
DelphiIntegerValue
p6247
(dp6248
g77
S'1'
sbsg581
(i__main__
DelphiIdentAccess
p6249
(dp6250
g529
S'plants'
p6251
sg531
(lp6252
(idelphi
DelphiFieldEndAccess
p6253
(dp6254
g562
S'count'
p6255
sbasbsbsg589
g590
sg37
(idelphi
DelphiIntegerValue
p6256
(dp6257
g77
S'0'
sbsg593
(idelphi
DelphiCompoundStatement
p6258
(dp6259
g522
(lp6260
(i__main__
DelphiAssignStatement
p6261
(dp6262
g526
(i__main__
DelphiIdentAccess
p6263
(dp6264
g529
S'PdPlant'
p6265
sg531
(lp6266
(idelphi
DelphiFunctionEndAccess
p6267
(dp6268
g535
(lp6269
(i__main__
DelphiIdentAccess
p6270
(dp6271
g529
S'plants'
p6272
sg531
(lp6273
(idelphi
DelphiFieldEndAccess
p6274
(dp6275
g562
S'items'
p6276
sba(idelphi
DelphiArrayEndAccess
p6277
(dp6278
g535
(lp6279
(i__main__
DelphiIdentAccess
p6280
(dp6281
g529
S'plantIndex'
p6282
sg531
(lp6283
sbasbasbasbasbsg545
(i__main__
DelphiIdentAccess
p6284
(dp6285
g529
S'plant'
p6286
sg531
(lp6287
sbsba(i__main__
DelphiAssignStatement
p6288
(dp6289
g526
(i__main__
DelphiIdentAccess
p6290
(dp6291
g529
S'false'
p6292
sg531
(lp6293
sbsg545
(i__main__
DelphiIdentAccess
p6294
(dp6295
g529
S'includePlant'
p6296
sg531
(lp6297
sbsba(i__main__
DelphiAssignStatement
p6298
(dp6299
g526
(i__main__
DelphiIdentAccess
p6300
(dp6301
g529
S'IntersectRect'
p6302
sg531
(lp6303
(idelphi
DelphiFunctionEndAccess
p6304
(dp6305
g535
(lp6306
(i__main__
DelphiIdentAccess
p6307
(dp6308
g529
S'intersection'
p6309
sg531
(lp6310
sba(i__main__
DelphiIdentAccess
p6311
(dp6312
g529
S'plant'
p6313
sg531
(lp6314
(idelphi
DelphiFieldEndAccess
p6315
(dp6316
g562
S'boundsRect_pixels'
p6317
sbasba(i__main__
DelphiIdentAccess
p6318
(dp6319
g529
S'aRect'
p6320
sg531
(lp6321
sbasbasbsg545
(i__main__
DelphiIdentAccess
p6322
(dp6323
g529
S'intersectResult'
p6324
sg531
(lp6325
sbsba(i__main__
DelphiAssignStatement
p6326
(dp6327
g526
(idelphi
DelphiAddOp
p6328
(dp6329
g577
g2220
sg578
(i__main__
DelphiIdentAccess
p6330
(dp6331
g529
S'intersectResult'
p6332
sg531
(lp6333
sbsg581
(i__main__
DelphiIdentAccess
p6334
(dp6335
g529
S'includePlant'
p6336
sg531
(lp6337
sbsbsg545
(i__main__
DelphiIdentAccess
p6338
(dp6339
g529
S'includePlant'
p6340
sg531
(lp6341
sbsba(i__main__
DelphiAssignStatement
p6342
(dp6343
g526
(idelphi
DelphiMulOp
p6344
(dp6345
g644
(idelphi
DelphiNot
p6346
(dp6347
g647
(i__main__
DelphiIdentAccess
p6348
(dp6349
g529
S'plant'
p6350
sg531
(lp6351
(idelphi
DelphiFieldEndAccess
p6352
(dp6353
g562
S'hidden'
p6354
sbasbsbsg655
g656
sg657
(i__main__
DelphiIdentAccess
p6355
(dp6356
g529
S'includePlant'
p6357
sg531
(lp6358
sbsbsg545
(i__main__
DelphiIdentAccess
p6359
(dp6360
g529
S'includePlant'
p6361
sg531
(lp6362
sbsba(idelphi
DelphiIfStatement
p6363
(dp6364
g552
(i__main__
DelphiIdentAccess
p6365
(dp6366
g529
S'includePlant'
p6367
sg531
(lp6368
sbsg568
Nsg569
(i__main__
DelphiAssignStatement
p6369
(dp6370
g526
Nsg545
(i__main__
DelphiIdentAccess
p6371
(dp6372
g529
S'aList'
p6373
sg531
(lp6374
(idelphi
DelphiFieldEndAccess
p6375
(dp6376
g562
S'add'
p6377
sba(idelphi
DelphiFunctionEndAccess
p6378
(dp6379
g535
(lp6380
(i__main__
DelphiIdentAccess
p6381
(dp6382
g529
S'plant'
p6383
sg531
(lp6384
sbasbasbsbsbasbsbsbasbsg737
(lp6385
(i__main__
DelphiVarSection
p6386
(dp6387
g741
I0
sg742
(lp6388
(idelphi
DelphiVarDecl
p6389
(dp6390
g746
Nsg747
(lp6391
S'plantIndex'
p6392
asg41
(i__main__
DelphiPrimitiveType
p6393
(dp6394
g44
g80
sbsba(idelphi
DelphiVarDecl
p6395
(dp6396
g746
Nsg747
(lp6397
S'plant'
p6398
asg41
(i__main__
DelphiNamedType
p6399
(dp6400
g44
S'PdPlant'
p6401
sg46
g1
sg47
Nsbsba(idelphi
DelphiVarDecl
p6402
(dp6403
g746
Nsg747
(lp6404
S'intersection'
p6405
asg41
(i__main__
DelphiNamedType
p6406
(dp6407
g44
S'TRect'
p6408
sg46
g1
sg47
Nsbsba(idelphi
DelphiVarDecl
p6409
(dp6410
g746
Nsg747
(lp6411
S'intersectResult'
p6412
asg41
(i__main__
DelphiNamedType
p6413
(dp6414
g44
S'longbool'
p6415
sg46
g1
sg47
Nsbsba(idelphi
DelphiVarDecl
p6416
(dp6417
g746
Nsg747
(lp6418
S'includePlant'
p6419
asg41
(i__main__
DelphiPrimitiveType
p6420
(dp6421
g44
g56
sbsbasbasbsbsS'drawoninvalidrect'
p6422
(i__main__
DelphiMethodImplementation
p6423
(dp6424
g485
g368
sg25
g370
sg33
(lp6425
(i__main__
DelphiFormalParameter
p6426
(dp6427
g37
Nsg38
(lp6428
S'destCanvas'
p6429
asg41
(i__main__
DelphiNamedType
p6430
(dp6431
g44
S'TCanvas'
p6432
sg46
g1
sg47
Nsbsg48
Nsba(i__main__
DelphiFormalParameter
p6433
(dp6434
g37
Nsg38
(lp6435
S'selectedPlants'
p6436
asg41
(i__main__
DelphiNamedType
p6437
(dp6438
g44
S'TList'
p6439
sg46
g1
sg47
Nsbsg48
Nsba(i__main__
DelphiFormalParameter
p6440
(dp6441
g37
Nsg38
(lp6442
S'invalidRect'
p6443
asg41
(i__main__
DelphiNamedType
p6444
(dp6445
g44
S'TRect'
p6446
sg46
g1
sg47
Nsbsg48
Nsba(i__main__
DelphiFormalParameter
p6447
(dp6448
g37
Nsg38
(lp6449
S'excludeInvisiblePlants'
p6450
aS'excludeNonSelectedPlants'
p6451
asg41
(i__main__
DelphiPrimitiveType
p6452
(dp6453
g44
g56
sbsg48
Nsbasg501
(lp6454
sg503
(lp6455
sg505
(lp6456
g507
ag6429
ag6436
ag6443
ag6450
ag6451
asg508
(dp6457
g6450
g6452
sg6429
g6430
sg6436
g6437
sg6443
g6444
sg6451
g6452
ssg57
S'PdPlantManager'
p6458
sg58
Nsg514
(lp6459
sg62
I0
sg63
g96
sg516
(i__main__
DelphiBlock
p6460
(dp6461
g519
(idelphi
DelphiCompoundStatement
p6462
(dp6463
g522
(lp6464
(idelphi
DelphiIfStatement
p6465
(dp6466
g552
(i__main__
DelphiIdentAccess
p6467
(dp6468
g529
S'application'
p6469
sg531
(lp6470
(idelphi
DelphiFieldEndAccess
p6471
(dp6472
g562
S'terminated'
p6473
sbasbsg568
Nsg569
(i__main__
DelphiExitStatement
p6474
(dp6475
g859
g6423
sbsba(i__main__
DelphiAssignStatement
p6476
(dp6477
g526
(idelphi
DelphiIntegerValue
p6478
(dp6479
g77
S'0'
sbsg545
(i__main__
DelphiIdentAccess
p6480
(dp6481
g529
S'partsDrawn'
p6482
sg531
(lp6483
sbsba(idelphi
DelphiIfStatement
p6484
(dp6485
g552
(idelphi
DelphiRelOp
p6486
(dp6487
g555
(i__main__
DelphiIdentAccess
p6488
(dp6489
g529
S'plants'
p6490
sg531
(lp6491
(idelphi
DelphiFieldEndAccess
p6492
(dp6493
g562
S'count'
p6494
sbasbsg564
(idelphi
DelphiIntegerValue
p6495
(dp6496
g77
S'0'
sbsg567
S'>'
sbsg568
Nsg569
(idelphi
DelphiForStatement
p6497
(dp6498
g572
S'plantIndex'
p6499
sg574
(idelphi
DelphiIntegerValue
p6500
(dp6501
g77
S'0'
sbsg589
g4163
sg37
(idelphi
DelphiAddOp
p6502
(dp6503
g577
S'-'
sg578
(idelphi
DelphiIntegerValue
p6504
(dp6505
g77
S'1'
sbsg581
(i__main__
DelphiIdentAccess
p6506
(dp6507
g529
S'plants'
p6508
sg531
(lp6509
(idelphi
DelphiFieldEndAccess
p6510
(dp6511
g562
S'count'
p6512
sbasbsbsg593
(idelphi
DelphiCompoundStatement
p6513
(dp6514
g522
(lp6515
(i__main__
DelphiAssignStatement
p6516
(dp6517
g526
(i__main__
DelphiIdentAccess
p6518
(dp6519
g529
S'PdPlant'
p6520
sg531
(lp6521
(idelphi
DelphiFunctionEndAccess
p6522
(dp6523
g535
(lp6524
(i__main__
DelphiIdentAccess
p6525
(dp6526
g529
S'plants'
p6527
sg531
(lp6528
(idelphi
DelphiFieldEndAccess
p6529
(dp6530
g562
S'items'
p6531
sba(idelphi
DelphiArrayEndAccess
p6532
(dp6533
g535
(lp6534
(i__main__
DelphiIdentAccess
p6535
(dp6536
g529
S'plantIndex'
p6537
sg531
(lp6538
sbasbasbasbasbsg545
(i__main__
DelphiIdentAccess
p6539
(dp6540
g529
S'plant'
p6541
sg531
(lp6542
sbsg81
(lp6543
S' go through list backwards because list order is drawing order is from front to back\r'
p6544
asba(i__main__
DelphiAssignStatement
p6545
(dp6546
g526
(i__main__
DelphiIdentAccess
p6547
(dp6548
g529
S'false'
p6549
sg531
(lp6550
sbsg545
(i__main__
DelphiIdentAccess
p6551
(dp6552
g529
S'includePlant'
p6553
sg531
(lp6554
sbsba(i__main__
DelphiAssignStatement
p6555
(dp6556
g526
(i__main__
DelphiIdentAccess
p6557
(dp6558
g529
S'plant'
p6559
sg531
(lp6560
(idelphi
DelphiFieldEndAccess
p6561
(dp6562
g562
S'boundsRect_pixels'
p6563
sbasbsg545
(i__main__
DelphiIdentAccess
p6564
(dp6565
g529
S'plantRect'
p6566
sg531
(lp6567
sbsba(idelphi
DelphiWithStatement
p6568
(dp6569
g593
(idelphi
DelphiIfStatement
p6570
(dp6571
g552
(idelphi
DelphiMulOp
p6572
(dp6573
g644
(idelphi
DelphiNestedExpressionListAccess
p6574
(dp6575
g531
(lp6576
sg535
(lp6577
(idelphi
DelphiRelOp
p6578
(dp6579
g555
(i__main__
DelphiIdentAccess
p6580
(dp6581
g529
S'bottom'
p6582
sg531
(lp6583
sbsg564
(idelphi
DelphiIntegerValue
p6584
(dp6585
g77
S'0'
sbsg567
S'='
sbasbsg655
g656
sg657
(idelphi
DelphiMulOp
p6586
(dp6587
g644
(idelphi
DelphiNestedExpressionListAccess
p6588
(dp6589
g531
(lp6590
sg535
(lp6591
(idelphi
DelphiRelOp
p6592
(dp6593
g555
(i__main__
DelphiIdentAccess
p6594
(dp6595
g529
S'top'
p6596
sg531
(lp6597
sbsg564
(idelphi
DelphiIntegerValue
p6598
(dp6599
g77
S'0'
sbsg567
S'='
sbasbsg655
g656
sg657
(idelphi
DelphiMulOp
p6600
(dp6601
g644
(idelphi
DelphiNestedExpressionListAccess
p6602
(dp6603
g531
(lp6604
sg535
(lp6605
(idelphi
DelphiRelOp
p6606
(dp6607
g555
(i__main__
DelphiIdentAccess
p6608
(dp6609
g529
S'right'
p6610
sg531
(lp6611
sbsg564
(idelphi
DelphiIntegerValue
p6612
(dp6613
g77
S'0'
sbsg567
S'='
sbasbsg655
g656
sg657
(idelphi
DelphiNestedExpressionListAccess
p6614
(dp6615
g531
(lp6616
sg535
(lp6617
(idelphi
DelphiRelOp
p6618
(dp6619
g555
(i__main__
DelphiIdentAccess
p6620
(dp6621
g529
S'left'
p6622
sg531
(lp6623
sbsg564
(idelphi
DelphiIntegerValue
p6624
(dp6625
g77
S'0'
sbsg567
S'='
sbasbsbsbsbsg568
Nsg569
(i__main__
DelphiAssignStatement
p6626
(dp6627
g526
(i__main__
DelphiIdentAccess
p6628
(dp6629
g529
S'true'
p6630
sg531
(lp6631
sbsg545
(i__main__
DelphiIdentAccess
p6632
(dp6633
g529
S'includePlant'
p6634
sg531
(lp6635
sbsg81
(lp6636
S' if plant has just been read in, recalculate bounds rect by drawing it '
p6637
asbsbsg4298
(lp6638
(i__main__
DelphiIdentAccess
p6639
(dp6640
g529
S'plantRect'
p6641
sg531
(lp6642
sbasba(i__main__
DelphiAssignStatement
p6643
(dp6644
g526
(i__main__
DelphiIdentAccess
p6645
(dp6646
g529
S'IntersectRect'
p6647
sg531
(lp6648
(idelphi
DelphiFunctionEndAccess
p6649
(dp6650
g535
(lp6651
(i__main__
DelphiIdentAccess
p6652
(dp6653
g529
S'intersection'
p6654
sg531
(lp6655
sba(i__main__
DelphiIdentAccess
p6656
(dp6657
g529
S'plantRect'
p6658
sg531
(lp6659
sba(i__main__
DelphiIdentAccess
p6660
(dp6661
g529
S'invalidRect'
p6662
sg531
(lp6663
sbasbasbsg545
(i__main__
DelphiIdentAccess
p6664
(dp6665
g529
S'intersectResult'
p6666
sg531
(lp6667
sbsba(i__main__
DelphiAssignStatement
p6668
(dp6669
g526
(idelphi
DelphiAddOp
p6670
(dp6671
g577
g2220
sg578
(i__main__
DelphiIdentAccess
p6672
(dp6673
g529
S'intersectResult'
p6674
sg531
(lp6675
sbsg581
(i__main__
DelphiIdentAccess
p6676
(dp6677
g529
S'includePlant'
p6678
sg531
(lp6679
sbsbsg545
(i__main__
DelphiIdentAccess
p6680
(dp6681
g529
S'includePlant'
p6682
sg531
(lp6683
sbsba(idelphi
DelphiIfStatement
p6684
(dp6685
g552
(i__main__
DelphiIdentAccess
p6686
(dp6687
g529
S'excludeInvisiblePlants'
p6688
sg531
(lp6689
sbsg568
Nsg569
(i__main__
DelphiAssignStatement
p6690
(dp6691
g526
(idelphi
DelphiMulOp
p6692
(dp6693
g644
(idelphi
DelphiNot
p6694
(dp6695
g647
(i__main__
DelphiIdentAccess
p6696
(dp6697
g529
S'plant'
p6698
sg531
(lp6699
(idelphi
DelphiFieldEndAccess
p6700
(dp6701
g562
S'hidden'
p6702
sbasbsbsg655
g656
sg657
(i__main__
DelphiIdentAccess
p6703
(dp6704
g529
S'includePlant'
p6705
sg531
(lp6706
sbsbsg545
(i__main__
DelphiIdentAccess
p6707
(dp6708
g529
S'includePlant'
p6709
sg531
(lp6710
sbsbsba(idelphi
DelphiIfStatement
p6711
(dp6712
g552
(i__main__
DelphiIdentAccess
p6713
(dp6714
g529
S'excludeNonSelectedPlants'
p6715
sg531
(lp6716
sbsg568
Nsg569
(i__main__
DelphiAssignStatement
p6717
(dp6718
g526
(idelphi
DelphiMulOp
p6719
(dp6720
g644
(idelphi
DelphiNestedExpressionListAccess
p6721
(dp6722
g531
(lp6723
sg535
(lp6724
(idelphi
DelphiRelOp
p6725
(dp6726
g555
(i__main__
DelphiIdentAccess
p6727
(dp6728
g529
S'selectedPlants'
p6729
sg531
(lp6730
(idelphi
DelphiFieldEndAccess
p6731
(dp6732
g562
S'indexOf'
p6733
sba(idelphi
DelphiFunctionEndAccess
p6734
(dp6735
g535
(lp6736
(i__main__
DelphiIdentAccess
p6737
(dp6738
g529
S'plant'
p6739
sg531
(lp6740
sbasbasbsg564
(idelphi
DelphiIntegerValue
p6741
(dp6742
g77
S'0'
sbsg567
g698
sbasbsg655
g656
sg657
(i__main__
DelphiIdentAccess
p6743
(dp6744
g529
S'includePlant'
p6745
sg531
(lp6746
sbsbsg545
(i__main__
DelphiIdentAccess
p6747
(dp6748
g529
S'includePlant'
p6749
sg531
(lp6750
sbsbsba(idelphi
DelphiIfStatement
p6751
(dp6752
g552
(i__main__
DelphiIdentAccess
p6753
(dp6754
g529
S'includePlant'
p6755
sg531
(lp6756
sbsg568
Nsg569
(idelphi
DelphiCompoundStatement
p6757
(dp6758
g522
(lp6759
(i__main__
DelphiAssignStatement
p6760
(dp6761
g526
(i__main__
DelphiIdentAccess
p6762
(dp6763
g529
S'partsDrawn'
p6764
sg531
(lp6765
sbsg545
(i__main__
DelphiIdentAccess
p6766
(dp6767
g529
S'plant'
p6768
sg531
(lp6769
(idelphi
DelphiFieldEndAccess
p6770
(dp6771
g562
S'plantPartsDrawnAtStart'
p6772
sbasbsba(idelphi
DelphiTryFinallyStatement
p6773
(dp6774
g948
(lp6775
(i__main__
DelphiAssignStatement
p6776
(dp6777
g526
(i__main__
DelphiIdentAccess
p6778
(dp6779
g529
S'true'
p6780
sg531
(lp6781
sbsg545
(i__main__
DelphiIdentAccess
p6782
(dp6783
g529
S'plant'
p6784
sg531
(lp6785
(idelphi
DelphiFieldEndAccess
p6786
(dp6787
g562
S'computeBounds'
p6788
sbasbsba(idelphi
DelphiIfStatement
p6789
(dp6790
g552
(idelphi
DelphiMulOp
p6791
(dp6792
g644
(idelphi
DelphiNestedExpressionListAccess
p6793
(dp6794
g531
(lp6795
sg535
(lp6796
(idelphi
DelphiNot
p6797
(dp6798
g647
(i__main__
DelphiIdentAccess
p6799
(dp6800
g529
S'domain'
p6801
sg531
(lp6802
(idelphi
DelphiFieldEndAccess
p6803
(dp6804
g562
S'drawingToMakeCopyBitmap'
p6805
sbasbsbasbsg655
g656
sg657
(idelphi
DelphiNestedExpressionListAccess
p6806
(dp6807
g531
(lp6808
sg535
(lp6809
(i__main__
DelphiIdentAccess
p6810
(dp6811
g529
S'domain'
p6812
sg531
(lp6813
(idelphi
DelphiFieldEndAccess
p6814
(dp6815
g562
S'options'
p6816
sba(idelphi
DelphiFieldEndAccess
p6817
(dp6818
g562
S'cachePlantBitmaps'
p6819
sbasbasbsbsg568
(i__main__
DelphiAssignStatement
p6820
(dp6821
g526
Nsg545
(i__main__
DelphiIdentAccess
p6822
(dp6823
g529
S'plant'
p6824
sg531
(lp6825
(idelphi
DelphiFieldEndAccess
p6826
(dp6827
g562
S'drawOn'
p6828
sba(idelphi
DelphiFunctionEndAccess
p6829
(dp6830
g535
(lp6831
(i__main__
DelphiIdentAccess
p6832
(dp6833
g529
S'destCanvas'
p6834
sg531
(lp6835
sbasbasbsbsg569
(i__main__
DelphiAssignStatement
p6836
(dp6837
g526
Nsg545
(i__main__
DelphiIdentAccess
p6838
(dp6839
g529
S'destCanvas'
p6840
sg531
(lp6841
(idelphi
DelphiFieldEndAccess
p6842
(dp6843
g562
S'draw'
p6844
sba(idelphi
DelphiFunctionEndAccess
p6845
(dp6846
g535
(lp6847
(i__main__
DelphiIdentAccess
p6848
(dp6849
g529
S'plantRect'
p6850
sg531
(lp6851
(idelphi
DelphiFieldEndAccess
p6852
(dp6853
g562
S'left'
p6854
sbasba(i__main__
DelphiIdentAccess
p6855
(dp6856
g529
S'plantRect'
p6857
sg531
(lp6858
(idelphi
DelphiFieldEndAccess
p6859
(dp6860
g562
S'top'
p6861
sbasba(i__main__
DelphiIdentAccess
p6862
(dp6863
g529
S'plant'
p6864
sg531
(lp6865
(idelphi
DelphiFieldEndAccess
p6866
(dp6867
g562
S'previewCache'
p6868
sbasbasbasbsbsbasg1108
(lp6869
(i__main__
DelphiAssignStatement
p6870
(dp6871
g526
(i__main__
DelphiIdentAccess
p6872
(dp6873
g529
S'false'
p6874
sg531
(lp6875
sbsg545
(i__main__
DelphiIdentAccess
p6876
(dp6877
g529
S'plant'
p6878
sg531
(lp6879
(idelphi
DelphiFieldEndAccess
p6880
(dp6881
g562
S'computeBounds'
p6882
sbasbsbasba(i__main__
DelphiAssignStatement
p6883
(dp6884
g526
(idelphi
DelphiAddOp
p6885
(dp6886
g577
S'+'
sg578
(i__main__
DelphiIdentAccess
p6887
(dp6888
g529
S'plant'
p6889
sg531
(lp6890
(idelphi
DelphiFieldEndAccess
p6891
(dp6892
g562
S'totalPlantParts'
p6893
sbasbsg581
(i__main__
DelphiIdentAccess
p6894
(dp6895
g529
S'partsDrawn'
p6896
sg531
(lp6897
sbsbsg545
(i__main__
DelphiIdentAccess
p6898
(dp6899
g529
S'partsDrawn'
p6900
sg531
(lp6901
sbsbasbsbasbsbsbasbsg737
(lp6902
(i__main__
DelphiVarSection
p6903
(dp6904
g741
I0
sg742
(lp6905
(idelphi
DelphiVarDecl
p6906
(dp6907
g746
Nsg747
(lp6908
S'plantIndex'
p6909
asg41
(i__main__
DelphiPrimitiveType
p6910
(dp6911
g44
g80
sbsba(idelphi
DelphiVarDecl
p6912
(dp6913
g746
Nsg747
(lp6914
S'plant'
p6915
asg41
(i__main__
DelphiNamedType
p6916
(dp6917
g44
S'PdPlant'
p6918
sg46
g1
sg47
Nsbsba(idelphi
DelphiVarDecl
p6919
(dp6920
g746
Nsg747
(lp6921
S'intersection'
p6922
aS'plantRect'
p6923
asg41
(i__main__
DelphiNamedType
p6924
(dp6925
g44
S'TRect'
p6926
sg46
g1
sg47
Nsbsba(idelphi
DelphiVarDecl
p6927
(dp6928
g746
Nsg747
(lp6929
S'intersectResult'
p6930
asg41
(i__main__
DelphiNamedType
p6931
(dp6932
g44
S'longbool'
p6933
sg46
g1
sg47
Nsbsba(idelphi
DelphiVarDecl
p6934
(dp6935
g746
Nsg747
(lp6936
S'includePlant'
p6937
asg41
(i__main__
DelphiPrimitiveType
p6938
(dp6939
g44
g56
sbsba(idelphi
DelphiVarDecl
p6940
(dp6941
g746
Nsg747
(lp6942
S'partsDrawn'
p6943
asg41
(i__main__
DelphiPrimitiveType
p6944
(dp6945
g44
g216
sbsbasbasbsg81
(lp6946
S' --------------------------------------------------------------------------------------- drawing '
p6947
asbsS'pastefirstplantfromprivateplantclipboardtoplant'
p6948
(i__main__
DelphiMethodImplementation
p6949
(dp6950
g485
g401
sg25
g403
sg33
(lp6951
(i__main__
DelphiFormalParameter
p6952
(dp6953
g37
Nsg38
(lp6954
S'newPlant'
p6955
asg41
(i__main__
DelphiNamedType
p6956
(dp6957
g44
S'PdPlant'
p6958
sg46
g1
sg47
Nsbsg48
Nsbasg501
(lp6959
sg503
(lp6960
sg505
(lp6961
g507
ag6955
asg508
(dp6962
g6955
g6956
ssg57
S'PdPlantManager'
p6963
sg58
Nsg514
(lp6964
sg62
I0
sg63
g96
sg516
(i__main__
DelphiBlock
p6965
(dp6966
g519
(idelphi
DelphiCompoundStatement
p6967
(dp6968
g522
(lp6969
(idelphi
DelphiIfStatement
p6970
(dp6971
g552
(idelphi
DelphiRelOp
p6972
(dp6973
g555
(i__main__
DelphiIdentAccess
p6974
(dp6975
g529
S'newPlant'
p6976
sg531
(lp6977
sbsg564
(idelphi
DelphiNilValue
p6978
(dp6979
bsg567
S'='
sbsg568
Nsg569
(i__main__
DelphiExitStatement
p6980
(dp6981
g859
g6949
sg81
(lp6982
S' this is used by the breeder and grower windows '
p6983
aS' caller creates newPlant first '
p6984
asbsba(idelphi
DelphiIfStatement
p6985
(dp6986
g552
(idelphi
DelphiRelOp
p6987
(dp6988
g555
(i__main__
DelphiIdentAccess
p6989
(dp6990
g529
S'privatePlantClipboard'
p6991
sg531
(lp6992
(idelphi
DelphiFieldEndAccess
p6993
(dp6994
g562
S'count'
p6995
sbasbsg564
(idelphi
DelphiIntegerValue
p6996
(dp6997
g77
S'0'
sbsg567
S'>'
sbsg568
Nsg569
(idelphi
DelphiCompoundStatement
p6998
(dp6999
g522
(lp7000
(i__main__
DelphiAssignStatement
p7001
(dp7002
g526
(i__main__
DelphiIdentAccess
p7003
(dp7004
g529
S'PdPlant'
p7005
sg531
(lp7006
(idelphi
DelphiFunctionEndAccess
p7007
(dp7008
g535
(lp7009
(i__main__
DelphiIdentAccess
p7010
(dp7011
g529
S'privatePlantClipboard'
p7012
sg531
(lp7013
(idelphi
DelphiFieldEndAccess
p7014
(dp7015
g562
S'items'
p7016
sba(idelphi
DelphiArrayEndAccess
p7017
(dp7018
g535
(lp7019
(idelphi
DelphiIntegerValue
p7020
(dp7021
g77
S'0'
sbasbasbasbasbsg545
(i__main__
DelphiIdentAccess
p7022
(dp7023
g529
S'plant'
p7024
sg531
(lp7025
sbsg81
(lp7026
S' caller takes responsibility of freeing plants '
p7027
asba(i__main__
DelphiAssignStatement
p7028
(dp7029
g526
Nsg545
(i__main__
DelphiIdentAccess
p7030
(dp7031
g529
S'plant'
p7032
sg531
(lp7033
(idelphi
DelphiFieldEndAccess
p7034
(dp7035
g562
S'copyTo'
p7036
sba(idelphi
DelphiFunctionEndAccess
p7037
(dp7038
g535
(lp7039
(i__main__
DelphiIdentAccess
p7040
(dp7041
g529
S'newPlant'
p7042
sg531
(lp7043
sbasbasbsbasbsbasbsg737
(lp7044
(i__main__
DelphiVarSection
p7045
(dp7046
g741
I0
sg742
(lp7047
(idelphi
DelphiVarDecl
p7048
(dp7049
g746
Nsg747
(lp7050
S'plant'
p7051
asg41
(i__main__
DelphiNamedType
p7052
(dp7053
g44
S'PdPlant'
p7054
sg46
g1
sg47
NsbsbasbasbsbsS'visibleplantcount'
p7055
(i__main__
DelphiMethodImplementation
p7056
(dp7057
g485
g413
sg25
g415
sg33
(lp7058
sg501
(lp7059
sg503
(lp7060
sg505
(lp7061
g507
asg508
(dp7062
sg57
S'PdPlantManager'
p7063
sg58
(i__main__
DelphiPrimitiveType
p7064
(dp7065
g44
g155
sbsg514
(lp7066
sg62
I0
sg63
g64
sg516
(i__main__
DelphiBlock
p7067
(dp7068
g519
(idelphi
DelphiCompoundStatement
p7069
(dp7070
g522
(lp7071
(i__main__
DelphiAssignStatement
p7072
(dp7073
g526
(idelphi
DelphiIntegerValue
p7074
(dp7075
g77
S'0'
sbsg545
(i__main__
DelphiIdentAccess
p7076
(dp7077
g529
S'result'
p7078
sg531
(lp7079
sbsba(idelphi
DelphiIfStatement
p7080
(dp7081
g552
(idelphi
DelphiRelOp
p7082
(dp7083
g555
(i__main__
DelphiIdentAccess
p7084
(dp7085
g529
S'plants'
p7086
sg531
(lp7087
(idelphi
DelphiFieldEndAccess
p7088
(dp7089
g562
S'count'
p7090
sbasbsg564
(idelphi
DelphiIntegerValue
p7091
(dp7092
g77
S'0'
sbsg567
S'>'
sbsg568
Nsg569
(idelphi
DelphiForStatement
p7093
(dp7094
g572
S'i'
sg574
(idelphi
DelphiAddOp
p7095
(dp7096
g577
S'-'
sg578
(idelphi
DelphiIntegerValue
p7097
(dp7098
g77
S'1'
sbsg581
(i__main__
DelphiIdentAccess
p7099
(dp7100
g529
S'plants'
p7101
sg531
(lp7102
(idelphi
DelphiFieldEndAccess
p7103
(dp7104
g562
S'count'
p7105
sbasbsbsg589
g590
sg37
(idelphi
DelphiIntegerValue
p7106
(dp7107
g77
S'0'
sbsg593
(idelphi
DelphiIfStatement
p7108
(dp7109
g552
(idelphi
DelphiNot
p7110
(dp7111
g647
(i__main__
DelphiIdentAccess
p7112
(dp7113
g529
S'PdPlant'
p7114
sg531
(lp7115
(idelphi
DelphiFunctionEndAccess
p7116
(dp7117
g535
(lp7118
(i__main__
DelphiIdentAccess
p7119
(dp7120
g529
S'plants'
p7121
sg531
(lp7122
(idelphi
DelphiFieldEndAccess
p7123
(dp7124
g562
S'items'
p7125
sba(idelphi
DelphiArrayEndAccess
p7126
(dp7127
g535
(lp7128
(i__main__
DelphiIdentAccess
p7129
(dp7130
g529
S'i'
sg531
(lp7131
sbasbasbasba(idelphi
DelphiFieldEndAccess
p7132
(dp7133
g562
S'hidden'
p7134
sbasbsbsg568
Nsg569
(i__main__
DelphiIncOrDecStatement
p7135
(dp7136
g1462
g1463
sg1464
Nsg545
(i__main__
DelphiIdentAccess
p7137
(dp7138
g529
S'result'
p7139
sg531
(lp7140
sbsbsbsbsbasbsg737
(lp7141
(i__main__
DelphiVarSection
p7142
(dp7143
g741
I0
sg742
(lp7144
(idelphi
DelphiVarDecl
p7145
(dp7146
g746
Nsg747
(lp7147
S'i'
asg41
(i__main__
DelphiPrimitiveType
p7148
(dp7149
g44
g155
sbsbasbasbsbssS'propertyDeclarations'
p7150
(dp7151
sS'variableNamesInDeclaredOrder'
p7152
(lp7153
g10
ag20
ag24
ag14
ag22
ag18
ag12
ag16
asba(i__main__
DelphiProceduralImplementation
p7154
(dp7155
g485
(i__main__
DelphiProceduralDeclaration
p7156
(dp7157
g33
(lp7158
(i__main__
DelphiFormalParameter
p7159
(dp7160
g37
Nsg38
(lp7161
S'aLine'
p7162
asg41
(i__main__
DelphiPrimitiveType
p7163
(dp7164
g44
g77
sbsg48
Nsbasg25
S'checkVersionNumberInPlantNameLine'
p7165
sg58
Nsbsg25
g7165
sg58
Nsg501
(lp7166
sg503
(lp7167
sg505
(lp7168
S'aLine'
p7169
asg508
(dp7170
g7169
(i__main__
DelphiPrimitiveType
p7171
(dp7172
g44
g77
sbssg33
(lp7173
(i__main__
DelphiFormalParameter
p7174
(dp7175
g37
Nsg38
(lp7176
g7169
asg41
g7171
sg48
Nsbasg514
(lp7177
sg516
(i__main__
DelphiBlock
p7178
(dp7179
g519
(idelphi
DelphiCompoundStatement
p7180
(dp7181
g522
(lp7182
(i__main__
DelphiAssignStatement
p7183
(dp7184
g526
(i__main__
DelphiIdentAccess
p7185
(dp7186
g529
S'stringBetween'
p7187
sg531
(lp7188
(idelphi
DelphiFunctionEndAccess
p7189
(dp7190
g535
(lp7191
(idelphi
DelphiStringAccess
p7192
(dp7193
g531
(lp7194
sg77
(idelphi
DelphiStringValue
p7195
(dp7196
g77
S'['
sbsba(idelphi
DelphiStringAccess
p7197
(dp7198
g531
(lp7199
sg77
(idelphi
DelphiStringValue
p7200
(dp7201
g77
S']'
sbsba(i__main__
DelphiIdentAccess
p7202
(dp7203
g529
S'aLine'
p7204
sg531
(lp7205
sbasbasbsg545
(i__main__
DelphiIdentAccess
p7206
(dp7207
g529
S'plantName'
p7208
sg531
(lp7209
sbsg81
(lp7210
S' assumes line given is plant start line\r'
p7211
aS' e.g., >>> [rose] start PlantStudio plant <v1.0>\r'
p7212
asba(i__main__
DelphiAssignStatement
p7213
(dp7214
g526
(i__main__
DelphiIdentAccess
p7215
(dp7216
g529
S'stringBetween'
p7217
sg531
(lp7218
(idelphi
DelphiFunctionEndAccess
p7219
(dp7220
g535
(lp7221
(idelphi
DelphiStringAccess
p7222
(dp7223
g531
(lp7224
sg77
(idelphi
DelphiStringValue
p7225
(dp7226
g77
S'<'
sbsba(idelphi
DelphiStringAccess
p7227
(dp7228
g531
(lp7229
sg77
(idelphi
DelphiStringValue
p7230
(dp7231
g77
S'>'
sbsba(i__main__
DelphiIdentAccess
p7232
(dp7233
g529
S'aLine'
p7234
sg531
(lp7235
sbasbasbsg545
(i__main__
DelphiIdentAccess
p7236
(dp7237
g529
S'versionNumberString'
p7238
sg531
(lp7239
sbsba(i__main__
DelphiAssignStatement
p7240
(dp7241
g526
(i__main__
DelphiIdentAccess
p7242
(dp7243
g529
S'stringBetween'
p7244
sg531
(lp7245
(idelphi
DelphiFunctionEndAccess
p7246
(dp7247
g535
(lp7248
(idelphi
DelphiStringAccess
p7249
(dp7250
g531
(lp7251
sg77
(idelphi
DelphiStringValue
p7252
(dp7253
g77
S'v'
sbsba(idelphi
DelphiStringAccess
p7254
(dp7255
g531
(lp7256
sg77
(idelphi
DelphiStringValue
p7257
(dp7258
g77
S'.'
sbsba(i__main__
DelphiIdentAccess
p7259
(dp7260
g529
S'versionNumberString'
p7261
sg531
(lp7262
sbasbasbsg545
(i__main__
DelphiIdentAccess
p7263
(dp7264
g529
S'versionNumberString'
p7265
sg531
(lp7266
sbsba(i__main__
DelphiAssignStatement
p7267
(dp7268
g526
(i__main__
DelphiIdentAccess
p7269
(dp7270
g529
S'strToIntDef'
p7271
sg531
(lp7272
(idelphi
DelphiFunctionEndAccess
p7273
(dp7274
g535
(lp7275
(i__main__
DelphiIdentAccess
p7276
(dp7277
g529
S'versionNumberString'
p7278
sg531
(lp7279
sba(idelphi
DelphiIntegerValue
p7280
(dp7281
g77
S'0'
sbasbasbsg545
(i__main__
DelphiIdentAccess
p7282
(dp7283
g529
S'versionNumber'
p7284
sg531
(lp7285
sbsba(idelphi
DelphiIfStatement
p7286
(dp7287
g552
(idelphi
DelphiRelOp
p7288
(dp7289
g555
(i__main__
DelphiIdentAccess
p7290
(dp7291
g529
S'versionNumber'
p7292
sg531
(lp7293
sbsg564
(idelphi
DelphiIntegerValue
p7294
(dp7295
g77
S'2'
sbsg567
S'>'
sbsg568
Nsg569
(idelphi
DelphiCompoundStatement
p7296
(dp7297
g522
(lp7298
(i__main__
DelphiAssignStatement
p7299
(dp7300
g526
Nsg545
(i__main__
DelphiIdentAccess
p7301
(dp7302
g529
S'showMessage'
p7303
sg531
(lp7304
(idelphi
DelphiFunctionEndAccess
p7305
(dp7306
g535
(lp7307
(idelphi
DelphiAddOp
p7308
(dp7309
g577
S'+'
sg578
(idelphi
DelphiStringAccess
p7310
(dp7311
g531
(lp7312
sg77
(idelphi
DelphiStringValue
p7313
(dp7314
g77
S'which you can get at the PlantStudio web site.'
p7315
sbsbsg581
(idelphi
DelphiAddOp
p7316
(dp7317
g577
S'+'
sg578
(i__main__
DelphiIdentAccess
p7318
(dp7319
g529
S'chr'
p7320
sg531
(lp7321
(idelphi
DelphiFunctionEndAccess
p7322
(dp7323
g535
(lp7324
(idelphi
DelphiIntegerValue
p7325
(dp7326
g77
S'13'
p7327
sbasbasbsg581
(idelphi
DelphiAddOp
p7328
(dp7329
g577
S'+'
sg578
(idelphi
DelphiStringAccess
p7330
(dp7331
g531
(lp7332
sg77
(idelphi
DelphiStringValue
p7333
(dp7334
g77
S'it will probably look better in the most up-to-date version of PlantStudio,'
p7335
sbsbsg581
(idelphi
DelphiAddOp
p7336
(dp7337
g577
S'+'
sg578
(i__main__
DelphiIdentAccess
p7338
(dp7339
g529
S'chr'
p7340
sg531
(lp7341
(idelphi
DelphiFunctionEndAccess
p7342
(dp7343
g535
(lp7344
(idelphi
DelphiIntegerValue
p7345
(dp7346
g77
S'13'
p7347
sbasbasbsg581
(idelphi
DelphiAddOp
p7348
(dp7349
g577
S'+'
sg578
(idelphi
DelphiStringAccess
p7350
(dp7351
g531
(lp7352
sg77
(idelphi
DelphiStringValue
p7353
(dp7354
g77
S'That means that although I may be able to read the plant,'
p7355
sbsbsg581
(idelphi
DelphiAddOp
p7356
(dp7357
g577
S'+'
sg578
(i__main__
DelphiIdentAccess
p7358
(dp7359
g529
S'chr'
p7360
sg531
(lp7361
(idelphi
DelphiFunctionEndAccess
p7362
(dp7363
g535
(lp7364
(idelphi
DelphiIntegerValue
p7365
(dp7366
g77
S'13'
p7367
sbasbasbsg581
(idelphi
DelphiAddOp
p7368
(dp7369
g577
S'+'
sg578
(i__main__
DelphiIdentAccess
p7370
(dp7371
g529
S'chr'
p7372
sg531
(lp7373
(idelphi
DelphiFunctionEndAccess
p7374
(dp7375
g535
(lp7376
(idelphi
DelphiIntegerValue
p7377
(dp7378
g77
S'13'
p7379
sbasbasbsg581
(idelphi
DelphiAddOp
p7380
(dp7381
g577
S'+'
sg578
(idelphi
DelphiStringAccess
p7382
(dp7383
g531
(lp7384
sg77
(idelphi
DelphiStringValue
p7385
(dp7386
g77
S'which is higher than this major version of PlantStudio (2).'
p7387
sbsbsg581
(idelphi
DelphiAddOp
p7388
(dp7389
g577
S'+'
sg578
(i__main__
DelphiIdentAccess
p7390
(dp7391
g529
S'chr'
p7392
sg531
(lp7393
(idelphi
DelphiFunctionEndAccess
p7394
(dp7395
g535
(lp7396
(idelphi
DelphiIntegerValue
p7397
(dp7398
g77
S'13'
p7399
sbasbasbsg581
(idelphi
DelphiAddOp
p7400
(dp7401
g577
S'+'
sg578
(idelphi
DelphiStringAccess
p7402
(dp7403
g531
(lp7404
sg77
(idelphi
DelphiStringValue
p7405
(dp7406
g77
S','
sbsbsg581
(idelphi
DelphiAddOp
p7407
(dp7408
g577
S'+'
sg578
(i__main__
DelphiIdentAccess
p7409
(dp7410
g529
S'intToStr'
p7411
sg531
(lp7412
(idelphi
DelphiFunctionEndAccess
p7413
(dp7414
g535
(lp7415
(i__main__
DelphiIdentAccess
p7416
(dp7417
g529
S'versionNumber'
p7418
sg531
(lp7419
sbasbasbsg581
(idelphi
DelphiAddOp
p7420
(dp7421
g577
S'+'
sg578
(idelphi
DelphiStringAccess
p7422
(dp7423
g531
(lp7424
sg77
(idelphi
DelphiStringValue
p7425
(dp7426
g77
S'" has a major version number of '
p7427
sbsbsg581
(idelphi
DelphiAddOp
p7428
(dp7429
g577
S'+'
sg578
(i__main__
DelphiIdentAccess
p7430
(dp7431
g529
S'plantName'
p7432
sg531
(lp7433
sbsg581
(idelphi
DelphiStringAccess
p7434
(dp7435
g531
(lp7436
sg77
(idelphi
DelphiStringValue
p7437
(dp7438
g77
S'The plant "'
p7439
sbsbsbsbsbsbsbsbsbsbsbsbsbsbsbasbasbsbasbsbasbsg737
(lp7440
(i__main__
DelphiVarSection
p7441
(dp7442
g741
I0
sg742
(lp7443
(idelphi
DelphiVarDecl
p7444
(dp7445
g746
Nsg747
(lp7446
S'versionNumberString'
p7447
asg41
(i__main__
DelphiPrimitiveType
p7448
(dp7449
g44
g77
sbsba(idelphi
DelphiVarDecl
p7450
(dp7451
g746
Nsg747
(lp7452
S'plantName'
p7453
asg41
(i__main__
DelphiPrimitiveType
p7454
(dp7455
g44
g77
sbsba(idelphi
DelphiVarDecl
p7456
(dp7457
g746
Nsg747
(lp7458
S'versionNumber'
p7459
asg41
(i__main__
DelphiPrimitiveType
p7460
(dp7461
g44
g80
sbsbasbasbsbasS'includedUnits'
p7462
NsS'implementationUses'
p7463
(lp7464
S'SysUtils'
p7465
aS'Dialogs'
p7466
aS'ucursor'
p7467
aS'udomain'
p7468
aS'updcom'
p7469
aS'uturtle'
p7470
aS'u3dexport'
p7471
aS'umain'
p7472
aS'usplash'
p7473
aS'utdo'
p7474
aS'udebug'
p7475
asg25
S'Uplantmn'
p7476
sS'constSections'
p7477
(lp7478
sS'globalsInProperCase'
p7479
NsS'interfaceUses'
p7480
(lp7481
S'delphi_compatability'
p7482
aS'Windows'
p7483
aS'Classes'
p7484
aS'Graphics'
p7485
aS'Forms'
p7486
aS'ucollect'
p7487
aS'uplant'
p7488
aS'usupport'
p7489
asS'finalCommentToken'
p7490
(i__main__
PassStatement
p7491
(dp7492
g737
(lp7493
sbsS'varSections'
p7494
(lp7495
sS'globals'
p7496
NsS'originalFileName'
p7497
S'../../PlantStudioInPython/converted_source/uplantmn.pas'
p7498
sS'proceduralImplementations'
p7499
(dp7500
S'checkversionnumberinplantnameline'
p7501
g7154
ssS'fileName'
p7502
S'/Users/pdf/Documents/workspace/PlantStudioInPython/converted_source/uplantmn.pas'
p7503
sS'proceduralDeclarations'
p7504
(dp7505
S'checkversionnumberinplantnameline'
p7506
g7156
ssS'types'
p7507
(dp7508
S'pdplantmanager'
p7509
g5
ssb.