(i__main__
DelphiUnit
p1
(dp2
S'sectionsInOrderDefined'
p3
(lp4
(i__main__
DelphiConstSection
p5
(dp6
S'constDeclList'
p7
(lp8
(idelphi
DelphiConstDeclaration
p9
(dp10
S'constExpression'
p11
(idelphi
DelphiIntegerValue
p12
(dp13
S'string'
p14
S'1'
sbsS'ident'
p15
S'kItemValueText'
p16
sS'theType'
p17
(idelphi
DelphiPrimitiveType
p18
(dp19
S'typeName'
p20
S'UNDEFINED_NEEDS_CALCULATION'
p21
sbsba(idelphi
DelphiConstDeclaration
p22
(dp23
g11
(idelphi
DelphiIntegerValue
p24
(dp25
g14
S'2'
sbsg15
S'kItemSlider'
p26
sg17
(idelphi
DelphiPrimitiveType
p27
(dp28
g20
g21
sbsbasS'atTopLevel'
p29
I1
sba(i__main__
DelphiClass
p30
(dp31
S'variableNamesInProperCase'
p32
(dp33
S'drawwithoutbounds'
p34
S'drawWithoutBounds'
p35
sS'currentvaluewhilesliding'
p36
S'currentValueWhileSliding'
p37
sS'currentvalue'
p38
S'currentValue'
p39
sS'unittextrect'
p40
S'unitTextRect'
p41
sS'maxvalue'
p42
S'maxValue'
p43
sS'minvalue'
p44
S'minValue'
p45
sS'slider'
p46
S'slider'
p47
sS'mintextrect'
p48
S'minTextRect'
p49
sS'valuetextrect'
p50
S'valueTextRect'
p51
sS'maxtextrect'
p52
S'maxTextRect'
p53
sS'unitindex'
p54
S'unitIndex'
p55
ssS'name'
p56
S'PdSmallintParameterPanel'
p57
sS'methodDeclarations'
p58
(dp59
S'maxselecteditemindex'
p60
(i__main__
DelphiMethodDeclaration
p61
(dp62
g56
S'maxSelectedItemIndex'
p63
sS'formalParameters'
p64
(lp65
sS'className'
p66
g57
sS'resultType'
p67
(i__main__
DelphiPrimitiveType
p68
(dp69
g20
S'integer'
p70
sbsS'isClassMethod'
p71
I0
sS'methodType'
p72
S'function'
p73
sbsS'updateenabling'
p74
(i__main__
DelphiMethodDeclaration
p75
(dp76
g56
S'updateEnabling'
p77
sg64
(lp78
sg66
g57
sg67
Nsg71
I0
sg72
S'procedure'
p79
sbsS'sliderkeydown'
p80
(i__main__
DelphiMethodDeclaration
p81
(dp82
g56
S'sliderKeyDown'
p83
sg64
(lp84
(i__main__
DelphiFormalParameter
p85
(dp86
S'initialValue'
p87
NsS'names'
p88
(lp89
S'sender'
p90
asg17
(i__main__
DelphiNamedType
p91
(dp92
g20
S'TOBject'
p93
sS'unitDefinedIn'
p94
g1
sS'unitName'
p95
NsbsS'parameterVariety'
p96
Nsbasg66
g57
sg67
Nsg71
I0
sg72
g79
sbsS'maxwidth'
p97
(i__main__
DelphiMethodDeclaration
p98
(dp99
g56
S'maxWidth'
p100
sg64
(lp101
sg66
g57
sg67
(i__main__
DelphiPrimitiveType
p102
(dp103
g20
g70
sbsg71
I0
sg72
g73
sbsS'updatecurrentvalue'
p104
(i__main__
DelphiMethodDeclaration
p105
(dp106
g56
S'updateCurrentValue'
p107
sg64
(lp108
(i__main__
DelphiFormalParameter
p109
(dp110
g87
Nsg88
(lp111
S'aFieldIndex'
p112
asg17
(i__main__
DelphiPrimitiveType
p113
(dp114
g20
g70
sbsg96
Nsbasg66
g57
sg67
Nsg71
I0
sg72
g79
sbsS'domouseup'
p115
(i__main__
DelphiMethodDeclaration
p116
(dp117
g56
S'doMouseUp'
p118
sg64
(lp119
(i__main__
DelphiFormalParameter
p120
(dp121
g87
Nsg88
(lp122
S'Sender'
p123
asg17
(i__main__
DelphiNamedType
p124
(dp125
g20
S'TObject'
p126
sg94
g1
sg95
Nsbsg96
Nsba(i__main__
DelphiFormalParameter
p127
(dp128
g87
Nsg88
(lp129
S'Button'
p130
asg17
(i__main__
DelphiNamedType
p131
(dp132
g20
S'TMouseButton'
p133
sg94
g1
sg95
Nsbsg96
Nsba(i__main__
DelphiFormalParameter
p134
(dp135
g87
Nsg88
(lp136
S'Shift'
p137
asg17
(i__main__
DelphiNamedType
p138
(dp139
g20
S'TShiftState'
p140
sg94
g1
sg95
Nsbsg96
Nsba(i__main__
DelphiFormalParameter
p141
(dp142
g87
Nsg88
(lp143
S'X'
aS'Y'
asg17
(i__main__
DelphiPrimitiveType
p144
(dp145
g20
g70
sbsg96
Nsbasg66
g57
sg67
Nsg71
I0
sg72
g79
sbsS'minscalewidthwithoutbounds'
p146
(i__main__
DelphiMethodDeclaration
p147
(dp148
g56
S'minScaleWidthWithoutBounds'
p149
sg64
(lp150
sg66
g57
sg67
(i__main__
DelphiPrimitiveType
p151
(dp152
g20
g70
sbsg71
I0
sg72
g73
sbsS'uncollapsedheight'
p153
(i__main__
DelphiMethodDeclaration
p154
(dp155
g56
S'uncollapsedHeight'
p156
sg64
(lp157
sg66
g57
sg67
(i__main__
DelphiPrimitiveType
p158
(dp159
g20
g70
sbsg71
I0
sg72
g73
sbsS'dokeydown'
p160
(i__main__
DelphiMethodDeclaration
p161
(dp162
g56
S'doKeyDown'
p163
sg64
(lp164
(i__main__
DelphiFormalParameter
p165
(dp166
g87
Nsg88
(lp167
S'sender'
p168
asg17
(i__main__
DelphiNamedType
p169
(dp170
g20
S'TObject'
p171
sg94
g1
sg95
Nsbsg96
Nsba(i__main__
DelphiFormalParameter
p172
(dp173
g87
Nsg88
(lp174
S'key'
p175
asg17
(i__main__
DelphiPrimitiveType
p176
(dp177
g20
S'word'
p178
sbsg96
S'var'
p179
sba(i__main__
DelphiFormalParameter
p180
(dp181
g87
Nsg88
(lp182
S'shift'
p183
asg17
(i__main__
DelphiNamedType
p184
(dp185
g20
S'TShiftState'
p186
sg94
g1
sg95
Nsbsg96
Nsbasg66
g57
sg67
Nsg71
I0
sg72
g79
sbsS'updatedisplay'
p187
(i__main__
DelphiMethodDeclaration
p188
(dp189
g56
S'updateDisplay'
p190
sg64
(lp191
sg66
g57
sg67
Nsg71
I0
sg72
g79
sbsS'slidermousedown'
p192
(i__main__
DelphiMethodDeclaration
p193
(dp194
g56
S'sliderMouseDown'
p195
sg64
(lp196
(i__main__
DelphiFormalParameter
p197
(dp198
g87
Nsg88
(lp199
S'Sender'
p200
asg17
(i__main__
DelphiNamedType
p201
(dp202
g20
S'TObject'
p203
sg94
g1
sg95
Nsbsg96
Nsbasg66
g57
sg67
Nsg71
I0
sg72
g79
sbsS'minwidth'
p204
(i__main__
DelphiMethodDeclaration
p205
(dp206
g56
S'minWidth'
p207
sg64
(lp208
(i__main__
DelphiFormalParameter
p209
(dp210
g87
Nsg88
(lp211
S'requestedWidth'
p212
asg17
(i__main__
DelphiPrimitiveType
p213
(dp214
g20
g70
sbsg96
Nsbasg66
g57
sg67
(i__main__
DelphiPrimitiveType
p215
(dp216
g20
g70
sbsg71
I0
sg72
g73
sbsS'paint'
p217
(i__main__
DelphiMethodDeclaration
p218
(dp219
g56
S'paint'
p220
sg64
(lp221
sg66
g57
sg67
Nsg71
I0
sg72
g79
sbsS'minscalewidthwithbounds'
p222
(i__main__
DelphiMethodDeclaration
p223
(dp224
g56
S'minScaleWidthWithBounds'
p225
sg64
(lp226
sg66
g57
sg67
(i__main__
DelphiPrimitiveType
p227
(dp228
g20
g70
sbsg71
I0
sg72
g73
sbsS'slidermousemove'
p229
(i__main__
DelphiMethodDeclaration
p230
(dp231
g56
S'sliderMouseMove'
p232
sg64
(lp233
(i__main__
DelphiFormalParameter
p234
(dp235
g87
Nsg88
(lp236
S'sender'
p237
asg17
(i__main__
DelphiNamedType
p238
(dp239
g20
S'TObject'
p240
sg94
g1
sg95
Nsbsg96
Nsbasg66
g57
sg67
Nsg71
I0
sg72
g79
sbsS'slidermouseup'
p241
(i__main__
DelphiMethodDeclaration
p242
(dp243
g56
S'sliderMouseUp'
p244
sg64
(lp245
(i__main__
DelphiFormalParameter
p246
(dp247
g87
Nsg88
(lp248
S'Sender'
p249
asg17
(i__main__
DelphiNamedType
p250
(dp251
g20
S'TObject'
p252
sg94
g1
sg95
Nsbsg96
Nsbasg66
g57
sg67
Nsg71
I0
sg72
g79
sbsS'resizeelements'
p253
(i__main__
DelphiMethodDeclaration
p254
(dp255
g56
S'resizeElements'
p256
sg64
(lp257
sg66
g57
sg67
Nsg71
I0
sg72
g79
sbsS'adjustvalue'
p258
(i__main__
DelphiMethodDeclaration
p259
(dp260
g56
S'adjustValue'
p261
sg64
(lp262
sg66
g57
sg67
Nsg71
I0
sg72
g79
sbsS'initialize'
p263
(i__main__
DelphiMethodDeclaration
p264
(dp265
g56
S'initialize'
p266
sg64
(lp267
sg66
g57
sg67
Nsg71
I0
sg72
g79
sbsS'checkvalueagainstbounds'
p268
(i__main__
DelphiMethodDeclaration
p269
(dp270
g56
S'checkValueAgainstBounds'
p271
sg64
(lp272
(i__main__
DelphiFormalParameter
p273
(dp274
g87
Nsg88
(lp275
S'value'
p276
asg17
(i__main__
DelphiPrimitiveType
p277
(dp278
g20
S'smallint'
p279
sbsg96
Nsbasg66
g57
sg67
(i__main__
DelphiPrimitiveType
p280
(dp281
g20
g279
sbsg71
I0
sg72
g73
sbsS'updateplantvalues'
p282
(i__main__
DelphiMethodDeclaration
p283
(dp284
g56
S'updatePlantValues'
p285
sg64
(lp286
sg66
g57
sg67
Nsg71
I0
sg72
g79
sbssS'superclassNamedTypes'
p287
(lp288
(i__main__
DelphiNamedType
p289
(dp290
g20
S'PdParameterPanel'
p291
sg94
g1
sg95
NsbasS'variableNames'
p292
(dp293
S'drawwithoutbounds'
p294
(i__main__
DelphiPrimitiveType
p295
(dp296
g20
S'boolean'
p297
sbsS'currentvaluewhilesliding'
p298
(i__main__
DelphiPrimitiveType
p299
(dp300
g20
g279
sbsS'currentvalue'
p301
g299
sS'unittextrect'
p302
(i__main__
DelphiNamedType
p303
(dp304
g20
S'TRect'
p305
sg94
g1
sg95
NsbsS'maxvalue'
p306
(i__main__
DelphiPrimitiveType
p307
(dp308
g20
g279
sbsS'minvalue'
p309
(i__main__
DelphiPrimitiveType
p310
(dp311
g20
g279
sbsS'slider'
p312
(i__main__
DelphiNamedType
p313
(dp314
g20
S'KfSlider'
p315
sg94
g1
sg95
NsbsS'mintextrect'
p316
g303
sS'valuetextrect'
p317
g303
sS'maxtextrect'
p318
g303
sS'unitindex'
p319
(i__main__
DelphiPrimitiveType
p320
(dp321
g20
g279
sbssS'methodNamesInDefinedOrder'
p322
(lp323
S'initialize'
p324
aS'checkvalueagainstbounds'
p325
aS'domouseup'
p326
aS'dokeydown'
p327
aS'adjustvalue'
p328
aS'updateenabling'
p329
aS'updateplantvalues'
p330
aS'updatecurrentvalue'
p331
aS'updatedisplay'
p332
aS'slidermousedown'
p333
aS'slidermousemove'
p334
aS'slidermouseup'
p335
aS'sliderkeydown'
p336
aS'maxwidth'
p337
aS'minwidth'
p338
aS'minscalewidthwithbounds'
p339
aS'minscalewidthwithoutbounds'
p340
aS'uncollapsedheight'
p341
aS'resizeelements'
p342
aS'maxselecteditemindex'
p343
aS'paint'
p344
asS'methodImplementations'
p345
(dp346
S'checkvalueagainstbounds'
p347
(i__main__
DelphiMethodImplementation
p348
(dp349
S'originalDeclaration'
p350
g269
sg56
g271
sg64
(lp351
(i__main__
DelphiFormalParameter
p352
(dp353
g87
Nsg88
(lp354
S'value'
p355
asg17
(i__main__
DelphiPrimitiveType
p356
(dp357
g20
g279
sbsg96
NsbasS'varParamIndexes'
p358
(lp359
sS'varParamsSkipped'
p360
(lp361
sS'argNames'
p362
(lp363
S'self'
p364
ag355
asS'argTypes'
p365
(dp366
g355
g356
ssg66
S'PdSmallintParameterPanel'
p367
sg67
(i__main__
DelphiPrimitiveType
p368
(dp369
g20
g279
sbsS'varParamNames'
p370
(lp371
sg71
I0
sg72
g73
sS'block'
p372
(i__main__
DelphiBlock
p373
(dp374
S'compoundStatement'
p375
(idelphi
DelphiCompoundStatement
p376
(dp377
S'statements'
p378
(lp379
(i__main__
DelphiAssignStatement
p380
(dp381
S'newValueExpression'
p382
(i__main__
DelphiIdentAccess
p383
(dp384
g15
S'value'
p385
sS'endAccessList'
p386
(lp387
sbsS'destinationExpression'
p388
(i__main__
DelphiIdentAccess
p389
(dp390
g15
S'result'
p391
sg386
(lp392
sbsba(idelphi
DelphiIfStatement
p393
(dp394
S'expression'
p395
(idelphi
DelphiRelOp
p396
(dp397
S'simpleExpression1'
p398
(i__main__
DelphiIdentAccess
p399
(dp400
g15
S'result'
p401
sg386
(lp402
sbsS'simpleExpression2'
p403
(i__main__
DelphiIdentAccess
p404
(dp405
g15
S'minValue'
p406
sg386
(lp407
sbsS'relOp'
p408
S'<'
sbsS'ifFalseStatement'
p409
NsS'ifTrueStatement'
p410
(i__main__
DelphiAssignStatement
p411
(dp412
g382
(i__main__
DelphiIdentAccess
p413
(dp414
g15
S'minValue'
p415
sg386
(lp416
sbsg388
(i__main__
DelphiIdentAccess
p417
(dp418
g15
S'result'
p419
sg386
(lp420
sbsbsba(idelphi
DelphiIfStatement
p421
(dp422
g395
(idelphi
DelphiRelOp
p423
(dp424
g398
(i__main__
DelphiIdentAccess
p425
(dp426
g15
S'result'
p427
sg386
(lp428
sbsg403
(i__main__
DelphiIdentAccess
p429
(dp430
g15
S'maxValue'
p431
sg386
(lp432
sbsg408
S'>'
sbsg409
Nsg410
(i__main__
DelphiAssignStatement
p433
(dp434
g382
(i__main__
DelphiIdentAccess
p435
(dp436
g15
S'maxValue'
p437
sg386
(lp438
sbsg388
(i__main__
DelphiIdentAccess
p439
(dp440
g15
S'result'
p441
sg386
(lp442
sbsbsbasbsS'limitedDeclSectionList'
p443
(lp444
sbsbsS'updateenabling'
p445
(i__main__
DelphiMethodImplementation
p446
(dp447
g350
g75
sg56
g77
sg64
(lp448
sg358
(lp449
sg360
(lp450
sg362
(lp451
g364
asg365
(dp452
sg66
S'PdSmallintParameterPanel'
p453
sg67
Nsg370
(lp454
sg71
I0
sg72
g79
sg372
(i__main__
DelphiBlock
p455
(dp456
g375
(idelphi
DelphiCompoundStatement
p457
(dp458
g378
(lp459
(i__main__
DelphiAssignStatement
p460
(dp461
g382
Nsg388
(idelphi
DelphiInheritedCall
p462
(dp463
g15
S'updateEnabling'
p464
sS'expressionList'
p465
Nsbsba(i__main__
DelphiAssignStatement
p466
(dp467
g382
(idelphi
DelphiRelOp
p468
(dp469
g398
(i__main__
DelphiIdentAccess
p470
(dp471
g15
S'plant'
p472
sg386
(lp473
sbsg403
(idelphi
DelphiNilValue
p474
(dp475
bsg408
S'<>'
p476
sbsg388
(i__main__
DelphiIdentAccess
p477
(dp478
g15
S'slider'
p479
sg386
(lp480
(idelphi
DelphiFieldEndAccess
p481
(dp482
S'field'
p483
S'enabled'
p484
sbasbsba(i__main__
DelphiAssignStatement
p485
(dp486
g382
(i__main__
DelphiIdentAccess
p487
(dp488
g15
S'self'
p489
sg386
(lp490
(idelphi
DelphiFieldEndAccess
p491
(dp492
g483
S'readOnly'
p493
sbasbsg388
(i__main__
DelphiIdentAccess
p494
(dp495
g15
S'slider'
p496
sg386
(lp497
(idelphi
DelphiFieldEndAccess
p498
(dp499
g483
S'readOnly'
p500
sbasbsbasbsg443
(lp501
sbsbsS'sliderkeydown'
p502
(i__main__
DelphiMethodImplementation
p503
(dp504
g350
g81
sg56
g83
sg64
(lp505
(i__main__
DelphiFormalParameter
p506
(dp507
g87
Nsg88
(lp508
S'sender'
p509
asg17
(i__main__
DelphiNamedType
p510
(dp511
g20
S'TOBject'
p512
sg94
g1
sg95
Nsbsg96
Nsbasg358
(lp513
sg360
(lp514
sg362
(lp515
g364
ag509
asg365
(dp516
g509
g510
ssg66
S'PdSmallintParameterPanel'
p517
sg67
Nsg370
(lp518
sg71
I0
sg72
g79
sg372
(i__main__
DelphiBlock
p519
(dp520
g375
(idelphi
DelphiCompoundStatement
p521
(dp522
g378
(lp523
(i__main__
DelphiAssignStatement
p524
(dp525
g382
Nsg388
(i__main__
DelphiIdentAccess
p526
(dp527
g15
S'self'
p528
sg386
(lp529
(idelphi
DelphiFieldEndAccess
p530
(dp531
g483
S'sliderMouseUp'
p532
sba(idelphi
DelphiFunctionEndAccess
p533
(dp534
g465
(lp535
(i__main__
DelphiIdentAccess
p536
(dp537
g15
S'sender'
p538
sg386
(lp539
sbasbasbsbasbsg443
(lp540
sbsbsS'maxwidth'
p541
(i__main__
DelphiMethodImplementation
p542
(dp543
g350
g98
sg56
g100
sg64
(lp544
sg358
(lp545
sg360
(lp546
sg362
(lp547
g364
asg365
(dp548
sg66
S'PdSmallintParameterPanel'
p549
sg67
(i__main__
DelphiPrimitiveType
p550
(dp551
g20
g70
sbsg370
(lp552
sg71
I0
sg72
g73
sg372
(i__main__
DelphiBlock
p553
(dp554
g375
(idelphi
DelphiCompoundStatement
p555
(dp556
g378
(lp557
(i__main__
DelphiAssignStatement
p558
(dp559
g382
(idelphi
DelphiAddOp
p560
(dp561
S'addOp'
p562
S'+'
sS'term2'
p563
(i__main__
DelphiIdentAccess
p564
(dp565
g15
S'intMax'
p566
sg386
(lp567
(idelphi
DelphiFunctionEndAccess
p568
(dp569
g465
(lp570
(i__main__
DelphiIdentAccess
p571
(dp572
g15
S'self'
p573
sg386
(lp574
(idelphi
DelphiFieldEndAccess
p575
(dp576
g483
S'labelWidth'
p577
sbasba(i__main__
DelphiIdentAccess
p578
(dp579
g15
S'minScaleWidthWithBounds'
p580
sg386
(lp581
sbasbasbsS'term1'
p582
(idelphi
DelphiMulOp
p583
(dp584
S'signedFactor2'
p585
(idelphi
DelphiIntegerValue
p586
(dp587
g14
S'2'
sbsS'mulOp'
p588
S'*'
sS'signedFactor1'
p589
(i__main__
DelphiIdentAccess
p590
(dp591
g15
S'kLeftRightGap'
p592
sg386
(lp593
sbsbsbsg388
(i__main__
DelphiIdentAccess
p594
(dp595
g15
S'result'
p596
sg386
(lp597
sbsbasbsg443
(lp598
sbsbsS'updatecurrentvalue'
p599
(i__main__
DelphiMethodImplementation
p600
(dp601
g350
g105
sg56
g107
sg64
(lp602
(i__main__
DelphiFormalParameter
p603
(dp604
g87
Nsg88
(lp605
S'aFieldIndex'
p606
asg17
(i__main__
DelphiPrimitiveType
p607
(dp608
g20
g70
sbsg96
Nsbasg358
(lp609
sg360
(lp610
sg362
(lp611
g364
ag606
asg365
(dp612
g606
g607
ssg66
S'PdSmallintParameterPanel'
p613
sg67
Nsg370
(lp614
sg71
I0
sg72
g79
sg372
(i__main__
DelphiBlock
p615
(dp616
g375
(idelphi
DelphiCompoundStatement
p617
(dp618
g378
(lp619
(idelphi
DelphiIfStatement
p620
(dp621
g395
(idelphi
DelphiMulOp
p622
(dp623
g585
(idelphi
DelphiNestedExpressionListAccess
p624
(dp625
g386
(lp626
sg465
(lp627
(idelphi
DelphiRelOp
p628
(dp629
g398
(i__main__
DelphiIdentAccess
p630
(dp631
g15
S'param'
p632
sg386
(lp633
(idelphi
DelphiFieldEndAccess
p634
(dp635
g483
S'fieldType'
p636
sbasbsg403
(i__main__
DelphiIdentAccess
p637
(dp638
g15
S'kFieldSmallint'
p639
sg386
(lp640
sbsg408
S'='
sbasbsg588
S'and'
p641
sg589
(idelphi
DelphiNestedExpressionListAccess
p642
(dp643
g386
(lp644
sg465
(lp645
(idelphi
DelphiRelOp
p646
(dp647
g398
(i__main__
DelphiIdentAccess
p648
(dp649
g15
S'plant'
p650
sg386
(lp651
sbsg403
(idelphi
DelphiNilValue
p652
(dp653
bsg408
g476
sbasbsbsg409
(i__main__
DelphiAssignStatement
p654
(dp655
g382
(idelphi
DelphiIntegerValue
p656
(dp657
g14
S'0'
sbsg388
(i__main__
DelphiIdentAccess
p658
(dp659
g15
S'currentValue'
p660
sg386
(lp661
sbsbsg410
(idelphi
DelphiCompoundStatement
p662
(dp663
g378
(lp664
(i__main__
DelphiAssignStatement
p665
(dp666
g382
Nsg388
(i__main__
DelphiIdentAccess
p667
(dp668
g15
S'plant'
p669
sg386
(lp670
(idelphi
DelphiFieldEndAccess
p671
(dp672
g483
S'transferField'
p673
sba(idelphi
DelphiFunctionEndAccess
p674
(dp675
g465
(lp676
(i__main__
DelphiIdentAccess
p677
(dp678
g15
S'kGetField'
p679
sg386
(lp680
sba(i__main__
DelphiIdentAccess
p681
(dp682
g15
S'currentValue'
p683
sg386
(lp684
sba(i__main__
DelphiIdentAccess
p685
(dp686
g15
S'param'
p687
sg386
(lp688
(idelphi
DelphiFieldEndAccess
p689
(dp690
g483
S'fieldNumber'
p691
sbasba(i__main__
DelphiIdentAccess
p692
(dp693
g15
S'kFieldSmallint'
p694
sg386
(lp695
sba(i__main__
DelphiIdentAccess
p696
(dp697
g15
S'kNotArray'
p698
sg386
(lp699
sba(i__main__
DelphiIdentAccess
p700
(dp701
g15
S'false'
p702
sg386
(lp703
sba(idelphi
DelphiNilValue
p704
(dp705
basbasbsba(idelphi
DelphiIfStatement
p706
(dp707
g395
(idelphi
DelphiRelOp
p708
(dp709
g398
(i__main__
DelphiIdentAccess
p710
(dp711
g15
S'currentValue'
p712
sg386
(lp713
sbsg403
(i__main__
DelphiIdentAccess
p714
(dp715
g15
S'minValue'
p716
sg386
(lp717
sbsg408
S'<'
sbsg409
Nsg410
(idelphi
DelphiCompoundStatement
p718
(dp719
g378
(lp720
(i__main__
DelphiAssignStatement
p721
(dp722
g382
(i__main__
DelphiIdentAccess
p723
(dp724
g15
S'currentValue'
p725
sg386
(lp726
sbsg388
(i__main__
DelphiIdentAccess
p727
(dp728
g15
S'minValue'
p729
sg386
(lp730
sbsba(i__main__
DelphiAssignStatement
p731
(dp732
g382
(i__main__
DelphiIdentAccess
p733
(dp734
g15
S'minValue'
p735
sg386
(lp736
sbsg388
(i__main__
DelphiIdentAccess
p737
(dp738
g15
S'slider'
p739
sg386
(lp740
(idelphi
DelphiFieldEndAccess
p741
(dp742
g483
S'minValue'
p743
sbasbsbasbsba(idelphi
DelphiIfStatement
p744
(dp745
g395
(idelphi
DelphiRelOp
p746
(dp747
g398
(i__main__
DelphiIdentAccess
p748
(dp749
g15
S'currentValue'
p750
sg386
(lp751
sbsg403
(i__main__
DelphiIdentAccess
p752
(dp753
g15
S'maxValue'
p754
sg386
(lp755
sbsg408
S'>'
sbsg409
Nsg410
(idelphi
DelphiCompoundStatement
p756
(dp757
g378
(lp758
(i__main__
DelphiAssignStatement
p759
(dp760
g382
(i__main__
DelphiIdentAccess
p761
(dp762
g15
S'currentValue'
p763
sg386
(lp764
sbsg388
(i__main__
DelphiIdentAccess
p765
(dp766
g15
S'maxValue'
p767
sg386
(lp768
sbsba(i__main__
DelphiAssignStatement
p769
(dp770
g382
(i__main__
DelphiIdentAccess
p771
(dp772
g15
S'maxValue'
p773
sg386
(lp774
sbsg388
(i__main__
DelphiIdentAccess
p775
(dp776
g15
S'slider'
p777
sg386
(lp778
(idelphi
DelphiFieldEndAccess
p779
(dp780
g483
S'maxValue'
p781
sbasbsbasbsbasbsbasbsg443
(lp782
sbsbsS'maxselecteditemindex'
p783
(i__main__
DelphiMethodImplementation
p784
(dp785
g350
g61
sg56
g63
sg64
(lp786
sg358
(lp787
sg360
(lp788
sg362
(lp789
g364
asg365
(dp790
sg66
S'PdSmallintParameterPanel'
p791
sg67
(i__main__
DelphiPrimitiveType
p792
(dp793
g20
g70
sbsg370
(lp794
sg71
I0
sg72
g73
sg372
(i__main__
DelphiBlock
p795
(dp796
g375
(idelphi
DelphiCompoundStatement
p797
(dp798
g378
(lp799
(idelphi
DelphiIfStatement
p800
(dp801
g395
(idelphi
DelphiMulOp
p802
(dp803
g585
(idelphi
DelphiNestedExpressionListAccess
p804
(dp805
g386
(lp806
sg465
(lp807
(i__main__
DelphiIdentAccess
p808
(dp809
g15
S'slider'
p810
sg386
(lp811
(idelphi
DelphiFieldEndAccess
p812
(dp813
g483
S'enabled'
p814
sbasbasbsg588
g641
sg589
(idelphi
DelphiNestedExpressionListAccess
p815
(dp816
g386
(lp817
sg465
(lp818
(idelphi
DelphiNot
p819
(dp820
S'factor'
p821
(i__main__
DelphiIdentAccess
p822
(dp823
g15
S'param'
p824
sg386
(lp825
(idelphi
DelphiFieldEndAccess
p826
(dp827
g483
S'collapsed'
p828
sbasbsbasbsbsg409
(i__main__
DelphiAssignStatement
p829
(dp830
g382
(i__main__
DelphiIdentAccess
p831
(dp832
g15
S'kItemLabel'
p833
sg386
(lp834
sbsg388
(i__main__
DelphiIdentAccess
p835
(dp836
g15
S'result'
p837
sg386
(lp838
sbsbsg410
(i__main__
DelphiAssignStatement
p839
(dp840
g382
(i__main__
DelphiIdentAccess
p841
(dp842
g15
S'kItemSlider'
p843
sg386
(lp844
sbsg388
(i__main__
DelphiIdentAccess
p845
(dp846
g15
S'result'
p847
sg386
(lp848
sbsbsbasbsg443
(lp849
sbsbsS'minscalewidthwithoutbounds'
p850
(i__main__
DelphiMethodImplementation
p851
(dp852
g350
g147
sg56
g149
sg64
(lp853
sg358
(lp854
sg360
(lp855
sg362
(lp856
g364
asg365
(dp857
sg66
S'PdSmallintParameterPanel'
p858
sg67
(i__main__
DelphiPrimitiveType
p859
(dp860
g20
g70
sbsg370
(lp861
sg71
I0
sg72
g73
sg372
(i__main__
DelphiBlock
p862
(dp863
g375
(idelphi
DelphiCompoundStatement
p864
(dp865
g378
(lp866
(i__main__
DelphiAssignStatement
p867
(dp868
g382
(idelphi
DelphiAddOp
p869
(dp870
g562
S'+'
sg563
(idelphi
DelphiStringAccess
p871
(dp872
g386
(lp873
sg14
(idelphi
DelphiStringValue
p874
(dp875
g14
S'  '
p876
sbsbsg582
(i__main__
DelphiIdentAccess
p877
(dp878
g15
S'intToStr'
p879
sg386
(lp880
(idelphi
DelphiFunctionEndAccess
p881
(dp882
g465
(lp883
(i__main__
DelphiIdentAccess
p884
(dp885
g15
S'currentValue'
p886
sg386
(lp887
sbasbasbsbsg388
(i__main__
DelphiIdentAccess
p888
(dp889
g15
S'valueString'
p890
sg386
(lp891
sbsba(i__main__
DelphiAssignStatement
p892
(dp893
g382
(i__main__
DelphiIdentAccess
p894
(dp895
g15
S'UnitStringForEnum'
p896
sg386
(lp897
(idelphi
DelphiFunctionEndAccess
p898
(dp899
g465
(lp900
(i__main__
DelphiIdentAccess
p901
(dp902
g15
S'param'
p903
sg386
(lp904
(idelphi
DelphiFieldEndAccess
p905
(dp906
g483
S'unitSet'
p907
sbasba(i__main__
DelphiIdentAccess
p908
(dp909
g15
S'unitIndex'
p910
sg386
(lp911
sbasbasbsg388
(i__main__
DelphiIdentAccess
p912
(dp913
g15
S'unitString'
p914
sg386
(lp915
sbsba(i__main__
DelphiAssignStatement
p916
(dp917
g382
(idelphi
DelphiAddOp
p918
(dp919
g562
S'+'
sg563
(i__main__
DelphiIdentAccess
p920
(dp921
g15
S'kBetweenGap'
p922
sg386
(lp923
sbsg582
(i__main__
DelphiIdentAccess
p924
(dp925
g15
S'self'
p926
sg386
(lp927
(idelphi
DelphiFieldEndAccess
p928
(dp929
g483
S'formTextWidth'
p930
sba(idelphi
DelphiFunctionEndAccess
p931
(dp932
g465
(lp933
(idelphi
DelphiAddOp
p934
(dp935
g562
S'+'
sg563
(i__main__
DelphiIdentAccess
p936
(dp937
g15
S'unitString'
p938
sg386
(lp939
sbsg582
(i__main__
DelphiIdentAccess
p940
(dp941
g15
S'valueString'
p942
sg386
(lp943
sbsbasbasbsbsg388
(i__main__
DelphiIdentAccess
p944
(dp945
g15
S'result'
p946
sg386
(lp947
sbsbasbsg443
(lp948
(i__main__
DelphiVarSection
p949
(dp950
g29
I0
sS'varDeclList'
p951
(lp952
(idelphi
DelphiVarDecl
p953
(dp954
g11
NsS'identList'
p955
(lp956
S'valueString'
p957
aS'unitString'
p958
asg17
(i__main__
DelphiPrimitiveType
p959
(dp960
g20
g14
sbsbasbasbsbsS'uncollapsedheight'
p961
(i__main__
DelphiMethodImplementation
p962
(dp963
g350
g154
sg56
g156
sg64
(lp964
sg358
(lp965
sg360
(lp966
sg362
(lp967
g364
asg365
(dp968
sg66
S'PdSmallintParameterPanel'
p969
sg67
(i__main__
DelphiPrimitiveType
p970
(dp971
g20
g70
sbsg370
(lp972
sg71
I0
sg72
g73
sg372
(i__main__
DelphiBlock
p973
(dp974
g375
(idelphi
DelphiCompoundStatement
p975
(dp976
g378
(lp977
(i__main__
DelphiAssignStatement
p978
(dp979
g382
(idelphi
DelphiAddOp
p980
(dp981
g562
S'+'
sg563
(i__main__
DelphiIdentAccess
p982
(dp983
g15
S'kTopBottomGap'
p984
sg386
(lp985
sbsg582
(idelphi
DelphiAddOp
p986
(dp987
g562
S'+'
sg563
(i__main__
DelphiIdentAccess
p988
(dp989
g15
S'self'
p990
sg386
(lp991
(idelphi
DelphiFieldEndAccess
p992
(dp993
g483
S'textHeight'
p994
sbasbsg582
(i__main__
DelphiIdentAccess
p995
(dp996
g15
S'self'
p997
sg386
(lp998
(idelphi
DelphiFieldEndAccess
p999
(dp1000
g483
S'collapsedHeight'
p1001
sbasbsbsbsg388
(i__main__
DelphiIdentAccess
p1002
(dp1003
g15
S'result'
p1004
sg386
(lp1005
sbsbasbsg443
(lp1006
sbsbsS'dokeydown'
p1007
(i__main__
DelphiMethodImplementation
p1008
(dp1009
g350
g161
sg56
g163
sg64
(lp1010
(i__main__
DelphiFormalParameter
p1011
(dp1012
g87
Nsg88
(lp1013
S'sender'
p1014
asg17
(i__main__
DelphiNamedType
p1015
(dp1016
g20
S'TObject'
p1017
sg94
g1
sg95
Nsbsg96
Nsba(i__main__
DelphiFormalParameter
p1018
(dp1019
g87
Nsg88
(lp1020
S'key'
p1021
asg17
(i__main__
DelphiPrimitiveType
p1022
(dp1023
g20
g178
sbsg96
g179
sba(i__main__
DelphiFormalParameter
p1024
(dp1025
g87
Nsg88
(lp1026
S'shift'
p1027
asg17
(i__main__
DelphiNamedType
p1028
(dp1029
g20
S'TShiftState'
p1030
sg94
g1
sg95
Nsbsg96
Nsbasg358
(lp1031
I1
asg360
(lp1032
sg362
(lp1033
g364
ag1014
ag1021
ag1027
asg365
(dp1034
g1027
g1028
sg1014
g1015
sg1021
g1022
ssg66
S'PdSmallintParameterPanel'
p1035
sg67
Nsg370
(lp1036
g1021
asg71
I0
sg72
g79
sg372
(i__main__
DelphiBlock
p1037
(dp1038
g375
(idelphi
DelphiCompoundStatement
p1039
(dp1040
g378
(lp1041
(idelphi
DelphiIfStatement
p1042
(dp1043
g395
(i__main__
DelphiIdentAccess
p1044
(dp1045
g15
S'slider'
p1046
sg386
(lp1047
(idelphi
DelphiFieldEndAccess
p1048
(dp1049
g483
S'enabled'
p1050
sbasbsg409
Nsg410
(idelphi
DelphiCaseStatement
p1051
(dp1052
S'elseStatement'
p1053
Nsg395
(i__main__
DelphiIdentAccess
p1054
(dp1055
g15
S'key'
p1056
sg386
(lp1057
sbsS'caseSelectorList'
p1058
(lp1059
(idelphi
DelphiCaseSelector
p1060
(dp1061
S'statement'
p1062
(idelphi
DelphiIfStatement
p1063
(dp1064
g395
(idelphi
DelphiNestedExpressionListAccess
p1065
(dp1066
g386
(lp1067
sg465
(lp1068
(idelphi
DelphiRelOp
p1069
(dp1070
g398
(i__main__
DelphiIdentAccess
p1071
(dp1072
g15
S'self'
p1073
sg386
(lp1074
(idelphi
DelphiFieldEndAccess
p1075
(dp1076
g483
S'selectedItemIndex'
p1077
sbasbsg403
(i__main__
DelphiIdentAccess
p1078
(dp1079
g15
S'kItemSlider'
p1080
sg386
(lp1081
sbsg408
S'='
sbasbsg409
Nsg410
(idelphi
DelphiCompoundStatement
p1082
(dp1083
g378
(lp1084
(i__main__
DelphiAssignStatement
p1085
(dp1086
g382
Nsg388
(i__main__
DelphiIdentAccess
p1087
(dp1088
g15
S'slider'
p1089
sg386
(lp1090
(idelphi
DelphiFieldEndAccess
p1091
(dp1092
g483
S'doKeyDown'
p1093
sba(idelphi
DelphiFunctionEndAccess
p1094
(dp1095
g465
(lp1096
(i__main__
DelphiIdentAccess
p1097
(dp1098
g15
S'sender'
p1099
sg386
(lp1100
sba(i__main__
DelphiIdentAccess
p1101
(dp1102
g15
S'key'
p1103
sg386
(lp1104
sba(i__main__
DelphiIdentAccess
p1105
(dp1106
g15
S'shift'
p1107
sg386
(lp1108
sbasbasbsS'commentLinesBefore'
p1109
(lp1110
S' process slider arrow keys first '
p1111
asba(i__main__
DelphiExitStatement
p1112
(dp1113
S'proceduralOrMethodImplementation'
p1114
g1008
sbasbsbsS'caseLabelList'
p1115
(lp1116
(i__main__
DelphiIdentAccess
p1117
(dp1118
g15
S'VK_HOME'
p1119
sg386
(lp1120
sba(i__main__
DelphiIdentAccess
p1121
(dp1122
g15
S'VK_END'
p1123
sg386
(lp1124
sba(i__main__
DelphiIdentAccess
p1125
(dp1126
g15
S'VK_DOWN'
p1127
sg386
(lp1128
sba(i__main__
DelphiIdentAccess
p1129
(dp1130
g15
S'VK_LEFT'
p1131
sg386
(lp1132
sba(i__main__
DelphiIdentAccess
p1133
(dp1134
g15
S'VK_UP'
p1135
sg386
(lp1136
sba(i__main__
DelphiIdentAccess
p1137
(dp1138
g15
S'VK_RIGHT'
p1139
sg386
(lp1140
sba(i__main__
DelphiIdentAccess
p1141
(dp1142
g15
S'VK_NEXT'
p1143
sg386
(lp1144
sba(i__main__
DelphiIdentAccess
p1145
(dp1146
g15
S'VK_PRIOR'
p1147
sg386
(lp1148
sbasbasbsba(idelphi
DelphiIfStatement
p1149
(dp1150
g395
(idelphi
DelphiMulOp
p1151
(dp1152
g585
(idelphi
DelphiNestedExpressionListAccess
p1153
(dp1154
g386
(lp1155
sg465
(lp1156
(idelphi
DelphiRelOp
p1157
(dp1158
g398
(i__main__
DelphiIdentAccess
p1159
(dp1160
g15
S'key'
p1161
sg386
(lp1162
sbsg403
(i__main__
DelphiIdentAccess
p1163
(dp1164
g15
S'VK_RETURN'
p1165
sg386
(lp1166
sbsg408
S'='
sbasbsg588
g641
sg589
(idelphi
DelphiNestedExpressionListAccess
p1167
(dp1168
g386
(lp1169
sg465
(lp1170
(idelphi
DelphiRelOp
p1171
(dp1172
g398
(i__main__
DelphiIdentAccess
p1173
(dp1174
g15
S'self'
p1175
sg386
(lp1176
(idelphi
DelphiFieldEndAccess
p1177
(dp1178
g483
S'selectedItemIndex'
p1179
sbasbsg403
(i__main__
DelphiIdentAccess
p1180
(dp1181
g15
S'kItemValueText'
p1182
sg386
(lp1183
sbsg408
S'='
sbasbsbsg409
Nsg410
(idelphi
DelphiCompoundStatement
p1184
(dp1185
g378
(lp1186
(i__main__
DelphiAssignStatement
p1187
(dp1188
g382
(idelphi
DelphiIntegerValue
p1189
(dp1190
g14
S'0'
sbsg388
(i__main__
DelphiIdentAccess
p1191
(dp1192
g15
S'key'
p1193
sg386
(lp1194
sbsba(i__main__
DelphiAssignStatement
p1195
(dp1196
g382
Nsg388
(i__main__
DelphiIdentAccess
p1197
(dp1198
g15
S'self'
p1199
sg386
(lp1200
(idelphi
DelphiFieldEndAccess
p1201
(dp1202
g483
S'invalidate'
p1203
sbasbsba(i__main__
DelphiAssignStatement
p1204
(dp1205
g382
Nsg388
(i__main__
DelphiIdentAccess
p1206
(dp1207
g15
S'self'
p1208
sg386
(lp1209
(idelphi
DelphiFieldEndAccess
p1210
(dp1211
g483
S'adjustValue'
p1212
sbasbsba(i__main__
DelphiExitStatement
p1213
(dp1214
g1114
g1008
sbasbsba(i__main__
DelphiAssignStatement
p1215
(dp1216
g382
Nsg388
(idelphi
DelphiInheritedCall
p1217
(dp1218
g15
S'doKeyDown'
p1219
sg465
(lp1220
(i__main__
DelphiIdentAccess
p1221
(dp1222
g15
S'sender'
p1223
sg386
(lp1224
sba(i__main__
DelphiIdentAccess
p1225
(dp1226
g15
S'key'
p1227
sg386
(lp1228
sba(i__main__
DelphiIdentAccess
p1229
(dp1230
g15
S'shift'
p1231
sg386
(lp1232
sbasbsba(idelphi
DelphiIfStatement
p1233
(dp1234
g395
(i__main__
DelphiIdentAccess
p1235
(dp1236
g15
S'slider'
p1237
sg386
(lp1238
(idelphi
DelphiFieldEndAccess
p1239
(dp1240
g483
S'enabled'
p1241
sbasbsg409
Nsg410
(idelphi
DelphiIfStatement
p1242
(dp1243
g395
(idelphi
DelphiMulOp
p1244
(dp1245
g585
(idelphi
DelphiNestedExpressionListAccess
p1246
(dp1247
g386
(lp1248
sg465
(lp1249
(idelphi
DelphiRelOp
p1250
(dp1251
g398
(i__main__
DelphiIdentAccess
p1252
(dp1253
g15
S'self'
p1254
sg386
(lp1255
(idelphi
DelphiFieldEndAccess
p1256
(dp1257
g483
S'selectedItemIndex'
p1258
sbasbsg403
(i__main__
DelphiIdentAccess
p1259
(dp1260
g15
S'kItemSlider'
p1261
sg386
(lp1262
sbsg408
S'='
sbasbsg588
g641
sg589
(idelphi
DelphiNestedExpressionListAccess
p1263
(dp1264
g386
(lp1265
sg465
(lp1266
(idelphi
DelphiRelOp
p1267
(dp1268
g398
(i__main__
DelphiIdentAccess
p1269
(dp1270
g15
S'key'
p1271
sg386
(lp1272
sbsg403
(i__main__
DelphiIdentAccess
p1273
(dp1274
g15
S'VK_RETURN'
p1275
sg386
(lp1276
sbsg408
S'='
sbasbsbsg409
Nsg410
(i__main__
DelphiAssignStatement
p1277
(dp1278
g382
Nsg388
(i__main__
DelphiIdentAccess
p1279
(dp1280
g15
S'slider'
p1281
sg386
(lp1282
(idelphi
DelphiFieldEndAccess
p1283
(dp1284
g483
S'doKeyDown'
p1285
sba(idelphi
DelphiFunctionEndAccess
p1286
(dp1287
g465
(lp1288
(i__main__
DelphiIdentAccess
p1289
(dp1290
g15
S'sender'
p1291
sg386
(lp1292
sba(i__main__
DelphiIdentAccess
p1293
(dp1294
g15
S'key'
p1295
sg386
(lp1296
sba(i__main__
DelphiIdentAccess
p1297
(dp1298
g15
S'shift'
p1299
sg386
(lp1300
sbasbasbsbsbsbasbsg443
(lp1301
sbsbsS'updatedisplay'
p1302
(i__main__
DelphiMethodImplementation
p1303
(dp1304
g350
g188
sg56
g190
sg64
(lp1305
sg358
(lp1306
sg360
(lp1307
sg362
(lp1308
g364
asg365
(dp1309
sg66
S'PdSmallintParameterPanel'
p1310
sg67
Nsg370
(lp1311
sg71
I0
sg72
g79
sg372
(i__main__
DelphiBlock
p1312
(dp1313
g375
(idelphi
DelphiCompoundStatement
p1314
(dp1315
g378
(lp1316
(idelphi
DelphiIfStatement
p1317
(dp1318
g395
(idelphi
DelphiMulOp
p1319
(dp1320
g585
(idelphi
DelphiNestedExpressionListAccess
p1321
(dp1322
g386
(lp1323
sg465
(lp1324
(idelphi
DelphiRelOp
p1325
(dp1326
g398
(i__main__
DelphiIdentAccess
p1327
(dp1328
g15
S'param'
p1329
sg386
(lp1330
(idelphi
DelphiFieldEndAccess
p1331
(dp1332
g483
S'fieldType'
p1333
sbasbsg403
(i__main__
DelphiIdentAccess
p1334
(dp1335
g15
S'kFieldSmallint'
p1336
sg386
(lp1337
sbsg408
S'='
sbasbsg588
g641
sg589
(idelphi
DelphiNestedExpressionListAccess
p1338
(dp1339
g386
(lp1340
sg465
(lp1341
(idelphi
DelphiRelOp
p1342
(dp1343
g398
(i__main__
DelphiIdentAccess
p1344
(dp1345
g15
S'plant'
p1346
sg386
(lp1347
sbsg403
(idelphi
DelphiNilValue
p1348
(dp1349
bsg408
g476
sbasbsbsg409
(idelphi
DelphiCompoundStatement
p1350
(dp1351
g378
(lp1352
(i__main__
DelphiAssignStatement
p1353
(dp1354
g382
(idelphi
DelphiIntegerValue
p1355
(dp1356
g14
S'0'
sbsg388
(i__main__
DelphiIdentAccess
p1357
(dp1358
g15
S'slider'
p1359
sg386
(lp1360
(idelphi
DelphiFieldEndAccess
p1361
(dp1362
g483
S'currentValue'
p1363
sbasbsba(i__main__
DelphiAssignStatement
p1364
(dp1365
g382
(i__main__
DelphiIdentAccess
p1366
(dp1367
g15
S'false'
p1368
sg386
(lp1369
sbsg388
(i__main__
DelphiIdentAccess
p1370
(dp1371
g15
S'slider'
p1372
sg386
(lp1373
(idelphi
DelphiFieldEndAccess
p1374
(dp1375
g483
S'enabled'
p1376
sbasbsbasbsg410
(idelphi
DelphiCompoundStatement
p1377
(dp1378
g378
(lp1379
(i__main__
DelphiAssignStatement
p1380
(dp1381
g382
(i__main__
DelphiIdentAccess
p1382
(dp1383
g15
S'currentValue'
p1384
sg386
(lp1385
sbsg388
(i__main__
DelphiIdentAccess
p1386
(dp1387
g15
S'slider'
p1388
sg386
(lp1389
(idelphi
DelphiFieldEndAccess
p1390
(dp1391
g483
S'currentValue'
p1392
sbasbsbasbsbasbsg443
(lp1393
sbsbsS'slidermousedown'
p1394
(i__main__
DelphiMethodImplementation
p1395
(dp1396
g350
g193
sg56
g195
sg64
(lp1397
(i__main__
DelphiFormalParameter
p1398
(dp1399
g87
Nsg88
(lp1400
S'Sender'
p1401
asg17
(i__main__
DelphiNamedType
p1402
(dp1403
g20
S'TObject'
p1404
sg94
g1
sg95
Nsbsg96
Nsbasg358
(lp1405
sg360
(lp1406
sg362
(lp1407
g364
ag1401
asg365
(dp1408
g1401
g1402
ssg66
S'PdSmallintParameterPanel'
p1409
sg67
Nsg370
(lp1410
sg71
I0
sg72
g79
sg372
(i__main__
DelphiBlock
p1411
(dp1412
g375
(idelphi
DelphiCompoundStatement
p1413
(dp1414
g378
(lp1415
(idelphi
DelphiIfStatement
p1416
(dp1417
g395
(idelphi
DelphiRelOp
p1418
(dp1419
g398
(i__main__
DelphiIdentAccess
p1420
(dp1421
g15
S'plant'
p1422
sg386
(lp1423
sbsg403
(idelphi
DelphiNilValue
p1424
(dp1425
bsg408
S'='
sbsg409
Nsg410
(i__main__
DelphiExitStatement
p1426
(dp1427
g1114
g1395
sbsba(i__main__
DelphiAssignStatement
p1428
(dp1429
g382
(i__main__
DelphiIdentAccess
p1430
(dp1431
g15
S'kItemSlider'
p1432
sg386
(lp1433
sbsg388
(i__main__
DelphiIdentAccess
p1434
(dp1435
g15
S'self'
p1436
sg386
(lp1437
(idelphi
DelphiFieldEndAccess
p1438
(dp1439
g483
S'selectedItemIndex'
p1440
sbasbsba(i__main__
DelphiAssignStatement
p1441
(dp1442
g382
(i__main__
DelphiIdentAccess
p1443
(dp1444
g15
S'true'
p1445
sg386
(lp1446
sbsg388
(i__main__
DelphiIdentAccess
p1447
(dp1448
g15
S'slider'
p1449
sg386
(lp1450
(idelphi
DelphiFieldEndAccess
p1451
(dp1452
g483
S'hasUnofficialFocus'
p1453
sbasbsba(i__main__
DelphiAssignStatement
p1454
(dp1455
g382
(i__main__
DelphiIdentAccess
p1456
(dp1457
g15
S'slider'
p1458
sg386
(lp1459
(idelphi
DelphiFieldEndAccess
p1460
(dp1461
g483
S'currentValue'
p1462
sbasbsg388
(i__main__
DelphiIdentAccess
p1463
(dp1464
g15
S'currentValueWhileSliding'
p1465
sg386
(lp1466
sbsba(i__main__
DelphiAssignStatement
p1467
(dp1468
g382
Nsg388
(i__main__
DelphiIdentAccess
p1469
(dp1470
g15
S'self'
p1471
sg386
(lp1472
(idelphi
DelphiFieldEndAccess
p1473
(dp1474
g483
S'invalidate'
p1475
sbasbsba(idelphi
DelphiIfStatement
p1476
(dp1477
g395
(idelphi
DelphiNot
p1478
(dp1479
g821
(i__main__
DelphiIdentAccess
p1480
(dp1481
g15
S'self'
p1482
sg386
(lp1483
(idelphi
DelphiFieldEndAccess
p1484
(dp1485
g483
S'focused'
p1486
sbasbsbsg409
Nsg410
(i__main__
DelphiAssignStatement
p1487
(dp1488
g382
Nsg388
(i__main__
DelphiIdentAccess
p1489
(dp1490
g15
S'self'
p1491
sg386
(lp1492
(idelphi
DelphiFieldEndAccess
p1493
(dp1494
g483
S'setFocus'
p1495
sbasbsbsbasbsg443
(lp1496
sbsbsS'minwidth'
p1497
(i__main__
DelphiMethodImplementation
p1498
(dp1499
g350
g205
sg56
g207
sg64
(lp1500
(i__main__
DelphiFormalParameter
p1501
(dp1502
g87
Nsg88
(lp1503
S'requestedWidth'
p1504
asg17
(i__main__
DelphiPrimitiveType
p1505
(dp1506
g20
g70
sbsg96
Nsbasg358
(lp1507
sg360
(lp1508
sg362
(lp1509
g364
ag1504
asg365
(dp1510
g1504
g1505
ssg66
S'PdSmallintParameterPanel'
p1511
sg67
(i__main__
DelphiPrimitiveType
p1512
(dp1513
g20
g70
sbsg370
(lp1514
sg71
I0
sg72
g73
sg372
(i__main__
DelphiBlock
p1515
(dp1516
g375
(idelphi
DelphiCompoundStatement
p1517
(dp1518
g378
(lp1519
(i__main__
DelphiAssignStatement
p1520
(dp1521
g382
(idelphi
DelphiAddOp
p1522
(dp1523
g562
S'+'
sg563
(i__main__
DelphiIdentAccess
p1524
(dp1525
g15
S'self'
p1526
sg386
(lp1527
(idelphi
DelphiFieldEndAccess
p1528
(dp1529
g483
S'longestLabelWordWidth'
p1530
sbasbsg582
(idelphi
DelphiMulOp
p1531
(dp1532
g585
(idelphi
DelphiIntegerValue
p1533
(dp1534
g14
S'2'
sbsg588
S'*'
sg589
(i__main__
DelphiIdentAccess
p1535
(dp1536
g15
S'kLeftRightGap'
p1537
sg386
(lp1538
sbsbsbsg388
(i__main__
DelphiIdentAccess
p1539
(dp1540
g15
S'widthForLongestWord'
p1541
sg386
(lp1542
sbsba(i__main__
DelphiAssignStatement
p1543
(dp1544
g382
(i__main__
DelphiIdentAccess
p1545
(dp1546
g15
S'self'
p1547
sg386
(lp1548
(idelphi
DelphiFieldEndAccess
p1549
(dp1550
g483
S'minScaleWidthWithBounds'
p1551
sbasbsg388
(i__main__
DelphiIdentAccess
p1552
(dp1553
g15
S'widthWithBounds'
p1554
sg386
(lp1555
sbsba(i__main__
DelphiAssignStatement
p1556
(dp1557
g382
(i__main__
DelphiIdentAccess
p1558
(dp1559
g15
S'self'
p1560
sg386
(lp1561
(idelphi
DelphiFieldEndAccess
p1562
(dp1563
g483
S'minScaleWidthWithoutBounds'
p1564
sbasbsg388
(i__main__
DelphiIdentAccess
p1565
(dp1566
g15
S'widthWithoutBounds'
p1567
sg386
(lp1568
sbsba(i__main__
DelphiAssignStatement
p1569
(dp1570
g382
(idelphi
DelphiSign
p1571
(dp1572
g821
(idelphi
DelphiIntegerValue
p1573
(dp1574
g14
S'1'
sbsS'sign'
p1575
S'-'
sbsg388
(i__main__
DelphiIdentAccess
p1576
(dp1577
g15
S'result'
p1578
sg386
(lp1579
sbsba(idelphi
DelphiIfStatement
p1580
(dp1581
g395
(idelphi
DelphiRelOp
p1582
(dp1583
g398
(i__main__
DelphiIdentAccess
p1584
(dp1585
g15
S'requestedWidth'
p1586
sg386
(lp1587
sbsg403
(i__main__
DelphiIdentAccess
p1588
(dp1589
g15
S'widthForLongestWord'
p1590
sg386
(lp1591
sbsg408
S'<'
sbsg409
Nsg410
(i__main__
DelphiAssignStatement
p1592
(dp1593
g382
(i__main__
DelphiIdentAccess
p1594
(dp1595
g15
S'widthForLongestWord'
p1596
sg386
(lp1597
sbsg388
(i__main__
DelphiIdentAccess
p1598
(dp1599
g15
S'result'
p1600
sg386
(lp1601
sbsbsba(idelphi
DelphiIfStatement
p1602
(dp1603
g395
(idelphi
DelphiRelOp
p1604
(dp1605
g398
(i__main__
DelphiIdentAccess
p1606
(dp1607
g15
S'requestedWidth'
p1608
sg386
(lp1609
sbsg403
(i__main__
DelphiIdentAccess
p1610
(dp1611
g15
S'widthWithBounds'
p1612
sg386
(lp1613
sbsg408
S'<'
sbsg409
(i__main__
DelphiAssignStatement
p1614
(dp1615
g382
(i__main__
DelphiIdentAccess
p1616
(dp1617
g15
S'false'
p1618
sg386
(lp1619
sbsg388
(i__main__
DelphiIdentAccess
p1620
(dp1621
g15
S'drawWithoutBounds'
p1622
sg386
(lp1623
sbsbsg410
(idelphi
DelphiCompoundStatement
p1624
(dp1625
g378
(lp1626
(i__main__
DelphiAssignStatement
p1627
(dp1628
g382
(i__main__
DelphiIdentAccess
p1629
(dp1630
g15
S'true'
p1631
sg386
(lp1632
sbsg388
(i__main__
DelphiIdentAccess
p1633
(dp1634
g15
S'drawWithoutBounds'
p1635
sg386
(lp1636
sbsba(idelphi
DelphiIfStatement
p1637
(dp1638
g395
(idelphi
DelphiRelOp
p1639
(dp1640
g398
(i__main__
DelphiIdentAccess
p1641
(dp1642
g15
S'requestedWidth'
p1643
sg386
(lp1644
sbsg403
(i__main__
DelphiIdentAccess
p1645
(dp1646
g15
S'widthWithoutBounds'
p1647
sg386
(lp1648
sbsg408
S'<'
sbsg409
Nsg410
(i__main__
DelphiAssignStatement
p1649
(dp1650
g382
(i__main__
DelphiIdentAccess
p1651
(dp1652
g15
S'intMax'
p1653
sg386
(lp1654
(idelphi
DelphiFunctionEndAccess
p1655
(dp1656
g465
(lp1657
(i__main__
DelphiIdentAccess
p1658
(dp1659
g15
S'result'
p1660
sg386
(lp1661
sba(i__main__
DelphiIdentAccess
p1662
(dp1663
g15
S'widthWithoutBounds'
p1664
sg386
(lp1665
sbasbasbsg388
(i__main__
DelphiIdentAccess
p1666
(dp1667
g15
S'result'
p1668
sg386
(lp1669
sbsbsbasbsbasbsg443
(lp1670
(i__main__
DelphiVarSection
p1671
(dp1672
g29
I0
sg951
(lp1673
(idelphi
DelphiVarDecl
p1674
(dp1675
g11
Nsg955
(lp1676
S'widthForLongestWord'
p1677
aS'widthWithBounds'
p1678
aS'widthWithoutBounds'
p1679
asg17
(i__main__
DelphiPrimitiveType
p1680
(dp1681
g20
g70
sbsbasbasbsbsS'paint'
p1682
(i__main__
DelphiMethodImplementation
p1683
(dp1684
g350
g218
sg56
g220
sg64
(lp1685
sg358
(lp1686
sg360
(lp1687
sg362
(lp1688
g364
asg365
(dp1689
sg66
S'PdSmallintParameterPanel'
p1690
sg67
Nsg370
(lp1691
sg71
I0
sg72
g79
sg372
(i__main__
DelphiBlock
p1692
(dp1693
g375
(idelphi
DelphiCompoundStatement
p1694
(dp1695
g378
(lp1696
(idelphi
DelphiIfStatement
p1697
(dp1698
g395
(i__main__
DelphiIdentAccess
p1699
(dp1700
g15
S'Application'
p1701
sg386
(lp1702
(idelphi
DelphiFieldEndAccess
p1703
(dp1704
g483
S'terminated'
p1705
sbasbsg409
Nsg410
(i__main__
DelphiExitStatement
p1706
(dp1707
g1114
g1683
sbsba(idelphi
DelphiIfStatement
p1708
(dp1709
g395
(idelphi
DelphiNestedExpressionListAccess
p1710
(dp1711
g386
(lp1712
sg465
(lp1713
(idelphi
DelphiRelOp
p1714
(dp1715
g398
(i__main__
DelphiIdentAccess
p1716
(dp1717
g15
S'self'
p1718
sg386
(lp1719
(idelphi
DelphiFieldEndAccess
p1720
(dp1721
g483
S'selectedItemIndex'
p1722
sbasbsg403
(i__main__
DelphiIdentAccess
p1723
(dp1724
g15
S'kItemSlider'
p1725
sg386
(lp1726
sbsg408
S'='
sbasbsg409
(i__main__
DelphiAssignStatement
p1727
(dp1728
g382
(i__main__
DelphiIdentAccess
p1729
(dp1730
g15
S'false'
p1731
sg386
(lp1732
sbsg388
(i__main__
DelphiIdentAccess
p1733
(dp1734
g15
S'slider'
p1735
sg386
(lp1736
(idelphi
DelphiFieldEndAccess
p1737
(dp1738
g483
S'hasUnofficialFocus'
p1739
sbasbsbsg410
(i__main__
DelphiAssignStatement
p1740
(dp1741
g382
(i__main__
DelphiIdentAccess
p1742
(dp1743
g15
S'true'
p1744
sg386
(lp1745
sbsg388
(i__main__
DelphiIdentAccess
p1746
(dp1747
g15
S'slider'
p1748
sg386
(lp1749
(idelphi
DelphiFieldEndAccess
p1750
(dp1751
g483
S'hasUnofficialFocus'
p1752
sbasbsg1109
(lp1753
S' ask slider to update itself based on whether it is selected '
p1754
asbsba(i__main__
DelphiAssignStatement
p1755
(dp1756
g382
Nsg388
(idelphi
DelphiInheritedCall
p1757
(dp1758
g15
S'paint'
p1759
sg465
Nsbsba(i__main__
DelphiAssignStatement
p1760
(dp1761
g382
(idelphi
DelphiNot
p1762
(dp1763
g821
(i__main__
DelphiIdentAccess
p1764
(dp1765
g15
S'param'
p1766
sg386
(lp1767
(idelphi
DelphiFieldEndAccess
p1768
(dp1769
g483
S'collapsed'
p1770
sbasbsbsg388
(i__main__
DelphiIdentAccess
p1771
(dp1772
g15
S'slider'
p1773
sg386
(lp1774
(idelphi
DelphiFieldEndAccess
p1775
(dp1776
g483
S'visible'
p1777
sbasbsba(idelphi
DelphiIfStatement
p1778
(dp1779
g395
(idelphi
DelphiNestedExpressionListAccess
p1780
(dp1781
g386
(lp1782
sg465
(lp1783
(i__main__
DelphiIdentAccess
p1784
(dp1785
g15
S'param'
p1786
sg386
(lp1787
(idelphi
DelphiFieldEndAccess
p1788
(dp1789
g483
S'collapsed'
p1790
sbasbasbsg409
Nsg410
(idelphi
DelphiCompoundStatement
p1791
(dp1792
g378
(lp1793
(i__main__
DelphiAssignStatement
p1794
(dp1795
g382
Nsg388
(i__main__
DelphiIdentAccess
p1796
(dp1797
g15
S'self'
p1798
sg386
(lp1799
(idelphi
DelphiFieldEndAccess
p1800
(dp1801
g483
S'drawExtraValueCaptionWithString'
p1802
sba(idelphi
DelphiFunctionEndAccess
p1803
(dp1804
g465
(lp1805
(i__main__
DelphiIdentAccess
p1806
(dp1807
g15
S'intToStr'
p1808
sg386
(lp1809
(idelphi
DelphiFunctionEndAccess
p1810
(dp1811
g465
(lp1812
(i__main__
DelphiIdentAccess
p1813
(dp1814
g15
S'currentValue'
p1815
sg386
(lp1816
sbasbasba(i__main__
DelphiIdentAccess
p1817
(dp1818
g15
S'UnitStringForEnum'
p1819
sg386
(lp1820
(idelphi
DelphiFunctionEndAccess
p1821
(dp1822
g465
(lp1823
(i__main__
DelphiIdentAccess
p1824
(dp1825
g15
S'param'
p1826
sg386
(lp1827
(idelphi
DelphiFieldEndAccess
p1828
(dp1829
g483
S'unitSet'
p1830
sbasba(i__main__
DelphiIdentAccess
p1831
(dp1832
g15
S'unitIndex'
p1833
sg386
(lp1834
sbasbasbasbasbsba(i__main__
DelphiExitStatement
p1835
(dp1836
g1114
g1683
sbasbsba(i__main__
DelphiAssignStatement
p1837
(dp1838
g382
(i__main__
DelphiIdentAccess
p1839
(dp1840
g15
S'getClientRect'
p1841
sg386
(lp1842
sbsg388
(i__main__
DelphiIdentAccess
p1843
(dp1844
g15
S'rect'
p1845
sg386
(lp1846
sbsba(i__main__
DelphiAssignStatement
p1847
(dp1848
g382
(i__main__
DelphiIdentAccess
p1849
(dp1850
g15
S'intToStr'
p1851
sg386
(lp1852
(idelphi
DelphiFunctionEndAccess
p1853
(dp1854
g465
(lp1855
(i__main__
DelphiIdentAccess
p1856
(dp1857
g15
S'minValue'
p1858
sg386
(lp1859
sbasbasbsg388
(i__main__
DelphiIdentAccess
p1860
(dp1861
g15
S'minString'
p1862
sg386
(lp1863
sbsba(idelphi
DelphiIfStatement
p1864
(dp1865
g395
(i__main__
DelphiIdentAccess
p1866
(dp1867
g15
S'slider'
p1868
sg386
(lp1869
(idelphi
DelphiFieldEndAccess
p1870
(dp1871
g483
S'dragging'
p1872
sbasbsg409
(i__main__
DelphiAssignStatement
p1873
(dp1874
g382
(i__main__
DelphiIdentAccess
p1875
(dp1876
g15
S'intToStr'
p1877
sg386
(lp1878
(idelphi
DelphiFunctionEndAccess
p1879
(dp1880
g465
(lp1881
(i__main__
DelphiIdentAccess
p1882
(dp1883
g15
S'currentValue'
p1884
sg386
(lp1885
sbasbasbsg388
(i__main__
DelphiIdentAccess
p1886
(dp1887
g15
S'valueString'
p1888
sg386
(lp1889
sbsbsg410
(i__main__
DelphiAssignStatement
p1890
(dp1891
g382
(i__main__
DelphiIdentAccess
p1892
(dp1893
g15
S'intToStr'
p1894
sg386
(lp1895
(idelphi
DelphiFunctionEndAccess
p1896
(dp1897
g465
(lp1898
(i__main__
DelphiIdentAccess
p1899
(dp1900
g15
S'currentValueWhileSliding'
p1901
sg386
(lp1902
sbasbasbsg388
(i__main__
DelphiIdentAccess
p1903
(dp1904
g15
S'valueString'
p1905
sg386
(lp1906
sbsbsba(i__main__
DelphiAssignStatement
p1907
(dp1908
g382
(i__main__
DelphiIdentAccess
p1909
(dp1910
g15
S'UnitStringForEnum'
p1911
sg386
(lp1912
(idelphi
DelphiFunctionEndAccess
p1913
(dp1914
g465
(lp1915
(i__main__
DelphiIdentAccess
p1916
(dp1917
g15
S'param'
p1918
sg386
(lp1919
(idelphi
DelphiFieldEndAccess
p1920
(dp1921
g483
S'unitSet'
p1922
sbasba(i__main__
DelphiIdentAccess
p1923
(dp1924
g15
S'unitIndex'
p1925
sg386
(lp1926
sbasbasbsg388
(i__main__
DelphiIdentAccess
p1927
(dp1928
g15
S'unitString'
p1929
sg386
(lp1930
sbsba(i__main__
DelphiAssignStatement
p1931
(dp1932
g382
(i__main__
DelphiIdentAccess
p1933
(dp1934
g15
S'intToStr'
p1935
sg386
(lp1936
(idelphi
DelphiFunctionEndAccess
p1937
(dp1938
g465
(lp1939
(i__main__
DelphiIdentAccess
p1940
(dp1941
g15
S'maxValue'
p1942
sg386
(lp1943
sbasbasbsg388
(i__main__
DelphiIdentAccess
p1944
(dp1945
g15
S'maxString'
p1946
sg386
(lp1947
sbsba(idelphi
DelphiWithStatement
p1948
(dp1949
g1062
(idelphi
DelphiCompoundStatement
p1950
(dp1951
g378
(lp1952
(i__main__
DelphiAssignStatement
p1953
(dp1954
g382
(i__main__
DelphiIdentAccess
p1955
(dp1956
g15
S'kLeftRightGap'
p1957
sg386
(lp1958
sbsg388
(i__main__
DelphiIdentAccess
p1959
(dp1960
g15
S'left'
p1961
sg386
(lp1962
sbsba(i__main__
DelphiAssignStatement
p1963
(dp1964
g382
(idelphi
DelphiAddOp
p1965
(dp1966
g562
S'+'
sg563
(i__main__
DelphiIdentAccess
p1967
(dp1968
g15
S'self'
p1969
sg386
(lp1970
(idelphi
DelphiFieldEndAccess
p1971
(dp1972
g483
S'canvas'
p1973
sba(idelphi
DelphiFieldEndAccess
p1974
(dp1975
g483
S'textWidth'
p1976
sba(idelphi
DelphiFunctionEndAccess
p1977
(dp1978
g465
(lp1979
(i__main__
DelphiIdentAccess
p1980
(dp1981
g15
S'valueString'
p1982
sg386
(lp1983
sbasbasbsg582
(i__main__
DelphiIdentAccess
p1984
(dp1985
g15
S'left'
p1986
sg386
(lp1987
sbsbsg388
(i__main__
DelphiIdentAccess
p1988
(dp1989
g15
S'right'
p1990
sg386
(lp1991
sbsba(i__main__
DelphiAssignStatement
p1992
(dp1993
g382
(idelphi
DelphiAddOp
p1994
(dp1995
g562
S'+'
sg563
(idelphi
DelphiIntegerValue
p1996
(dp1997
g14
S'1'
sbsg582
(i__main__
DelphiIdentAccess
p1998
(dp1999
g15
S'self'
p2000
sg386
(lp2001
(idelphi
DelphiFieldEndAccess
p2002
(dp2003
g483
S'collapsedHeight'
p2004
sbasbsbsg388
(i__main__
DelphiIdentAccess
p2005
(dp2006
g15
S'top'
p2007
sg386
(lp2008
sbsba(i__main__
DelphiAssignStatement
p2009
(dp2010
g382
(idelphi
DelphiAddOp
p2011
(dp2012
g562
S'+'
sg563
(i__main__
DelphiIdentAccess
p2013
(dp2014
g15
S'self'
p2015
sg386
(lp2016
(idelphi
DelphiFieldEndAccess
p2017
(dp2018
g483
S'textHeight'
p2019
sbasbsg582
(i__main__
DelphiIdentAccess
p2020
(dp2021
g15
S'top'
p2022
sg386
(lp2023
sbsbsg388
(i__main__
DelphiIdentAccess
p2024
(dp2025
g15
S'bottom'
p2026
sg386
(lp2027
sbsbasbsS'variableReferenceList'
p2028
(lp2029
(i__main__
DelphiIdentAccess
p2030
(dp2031
g15
S'valueTextRect'
p2032
sg386
(lp2033
sbasba(i__main__
DelphiAssignStatement
p2034
(dp2035
g382
(i__main__
DelphiIdentAccess
p2036
(dp2037
g15
S'valueTextRect'
p2038
sg386
(lp2039
sbsg388
(i__main__
DelphiIdentAccess
p2040
(dp2041
g15
S'unitTextRect'
p2042
sg386
(lp2043
sbsba(i__main__
DelphiAssignStatement
p2044
(dp2045
g382
(idelphi
DelphiAddOp
p2046
(dp2047
g562
S'+'
sg563
(idelphi
DelphiIntegerValue
p2048
(dp2049
g14
S'5'
sbsg582
(i__main__
DelphiIdentAccess
p2050
(dp2051
g15
S'valueTextRect'
p2052
sg386
(lp2053
(idelphi
DelphiFieldEndAccess
p2054
(dp2055
g483
S'right'
p2056
sbasbsbsg388
(i__main__
DelphiIdentAccess
p2057
(dp2058
g15
S'unitTextRect'
p2059
sg386
(lp2060
(idelphi
DelphiFieldEndAccess
p2061
(dp2062
g483
S'left'
p2063
sbasbsba(i__main__
DelphiAssignStatement
p2064
(dp2065
g382
(idelphi
DelphiAddOp
p2066
(dp2067
g562
S'+'
sg563
(i__main__
DelphiIdentAccess
p2068
(dp2069
g15
S'self'
p2070
sg386
(lp2071
(idelphi
DelphiFieldEndAccess
p2072
(dp2073
g483
S'canvas'
p2074
sba(idelphi
DelphiFieldEndAccess
p2075
(dp2076
g483
S'textWidth'
p2077
sba(idelphi
DelphiFunctionEndAccess
p2078
(dp2079
g465
(lp2080
(i__main__
DelphiIdentAccess
p2081
(dp2082
g15
S'unitString'
p2083
sg386
(lp2084
sbasbasbsg582
(i__main__
DelphiIdentAccess
p2085
(dp2086
g15
S'unitTextRect'
p2087
sg386
(lp2088
(idelphi
DelphiFieldEndAccess
p2089
(dp2090
g483
S'left'
p2091
sbasbsbsg388
(i__main__
DelphiIdentAccess
p2092
(dp2093
g15
S'unitTextRect'
p2094
sg386
(lp2095
(idelphi
DelphiFieldEndAccess
p2096
(dp2097
g483
S'right'
p2098
sbasbsba(i__main__
DelphiAssignStatement
p2099
(dp2100
g382
(i__main__
DelphiIdentAccess
p2101
(dp2102
g15
S'valueTextRect'
p2103
sg386
(lp2104
sbsg388
(i__main__
DelphiIdentAccess
p2105
(dp2106
g15
S'minTextRect'
p2107
sg386
(lp2108
sbsba(i__main__
DelphiAssignStatement
p2109
(dp2110
g382
(idelphi
DelphiAddOp
p2111
(dp2112
g562
S'+'
sg563
(idelphi
DelphiIntegerValue
p2113
(dp2114
g14
S'5'
sbsg582
(i__main__
DelphiIdentAccess
p2115
(dp2116
g15
S'unitTextRect'
p2117
sg386
(lp2118
(idelphi
DelphiFieldEndAccess
p2119
(dp2120
g483
S'right'
p2121
sbasbsbsg388
(i__main__
DelphiIdentAccess
p2122
(dp2123
g15
S'minTextRect'
p2124
sg386
(lp2125
(idelphi
DelphiFieldEndAccess
p2126
(dp2127
g483
S'left'
p2128
sbasbsba(i__main__
DelphiAssignStatement
p2129
(dp2130
g382
(idelphi
DelphiAddOp
p2131
(dp2132
g562
S'+'
sg563
(i__main__
DelphiIdentAccess
p2133
(dp2134
g15
S'self'
p2135
sg386
(lp2136
(idelphi
DelphiFieldEndAccess
p2137
(dp2138
g483
S'canvas'
p2139
sba(idelphi
DelphiFieldEndAccess
p2140
(dp2141
g483
S'textWidth'
p2142
sba(idelphi
DelphiFunctionEndAccess
p2143
(dp2144
g465
(lp2145
(i__main__
DelphiIdentAccess
p2146
(dp2147
g15
S'minString'
p2148
sg386
(lp2149
sbasbasbsg582
(i__main__
DelphiIdentAccess
p2150
(dp2151
g15
S'minTextRect'
p2152
sg386
(lp2153
(idelphi
DelphiFieldEndAccess
p2154
(dp2155
g483
S'left'
p2156
sbasbsbsg388
(i__main__
DelphiIdentAccess
p2157
(dp2158
g15
S'minTextRect'
p2159
sg386
(lp2160
(idelphi
DelphiFieldEndAccess
p2161
(dp2162
g483
S'right'
p2163
sbasbsba(i__main__
DelphiAssignStatement
p2164
(dp2165
g382
(i__main__
DelphiIdentAccess
p2166
(dp2167
g15
S'valueTextRect'
p2168
sg386
(lp2169
sbsg388
(i__main__
DelphiIdentAccess
p2170
(dp2171
g15
S'maxTextRect'
p2172
sg386
(lp2173
sbsba(i__main__
DelphiAssignStatement
p2174
(dp2175
g382
(idelphi
DelphiAddOp
p2176
(dp2177
g562
S'-'
sg563
(i__main__
DelphiIdentAccess
p2178
(dp2179
g15
S'kLeftRightGap'
p2180
sg386
(lp2181
sbsg582
(i__main__
DelphiIdentAccess
p2182
(dp2183
g15
S'rect'
p2184
sg386
(lp2185
(idelphi
DelphiFieldEndAccess
p2186
(dp2187
g483
S'right'
p2188
sbasbsbsg388
(i__main__
DelphiIdentAccess
p2189
(dp2190
g15
S'maxTextRect'
p2191
sg386
(lp2192
(idelphi
DelphiFieldEndAccess
p2193
(dp2194
g483
S'right'
p2195
sbasbsba(i__main__
DelphiAssignStatement
p2196
(dp2197
g382
(idelphi
DelphiAddOp
p2198
(dp2199
g562
S'-'
sg563
(i__main__
DelphiIdentAccess
p2200
(dp2201
g15
S'self'
p2202
sg386
(lp2203
(idelphi
DelphiFieldEndAccess
p2204
(dp2205
g483
S'canvas'
p2206
sba(idelphi
DelphiFieldEndAccess
p2207
(dp2208
g483
S'textWidth'
p2209
sba(idelphi
DelphiFunctionEndAccess
p2210
(dp2211
g465
(lp2212
(i__main__
DelphiIdentAccess
p2213
(dp2214
g15
S'maxString'
p2215
sg386
(lp2216
sbasbasbsg582
(i__main__
DelphiIdentAccess
p2217
(dp2218
g15
S'maxTextRect'
p2219
sg386
(lp2220
(idelphi
DelphiFieldEndAccess
p2221
(dp2222
g483
S'right'
p2223
sbasbsbsg388
(i__main__
DelphiIdentAccess
p2224
(dp2225
g15
S'maxTextRect'
p2226
sg386
(lp2227
(idelphi
DelphiFieldEndAccess
p2228
(dp2229
g483
S'left'
p2230
sbasbsba(idelphi
DelphiWithStatement
p2231
(dp2232
g1062
(idelphi
DelphiCompoundStatement
p2233
(dp2234
g378
(lp2235
(i__main__
DelphiAssignStatement
p2236
(dp2237
g382
Nsg388
(i__main__
DelphiIdentAccess
p2238
(dp2239
g15
S'self'
p2240
sg386
(lp2241
(idelphi
DelphiFieldEndAccess
p2242
(dp2243
g483
S'drawText'
p2244
sba(idelphi
DelphiFunctionEndAccess
p2245
(dp2246
g465
(lp2247
(i__main__
DelphiIdentAccess
p2248
(dp2249
g15
S'minString'
p2250
sg386
(lp2251
sba(i__main__
DelphiIdentAccess
p2252
(dp2253
g15
S'minTextRect'
p2254
sg386
(lp2255
sba(i__main__
DelphiIdentAccess
p2256
(dp2257
g15
S'false'
p2258
sg386
(lp2259
sba(i__main__
DelphiIdentAccess
p2260
(dp2261
g15
S'false'
p2262
sg386
(lp2263
sba(i__main__
DelphiIdentAccess
p2264
(dp2265
g15
S'true'
p2266
sg386
(lp2267
sbasbasbsba(i__main__
DelphiAssignStatement
p2268
(dp2269
g382
Nsg388
(i__main__
DelphiIdentAccess
p2270
(dp2271
g15
S'self'
p2272
sg386
(lp2273
(idelphi
DelphiFieldEndAccess
p2274
(dp2275
g483
S'drawText'
p2276
sba(idelphi
DelphiFunctionEndAccess
p2277
(dp2278
g465
(lp2279
(i__main__
DelphiIdentAccess
p2280
(dp2281
g15
S'valueString'
p2282
sg386
(lp2283
sba(i__main__
DelphiIdentAccess
p2284
(dp2285
g15
S'valueTextRect'
p2286
sg386
(lp2287
sba(idelphi
DelphiNot
p2288
(dp2289
g821
(i__main__
DelphiIdentAccess
p2290
(dp2291
g15
S'self'
p2292
sg386
(lp2293
(idelphi
DelphiFieldEndAccess
p2294
(dp2295
g483
S'readOnly'
p2296
sbasbsba(idelphi
DelphiNestedExpressionListAccess
p2297
(dp2298
g386
(lp2299
sg465
(lp2300
(idelphi
DelphiRelOp
p2301
(dp2302
g398
(i__main__
DelphiIdentAccess
p2303
(dp2304
g15
S'self'
p2305
sg386
(lp2306
(idelphi
DelphiFieldEndAccess
p2307
(dp2308
g483
S'selectedItemIndex'
p2309
sbasbsg403
(i__main__
DelphiIdentAccess
p2310
(dp2311
g15
S'kItemValueText'
p2312
sg386
(lp2313
sbsg408
S'='
sbasba(i__main__
DelphiIdentAccess
p2314
(dp2315
g15
S'false'
p2316
sg386
(lp2317
sbasbasbsba(i__main__
DelphiAssignStatement
p2318
(dp2319
g382
Nsg388
(i__main__
DelphiIdentAccess
p2320
(dp2321
g15
S'self'
p2322
sg386
(lp2323
(idelphi
DelphiFieldEndAccess
p2324
(dp2325
g483
S'drawText'
p2326
sba(idelphi
DelphiFunctionEndAccess
p2327
(dp2328
g465
(lp2329
(i__main__
DelphiIdentAccess
p2330
(dp2331
g15
S'unitString'
p2332
sg386
(lp2333
sba(i__main__
DelphiIdentAccess
p2334
(dp2335
g15
S'unitTextRect'
p2336
sg386
(lp2337
sba(i__main__
DelphiIdentAccess
p2338
(dp2339
g15
S'false'
p2340
sg386
(lp2341
sba(i__main__
DelphiIdentAccess
p2342
(dp2343
g15
S'false'
p2344
sg386
(lp2345
sba(i__main__
DelphiIdentAccess
p2346
(dp2347
g15
S'false'
p2348
sg386
(lp2349
sbasbasbsba(i__main__
DelphiAssignStatement
p2350
(dp2351
g382
Nsg388
(i__main__
DelphiIdentAccess
p2352
(dp2353
g15
S'self'
p2354
sg386
(lp2355
(idelphi
DelphiFieldEndAccess
p2356
(dp2357
g483
S'drawText'
p2358
sba(idelphi
DelphiFunctionEndAccess
p2359
(dp2360
g465
(lp2361
(i__main__
DelphiIdentAccess
p2362
(dp2363
g15
S'maxString'
p2364
sg386
(lp2365
sba(i__main__
DelphiIdentAccess
p2366
(dp2367
g15
S'maxTextRect'
p2368
sg386
(lp2369
sba(i__main__
DelphiIdentAccess
p2370
(dp2371
g15
S'false'
p2372
sg386
(lp2373
sba(i__main__
DelphiIdentAccess
p2374
(dp2375
g15
S'false'
p2376
sg386
(lp2377
sba(i__main__
DelphiIdentAccess
p2378
(dp2379
g15
S'true'
p2380
sg386
(lp2381
sbasbasbsbasbsg2028
(lp2382
(i__main__
DelphiIdentAccess
p2383
(dp2384
g15
S'Canvas'
p2385
sg386
(lp2386
sbasbasbsg443
(lp2387
(i__main__
DelphiVarSection
p2388
(dp2389
g29
I0
sg951
(lp2390
(idelphi
DelphiVarDecl
p2391
(dp2392
g11
Nsg955
(lp2393
S'Rect'
p2394
asg17
(i__main__
DelphiNamedType
p2395
(dp2396
g20
S'TRect'
p2397
sg94
g1
sg95
Nsbsba(idelphi
DelphiVarDecl
p2398
(dp2399
g11
Nsg955
(lp2400
S'minString'
p2401
aS'valueString'
p2402
aS'maxString'
p2403
aS'unitString'
p2404
asg17
(i__main__
DelphiPrimitiveType
p2405
(dp2406
g20
g14
sbsbasbasbsbsS'minscalewidthwithbounds'
p2407
(i__main__
DelphiMethodImplementation
p2408
(dp2409
g350
g223
sg56
g225
sg64
(lp2410
sg358
(lp2411
sg360
(lp2412
sg362
(lp2413
g364
asg365
(dp2414
sg66
S'PdSmallintParameterPanel'
p2415
sg67
(i__main__
DelphiPrimitiveType
p2416
(dp2417
g20
g70
sbsg370
(lp2418
sg71
I0
sg72
g73
sg372
(i__main__
DelphiBlock
p2419
(dp2420
g375
(idelphi
DelphiCompoundStatement
p2421
(dp2422
g378
(lp2423
(i__main__
DelphiAssignStatement
p2424
(dp2425
g382
(i__main__
DelphiIdentAccess
p2426
(dp2427
g15
S'intToStr'
p2428
sg386
(lp2429
(idelphi
DelphiFunctionEndAccess
p2430
(dp2431
g465
(lp2432
(i__main__
DelphiIdentAccess
p2433
(dp2434
g15
S'minValue'
p2435
sg386
(lp2436
sbasbasbsg388
(i__main__
DelphiIdentAccess
p2437
(dp2438
g15
S'minString'
p2439
sg386
(lp2440
sbsba(i__main__
DelphiAssignStatement
p2441
(dp2442
g382
(idelphi
DelphiAddOp
p2443
(dp2444
g562
S'+'
sg563
(idelphi
DelphiStringAccess
p2445
(dp2446
g386
(lp2447
sg14
(idelphi
DelphiStringValue
p2448
(dp2449
g14
S'  '
p2450
sbsbsg582
(i__main__
DelphiIdentAccess
p2451
(dp2452
g15
S'intToStr'
p2453
sg386
(lp2454
(idelphi
DelphiFunctionEndAccess
p2455
(dp2456
g465
(lp2457
(i__main__
DelphiIdentAccess
p2458
(dp2459
g15
S'currentValue'
p2460
sg386
(lp2461
sbasbasbsbsg388
(i__main__
DelphiIdentAccess
p2462
(dp2463
g15
S'valueString'
p2464
sg386
(lp2465
sbsba(i__main__
DelphiAssignStatement
p2466
(dp2467
g382
(i__main__
DelphiIdentAccess
p2468
(dp2469
g15
S'UnitStringForEnum'
p2470
sg386
(lp2471
(idelphi
DelphiFunctionEndAccess
p2472
(dp2473
g465
(lp2474
(i__main__
DelphiIdentAccess
p2475
(dp2476
g15
S'param'
p2477
sg386
(lp2478
(idelphi
DelphiFieldEndAccess
p2479
(dp2480
g483
S'unitSet'
p2481
sbasba(i__main__
DelphiIdentAccess
p2482
(dp2483
g15
S'unitIndex'
p2484
sg386
(lp2485
sbasbasbsg388
(i__main__
DelphiIdentAccess
p2486
(dp2487
g15
S'unitString'
p2488
sg386
(lp2489
sbsba(i__main__
DelphiAssignStatement
p2490
(dp2491
g382
(i__main__
DelphiIdentAccess
p2492
(dp2493
g15
S'intToStr'
p2494
sg386
(lp2495
(idelphi
DelphiFunctionEndAccess
p2496
(dp2497
g465
(lp2498
(i__main__
DelphiIdentAccess
p2499
(dp2500
g15
S'maxValue'
p2501
sg386
(lp2502
sbasbasbsg388
(i__main__
DelphiIdentAccess
p2503
(dp2504
g15
S'maxString'
p2505
sg386
(lp2506
sbsba(i__main__
DelphiAssignStatement
p2507
(dp2508
g382
(idelphi
DelphiAddOp
p2509
(dp2510
g562
S'+'
sg563
(idelphi
DelphiMulOp
p2511
(dp2512
g585
(idelphi
DelphiIntegerValue
p2513
(dp2514
g14
S'3'
sbsg588
S'*'
sg589
(i__main__
DelphiIdentAccess
p2515
(dp2516
g15
S'kBetweenGap'
p2517
sg386
(lp2518
sbsbsg582
(i__main__
DelphiIdentAccess
p2519
(dp2520
g15
S'self'
p2521
sg386
(lp2522
(idelphi
DelphiFieldEndAccess
p2523
(dp2524
g483
S'formTextWidth'
p2525
sba(idelphi
DelphiFunctionEndAccess
p2526
(dp2527
g465
(lp2528
(idelphi
DelphiAddOp
p2529
(dp2530
g562
S'+'
sg563
(i__main__
DelphiIdentAccess
p2531
(dp2532
g15
S'maxString'
p2533
sg386
(lp2534
sbsg582
(idelphi
DelphiAddOp
p2535
(dp2536
g562
S'+'
sg563
(i__main__
DelphiIdentAccess
p2537
(dp2538
g15
S'unitString'
p2539
sg386
(lp2540
sbsg582
(idelphi
DelphiAddOp
p2541
(dp2542
g562
S'+'
sg563
(i__main__
DelphiIdentAccess
p2543
(dp2544
g15
S'valueString'
p2545
sg386
(lp2546
sbsg582
(i__main__
DelphiIdentAccess
p2547
(dp2548
g15
S'minString'
p2549
sg386
(lp2550
sbsbsbsbasbasbsbsg388
(i__main__
DelphiIdentAccess
p2551
(dp2552
g15
S'result'
p2553
sg386
(lp2554
sbsbasbsg443
(lp2555
(i__main__
DelphiVarSection
p2556
(dp2557
g29
I0
sg951
(lp2558
(idelphi
DelphiVarDecl
p2559
(dp2560
g11
Nsg955
(lp2561
S'minString'
p2562
aS'valueString'
p2563
aS'unitString'
p2564
aS'maxString'
p2565
asg17
(i__main__
DelphiPrimitiveType
p2566
(dp2567
g20
g14
sbsbasbasbsbsS'slidermousemove'
p2568
(i__main__
DelphiMethodImplementation
p2569
(dp2570
g350
g230
sg56
g232
sg64
(lp2571
(i__main__
DelphiFormalParameter
p2572
(dp2573
g87
Nsg88
(lp2574
S'Sender'
p2575
asg17
(i__main__
DelphiNamedType
p2576
(dp2577
g20
S'TObject'
p2578
sg94
g1
sg95
Nsbsg96
Nsbasg358
(lp2579
sg360
(lp2580
sg362
(lp2581
g364
ag2575
asg365
(dp2582
g2575
g2576
ssg66
S'PdSmallintParameterPanel'
p2583
sg67
Nsg370
(lp2584
sg71
I0
sg72
g79
sg372
(i__main__
DelphiBlock
p2585
(dp2586
g375
(idelphi
DelphiCompoundStatement
p2587
(dp2588
g378
(lp2589
(idelphi
DelphiIfStatement
p2590
(dp2591
g395
(idelphi
DelphiRelOp
p2592
(dp2593
g398
(i__main__
DelphiIdentAccess
p2594
(dp2595
g15
S'plant'
p2596
sg386
(lp2597
sbsg403
(idelphi
DelphiNilValue
p2598
(dp2599
bsg408
S'='
sbsg409
Nsg410
(i__main__
DelphiExitStatement
p2600
(dp2601
g1114
g2569
sbsba(i__main__
DelphiAssignStatement
p2602
(dp2603
g382
(i__main__
DelphiIdentAccess
p2604
(dp2605
g15
S'slider'
p2606
sg386
(lp2607
(idelphi
DelphiFieldEndAccess
p2608
(dp2609
g483
S'currentValue'
p2610
sbasbsg388
(i__main__
DelphiIdentAccess
p2611
(dp2612
g15
S'currentValueWhileSliding'
p2613
sg386
(lp2614
sbsba(i__main__
DelphiAssignStatement
p2615
(dp2616
g382
Nsg388
(i__main__
DelphiIdentAccess
p2617
(dp2618
g15
S'self'
p2619
sg386
(lp2620
(idelphi
DelphiFieldEndAccess
p2621
(dp2622
g483
S'invalidate'
p2623
sbasbsbasbsg443
(lp2624
sbsbsS'slidermouseup'
p2625
(i__main__
DelphiMethodImplementation
p2626
(dp2627
g350
g242
sg56
g244
sg64
(lp2628
(i__main__
DelphiFormalParameter
p2629
(dp2630
g87
Nsg88
(lp2631
S'Sender'
p2632
asg17
(i__main__
DelphiNamedType
p2633
(dp2634
g20
S'TObject'
p2635
sg94
g1
sg95
Nsbsg96
Nsbasg358
(lp2636
sg360
(lp2637
sg362
(lp2638
g364
ag2632
asg365
(dp2639
g2632
g2633
ssg66
S'PdSmallintParameterPanel'
p2640
sg67
Nsg370
(lp2641
sg71
I0
sg72
g79
sg372
(i__main__
DelphiBlock
p2642
(dp2643
g375
(idelphi
DelphiCompoundStatement
p2644
(dp2645
g378
(lp2646
(idelphi
DelphiIfStatement
p2647
(dp2648
g395
(idelphi
DelphiRelOp
p2649
(dp2650
g398
(i__main__
DelphiIdentAccess
p2651
(dp2652
g15
S'plant'
p2653
sg386
(lp2654
sbsg403
(idelphi
DelphiNilValue
p2655
(dp2656
bsg408
g476
sbsg409
(idelphi
DelphiCompoundStatement
p2657
(dp2658
g378
(lp2659
(i__main__
DelphiAssignStatement
p2660
(dp2661
g382
(idelphi
DelphiIntegerValue
p2662
(dp2663
g14
S'0'
sbsg388
(i__main__
DelphiIdentAccess
p2664
(dp2665
g15
S'slider'
p2666
sg386
(lp2667
(idelphi
DelphiFieldEndAccess
p2668
(dp2669
g483
S'currentValue'
p2670
sbasbsba(i__main__
DelphiAssignStatement
p2671
(dp2672
g382
(i__main__
DelphiIdentAccess
p2673
(dp2674
g15
S'false'
p2675
sg386
(lp2676
sbsg388
(i__main__
DelphiIdentAccess
p2677
(dp2678
g15
S'slider'
p2679
sg386
(lp2680
(idelphi
DelphiFieldEndAccess
p2681
(dp2682
g483
S'enabled'
p2683
sbasbsbasbsg410
(idelphi
DelphiCompoundStatement
p2684
(dp2685
g378
(lp2686
(i__main__
DelphiAssignStatement
p2687
(dp2688
g382
(i__main__
DelphiIdentAccess
p2689
(dp2690
g15
S'slider'
p2691
sg386
(lp2692
(idelphi
DelphiFieldEndAccess
p2693
(dp2694
g483
S'currentValue'
p2695
sbasbsg388
(i__main__
DelphiIdentAccess
p2696
(dp2697
g15
S'currentValue'
p2698
sg386
(lp2699
sbsba(i__main__
DelphiAssignStatement
p2700
(dp2701
g382
Nsg388
(i__main__
DelphiIdentAccess
p2702
(dp2703
g15
S'MainForm'
p2704
sg386
(lp2705
(idelphi
DelphiFieldEndAccess
p2706
(dp2707
g483
S'doCommand'
p2708
sba(idelphi
DelphiFunctionEndAccess
p2709
(dp2710
g465
(lp2711
(i__main__
DelphiIdentAccess
p2712
(dp2713
g15
S'PdChangeSmallintValueCommand'
p2714
sg386
(lp2715
(idelphi
DelphiFieldEndAccess
p2716
(dp2717
g483
S'createCommandWithListOfPlants'
p2718
sba(idelphi
DelphiFunctionEndAccess
p2719
(dp2720
g465
(lp2721
(i__main__
DelphiIdentAccess
p2722
(dp2723
g15
S'MainForm'
p2724
sg386
(lp2725
(idelphi
DelphiFieldEndAccess
p2726
(dp2727
g483
S'selectedPlants'
p2728
sbasba(i__main__
DelphiIdentAccess
p2729
(dp2730
g15
S'currentValue'
p2731
sg386
(lp2732
sba(i__main__
DelphiIdentAccess
p2733
(dp2734
g15
S'param'
p2735
sg386
(lp2736
(idelphi
DelphiFieldEndAccess
p2737
(dp2738
g483
S'fieldNumber'
p2739
sbasba(i__main__
DelphiIdentAccess
p2740
(dp2741
g15
S'kNotArray'
p2742
sg386
(lp2743
sba(i__main__
DelphiIdentAccess
p2744
(dp2745
g15
S'param'
p2746
sg386
(lp2747
(idelphi
DelphiFieldEndAccess
p2748
(dp2749
g483
S'regrow'
p2750
sbasbasbasbasbasbsba(i__main__
DelphiAssignStatement
p2751
(dp2752
g382
Nsg388
(i__main__
DelphiIdentAccess
p2753
(dp2754
g15
S'self'
p2755
sg386
(lp2756
(idelphi
DelphiFieldEndAccess
p2757
(dp2758
g483
S'updateDisplay'
p2759
sbasbsba(i__main__
DelphiAssignStatement
p2760
(dp2761
g382
Nsg388
(i__main__
DelphiIdentAccess
p2762
(dp2763
g15
S'self'
p2764
sg386
(lp2765
(idelphi
DelphiFieldEndAccess
p2766
(dp2767
g483
S'invalidate'
p2768
sbasbsbasbsbasbsg443
(lp2769
sbsbsS'domouseup'
p2770
(i__main__
DelphiMethodImplementation
p2771
(dp2772
g350
g116
sg56
g118
sg64
(lp2773
(i__main__
DelphiFormalParameter
p2774
(dp2775
g87
Nsg88
(lp2776
S'Sender'
p2777
asg17
(i__main__
DelphiNamedType
p2778
(dp2779
g20
S'TObject'
p2780
sg94
g1
sg95
Nsbsg96
Nsba(i__main__
DelphiFormalParameter
p2781
(dp2782
g87
Nsg88
(lp2783
S'Button'
p2784
asg17
(i__main__
DelphiNamedType
p2785
(dp2786
g20
S'TMouseButton'
p2787
sg94
g1
sg95
Nsbsg96
Nsba(i__main__
DelphiFormalParameter
p2788
(dp2789
g87
Nsg88
(lp2790
S'Shift'
p2791
asg17
(i__main__
DelphiNamedType
p2792
(dp2793
g20
S'TShiftState'
p2794
sg94
g1
sg95
Nsbsg96
Nsba(i__main__
DelphiFormalParameter
p2795
(dp2796
g87
Nsg88
(lp2797
S'X'
aS'Y'
asg17
(i__main__
DelphiPrimitiveType
p2798
(dp2799
g20
g70
sbsg96
Nsbasg358
(lp2800
sg360
(lp2801
sg362
(lp2802
g364
ag2777
ag2784
ag2791
aS'X'
aS'Y'
asg365
(dp2803
S'Y'
g2798
sg2791
g2792
sg2784
g2785
sg2777
g2778
sS'X'
g2798
ssg66
S'PdSmallintParameterPanel'
p2804
sg67
Nsg370
(lp2805
sg71
I0
sg72
g79
sg372
(i__main__
DelphiBlock
p2806
(dp2807
g375
(idelphi
DelphiCompoundStatement
p2808
(dp2809
g378
(lp2810
(i__main__
DelphiAssignStatement
p2811
(dp2812
g382
Nsg388
(idelphi
DelphiInheritedCall
p2813
(dp2814
g15
S'doMouseUp'
p2815
sg465
(lp2816
(i__main__
DelphiIdentAccess
p2817
(dp2818
g15
S'sender'
p2819
sg386
(lp2820
sba(i__main__
DelphiIdentAccess
p2821
(dp2822
g15
S'button'
p2823
sg386
(lp2824
sba(i__main__
DelphiIdentAccess
p2825
(dp2826
g15
S'shift'
p2827
sg386
(lp2828
sba(i__main__
DelphiIdentAccess
p2829
(dp2830
g15
S'x'
sg386
(lp2831
sba(i__main__
DelphiIdentAccess
p2832
(dp2833
g15
S'y'
sg386
(lp2834
sbasbsg1109
(lp2835
S' must always call this first because it sets the focus '
p2836
asba(i__main__
DelphiAssignStatement
p2837
(dp2838
g382
(i__main__
DelphiIdentAccess
p2839
(dp2840
g15
S'Point'
p2841
sg386
(lp2842
(idelphi
DelphiFunctionEndAccess
p2843
(dp2844
g465
(lp2845
(i__main__
DelphiIdentAccess
p2846
(dp2847
g15
S'x'
sg386
(lp2848
sba(i__main__
DelphiIdentAccess
p2849
(dp2850
g15
S'y'
sg386
(lp2851
sbasbasbsg388
(i__main__
DelphiIdentAccess
p2852
(dp2853
g15
S'thePoint'
p2854
sg386
(lp2855
sbsba(idelphi
DelphiIfStatement
p2856
(dp2857
g395
(i__main__
DelphiIdentAccess
p2858
(dp2859
g15
S'ptInRect'
p2860
sg386
(lp2861
(idelphi
DelphiFunctionEndAccess
p2862
(dp2863
g465
(lp2864
(i__main__
DelphiIdentAccess
p2865
(dp2866
g15
S'valueTextRect'
p2867
sg386
(lp2868
sba(i__main__
DelphiIdentAccess
p2869
(dp2870
g15
S'thePoint'
p2871
sg386
(lp2872
sbasbasbsg409
Nsg410
(idelphi
DelphiCompoundStatement
p2873
(dp2874
g378
(lp2875
(idelphi
DelphiIfStatement
p2876
(dp2877
g395
(idelphi
DelphiMulOp
p2878
(dp2879
g585
(idelphi
DelphiNot
p2880
(dp2881
g821
(i__main__
DelphiIdentAccess
p2882
(dp2883
g15
S'slider'
p2884
sg386
(lp2885
(idelphi
DelphiFieldEndAccess
p2886
(dp2887
g483
S'readOnly'
p2888
sbasbsbsg588
g641
sg589
(i__main__
DelphiIdentAccess
p2889
(dp2890
g15
S'slider'
p2891
sg386
(lp2892
(idelphi
DelphiFieldEndAccess
p2893
(dp2894
g483
S'enabled'
p2895
sbasbsbsg409
Nsg410
(idelphi
DelphiCompoundStatement
p2896
(dp2897
g378
(lp2898
(i__main__
DelphiAssignStatement
p2899
(dp2900
g382
(i__main__
DelphiIdentAccess
p2901
(dp2902
g15
S'kItemValueText'
p2903
sg386
(lp2904
sbsg388
(i__main__
DelphiIdentAccess
p2905
(dp2906
g15
S'self'
p2907
sg386
(lp2908
(idelphi
DelphiFieldEndAccess
p2909
(dp2910
g483
S'selectedItemIndex'
p2911
sbasbsba(i__main__
DelphiAssignStatement
p2912
(dp2913
g382
Nsg388
(i__main__
DelphiIdentAccess
p2914
(dp2915
g15
S'self'
p2916
sg386
(lp2917
(idelphi
DelphiFieldEndAccess
p2918
(dp2919
g483
S'invalidate'
p2920
sbasbsba(i__main__
DelphiAssignStatement
p2921
(dp2922
g382
Nsg388
(i__main__
DelphiIdentAccess
p2923
(dp2924
g15
S'self'
p2925
sg386
(lp2926
(idelphi
DelphiFieldEndAccess
p2927
(dp2928
g483
S'adjustValue'
p2929
sbasbsbasbsbasbsbasbsg443
(lp2930
(i__main__
DelphiVarSection
p2931
(dp2932
g29
I0
sg951
(lp2933
(idelphi
DelphiVarDecl
p2934
(dp2935
g11
Nsg955
(lp2936
S'thePoint'
p2937
asg17
(i__main__
DelphiNamedType
p2938
(dp2939
g20
S'TPoint'
p2940
sg94
g1
sg95
NsbsbasbasbsbsS'adjustvalue'
p2941
(i__main__
DelphiMethodImplementation
p2942
(dp2943
g350
g259
sg56
g261
sg64
(lp2944
sg358
(lp2945
sg360
(lp2946
sg362
(lp2947
g364
asg365
(dp2948
sg66
S'PdSmallintParameterPanel'
p2949
sg67
Nsg370
(lp2950
sg71
I0
sg72
g79
sg372
(i__main__
DelphiBlock
p2951
(dp2952
g375
(idelphi
DelphiCompoundStatement
p2953
(dp2954
g378
(lp2955
(i__main__
DelphiAssignStatement
p2956
(dp2957
g382
(i__main__
DelphiIdentAccess
p2958
(dp2959
g15
S'currentValue'
p2960
sg386
(lp2961
sbsg388
(i__main__
DelphiIdentAccess
p2962
(dp2963
g15
S'oldValue'
p2964
sg386
(lp2965
sbsba(i__main__
DelphiAssignStatement
p2966
(dp2967
g382
(i__main__
DelphiIdentAccess
p2968
(dp2969
g15
S'intToStr'
p2970
sg386
(lp2971
(idelphi
DelphiFunctionEndAccess
p2972
(dp2973
g465
(lp2974
(i__main__
DelphiIdentAccess
p2975
(dp2976
g15
S'currentValue'
p2977
sg386
(lp2978
sbasbasbsg388
(i__main__
DelphiIdentAccess
p2979
(dp2980
g15
S'newString'
p2981
sg386
(lp2982
sbsba(i__main__
DelphiAssignStatement
p2983
(dp2984
g382
(i__main__
DelphiIdentAccess
p2985
(dp2986
g15
S'newString'
p2987
sg386
(lp2988
sbsg388
(i__main__
DelphiIdentAccess
p2989
(dp2990
g15
S'oldString'
p2991
sg386
(lp2992
sbsba(i__main__
DelphiAssignStatement
p2993
(dp2994
g382
(i__main__
DelphiIdentAccess
p2995
(dp2996
g15
S'copy'
p2997
sg386
(lp2998
(idelphi
DelphiFunctionEndAccess
p2999
(dp3000
g465
(lp3001
(i__main__
DelphiIdentAccess
p3002
(dp3003
g15
S'self'
p3004
sg386
(lp3005
(idelphi
DelphiFieldEndAccess
p3006
(dp3007
g483
S'caption'
p3008
sbasba(idelphi
DelphiIntegerValue
p3009
(dp3010
g14
S'1'
sba(idelphi
DelphiIntegerValue
p3011
(dp3012
g14
S'30'
p3013
sbasbasbsg388
(i__main__
DelphiIdentAccess
p3014
(dp3015
g15
S'nameString'
p3016
sg386
(lp3017
sbsba(idelphi
DelphiIfStatement
p3018
(dp3019
g395
(idelphi
DelphiRelOp
p3020
(dp3021
g398
(i__main__
DelphiIdentAccess
p3022
(dp3023
g15
S'length'
p3024
sg386
(lp3025
(idelphi
DelphiFunctionEndAccess
p3026
(dp3027
g465
(lp3028
(i__main__
DelphiIdentAccess
p3029
(dp3030
g15
S'nameString'
p3031
sg386
(lp3032
sbasbasbsg403
(idelphi
DelphiIntegerValue
p3033
(dp3034
g14
S'30'
p3035
sbsg408
S'='
sbsg409
Nsg410
(i__main__
DelphiAssignStatement
p3036
(dp3037
g382
(idelphi
DelphiAddOp
p3038
(dp3039
g562
S'+'
sg563
(idelphi
DelphiStringAccess
p3040
(dp3041
g386
(lp3042
sg14
(idelphi
DelphiStringValue
p3043
(dp3044
g14
S'...'
p3045
sbsbsg582
(i__main__
DelphiIdentAccess
p3046
(dp3047
g15
S'nameString'
p3048
sg386
(lp3049
sbsbsg388
(i__main__
DelphiIdentAccess
p3050
(dp3051
g15
S'nameString'
p3052
sg386
(lp3053
sbsbsba(i__main__
DelphiAssignStatement
p3054
(dp3055
g382
(i__main__
DelphiIdentAccess
p3056
(dp3057
g15
S'UnitStringForEnum'
p3058
sg386
(lp3059
(idelphi
DelphiFunctionEndAccess
p3060
(dp3061
g465
(lp3062
(i__main__
DelphiIdentAccess
p3063
(dp3064
g15
S'param'
p3065
sg386
(lp3066
(idelphi
DelphiFieldEndAccess
p3067
(dp3068
g483
S'unitSet'
p3069
sbasba(i__main__
DelphiIdentAccess
p3070
(dp3071
g15
S'unitIndex'
p3072
sg386
(lp3073
sbasbasbsg388
(i__main__
DelphiIdentAccess
p3074
(dp3075
g15
S'unitString'
p3076
sg386
(lp3077
sbsba(i__main__
DelphiAssignStatement
p3078
(dp3079
g382
(idelphi
DelphiStringAccess
p3080
(dp3081
g386
(lp3082
sg14
(idelphi
DelphiStringValue
p3083
(dp3084
g14
S'Type a new value.'
p3085
sbsbsg388
(i__main__
DelphiIdentAccess
p3086
(dp3087
g15
S'prompt'
p3088
sg386
(lp3089
sbsba(idelphi
DelphiIfStatement
p3090
(dp3091
g395
(i__main__
DelphiIdentAccess
p3092
(dp3093
g15
S'inputQuery'
p3094
sg386
(lp3095
(idelphi
DelphiFunctionEndAccess
p3096
(dp3097
g465
(lp3098
(idelphi
DelphiStringAccess
p3099
(dp3100
g386
(lp3101
sg14
(idelphi
DelphiStringValue
p3102
(dp3103
g14
S'Enter value'
p3104
sbsba(i__main__
DelphiIdentAccess
p3105
(dp3106
g15
S'prompt'
p3107
sg386
(lp3108
sba(i__main__
DelphiIdentAccess
p3109
(dp3110
g15
S'newString'
p3111
sg386
(lp3112
sbasbasbsg409
Nsg410
(idelphi
DelphiIfStatement
p3113
(dp3114
g395
(idelphi
DelphiNestedExpressionListAccess
p3115
(dp3116
g386
(lp3117
sg465
(lp3118
(idelphi
DelphiRelOp
p3119
(dp3120
g398
(i__main__
DelphiIdentAccess
p3121
(dp3122
g15
S'newString'
p3123
sg386
(lp3124
sbsg403
(i__main__
DelphiIdentAccess
p3125
(dp3126
g15
S'oldString'
p3127
sg386
(lp3128
sbsg408
g476
sbasbsg409
Nsg410
(idelphi
DelphiCompoundStatement
p3129
(dp3130
g378
(lp3131
(i__main__
DelphiAssignStatement
p3132
(dp3133
g382
(i__main__
DelphiIdentAccess
p3134
(dp3135
g15
S'strToIntDef'
p3136
sg386
(lp3137
(idelphi
DelphiFunctionEndAccess
p3138
(dp3139
g465
(lp3140
(i__main__
DelphiIdentAccess
p3141
(dp3142
g15
S'newString'
p3143
sg386
(lp3144
sba(idelphi
DelphiIntegerValue
p3145
(dp3146
g14
S'0'
sbasbasbsg388
(i__main__
DelphiIdentAccess
p3147
(dp3148
g15
S'newValue'
p3149
sg386
(lp3150
sbsba(idelphi
DelphiIfStatement
p3151
(dp3152
g395
(idelphi
DelphiRelOp
p3153
(dp3154
g398
(i__main__
DelphiIdentAccess
p3155
(dp3156
g15
S'self'
p3157
sg386
(lp3158
(idelphi
DelphiFieldEndAccess
p3159
(dp3160
g483
S'checkValueAgainstBounds'
p3161
sba(idelphi
DelphiFunctionEndAccess
p3162
(dp3163
g465
(lp3164
(i__main__
DelphiIdentAccess
p3165
(dp3166
g15
S'newValue'
p3167
sg386
(lp3168
sbasbasbsg403
(i__main__
DelphiIdentAccess
p3169
(dp3170
g15
S'newValue'
p3171
sg386
(lp3172
sbsg408
S'='
sbsg409
Nsg410
(idelphi
DelphiCompoundStatement
p3173
(dp3174
g378
(lp3175
(i__main__
DelphiAssignStatement
p3176
(dp3177
g382
(i__main__
DelphiIdentAccess
p3178
(dp3179
g15
S'newValue'
p3180
sg386
(lp3181
sbsg388
(i__main__
DelphiIdentAccess
p3182
(dp3183
g15
S'currentValue'
p3184
sg386
(lp3185
sbsba(i__main__
DelphiAssignStatement
p3186
(dp3187
g382
Nsg388
(i__main__
DelphiIdentAccess
p3188
(dp3189
g15
S'MainForm'
p3190
sg386
(lp3191
(idelphi
DelphiFieldEndAccess
p3192
(dp3193
g483
S'doCommand'
p3194
sba(idelphi
DelphiFunctionEndAccess
p3195
(dp3196
g465
(lp3197
(i__main__
DelphiIdentAccess
p3198
(dp3199
g15
S'PdChangeSmallintValueCommand'
p3200
sg386
(lp3201
(idelphi
DelphiFieldEndAccess
p3202
(dp3203
g483
S'createCommandWithListOfPlants'
p3204
sba(idelphi
DelphiFunctionEndAccess
p3205
(dp3206
g465
(lp3207
(i__main__
DelphiIdentAccess
p3208
(dp3209
g15
S'MainForm'
p3210
sg386
(lp3211
(idelphi
DelphiFieldEndAccess
p3212
(dp3213
g483
S'selectedPlants'
p3214
sbasba(i__main__
DelphiIdentAccess
p3215
(dp3216
g15
S'currentValue'
p3217
sg386
(lp3218
sba(i__main__
DelphiIdentAccess
p3219
(dp3220
g15
S'param'
p3221
sg386
(lp3222
(idelphi
DelphiFieldEndAccess
p3223
(dp3224
g483
S'fieldNumber'
p3225
sbasba(i__main__
DelphiIdentAccess
p3226
(dp3227
g15
S'kNotArray'
p3228
sg386
(lp3229
sba(i__main__
DelphiIdentAccess
p3230
(dp3231
g15
S'param'
p3232
sg386
(lp3233
(idelphi
DelphiFieldEndAccess
p3234
(dp3235
g483
S'regrow'
p3236
sbasbasbasbasbasbsba(i__main__
DelphiAssignStatement
p3237
(dp3238
g382
Nsg388
(i__main__
DelphiIdentAccess
p3239
(dp3240
g15
S'self'
p3241
sg386
(lp3242
(idelphi
DelphiFieldEndAccess
p3243
(dp3244
g483
S'updateDisplay'
p3245
sbasbsba(i__main__
DelphiAssignStatement
p3246
(dp3247
g382
Nsg388
(i__main__
DelphiIdentAccess
p3248
(dp3249
g15
S'self'
p3250
sg386
(lp3251
(idelphi
DelphiFieldEndAccess
p3252
(dp3253
g483
S'invalidate'
p3254
sbasbsbasbsbasbsbsbasbsg443
(lp3255
(i__main__
DelphiVarSection
p3256
(dp3257
g29
I0
sg951
(lp3258
(idelphi
DelphiVarDecl
p3259
(dp3260
g11
Nsg955
(lp3261
S'newString'
p3262
asg17
(i__main__
DelphiNamedType
p3263
(dp3264
g20
S'ansistring'
p3265
sg94
g1
sg95
Nsbsba(idelphi
DelphiVarDecl
p3266
(dp3267
g11
Nsg955
(lp3268
S'oldValue'
p3269
aS'newValue'
p3270
asg17
(i__main__
DelphiPrimitiveType
p3271
(dp3272
g20
g279
sbsba(idelphi
DelphiVarDecl
p3273
(dp3274
g11
Nsg955
(lp3275
S'oldString'
p3276
aS'prompt'
p3277
aS'nameString'
p3278
aS'unitString'
p3279
asg17
(i__main__
DelphiPrimitiveType
p3280
(dp3281
g20
g14
sbsbasbasbsbsS'initialize'
p3282
(i__main__
DelphiMethodImplementation
p3283
(dp3284
g350
g264
sg56
g266
sg64
(lp3285
sg358
(lp3286
sg360
(lp3287
sg362
(lp3288
g364
asg365
(dp3289
sg66
S'PdSmallintParameterPanel'
p3290
sg67
Nsg370
(lp3291
sg71
I0
sg72
g79
sg372
(i__main__
DelphiBlock
p3292
(dp3293
g375
(idelphi
DelphiCompoundStatement
p3294
(dp3295
g378
(lp3296
(i__main__
DelphiAssignStatement
p3297
(dp3298
g382
(i__main__
DelphiIdentAccess
p3299
(dp3300
g15
S'KfSlider'
p3301
sg386
(lp3302
(idelphi
DelphiFieldEndAccess
p3303
(dp3304
g483
S'create'
p3305
sba(idelphi
DelphiFunctionEndAccess
p3306
(dp3307
g465
(lp3308
(i__main__
DelphiIdentAccess
p3309
(dp3310
g15
S'self'
p3311
sg386
(lp3312
sbasbasbsg388
(i__main__
DelphiIdentAccess
p3313
(dp3314
g15
S'slider'
p3315
sg386
(lp3316
sbsg1109
(lp3317
S'assuming slider will be deleted automatically by owner - self - otherwise would have destructor'
p3318
asba(i__main__
DelphiAssignStatement
p3319
(dp3320
g382
(i__main__
DelphiIdentAccess
p3321
(dp3322
g15
S'self'
p3323
sg386
(lp3324
sbsg388
(i__main__
DelphiIdentAccess
p3325
(dp3326
g15
S'slider'
p3327
sg386
(lp3328
(idelphi
DelphiFieldEndAccess
p3329
(dp3330
g483
S'parent'
p3331
sbasbsba(i__main__
DelphiAssignStatement
p3332
(dp3333
g382
(i__main__
DelphiIdentAccess
p3334
(dp3335
g15
S'self'
p3336
sg386
(lp3337
(idelphi
DelphiFieldEndAccess
p3338
(dp3339
g483
S'sliderMouseDown'
p3340
sbasbsg388
(i__main__
DelphiIdentAccess
p3341
(dp3342
g15
S'slider'
p3343
sg386
(lp3344
(idelphi
DelphiFieldEndAccess
p3345
(dp3346
g483
S'FOnMouseDown'
p3347
sbasbsba(i__main__
DelphiAssignStatement
p3348
(dp3349
g382
(i__main__
DelphiIdentAccess
p3350
(dp3351
g15
S'self'
p3352
sg386
(lp3353
(idelphi
DelphiFieldEndAccess
p3354
(dp3355
g483
S'sliderMouseMove'
p3356
sbasbsg388
(i__main__
DelphiIdentAccess
p3357
(dp3358
g15
S'slider'
p3359
sg386
(lp3360
(idelphi
DelphiFieldEndAccess
p3361
(dp3362
g483
S'FOnMouseMove'
p3363
sbasbsba(i__main__
DelphiAssignStatement
p3364
(dp3365
g382
(i__main__
DelphiIdentAccess
p3366
(dp3367
g15
S'self'
p3368
sg386
(lp3369
(idelphi
DelphiFieldEndAccess
p3370
(dp3371
g483
S'sliderMouseUp'
p3372
sbasbsg388
(i__main__
DelphiIdentAccess
p3373
(dp3374
g15
S'slider'
p3375
sg386
(lp3376
(idelphi
DelphiFieldEndAccess
p3377
(dp3378
g483
S'FOnMouseUp'
p3379
sbasbsba(i__main__
DelphiAssignStatement
p3380
(dp3381
g382
(i__main__
DelphiIdentAccess
p3382
(dp3383
g15
S'self'
p3384
sg386
(lp3385
(idelphi
DelphiFieldEndAccess
p3386
(dp3387
g483
S'sliderKeyDown'
p3388
sbasbsg388
(i__main__
DelphiIdentAccess
p3389
(dp3390
g15
S'slider'
p3391
sg386
(lp3392
(idelphi
DelphiFieldEndAccess
p3393
(dp3394
g483
S'FOnKeyDown'
p3395
sbasbsba(i__main__
DelphiAssignStatement
p3396
(dp3397
g382
(i__main__
DelphiIdentAccess
p3398
(dp3399
g15
S'param'
p3400
sg386
(lp3401
(idelphi
DelphiFieldEndAccess
p3402
(dp3403
g483
S'readOnly'
p3404
sbasbsg388
(i__main__
DelphiIdentAccess
p3405
(dp3406
g15
S'slider'
p3407
sg386
(lp3408
(idelphi
DelphiFieldEndAccess
p3409
(dp3410
g483
S'readOnly'
p3411
sbasbsba(i__main__
DelphiAssignStatement
p3412
(dp3413
g382
Nsg388
(i__main__
DelphiIdentAccess
p3414
(dp3415
g15
S'slider'
p3416
sg386
(lp3417
(idelphi
DelphiFieldEndAccess
p3418
(dp3419
g483
S'useDefaultSizeAndDraggerSize'
p3420
sbasbsba(i__main__
DelphiAssignStatement
p3421
(dp3422
g382
(i__main__
DelphiIdentAccess
p3423
(dp3424
g15
S'round'
p3425
sg386
(lp3426
(idelphi
DelphiFunctionEndAccess
p3427
(dp3428
g465
(lp3429
(i__main__
DelphiIdentAccess
p3430
(dp3431
g15
S'param'
p3432
sg386
(lp3433
(idelphi
DelphiFieldEndAccess
p3434
(dp3435
g483
S'lowerBound'
p3436
sbasbasbasbsg388
(i__main__
DelphiIdentAccess
p3437
(dp3438
g15
S'minValue'
p3439
sg386
(lp3440
sbsba(i__main__
DelphiAssignStatement
p3441
(dp3442
g382
(i__main__
DelphiIdentAccess
p3443
(dp3444
g15
S'round'
p3445
sg386
(lp3446
(idelphi
DelphiFunctionEndAccess
p3447
(dp3448
g465
(lp3449
(i__main__
DelphiIdentAccess
p3450
(dp3451
g15
S'param'
p3452
sg386
(lp3453
(idelphi
DelphiFieldEndAccess
p3454
(dp3455
g483
S'upperBound'
p3456
sbasbasbasbsg388
(i__main__
DelphiIdentAccess
p3457
(dp3458
g15
S'maxValue'
p3459
sg386
(lp3460
sbsba(i__main__
DelphiAssignStatement
p3461
(dp3462
g382
(i__main__
DelphiIdentAccess
p3463
(dp3464
g15
S'minValue'
p3465
sg386
(lp3466
sbsg388
(i__main__
DelphiIdentAccess
p3467
(dp3468
g15
S'slider'
p3469
sg386
(lp3470
(idelphi
DelphiFieldEndAccess
p3471
(dp3472
g483
S'minValue'
p3473
sbasbsba(i__main__
DelphiAssignStatement
p3474
(dp3475
g382
(i__main__
DelphiIdentAccess
p3476
(dp3477
g15
S'maxValue'
p3478
sg386
(lp3479
sbsg388
(i__main__
DelphiIdentAccess
p3480
(dp3481
g15
S'slider'
p3482
sg386
(lp3483
(idelphi
DelphiFieldEndAccess
p3484
(dp3485
g483
S'maxValue'
p3486
sbasbsbasbsg443
(lp3487
sbsbsS'resizeelements'
p3488
(i__main__
DelphiMethodImplementation
p3489
(dp3490
g350
g254
sg56
g256
sg64
(lp3491
sg358
(lp3492
sg360
(lp3493
sg362
(lp3494
g364
asg365
(dp3495
sg66
S'PdSmallintParameterPanel'
p3496
sg67
Nsg370
(lp3497
sg71
I0
sg72
g79
sg372
(i__main__
DelphiBlock
p3498
(dp3499
g375
(idelphi
DelphiCompoundStatement
p3500
(dp3501
g378
(lp3502
(i__main__
DelphiAssignStatement
p3503
(dp3504
g382
Nsg388
(i__main__
DelphiIdentAccess
p3505
(dp3506
g15
S'self'
p3507
sg386
(lp3508
(idelphi
DelphiFieldEndAccess
p3509
(dp3510
g483
S'paint'
p3511
sbasbsba(i__main__
DelphiAssignStatement
p3512
(dp3513
g382
(idelphi
DelphiAddOp
p3514
(dp3515
g562
S'+'
sg563
(i__main__
DelphiIdentAccess
p3516
(dp3517
g15
S'kSliderSpaceGap'
p3518
sg386
(lp3519
sbsg582
(i__main__
DelphiIdentAccess
p3520
(dp3521
g15
S'minTextRect'
p3522
sg386
(lp3523
(idelphi
DelphiFieldEndAccess
p3524
(dp3525
g483
S'right'
p3526
sbasbsbsg388
(i__main__
DelphiIdentAccess
p3527
(dp3528
g15
S'slider'
p3529
sg386
(lp3530
(idelphi
DelphiFieldEndAccess
p3531
(dp3532
g483
S'left'
p3533
sbasbsba(i__main__
DelphiAssignStatement
p3534
(dp3535
g382
(idelphi
DelphiAddOp
p3536
(dp3537
g562
S'-'
sg563
(idelphi
DelphiMulOp
p3538
(dp3539
g585
(idelphi
DelphiIntegerValue
p3540
(dp3541
g14
S'2'
sbsg588
S'div'
p3542
sg589
(i__main__
DelphiIdentAccess
p3543
(dp3544
g15
S'slider'
p3545
sg386
(lp3546
(idelphi
DelphiFieldEndAccess
p3547
(dp3548
g483
S'height'
p3549
sbasbsbsg582
(idelphi
DelphiAddOp
p3550
(dp3551
g562
S'+'
sg563
(idelphi
DelphiMulOp
p3552
(dp3553
g585
(idelphi
DelphiIntegerValue
p3554
(dp3555
g14
S'2'
sbsg588
g3542
sg589
(i__main__
DelphiIdentAccess
p3556
(dp3557
g15
S'self'
p3558
sg386
(lp3559
(idelphi
DelphiFieldEndAccess
p3560
(dp3561
g483
S'textHeight'
p3562
sbasbsbsg582
(i__main__
DelphiIdentAccess
p3563
(dp3564
g15
S'self'
p3565
sg386
(lp3566
(idelphi
DelphiFieldEndAccess
p3567
(dp3568
g483
S'collapsedHeight'
p3569
sbasbsbsbsg388
(i__main__
DelphiIdentAccess
p3570
(dp3571
g15
S'slider'
p3572
sg386
(lp3573
(idelphi
DelphiFieldEndAccess
p3574
(dp3575
g483
S'top'
p3576
sbasbsba(i__main__
DelphiAssignStatement
p3577
(dp3578
g382
(i__main__
DelphiIdentAccess
p3579
(dp3580
g15
S'intMax'
p3581
sg386
(lp3582
(idelphi
DelphiFunctionEndAccess
p3583
(dp3584
g465
(lp3585
(idelphi
DelphiIntegerValue
p3586
(dp3587
g14
S'0'
sba(idelphi
DelphiAddOp
p3588
(dp3589
g562
S'-'
sg563
(idelphi
DelphiMulOp
p3590
(dp3591
g585
(idelphi
DelphiIntegerValue
p3592
(dp3593
g14
S'2'
sbsg588
S'*'
sg589
(i__main__
DelphiIdentAccess
p3594
(dp3595
g15
S'kSliderSpaceGap'
p3596
sg386
(lp3597
sbsbsg582
(idelphi
DelphiAddOp
p3598
(dp3599
g562
S'-'
sg563
(i__main__
DelphiIdentAccess
p3600
(dp3601
g15
S'minTextRect'
p3602
sg386
(lp3603
(idelphi
DelphiFieldEndAccess
p3604
(dp3605
g483
S'right'
p3606
sbasbsg582
(i__main__
DelphiIdentAccess
p3607
(dp3608
g15
S'maxTextRect'
p3609
sg386
(lp3610
(idelphi
DelphiFieldEndAccess
p3611
(dp3612
g483
S'left'
p3613
sbasbsbsbasbasbsg388
(i__main__
DelphiIdentAccess
p3614
(dp3615
g15
S'slider'
p3616
sg386
(lp3617
(idelphi
DelphiFieldEndAccess
p3618
(dp3619
g483
S'width'
p3620
sbasbsbasbsg443
(lp3621
sbsbsS'updateplantvalues'
p3622
(i__main__
DelphiMethodImplementation
p3623
(dp3624
g350
g283
sg56
g285
sg64
(lp3625
sg358
(lp3626
sg360
(lp3627
sg362
(lp3628
g364
asg365
(dp3629
sg66
S'PdSmallintParameterPanel'
p3630
sg67
Nsg370
(lp3631
sg71
I0
sg72
g79
sg372
(i__main__
DelphiBlock
p3632
(dp3633
g375
(idelphi
DelphiCompoundStatement
p3634
(dp3635
g378
(lp3636
(idelphi
DelphiIfStatement
p3637
(dp3638
g395
(idelphi
DelphiRelOp
p3639
(dp3640
g398
(i__main__
DelphiIdentAccess
p3641
(dp3642
g15
S'plant'
p3643
sg386
(lp3644
sbsg403
(idelphi
DelphiNilValue
p3645
(dp3646
bsg408
S'='
sbsg409
Nsg410
(i__main__
DelphiExitStatement
p3647
(dp3648
g1114
g3623
sbsba(idelphi
DelphiIfStatement
p3649
(dp3650
g395
(i__main__
DelphiIdentAccess
p3651
(dp3652
g15
S'param'
p3653
sg386
(lp3654
(idelphi
DelphiFieldEndAccess
p3655
(dp3656
g483
S'collapsed'
p3657
sbasbsg409
Nsg410
(i__main__
DelphiExitStatement
p3658
(dp3659
g1114
g3623
sbsba(i__main__
DelphiAssignStatement
p3660
(dp3661
g382
(i__main__
DelphiIdentAccess
p3662
(dp3663
g15
S'currentValue'
p3664
sg386
(lp3665
sbsg388
(i__main__
DelphiIdentAccess
p3666
(dp3667
g15
S'oldValue'
p3668
sg386
(lp3669
sbsba(i__main__
DelphiAssignStatement
p3670
(dp3671
g382
Nsg388
(i__main__
DelphiIdentAccess
p3672
(dp3673
g15
S'self'
p3674
sg386
(lp3675
(idelphi
DelphiFieldEndAccess
p3676
(dp3677
g483
S'updateCurrentValue'
p3678
sba(idelphi
DelphiFunctionEndAccess
p3679
(dp3680
g465
(lp3681
(idelphi
DelphiSign
p3682
(dp3683
g821
(idelphi
DelphiIntegerValue
p3684
(dp3685
g14
S'1'
sbsg1575
S'-'
sbasbasbsba(idelphi
DelphiIfStatement
p3686
(dp3687
g395
(idelphi
DelphiRelOp
p3688
(dp3689
g398
(i__main__
DelphiIdentAccess
p3690
(dp3691
g15
S'oldValue'
p3692
sg386
(lp3693
sbsg403
(i__main__
DelphiIdentAccess
p3694
(dp3695
g15
S'currentValue'
p3696
sg386
(lp3697
sbsg408
g476
sbsg409
Nsg410
(idelphi
DelphiCompoundStatement
p3698
(dp3699
g378
(lp3700
(i__main__
DelphiAssignStatement
p3701
(dp3702
g382
Nsg388
(i__main__
DelphiIdentAccess
p3703
(dp3704
g15
S'updateDisplay'
p3705
sg386
(lp3706
sbsba(i__main__
DelphiAssignStatement
p3707
(dp3708
g382
Nsg388
(i__main__
DelphiIdentAccess
p3709
(dp3710
g15
S'invalidate'
p3711
sg386
(lp3712
sbsbasbsbasbsg443
(lp3713
(i__main__
DelphiVarSection
p3714
(dp3715
g29
I0
sg951
(lp3716
(idelphi
DelphiVarDecl
p3717
(dp3718
g11
Nsg955
(lp3719
S'oldValue'
p3720
asg17
(i__main__
DelphiPrimitiveType
p3721
(dp3722
g20
g70
sbsbasbasbsbssS'propertyDeclarations'
p3723
(dp3724
sS'variableNamesInDeclaredOrder'
p3725
(lp3726
g39
ag37
ag45
ag43
ag47
ag55
ag49
ag53
ag51
ag41
ag35
asg1109
(lp3727
S'  kItemUnitText = 2;    '
p3728
asbasS'includedUnits'
p3729
NsS'implementationUses'
p3730
(lp3731
S'SysUtils'
p3732
aS'Dialogs'
p3733
aS'Forms'
p3734
aS'umain'
p3735
aS'updcom'
p3736
aS'umath'
p3737
aS'uunits'
p3738
aS'usupport'
p3739
aS'udomain'
p3740
aS'udebug'
p3741
asg56
S'upp_int'
p3742
sS'constSections'
p3743
(lp3744
g5
asS'globalsInProperCase'
p3745
NsS'interfaceUses'
p3746
(lp3747
S'delphi_compatability'
p3748
aS'ExtCtrls'
p3749
aS'Classes'
p3750
aS'StdCtrls'
p3751
aS'Controls'
p3752
aS'WinTypes'
p3753
aS'Graphics'
p3754
aS'WinProcs'
p3755
aS'Messages'
p3756
aS'uplant'
p3757
aS'uparams'
p3758
aS'uppanel'
p3759
aS'usliders'
p3760
asS'finalCommentToken'
p3761
(i__main__
PassStatement
p3762
(dp3763
g443
(lp3764
sbsS'varSections'
p3765
(lp3766
sS'globals'
p3767
NsS'originalFileName'
p3768
S'../../PlantStudioInPython/converted_source/upp_int.pas'
p3769
sS'proceduralImplementations'
p3770
(dp3771
sS'fileName'
p3772
S'/Users/pdf/Documents/workspace/PlantStudioInPython/converted_source/upp_int.pas'
p3773
sS'proceduralDeclarations'
p3774
(dp3775
sS'types'
p3776
(dp3777
S'pdsmallintparameterpanel'
p3778
g30
ssb.