(i__main__
DelphiUnit
p1
(dp2
S'sectionsInOrderDefined'
p3
(lp4
(i__main__
DelphiClass
p5
(dp6
S'variableNamesInProperCase'
p7
(dp8
sS'name'
p9
S'PdHeaderParameterPanel'
p10
sS'methodDeclarations'
p11
(dp12
S'maxselecteditemindex'
p13
(i__main__
DelphiMethodDeclaration
p14
(dp15
g9
S'maxSelectedItemIndex'
p16
sS'formalParameters'
p17
(lp18
sS'className'
p19
g10
sS'resultType'
p20
(i__main__
DelphiPrimitiveType
p21
(dp22
S'typeName'
p23
S'integer'
p24
sbsS'isClassMethod'
p25
I0
sS'methodType'
p26
S'function'
p27
sbsS'updateenabling'
p28
(i__main__
DelphiMethodDeclaration
p29
(dp30
g9
S'updateEnabling'
p31
sg17
(lp32
sg19
g10
sg20
Nsg25
I0
sg26
S'procedure'
p33
sbsS'collapse'
p34
(i__main__
DelphiMethodDeclaration
p35
(dp36
g9
S'collapse'
p37
sg17
(lp38
sg19
g10
sg20
Nsg25
I0
sg26
g33
sbsS'maxwidth'
p39
(i__main__
DelphiMethodDeclaration
p40
(dp41
g9
S'maxWidth'
p42
sg17
(lp43
sg19
g10
sg20
(i__main__
DelphiPrimitiveType
p44
(dp45
g23
g24
sbsg25
I0
sg26
g27
sbsS'updatecurrentvalue'
p46
(i__main__
DelphiMethodDeclaration
p47
(dp48
g9
S'updateCurrentValue'
p49
sg17
(lp50
(i__main__
DelphiFormalParameter
p51
(dp52
S'initialValue'
p53
NsS'names'
p54
(lp55
S'aFieldIndex'
p56
asS'theType'
p57
(i__main__
DelphiPrimitiveType
p58
(dp59
g23
g24
sbsS'parameterVariety'
p60
Nsbasg19
g10
sg20
Nsg25
I0
sg26
g33
sbsS'uncollapsedheight'
p61
(i__main__
DelphiMethodDeclaration
p62
(dp63
g9
S'uncollapsedHeight'
p64
sg17
(lp65
sg19
g10
sg20
(i__main__
DelphiPrimitiveType
p66
(dp67
g23
g24
sbsg25
I0
sg26
g27
sbsS'dokeydown'
p68
(i__main__
DelphiMethodDeclaration
p69
(dp70
g9
S'doKeyDown'
p71
sg17
(lp72
(i__main__
DelphiFormalParameter
p73
(dp74
g53
Nsg54
(lp75
S'sender'
p76
asg57
(i__main__
DelphiNamedType
p77
(dp78
g23
S'TObject'
p79
sS'unitDefinedIn'
p80
g1
sS'unitName'
p81
Nsbsg60
Nsba(i__main__
DelphiFormalParameter
p82
(dp83
g53
Nsg54
(lp84
S'key'
p85
asg57
(i__main__
DelphiPrimitiveType
p86
(dp87
g23
S'word'
p88
sbsg60
S'var'
p89
sba(i__main__
DelphiFormalParameter
p90
(dp91
g53
Nsg54
(lp92
S'shift'
p93
asg57
(i__main__
DelphiNamedType
p94
(dp95
g23
S'TShiftState'
p96
sg80
g1
sg81
Nsbsg60
Nsbasg19
g10
sg20
Nsg25
I0
sg26
g33
sbsS'updatedisplay'
p97
(i__main__
DelphiMethodDeclaration
p98
(dp99
g9
S'updateDisplay'
p100
sg17
(lp101
sg19
g10
sg20
Nsg25
I0
sg26
g33
sbsS'resizeelements'
p102
(i__main__
DelphiMethodDeclaration
p103
(dp104
g9
S'resizeElements'
p105
sg17
(lp106
sg19
g10
sg20
Nsg25
I0
sg26
g33
sbsS'minwidth'
p107
(i__main__
DelphiMethodDeclaration
p108
(dp109
g9
S'minWidth'
p110
sg17
(lp111
(i__main__
DelphiFormalParameter
p112
(dp113
g53
Nsg54
(lp114
S'requestedWidth'
p115
asg57
(i__main__
DelphiPrimitiveType
p116
(dp117
g23
g24
sbsg60
Nsbasg19
g10
sg20
(i__main__
DelphiPrimitiveType
p118
(dp119
g23
g24
sbsg25
I0
sg26
g27
sbsS'paint'
p120
(i__main__
DelphiMethodDeclaration
p121
(dp122
g9
S'paint'
p123
sg17
(lp124
sg19
g10
sg20
Nsg25
I0
sg26
g33
sbsS'expand'
p125
(i__main__
DelphiMethodDeclaration
p126
(dp127
g9
S'expand'
p128
sg17
(lp129
sg19
g10
sg20
Nsg25
I0
sg26
g33
sbsS'fillwithbevels'
p130
(i__main__
DelphiMethodDeclaration
p131
(dp132
g9
S'fillWithBevels'
p133
sg17
(lp134
sg19
g10
sg20
Nsg25
I0
sg26
g33
sbsS'initialize'
p135
(i__main__
DelphiMethodDeclaration
p136
(dp137
g9
S'initialize'
p138
sg17
(lp139
sg19
g10
sg20
Nsg25
I0
sg26
g33
sbsS'domousedown'
p140
(i__main__
DelphiMethodDeclaration
p141
(dp142
g9
S'doMouseDown'
p143
sg17
(lp144
(i__main__
DelphiFormalParameter
p145
(dp146
g53
Nsg54
(lp147
S'Sender'
p148
asg57
(i__main__
DelphiNamedType
p149
(dp150
g23
S'TObject'
p151
sg80
g1
sg81
Nsbsg60
Nsba(i__main__
DelphiFormalParameter
p152
(dp153
g53
Nsg54
(lp154
S'Button'
p155
asg57
(i__main__
DelphiNamedType
p156
(dp157
g23
S'TMouseButton'
p158
sg80
g1
sg81
Nsbsg60
Nsba(i__main__
DelphiFormalParameter
p159
(dp160
g53
Nsg54
(lp161
S'Shift'
p162
asg57
(i__main__
DelphiNamedType
p163
(dp164
g23
S'TShiftState'
p165
sg80
g1
sg81
Nsbsg60
Nsba(i__main__
DelphiFormalParameter
p166
(dp167
g53
Nsg54
(lp168
S'X'
aS'Y'
asg57
(i__main__
DelphiPrimitiveType
p169
(dp170
g23
g24
sbsg60
Nsbasg19
g10
sg20
Nsg25
I0
sg26
g33
sbsS'updateplantvalues'
p171
(i__main__
DelphiMethodDeclaration
p172
(dp173
g9
S'updatePlantValues'
p174
sg17
(lp175
sg19
g10
sg20
Nsg25
I0
sg26
g33
sbsS'collapseorexpand'
p176
(i__main__
DelphiMethodDeclaration
p177
(dp178
g9
S'collapseOrExpand'
p179
sg17
(lp180
(i__main__
DelphiFormalParameter
p181
(dp182
g53
Nsg54
(lp183
S'y'
asg57
(i__main__
DelphiPrimitiveType
p184
(dp185
g23
g24
sbsg60
Nsbasg19
g10
sg20
Nsg25
I0
sg26
g33
sbssS'superclassNamedTypes'
p186
(lp187
(i__main__
DelphiNamedType
p188
(dp189
g23
S'PdParameterPanel'
p190
sg80
g1
sg81
NsbasS'variableNames'
p191
(dp192
sS'methodNamesInDefinedOrder'
p193
(lp194
S'collapseorexpand'
p195
aS'collapse'
p196
aS'expand'
p197
aS'initialize'
p198
aS'updateenabling'
p199
aS'updateplantvalues'
p200
aS'updatecurrentvalue'
p201
aS'updatedisplay'
p202
aS'domousedown'
p203
aS'dokeydown'
p204
aS'maxwidth'
p205
aS'minwidth'
p206
aS'uncollapsedheight'
p207
aS'maxselecteditemindex'
p208
aS'resizeelements'
p209
aS'paint'
p210
aS'fillwithbevels'
p211
asS'methodImplementations'
p212
(dp213
S'maxselecteditemindex'
p214
(i__main__
DelphiMethodImplementation
p215
(dp216
S'originalDeclaration'
p217
g14
sg9
g16
sg17
(lp218
sS'varParamIndexes'
p219
(lp220
sS'varParamsSkipped'
p221
(lp222
sS'argNames'
p223
(lp224
S'self'
p225
asS'argTypes'
p226
(dp227
sg19
S'PdHeaderParameterPanel'
p228
sg20
(i__main__
DelphiPrimitiveType
p229
(dp230
g23
g24
sbsS'varParamNames'
p231
(lp232
sg25
I0
sg26
g27
sS'block'
p233
(i__main__
DelphiBlock
p234
(dp235
S'compoundStatement'
p236
(idelphi
DelphiCompoundStatement
p237
(dp238
S'statements'
p239
(lp240
(i__main__
DelphiAssignStatement
p241
(dp242
S'newValueExpression'
p243
(i__main__
DelphiIdentAccess
p244
(dp245
S'ident'
p246
S'kItemLabel'
p247
sS'endAccessList'
p248
(lp249
sbsS'destinationExpression'
p250
(i__main__
DelphiIdentAccess
p251
(dp252
g246
S'result'
p253
sg248
(lp254
sbsbasbsS'limitedDeclSectionList'
p255
(lp256
sbsbsS'updateenabling'
p257
(i__main__
DelphiMethodImplementation
p258
(dp259
g217
g29
sg9
g31
sg17
(lp260
sg219
(lp261
sg221
(lp262
sg223
(lp263
g225
asg226
(dp264
sg19
S'PdHeaderParameterPanel'
p265
sg20
Nsg231
(lp266
sg25
I0
sg26
g33
sg233
(i__main__
DelphiBlock
p267
(dp268
g236
(idelphi
DelphiCompoundStatement
p269
(dp270
g239
(lp271
(i__main__
DelphiAssignStatement
p272
(dp273
g243
Nsg250
(idelphi
DelphiInheritedCall
p274
(dp275
g246
S'updateEnabling'
p276
sS'expressionList'
p277
NsbsbasS'commentLinesBefore'
p278
(lp279
S' grey out if no plant, but nothing else '
p280
asbsg255
(lp281
sbsbsS'fillwithbevels'
p282
(i__main__
DelphiMethodImplementation
p283
(dp284
g217
g131
sg9
g133
sg17
(lp285
sg219
(lp286
sg221
(lp287
sg223
(lp288
g225
asg226
(dp289
sg19
S'PdHeaderParameterPanel'
p290
sg20
Nsg231
(lp291
sg25
I0
sg26
g33
sg233
(i__main__
DelphiBlock
p292
(dp293
g236
(idelphi
DelphiCompoundStatement
p294
(dp295
g239
(lp296
(i__main__
DelphiAssignStatement
p297
(dp298
g243
(i__main__
DelphiIdentAccess
p299
(dp300
g246
S'getClientRect'
p301
sg248
(lp302
sbsg250
(i__main__
DelphiIdentAccess
p303
(dp304
g246
S'fullRect'
p305
sg248
(lp306
sbsg278
(lp307
S' PDF PORT -- moved nested function inline\r'
p308
aS'procedure AdjustColors(Bevel: TPanelBevel);\r'
p309
aS'  begin\r'
p310
aS'  TopColor := clBtnHighlight;\r'
p311
aS'  if Bevel = bvLowered then TopColor := clBtnShadow;\r'
p312
aS'  BottomColor := clBtnShadow;\r'
p313
aS'  if Bevel = bvLowered then BottomColor := clBtnHighlight;\r'
p314
aS'  end;\r'
p315
asba(idelphi
DelphiWithStatement
p316
(dp317
S'statement'
p318
(idelphi
DelphiCompoundStatement
p319
(dp320
g239
(lp321
(idelphi
DelphiIfStatement
p322
(dp323
S'expression'
p324
(idelphi
DelphiRelOp
p325
(dp326
S'simpleExpression1'
p327
(i__main__
DelphiIdentAccess
p328
(dp329
g246
S'self'
p330
sg248
(lp331
(idelphi
DelphiFieldEndAccess
p332
(dp333
S'field'
p334
S'plant'
p335
sbasbsS'simpleExpression2'
p336
(idelphi
DelphiNilValue
p337
(dp338
bsS'relOp'
p339
S'<>'
p340
sbsS'ifFalseStatement'
p341
(i__main__
DelphiAssignStatement
p342
(dp343
g243
(i__main__
DelphiIdentAccess
p344
(dp345
g246
S'clBtnShadow'
p346
sg248
(lp347
sbsg250
(i__main__
DelphiIdentAccess
p348
(dp349
g246
S'brush'
p350
sg248
(lp351
(idelphi
DelphiFieldEndAccess
p352
(dp353
g334
S'color'
p354
sbasbsbsS'ifTrueStatement'
p355
(i__main__
DelphiAssignStatement
p356
(dp357
g243
(i__main__
DelphiIdentAccess
p358
(dp359
g246
S'clNavy'
p360
sg248
(lp361
sbsg250
(i__main__
DelphiIdentAccess
p362
(dp363
g246
S'brush'
p364
sg248
(lp365
(idelphi
DelphiFieldEndAccess
p366
(dp367
g334
S'color'
p368
sbasbsbsba(i__main__
DelphiAssignStatement
p369
(dp370
g243
Nsg250
(i__main__
DelphiIdentAccess
p371
(dp372
g246
S'fillRect'
p373
sg248
(lp374
(idelphi
DelphiFunctionEndAccess
p375
(dp376
g277
(lp377
(i__main__
DelphiIdentAccess
p378
(dp379
g246
S'fullRect'
p380
sg248
(lp381
sbasbasbsba(i__main__
DelphiAssignStatement
p382
(dp383
g243
(i__main__
DelphiIdentAccess
p384
(dp385
g246
S'bsClear'
p386
sg248
(lp387
sbsg250
(i__main__
DelphiIdentAccess
p388
(dp389
g246
S'brush'
p390
sg248
(lp391
(idelphi
DelphiFieldEndAccess
p392
(dp393
g334
S'style'
p394
sbasbsbasbsS'variableReferenceList'
p395
(lp396
(i__main__
DelphiIdentAccess
p397
(dp398
g246
S'canvas'
p399
sg248
(lp400
sbasba(idelphi
DelphiIfStatement
p401
(dp402
g324
(idelphi
DelphiRelOp
p403
(dp404
g327
(i__main__
DelphiIdentAccess
p405
(dp406
g246
S'BevelOuter'
p407
sg248
(lp408
sbsg336
(i__main__
DelphiIdentAccess
p409
(dp410
g246
S'bvNone'
p411
sg248
(lp412
sbsg339
g340
sbsg341
Nsg355
(idelphi
DelphiCompoundStatement
p413
(dp414
g239
(lp415
(i__main__
DelphiAssignStatement
p416
(dp417
g243
(i__main__
DelphiIdentAccess
p418
(dp419
g246
S'clBtnHighlight'
p420
sg248
(lp421
sbsg250
(i__main__
DelphiIdentAccess
p422
(dp423
g246
S'TopColor'
p424
sg248
(lp425
sbsg278
(lp426
S'AdjustColors(BevelOuter);\r'
p427
asba(idelphi
DelphiIfStatement
p428
(dp429
g324
(idelphi
DelphiRelOp
p430
(dp431
g327
(i__main__
DelphiIdentAccess
p432
(dp433
g246
S'BevelOuter'
p434
sg248
(lp435
sbsg336
(i__main__
DelphiIdentAccess
p436
(dp437
g246
S'bvLowered'
p438
sg248
(lp439
sbsg339
S'='
sbsg341
Nsg355
(i__main__
DelphiAssignStatement
p440
(dp441
g243
(i__main__
DelphiIdentAccess
p442
(dp443
g246
S'clBtnShadow'
p444
sg248
(lp445
sbsg250
(i__main__
DelphiIdentAccess
p446
(dp447
g246
S'TopColor'
p448
sg248
(lp449
sbsbsba(i__main__
DelphiAssignStatement
p450
(dp451
g243
(i__main__
DelphiIdentAccess
p452
(dp453
g246
S'clBtnShadow'
p454
sg248
(lp455
sbsg250
(i__main__
DelphiIdentAccess
p456
(dp457
g246
S'BottomColor'
p458
sg248
(lp459
sbsba(idelphi
DelphiIfStatement
p460
(dp461
g324
(idelphi
DelphiRelOp
p462
(dp463
g327
(i__main__
DelphiIdentAccess
p464
(dp465
g246
S'BevelOuter'
p466
sg248
(lp467
sbsg336
(i__main__
DelphiIdentAccess
p468
(dp469
g246
S'bvLowered'
p470
sg248
(lp471
sbsg339
S'='
sbsg341
Nsg355
(i__main__
DelphiAssignStatement
p472
(dp473
g243
(i__main__
DelphiIdentAccess
p474
(dp475
g246
S'clBtnHighlight'
p476
sg248
(lp477
sbsg250
(i__main__
DelphiIdentAccess
p478
(dp479
g246
S'BottomColor'
p480
sg248
(lp481
sbsbsba(i__main__
DelphiAssignStatement
p482
(dp483
g243
Nsg250
(i__main__
DelphiIdentAccess
p484
(dp485
g246
S'Frame3D'
p486
sg248
(lp487
(idelphi
DelphiFunctionEndAccess
p488
(dp489
g277
(lp490
(i__main__
DelphiIdentAccess
p491
(dp492
g246
S'Canvas'
p493
sg248
(lp494
sba(i__main__
DelphiIdentAccess
p495
(dp496
g246
S'fullRect'
p497
sg248
(lp498
sba(i__main__
DelphiIdentAccess
p499
(dp500
g246
S'TopColor'
p501
sg248
(lp502
sba(i__main__
DelphiIdentAccess
p503
(dp504
g246
S'BottomColor'
p505
sg248
(lp506
sba(i__main__
DelphiIdentAccess
p507
(dp508
g246
S'BevelWidth'
p509
sg248
(lp510
sbasbasbsbasbsba(i__main__
DelphiAssignStatement
p511
(dp512
g243
Nsg250
(i__main__
DelphiIdentAccess
p513
(dp514
g246
S'Frame3D'
p515
sg248
(lp516
(idelphi
DelphiFunctionEndAccess
p517
(dp518
g277
(lp519
(i__main__
DelphiIdentAccess
p520
(dp521
g246
S'Canvas'
p522
sg248
(lp523
sba(i__main__
DelphiIdentAccess
p524
(dp525
g246
S'fullRect'
p526
sg248
(lp527
sba(i__main__
DelphiIdentAccess
p528
(dp529
g246
S'Color'
p530
sg248
(lp531
sba(i__main__
DelphiIdentAccess
p532
(dp533
g246
S'Color'
p534
sg248
(lp535
sba(i__main__
DelphiIdentAccess
p536
(dp537
g246
S'BorderWidth'
p538
sg248
(lp539
sbasbasbsba(idelphi
DelphiIfStatement
p540
(dp541
g324
(idelphi
DelphiRelOp
p542
(dp543
g327
(i__main__
DelphiIdentAccess
p544
(dp545
g246
S'BevelInner'
p546
sg248
(lp547
sbsg336
(i__main__
DelphiIdentAccess
p548
(dp549
g246
S'bvNone'
p550
sg248
(lp551
sbsg339
g340
sbsg341
Nsg355
(idelphi
DelphiCompoundStatement
p552
(dp553
g239
(lp554
(i__main__
DelphiAssignStatement
p555
(dp556
g243
Nsg250
(i__main__
DelphiIdentAccess
p557
(dp558
g246
S'AdjustColors'
p559
sg248
(lp560
(idelphi
DelphiFunctionEndAccess
p561
(dp562
g277
(lp563
(i__main__
DelphiIdentAccess
p564
(dp565
g246
S'BevelInner'
p566
sg248
(lp567
sbasbasbsba(i__main__
DelphiAssignStatement
p568
(dp569
g243
(i__main__
DelphiIdentAccess
p570
(dp571
g246
S'clBtnHighlight'
p572
sg248
(lp573
sbsg250
(i__main__
DelphiIdentAccess
p574
(dp575
g246
S'TopColor'
p576
sg248
(lp577
sbsba(idelphi
DelphiIfStatement
p578
(dp579
g324
(idelphi
DelphiRelOp
p580
(dp581
g327
(i__main__
DelphiIdentAccess
p582
(dp583
g246
S'BevelInner'
p584
sg248
(lp585
sbsg336
(i__main__
DelphiIdentAccess
p586
(dp587
g246
S'bvLowered'
p588
sg248
(lp589
sbsg339
S'='
sbsg341
Nsg355
(i__main__
DelphiAssignStatement
p590
(dp591
g243
(i__main__
DelphiIdentAccess
p592
(dp593
g246
S'clBtnShadow'
p594
sg248
(lp595
sbsg250
(i__main__
DelphiIdentAccess
p596
(dp597
g246
S'TopColor'
p598
sg248
(lp599
sbsbsba(i__main__
DelphiAssignStatement
p600
(dp601
g243
(i__main__
DelphiIdentAccess
p602
(dp603
g246
S'clBtnShadow'
p604
sg248
(lp605
sbsg250
(i__main__
DelphiIdentAccess
p606
(dp607
g246
S'BottomColor'
p608
sg248
(lp609
sbsba(idelphi
DelphiIfStatement
p610
(dp611
g324
(idelphi
DelphiRelOp
p612
(dp613
g327
(i__main__
DelphiIdentAccess
p614
(dp615
g246
S'BevelInner'
p616
sg248
(lp617
sbsg336
(i__main__
DelphiIdentAccess
p618
(dp619
g246
S'bvLowered'
p620
sg248
(lp621
sbsg339
S'='
sbsg341
Nsg355
(i__main__
DelphiAssignStatement
p622
(dp623
g243
(i__main__
DelphiIdentAccess
p624
(dp625
g246
S'clBtnHighlight'
p626
sg248
(lp627
sbsg250
(i__main__
DelphiIdentAccess
p628
(dp629
g246
S'BottomColor'
p630
sg248
(lp631
sbsbsba(i__main__
DelphiAssignStatement
p632
(dp633
g243
Nsg250
(i__main__
DelphiIdentAccess
p634
(dp635
g246
S'Frame3D'
p636
sg248
(lp637
(idelphi
DelphiFunctionEndAccess
p638
(dp639
g277
(lp640
(i__main__
DelphiIdentAccess
p641
(dp642
g246
S'Canvas'
p643
sg248
(lp644
sba(i__main__
DelphiIdentAccess
p645
(dp646
g246
S'fullRect'
p647
sg248
(lp648
sba(i__main__
DelphiIdentAccess
p649
(dp650
g246
S'TopColor'
p651
sg248
(lp652
sba(i__main__
DelphiIdentAccess
p653
(dp654
g246
S'BottomColor'
p655
sg248
(lp656
sba(i__main__
DelphiIdentAccess
p657
(dp658
g246
S'BevelWidth'
p659
sg248
(lp660
sbasbasbsbasbsbasbsg255
(lp661
(i__main__
DelphiVarSection
p662
(dp663
S'atTopLevel'
p664
I0
sS'varDeclList'
p665
(lp666
(idelphi
DelphiVarDecl
p667
(dp668
S'constExpression'
p669
NsS'identList'
p670
(lp671
S'fullRect'
p672
asg57
(i__main__
DelphiNamedType
p673
(dp674
g23
S'TRect'
p675
sg80
g1
sg81
Nsbsba(idelphi
DelphiVarDecl
p676
(dp677
g669
Nsg670
(lp678
S'TopColor'
p679
aS'BottomColor'
p680
asg57
(i__main__
DelphiNamedType
p681
(dp682
g23
S'TColor'
p683
sg80
g1
sg81
NsbsbasbasbsbsS'collapse'
p684
(i__main__
DelphiMethodImplementation
p685
(dp686
g217
g35
sg9
g37
sg17
(lp687
sg219
(lp688
sg221
(lp689
sg223
(lp690
g225
asg226
(dp691
sg19
S'PdHeaderParameterPanel'
p692
sg20
Nsg231
(lp693
sg25
I0
sg26
g33
sg233
(i__main__
DelphiBlock
p694
(dp695
g236
(idelphi
DelphiCompoundStatement
p696
(dp697
g239
(lp698
(idelphi
DelphiIfStatement
p699
(dp700
g324
(i__main__
DelphiIdentAccess
p701
(dp702
g246
S'param'
p703
sg248
(lp704
(idelphi
DelphiFieldEndAccess
p705
(dp706
g334
S'collapsed'
p707
sbasbsg341
Nsg355
(i__main__
DelphiExitStatement
p708
(dp709
S'proceduralOrMethodImplementation'
p710
g685
sbsba(idelphi
DelphiIfStatement
p711
(dp712
g324
(idelphi
DelphiNestedExpressionListAccess
p713
(dp714
g248
(lp715
sg277
(lp716
(idelphi
DelphiRelOp
p717
(dp718
g327
(i__main__
DelphiIdentAccess
p719
(dp720
g246
S'owner'
p721
sg248
(lp722
sbsg336
(idelphi
DelphiNilValue
p723
(dp724
bsg339
g340
sbasbsg341
Nsg355
(i__main__
DelphiAssignStatement
p725
(dp726
g243
Nsg250
(i__main__
DelphiIdentAccess
p727
(dp728
g246
S'TMainForm'
p729
sg248
(lp730
(idelphi
DelphiFunctionEndAccess
p731
(dp732
g277
(lp733
(i__main__
DelphiIdentAccess
p734
(dp735
g246
S'owner'
p736
sg248
(lp737
sbasba(idelphi
DelphiFieldEndAccess
p738
(dp739
g334
S'collapseOrExpandParameterPanelsUntilNextHeader'
p740
sba(idelphi
DelphiFunctionEndAccess
p741
(dp742
g277
(lp743
(i__main__
DelphiIdentAccess
p744
(dp745
g246
S'self'
p746
sg248
(lp747
sbasbasbsbsba(i__main__
DelphiAssignStatement
p748
(dp749
g243
(i__main__
DelphiIdentAccess
p750
(dp751
g246
S'true'
p752
sg248
(lp753
sbsg250
(i__main__
DelphiIdentAccess
p754
(dp755
g246
S'param'
p756
sg248
(lp757
(idelphi
DelphiFieldEndAccess
p758
(dp759
g334
S'collapsed'
p760
sbasbsbasbsg255
(lp761
sbsbsS'maxwidth'
p762
(i__main__
DelphiMethodImplementation
p763
(dp764
g217
g40
sg9
g42
sg17
(lp765
sg219
(lp766
sg221
(lp767
sg223
(lp768
g225
asg226
(dp769
sg19
S'PdHeaderParameterPanel'
p770
sg20
(i__main__
DelphiPrimitiveType
p771
(dp772
g23
g24
sbsg231
(lp773
sg25
I0
sg26
g27
sg233
(i__main__
DelphiBlock
p774
(dp775
g236
(idelphi
DelphiCompoundStatement
p776
(dp777
g239
(lp778
(i__main__
DelphiAssignStatement
p779
(dp780
g243
(idelphi
DelphiAddOp
p781
(dp782
S'addOp'
p783
S'+'
sS'term2'
p784
(i__main__
DelphiIdentAccess
p785
(dp786
g246
S'self'
p787
sg248
(lp788
(idelphi
DelphiFieldEndAccess
p789
(dp790
g334
S'longestLabelWordWidth'
p791
sbasbsS'term1'
p792
(idelphi
DelphiMulOp
p793
(dp794
S'signedFactor2'
p795
(idelphi
DelphiIntegerValue
p796
(dp797
S'string'
p798
S'2'
sbsS'mulOp'
p799
S'*'
sS'signedFactor1'
p800
(i__main__
DelphiIdentAccess
p801
(dp802
g246
S'kLeftRightGap'
p803
sg248
(lp804
sbsbsbsg250
(i__main__
DelphiIdentAccess
p805
(dp806
g246
S'result'
p807
sg248
(lp808
sbsbasbsg255
(lp809
sbsbsS'updatecurrentvalue'
p810
(i__main__
DelphiMethodImplementation
p811
(dp812
g217
g47
sg9
g49
sg17
(lp813
(i__main__
DelphiFormalParameter
p814
(dp815
g53
Nsg54
(lp816
S'aFieldIndex'
p817
asg57
(i__main__
DelphiPrimitiveType
p818
(dp819
g23
g24
sbsg60
Nsbasg219
(lp820
sg221
(lp821
sg223
(lp822
g225
ag817
asg226
(dp823
g817
g818
ssg19
S'PdHeaderParameterPanel'
p824
sg20
Nsg231
(lp825
sg25
I0
sg26
g33
sg233
(i__main__
DelphiBlock
p826
(dp827
g236
(idelphi
DelphiCompoundStatement
p828
(dp829
g239
Nsg278
(lp830
S' nothing '
p831
asbsg255
(lp832
sbsbsS'uncollapsedheight'
p833
(i__main__
DelphiMethodImplementation
p834
(dp835
g217
g62
sg9
g64
sg17
(lp836
sg219
(lp837
sg221
(lp838
sg223
(lp839
g225
asg226
(dp840
sg19
S'PdHeaderParameterPanel'
p841
sg20
(i__main__
DelphiPrimitiveType
p842
(dp843
g23
g24
sbsg231
(lp844
sg25
I0
sg26
g27
sg233
(i__main__
DelphiBlock
p845
(dp846
g236
(idelphi
DelphiCompoundStatement
p847
(dp848
g239
(lp849
(i__main__
DelphiAssignStatement
p850
(dp851
g243
(i__main__
DelphiIdentAccess
p852
(dp853
g246
S'self'
p854
sg248
(lp855
(idelphi
DelphiFieldEndAccess
p856
(dp857
g334
S'collapsedHeight'
p858
sbasbsg250
(i__main__
DelphiIdentAccess
p859
(dp860
g246
S'result'
p861
sg248
(lp862
sbsbasbsg255
(lp863
sbsbsS'dokeydown'
p864
(i__main__
DelphiMethodImplementation
p865
(dp866
g217
g69
sg9
g71
sg17
(lp867
(i__main__
DelphiFormalParameter
p868
(dp869
g53
Nsg54
(lp870
S'sender'
p871
asg57
(i__main__
DelphiNamedType
p872
(dp873
g23
S'TObject'
p874
sg80
g1
sg81
Nsbsg60
Nsba(i__main__
DelphiFormalParameter
p875
(dp876
g53
Nsg54
(lp877
S'key'
p878
asg57
(i__main__
DelphiPrimitiveType
p879
(dp880
g23
g88
sbsg60
g89
sba(i__main__
DelphiFormalParameter
p881
(dp882
g53
Nsg54
(lp883
S'shift'
p884
asg57
(i__main__
DelphiNamedType
p885
(dp886
g23
S'TShiftState'
p887
sg80
g1
sg81
Nsbsg60
Nsbasg219
(lp888
I1
asg221
(lp889
sg223
(lp890
g225
ag871
ag878
ag884
asg226
(dp891
g884
g885
sg871
g872
sg878
g879
ssg19
S'PdHeaderParameterPanel'
p892
sg20
Nsg231
(lp893
g878
asg25
I0
sg26
g33
sg233
(i__main__
DelphiBlock
p894
(dp895
g236
(idelphi
DelphiCompoundStatement
p896
(dp897
g239
(lp898
(i__main__
DelphiAssignStatement
p899
(dp900
g243
Nsg250
(idelphi
DelphiInheritedCall
p901
(dp902
g246
S'doKeyDown'
p903
sg277
(lp904
(i__main__
DelphiIdentAccess
p905
(dp906
g246
S'sender'
p907
sg248
(lp908
sba(i__main__
DelphiIdentAccess
p909
(dp910
g246
S'key'
p911
sg248
(lp912
sba(i__main__
DelphiIdentAccess
p913
(dp914
g246
S'shift'
p915
sg248
(lp916
sbasbsbasg278
(lp917
S' nothing else; inherited will do collapse/expand '
p918
asbsg255
(lp919
sbsbsS'updatedisplay'
p920
(i__main__
DelphiMethodImplementation
p921
(dp922
g217
g98
sg9
g100
sg17
(lp923
sg219
(lp924
sg221
(lp925
sg223
(lp926
g225
asg226
(dp927
sg19
S'PdHeaderParameterPanel'
p928
sg20
Nsg231
(lp929
sg25
I0
sg26
g33
sg233
(i__main__
DelphiBlock
p930
(dp931
g236
(idelphi
DelphiCompoundStatement
p932
(dp933
g239
Nsg278
(lp934
S' nothing '
p935
asbsg255
(lp936
sbsbsS'domousedown'
p937
(i__main__
DelphiMethodImplementation
p938
(dp939
g217
g141
sg9
g143
sg17
(lp940
(i__main__
DelphiFormalParameter
p941
(dp942
g53
Nsg54
(lp943
S'Sender'
p944
asg57
(i__main__
DelphiNamedType
p945
(dp946
g23
S'TObject'
p947
sg80
g1
sg81
Nsbsg60
Nsba(i__main__
DelphiFormalParameter
p948
(dp949
g53
Nsg54
(lp950
S'Button'
p951
asg57
(i__main__
DelphiNamedType
p952
(dp953
g23
S'TMouseButton'
p954
sg80
g1
sg81
Nsbsg60
Nsba(i__main__
DelphiFormalParameter
p955
(dp956
g53
Nsg54
(lp957
S'Shift'
p958
asg57
(i__main__
DelphiNamedType
p959
(dp960
g23
S'TShiftState'
p961
sg80
g1
sg81
Nsbsg60
Nsba(i__main__
DelphiFormalParameter
p962
(dp963
g53
Nsg54
(lp964
S'X'
aS'Y'
asg57
(i__main__
DelphiPrimitiveType
p965
(dp966
g23
g24
sbsg60
Nsbasg219
(lp967
sg221
(lp968
sg223
(lp969
g225
ag944
ag951
ag958
aS'X'
aS'Y'
asg226
(dp970
S'Y'
g965
sg958
g959
sg951
g952
sg944
g945
sS'X'
g965
ssg19
S'PdHeaderParameterPanel'
p971
sg20
Nsg231
(lp972
sg25
I0
sg26
g33
sg233
(i__main__
DelphiBlock
p973
(dp974
g236
(idelphi
DelphiCompoundStatement
p975
(dp976
g239
(lp977
(i__main__
DelphiAssignStatement
p978
(dp979
g243
Nsg250
(idelphi
DelphiInheritedCall
p980
(dp981
g246
S'doMouseDown'
p982
sg277
(lp983
(i__main__
DelphiIdentAccess
p984
(dp985
g246
S'sender'
p986
sg248
(lp987
sba(i__main__
DelphiIdentAccess
p988
(dp989
g246
S'button'
p990
sg248
(lp991
sba(i__main__
DelphiIdentAccess
p992
(dp993
g246
S'shift'
p994
sg248
(lp995
sba(i__main__
DelphiIdentAccess
p996
(dp997
g246
S'x'
sg248
(lp998
sba(i__main__
DelphiIdentAccess
p999
(dp1000
g246
S'y'
sg248
(lp1001
sbasbsg278
(lp1002
S' must always call this first because it sets the focus '
p1003
asbasg278
(lp1004
S' nothing else; inherited will do collapse/expand '
p1005
asbsg255
(lp1006
sbsbsS'minwidth'
p1007
(i__main__
DelphiMethodImplementation
p1008
(dp1009
g217
g108
sg9
g110
sg17
(lp1010
(i__main__
DelphiFormalParameter
p1011
(dp1012
g53
Nsg54
(lp1013
S'requestedWidth'
p1014
asg57
(i__main__
DelphiPrimitiveType
p1015
(dp1016
g23
g24
sbsg60
Nsbasg219
(lp1017
sg221
(lp1018
sg223
(lp1019
g225
ag1014
asg226
(dp1020
g1014
g1015
ssg19
S'PdHeaderParameterPanel'
p1021
sg20
(i__main__
DelphiPrimitiveType
p1022
(dp1023
g23
g24
sbsg231
(lp1024
sg25
I0
sg26
g27
sg233
(i__main__
DelphiBlock
p1025
(dp1026
g236
(idelphi
DelphiCompoundStatement
p1027
(dp1028
g239
(lp1029
(i__main__
DelphiAssignStatement
p1030
(dp1031
g243
(idelphi
DelphiAddOp
p1032
(dp1033
g783
S'+'
sg784
(i__main__
DelphiIdentAccess
p1034
(dp1035
g246
S'self'
p1036
sg248
(lp1037
(idelphi
DelphiFieldEndAccess
p1038
(dp1039
g334
S'longestLabelWordWidth'
p1040
sbasbsg792
(idelphi
DelphiMulOp
p1041
(dp1042
g795
(idelphi
DelphiIntegerValue
p1043
(dp1044
g798
S'2'
sbsg799
S'*'
sg800
(i__main__
DelphiIdentAccess
p1045
(dp1046
g246
S'kLeftRightGap'
p1047
sg248
(lp1048
sbsbsbsg250
(i__main__
DelphiIdentAccess
p1049
(dp1050
g246
S'minAllowed'
p1051
sg248
(lp1052
sbsba(idelphi
DelphiIfStatement
p1053
(dp1054
g324
(idelphi
DelphiRelOp
p1055
(dp1056
g327
(i__main__
DelphiIdentAccess
p1057
(dp1058
g246
S'requestedWidth'
p1059
sg248
(lp1060
sbsg336
(i__main__
DelphiIdentAccess
p1061
(dp1062
g246
S'minAllowed'
p1063
sg248
(lp1064
sbsg339
S'>'
sbsg341
(i__main__
DelphiAssignStatement
p1065
(dp1066
g243
(i__main__
DelphiIdentAccess
p1067
(dp1068
g246
S'minAllowed'
p1069
sg248
(lp1070
sbsg250
(i__main__
DelphiIdentAccess
p1071
(dp1072
g246
S'result'
p1073
sg248
(lp1074
sbsbsg355
(i__main__
DelphiAssignStatement
p1075
(dp1076
g243
(idelphi
DelphiSign
p1077
(dp1078
S'factor'
p1079
(idelphi
DelphiIntegerValue
p1080
(dp1081
g798
S'1'
sbsS'sign'
p1082
S'-'
sbsg250
(i__main__
DelphiIdentAccess
p1083
(dp1084
g246
S'result'
p1085
sg248
(lp1086
sbsbsbasbsg255
(lp1087
(i__main__
DelphiVarSection
p1088
(dp1089
g664
I0
sg665
(lp1090
(idelphi
DelphiVarDecl
p1091
(dp1092
g669
Nsg670
(lp1093
S'minAllowed'
p1094
asg57
(i__main__
DelphiPrimitiveType
p1095
(dp1096
g23
g24
sbsbasbasbsbsS'paint'
p1097
(i__main__
DelphiMethodImplementation
p1098
(dp1099
g217
g121
sg9
g123
sg17
(lp1100
sg219
(lp1101
sg221
(lp1102
sg223
(lp1103
g225
asg226
(dp1104
sg19
S'PdHeaderParameterPanel'
p1105
sg20
Nsg231
(lp1106
sg25
I0
sg26
g33
sg233
(i__main__
DelphiBlock
p1107
(dp1108
g236
(idelphi
DelphiCompoundStatement
p1109
(dp1110
g239
(lp1111
(idelphi
DelphiIfStatement
p1112
(dp1113
g324
(i__main__
DelphiIdentAccess
p1114
(dp1115
g246
S'Application'
p1116
sg248
(lp1117
(idelphi
DelphiFieldEndAccess
p1118
(dp1119
g334
S'terminated'
p1120
sbasbsg341
Nsg355
(i__main__
DelphiExitStatement
p1121
(dp1122
g710
g1098
sbsba(i__main__
DelphiAssignStatement
p1123
(dp1124
g243
Nsg250
(i__main__
DelphiIdentAccess
p1125
(dp1126
g246
S'self'
p1127
sg248
(lp1128
(idelphi
DelphiFieldEndAccess
p1129
(dp1130
g334
S'fillWithBevels'
p1131
sbasbsg278
(lp1132
S' copied from TCustomPanel.paint and location of caption text changed '
p1133
aS" can't call inherited paint because it wants to put the caption in the middle "
p1134
asba(i__main__
DelphiAssignStatement
p1135
(dp1136
g243
(i__main__
DelphiIdentAccess
p1137
(dp1138
g246
S'getClientRect'
p1139
sg248
(lp1140
sbsg250
(i__main__
DelphiIdentAccess
p1141
(dp1142
g246
S'fullRect'
p1143
sg248
(lp1144
sbsba(idelphi
DelphiWithStatement
p1145
(dp1146
g318
(idelphi
DelphiCompoundStatement
p1147
(dp1148
g239
(lp1149
(i__main__
DelphiAssignStatement
p1150
(dp1151
g243
(i__main__
DelphiIdentAccess
p1152
(dp1153
g246
S'self'
p1154
sg248
(lp1155
(idelphi
DelphiFieldEndAccess
p1156
(dp1157
g334
S'font'
p1158
sbasbsg250
(i__main__
DelphiIdentAccess
p1159
(dp1160
g246
S'font'
p1161
sg248
(lp1162
sbsba(i__main__
DelphiAssignStatement
p1163
(dp1164
g243
(i__main__
DelphiIdentAccess
p1165
(dp1166
g246
S'bsClear'
p1167
sg248
(lp1168
sbsg250
(i__main__
DelphiIdentAccess
p1169
(dp1170
g246
S'brush'
p1171
sg248
(lp1172
(idelphi
DelphiFieldEndAccess
p1173
(dp1174
g334
S'style'
p1175
sbasbsba(idelphi
DelphiWithStatement
p1176
(dp1177
g318
(idelphi
DelphiCompoundStatement
p1178
(dp1179
g239
(lp1180
(i__main__
DelphiAssignStatement
p1181
(dp1182
g243
(idelphi
DelphiAddOp
p1183
(dp1184
g783
S'+'
sg784
(idelphi
DelphiMulOp
p1185
(dp1186
g795
(idelphi
DelphiIntegerValue
p1187
(dp1188
g798
S'2'
sbsg799
S'*'
sg800
(i__main__
DelphiIdentAccess
p1189
(dp1190
g246
S'kBetweenGap'
p1191
sg248
(lp1192
sbsbsg792
(idelphi
DelphiAddOp
p1193
(dp1194
g783
S'+'
sg784
(i__main__
DelphiIdentAccess
p1195
(dp1196
g246
S'kArrowPictureSize'
p1197
sg248
(lp1198
sbsg792
(idelphi
DelphiAddOp
p1199
(dp1200
g783
S'+'
sg784
(i__main__
DelphiIdentAccess
p1201
(dp1202
g246
S'kLeftRightGap'
p1203
sg248
(lp1204
sbsg792
(i__main__
DelphiIdentAccess
p1205
(dp1206
g246
S'fullRect'
p1207
sg248
(lp1208
(idelphi
DelphiFieldEndAccess
p1209
(dp1210
g334
S'left'
p1211
sbasbsbsbsbsg250
(i__main__
DelphiIdentAccess
p1212
(dp1213
g246
S'left'
p1214
sg248
(lp1215
sbsba(i__main__
DelphiAssignStatement
p1216
(dp1217
g243
(idelphi
DelphiAddOp
p1218
(dp1219
g783
S'-'
sg784
(idelphi
DelphiMulOp
p1220
(dp1221
g795
(idelphi
DelphiIntegerValue
p1222
(dp1223
g798
S'2'
sbsg799
S'*'
sg800
(i__main__
DelphiIdentAccess
p1224
(dp1225
g246
S'kLeftRightGap'
p1226
sg248
(lp1227
sbsbsg792
(idelphi
DelphiAddOp
p1228
(dp1229
g783
S'+'
sg784
(i__main__
DelphiIdentAccess
p1230
(dp1231
g246
S'self'
p1232
sg248
(lp1233
(idelphi
DelphiFieldEndAccess
p1234
(dp1235
g334
S'width'
p1236
sbasbsg792
(i__main__
DelphiIdentAccess
p1237
(dp1238
g246
S'left'
p1239
sg248
(lp1240
sbsbsbsg250
(i__main__
DelphiIdentAccess
p1241
(dp1242
g246
S'right'
p1243
sg248
(lp1244
sbsba(i__main__
DelphiAssignStatement
p1245
(dp1246
g243
(idelphi
DelphiAddOp
p1247
(dp1248
g783
S'+'
sg784
(idelphi
DelphiIntegerValue
p1249
(dp1250
g798
S'2'
sbsg792
(i__main__
DelphiIdentAccess
p1251
(dp1252
g246
S'fullRect'
p1253
sg248
(lp1254
(idelphi
DelphiFieldEndAccess
p1255
(dp1256
g334
S'top'
p1257
sbasbsbsg250
(i__main__
DelphiIdentAccess
p1258
(dp1259
g246
S'top'
p1260
sg248
(lp1261
sbsba(i__main__
DelphiAssignStatement
p1262
(dp1263
g243
(idelphi
DelphiAddOp
p1264
(dp1265
g783
S'+'
sg784
(i__main__
DelphiIdentAccess
p1266
(dp1267
g246
S'self'
p1268
sg248
(lp1269
(idelphi
DelphiFieldEndAccess
p1270
(dp1271
g334
S'textHeight'
p1272
sbasbsg792
(i__main__
DelphiIdentAccess
p1273
(dp1274
g246
S'top'
p1275
sg248
(lp1276
sbsbsg250
(i__main__
DelphiIdentAccess
p1277
(dp1278
g246
S'bottom'
p1279
sg248
(lp1280
sbsbasbsg395
(lp1281
(i__main__
DelphiIdentAccess
p1282
(dp1283
g246
S'labelRect'
p1284
sg248
(lp1285
sbasba(i__main__
DelphiAssignStatement
p1286
(dp1287
g243
(i__main__
DelphiIdentAccess
p1288
(dp1289
g246
S'self'
p1290
sg248
(lp1291
(idelphi
DelphiFieldEndAccess
p1292
(dp1293
g334
S'drawText'
p1294
sba(idelphi
DelphiFunctionEndAccess
p1295
(dp1296
g277
(lp1297
(i__main__
DelphiIdentAccess
p1298
(dp1299
g246
S'self'
p1300
sg248
(lp1301
(idelphi
DelphiFieldEndAccess
p1302
(dp1303
g334
S'caption'
p1304
sbasba(i__main__
DelphiIdentAccess
p1305
(dp1306
g246
S'labelRect'
p1307
sg248
(lp1308
sba(i__main__
DelphiIdentAccess
p1309
(dp1310
g246
S'false'
p1311
sg248
(lp1312
sba(i__main__
DelphiIdentAccess
p1313
(dp1314
g246
S'false'
p1315
sg248
(lp1316
sba(i__main__
DelphiIdentAccess
p1317
(dp1318
g246
S'false'
p1319
sg248
(lp1320
sbasbasbsg250
(i__main__
DelphiIdentAccess
p1321
(dp1322
g246
S'self'
p1323
sg248
(lp1324
(idelphi
DelphiFieldEndAccess
p1325
(dp1326
g334
S'wrappedLabelHeight'
p1327
sbasbsg278
(lp1328
S'  with labelRect do\r'
p1329
aS'      begin\r'
p1330
aS'      right := fullRect.right - kleftRightGap * 4;\r'
p1331
aS'      left := right - textWidth(caption);\r'
p1332
aS'      top := fullRect.top + 2;\r'
p1333
aS'      bottom := top + self.textHeight;\r'
p1334
aS'      end;  '
p1335
asba(idelphi
DelphiWithStatement
p1336
(dp1337
g318
(idelphi
DelphiCompoundStatement
p1338
(dp1339
g239
(lp1340
(i__main__
DelphiAssignStatement
p1341
(dp1342
g243
(idelphi
DelphiAddOp
p1343
(dp1344
g783
S'+'
sg784
(i__main__
DelphiIdentAccess
p1345
(dp1346
g246
S'kLeftRightGap'
p1347
sg248
(lp1348
sbsg792
(i__main__
DelphiIdentAccess
p1349
(dp1350
g246
S'fullRect'
p1351
sg248
(lp1352
(idelphi
DelphiFieldEndAccess
p1353
(dp1354
g334
S'left'
p1355
sbasbsbsg250
(i__main__
DelphiIdentAccess
p1356
(dp1357
g246
S'left'
p1358
sg248
(lp1359
sbsba(i__main__
DelphiAssignStatement
p1360
(dp1361
g243
(idelphi
DelphiAddOp
p1362
(dp1363
g783
S'+'
sg784
(i__main__
DelphiIdentAccess
p1364
(dp1365
g246
S'kArrowPictureSize'
p1366
sg248
(lp1367
sbsg792
(i__main__
DelphiIdentAccess
p1368
(dp1369
g246
S'left'
p1370
sg248
(lp1371
sbsbsg250
(i__main__
DelphiIdentAccess
p1372
(dp1373
g246
S'right'
p1374
sg248
(lp1375
sbsba(i__main__
DelphiAssignStatement
p1376
(dp1377
g243
(idelphi
DelphiAddOp
p1378
(dp1379
g783
S'+'
sg784
(idelphi
DelphiIntegerValue
p1380
(dp1381
g798
S'1'
sbsg792
(i__main__
DelphiIdentAccess
p1382
(dp1383
g246
S'labelRect'
p1384
sg248
(lp1385
(idelphi
DelphiFieldEndAccess
p1386
(dp1387
g334
S'top'
p1388
sbasbsbsg250
(i__main__
DelphiIdentAccess
p1389
(dp1390
g246
S'top'
p1391
sg248
(lp1392
sbsba(i__main__
DelphiAssignStatement
p1393
(dp1394
g243
(idelphi
DelphiAddOp
p1395
(dp1396
g783
S'+'
sg784
(i__main__
DelphiIdentAccess
p1397
(dp1398
g246
S'kArrowPictureSize'
p1399
sg248
(lp1400
sbsg792
(i__main__
DelphiIdentAccess
p1401
(dp1402
g246
S'top'
p1403
sg248
(lp1404
sbsbsg250
(i__main__
DelphiIdentAccess
p1405
(dp1406
g246
S'bottom'
p1407
sg248
(lp1408
sbsbasbsg395
(lp1409
(i__main__
DelphiIdentAccess
p1410
(dp1411
g246
S'pictureRect'
p1412
sg248
(lp1413
sbasba(idelphi
DelphiIfStatement
p1414
(dp1415
g324
(idelphi
DelphiRelOp
p1416
(dp1417
g327
(i__main__
DelphiIdentAccess
p1418
(dp1419
g246
S'plant'
p1420
sg248
(lp1421
sbsg336
(idelphi
DelphiNilValue
p1422
(dp1423
bsg339
g340
sbsg341
Nsg355
(idelphi
DelphiCompoundStatement
p1424
(dp1425
g239
(lp1426
(idelphi
DelphiIfStatement
p1427
(dp1428
g324
(i__main__
DelphiIdentAccess
p1429
(dp1430
g246
S'param'
p1431
sg248
(lp1432
(idelphi
DelphiFieldEndAccess
p1433
(dp1434
g334
S'collapsed'
p1435
sbasbsg341
(i__main__
DelphiAssignStatement
p1436
(dp1437
g243
Nsg250
(i__main__
DelphiIdentAccess
p1438
(dp1439
g246
S'draw'
p1440
sg248
(lp1441
(idelphi
DelphiFunctionEndAccess
p1442
(dp1443
g277
(lp1444
(i__main__
DelphiIdentAccess
p1445
(dp1446
g246
S'pictureRect'
p1447
sg248
(lp1448
(idelphi
DelphiFieldEndAccess
p1449
(dp1450
g334
S'left'
p1451
sbasba(i__main__
DelphiIdentAccess
p1452
(dp1453
g246
S'pictureRect'
p1454
sg248
(lp1455
(idelphi
DelphiFieldEndAccess
p1456
(dp1457
g334
S'top'
p1458
sbasba(i__main__
DelphiIdentAccess
p1459
(dp1460
g246
S'MainForm'
p1461
sg248
(lp1462
(idelphi
DelphiFieldEndAccess
p1463
(dp1464
g334
S'paramPanelOpenArrowImage'
p1465
sba(idelphi
DelphiFieldEndAccess
p1466
(dp1467
g334
S'picture'
p1468
sba(idelphi
DelphiFieldEndAccess
p1469
(dp1470
g334
S'bitmap'
p1471
sbasbasbasbsbsg355
(i__main__
DelphiAssignStatement
p1472
(dp1473
g243
Nsg250
(i__main__
DelphiIdentAccess
p1474
(dp1475
g246
S'draw'
p1476
sg248
(lp1477
(idelphi
DelphiFunctionEndAccess
p1478
(dp1479
g277
(lp1480
(i__main__
DelphiIdentAccess
p1481
(dp1482
g246
S'pictureRect'
p1483
sg248
(lp1484
(idelphi
DelphiFieldEndAccess
p1485
(dp1486
g334
S'left'
p1487
sbasba(i__main__
DelphiIdentAccess
p1488
(dp1489
g246
S'pictureRect'
p1490
sg248
(lp1491
(idelphi
DelphiFieldEndAccess
p1492
(dp1493
g334
S'top'
p1494
sbasba(i__main__
DelphiIdentAccess
p1495
(dp1496
g246
S'MainForm'
p1497
sg248
(lp1498
(idelphi
DelphiFieldEndAccess
p1499
(dp1500
g334
S'paramPanelClosedArrowImage'
p1501
sba(idelphi
DelphiFieldEndAccess
p1502
(dp1503
g334
S'picture'
p1504
sba(idelphi
DelphiFieldEndAccess
p1505
(dp1506
g334
S'bitmap'
p1507
sbasbasbasbsbsbasbsba(idelphi
DelphiIfStatement
p1508
(dp1509
g324
(idelphi
DelphiNestedExpressionListAccess
p1510
(dp1511
g248
(lp1512
sg277
(lp1513
(idelphi
DelphiRelOp
p1514
(dp1515
g327
(i__main__
DelphiIdentAccess
p1516
(dp1517
g246
S'self'
p1518
sg248
(lp1519
(idelphi
DelphiFieldEndAccess
p1520
(dp1521
g334
S'selectedItemIndex'
p1522
sbasbsg336
(i__main__
DelphiIdentAccess
p1523
(dp1524
g246
S'kItemLabel'
p1525
sg248
(lp1526
sbsg339
S'='
sbasbsg341
Nsg355
(idelphi
DelphiWithStatement
p1527
(dp1528
g318
(i__main__
DelphiAssignStatement
p1529
(dp1530
g243
Nsg250
(i__main__
DelphiIdentAccess
p1531
(dp1532
g246
S'rectangle'
p1533
sg248
(lp1534
(idelphi
DelphiFunctionEndAccess
p1535
(dp1536
g277
(lp1537
(i__main__
DelphiIdentAccess
p1538
(dp1539
g246
S'left'
p1540
sg248
(lp1541
sba(i__main__
DelphiIdentAccess
p1542
(dp1543
g246
S'top'
p1544
sg248
(lp1545
sba(i__main__
DelphiIdentAccess
p1546
(dp1547
g246
S'right'
p1548
sg248
(lp1549
sba(i__main__
DelphiIdentAccess
p1550
(dp1551
g246
S'bottom'
p1552
sg248
(lp1553
sbasbasbsbsg395
(lp1554
(i__main__
DelphiIdentAccess
p1555
(dp1556
g246
S'pictureRect'
p1557
sg248
(lp1558
sbasbsbasg278
(lp1559
S'\r'
aS'    if plant <> nil then\r'
p1560
aS'      begin\r'
p1561
aS'      pen.width := 1;\r'
p1562
aS'      pen.color := clBlue;\r'
p1563
aS'      moveTo({pictureRect.right + kLeftRightGap * 2}labelRect.left + textWidth(caption) + kLeftRightGap * 2,\r'
p1564
aS'        labelRect.top + rHeight(labelRect) div 2 - pen.width div 2);\r'
p1565
aS'      lineTo({labelRect.left - kLeftRightGap * 2}fullRect.right - kLeftRightGap * 2,\r'
p1566
aS'        labelRect.top + rHeight(labelRect) div 2 - pen.width div 2);\r'
p1567
aS'      end;\r'
p1568
aS'      '
p1569
asbsg395
(lp1570
(i__main__
DelphiIdentAccess
p1571
(dp1572
g246
S'canvas'
p1573
sg248
(lp1574
sbasbasbsg255
(lp1575
(i__main__
DelphiVarSection
p1576
(dp1577
g664
I0
sg665
(lp1578
(idelphi
DelphiVarDecl
p1579
(dp1580
g669
Nsg670
(lp1581
S'fullRect'
p1582
asg57
(i__main__
DelphiNamedType
p1583
(dp1584
g23
S'TRect'
p1585
sg80
g1
sg81
NsbsbasbasbsbsS'collapseorexpand'
p1586
(i__main__
DelphiMethodImplementation
p1587
(dp1588
g217
g177
sg9
g179
sg17
(lp1589
(i__main__
DelphiFormalParameter
p1590
(dp1591
g53
Nsg54
(lp1592
S'y'
asg57
(i__main__
DelphiPrimitiveType
p1593
(dp1594
g23
g24
sbsg60
Nsbasg219
(lp1595
sg221
(lp1596
sg223
(lp1597
g225
aS'y'
asg226
(dp1598
S'y'
g1593
ssg19
S'PdHeaderParameterPanel'
p1599
sg20
Nsg231
(lp1600
sg25
I0
sg26
g33
sg233
(i__main__
DelphiBlock
p1601
(dp1602
g236
(idelphi
DelphiCompoundStatement
p1603
(dp1604
g239
(lp1605
(idelphi
DelphiIfStatement
p1606
(dp1607
g324
(idelphi
DelphiNestedExpressionListAccess
p1608
(dp1609
g248
(lp1610
sg277
(lp1611
(idelphi
DelphiRelOp
p1612
(dp1613
g327
(i__main__
DelphiIdentAccess
p1614
(dp1615
g246
S'owner'
p1616
sg248
(lp1617
sbsg336
(idelphi
DelphiNilValue
p1618
(dp1619
bsg339
g340
sbasbsg341
Nsg355
(i__main__
DelphiAssignStatement
p1620
(dp1621
g243
Nsg250
(i__main__
DelphiIdentAccess
p1622
(dp1623
g246
S'TMainForm'
p1624
sg248
(lp1625
(idelphi
DelphiFunctionEndAccess
p1626
(dp1627
g277
(lp1628
(i__main__
DelphiIdentAccess
p1629
(dp1630
g246
S'owner'
p1631
sg248
(lp1632
sbasba(idelphi
DelphiFieldEndAccess
p1633
(dp1634
g334
S'collapseOrExpandParameterPanelsUntilNextHeader'
p1635
sba(idelphi
DelphiFunctionEndAccess
p1636
(dp1637
g277
(lp1638
(i__main__
DelphiIdentAccess
p1639
(dp1640
g246
S'self'
p1641
sg248
(lp1642
sbasbasbsbsba(i__main__
DelphiAssignStatement
p1643
(dp1644
g243
(idelphi
DelphiNot
p1645
(dp1646
g1079
(i__main__
DelphiIdentAccess
p1647
(dp1648
g246
S'param'
p1649
sg248
(lp1650
(idelphi
DelphiFieldEndAccess
p1651
(dp1652
g334
S'collapsed'
p1653
sbasbsbsg250
(i__main__
DelphiIdentAccess
p1654
(dp1655
g246
S'param'
p1656
sg248
(lp1657
(idelphi
DelphiFieldEndAccess
p1658
(dp1659
g334
S'collapsed'
p1660
sbasbsg278
(lp1661
S"don't need to change height"
p1662
asbasbsg255
(lp1663
sbsbsS'resizeelements'
p1664
(i__main__
DelphiMethodImplementation
p1665
(dp1666
g217
g103
sg9
g105
sg17
(lp1667
sg219
(lp1668
sg221
(lp1669
sg223
(lp1670
g225
asg226
(dp1671
sg19
S'PdHeaderParameterPanel'
p1672
sg20
Nsg231
(lp1673
sg25
I0
sg26
g33
sg233
(i__main__
DelphiBlock
p1674
(dp1675
g236
(idelphi
DelphiCompoundStatement
p1676
(dp1677
g239
Nsg278
(lp1678
S' do nothing '
p1679
asbsg255
(lp1680
sbsbsS'initialize'
p1681
(i__main__
DelphiMethodImplementation
p1682
(dp1683
g217
g136
sg9
g138
sg17
(lp1684
sg219
(lp1685
sg221
(lp1686
sg223
(lp1687
g225
asg226
(dp1688
sg19
S'PdHeaderParameterPanel'
p1689
sg20
Nsg231
(lp1690
sg25
I0
sg26
g33
sg233
(i__main__
DelphiBlock
p1691
(dp1692
g236
(idelphi
DelphiCompoundStatement
p1693
(dp1694
g239
Nsg278
(lp1695
S' nothing '
p1696
asbsg255
(lp1697
sbsbsS'updateplantvalues'
p1698
(i__main__
DelphiMethodImplementation
p1699
(dp1700
g217
g172
sg9
g174
sg17
(lp1701
sg219
(lp1702
sg221
(lp1703
sg223
(lp1704
g225
asg226
(dp1705
sg19
S'PdHeaderParameterPanel'
p1706
sg20
Nsg231
(lp1707
sg25
I0
sg26
g33
sg233
(i__main__
DelphiBlock
p1708
(dp1709
g236
(idelphi
DelphiCompoundStatement
p1710
(dp1711
g239
Nsg278
(lp1712
S' nothing '
p1713
asbsg255
(lp1714
sbsbsS'expand'
p1715
(i__main__
DelphiMethodImplementation
p1716
(dp1717
g217
g126
sg9
g128
sg17
(lp1718
sg219
(lp1719
sg221
(lp1720
sg223
(lp1721
g225
asg226
(dp1722
sg19
S'PdHeaderParameterPanel'
p1723
sg20
Nsg231
(lp1724
sg25
I0
sg26
g33
sg233
(i__main__
DelphiBlock
p1725
(dp1726
g236
(idelphi
DelphiCompoundStatement
p1727
(dp1728
g239
(lp1729
(idelphi
DelphiIfStatement
p1730
(dp1731
g324
(idelphi
DelphiNot
p1732
(dp1733
g1079
(i__main__
DelphiIdentAccess
p1734
(dp1735
g246
S'param'
p1736
sg248
(lp1737
(idelphi
DelphiFieldEndAccess
p1738
(dp1739
g334
S'collapsed'
p1740
sbasbsbsg341
Nsg355
(i__main__
DelphiExitStatement
p1741
(dp1742
g710
g1716
sbsba(idelphi
DelphiIfStatement
p1743
(dp1744
g324
(idelphi
DelphiNestedExpressionListAccess
p1745
(dp1746
g248
(lp1747
sg277
(lp1748
(idelphi
DelphiRelOp
p1749
(dp1750
g327
(i__main__
DelphiIdentAccess
p1751
(dp1752
g246
S'owner'
p1753
sg248
(lp1754
sbsg336
(idelphi
DelphiNilValue
p1755
(dp1756
bsg339
g340
sbasbsg341
Nsg355
(i__main__
DelphiAssignStatement
p1757
(dp1758
g243
Nsg250
(i__main__
DelphiIdentAccess
p1759
(dp1760
g246
S'TMainForm'
p1761
sg248
(lp1762
(idelphi
DelphiFunctionEndAccess
p1763
(dp1764
g277
(lp1765
(i__main__
DelphiIdentAccess
p1766
(dp1767
g246
S'owner'
p1768
sg248
(lp1769
sbasba(idelphi
DelphiFieldEndAccess
p1770
(dp1771
g334
S'collapseOrExpandParameterPanelsUntilNextHeader'
p1772
sba(idelphi
DelphiFunctionEndAccess
p1773
(dp1774
g277
(lp1775
(i__main__
DelphiIdentAccess
p1776
(dp1777
g246
S'self'
p1778
sg248
(lp1779
sbasbasbsbsba(i__main__
DelphiAssignStatement
p1780
(dp1781
g243
(i__main__
DelphiIdentAccess
p1782
(dp1783
g246
S'false'
p1784
sg248
(lp1785
sbsg250
(i__main__
DelphiIdentAccess
p1786
(dp1787
g246
S'param'
p1788
sg248
(lp1789
(idelphi
DelphiFieldEndAccess
p1790
(dp1791
g334
S'collapsed'
p1792
sbasbsbasbsg255
(lp1793
sbsbssS'propertyDeclarations'
p1794
(dp1795
sS'variableNamesInDeclaredOrder'
p1796
(lp1797
sbasS'includedUnits'
p1798
NsS'implementationUses'
p1799
(lp1800
S'SysUtils'
p1801
aS'Dialogs'
p1802
aS'Forms'
p1803
aS'umain'
p1804
aS'updcom'
p1805
aS'umath'
p1806
aS'uunits'
p1807
aS'usupport'
p1808
aS'udomain'
p1809
aS'udebug'
p1810
asg9
S'Upp_hed'
p1811
sS'constSections'
p1812
(lp1813
sS'globalsInProperCase'
p1814
NsS'interfaceUses'
p1815
(lp1816
S'delphi_compatability'
p1817
aS'ExtCtrls'
p1818
aS'Classes'
p1819
aS'StdCtrls'
p1820
aS'Controls'
p1821
aS'WinTypes'
p1822
aS'Graphics'
p1823
aS'WinProcs'
p1824
aS'Messages'
p1825
aS'uplant'
p1826
aS'uparams'
p1827
aS'uppanel'
p1828
asS'finalCommentToken'
p1829
(i__main__
PassStatement
p1830
(dp1831
g255
(lp1832
sbsS'varSections'
p1833
(lp1834
sS'globals'
p1835
NsS'originalFileName'
p1836
S'../../PlantStudioInPython/converted_source/upp_hed.pas'
p1837
sS'proceduralImplementations'
p1838
(dp1839
sS'fileName'
p1840
S'/Users/pdf/Documents/workspace/PlantStudioInPython/converted_source/upp_hed.pas'
p1841
sS'proceduralDeclarations'
p1842
(dp1843
sS'types'
p1844
(dp1845
S'pdheaderparameterpanel'
p1846
g5
ssb.