(i__main__
DelphiUnit
p1
(dp2
S'sectionsInOrderDefined'
p3
(lp4
(i__main__
DelphiConstSection
p5
(dp6
S'constDeclList'
p7
(lp8
(idelphi
DelphiConstDeclaration
p9
(dp10
S'constExpression'
p11
(idelphi
DelphiIntegerValue
p12
(dp13
S'string'
p14
S'1'
sbsS'ident'
p15
S'kItemYes'
p16
sS'theType'
p17
(idelphi
DelphiPrimitiveType
p18
(dp19
S'typeName'
p20
S'UNDEFINED_NEEDS_CALCULATION'
p21
sbsba(idelphi
DelphiConstDeclaration
p22
(dp23
g11
(idelphi
DelphiIntegerValue
p24
(dp25
g14
S'2'
sbsg15
S'kItemNo'
p26
sg17
(idelphi
DelphiPrimitiveType
p27
(dp28
g20
g21
sbsbasS'atTopLevel'
p29
I1
sba(i__main__
DelphiClass
p30
(dp31
S'variableNamesInProperCase'
p32
(dp33
S'yesrect'
p34
S'yesRect'
p35
sS'currentvalue'
p36
S'currentValue'
p37
sS'editenabled'
p38
S'editEnabled'
p39
sS'norect'
p40
S'noRect'
p41
ssS'name'
p42
S'PdBooleanParameterPanel'
p43
sS'methodDeclarations'
p44
(dp45
S'maxselecteditemindex'
p46
(i__main__
DelphiMethodDeclaration
p47
(dp48
g42
S'maxSelectedItemIndex'
p49
sS'formalParameters'
p50
(lp51
sS'className'
p52
g43
sS'resultType'
p53
(i__main__
DelphiPrimitiveType
p54
(dp55
g20
S'integer'
p56
sbsS'isClassMethod'
p57
I0
sS'methodType'
p58
S'function'
p59
sbsS'updateenabling'
p60
(i__main__
DelphiMethodDeclaration
p61
(dp62
g42
S'updateEnabling'
p63
sg50
(lp64
sg52
g43
sg53
Nsg57
I0
sg58
S'procedure'
p65
sbsS'maxwidth'
p66
(i__main__
DelphiMethodDeclaration
p67
(dp68
g42
S'maxWidth'
p69
sg50
(lp70
sg52
g43
sg53
(i__main__
DelphiPrimitiveType
p71
(dp72
g20
g56
sbsg57
I0
sg58
g59
sbsS'updatecurrentvalue'
p73
(i__main__
DelphiMethodDeclaration
p74
(dp75
g42
S'updateCurrentValue'
p76
sg50
(lp77
(i__main__
DelphiFormalParameter
p78
(dp79
S'initialValue'
p80
NsS'names'
p81
(lp82
S'aFieldIndex'
p83
asg17
(i__main__
DelphiPrimitiveType
p84
(dp85
g20
g56
sbsS'parameterVariety'
p86
Nsbasg52
g43
sg53
Nsg57
I0
sg58
g65
sbsS'drawradiobutton'
p87
(i__main__
DelphiMethodDeclaration
p88
(dp89
g42
S'drawRadioButton'
p90
sg50
(lp91
(i__main__
DelphiFormalParameter
p92
(dp93
g80
Nsg81
(lp94
S'value'
p95
asg17
(i__main__
DelphiPrimitiveType
p96
(dp97
g20
S'boolean'
p98
sbsg86
Nsba(i__main__
DelphiFormalParameter
p99
(dp100
g80
Nsg81
(lp101
S'enabled'
p102
asg17
(i__main__
DelphiPrimitiveType
p103
(dp104
g20
g98
sbsg86
Nsba(i__main__
DelphiFormalParameter
p105
(dp106
g80
Nsg81
(lp107
S'rect'
p108
asg17
(i__main__
DelphiNamedType
p109
(dp110
g20
S'TRect'
p111
sS'unitDefinedIn'
p112
g1
sS'unitName'
p113
Nsbsg86
Nsbasg52
g43
sg53
Nsg57
I0
sg58
g65
sbsS'uncollapsedheight'
p114
(i__main__
DelphiMethodDeclaration
p115
(dp116
g42
S'uncollapsedHeight'
p117
sg50
(lp118
sg52
g43
sg53
(i__main__
DelphiPrimitiveType
p119
(dp120
g20
g56
sbsg57
I0
sg58
g59
sbsS'dokeydown'
p121
(i__main__
DelphiMethodDeclaration
p122
(dp123
g42
S'doKeyDown'
p124
sg50
(lp125
(i__main__
DelphiFormalParameter
p126
(dp127
g80
Nsg81
(lp128
S'sender'
p129
asg17
(i__main__
DelphiNamedType
p130
(dp131
g20
S'TObject'
p132
sg112
g1
sg113
Nsbsg86
Nsba(i__main__
DelphiFormalParameter
p133
(dp134
g80
Nsg81
(lp135
S'key'
p136
asg17
(i__main__
DelphiPrimitiveType
p137
(dp138
g20
S'word'
p139
sbsg86
S'var'
p140
sba(i__main__
DelphiFormalParameter
p141
(dp142
g80
Nsg81
(lp143
S'shift'
p144
asg17
(i__main__
DelphiNamedType
p145
(dp146
g20
S'TShiftState'
p147
sg112
g1
sg113
Nsbsg86
Nsbasg52
g43
sg53
Nsg57
I0
sg58
g65
sbsS'updatedisplay'
p148
(i__main__
DelphiMethodDeclaration
p149
(dp150
g42
S'updateDisplay'
p151
sg50
(lp152
sg52
g43
sg53
Nsg57
I0
sg58
g65
sbsS'resizeelements'
p153
(i__main__
DelphiMethodDeclaration
p154
(dp155
g42
S'resizeElements'
p156
sg50
(lp157
sg52
g43
sg53
Nsg57
I0
sg58
g65
sbsS'minwidth'
p158
(i__main__
DelphiMethodDeclaration
p159
(dp160
g42
S'minWidth'
p161
sg50
(lp162
(i__main__
DelphiFormalParameter
p163
(dp164
g80
Nsg81
(lp165
S'requestedWidth'
p166
asg17
(i__main__
DelphiPrimitiveType
p167
(dp168
g20
g56
sbsg86
Nsbasg52
g43
sg53
(i__main__
DelphiPrimitiveType
p169
(dp170
g20
g56
sbsg57
I0
sg58
g59
sbsS'paint'
p171
(i__main__
DelphiMethodDeclaration
p172
(dp173
g42
S'paint'
p174
sg50
(lp175
sg52
g43
sg53
Nsg57
I0
sg58
g65
sbsS'initialize'
p176
(i__main__
DelphiMethodDeclaration
p177
(dp178
g42
S'initialize'
p179
sg50
(lp180
sg52
g43
sg53
Nsg57
I0
sg58
g65
sbsS'negatevalue'
p181
(i__main__
DelphiMethodDeclaration
p182
(dp183
g42
S'negateValue'
p184
sg50
(lp185
sg52
g43
sg53
Nsg57
I0
sg58
g65
sbsS'domousedown'
p186
(i__main__
DelphiMethodDeclaration
p187
(dp188
g42
S'doMouseDown'
p189
sg50
(lp190
(i__main__
DelphiFormalParameter
p191
(dp192
g80
Nsg81
(lp193
S'Sender'
p194
asg17
(i__main__
DelphiNamedType
p195
(dp196
g20
S'TObject'
p197
sg112
g1
sg113
Nsbsg86
Nsba(i__main__
DelphiFormalParameter
p198
(dp199
g80
Nsg81
(lp200
S'Button'
p201
asg17
(i__main__
DelphiNamedType
p202
(dp203
g20
S'TMouseButton'
p204
sg112
g1
sg113
Nsbsg86
Nsba(i__main__
DelphiFormalParameter
p205
(dp206
g80
Nsg81
(lp207
S'Shift'
p208
asg17
(i__main__
DelphiNamedType
p209
(dp210
g20
S'TShiftState'
p211
sg112
g1
sg113
Nsbsg86
Nsba(i__main__
DelphiFormalParameter
p212
(dp213
g80
Nsg81
(lp214
S'X'
aS'Y'
asg17
(i__main__
DelphiPrimitiveType
p215
(dp216
g20
g56
sbsg86
Nsbasg52
g43
sg53
Nsg57
I0
sg58
g65
sbsS'updateplantvalues'
p217
(i__main__
DelphiMethodDeclaration
p218
(dp219
g42
S'updatePlantValues'
p220
sg50
(lp221
sg52
g43
sg53
Nsg57
I0
sg58
g65
sbssS'superclassNamedTypes'
p222
(lp223
(i__main__
DelphiNamedType
p224
(dp225
g20
S'PdParameterPanel'
p226
sg112
g1
sg113
NsbasS'variableNames'
p227
(dp228
S'yesrect'
p229
(i__main__
DelphiNamedType
p230
(dp231
g20
S'TRect'
p232
sg112
g1
sg113
NsbsS'currentvalue'
p233
(i__main__
DelphiPrimitiveType
p234
(dp235
g20
g98
sbsS'editenabled'
p236
(i__main__
DelphiPrimitiveType
p237
(dp238
g20
g98
sbsS'norect'
p239
(i__main__
DelphiNamedType
p240
(dp241
g20
S'TRect'
p242
sg112
g1
sg113
NsbssS'methodNamesInDefinedOrder'
p243
(lp244
S'initialize'
p245
aS'updateenabling'
p246
aS'updateplantvalues'
p247
aS'updatecurrentvalue'
p248
aS'updatedisplay'
p249
aS'domousedown'
p250
aS'dokeydown'
p251
aS'negatevalue'
p252
aS'maxwidth'
p253
aS'minwidth'
p254
aS'uncollapsedheight'
p255
aS'maxselecteditemindex'
p256
aS'resizeelements'
p257
aS'paint'
p258
aS'drawradiobutton'
p259
asS'methodImplementations'
p260
(dp261
S'maxselecteditemindex'
p262
(i__main__
DelphiMethodImplementation
p263
(dp264
S'originalDeclaration'
p265
g47
sg42
g49
sg50
(lp266
sS'varParamIndexes'
p267
(lp268
sS'varParamsSkipped'
p269
(lp270
sS'argNames'
p271
(lp272
S'self'
p273
asS'argTypes'
p274
(dp275
sg52
S'PdBooleanParameterPanel'
p276
sg53
(i__main__
DelphiPrimitiveType
p277
(dp278
g20
g56
sbsS'varParamNames'
p279
(lp280
sg57
I0
sg58
g59
sS'block'
p281
(i__main__
DelphiBlock
p282
(dp283
S'compoundStatement'
p284
(idelphi
DelphiCompoundStatement
p285
(dp286
S'statements'
p287
(lp288
(idelphi
DelphiIfStatement
p289
(dp290
S'expression'
p291
(idelphi
DelphiMulOp
p292
(dp293
S'signedFactor2'
p294
(idelphi
DelphiNestedExpressionListAccess
p295
(dp296
S'endAccessList'
p297
(lp298
sS'expressionList'
p299
(lp300
(i__main__
DelphiIdentAccess
p301
(dp302
g15
S'self'
p303
sg297
(lp304
(idelphi
DelphiFieldEndAccess
p305
(dp306
S'field'
p307
S'editEnabled'
p308
sbasbasbsS'mulOp'
p309
S'and'
p310
sS'signedFactor1'
p311
(idelphi
DelphiNestedExpressionListAccess
p312
(dp313
g297
(lp314
sg299
(lp315
(idelphi
DelphiNot
p316
(dp317
S'factor'
p318
(i__main__
DelphiIdentAccess
p319
(dp320
g15
S'param'
p321
sg297
(lp322
(idelphi
DelphiFieldEndAccess
p323
(dp324
g307
S'collapsed'
p325
sbasbsbasbsbsS'ifFalseStatement'
p326
(i__main__
DelphiAssignStatement
p327
(dp328
S'newValueExpression'
p329
(i__main__
DelphiIdentAccess
p330
(dp331
g15
S'kItemLabel'
p332
sg297
(lp333
sbsS'destinationExpression'
p334
(i__main__
DelphiIdentAccess
p335
(dp336
g15
S'result'
p337
sg297
(lp338
sbsbsS'ifTrueStatement'
p339
(i__main__
DelphiAssignStatement
p340
(dp341
g329
(i__main__
DelphiIdentAccess
p342
(dp343
g15
S'kItemNo'
p344
sg297
(lp345
sbsg334
(i__main__
DelphiIdentAccess
p346
(dp347
g15
S'result'
p348
sg297
(lp349
sbsbsbasbsS'limitedDeclSectionList'
p350
(lp351
sbsbsS'updateenabling'
p352
(i__main__
DelphiMethodImplementation
p353
(dp354
g265
g61
sg42
g63
sg50
(lp355
sg267
(lp356
sg269
(lp357
sg271
(lp358
g273
asg274
(dp359
sg52
S'PdBooleanParameterPanel'
p360
sg53
Nsg279
(lp361
sg57
I0
sg58
g65
sg281
(i__main__
DelphiBlock
p362
(dp363
g284
(idelphi
DelphiCompoundStatement
p364
(dp365
g287
(lp366
(i__main__
DelphiAssignStatement
p367
(dp368
g329
Nsg334
(idelphi
DelphiInheritedCall
p369
(dp370
g15
S'updateEnabling'
p371
sg299
Nsbsba(idelphi
DelphiIfStatement
p372
(dp373
g291
(idelphi
DelphiAddOp
p374
(dp375
S'addOp'
p376
S'or'
p377
sS'term2'
p378
(idelphi
DelphiNestedExpressionListAccess
p379
(dp380
g297
(lp381
sg299
(lp382
(i__main__
DelphiIdentAccess
p383
(dp384
g15
S'self'
p385
sg297
(lp386
(idelphi
DelphiFieldEndAccess
p387
(dp388
g307
S'readOnly'
p389
sbasbasbsS'term1'
p390
(idelphi
DelphiNestedExpressionListAccess
p391
(dp392
g297
(lp393
sg299
(lp394
(idelphi
DelphiRelOp
p395
(dp396
S'simpleExpression1'
p397
(i__main__
DelphiIdentAccess
p398
(dp399
g15
S'plant'
p400
sg297
(lp401
sbsS'simpleExpression2'
p402
(idelphi
DelphiNilValue
p403
(dp404
bsS'relOp'
p405
S'='
sbasbsbsg326
(i__main__
DelphiAssignStatement
p406
(dp407
g329
(i__main__
DelphiIdentAccess
p408
(dp409
g15
S'true'
p410
sg297
(lp411
sbsg334
(i__main__
DelphiIdentAccess
p412
(dp413
g15
S'editEnabled'
p414
sg297
(lp415
sbsbsg339
(i__main__
DelphiAssignStatement
p416
(dp417
g329
(i__main__
DelphiIdentAccess
p418
(dp419
g15
S'false'
p420
sg297
(lp421
sbsg334
(i__main__
DelphiIdentAccess
p422
(dp423
g15
S'editEnabled'
p424
sg297
(lp425
sbsbsbasbsg350
(lp426
sbsbsS'maxwidth'
p427
(i__main__
DelphiMethodImplementation
p428
(dp429
g265
g67
sg42
g69
sg50
(lp430
sg267
(lp431
sg269
(lp432
sg271
(lp433
g273
asg274
(dp434
sg52
S'PdBooleanParameterPanel'
p435
sg53
(i__main__
DelphiPrimitiveType
p436
(dp437
g20
g56
sbsg279
(lp438
sg57
I0
sg58
g59
sg281
(i__main__
DelphiBlock
p439
(dp440
g284
(idelphi
DelphiCompoundStatement
p441
(dp442
g287
(lp443
(i__main__
DelphiAssignStatement
p444
(dp445
g329
(i__main__
DelphiIdentAccess
p446
(dp447
g15
S'intMax'
p448
sg297
(lp449
(idelphi
DelphiFunctionEndAccess
p450
(dp451
g299
(lp452
(idelphi
DelphiAddOp
p453
(dp454
g376
S'+'
sg378
(i__main__
DelphiIdentAccess
p455
(dp456
g15
S'self'
p457
sg297
(lp458
(idelphi
DelphiFieldEndAccess
p459
(dp460
g307
S'longestLabelWordWidth'
p461
sbasbsg390
(idelphi
DelphiMulOp
p462
(dp463
g294
(idelphi
DelphiIntegerValue
p464
(dp465
g14
S'2'
sbsg309
S'*'
sg311
(i__main__
DelphiIdentAccess
p466
(dp467
g15
S'kLeftRightGap'
p468
sg297
(lp469
sbsbsba(idelphi
DelphiAddOp
p470
(dp471
g376
S'+'
sg378
(i__main__
DelphiIdentAccess
p472
(dp473
g15
S'kLeftRightGap'
p474
sg297
(lp475
sbsg390
(idelphi
DelphiAddOp
p476
(dp477
g376
S'+'
sg378
(idelphi
DelphiNestedExpressionListAccess
p478
(dp479
g297
(lp480
sg299
(lp481
(idelphi
DelphiAddOp
p482
(dp483
g376
S'-'
sg378
(i__main__
DelphiIdentAccess
p484
(dp485
g15
S'noRect'
p486
sg297
(lp487
(idelphi
DelphiFieldEndAccess
p488
(dp489
g307
S'left'
p490
sbasbsg390
(i__main__
DelphiIdentAccess
p491
(dp492
g15
S'noRect'
p493
sg297
(lp494
(idelphi
DelphiFieldEndAccess
p495
(dp496
g307
S'right'
p497
sbasbsbasbsg390
(idelphi
DelphiAddOp
p498
(dp499
g376
S'+'
sg378
(i__main__
DelphiIdentAccess
p500
(dp501
g15
S'kRadioButtonBetweenGap'
p502
sg297
(lp503
sbsg390
(idelphi
DelphiAddOp
p504
(dp505
g376
S'+'
sg378
(idelphi
DelphiNestedExpressionListAccess
p506
(dp507
g297
(lp508
sg299
(lp509
(idelphi
DelphiAddOp
p510
(dp511
g376
S'-'
sg378
(i__main__
DelphiIdentAccess
p512
(dp513
g15
S'yesRect'
p514
sg297
(lp515
(idelphi
DelphiFieldEndAccess
p516
(dp517
g307
S'left'
p518
sbasbsg390
(i__main__
DelphiIdentAccess
p519
(dp520
g15
S'yesRect'
p521
sg297
(lp522
(idelphi
DelphiFieldEndAccess
p523
(dp524
g307
S'right'
p525
sbasbsbasbsg390
(i__main__
DelphiIdentAccess
p526
(dp527
g15
S'kRadioButtonLeftGap'
p528
sg297
(lp529
sbsbsbsbsbasbasbsg334
(i__main__
DelphiIdentAccess
p530
(dp531
g15
S'result'
p532
sg297
(lp533
sbsbasbsg350
(lp534
sbsbsS'updatecurrentvalue'
p535
(i__main__
DelphiMethodImplementation
p536
(dp537
g265
g74
sg42
g76
sg50
(lp538
(i__main__
DelphiFormalParameter
p539
(dp540
g80
Nsg81
(lp541
S'aFieldIndex'
p542
asg17
(i__main__
DelphiPrimitiveType
p543
(dp544
g20
g56
sbsg86
Nsbasg267
(lp545
sg269
(lp546
sg271
(lp547
g273
ag542
asg274
(dp548
g542
g543
ssg52
S'PdBooleanParameterPanel'
p549
sg53
Nsg279
(lp550
sg57
I0
sg58
g65
sg281
(i__main__
DelphiBlock
p551
(dp552
g284
(idelphi
DelphiCompoundStatement
p553
(dp554
g287
(lp555
(idelphi
DelphiIfStatement
p556
(dp557
g291
(idelphi
DelphiRelOp
p558
(dp559
g397
(i__main__
DelphiIdentAccess
p560
(dp561
g15
S'plant'
p562
sg297
(lp563
sbsg402
(idelphi
DelphiNilValue
p564
(dp565
bsg405
S'<>'
p566
sbsg326
(idelphi
DelphiCompoundStatement
p567
(dp568
g287
(lp569
(i__main__
DelphiAssignStatement
p570
(dp571
g329
(i__main__
DelphiIdentAccess
p572
(dp573
g15
S'false'
p574
sg297
(lp575
sbsg334
(i__main__
DelphiIdentAccess
p576
(dp577
g15
S'currentValue'
p578
sg297
(lp579
sbsba(i__main__
DelphiAssignStatement
p580
(dp581
g329
(i__main__
DelphiIdentAccess
p582
(dp583
g15
S'false'
p584
sg297
(lp585
sbsg334
(i__main__
DelphiIdentAccess
p586
(dp587
g15
S'editEnabled'
p588
sg297
(lp589
sbsbasbsg339
(idelphi
DelphiCompoundStatement
p590
(dp591
g287
(lp592
(idelphi
DelphiIfStatement
p593
(dp594
g291
(idelphi
DelphiRelOp
p595
(dp596
g397
(i__main__
DelphiIdentAccess
p597
(dp598
g15
S'param'
p599
sg297
(lp600
(idelphi
DelphiFieldEndAccess
p601
(dp602
g307
S'fieldType'
p603
sbasbsg402
(i__main__
DelphiIdentAccess
p604
(dp605
g15
S'kFieldBoolean'
p606
sg297
(lp607
sbsg405
S'='
sbsg326
Nsg339
(idelphi
DelphiCompoundStatement
p608
(dp609
g287
(lp610
(i__main__
DelphiAssignStatement
p611
(dp612
g329
Nsg334
(i__main__
DelphiIdentAccess
p613
(dp614
g15
S'plant'
p615
sg297
(lp616
(idelphi
DelphiFieldEndAccess
p617
(dp618
g307
S'transferField'
p619
sba(idelphi
DelphiFunctionEndAccess
p620
(dp621
g299
(lp622
(i__main__
DelphiIdentAccess
p623
(dp624
g15
S'kGetField'
p625
sg297
(lp626
sba(i__main__
DelphiIdentAccess
p627
(dp628
g15
S'currentValue'
p629
sg297
(lp630
sba(i__main__
DelphiIdentAccess
p631
(dp632
g15
S'param'
p633
sg297
(lp634
(idelphi
DelphiFieldEndAccess
p635
(dp636
g307
S'fieldNumber'
p637
sbasba(i__main__
DelphiIdentAccess
p638
(dp639
g15
S'kFieldBoolean'
p640
sg297
(lp641
sba(i__main__
DelphiIdentAccess
p642
(dp643
g15
S'kNotArray'
p644
sg297
(lp645
sba(i__main__
DelphiIdentAccess
p646
(dp647
g15
S'false'
p648
sg297
(lp649
sba(idelphi
DelphiNilValue
p650
(dp651
basbasbsba(i__main__
DelphiAssignStatement
p652
(dp653
g329
Nsg334
(i__main__
DelphiIdentAccess
p654
(dp655
g15
S'self'
p656
sg297
(lp657
(idelphi
DelphiFieldEndAccess
p658
(dp659
g307
S'updateDisplay'
p660
sbasbsbasbsbasbsbasbsg350
(lp661
sbsbsS'drawradiobutton'
p662
(i__main__
DelphiMethodImplementation
p663
(dp664
g265
g88
sg42
g90
sg50
(lp665
(i__main__
DelphiFormalParameter
p666
(dp667
g80
Nsg81
(lp668
S'value'
p669
asg17
(i__main__
DelphiPrimitiveType
p670
(dp671
g20
g98
sbsg86
Nsba(i__main__
DelphiFormalParameter
p672
(dp673
g80
Nsg81
(lp674
S'enabled'
p675
asg17
(i__main__
DelphiPrimitiveType
p676
(dp677
g20
g98
sbsg86
Nsba(i__main__
DelphiFormalParameter
p678
(dp679
g80
Nsg81
(lp680
S'rect'
p681
asg17
(i__main__
DelphiNamedType
p682
(dp683
g20
S'TRect'
p684
sg112
g1
sg113
Nsbsg86
Nsbasg267
(lp685
sg269
(lp686
sg271
(lp687
g273
ag669
ag675
ag681
asg274
(dp688
g675
g676
sg681
g682
sg669
g670
ssg52
S'PdBooleanParameterPanel'
p689
sg53
Nsg279
(lp690
sg57
I0
sg58
g65
sg281
(i__main__
DelphiBlock
p691
(dp692
g284
(idelphi
DelphiCompoundStatement
p693
(dp694
g287
(lp695
(idelphi
DelphiWithStatement
p696
(dp697
S'statement'
p698
(idelphi
DelphiCompoundStatement
p699
(dp700
g287
(lp701
(i__main__
DelphiAssignStatement
p702
(dp703
g329
(i__main__
DelphiIdentAccess
p704
(dp705
g15
S'brush'
p706
sg297
(lp707
(idelphi
DelphiFieldEndAccess
p708
(dp709
g307
S'color'
p710
sbasbsg334
(i__main__
DelphiIdentAccess
p711
(dp712
g15
S'brushColor'
p713
sg297
(lp714
sbsba(idelphi
DelphiIfStatement
p715
(dp716
g291
(i__main__
DelphiIdentAccess
p717
(dp718
g15
S'value'
p719
sg297
(lp720
sbsg326
(i__main__
DelphiAssignStatement
p721
(dp722
g329
(i__main__
DelphiIdentAccess
p723
(dp724
g15
S'clBtnFace'
p725
sg297
(lp726
sbsg334
(i__main__
DelphiIdentAccess
p727
(dp728
g15
S'brush'
p729
sg297
(lp730
(idelphi
DelphiFieldEndAccess
p731
(dp732
g307
S'color'
p733
sbasbsbsg339
(idelphi
DelphiIfStatement
p734
(dp735
g291
(i__main__
DelphiIdentAccess
p736
(dp737
g15
S'enabled'
p738
sg297
(lp739
sbsg326
(i__main__
DelphiAssignStatement
p740
(dp741
g329
(i__main__
DelphiIdentAccess
p742
(dp743
g15
S'clBtnShadow'
p744
sg297
(lp745
sbsg334
(i__main__
DelphiIdentAccess
p746
(dp747
g15
S'brush'
p748
sg297
(lp749
(idelphi
DelphiFieldEndAccess
p750
(dp751
g307
S'color'
p752
sbasbsbsg339
(i__main__
DelphiAssignStatement
p753
(dp754
g329
(i__main__
DelphiIdentAccess
p755
(dp756
g15
S'clBtnText'
p757
sg297
(lp758
sbsg334
(i__main__
DelphiIdentAccess
p759
(dp760
g15
S'brush'
p761
sg297
(lp762
(idelphi
DelphiFieldEndAccess
p763
(dp764
g307
S'color'
p765
sbasbsbsbsba(idelphi
DelphiWithStatement
p766
(dp767
g698
(i__main__
DelphiAssignStatement
p768
(dp769
g329
Nsg334
(i__main__
DelphiIdentAccess
p770
(dp771
g15
S'ellipse'
p772
sg297
(lp773
(idelphi
DelphiFunctionEndAccess
p774
(dp775
g299
(lp776
(i__main__
DelphiIdentAccess
p777
(dp778
g15
S'left'
p779
sg297
(lp780
sba(i__main__
DelphiIdentAccess
p781
(dp782
g15
S'top'
p783
sg297
(lp784
sba(i__main__
DelphiIdentAccess
p785
(dp786
g15
S'right'
p787
sg297
(lp788
sba(i__main__
DelphiIdentAccess
p789
(dp790
g15
S'bottom'
p791
sg297
(lp792
sbasbasbsbsS'variableReferenceList'
p793
(lp794
(i__main__
DelphiIdentAccess
p795
(dp796
g15
S'rect'
p797
sg297
(lp798
sbasba(i__main__
DelphiAssignStatement
p799
(dp800
g329
(i__main__
DelphiIdentAccess
p801
(dp802
g15
S'brushColor'
p803
sg297
(lp804
sbsg334
(i__main__
DelphiIdentAccess
p805
(dp806
g15
S'brush'
p807
sg297
(lp808
(idelphi
DelphiFieldEndAccess
p809
(dp810
g307
S'color'
p811
sbasbsba(i__main__
DelphiAssignStatement
p812
(dp813
g329
(i__main__
DelphiIdentAccess
p814
(dp815
g15
S'bsClear'
p816
sg297
(lp817
sbsg334
(i__main__
DelphiIdentAccess
p818
(dp819
g15
S'brush'
p820
sg297
(lp821
(idelphi
DelphiFieldEndAccess
p822
(dp823
g307
S'style'
p824
sbasbsbasbsg793
(lp825
(i__main__
DelphiIdentAccess
p826
(dp827
g15
S'self'
p828
sg297
(lp829
(idelphi
DelphiFieldEndAccess
p830
(dp831
g307
S'canvas'
p832
sbasbasbasbsg350
(lp833
(i__main__
DelphiVarSection
p834
(dp835
g29
I0
sS'varDeclList'
p836
(lp837
(idelphi
DelphiVarDecl
p838
(dp839
g11
NsS'identList'
p840
(lp841
S'brushColor'
p842
asg17
(i__main__
DelphiNamedType
p843
(dp844
g20
S'TColor'
p845
sg112
g1
sg113
NsbsbasbasbsbsS'uncollapsedheight'
p846
(i__main__
DelphiMethodImplementation
p847
(dp848
g265
g115
sg42
g117
sg50
(lp849
sg267
(lp850
sg269
(lp851
sg271
(lp852
g273
asg274
(dp853
sg52
S'PdBooleanParameterPanel'
p854
sg53
(i__main__
DelphiPrimitiveType
p855
(dp856
g20
g56
sbsg279
(lp857
sg57
I0
sg58
g59
sg281
(i__main__
DelphiBlock
p858
(dp859
g284
(idelphi
DelphiCompoundStatement
p860
(dp861
g287
(lp862
(i__main__
DelphiAssignStatement
p863
(dp864
g329
(idelphi
DelphiAddOp
p865
(dp866
g376
S'+'
sg378
(i__main__
DelphiIdentAccess
p867
(dp868
g15
S'kTopBottomGap'
p869
sg297
(lp870
sbsg390
(idelphi
DelphiAddOp
p871
(dp872
g376
S'+'
sg378
(i__main__
DelphiIdentAccess
p873
(dp874
g15
S'self'
p875
sg297
(lp876
(idelphi
DelphiFieldEndAccess
p877
(dp878
g307
S'textHeight'
p879
sbasbsg390
(i__main__
DelphiIdentAccess
p880
(dp881
g15
S'self'
p882
sg297
(lp883
(idelphi
DelphiFieldEndAccess
p884
(dp885
g307
S'collapsedHeight'
p886
sbasbsbsbsg334
(i__main__
DelphiIdentAccess
p887
(dp888
g15
S'result'
p889
sg297
(lp890
sbsbasbsg350
(lp891
sbsbsS'dokeydown'
p892
(i__main__
DelphiMethodImplementation
p893
(dp894
g265
g122
sg42
g124
sg50
(lp895
(i__main__
DelphiFormalParameter
p896
(dp897
g80
Nsg81
(lp898
S'sender'
p899
asg17
(i__main__
DelphiNamedType
p900
(dp901
g20
S'TObject'
p902
sg112
g1
sg113
Nsbsg86
Nsba(i__main__
DelphiFormalParameter
p903
(dp904
g80
Nsg81
(lp905
S'key'
p906
asg17
(i__main__
DelphiPrimitiveType
p907
(dp908
g20
g139
sbsg86
g140
sba(i__main__
DelphiFormalParameter
p909
(dp910
g80
Nsg81
(lp911
S'shift'
p912
asg17
(i__main__
DelphiNamedType
p913
(dp914
g20
S'TShiftState'
p915
sg112
g1
sg113
Nsbsg86
Nsbasg267
(lp916
I1
asg269
(lp917
sg271
(lp918
g273
ag899
ag906
ag912
asg274
(dp919
g912
g913
sg899
g900
sg906
g907
ssg52
S'PdBooleanParameterPanel'
p920
sg53
Nsg279
(lp921
g906
asg57
I0
sg58
g65
sg281
(i__main__
DelphiBlock
p922
(dp923
g284
(idelphi
DelphiCompoundStatement
p924
(dp925
g287
(lp926
(i__main__
DelphiAssignStatement
p927
(dp928
g329
Nsg334
(idelphi
DelphiInheritedCall
p929
(dp930
g15
S'doKeyDown'
p931
sg299
(lp932
(i__main__
DelphiIdentAccess
p933
(dp934
g15
S'sender'
p935
sg297
(lp936
sba(i__main__
DelphiIdentAccess
p937
(dp938
g15
S'key'
p939
sg297
(lp940
sba(i__main__
DelphiIdentAccess
p941
(dp942
g15
S'shift'
p943
sg297
(lp944
sbasbsba(idelphi
DelphiIfStatement
p945
(dp946
g291
(idelphi
DelphiMulOp
p947
(dp948
g294
(idelphi
DelphiNestedExpressionListAccess
p949
(dp950
g297
(lp951
sg299
(lp952
(i__main__
DelphiIdentAccess
p953
(dp954
g15
S'editEnabled'
p955
sg297
(lp956
sbasbsg309
g310
sg311
(idelphi
DelphiNestedExpressionListAccess
p957
(dp958
g297
(lp959
sg299
(lp960
(idelphi
DelphiRelOp
p961
(dp962
g397
(i__main__
DelphiIdentAccess
p963
(dp964
g15
S'key'
p965
sg297
(lp966
sbsg402
(i__main__
DelphiIdentAccess
p967
(dp968
g15
S'VK_RETURN'
p969
sg297
(lp970
sbsg405
S'='
sbasbsbsg326
Nsg339
(idelphi
DelphiCompoundStatement
p971
(dp972
g287
(lp973
(i__main__
DelphiAssignStatement
p974
(dp975
g329
(i__main__
DelphiIdentAccess
p976
(dp977
g15
S'currentValue'
p978
sg297
(lp979
sbsg334
(i__main__
DelphiIdentAccess
p980
(dp981
g15
S'newValue'
p982
sg297
(lp983
sbsba(idelphi
DelphiCaseStatement
p984
(dp985
S'elseStatement'
p986
Nsg291
(i__main__
DelphiIdentAccess
p987
(dp988
g15
S'self'
p989
sg297
(lp990
(idelphi
DelphiFieldEndAccess
p991
(dp992
g307
S'selectedItemIndex'
p993
sbasbsS'caseSelectorList'
p994
(lp995
(idelphi
DelphiCaseSelector
p996
(dp997
g698
(i__main__
DelphiAssignStatement
p998
(dp999
g329
(i__main__
DelphiIdentAccess
p1000
(dp1001
g15
S'true'
p1002
sg297
(lp1003
sbsg334
(i__main__
DelphiIdentAccess
p1004
(dp1005
g15
S'newValue'
p1006
sg297
(lp1007
sbsbsS'caseLabelList'
p1008
(lp1009
(i__main__
DelphiIdentAccess
p1010
(dp1011
g15
S'kItemYes'
p1012
sg297
(lp1013
sbasba(idelphi
DelphiCaseSelector
p1014
(dp1015
g698
(i__main__
DelphiAssignStatement
p1016
(dp1017
g329
(i__main__
DelphiIdentAccess
p1018
(dp1019
g15
S'false'
p1020
sg297
(lp1021
sbsg334
(i__main__
DelphiIdentAccess
p1022
(dp1023
g15
S'newValue'
p1024
sg297
(lp1025
sbsbsg1008
(lp1026
(i__main__
DelphiIdentAccess
p1027
(dp1028
g15
S'kItemNo'
p1029
sg297
(lp1030
sbasbasba(idelphi
DelphiIfStatement
p1031
(dp1032
g291
(idelphi
DelphiNestedExpressionListAccess
p1033
(dp1034
g297
(lp1035
sg299
(lp1036
(idelphi
DelphiRelOp
p1037
(dp1038
g397
(i__main__
DelphiIdentAccess
p1039
(dp1040
g15
S'newValue'
p1041
sg297
(lp1042
sbsg402
(i__main__
DelphiIdentAccess
p1043
(dp1044
g15
S'currentValue'
p1045
sg297
(lp1046
sbsg405
g566
sbasbsg326
Nsg339
(i__main__
DelphiAssignStatement
p1047
(dp1048
g329
Nsg334
(i__main__
DelphiIdentAccess
p1049
(dp1050
g15
S'self'
p1051
sg297
(lp1052
(idelphi
DelphiFieldEndAccess
p1053
(dp1054
g307
S'negateValue'
p1055
sbasbsbsbasbsbasbsg350
(lp1056
(i__main__
DelphiVarSection
p1057
(dp1058
g29
I0
sg836
(lp1059
(idelphi
DelphiVarDecl
p1060
(dp1061
g11
Nsg840
(lp1062
S'newValue'
p1063
asg17
(i__main__
DelphiPrimitiveType
p1064
(dp1065
g20
g98
sbsbasbasbsbsS'updatedisplay'
p1066
(i__main__
DelphiMethodImplementation
p1067
(dp1068
g265
g149
sg42
g151
sg50
(lp1069
sg267
(lp1070
sg269
(lp1071
sg271
(lp1072
g273
asg274
(dp1073
sg52
S'PdBooleanParameterPanel'
p1074
sg53
Nsg279
(lp1075
sg57
I0
sg58
g65
sg281
(i__main__
DelphiBlock
p1076
(dp1077
g284
(idelphi
DelphiCompoundStatement
p1078
(dp1079
g287
(lp1080
(idelphi
DelphiIfStatement
p1081
(dp1082
g291
(idelphi
DelphiRelOp
p1083
(dp1084
g397
(i__main__
DelphiIdentAccess
p1085
(dp1086
g15
S'plant'
p1087
sg297
(lp1088
sbsg402
(idelphi
DelphiNilValue
p1089
(dp1090
bsg405
g566
sbsg326
(i__main__
DelphiAssignStatement
p1091
(dp1092
g329
(i__main__
DelphiIdentAccess
p1093
(dp1094
g15
S'false'
p1095
sg297
(lp1096
sbsg334
(i__main__
DelphiIdentAccess
p1097
(dp1098
g15
S'editEnabled'
p1099
sg297
(lp1100
sbsbsg339
(idelphi
DelphiCompoundStatement
p1101
(dp1102
g287
(lp1103
(idelphi
DelphiIfStatement
p1104
(dp1105
g291
(idelphi
DelphiRelOp
p1106
(dp1107
g397
(i__main__
DelphiIdentAccess
p1108
(dp1109
g15
S'param'
p1110
sg297
(lp1111
(idelphi
DelphiFieldEndAccess
p1112
(dp1113
g307
S'fieldType'
p1114
sbasbsg402
(i__main__
DelphiIdentAccess
p1115
(dp1116
g15
S'kFieldBoolean'
p1117
sg297
(lp1118
sbsg405
S'='
sbsg326
Nsg339
(i__main__
DelphiAssignStatement
p1119
(dp1120
g329
Nsg334
(i__main__
DelphiIdentAccess
p1121
(dp1122
g15
S'self'
p1123
sg297
(lp1124
(idelphi
DelphiFieldEndAccess
p1125
(dp1126
g307
S'invalidate'
p1127
sbasbsbsbasbsbasbsg350
(lp1128
sbsbsS'domousedown'
p1129
(i__main__
DelphiMethodImplementation
p1130
(dp1131
g265
g187
sg42
g189
sg50
(lp1132
(i__main__
DelphiFormalParameter
p1133
(dp1134
g80
Nsg81
(lp1135
S'Sender'
p1136
asg17
(i__main__
DelphiNamedType
p1137
(dp1138
g20
S'TObject'
p1139
sg112
g1
sg113
Nsbsg86
Nsba(i__main__
DelphiFormalParameter
p1140
(dp1141
g80
Nsg81
(lp1142
S'Button'
p1143
asg17
(i__main__
DelphiNamedType
p1144
(dp1145
g20
S'TMouseButton'
p1146
sg112
g1
sg113
Nsbsg86
Nsba(i__main__
DelphiFormalParameter
p1147
(dp1148
g80
Nsg81
(lp1149
S'Shift'
p1150
asg17
(i__main__
DelphiNamedType
p1151
(dp1152
g20
S'TShiftState'
p1153
sg112
g1
sg113
Nsbsg86
Nsba(i__main__
DelphiFormalParameter
p1154
(dp1155
g80
Nsg81
(lp1156
S'X'
aS'Y'
asg17
(i__main__
DelphiPrimitiveType
p1157
(dp1158
g20
g56
sbsg86
Nsbasg267
(lp1159
sg269
(lp1160
sg271
(lp1161
g273
ag1136
ag1143
ag1150
aS'X'
aS'Y'
asg274
(dp1162
S'Y'
g1157
sg1150
g1151
sg1143
g1144
sg1136
g1137
sS'X'
g1157
ssg52
S'PdBooleanParameterPanel'
p1163
sg53
Nsg279
(lp1164
sg57
I0
sg58
g65
sg281
(i__main__
DelphiBlock
p1165
(dp1166
g284
(idelphi
DelphiCompoundStatement
p1167
(dp1168
g287
(lp1169
(i__main__
DelphiAssignStatement
p1170
(dp1171
g329
Nsg334
(idelphi
DelphiInheritedCall
p1172
(dp1173
g15
S'doMouseDown'
p1174
sg299
(lp1175
(i__main__
DelphiIdentAccess
p1176
(dp1177
g15
S'sender'
p1178
sg297
(lp1179
sba(i__main__
DelphiIdentAccess
p1180
(dp1181
g15
S'button'
p1182
sg297
(lp1183
sba(i__main__
DelphiIdentAccess
p1184
(dp1185
g15
S'shift'
p1186
sg297
(lp1187
sba(i__main__
DelphiIdentAccess
p1188
(dp1189
g15
S'x'
sg297
(lp1190
sba(i__main__
DelphiIdentAccess
p1191
(dp1192
g15
S'y'
sg297
(lp1193
sbasbsS'commentLinesBefore'
p1194
(lp1195
S' must always call this first because it sets the focus '
p1196
asba(idelphi
DelphiIfStatement
p1197
(dp1198
g291
(idelphi
DelphiNestedExpressionListAccess
p1199
(dp1200
g297
(lp1201
sg299
(lp1202
(i__main__
DelphiIdentAccess
p1203
(dp1204
g15
S'editEnabled'
p1205
sg297
(lp1206
sbasbsg326
Nsg339
(idelphi
DelphiCompoundStatement
p1207
(dp1208
g287
(lp1209
(i__main__
DelphiAssignStatement
p1210
(dp1211
g329
(i__main__
DelphiIdentAccess
p1212
(dp1213
g15
S'Point'
p1214
sg297
(lp1215
(idelphi
DelphiFunctionEndAccess
p1216
(dp1217
g299
(lp1218
(i__main__
DelphiIdentAccess
p1219
(dp1220
g15
S'x'
sg297
(lp1221
sba(i__main__
DelphiIdentAccess
p1222
(dp1223
g15
S'y'
sg297
(lp1224
sbasbasbsg334
(i__main__
DelphiIdentAccess
p1225
(dp1226
g15
S'thePoint'
p1227
sg297
(lp1228
sbsba(i__main__
DelphiAssignStatement
p1229
(dp1230
g329
(i__main__
DelphiIdentAccess
p1231
(dp1232
g15
S'currentValue'
p1233
sg297
(lp1234
sbsg334
(i__main__
DelphiIdentAccess
p1235
(dp1236
g15
S'newValue'
p1237
sg297
(lp1238
sbsba(idelphi
DelphiIfStatement
p1239
(dp1240
g291
(i__main__
DelphiIdentAccess
p1241
(dp1242
g15
S'ptInRect'
p1243
sg297
(lp1244
(idelphi
DelphiFunctionEndAccess
p1245
(dp1246
g299
(lp1247
(i__main__
DelphiIdentAccess
p1248
(dp1249
g15
S'yesRect'
p1250
sg297
(lp1251
sba(i__main__
DelphiIdentAccess
p1252
(dp1253
g15
S'thePoint'
p1254
sg297
(lp1255
sbasbasbsg326
(idelphi
DelphiIfStatement
p1256
(dp1257
g291
(i__main__
DelphiIdentAccess
p1258
(dp1259
g15
S'ptInRect'
p1260
sg297
(lp1261
(idelphi
DelphiFunctionEndAccess
p1262
(dp1263
g299
(lp1264
(i__main__
DelphiIdentAccess
p1265
(dp1266
g15
S'noRect'
p1267
sg297
(lp1268
sba(i__main__
DelphiIdentAccess
p1269
(dp1270
g15
S'thePoint'
p1271
sg297
(lp1272
sbasbasbsg326
Nsg339
(idelphi
DelphiCompoundStatement
p1273
(dp1274
g287
(lp1275
(i__main__
DelphiAssignStatement
p1276
(dp1277
g329
(i__main__
DelphiIdentAccess
p1278
(dp1279
g15
S'false'
p1280
sg297
(lp1281
sbsg334
(i__main__
DelphiIdentAccess
p1282
(dp1283
g15
S'newValue'
p1284
sg297
(lp1285
sbsba(i__main__
DelphiAssignStatement
p1286
(dp1287
g329
(i__main__
DelphiIdentAccess
p1288
(dp1289
g15
S'kItemNo'
p1290
sg297
(lp1291
sbsg334
(i__main__
DelphiIdentAccess
p1292
(dp1293
g15
S'self'
p1294
sg297
(lp1295
(idelphi
DelphiFieldEndAccess
p1296
(dp1297
g307
S'selectedItemIndex'
p1298
sbasbsbasbsbsg339
(idelphi
DelphiCompoundStatement
p1299
(dp1300
g287
(lp1301
(i__main__
DelphiAssignStatement
p1302
(dp1303
g329
(i__main__
DelphiIdentAccess
p1304
(dp1305
g15
S'true'
p1306
sg297
(lp1307
sbsg334
(i__main__
DelphiIdentAccess
p1308
(dp1309
g15
S'newValue'
p1310
sg297
(lp1311
sbsba(i__main__
DelphiAssignStatement
p1312
(dp1313
g329
(i__main__
DelphiIdentAccess
p1314
(dp1315
g15
S'kItemYes'
p1316
sg297
(lp1317
sbsg334
(i__main__
DelphiIdentAccess
p1318
(dp1319
g15
S'self'
p1320
sg297
(lp1321
(idelphi
DelphiFieldEndAccess
p1322
(dp1323
g307
S'selectedItemIndex'
p1324
sbasbsbasbsba(i__main__
DelphiAssignStatement
p1325
(dp1326
g329
Nsg334
(i__main__
DelphiIdentAccess
p1327
(dp1328
g15
S'self'
p1329
sg297
(lp1330
(idelphi
DelphiFieldEndAccess
p1331
(dp1332
g307
S'invalidate'
p1333
sbasbsba(idelphi
DelphiIfStatement
p1334
(dp1335
g291
(idelphi
DelphiNestedExpressionListAccess
p1336
(dp1337
g297
(lp1338
sg299
(lp1339
(idelphi
DelphiRelOp
p1340
(dp1341
g397
(i__main__
DelphiIdentAccess
p1342
(dp1343
g15
S'newValue'
p1344
sg297
(lp1345
sbsg402
(i__main__
DelphiIdentAccess
p1346
(dp1347
g15
S'currentValue'
p1348
sg297
(lp1349
sbsg405
g566
sbasbsg326
Nsg339
(i__main__
DelphiAssignStatement
p1350
(dp1351
g329
Nsg334
(i__main__
DelphiIdentAccess
p1352
(dp1353
g15
S'self'
p1354
sg297
(lp1355
(idelphi
DelphiFieldEndAccess
p1356
(dp1357
g307
S'negateValue'
p1358
sbasbsbsbasbsbasbsg350
(lp1359
(i__main__
DelphiVarSection
p1360
(dp1361
g29
I0
sg836
(lp1362
(idelphi
DelphiVarDecl
p1363
(dp1364
g11
Nsg840
(lp1365
S'thePoint'
p1366
asg17
(i__main__
DelphiNamedType
p1367
(dp1368
g20
S'TPoint'
p1369
sg112
g1
sg113
Nsbsba(idelphi
DelphiVarDecl
p1370
(dp1371
g11
Nsg840
(lp1372
S'newValue'
p1373
asg17
(i__main__
DelphiPrimitiveType
p1374
(dp1375
g20
g98
sbsbasbasbsbsS'minwidth'
p1376
(i__main__
DelphiMethodImplementation
p1377
(dp1378
g265
g159
sg42
g161
sg50
(lp1379
(i__main__
DelphiFormalParameter
p1380
(dp1381
g80
Nsg81
(lp1382
S'requestedWidth'
p1383
asg17
(i__main__
DelphiPrimitiveType
p1384
(dp1385
g20
g56
sbsg86
Nsbasg267
(lp1386
sg269
(lp1387
sg271
(lp1388
g273
ag1383
asg274
(dp1389
g1383
g1384
ssg52
S'PdBooleanParameterPanel'
p1390
sg53
(i__main__
DelphiPrimitiveType
p1391
(dp1392
g20
g56
sbsg279
(lp1393
sg57
I0
sg58
g59
sg281
(i__main__
DelphiBlock
p1394
(dp1395
g284
(idelphi
DelphiCompoundStatement
p1396
(dp1397
g287
(lp1398
(i__main__
DelphiAssignStatement
p1399
(dp1400
g329
(i__main__
DelphiIdentAccess
p1401
(dp1402
g15
S'intMax'
p1403
sg297
(lp1404
(idelphi
DelphiFunctionEndAccess
p1405
(dp1406
g299
(lp1407
(idelphi
DelphiAddOp
p1408
(dp1409
g376
S'+'
sg378
(i__main__
DelphiIdentAccess
p1410
(dp1411
g15
S'self'
p1412
sg297
(lp1413
(idelphi
DelphiFieldEndAccess
p1414
(dp1415
g307
S'longestLabelWordWidth'
p1416
sbasbsg390
(idelphi
DelphiMulOp
p1417
(dp1418
g294
(idelphi
DelphiIntegerValue
p1419
(dp1420
g14
S'2'
sbsg309
S'*'
sg311
(i__main__
DelphiIdentAccess
p1421
(dp1422
g15
S'kLeftRightGap'
p1423
sg297
(lp1424
sbsbsba(idelphi
DelphiAddOp
p1425
(dp1426
g376
S'+'
sg378
(i__main__
DelphiIdentAccess
p1427
(dp1428
g15
S'kLeftRightGap'
p1429
sg297
(lp1430
sbsg390
(idelphi
DelphiAddOp
p1431
(dp1432
g376
S'+'
sg378
(idelphi
DelphiNestedExpressionListAccess
p1433
(dp1434
g297
(lp1435
sg299
(lp1436
(idelphi
DelphiAddOp
p1437
(dp1438
g376
S'-'
sg378
(i__main__
DelphiIdentAccess
p1439
(dp1440
g15
S'noRect'
p1441
sg297
(lp1442
(idelphi
DelphiFieldEndAccess
p1443
(dp1444
g307
S'left'
p1445
sbasbsg390
(i__main__
DelphiIdentAccess
p1446
(dp1447
g15
S'noRect'
p1448
sg297
(lp1449
(idelphi
DelphiFieldEndAccess
p1450
(dp1451
g307
S'right'
p1452
sbasbsbasbsg390
(idelphi
DelphiAddOp
p1453
(dp1454
g376
S'+'
sg378
(i__main__
DelphiIdentAccess
p1455
(dp1456
g15
S'kRadioButtonBetweenGap'
p1457
sg297
(lp1458
sbsg390
(idelphi
DelphiAddOp
p1459
(dp1460
g376
S'+'
sg378
(idelphi
DelphiNestedExpressionListAccess
p1461
(dp1462
g297
(lp1463
sg299
(lp1464
(idelphi
DelphiAddOp
p1465
(dp1466
g376
S'-'
sg378
(i__main__
DelphiIdentAccess
p1467
(dp1468
g15
S'yesRect'
p1469
sg297
(lp1470
(idelphi
DelphiFieldEndAccess
p1471
(dp1472
g307
S'left'
p1473
sbasbsg390
(i__main__
DelphiIdentAccess
p1474
(dp1475
g15
S'yesRect'
p1476
sg297
(lp1477
(idelphi
DelphiFieldEndAccess
p1478
(dp1479
g307
S'right'
p1480
sbasbsbasbsg390
(i__main__
DelphiIdentAccess
p1481
(dp1482
g15
S'kRadioButtonLeftGap'
p1483
sg297
(lp1484
sbsbsbsbsbasbasbsg334
(i__main__
DelphiIdentAccess
p1485
(dp1486
g15
S'minAllowed'
p1487
sg297
(lp1488
sbsba(idelphi
DelphiIfStatement
p1489
(dp1490
g291
(idelphi
DelphiRelOp
p1491
(dp1492
g397
(i__main__
DelphiIdentAccess
p1493
(dp1494
g15
S'requestedWidth'
p1495
sg297
(lp1496
sbsg402
(i__main__
DelphiIdentAccess
p1497
(dp1498
g15
S'minAllowed'
p1499
sg297
(lp1500
sbsg405
S'>'
sbsg326
(i__main__
DelphiAssignStatement
p1501
(dp1502
g329
(i__main__
DelphiIdentAccess
p1503
(dp1504
g15
S'minAllowed'
p1505
sg297
(lp1506
sbsg334
(i__main__
DelphiIdentAccess
p1507
(dp1508
g15
S'result'
p1509
sg297
(lp1510
sbsbsg339
(i__main__
DelphiAssignStatement
p1511
(dp1512
g329
(idelphi
DelphiSign
p1513
(dp1514
g318
(idelphi
DelphiIntegerValue
p1515
(dp1516
g14
S'1'
sbsS'sign'
p1517
S'-'
sbsg334
(i__main__
DelphiIdentAccess
p1518
(dp1519
g15
S'result'
p1520
sg297
(lp1521
sbsbsbasbsg350
(lp1522
(i__main__
DelphiVarSection
p1523
(dp1524
g29
I0
sg836
(lp1525
(idelphi
DelphiVarDecl
p1526
(dp1527
g11
Nsg840
(lp1528
S'minAllowed'
p1529
asg17
(i__main__
DelphiPrimitiveType
p1530
(dp1531
g20
g56
sbsbasbasbsbsS'paint'
p1532
(i__main__
DelphiMethodImplementation
p1533
(dp1534
g265
g172
sg42
g174
sg50
(lp1535
sg267
(lp1536
sg269
(lp1537
sg271
(lp1538
g273
asg274
(dp1539
sg52
S'PdBooleanParameterPanel'
p1540
sg53
Nsg279
(lp1541
sg57
I0
sg58
g65
sg281
(i__main__
DelphiBlock
p1542
(dp1543
g284
(idelphi
DelphiCompoundStatement
p1544
(dp1545
g287
(lp1546
(i__main__
DelphiAssignStatement
p1547
(dp1548
g329
Nsg334
(idelphi
DelphiInheritedCall
p1549
(dp1550
g15
S'paint'
p1551
sg299
Nsbsba(idelphi
DelphiIfStatement
p1552
(dp1553
g291
(idelphi
DelphiNestedExpressionListAccess
p1554
(dp1555
g297
(lp1556
sg299
(lp1557
(i__main__
DelphiIdentAccess
p1558
(dp1559
g15
S'param'
p1560
sg297
(lp1561
(idelphi
DelphiFieldEndAccess
p1562
(dp1563
g307
S'collapsed'
p1564
sbasbasbsg326
Nsg339
(idelphi
DelphiCompoundStatement
p1565
(dp1566
g287
(lp1567
(idelphi
DelphiIfStatement
p1568
(dp1569
g291
(i__main__
DelphiIdentAccess
p1570
(dp1571
g15
S'currentValue'
p1572
sg297
(lp1573
sbsg326
(i__main__
DelphiAssignStatement
p1574
(dp1575
g329
Nsg334
(i__main__
DelphiIdentAccess
p1576
(dp1577
g15
S'self'
p1578
sg297
(lp1579
(idelphi
DelphiFieldEndAccess
p1580
(dp1581
g307
S'drawExtraValueCaptionWithString'
p1582
sba(idelphi
DelphiFunctionEndAccess
p1583
(dp1584
g299
(lp1585
(idelphi
DelphiStringAccess
p1586
(dp1587
g297
(lp1588
sg14
(idelphi
DelphiStringValue
p1589
(dp1590
g14
S'no'
p1591
sbsba(idelphi
DelphiStringAccess
p1592
(dp1593
g297
(lp1594
sg14
(idelphi
DelphiStringValue
p1595
(dp1596
g14
S''
sbsbasbasbsbsg339
(i__main__
DelphiAssignStatement
p1597
(dp1598
g329
Nsg334
(i__main__
DelphiIdentAccess
p1599
(dp1600
g15
S'self'
p1601
sg297
(lp1602
(idelphi
DelphiFieldEndAccess
p1603
(dp1604
g307
S'drawExtraValueCaptionWithString'
p1605
sba(idelphi
DelphiFunctionEndAccess
p1606
(dp1607
g299
(lp1608
(idelphi
DelphiStringAccess
p1609
(dp1610
g297
(lp1611
sg14
(idelphi
DelphiStringValue
p1612
(dp1613
g14
S'yes'
p1614
sbsba(idelphi
DelphiStringAccess
p1615
(dp1616
g297
(lp1617
sg14
(idelphi
DelphiStringValue
p1618
(dp1619
g14
S''
sbsbasbasbsbsba(i__main__
DelphiExitStatement
p1620
(dp1621
S'proceduralOrMethodImplementation'
p1622
g1533
sbasbsba(i__main__
DelphiAssignStatement
p1623
(dp1624
g329
(i__main__
DelphiIdentAccess
p1625
(dp1626
g15
S'GetClientRect'
p1627
sg297
(lp1628
sbsg334
(i__main__
DelphiIdentAccess
p1629
(dp1630
g15
S'rect'
p1631
sg297
(lp1632
sbsba(idelphi
DelphiWithStatement
p1633
(dp1634
g698
(idelphi
DelphiCompoundStatement
p1635
(dp1636
g287
(lp1637
(i__main__
DelphiAssignStatement
p1638
(dp1639
g329
(i__main__
DelphiIdentAccess
p1640
(dp1641
g15
S'self'
p1642
sg297
(lp1643
(idelphi
DelphiFieldEndAccess
p1644
(dp1645
g307
S'font'
p1646
sbasbsg334
(i__main__
DelphiIdentAccess
p1647
(dp1648
g15
S'font'
p1649
sg297
(lp1650
sbsba(idelphi
DelphiWithStatement
p1651
(dp1652
g698
(idelphi
DelphiCompoundStatement
p1653
(dp1654
g287
(lp1655
(i__main__
DelphiAssignStatement
p1656
(dp1657
g329
(idelphi
DelphiAddOp
p1658
(dp1659
g376
S'+'
sg378
(i__main__
DelphiIdentAccess
p1660
(dp1661
g15
S'kRadioButtonLeftGap'
p1662
sg297
(lp1663
sbsg390
(i__main__
DelphiIdentAccess
p1664
(dp1665
g15
S'rect'
p1666
sg297
(lp1667
(idelphi
DelphiFieldEndAccess
p1668
(dp1669
g307
S'left'
p1670
sbasbsbsg334
(i__main__
DelphiIdentAccess
p1671
(dp1672
g15
S'left'
p1673
sg297
(lp1674
sbsba(i__main__
DelphiAssignStatement
p1675
(dp1676
g329
(idelphi
DelphiAddOp
p1677
(dp1678
g376
S'+'
sg378
(i__main__
DelphiIdentAccess
p1679
(dp1680
g15
S'kRadioButtonWidth'
p1681
sg297
(lp1682
sbsg390
(i__main__
DelphiIdentAccess
p1683
(dp1684
g15
S'left'
p1685
sg297
(lp1686
sbsbsg334
(i__main__
DelphiIdentAccess
p1687
(dp1688
g15
S'right'
p1689
sg297
(lp1690
sbsba(i__main__
DelphiAssignStatement
p1691
(dp1692
g329
(idelphi
DelphiAddOp
p1693
(dp1694
g376
S'+'
sg378
(idelphi
DelphiNestedExpressionListAccess
p1695
(dp1696
g297
(lp1697
sg299
(lp1698
(idelphi
DelphiAddOp
p1699
(dp1700
g376
S'-'
sg378
(idelphi
DelphiMulOp
p1701
(dp1702
g294
(idelphi
DelphiIntegerValue
p1703
(dp1704
g14
S'2'
sbsg309
S'div'
p1705
sg311
(i__main__
DelphiIdentAccess
p1706
(dp1707
g15
S'kRadioButtonWidth'
p1708
sg297
(lp1709
sbsbsg390
(idelphi
DelphiMulOp
p1710
(dp1711
g294
(idelphi
DelphiIntegerValue
p1712
(dp1713
g14
S'2'
sbsg309
g1705
sg311
(i__main__
DelphiIdentAccess
p1714
(dp1715
g15
S'self'
p1716
sg297
(lp1717
(idelphi
DelphiFieldEndAccess
p1718
(dp1719
g307
S'textHeight'
p1720
sbasbsbsbasbsg390
(idelphi
DelphiAddOp
p1721
(dp1722
g376
S'+'
sg378
(i__main__
DelphiIdentAccess
p1723
(dp1724
g15
S'self'
p1725
sg297
(lp1726
(idelphi
DelphiFieldEndAccess
p1727
(dp1728
g307
S'collapsedHeight'
p1729
sbasbsg390
(i__main__
DelphiIdentAccess
p1730
(dp1731
g15
S'rect'
p1732
sg297
(lp1733
(idelphi
DelphiFieldEndAccess
p1734
(dp1735
g307
S'top'
p1736
sbasbsbsbsg334
(i__main__
DelphiIdentAccess
p1737
(dp1738
g15
S'top'
p1739
sg297
(lp1740
sbsba(i__main__
DelphiAssignStatement
p1741
(dp1742
g329
(idelphi
DelphiAddOp
p1743
(dp1744
g376
S'+'
sg378
(i__main__
DelphiIdentAccess
p1745
(dp1746
g15
S'kRadioButtonWidth'
p1747
sg297
(lp1748
sbsg390
(i__main__
DelphiIdentAccess
p1749
(dp1750
g15
S'top'
p1751
sg297
(lp1752
sbsbsg334
(i__main__
DelphiIdentAccess
p1753
(dp1754
g15
S'bottom'
p1755
sg297
(lp1756
sbsbasbsg793
(lp1757
(i__main__
DelphiIdentAccess
p1758
(dp1759
g15
S'circleYesRect'
p1760
sg297
(lp1761
sbasba(idelphi
DelphiWithStatement
p1762
(dp1763
g698
(idelphi
DelphiCompoundStatement
p1764
(dp1765
g287
(lp1766
(i__main__
DelphiAssignStatement
p1767
(dp1768
g329
(idelphi
DelphiAddOp
p1769
(dp1770
g376
S'+'
sg378
(i__main__
DelphiIdentAccess
p1771
(dp1772
g15
S'kRadioButtonBeforeTextGap'
p1773
sg297
(lp1774
sbsg390
(idelphi
DelphiAddOp
p1775
(dp1776
g376
S'+'
sg378
(i__main__
DelphiIdentAccess
p1777
(dp1778
g15
S'kRadioButtonWidth'
p1779
sg297
(lp1780
sbsg390
(idelphi
DelphiAddOp
p1781
(dp1782
g376
S'+'
sg378
(i__main__
DelphiIdentAccess
p1783
(dp1784
g15
S'kRadioButtonLeftGap'
p1785
sg297
(lp1786
sbsg390
(i__main__
DelphiIdentAccess
p1787
(dp1788
g15
S'rect'
p1789
sg297
(lp1790
(idelphi
DelphiFieldEndAccess
p1791
(dp1792
g307
S'left'
p1793
sbasbsbsbsbsg334
(i__main__
DelphiIdentAccess
p1794
(dp1795
g15
S'left'
p1796
sg297
(lp1797
sbsba(i__main__
DelphiAssignStatement
p1798
(dp1799
g329
(idelphi
DelphiAddOp
p1800
(dp1801
g376
S'+'
sg378
(i__main__
DelphiIdentAccess
p1802
(dp1803
g15
S'textWidth'
p1804
sg297
(lp1805
(idelphi
DelphiFunctionEndAccess
p1806
(dp1807
g299
(lp1808
(idelphi
DelphiStringAccess
p1809
(dp1810
g297
(lp1811
sg14
(idelphi
DelphiStringValue
p1812
(dp1813
g14
S'yes'
p1814
sbsbasbasbsg390
(i__main__
DelphiIdentAccess
p1815
(dp1816
g15
S'left'
p1817
sg297
(lp1818
sbsbsg334
(i__main__
DelphiIdentAccess
p1819
(dp1820
g15
S'right'
p1821
sg297
(lp1822
sbsba(i__main__
DelphiAssignStatement
p1823
(dp1824
g329
(idelphi
DelphiAddOp
p1825
(dp1826
g376
S'+'
sg378
(i__main__
DelphiIdentAccess
p1827
(dp1828
g15
S'self'
p1829
sg297
(lp1830
(idelphi
DelphiFieldEndAccess
p1831
(dp1832
g307
S'collapsedHeight'
p1833
sbasbsg390
(i__main__
DelphiIdentAccess
p1834
(dp1835
g15
S'rect'
p1836
sg297
(lp1837
(idelphi
DelphiFieldEndAccess
p1838
(dp1839
g307
S'top'
p1840
sbasbsbsg334
(i__main__
DelphiIdentAccess
p1841
(dp1842
g15
S'top'
p1843
sg297
(lp1844
sbsba(i__main__
DelphiAssignStatement
p1845
(dp1846
g329
(idelphi
DelphiAddOp
p1847
(dp1848
g376
S'+'
sg378
(i__main__
DelphiIdentAccess
p1849
(dp1850
g15
S'self'
p1851
sg297
(lp1852
(idelphi
DelphiFieldEndAccess
p1853
(dp1854
g307
S'textHeight'
p1855
sbasbsg390
(i__main__
DelphiIdentAccess
p1856
(dp1857
g15
S'top'
p1858
sg297
(lp1859
sbsbsg334
(i__main__
DelphiIdentAccess
p1860
(dp1861
g15
S'bottom'
p1862
sg297
(lp1863
sbsbasbsg793
(lp1864
(i__main__
DelphiIdentAccess
p1865
(dp1866
g15
S'yesTextRect'
p1867
sg297
(lp1868
sbasba(i__main__
DelphiAssignStatement
p1869
(dp1870
g329
(i__main__
DelphiIdentAccess
p1871
(dp1872
g15
S'circleYesRect'
p1873
sg297
(lp1874
sbsg334
(i__main__
DelphiIdentAccess
p1875
(dp1876
g15
S'circleNoRect'
p1877
sg297
(lp1878
sbsba(idelphi
DelphiWithStatement
p1879
(dp1880
g698
(idelphi
DelphiCompoundStatement
p1881
(dp1882
g287
(lp1883
(i__main__
DelphiAssignStatement
p1884
(dp1885
g329
(idelphi
DelphiAddOp
p1886
(dp1887
g376
S'+'
sg378
(i__main__
DelphiIdentAccess
p1888
(dp1889
g15
S'kRadioButtonBetweenGap'
p1890
sg297
(lp1891
sbsg390
(i__main__
DelphiIdentAccess
p1892
(dp1893
g15
S'yesTextRect'
p1894
sg297
(lp1895
(idelphi
DelphiFieldEndAccess
p1896
(dp1897
g307
S'right'
p1898
sbasbsbsg334
(i__main__
DelphiIdentAccess
p1899
(dp1900
g15
S'left'
p1901
sg297
(lp1902
sbsba(i__main__
DelphiAssignStatement
p1903
(dp1904
g329
(idelphi
DelphiAddOp
p1905
(dp1906
g376
S'+'
sg378
(i__main__
DelphiIdentAccess
p1907
(dp1908
g15
S'kRadioButtonWidth'
p1909
sg297
(lp1910
sbsg390
(i__main__
DelphiIdentAccess
p1911
(dp1912
g15
S'left'
p1913
sg297
(lp1914
sbsbsg334
(i__main__
DelphiIdentAccess
p1915
(dp1916
g15
S'right'
p1917
sg297
(lp1918
sbsbasbsg793
(lp1919
(i__main__
DelphiIdentAccess
p1920
(dp1921
g15
S'circleNoRect'
p1922
sg297
(lp1923
sbasba(i__main__
DelphiAssignStatement
p1924
(dp1925
g329
(i__main__
DelphiIdentAccess
p1926
(dp1927
g15
S'yesTextRect'
p1928
sg297
(lp1929
sbsg334
(i__main__
DelphiIdentAccess
p1930
(dp1931
g15
S'noTextRect'
p1932
sg297
(lp1933
sbsba(idelphi
DelphiWithStatement
p1934
(dp1935
g698
(idelphi
DelphiCompoundStatement
p1936
(dp1937
g287
(lp1938
(i__main__
DelphiAssignStatement
p1939
(dp1940
g329
(idelphi
DelphiAddOp
p1941
(dp1942
g376
S'+'
sg378
(i__main__
DelphiIdentAccess
p1943
(dp1944
g15
S'kRadioButtonBeforeTextGap'
p1945
sg297
(lp1946
sbsg390
(idelphi
DelphiAddOp
p1947
(dp1948
g376
S'+'
sg378
(i__main__
DelphiIdentAccess
p1949
(dp1950
g15
S'kRadioButtonWidth'
p1951
sg297
(lp1952
sbsg390
(idelphi
DelphiAddOp
p1953
(dp1954
g376
S'+'
sg378
(i__main__
DelphiIdentAccess
p1955
(dp1956
g15
S'kRadioButtonBetweenGap'
p1957
sg297
(lp1958
sbsg390
(i__main__
DelphiIdentAccess
p1959
(dp1960
g15
S'yesTextRect'
p1961
sg297
(lp1962
(idelphi
DelphiFieldEndAccess
p1963
(dp1964
g307
S'right'
p1965
sbasbsbsbsbsg334
(i__main__
DelphiIdentAccess
p1966
(dp1967
g15
S'left'
p1968
sg297
(lp1969
sbsba(i__main__
DelphiAssignStatement
p1970
(dp1971
g329
(idelphi
DelphiAddOp
p1972
(dp1973
g376
S'+'
sg378
(i__main__
DelphiIdentAccess
p1974
(dp1975
g15
S'textWidth'
p1976
sg297
(lp1977
(idelphi
DelphiFunctionEndAccess
p1978
(dp1979
g299
(lp1980
(idelphi
DelphiStringAccess
p1981
(dp1982
g297
(lp1983
sg14
(idelphi
DelphiStringValue
p1984
(dp1985
g14
S'no'
p1986
sbsbasbasbsg390
(i__main__
DelphiIdentAccess
p1987
(dp1988
g15
S'left'
p1989
sg297
(lp1990
sbsbsg334
(i__main__
DelphiIdentAccess
p1991
(dp1992
g15
S'right'
p1993
sg297
(lp1994
sbsbasbsg793
(lp1995
(i__main__
DelphiIdentAccess
p1996
(dp1997
g15
S'noTextRect'
p1998
sg297
(lp1999
sbasba(i__main__
DelphiAssignStatement
p2000
(dp2001
g329
Nsg334
(i__main__
DelphiIdentAccess
p2002
(dp2003
g15
S'self'
p2004
sg297
(lp2005
(idelphi
DelphiFieldEndAccess
p2006
(dp2007
g307
S'drawRadioButton'
p2008
sba(idelphi
DelphiFunctionEndAccess
p2009
(dp2010
g299
(lp2011
(i__main__
DelphiIdentAccess
p2012
(dp2013
g15
S'currentValue'
p2014
sg297
(lp2015
sba(i__main__
DelphiIdentAccess
p2016
(dp2017
g15
S'editEnabled'
p2018
sg297
(lp2019
sba(i__main__
DelphiIdentAccess
p2020
(dp2021
g15
S'circleYesRect'
p2022
sg297
(lp2023
sbasbasbsba(i__main__
DelphiAssignStatement
p2024
(dp2025
g329
Nsg334
(i__main__
DelphiIdentAccess
p2026
(dp2027
g15
S'self'
p2028
sg297
(lp2029
(idelphi
DelphiFieldEndAccess
p2030
(dp2031
g307
S'drawText'
p2032
sba(idelphi
DelphiFunctionEndAccess
p2033
(dp2034
g299
(lp2035
(idelphi
DelphiStringAccess
p2036
(dp2037
g297
(lp2038
sg14
(idelphi
DelphiStringValue
p2039
(dp2040
g14
S'yes'
p2041
sbsba(i__main__
DelphiIdentAccess
p2042
(dp2043
g15
S'yesTextRect'
p2044
sg297
(lp2045
sba(i__main__
DelphiIdentAccess
p2046
(dp2047
g15
S'true'
p2048
sg297
(lp2049
sba(idelphi
DelphiMulOp
p2050
(dp2051
g294
(idelphi
DelphiNestedExpressionListAccess
p2052
(dp2053
g297
(lp2054
sg299
(lp2055
(i__main__
DelphiIdentAccess
p2056
(dp2057
g15
S'self'
p2058
sg297
(lp2059
(idelphi
DelphiFieldEndAccess
p2060
(dp2061
g307
S'editEnabled'
p2062
sbasbasbsg309
g310
sg311
(idelphi
DelphiNestedExpressionListAccess
p2063
(dp2064
g297
(lp2065
sg299
(lp2066
(idelphi
DelphiRelOp
p2067
(dp2068
g397
(i__main__
DelphiIdentAccess
p2069
(dp2070
g15
S'self'
p2071
sg297
(lp2072
(idelphi
DelphiFieldEndAccess
p2073
(dp2074
g307
S'selectedItemIndex'
p2075
sbasbsg402
(i__main__
DelphiIdentAccess
p2076
(dp2077
g15
S'kItemYes'
p2078
sg297
(lp2079
sbsg405
S'='
sbasbsba(i__main__
DelphiIdentAccess
p2080
(dp2081
g15
S'false'
p2082
sg297
(lp2083
sbasbasbsba(i__main__
DelphiAssignStatement
p2084
(dp2085
g329
Nsg334
(i__main__
DelphiIdentAccess
p2086
(dp2087
g15
S'self'
p2088
sg297
(lp2089
(idelphi
DelphiFieldEndAccess
p2090
(dp2091
g307
S'drawRadioButton'
p2092
sba(idelphi
DelphiFunctionEndAccess
p2093
(dp2094
g299
(lp2095
(idelphi
DelphiNot
p2096
(dp2097
g318
(i__main__
DelphiIdentAccess
p2098
(dp2099
g15
S'currentValue'
p2100
sg297
(lp2101
sbsba(i__main__
DelphiIdentAccess
p2102
(dp2103
g15
S'editEnabled'
p2104
sg297
(lp2105
sba(i__main__
DelphiIdentAccess
p2106
(dp2107
g15
S'circleNoRect'
p2108
sg297
(lp2109
sbasbasbsba(i__main__
DelphiAssignStatement
p2110
(dp2111
g329
Nsg334
(i__main__
DelphiIdentAccess
p2112
(dp2113
g15
S'self'
p2114
sg297
(lp2115
(idelphi
DelphiFieldEndAccess
p2116
(dp2117
g307
S'drawText'
p2118
sba(idelphi
DelphiFunctionEndAccess
p2119
(dp2120
g299
(lp2121
(idelphi
DelphiStringAccess
p2122
(dp2123
g297
(lp2124
sg14
(idelphi
DelphiStringValue
p2125
(dp2126
g14
S'no'
p2127
sbsba(i__main__
DelphiIdentAccess
p2128
(dp2129
g15
S'noTextRect'
p2130
sg297
(lp2131
sba(i__main__
DelphiIdentAccess
p2132
(dp2133
g15
S'true'
p2134
sg297
(lp2135
sba(idelphi
DelphiMulOp
p2136
(dp2137
g294
(idelphi
DelphiNestedExpressionListAccess
p2138
(dp2139
g297
(lp2140
sg299
(lp2141
(i__main__
DelphiIdentAccess
p2142
(dp2143
g15
S'self'
p2144
sg297
(lp2145
(idelphi
DelphiFieldEndAccess
p2146
(dp2147
g307
S'editEnabled'
p2148
sbasbasbsg309
g310
sg311
(idelphi
DelphiNestedExpressionListAccess
p2149
(dp2150
g297
(lp2151
sg299
(lp2152
(idelphi
DelphiRelOp
p2153
(dp2154
g397
(i__main__
DelphiIdentAccess
p2155
(dp2156
g15
S'self'
p2157
sg297
(lp2158
(idelphi
DelphiFieldEndAccess
p2159
(dp2160
g307
S'selectedItemIndex'
p2161
sbasbsg402
(i__main__
DelphiIdentAccess
p2162
(dp2163
g15
S'kItemNo'
p2164
sg297
(lp2165
sbsg405
S'='
sbasbsba(i__main__
DelphiIdentAccess
p2166
(dp2167
g15
S'false'
p2168
sg297
(lp2169
sbasbasbsba(i__main__
DelphiAssignStatement
p2170
(dp2171
g329
Nsg334
(i__main__
DelphiIdentAccess
p2172
(dp2173
g15
S'unionRect'
p2174
sg297
(lp2175
(idelphi
DelphiFunctionEndAccess
p2176
(dp2177
g299
(lp2178
(i__main__
DelphiIdentAccess
p2179
(dp2180
g15
S'yesRect'
p2181
sg297
(lp2182
sba(i__main__
DelphiIdentAccess
p2183
(dp2184
g15
S'circleYesRect'
p2185
sg297
(lp2186
sba(i__main__
DelphiIdentAccess
p2187
(dp2188
g15
S'yesTextRect'
p2189
sg297
(lp2190
sbasbasbsba(i__main__
DelphiAssignStatement
p2191
(dp2192
g329
Nsg334
(i__main__
DelphiIdentAccess
p2193
(dp2194
g15
S'unionRect'
p2195
sg297
(lp2196
(idelphi
DelphiFunctionEndAccess
p2197
(dp2198
g299
(lp2199
(i__main__
DelphiIdentAccess
p2200
(dp2201
g15
S'noRect'
p2202
sg297
(lp2203
sba(i__main__
DelphiIdentAccess
p2204
(dp2205
g15
S'circleNoRect'
p2206
sg297
(lp2207
sba(i__main__
DelphiIdentAccess
p2208
(dp2209
g15
S'noTextRect'
p2210
sg297
(lp2211
sbasbasbsbasbsg793
(lp2212
(i__main__
DelphiIdentAccess
p2213
(dp2214
g15
S'Canvas'
p2215
sg297
(lp2216
sbasbasbsg350
(lp2217
(i__main__
DelphiVarSection
p2218
(dp2219
g29
I0
sg836
(lp2220
(idelphi
DelphiVarDecl
p2221
(dp2222
g11
Nsg840
(lp2223
S'rect'
p2224
aS'circleYesRect'
p2225
aS'circleNoRect'
p2226
aS'yesTextRect'
p2227
aS'noTextRect'
p2228
asg17
(i__main__
DelphiNamedType
p2229
(dp2230
g20
S'TRect'
p2231
sg112
g1
sg113
NsbsbasbasbsbsS'resizeelements'
p2232
(i__main__
DelphiMethodImplementation
p2233
(dp2234
g265
g154
sg42
g156
sg50
(lp2235
sg267
(lp2236
sg269
(lp2237
sg271
(lp2238
g273
asg274
(dp2239
sg52
S'PdBooleanParameterPanel'
p2240
sg53
Nsg279
(lp2241
sg57
I0
sg58
g65
sg281
(i__main__
DelphiBlock
p2242
(dp2243
g284
(idelphi
DelphiCompoundStatement
p2244
(dp2245
g287
Nsg1194
(lp2246
S' do nothing '
p2247
asbsg350
(lp2248
sbsbsS'initialize'
p2249
(i__main__
DelphiMethodImplementation
p2250
(dp2251
g265
g177
sg42
g179
sg50
(lp2252
sg267
(lp2253
sg269
(lp2254
sg271
(lp2255
g273
asg274
(dp2256
sg52
S'PdBooleanParameterPanel'
p2257
sg53
Nsg279
(lp2258
sg57
I0
sg58
g65
sg281
(i__main__
DelphiBlock
p2259
(dp2260
g284
(idelphi
DelphiCompoundStatement
p2261
(dp2262
g287
(lp2263
(i__main__
DelphiAssignStatement
p2264
(dp2265
g329
(i__main__
DelphiIdentAccess
p2266
(dp2267
g15
S'false'
p2268
sg297
(lp2269
sbsg334
(i__main__
DelphiIdentAccess
p2270
(dp2271
g15
S'currentValue'
p2272
sg297
(lp2273
sbsba(i__main__
DelphiAssignStatement
p2274
(dp2275
g329
(i__main__
DelphiIdentAccess
p2276
(dp2277
g15
S'false'
p2278
sg297
(lp2279
sbsg334
(i__main__
DelphiIdentAccess
p2280
(dp2281
g15
S'editEnabled'
p2282
sg297
(lp2283
sbsbasbsg350
(lp2284
sbsbsS'negatevalue'
p2285
(i__main__
DelphiMethodImplementation
p2286
(dp2287
g265
g182
sg42
g184
sg50
(lp2288
sg267
(lp2289
sg269
(lp2290
sg271
(lp2291
g273
asg274
(dp2292
sg52
S'PdBooleanParameterPanel'
p2293
sg53
Nsg279
(lp2294
sg57
I0
sg58
g65
sg281
(i__main__
DelphiBlock
p2295
(dp2296
g284
(idelphi
DelphiCompoundStatement
p2297
(dp2298
g287
(lp2299
(i__main__
DelphiAssignStatement
p2300
(dp2301
g329
(idelphi
DelphiNot
p2302
(dp2303
g318
(i__main__
DelphiIdentAccess
p2304
(dp2305
g15
S'currentValue'
p2306
sg297
(lp2307
sbsbsg334
(i__main__
DelphiIdentAccess
p2308
(dp2309
g15
S'currentValue'
p2310
sg297
(lp2311
sbsba(idelphi
DelphiIfStatement
p2312
(dp2313
g291
(idelphi
DelphiRelOp
p2314
(dp2315
g397
(i__main__
DelphiIdentAccess
p2316
(dp2317
g15
S'plant'
p2318
sg297
(lp2319
sbsg402
(idelphi
DelphiNilValue
p2320
(dp2321
bsg405
g566
sbsg326
Nsg339
(i__main__
DelphiAssignStatement
p2322
(dp2323
g329
Nsg334
(i__main__
DelphiIdentAccess
p2324
(dp2325
g15
S'MainForm'
p2326
sg297
(lp2327
(idelphi
DelphiFieldEndAccess
p2328
(dp2329
g307
S'doCommand'
p2330
sba(idelphi
DelphiFunctionEndAccess
p2331
(dp2332
g299
(lp2333
(i__main__
DelphiIdentAccess
p2334
(dp2335
g15
S'PdChangeBooleanValueCommand'
p2336
sg297
(lp2337
(idelphi
DelphiFieldEndAccess
p2338
(dp2339
g307
S'createCommandWithListOfPlants'
p2340
sba(idelphi
DelphiFunctionEndAccess
p2341
(dp2342
g299
(lp2343
(i__main__
DelphiIdentAccess
p2344
(dp2345
g15
S'MainForm'
p2346
sg297
(lp2347
(idelphi
DelphiFieldEndAccess
p2348
(dp2349
g307
S'selectedPlants'
p2350
sbasba(i__main__
DelphiIdentAccess
p2351
(dp2352
g15
S'currentValue'
p2353
sg297
(lp2354
sba(i__main__
DelphiIdentAccess
p2355
(dp2356
g15
S'param'
p2357
sg297
(lp2358
(idelphi
DelphiFieldEndAccess
p2359
(dp2360
g307
S'fieldNumber'
p2361
sbasba(i__main__
DelphiIdentAccess
p2362
(dp2363
g15
S'kNotArray'
p2364
sg297
(lp2365
sba(i__main__
DelphiIdentAccess
p2366
(dp2367
g15
S'param'
p2368
sg297
(lp2369
(idelphi
DelphiFieldEndAccess
p2370
(dp2371
g307
S'regrow'
p2372
sbasbasbasbasbasbsbsba(i__main__
DelphiAssignStatement
p2373
(dp2374
g329
Nsg334
(i__main__
DelphiIdentAccess
p2375
(dp2376
g15
S'self'
p2377
sg297
(lp2378
(idelphi
DelphiFieldEndAccess
p2379
(dp2380
g307
S'invalidate'
p2381
sbasbsbasbsg350
(lp2382
sbsbsS'updateplantvalues'
p2383
(i__main__
DelphiMethodImplementation
p2384
(dp2385
g265
g218
sg42
g220
sg50
(lp2386
sg267
(lp2387
sg269
(lp2388
sg271
(lp2389
g273
asg274
(dp2390
sg52
S'PdBooleanParameterPanel'
p2391
sg53
Nsg279
(lp2392
sg57
I0
sg58
g65
sg281
(i__main__
DelphiBlock
p2393
(dp2394
g284
(idelphi
DelphiCompoundStatement
p2395
(dp2396
g287
(lp2397
(idelphi
DelphiIfStatement
p2398
(dp2399
g291
(idelphi
DelphiRelOp
p2400
(dp2401
g397
(i__main__
DelphiIdentAccess
p2402
(dp2403
g15
S'plant'
p2404
sg297
(lp2405
sbsg402
(idelphi
DelphiNilValue
p2406
(dp2407
bsg405
S'='
sbsg326
Nsg339
(i__main__
DelphiExitStatement
p2408
(dp2409
g1622
g2384
sbsba(idelphi
DelphiIfStatement
p2410
(dp2411
g291
(i__main__
DelphiIdentAccess
p2412
(dp2413
g15
S'param'
p2414
sg297
(lp2415
(idelphi
DelphiFieldEndAccess
p2416
(dp2417
g307
S'collapsed'
p2418
sbasbsg326
Nsg339
(i__main__
DelphiExitStatement
p2419
(dp2420
g1622
g2384
sbsba(i__main__
DelphiAssignStatement
p2421
(dp2422
g329
Nsg334
(i__main__
DelphiIdentAccess
p2423
(dp2424
g15
S'self'
p2425
sg297
(lp2426
(idelphi
DelphiFieldEndAccess
p2427
(dp2428
g307
S'updateCurrentValue'
p2429
sba(idelphi
DelphiFunctionEndAccess
p2430
(dp2431
g299
(lp2432
(idelphi
DelphiSign
p2433
(dp2434
g318
(idelphi
DelphiIntegerValue
p2435
(dp2436
g14
S'1'
sbsg1517
S'-'
sbasbasbsba(i__main__
DelphiAssignStatement
p2437
(dp2438
g329
Nsg334
(i__main__
DelphiIdentAccess
p2439
(dp2440
g15
S'updateDisplay'
p2441
sg297
(lp2442
sbsba(i__main__
DelphiAssignStatement
p2443
(dp2444
g329
Nsg334
(i__main__
DelphiIdentAccess
p2445
(dp2446
g15
S'invalidate'
p2447
sg297
(lp2448
sbsbasbsg350
(lp2449
sbsbssS'propertyDeclarations'
p2450
(dp2451
sS'variableNamesInDeclaredOrder'
p2452
(lp2453
g37
ag35
ag41
ag39
asbasS'includedUnits'
p2454
NsS'implementationUses'
p2455
(lp2456
S'SysUtils'
p2457
aS'Dialogs'
p2458
aS'Forms'
p2459
aS'umain'
p2460
aS'updcom'
p2461
aS'umath'
p2462
aS'uunits'
p2463
aS'usupport'
p2464
aS'udomain'
p2465
aS'udebug'
p2466
asg42
S'upp_boo'
p2467
sS'constSections'
p2468
(lp2469
g5
asS'globalsInProperCase'
p2470
NsS'interfaceUses'
p2471
(lp2472
S'delphi_compatability'
p2473
aS'ExtCtrls'
p2474
aS'Classes'
p2475
aS'StdCtrls'
p2476
aS'Controls'
p2477
aS'WinTypes'
p2478
aS'Graphics'
p2479
aS'WinProcs'
p2480
aS'Messages'
p2481
aS'uplant'
p2482
aS'uparams'
p2483
aS'uppanel'
p2484
asS'finalCommentToken'
p2485
(i__main__
PassStatement
p2486
(dp2487
g350
(lp2488
sbsS'varSections'
p2489
(lp2490
sS'globals'
p2491
NsS'originalFileName'
p2492
S'../../PlantStudioInPython/converted_source/Upp_boo.pas'
p2493
sS'proceduralImplementations'
p2494
(dp2495
sS'fileName'
p2496
S'/Users/pdf/Documents/workspace/PlantStudioInPython/converted_source/Upp_boo.pas'
p2497
sS'proceduralDeclarations'
p2498
(dp2499
sS'types'
p2500
(dp2501
S'pdbooleanparameterpanel'
p2502
g30
ssb.