(i__main__
DelphiUnit
p1
(dp2
S'sectionsInOrderDefined'
p3
(lp4
(i__main__
DelphiConstSection
p5
(dp6
S'constDeclList'
p7
(lp8
(idelphi
DelphiConstDeclaration
p9
(dp10
S'constExpression'
p11
(idelphi
DelphiIntegerValue
p12
(dp13
S'string'
p14
S'1'
sbsS'ident'
p15
S'kItemSlider'
p16
sS'theType'
p17
(idelphi
DelphiPrimitiveType
p18
(dp19
S'typeName'
p20
S'UNDEFINED_NEEDS_CALCULATION'
p21
sbsba(idelphi
DelphiConstDeclaration
p22
(dp23
g11
(idelphi
DelphiIntegerValue
p24
(dp25
g14
S'2'
sbsg15
S'kItemValueText'
p26
sg17
(idelphi
DelphiPrimitiveType
p27
(dp28
g20
g21
sbsba(idelphi
DelphiConstDeclaration
p29
(dp30
g11
(idelphi
DelphiIntegerValue
p31
(dp32
g14
S'3'
sbsg15
S'kItemUnitText'
p33
sg17
(idelphi
DelphiPrimitiveType
p34
(dp35
g20
g21
sbsbasS'atTopLevel'
p36
I1
sba(i__main__
DelphiClass
p37
(dp38
S'variableNamesInProperCase'
p39
(dp40
S'drawwithoutbounds'
p41
S'drawWithoutBounds'
p42
sS'currentvaluewhilesliding'
p43
S'currentValueWhileSliding'
p44
sS'currentvalue'
p45
S'currentValue'
p46
sS'unittextrect'
p47
S'unitTextRect'
p48
sS'arrayindex'
p49
S'arrayIndex'
p50
sS'maxvalue'
p51
S'maxValue'
p52
sS'minvalue'
p53
S'minValue'
p54
sS'slider'
p55
S'slider'
p56
sS'mintextrect'
p57
S'minTextRect'
p58
sS'valuetextrect'
p59
S'valueTextRect'
p60
sS'maxtextrect'
p61
S'maxTextRect'
p62
sS'currentunitindex'
p63
S'currentUnitIndex'
p64
ssS'name'
p65
S'PdRealParameterPanel'
p66
sS'methodDeclarations'
p67
(dp68
S'updateenabling'
p69
(i__main__
DelphiMethodDeclaration
p70
(dp71
g65
S'updateEnabling'
p72
sS'formalParameters'
p73
(lp74
sS'className'
p75
g66
sS'resultType'
p76
NsS'isClassMethod'
p77
I0
sS'methodType'
p78
S'procedure'
p79
sbsS'toplantunit'
p80
(i__main__
DelphiMethodDeclaration
p81
(dp82
g65
S'toPlantUnit'
p83
sg73
(lp84
(i__main__
DelphiFormalParameter
p85
(dp86
S'initialValue'
p87
NsS'names'
p88
(lp89
S'value'
p90
asg17
(i__main__
DelphiPrimitiveType
p91
(dp92
g20
S'single'
p93
sbsS'parameterVariety'
p94
Nsbasg75
g66
sg76
(i__main__
DelphiPrimitiveType
p95
(dp96
g20
g93
sbsg77
I0
sg78
S'function'
p97
sbsS'updatedisplay'
p98
(i__main__
DelphiMethodDeclaration
p99
(dp100
g65
S'updateDisplay'
p101
sg73
(lp102
sg75
g66
sg76
Nsg77
I0
sg78
g79
sbsS'slidermousedown'
p103
(i__main__
DelphiMethodDeclaration
p104
(dp105
g65
S'sliderMouseDown'
p106
sg73
(lp107
(i__main__
DelphiFormalParameter
p108
(dp109
g87
Nsg88
(lp110
S'Sender'
p111
asg17
(i__main__
DelphiNamedType
p112
(dp113
g20
S'TObject'
p114
sS'unitDefinedIn'
p115
g1
sS'unitName'
p116
Nsbsg94
Nsbasg75
g66
sg76
Nsg77
I0
sg78
g79
sbsS'minwidth'
p117
(i__main__
DelphiMethodDeclaration
p118
(dp119
g65
S'minWidth'
p120
sg73
(lp121
(i__main__
DelphiFormalParameter
p122
(dp123
g87
Nsg88
(lp124
S'requestedWidth'
p125
asg17
(i__main__
DelphiPrimitiveType
p126
(dp127
g20
S'integer'
p128
sbsg94
Nsbasg75
g66
sg76
(i__main__
DelphiPrimitiveType
p129
(dp130
g20
g128
sbsg77
I0
sg78
g97
sbsS'domouseup'
p131
(i__main__
DelphiMethodDeclaration
p132
(dp133
g65
S'doMouseUp'
p134
sg73
(lp135
(i__main__
DelphiFormalParameter
p136
(dp137
g87
Nsg88
(lp138
S'Sender'
p139
asg17
(i__main__
DelphiNamedType
p140
(dp141
g20
S'TObject'
p142
sg115
g1
sg116
Nsbsg94
Nsba(i__main__
DelphiFormalParameter
p143
(dp144
g87
Nsg88
(lp145
S'Button'
p146
asg17
(i__main__
DelphiNamedType
p147
(dp148
g20
S'TMouseButton'
p149
sg115
g1
sg116
Nsbsg94
Nsba(i__main__
DelphiFormalParameter
p150
(dp151
g87
Nsg88
(lp152
S'Shift'
p153
asg17
(i__main__
DelphiNamedType
p154
(dp155
g20
S'TShiftState'
p156
sg115
g1
sg116
Nsbsg94
Nsba(i__main__
DelphiFormalParameter
p157
(dp158
g87
Nsg88
(lp159
S'X'
aS'Y'
asg17
(i__main__
DelphiPrimitiveType
p160
(dp161
g20
g128
sbsg94
Nsbasg75
g66
sg76
Nsg77
I0
sg78
g79
sbsS'adjustvalue'
p162
(i__main__
DelphiMethodDeclaration
p163
(dp164
g65
S'adjustValue'
p165
sg73
(lp166
sg75
g66
sg76
Nsg77
I0
sg78
g79
sbsS'valuefromsliderposition'
p167
(i__main__
DelphiMethodDeclaration
p168
(dp169
g65
S'valueFromSliderPosition'
p170
sg73
(lp171
sg75
g66
sg76
(i__main__
DelphiPrimitiveType
p172
(dp173
g20
g93
sbsg77
I0
sg78
g97
sbsS'checkvalueagainstbounds'
p174
(i__main__
DelphiMethodDeclaration
p175
(dp176
g65
S'checkValueAgainstBounds'
p177
sg73
(lp178
(i__main__
DelphiFormalParameter
p179
(dp180
g87
Nsg88
(lp181
S'aValue'
p182
asg17
(i__main__
DelphiPrimitiveType
p183
(dp184
g20
g93
sbsg94
Nsbasg75
g66
sg76
(i__main__
DelphiPrimitiveType
p185
(dp186
g20
S'boolean'
p187
sbsg77
I0
sg78
g97
sbsS'maxwidth'
p188
(i__main__
DelphiMethodDeclaration
p189
(dp190
g65
S'maxWidth'
p191
sg73
(lp192
sg75
g66
sg76
(i__main__
DelphiPrimitiveType
p193
(dp194
g20
g128
sbsg77
I0
sg78
g97
sbsS'dokeydown'
p195
(i__main__
DelphiMethodDeclaration
p196
(dp197
g65
S'doKeyDown'
p198
sg73
(lp199
(i__main__
DelphiFormalParameter
p200
(dp201
g87
Nsg88
(lp202
S'sender'
p203
asg17
(i__main__
DelphiNamedType
p204
(dp205
g20
S'TObject'
p206
sg115
g1
sg116
Nsbsg94
Nsba(i__main__
DelphiFormalParameter
p207
(dp208
g87
Nsg88
(lp209
S'key'
p210
asg17
(i__main__
DelphiPrimitiveType
p211
(dp212
g20
S'word'
p213
sbsg94
S'var'
p214
sba(i__main__
DelphiFormalParameter
p215
(dp216
g87
Nsg88
(lp217
S'shift'
p218
asg17
(i__main__
DelphiNamedType
p219
(dp220
g20
S'TShiftState'
p221
sg115
g1
sg116
Nsbsg94
Nsbasg75
g66
sg76
Nsg77
I0
sg78
g79
sbsS'paint'
p222
(i__main__
DelphiMethodDeclaration
p223
(dp224
g65
S'paint'
p225
sg73
(lp226
sg75
g66
sg76
Nsg77
I0
sg78
g79
sbsS'nextselecteditemindex'
p227
(i__main__
DelphiMethodDeclaration
p228
(dp229
g65
S'nextSelectedItemIndex'
p230
sg73
(lp231
(i__main__
DelphiFormalParameter
p232
(dp233
g87
Nsg88
(lp234
S'goForward'
p235
asg17
(i__main__
DelphiPrimitiveType
p236
(dp237
g20
g187
sbsg94
Nsbasg75
g66
sg76
(i__main__
DelphiPrimitiveType
p238
(dp239
g20
g128
sbsg77
I0
sg78
g97
sbsS'tocurrentunit'
p240
(i__main__
DelphiMethodDeclaration
p241
(dp242
g65
S'toCurrentUnit'
p243
sg73
(lp244
(i__main__
DelphiFormalParameter
p245
(dp246
g87
Nsg88
(lp247
S'value'
p248
asg17
(i__main__
DelphiPrimitiveType
p249
(dp250
g20
g93
sbsg94
Nsbasg75
g66
sg76
(i__main__
DelphiPrimitiveType
p251
(dp252
g20
g93
sbsg77
I0
sg78
g97
sbsS'sliderkeydown'
p253
(i__main__
DelphiMethodDeclaration
p254
(dp255
g65
S'sliderKeyDown'
p256
sg73
(lp257
(i__main__
DelphiFormalParameter
p258
(dp259
g87
Nsg88
(lp260
S'sender'
p261
asg17
(i__main__
DelphiNamedType
p262
(dp263
g20
S'TOBject'
p264
sg115
g1
sg116
Nsbsg94
Nsbasg75
g66
sg76
Nsg77
I0
sg78
g79
sbsS'slidermousemove'
p265
(i__main__
DelphiMethodDeclaration
p266
(dp267
g65
S'sliderMouseMove'
p268
sg73
(lp269
(i__main__
DelphiFormalParameter
p270
(dp271
g87
Nsg88
(lp272
S'Sender'
p273
asg17
(i__main__
DelphiNamedType
p274
(dp275
g20
S'TObject'
p276
sg115
g1
sg116
Nsbsg94
Nsbasg75
g66
sg76
Nsg77
I0
sg78
g79
sbsS'slidermouseup'
p277
(i__main__
DelphiMethodDeclaration
p278
(dp279
g65
S'sliderMouseUp'
p280
sg73
(lp281
(i__main__
DelphiFormalParameter
p282
(dp283
g87
Nsg88
(lp284
S'Sender'
p285
asg17
(i__main__
DelphiNamedType
p286
(dp287
g20
S'TObject'
p288
sg115
g1
sg116
Nsbsg94
Nsbasg75
g66
sg76
Nsg77
I0
sg78
g79
sbsS'initialize'
p289
(i__main__
DelphiMethodDeclaration
p290
(dp291
g65
S'initialize'
p292
sg73
(lp293
sg75
g66
sg76
Nsg77
I0
sg78
g79
sbsS'resizeelements'
p294
(i__main__
DelphiMethodDeclaration
p295
(dp296
g65
S'resizeElements'
p297
sg73
(lp298
sg75
g66
sg76
Nsg77
I0
sg78
g79
sbsS'maxselecteditemindex'
p299
(i__main__
DelphiMethodDeclaration
p300
(dp301
g65
S'maxSelectedItemIndex'
p302
sg73
(lp303
sg75
g66
sg76
(i__main__
DelphiPrimitiveType
p304
(dp305
g20
g128
sbsg77
I0
sg78
g97
sbsS'sliderpositionfromvalue'
p306
(i__main__
DelphiMethodDeclaration
p307
(dp308
g65
S'sliderPositionFromValue'
p309
sg73
(lp310
(i__main__
DelphiFormalParameter
p311
(dp312
g87
Nsg88
(lp313
S'value'
p314
asg17
(i__main__
DelphiPrimitiveType
p315
(dp316
g20
g93
sbsg94
Nsbasg75
g66
sg76
(i__main__
DelphiPrimitiveType
p317
(dp318
g20
g128
sbsg77
I0
sg78
g97
sbsS'selectnextunitinset'
p319
(i__main__
DelphiMethodDeclaration
p320
(dp321
g65
S'selectNextUnitInSet'
p322
sg73
(lp323
(i__main__
DelphiFormalParameter
p324
(dp325
g87
Nsg88
(lp326
S'shift'
p327
aS'ctrl'
p328
asg17
(i__main__
DelphiPrimitiveType
p329
(dp330
g20
g187
sbsg94
Nsbasg75
g66
sg76
Nsg77
I0
sg78
g79
sbsS'updatecurrentvalue'
p331
(i__main__
DelphiMethodDeclaration
p332
(dp333
g65
S'updateCurrentValue'
p334
sg73
(lp335
(i__main__
DelphiFormalParameter
p336
(dp337
g87
Nsg88
(lp338
S'aFieldIndex'
p339
asg17
(i__main__
DelphiPrimitiveType
p340
(dp341
g20
g128
sbsg94
Nsbasg75
g66
sg76
Nsg77
I0
sg78
g79
sbsS'uncollapsedheight'
p342
(i__main__
DelphiMethodDeclaration
p343
(dp344
g65
S'uncollapsedHeight'
p345
sg73
(lp346
sg75
g66
sg76
(i__main__
DelphiPrimitiveType
p347
(dp348
g20
g128
sbsg77
I0
sg78
g97
sbsS'updateplantvalues'
p349
(i__main__
DelphiMethodDeclaration
p350
(dp351
g65
S'updatePlantValues'
p352
sg73
(lp353
sg75
g66
sg76
Nsg77
I0
sg78
g79
sbssS'superclassNamedTypes'
p354
(lp355
(i__main__
DelphiNamedType
p356
(dp357
g20
S'PdParameterPanel'
p358
sg115
g1
sg116
NsbasS'variableNames'
p359
(dp360
S'drawwithoutbounds'
p361
(i__main__
DelphiPrimitiveType
p362
(dp363
g20
g187
sbsS'currentvaluewhilesliding'
p364
(i__main__
DelphiPrimitiveType
p365
(dp366
g20
g93
sbsS'currentvalue'
p367
g365
sS'unittextrect'
p368
(i__main__
DelphiNamedType
p369
(dp370
g20
S'TRect'
p371
sg115
g1
sg116
NsbsS'arrayindex'
p372
(i__main__
DelphiPrimitiveType
p373
(dp374
g20
S'smallint'
p375
sbsS'maxvalue'
p376
(i__main__
DelphiPrimitiveType
p377
(dp378
g20
g93
sbsS'minvalue'
p379
(i__main__
DelphiPrimitiveType
p380
(dp381
g20
g93
sbsS'slider'
p382
(i__main__
DelphiNamedType
p383
(dp384
g20
S'KfSlider'
p385
sg115
g1
sg116
NsbsS'mintextrect'
p386
(i__main__
DelphiNamedType
p387
(dp388
g20
S'TRect'
p389
sg115
g1
sg116
NsbsS'valuetextrect'
p390
(i__main__
DelphiNamedType
p391
(dp392
g20
S'TRect'
p393
sg115
g1
sg116
NsbsS'maxtextrect'
p394
(i__main__
DelphiNamedType
p395
(dp396
g20
S'TRect'
p397
sg115
g1
sg116
NsbsS'currentunitindex'
p398
(i__main__
DelphiPrimitiveType
p399
(dp400
g20
g128
sbssS'methodNamesInDefinedOrder'
p401
(lp402
S'initialize'
p403
aS'adjustvalue'
p404
aS'toplantunit'
p405
aS'tocurrentunit'
p406
aS'checkvalueagainstbounds'
p407
aS'selectnextunitinset'
p408
aS'domouseup'
p409
aS'dokeydown'
p410
aS'sliderpositionfromvalue'
p411
aS'valuefromsliderposition'
p412
aS'updateenabling'
p413
aS'updateplantvalues'
p414
aS'updatecurrentvalue'
p415
aS'updatedisplay'
p416
aS'slidermousedown'
p417
aS'slidermousemove'
p418
aS'slidermouseup'
p419
aS'sliderkeydown'
p420
aS'maxwidth'
p421
aS'minwidth'
p422
aS'uncollapsedheight'
p423
aS'resizeelements'
p424
aS'maxselecteditemindex'
p425
aS'nextselecteditemindex'
p426
aS'paint'
p427
asS'methodImplementations'
p428
(dp429
S'updateenabling'
p430
(i__main__
DelphiMethodImplementation
p431
(dp432
S'originalDeclaration'
p433
g70
sg65
g72
sg73
(lp434
sS'varParamIndexes'
p435
(lp436
sS'varParamsSkipped'
p437
(lp438
sS'argNames'
p439
(lp440
S'self'
p441
asS'argTypes'
p442
(dp443
sg75
S'PdRealParameterPanel'
p444
sg76
NsS'varParamNames'
p445
(lp446
sg77
I0
sg78
g79
sS'block'
p447
(i__main__
DelphiBlock
p448
(dp449
S'compoundStatement'
p450
(idelphi
DelphiCompoundStatement
p451
(dp452
S'statements'
p453
(lp454
(i__main__
DelphiAssignStatement
p455
(dp456
S'newValueExpression'
p457
NsS'destinationExpression'
p458
(idelphi
DelphiInheritedCall
p459
(dp460
g15
S'updateEnabling'
p461
sS'expressionList'
p462
Nsbsba(i__main__
DelphiAssignStatement
p463
(dp464
g457
(idelphi
DelphiRelOp
p465
(dp466
S'simpleExpression1'
p467
(i__main__
DelphiIdentAccess
p468
(dp469
g15
S'plant'
p470
sS'endAccessList'
p471
(lp472
sbsS'simpleExpression2'
p473
(idelphi
DelphiNilValue
p474
(dp475
bsS'relOp'
p476
S'<>'
p477
sbsg458
(i__main__
DelphiIdentAccess
p478
(dp479
g15
S'slider'
p480
sg471
(lp481
(idelphi
DelphiFieldEndAccess
p482
(dp483
S'field'
p484
S'enabled'
p485
sbasbsba(i__main__
DelphiAssignStatement
p486
(dp487
g457
(i__main__
DelphiIdentAccess
p488
(dp489
g15
S'self'
p490
sg471
(lp491
(idelphi
DelphiFieldEndAccess
p492
(dp493
g484
S'readOnly'
p494
sbasbsg458
(i__main__
DelphiIdentAccess
p495
(dp496
g15
S'slider'
p497
sg471
(lp498
(idelphi
DelphiFieldEndAccess
p499
(dp500
g484
S'readOnly'
p501
sbasbsbasbsS'limitedDeclSectionList'
p502
(lp503
sbsbsS'toplantunit'
p504
(i__main__
DelphiMethodImplementation
p505
(dp506
g433
g81
sg65
g83
sg73
(lp507
(i__main__
DelphiFormalParameter
p508
(dp509
g87
Nsg88
(lp510
S'value'
p511
asg17
(i__main__
DelphiPrimitiveType
p512
(dp513
g20
g93
sbsg94
Nsbasg435
(lp514
sg437
(lp515
sg439
(lp516
g441
ag511
asg442
(dp517
g511
g512
ssg75
S'PdRealParameterPanel'
p518
sg76
(i__main__
DelphiPrimitiveType
p519
(dp520
g20
g93
sbsg445
(lp521
sg77
I0
sg78
g97
sg447
(i__main__
DelphiBlock
p522
(dp523
g450
(idelphi
DelphiCompoundStatement
p524
(dp525
g453
(lp526
(i__main__
DelphiAssignStatement
p527
(dp528
g457
(i__main__
DelphiIdentAccess
p529
(dp530
g15
S'Convert'
p531
sg471
(lp532
(idelphi
DelphiFunctionEndAccess
p533
(dp534
g462
(lp535
(i__main__
DelphiIdentAccess
p536
(dp537
g15
S'param'
p538
sg471
(lp539
(idelphi
DelphiFieldEndAccess
p540
(dp541
g484
S'unitSet'
p542
sbasba(i__main__
DelphiIdentAccess
p543
(dp544
g15
S'currentUnitIndex'
p545
sg471
(lp546
sba(i__main__
DelphiIdentAccess
p547
(dp548
g15
S'param'
p549
sg471
(lp550
(idelphi
DelphiFieldEndAccess
p551
(dp552
g484
S'unitModel'
p553
sbasba(i__main__
DelphiIdentAccess
p554
(dp555
g15
S'value'
p556
sg471
(lp557
sbasbasbsg458
(i__main__
DelphiIdentAccess
p558
(dp559
g15
S'result'
p560
sg471
(lp561
sbsbasbsg502
(lp562
sbsbsS'updatedisplay'
p563
(i__main__
DelphiMethodImplementation
p564
(dp565
g433
g99
sg65
g101
sg73
(lp566
sg435
(lp567
sg437
(lp568
sg439
(lp569
g441
asg442
(dp570
sg75
S'PdRealParameterPanel'
p571
sg76
Nsg445
(lp572
sg77
I0
sg78
g79
sg447
(i__main__
DelphiBlock
p573
(dp574
g450
(idelphi
DelphiCompoundStatement
p575
(dp576
g453
(lp577
(idelphi
DelphiIfStatement
p578
(dp579
S'expression'
p580
(idelphi
DelphiMulOp
p581
(dp582
S'signedFactor2'
p583
(idelphi
DelphiNestedExpressionListAccess
p584
(dp585
g471
(lp586
sg462
(lp587
(idelphi
DelphiRelOp
p588
(dp589
g467
(i__main__
DelphiIdentAccess
p590
(dp591
g15
S'param'
p592
sg471
(lp593
(idelphi
DelphiFieldEndAccess
p594
(dp595
g484
S'fieldType'
p596
sbasbsg473
(i__main__
DelphiIdentAccess
p597
(dp598
g15
S'kFieldFloat'
p599
sg471
(lp600
sbsg476
S'='
sbasbsS'mulOp'
p601
S'and'
p602
sS'signedFactor1'
p603
(idelphi
DelphiNestedExpressionListAccess
p604
(dp605
g471
(lp606
sg462
(lp607
(idelphi
DelphiRelOp
p608
(dp609
g467
(i__main__
DelphiIdentAccess
p610
(dp611
g15
S'plant'
p612
sg471
(lp613
sbsg473
(idelphi
DelphiNilValue
p614
(dp615
bsg476
g477
sbasbsbsS'ifFalseStatement'
p616
(idelphi
DelphiCompoundStatement
p617
(dp618
g453
(lp619
(i__main__
DelphiAssignStatement
p620
(dp621
g457
(idelphi
DelphiIntegerValue
p622
(dp623
g14
S'0'
sbsg458
(i__main__
DelphiIdentAccess
p624
(dp625
g15
S'slider'
p626
sg471
(lp627
(idelphi
DelphiFieldEndAccess
p628
(dp629
g484
S'currentValue'
p630
sbasbsba(i__main__
DelphiAssignStatement
p631
(dp632
g457
(i__main__
DelphiIdentAccess
p633
(dp634
g15
S'false'
p635
sg471
(lp636
sbsg458
(i__main__
DelphiIdentAccess
p637
(dp638
g15
S'slider'
p639
sg471
(lp640
(idelphi
DelphiFieldEndAccess
p641
(dp642
g484
S'enabled'
p643
sbasbsbasbsS'ifTrueStatement'
p644
(i__main__
DelphiAssignStatement
p645
(dp646
g457
(i__main__
DelphiIdentAccess
p647
(dp648
g15
S'self'
p649
sg471
(lp650
(idelphi
DelphiFieldEndAccess
p651
(dp652
g484
S'sliderPositionFromValue'
p653
sba(idelphi
DelphiFunctionEndAccess
p654
(dp655
g462
(lp656
(i__main__
DelphiIdentAccess
p657
(dp658
g15
S'currentValue'
p659
sg471
(lp660
sbasbasbsg458
(i__main__
DelphiIdentAccess
p661
(dp662
g15
S'slider'
p663
sg471
(lp664
(idelphi
DelphiFieldEndAccess
p665
(dp666
g484
S'currentValue'
p667
sbasbsbsbasbsg502
(lp668
sbsbsS'slidermousedown'
p669
(i__main__
DelphiMethodImplementation
p670
(dp671
g433
g104
sg65
g106
sg73
(lp672
(i__main__
DelphiFormalParameter
p673
(dp674
g87
Nsg88
(lp675
S'Sender'
p676
asg17
(i__main__
DelphiNamedType
p677
(dp678
g20
S'TObject'
p679
sg115
g1
sg116
Nsbsg94
Nsbasg435
(lp680
sg437
(lp681
sg439
(lp682
g441
ag676
asg442
(dp683
g676
g677
ssg75
S'PdRealParameterPanel'
p684
sg76
Nsg445
(lp685
sg77
I0
sg78
g79
sg447
(i__main__
DelphiBlock
p686
(dp687
g450
(idelphi
DelphiCompoundStatement
p688
(dp689
g453
(lp690
(idelphi
DelphiIfStatement
p691
(dp692
g580
(idelphi
DelphiRelOp
p693
(dp694
g467
(i__main__
DelphiIdentAccess
p695
(dp696
g15
S'plant'
p697
sg471
(lp698
sbsg473
(idelphi
DelphiNilValue
p699
(dp700
bsg476
S'='
sbsg616
Nsg644
(i__main__
DelphiExitStatement
p701
(dp702
S'proceduralOrMethodImplementation'
p703
g670
sbsba(i__main__
DelphiAssignStatement
p704
(dp705
g457
(i__main__
DelphiIdentAccess
p706
(dp707
g15
S'kItemSlider'
p708
sg471
(lp709
sbsg458
(i__main__
DelphiIdentAccess
p710
(dp711
g15
S'self'
p712
sg471
(lp713
(idelphi
DelphiFieldEndAccess
p714
(dp715
g484
S'selectedItemIndex'
p716
sbasbsba(i__main__
DelphiAssignStatement
p717
(dp718
g457
(i__main__
DelphiIdentAccess
p719
(dp720
g15
S'true'
p721
sg471
(lp722
sbsg458
(i__main__
DelphiIdentAccess
p723
(dp724
g15
S'slider'
p725
sg471
(lp726
(idelphi
DelphiFieldEndAccess
p727
(dp728
g484
S'hasUnofficialFocus'
p729
sbasbsba(i__main__
DelphiAssignStatement
p730
(dp731
g457
(i__main__
DelphiIdentAccess
p732
(dp733
g15
S'self'
p734
sg471
(lp735
(idelphi
DelphiFieldEndAccess
p736
(dp737
g484
S'valueFromSliderPosition'
p738
sbasbsg458
(i__main__
DelphiIdentAccess
p739
(dp740
g15
S'currentValueWhileSliding'
p741
sg471
(lp742
sbsba(i__main__
DelphiAssignStatement
p743
(dp744
g457
Nsg458
(i__main__
DelphiIdentAccess
p745
(dp746
g15
S'self'
p747
sg471
(lp748
(idelphi
DelphiFieldEndAccess
p749
(dp750
g484
S'invalidate'
p751
sbasbsba(idelphi
DelphiIfStatement
p752
(dp753
g580
(idelphi
DelphiNot
p754
(dp755
S'factor'
p756
(i__main__
DelphiIdentAccess
p757
(dp758
g15
S'self'
p759
sg471
(lp760
(idelphi
DelphiFieldEndAccess
p761
(dp762
g484
S'focused'
p763
sbasbsbsg616
Nsg644
(i__main__
DelphiAssignStatement
p764
(dp765
g457
Nsg458
(i__main__
DelphiIdentAccess
p766
(dp767
g15
S'self'
p768
sg471
(lp769
(idelphi
DelphiFieldEndAccess
p770
(dp771
g484
S'setFocus'
p772
sbasbsbsbasbsg502
(lp773
sbsbsS'minwidth'
p774
(i__main__
DelphiMethodImplementation
p775
(dp776
g433
g118
sg65
g120
sg73
(lp777
(i__main__
DelphiFormalParameter
p778
(dp779
g87
Nsg88
(lp780
S'requestedWidth'
p781
asg17
(i__main__
DelphiPrimitiveType
p782
(dp783
g20
g128
sbsg94
Nsbasg435
(lp784
sg437
(lp785
sg439
(lp786
g441
ag781
asg442
(dp787
g781
g782
ssg75
S'PdRealParameterPanel'
p788
sg76
(i__main__
DelphiPrimitiveType
p789
(dp790
g20
g128
sbsg445
(lp791
sg77
I0
sg78
g97
sg447
(i__main__
DelphiBlock
p792
(dp793
g450
(idelphi
DelphiCompoundStatement
p794
(dp795
g453
(lp796
(i__main__
DelphiAssignStatement
p797
(dp798
g457
(idelphi
DelphiAddOp
p799
(dp800
S'addOp'
p801
S'+'
sS'term2'
p802
(i__main__
DelphiIdentAccess
p803
(dp804
g15
S'self'
p805
sg471
(lp806
(idelphi
DelphiFieldEndAccess
p807
(dp808
g484
S'longestLabelWordWidth'
p809
sbasbsS'term1'
p810
(idelphi
DelphiMulOp
p811
(dp812
g583
(idelphi
DelphiIntegerValue
p813
(dp814
g14
S'2'
sbsg601
S'*'
sg603
(i__main__
DelphiIdentAccess
p815
(dp816
g15
S'kLeftRightGap'
p817
sg471
(lp818
sbsbsbsg458
(i__main__
DelphiIdentAccess
p819
(dp820
g15
S'widthForLongestWord'
p821
sg471
(lp822
sbsS'commentLinesBefore'
p823
(lp824
S' 1. test if width given is less than labelWidth.\r'
p825
aS'       if not, move on\r'
p826
aS'       if so, test if width given is less than width of longest full word in labelWidth.\r'
p827
aS'         if not, move on\r'
p828
aS'         if so, give back width of longest full word in labelWidth as minWidth.\r'
p829
aS'    2. test if width given is less than minScaleWidthWithBounds.\r'
p830
aS'       if not, move on (set flag to draw bounds)\r'
p831
aS'       if so, test if width given is less than minScaleWidthWithoutBounds.\r'
p832
aS'         if not, move on (set flag to not draw bounds)\r'
p833
aS'         if so, give back minScaleWidthWithoutBounds as minWidth.\r'
p834
aS'  '
p835
asba(i__main__
DelphiAssignStatement
p836
(dp837
g457
(i__main__
DelphiIdentAccess
p838
(dp839
g15
S'self'
p840
sg471
(lp841
(idelphi
DelphiFieldEndAccess
p842
(dp843
g484
S'minScaleWidthWithBounds'
p844
sba(idelphi
DelphiFunctionEndAccess
p845
(dp846
g462
(lp847
(i__main__
DelphiIdentAccess
p848
(dp849
g15
S'param'
p850
sg471
(lp851
(idelphi
DelphiFieldEndAccess
p852
(dp853
g484
S'unitSet'
p854
sbasba(i__main__
DelphiIdentAccess
p855
(dp856
g15
S'param'
p857
sg471
(lp858
(idelphi
DelphiFieldEndAccess
p859
(dp860
g484
S'unitModel'
p861
sbasba(i__main__
DelphiIdentAccess
p862
(dp863
g15
S'minValue'
p864
sg471
(lp865
sba(i__main__
DelphiIdentAccess
p866
(dp867
g15
S'maxValue'
p868
sg471
(lp869
sbasbasbsg458
(i__main__
DelphiIdentAccess
p870
(dp871
g15
S'widthWithBounds'
p872
sg471
(lp873
sbsba(i__main__
DelphiAssignStatement
p874
(dp875
g457
(i__main__
DelphiIdentAccess
p876
(dp877
g15
S'self'
p878
sg471
(lp879
(idelphi
DelphiFieldEndAccess
p880
(dp881
g484
S'minScaleWidthWithoutBounds'
p882
sba(idelphi
DelphiFunctionEndAccess
p883
(dp884
g462
(lp885
(i__main__
DelphiIdentAccess
p886
(dp887
g15
S'param'
p888
sg471
(lp889
(idelphi
DelphiFieldEndAccess
p890
(dp891
g484
S'unitSet'
p892
sbasba(i__main__
DelphiIdentAccess
p893
(dp894
g15
S'param'
p895
sg471
(lp896
(idelphi
DelphiFieldEndAccess
p897
(dp898
g484
S'unitModel'
p899
sbasbasbasbsg458
(i__main__
DelphiIdentAccess
p900
(dp901
g15
S'widthWithoutBounds'
p902
sg471
(lp903
sbsba(i__main__
DelphiAssignStatement
p904
(dp905
g457
(idelphi
DelphiSign
p906
(dp907
g756
(idelphi
DelphiIntegerValue
p908
(dp909
g14
S'1'
sbsS'sign'
p910
S'-'
sbsg458
(i__main__
DelphiIdentAccess
p911
(dp912
g15
S'result'
p913
sg471
(lp914
sbsba(idelphi
DelphiIfStatement
p915
(dp916
g580
(idelphi
DelphiRelOp
p917
(dp918
g467
(i__main__
DelphiIdentAccess
p919
(dp920
g15
S'requestedWidth'
p921
sg471
(lp922
sbsg473
(i__main__
DelphiIdentAccess
p923
(dp924
g15
S'widthForLongestWord'
p925
sg471
(lp926
sbsg476
S'<'
sbsg616
Nsg644
(i__main__
DelphiAssignStatement
p927
(dp928
g457
(i__main__
DelphiIdentAccess
p929
(dp930
g15
S'widthForLongestWord'
p931
sg471
(lp932
sbsg458
(i__main__
DelphiIdentAccess
p933
(dp934
g15
S'result'
p935
sg471
(lp936
sbsbsba(idelphi
DelphiIfStatement
p937
(dp938
g580
(idelphi
DelphiRelOp
p939
(dp940
g467
(i__main__
DelphiIdentAccess
p941
(dp942
g15
S'requestedWidth'
p943
sg471
(lp944
sbsg473
(i__main__
DelphiIdentAccess
p945
(dp946
g15
S'widthWithBounds'
p947
sg471
(lp948
sbsg476
S'<'
sbsg616
(i__main__
DelphiAssignStatement
p949
(dp950
g457
(i__main__
DelphiIdentAccess
p951
(dp952
g15
S'false'
p953
sg471
(lp954
sbsg458
(i__main__
DelphiIdentAccess
p955
(dp956
g15
S'drawWithoutBounds'
p957
sg471
(lp958
sbsbsg644
(idelphi
DelphiCompoundStatement
p959
(dp960
g453
(lp961
(i__main__
DelphiAssignStatement
p962
(dp963
g457
(i__main__
DelphiIdentAccess
p964
(dp965
g15
S'true'
p966
sg471
(lp967
sbsg458
(i__main__
DelphiIdentAccess
p968
(dp969
g15
S'drawWithoutBounds'
p970
sg471
(lp971
sbsba(idelphi
DelphiIfStatement
p972
(dp973
g580
(idelphi
DelphiRelOp
p974
(dp975
g467
(i__main__
DelphiIdentAccess
p976
(dp977
g15
S'requestedWidth'
p978
sg471
(lp979
sbsg473
(i__main__
DelphiIdentAccess
p980
(dp981
g15
S'widthWithoutBounds'
p982
sg471
(lp983
sbsg476
S'<'
sbsg616
Nsg644
(i__main__
DelphiAssignStatement
p984
(dp985
g457
(i__main__
DelphiIdentAccess
p986
(dp987
g15
S'intMax'
p988
sg471
(lp989
(idelphi
DelphiFunctionEndAccess
p990
(dp991
g462
(lp992
(i__main__
DelphiIdentAccess
p993
(dp994
g15
S'result'
p995
sg471
(lp996
sba(i__main__
DelphiIdentAccess
p997
(dp998
g15
S'widthWithoutBounds'
p999
sg471
(lp1000
sbasbasbsg458
(i__main__
DelphiIdentAccess
p1001
(dp1002
g15
S'result'
p1003
sg471
(lp1004
sbsbsbasbsbasbsg502
(lp1005
(i__main__
DelphiVarSection
p1006
(dp1007
g36
I0
sS'varDeclList'
p1008
(lp1009
(idelphi
DelphiVarDecl
p1010
(dp1011
g11
NsS'identList'
p1012
(lp1013
S'widthForLongestWord'
p1014
aS'widthWithBounds'
p1015
aS'widthWithoutBounds'
p1016
asg17
(i__main__
DelphiPrimitiveType
p1017
(dp1018
g20
g128
sbsbasbasbsbsS'domouseup'
p1019
(i__main__
DelphiMethodImplementation
p1020
(dp1021
g433
g132
sg65
g134
sg73
(lp1022
(i__main__
DelphiFormalParameter
p1023
(dp1024
g87
Nsg88
(lp1025
S'Sender'
p1026
asg17
(i__main__
DelphiNamedType
p1027
(dp1028
g20
S'TObject'
p1029
sg115
g1
sg116
Nsbsg94
Nsba(i__main__
DelphiFormalParameter
p1030
(dp1031
g87
Nsg88
(lp1032
S'Button'
p1033
asg17
(i__main__
DelphiNamedType
p1034
(dp1035
g20
S'TMouseButton'
p1036
sg115
g1
sg116
Nsbsg94
Nsba(i__main__
DelphiFormalParameter
p1037
(dp1038
g87
Nsg88
(lp1039
S'Shift'
p1040
asg17
(i__main__
DelphiNamedType
p1041
(dp1042
g20
S'TShiftState'
p1043
sg115
g1
sg116
Nsbsg94
Nsba(i__main__
DelphiFormalParameter
p1044
(dp1045
g87
Nsg88
(lp1046
S'X'
aS'Y'
asg17
(i__main__
DelphiPrimitiveType
p1047
(dp1048
g20
g128
sbsg94
Nsbasg435
(lp1049
sg437
(lp1050
sg439
(lp1051
g441
ag1026
ag1033
ag1040
aS'X'
aS'Y'
asg442
(dp1052
S'Y'
g1047
sg1040
g1041
sg1033
g1034
sg1026
g1027
sS'X'
g1047
ssg75
S'PdRealParameterPanel'
p1053
sg76
Nsg445
(lp1054
sg77
I0
sg78
g79
sg447
(i__main__
DelphiBlock
p1055
(dp1056
g450
(idelphi
DelphiCompoundStatement
p1057
(dp1058
g453
(lp1059
(i__main__
DelphiAssignStatement
p1060
(dp1061
g457
Nsg458
(idelphi
DelphiInheritedCall
p1062
(dp1063
g15
S'doMouseUp'
p1064
sg462
(lp1065
(i__main__
DelphiIdentAccess
p1066
(dp1067
g15
S'sender'
p1068
sg471
(lp1069
sba(i__main__
DelphiIdentAccess
p1070
(dp1071
g15
S'button'
p1072
sg471
(lp1073
sba(i__main__
DelphiIdentAccess
p1074
(dp1075
g15
S'shift'
p1076
sg471
(lp1077
sba(i__main__
DelphiIdentAccess
p1078
(dp1079
g15
S'x'
sg471
(lp1080
sba(i__main__
DelphiIdentAccess
p1081
(dp1082
g15
S'y'
sg471
(lp1083
sbasbsg823
(lp1084
S' must always call this first because it sets the focus '
p1085
asba(i__main__
DelphiAssignStatement
p1086
(dp1087
g457
(i__main__
DelphiIdentAccess
p1088
(dp1089
g15
S'Point'
p1090
sg471
(lp1091
(idelphi
DelphiFunctionEndAccess
p1092
(dp1093
g462
(lp1094
(i__main__
DelphiIdentAccess
p1095
(dp1096
g15
S'x'
sg471
(lp1097
sba(i__main__
DelphiIdentAccess
p1098
(dp1099
g15
S'y'
sg471
(lp1100
sbasbasbsg458
(i__main__
DelphiIdentAccess
p1101
(dp1102
g15
S'thePoint'
p1103
sg471
(lp1104
sbsba(idelphi
DelphiIfStatement
p1105
(dp1106
g580
(i__main__
DelphiIdentAccess
p1107
(dp1108
g15
S'ptInRect'
p1109
sg471
(lp1110
(idelphi
DelphiFunctionEndAccess
p1111
(dp1112
g462
(lp1113
(i__main__
DelphiIdentAccess
p1114
(dp1115
g15
S'valueTextRect'
p1116
sg471
(lp1117
sba(i__main__
DelphiIdentAccess
p1118
(dp1119
g15
S'thePoint'
p1120
sg471
(lp1121
sbasbasbsg616
(idelphi
DelphiIfStatement
p1122
(dp1123
g580
(i__main__
DelphiIdentAccess
p1124
(dp1125
g15
S'ptInRect'
p1126
sg471
(lp1127
(idelphi
DelphiFunctionEndAccess
p1128
(dp1129
g462
(lp1130
(i__main__
DelphiIdentAccess
p1131
(dp1132
g15
S'unitTextRect'
p1133
sg471
(lp1134
sba(i__main__
DelphiIdentAccess
p1135
(dp1136
g15
S'thePoint'
p1137
sg471
(lp1138
sbasbasbsg616
Nsg644
(idelphi
DelphiCompoundStatement
p1139
(dp1140
g453
(lp1141
(i__main__
DelphiAssignStatement
p1142
(dp1143
g457
(i__main__
DelphiIdentAccess
p1144
(dp1145
g15
S'kItemUnitText'
p1146
sg471
(lp1147
sbsg458
(i__main__
DelphiIdentAccess
p1148
(dp1149
g15
S'self'
p1150
sg471
(lp1151
(idelphi
DelphiFieldEndAccess
p1152
(dp1153
g484
S'selectedItemIndex'
p1154
sbasbsba(i__main__
DelphiAssignStatement
p1155
(dp1156
g457
Nsg458
(i__main__
DelphiIdentAccess
p1157
(dp1158
g15
S'self'
p1159
sg471
(lp1160
(idelphi
DelphiFieldEndAccess
p1161
(dp1162
g484
S'invalidate'
p1163
sbasbsba(i__main__
DelphiAssignStatement
p1164
(dp1165
g457
Nsg458
(i__main__
DelphiIdentAccess
p1166
(dp1167
g15
S'self'
p1168
sg471
(lp1169
(idelphi
DelphiFieldEndAccess
p1170
(dp1171
g484
S'selectNextUnitInSet'
p1172
sba(idelphi
DelphiFunctionEndAccess
p1173
(dp1174
g462
(lp1175
(idelphi
DelphiRelOp
p1176
(dp1177
g467
(i__main__
DelphiIdentAccess
p1178
(dp1179
g15
S'ssShift'
p1180
sg471
(lp1181
sbsg473
(i__main__
DelphiIdentAccess
p1182
(dp1183
g15
S'shift'
p1184
sg471
(lp1185
sbsg476
S'in'
p1186
sba(idelphi
DelphiRelOp
p1187
(dp1188
g467
(i__main__
DelphiIdentAccess
p1189
(dp1190
g15
S'ssCtrl'
p1191
sg471
(lp1192
sbsg473
(i__main__
DelphiIdentAccess
p1193
(dp1194
g15
S'shift'
p1195
sg471
(lp1196
sbsg476
g1186
sbasbasbsbasbsbsg644
(idelphi
DelphiCompoundStatement
p1197
(dp1198
g453
(lp1199
(idelphi
DelphiIfStatement
p1200
(dp1201
g580
(idelphi
DelphiMulOp
p1202
(dp1203
g583
(idelphi
DelphiNot
p1204
(dp1205
g756
(i__main__
DelphiIdentAccess
p1206
(dp1207
g15
S'slider'
p1208
sg471
(lp1209
(idelphi
DelphiFieldEndAccess
p1210
(dp1211
g484
S'readOnly'
p1212
sbasbsbsg601
g602
sg603
(i__main__
DelphiIdentAccess
p1213
(dp1214
g15
S'slider'
p1215
sg471
(lp1216
(idelphi
DelphiFieldEndAccess
p1217
(dp1218
g484
S'enabled'
p1219
sbasbsbsg616
Nsg644
(idelphi
DelphiCompoundStatement
p1220
(dp1221
g453
(lp1222
(i__main__
DelphiAssignStatement
p1223
(dp1224
g457
(i__main__
DelphiIdentAccess
p1225
(dp1226
g15
S'kItemValueText'
p1227
sg471
(lp1228
sbsg458
(i__main__
DelphiIdentAccess
p1229
(dp1230
g15
S'self'
p1231
sg471
(lp1232
(idelphi
DelphiFieldEndAccess
p1233
(dp1234
g484
S'selectedItemIndex'
p1235
sbasbsba(i__main__
DelphiAssignStatement
p1236
(dp1237
g457
Nsg458
(i__main__
DelphiIdentAccess
p1238
(dp1239
g15
S'self'
p1240
sg471
(lp1241
(idelphi
DelphiFieldEndAccess
p1242
(dp1243
g484
S'invalidate'
p1244
sbasbsba(i__main__
DelphiAssignStatement
p1245
(dp1246
g457
Nsg458
(i__main__
DelphiIdentAccess
p1247
(dp1248
g15
S'self'
p1249
sg471
(lp1250
(idelphi
DelphiFieldEndAccess
p1251
(dp1252
g484
S'adjustValue'
p1253
sbasbsbasbsbasbsbasbsg502
(lp1254
(i__main__
DelphiVarSection
p1255
(dp1256
g36
I0
sg1008
(lp1257
(idelphi
DelphiVarDecl
p1258
(dp1259
g11
Nsg1012
(lp1260
S'thePoint'
p1261
asg17
(i__main__
DelphiNamedType
p1262
(dp1263
g20
S'TPoint'
p1264
sg115
g1
sg116
NsbsbasbasbsbsS'adjustvalue'
p1265
(i__main__
DelphiMethodImplementation
p1266
(dp1267
g433
g163
sg65
g165
sg73
(lp1268
sg435
(lp1269
sg437
(lp1270
sg439
(lp1271
g441
asg442
(dp1272
sg75
S'PdRealParameterPanel'
p1273
sg76
Nsg445
(lp1274
sg77
I0
sg78
g79
sg447
(i__main__
DelphiBlock
p1275
(dp1276
g450
(idelphi
DelphiCompoundStatement
p1277
(dp1278
g453
(lp1279
(i__main__
DelphiAssignStatement
p1280
(dp1281
g457
(i__main__
DelphiIdentAccess
p1282
(dp1283
g15
S'toCurrentUnit'
p1284
sg471
(lp1285
(idelphi
DelphiFunctionEndAccess
p1286
(dp1287
g462
(lp1288
(i__main__
DelphiIdentAccess
p1289
(dp1290
g15
S'currentValue'
p1291
sg471
(lp1292
sbasbasbsg458
(i__main__
DelphiIdentAccess
p1293
(dp1294
g15
S'oldValueInCurrentUnit'
p1295
sg471
(lp1296
sbsba(i__main__
DelphiAssignStatement
p1297
(dp1298
g457
(i__main__
DelphiIdentAccess
p1299
(dp1300
g15
S'digitValueString'
p1301
sg471
(lp1302
(idelphi
DelphiFunctionEndAccess
p1303
(dp1304
g462
(lp1305
(i__main__
DelphiIdentAccess
p1306
(dp1307
g15
S'oldValueInCurrentUnit'
p1308
sg471
(lp1309
sbasbasbsg458
(i__main__
DelphiIdentAccess
p1310
(dp1311
g15
S'newString'
p1312
sg471
(lp1313
sbsba(i__main__
DelphiAssignStatement
p1314
(dp1315
g457
(i__main__
DelphiIdentAccess
p1316
(dp1317
g15
S'newString'
p1318
sg471
(lp1319
sbsg458
(i__main__
DelphiIdentAccess
p1320
(dp1321
g15
S'oldString'
p1322
sg471
(lp1323
sbsba(i__main__
DelphiAssignStatement
p1324
(dp1325
g457
(i__main__
DelphiIdentAccess
p1326
(dp1327
g15
S'copy'
p1328
sg471
(lp1329
(idelphi
DelphiFunctionEndAccess
p1330
(dp1331
g462
(lp1332
(i__main__
DelphiIdentAccess
p1333
(dp1334
g15
S'self'
p1335
sg471
(lp1336
(idelphi
DelphiFieldEndAccess
p1337
(dp1338
g484
S'caption'
p1339
sbasba(idelphi
DelphiIntegerValue
p1340
(dp1341
g14
S'1'
sba(idelphi
DelphiIntegerValue
p1342
(dp1343
g14
S'30'
p1344
sbasbasbsg458
(i__main__
DelphiIdentAccess
p1345
(dp1346
g15
S'nameString'
p1347
sg471
(lp1348
sbsba(idelphi
DelphiIfStatement
p1349
(dp1350
g580
(idelphi
DelphiRelOp
p1351
(dp1352
g467
(i__main__
DelphiIdentAccess
p1353
(dp1354
g15
S'length'
p1355
sg471
(lp1356
(idelphi
DelphiFunctionEndAccess
p1357
(dp1358
g462
(lp1359
(i__main__
DelphiIdentAccess
p1360
(dp1361
g15
S'nameString'
p1362
sg471
(lp1363
sbasbasbsg473
(idelphi
DelphiIntegerValue
p1364
(dp1365
g14
S'30'
p1366
sbsg476
S'='
sbsg616
Nsg644
(i__main__
DelphiAssignStatement
p1367
(dp1368
g457
(idelphi
DelphiAddOp
p1369
(dp1370
g801
S'+'
sg802
(idelphi
DelphiStringAccess
p1371
(dp1372
g471
(lp1373
sg14
(idelphi
DelphiStringValue
p1374
(dp1375
g14
S'...'
p1376
sbsbsg810
(i__main__
DelphiIdentAccess
p1377
(dp1378
g15
S'nameString'
p1379
sg471
(lp1380
sbsbsg458
(i__main__
DelphiIdentAccess
p1381
(dp1382
g15
S'nameString'
p1383
sg471
(lp1384
sbsbsba(i__main__
DelphiAssignStatement
p1385
(dp1386
g457
(i__main__
DelphiIdentAccess
p1387
(dp1388
g15
S'UnitStringForEnum'
p1389
sg471
(lp1390
(idelphi
DelphiFunctionEndAccess
p1391
(dp1392
g462
(lp1393
(i__main__
DelphiIdentAccess
p1394
(dp1395
g15
S'param'
p1396
sg471
(lp1397
(idelphi
DelphiFieldEndAccess
p1398
(dp1399
g484
S'unitSet'
p1400
sbasba(i__main__
DelphiIdentAccess
p1401
(dp1402
g15
S'currentUnitIndex'
p1403
sg471
(lp1404
sbasbasbsg458
(i__main__
DelphiIdentAccess
p1405
(dp1406
g15
S'unitString'
p1407
sg471
(lp1408
sbsba(i__main__
DelphiAssignStatement
p1409
(dp1410
g457
(i__main__
DelphiIdentAccess
p1411
(dp1412
g15
S'digitValueString'
p1413
sg471
(lp1414
(idelphi
DelphiFunctionEndAccess
p1415
(dp1416
g462
(lp1417
(i__main__
DelphiIdentAccess
p1418
(dp1419
g15
S'toCurrentUnit'
p1420
sg471
(lp1421
(idelphi
DelphiFunctionEndAccess
p1422
(dp1423
g462
(lp1424
(i__main__
DelphiIdentAccess
p1425
(dp1426
g15
S'minValue'
p1427
sg471
(lp1428
sbasbasbasbasbsg458
(i__main__
DelphiIdentAccess
p1429
(dp1430
g15
S'minString'
p1431
sg471
(lp1432
sbsba(i__main__
DelphiAssignStatement
p1433
(dp1434
g457
(i__main__
DelphiIdentAccess
p1435
(dp1436
g15
S'digitValueString'
p1437
sg471
(lp1438
(idelphi
DelphiFunctionEndAccess
p1439
(dp1440
g462
(lp1441
(i__main__
DelphiIdentAccess
p1442
(dp1443
g15
S'toCurrentUnit'
p1444
sg471
(lp1445
(idelphi
DelphiFunctionEndAccess
p1446
(dp1447
g462
(lp1448
(i__main__
DelphiIdentAccess
p1449
(dp1450
g15
S'maxValue'
p1451
sg471
(lp1452
sbasbasbasbasbsg458
(i__main__
DelphiIdentAccess
p1453
(dp1454
g15
S'maxString'
p1455
sg471
(lp1456
sbsba(i__main__
DelphiAssignStatement
p1457
(dp1458
g457
(idelphi
DelphiStringAccess
p1459
(dp1460
g471
(lp1461
sg14
(idelphi
DelphiStringValue
p1462
(dp1463
g14
S'Type a new value.'
p1464
sbsbsg458
(i__main__
DelphiIdentAccess
p1465
(dp1466
g15
S'prompt'
p1467
sg471
(lp1468
sbsba(idelphi
DelphiIfStatement
p1469
(dp1470
g580
(i__main__
DelphiIdentAccess
p1471
(dp1472
g15
S'inputQuery'
p1473
sg471
(lp1474
(idelphi
DelphiFunctionEndAccess
p1475
(dp1476
g462
(lp1477
(idelphi
DelphiStringAccess
p1478
(dp1479
g471
(lp1480
sg14
(idelphi
DelphiStringValue
p1481
(dp1482
g14
S'Enter value'
p1483
sbsba(i__main__
DelphiIdentAccess
p1484
(dp1485
g15
S'prompt'
p1486
sg471
(lp1487
sba(i__main__
DelphiIdentAccess
p1488
(dp1489
g15
S'newString'
p1490
sg471
(lp1491
sbasbasbsg616
Nsg644
(idelphi
DelphiIfStatement
p1492
(dp1493
g580
(idelphi
DelphiMulOp
p1494
(dp1495
g583
(idelphi
DelphiNestedExpressionListAccess
p1496
(dp1497
g471
(lp1498
sg462
(lp1499
(i__main__
DelphiIdentAccess
p1500
(dp1501
g15
S'boundForString'
p1502
sg471
(lp1503
(idelphi
DelphiFunctionEndAccess
p1504
(dp1505
g462
(lp1506
(i__main__
DelphiIdentAccess
p1507
(dp1508
g15
S'newString'
p1509
sg471
(lp1510
sba(i__main__
DelphiIdentAccess
p1511
(dp1512
g15
S'param'
p1513
sg471
(lp1514
(idelphi
DelphiFieldEndAccess
p1515
(dp1516
g484
S'fieldType'
p1517
sbasba(i__main__
DelphiIdentAccess
p1518
(dp1519
g15
S'newValue'
p1520
sg471
(lp1521
sbasbasbasbsg601
g602
sg603
(idelphi
DelphiNestedExpressionListAccess
p1522
(dp1523
g471
(lp1524
sg462
(lp1525
(idelphi
DelphiRelOp
p1526
(dp1527
g467
(i__main__
DelphiIdentAccess
p1528
(dp1529
g15
S'newString'
p1530
sg471
(lp1531
sbsg473
(i__main__
DelphiIdentAccess
p1532
(dp1533
g15
S'oldString'
p1534
sg471
(lp1535
sbsg476
g477
sbasbsbsg616
Nsg644
(idelphi
DelphiCompoundStatement
p1536
(dp1537
g453
(lp1538
(i__main__
DelphiAssignStatement
p1539
(dp1540
g457
(i__main__
DelphiIdentAccess
p1541
(dp1542
g15
S'toPlantUnit'
p1543
sg471
(lp1544
(idelphi
DelphiFunctionEndAccess
p1545
(dp1546
g462
(lp1547
(i__main__
DelphiIdentAccess
p1548
(dp1549
g15
S'newValue'
p1550
sg471
(lp1551
sbasbasbsg458
(i__main__
DelphiIdentAccess
p1552
(dp1553
g15
S'newValueInPlantUnit'
p1554
sg471
(lp1555
sbsba(i__main__
DelphiAssignStatement
p1556
(dp1557
g457
(i__main__
DelphiIdentAccess
p1558
(dp1559
g15
S'self'
p1560
sg471
(lp1561
(idelphi
DelphiFieldEndAccess
p1562
(dp1563
g484
S'checkValueAgainstBounds'
p1564
sba(idelphi
DelphiFunctionEndAccess
p1565
(dp1566
g462
(lp1567
(i__main__
DelphiIdentAccess
p1568
(dp1569
g15
S'newValueInPlantUnit'
p1570
sg471
(lp1571
sbasbasbsg458
(i__main__
DelphiIdentAccess
p1572
(dp1573
g15
S'outOfRange'
p1574
sg471
(lp1575
sbsba(idelphi
DelphiIfStatement
p1576
(dp1577
g580
(idelphi
DelphiNot
p1578
(dp1579
g756
(i__main__
DelphiIdentAccess
p1580
(dp1581
g15
S'outOfRange'
p1582
sg471
(lp1583
sbsbsg616
Nsg644
(idelphi
DelphiCompoundStatement
p1584
(dp1585
g453
(lp1586
(i__main__
DelphiAssignStatement
p1587
(dp1588
g457
(i__main__
DelphiIdentAccess
p1589
(dp1590
g15
S'newValueInPlantUnit'
p1591
sg471
(lp1592
sbsg458
(i__main__
DelphiIdentAccess
p1593
(dp1594
g15
S'currentValue'
p1595
sg471
(lp1596
sbsba(i__main__
DelphiAssignStatement
p1597
(dp1598
g457
Nsg458
(i__main__
DelphiIdentAccess
p1599
(dp1600
g15
S'MainForm'
p1601
sg471
(lp1602
(idelphi
DelphiFieldEndAccess
p1603
(dp1604
g484
S'doCommand'
p1605
sba(idelphi
DelphiFunctionEndAccess
p1606
(dp1607
g462
(lp1608
(i__main__
DelphiIdentAccess
p1609
(dp1610
g15
S'PdChangeRealValueCommand'
p1611
sg471
(lp1612
(idelphi
DelphiFieldEndAccess
p1613
(dp1614
g484
S'createCommandWithListOfPlants'
p1615
sba(idelphi
DelphiFunctionEndAccess
p1616
(dp1617
g462
(lp1618
(i__main__
DelphiIdentAccess
p1619
(dp1620
g15
S'MainForm'
p1621
sg471
(lp1622
(idelphi
DelphiFieldEndAccess
p1623
(dp1624
g484
S'selectedPlants'
p1625
sbasba(i__main__
DelphiIdentAccess
p1626
(dp1627
g15
S'currentValue'
p1628
sg471
(lp1629
sba(i__main__
DelphiIdentAccess
p1630
(dp1631
g15
S'param'
p1632
sg471
(lp1633
(idelphi
DelphiFieldEndAccess
p1634
(dp1635
g484
S'fieldNumber'
p1636
sbasba(i__main__
DelphiIdentAccess
p1637
(dp1638
g15
S'arrayIndex'
p1639
sg471
(lp1640
sba(i__main__
DelphiIdentAccess
p1641
(dp1642
g15
S'param'
p1643
sg471
(lp1644
(idelphi
DelphiFieldEndAccess
p1645
(dp1646
g484
S'regrow'
p1647
sbasbasbasbasbasbsba(i__main__
DelphiAssignStatement
p1648
(dp1649
g457
Nsg458
(i__main__
DelphiIdentAccess
p1650
(dp1651
g15
S'self'
p1652
sg471
(lp1653
(idelphi
DelphiFieldEndAccess
p1654
(dp1655
g484
S'updateDisplay'
p1656
sbasbsba(i__main__
DelphiAssignStatement
p1657
(dp1658
g457
Nsg458
(i__main__
DelphiIdentAccess
p1659
(dp1660
g15
S'self'
p1661
sg471
(lp1662
(idelphi
DelphiFieldEndAccess
p1663
(dp1664
g484
S'invalidate'
p1665
sbasbsbasbsbasbsbsbasbsg502
(lp1666
(i__main__
DelphiVarSection
p1667
(dp1668
g36
I0
sg1008
(lp1669
(idelphi
DelphiVarDecl
p1670
(dp1671
g11
Nsg1012
(lp1672
S'newString'
p1673
asg17
(i__main__
DelphiNamedType
p1674
(dp1675
g20
S'ansistring'
p1676
sg115
g1
sg116
Nsbsba(idelphi
DelphiVarDecl
p1677
(dp1678
g11
Nsg1012
(lp1679
S'oldValueInCurrentUnit'
p1680
aS'newValue'
p1681
aS'newValueInPlantUnit'
p1682
asg17
(i__main__
DelphiPrimitiveType
p1683
(dp1684
g20
g93
sbsba(idelphi
DelphiVarDecl
p1685
(dp1686
g11
Nsg1012
(lp1687
S'oldString'
p1688
aS'prompt'
p1689
aS'nameString'
p1690
aS'unitString'
p1691
aS'minString'
p1692
aS'maxString'
p1693
asg17
(i__main__
DelphiPrimitiveType
p1694
(dp1695
g20
g14
sbsba(idelphi
DelphiVarDecl
p1696
(dp1697
g11
Nsg1012
(lp1698
S'outOfRange'
p1699
asg17
(i__main__
DelphiPrimitiveType
p1700
(dp1701
g20
g187
sbsbasbasbsbsS'valuefromsliderposition'
p1702
(i__main__
DelphiMethodImplementation
p1703
(dp1704
g433
g168
sg65
g170
sg73
(lp1705
sg435
(lp1706
sg437
(lp1707
sg439
(lp1708
g441
asg442
(dp1709
sg75
S'PdRealParameterPanel'
p1710
sg76
(i__main__
DelphiPrimitiveType
p1711
(dp1712
g20
g93
sbsg445
(lp1713
sg77
I0
sg78
g97
sg447
(i__main__
DelphiBlock
p1714
(dp1715
g450
(idelphi
DelphiCompoundStatement
p1716
(dp1717
g453
(lp1718
(i__main__
DelphiAssignStatement
p1719
(dp1720
g457
(i__main__
DelphiIdentAccess
p1721
(dp1722
g15
S'slider'
p1723
sg471
(lp1724
(idelphi
DelphiFieldEndAccess
p1725
(dp1726
g484
S'currentValue'
p1727
sbasbsg458
(i__main__
DelphiIdentAccess
p1728
(dp1729
g15
S'sliderPosition'
p1730
sg471
(lp1731
sbsba(i__main__
DelphiAssignStatement
p1732
(dp1733
g457
(idelphi
DelphiAddOp
p1734
(dp1735
g801
S'+'
sg802
(idelphi
DelphiMulOp
p1736
(dp1737
g583
(idelphi
DelphiNestedExpressionListAccess
p1738
(dp1739
g471
(lp1740
sg462
(lp1741
(idelphi
DelphiAddOp
p1742
(dp1743
g801
S'-'
sg802
(i__main__
DelphiIdentAccess
p1744
(dp1745
g15
S'minValue'
p1746
sg471
(lp1747
sbsg810
(i__main__
DelphiIdentAccess
p1748
(dp1749
g15
S'maxValue'
p1750
sg471
(lp1751
sbsbasbsg601
S'*'
sg603
(idelphi
DelphiMulOp
p1752
(dp1753
g583
(idelphi
DelphiRealValue
p1754
(dp1755
g14
S'100.0'
p1756
sbsg601
S'/'
sg603
(i__main__
DelphiIdentAccess
p1757
(dp1758
g15
S'sliderPosition'
p1759
sg471
(lp1760
sbsbsbsg810
(i__main__
DelphiIdentAccess
p1761
(dp1762
g15
S'minValue'
p1763
sg471
(lp1764
sbsbsg458
(i__main__
DelphiIdentAccess
p1765
(dp1766
g15
S'result'
p1767
sg471
(lp1768
sbsbasbsg502
(lp1769
(i__main__
DelphiVarSection
p1770
(dp1771
g36
I0
sg1008
(lp1772
(idelphi
DelphiVarDecl
p1773
(dp1774
g11
Nsg1012
(lp1775
S'sliderPosition'
p1776
asg17
(i__main__
DelphiPrimitiveType
p1777
(dp1778
g20
g93
sbsbasbasbsbsS'checkvalueagainstbounds'
p1779
(i__main__
DelphiMethodImplementation
p1780
(dp1781
g433
g175
sg65
g177
sg73
(lp1782
(i__main__
DelphiFormalParameter
p1783
(dp1784
g87
Nsg88
(lp1785
S'aValue'
p1786
asg17
(i__main__
DelphiPrimitiveType
p1787
(dp1788
g20
g93
sbsg94
Nsbasg435
(lp1789
sg437
(lp1790
sg439
(lp1791
g441
ag1786
asg442
(dp1792
g1786
g1787
ssg75
S'PdRealParameterPanel'
p1793
sg76
(i__main__
DelphiPrimitiveType
p1794
(dp1795
g20
g187
sbsg445
(lp1796
sg77
I0
sg78
g97
sg447
(i__main__
DelphiBlock
p1797
(dp1798
g450
(idelphi
DelphiCompoundStatement
p1799
(dp1800
g453
(lp1801
(i__main__
DelphiAssignStatement
p1802
(dp1803
g457
(idelphi
DelphiAddOp
p1804
(dp1805
g801
S'or'
p1806
sg802
(idelphi
DelphiNestedExpressionListAccess
p1807
(dp1808
g471
(lp1809
sg462
(lp1810
(idelphi
DelphiRelOp
p1811
(dp1812
g467
(i__main__
DelphiIdentAccess
p1813
(dp1814
g15
S'aValue'
p1815
sg471
(lp1816
sbsg473
(i__main__
DelphiIdentAccess
p1817
(dp1818
g15
S'maxValue'
p1819
sg471
(lp1820
sbsg476
S'>'
sbasbsg810
(idelphi
DelphiNestedExpressionListAccess
p1821
(dp1822
g471
(lp1823
sg462
(lp1824
(idelphi
DelphiRelOp
p1825
(dp1826
g467
(i__main__
DelphiIdentAccess
p1827
(dp1828
g15
S'aValue'
p1829
sg471
(lp1830
sbsg473
(i__main__
DelphiIdentAccess
p1831
(dp1832
g15
S'minValue'
p1833
sg471
(lp1834
sbsg476
S'<'
sbasbsbsg458
(i__main__
DelphiIdentAccess
p1835
(dp1836
g15
S'result'
p1837
sg471
(lp1838
sbsbasbsg502
(lp1839
sbsbsS'maxwidth'
p1840
(i__main__
DelphiMethodImplementation
p1841
(dp1842
g433
g189
sg65
g191
sg73
(lp1843
sg435
(lp1844
sg437
(lp1845
sg439
(lp1846
g441
asg442
(dp1847
sg75
S'PdRealParameterPanel'
p1848
sg76
(i__main__
DelphiPrimitiveType
p1849
(dp1850
g20
g128
sbsg445
(lp1851
sg77
I0
sg78
g97
sg447
(i__main__
DelphiBlock
p1852
(dp1853
g450
(idelphi
DelphiCompoundStatement
p1854
(dp1855
g453
(lp1856
(i__main__
DelphiAssignStatement
p1857
(dp1858
g457
(i__main__
DelphiIdentAccess
p1859
(dp1860
g15
S'intMax'
p1861
sg471
(lp1862
(idelphi
DelphiFunctionEndAccess
p1863
(dp1864
g462
(lp1865
(idelphi
DelphiAddOp
p1866
(dp1867
g801
S'+'
sg802
(i__main__
DelphiIdentAccess
p1868
(dp1869
g15
S'self'
p1870
sg471
(lp1871
(idelphi
DelphiFieldEndAccess
p1872
(dp1873
g484
S'labelWidth'
p1874
sbasbsg810
(idelphi
DelphiMulOp
p1875
(dp1876
g583
(idelphi
DelphiIntegerValue
p1877
(dp1878
g14
S'2'
sbsg601
S'*'
sg603
(i__main__
DelphiIdentAccess
p1879
(dp1880
g15
S'kLeftRightGap'
p1881
sg471
(lp1882
sbsbsba(i__main__
DelphiIdentAccess
p1883
(dp1884
g15
S'self'
p1885
sg471
(lp1886
(idelphi
DelphiFieldEndAccess
p1887
(dp1888
g484
S'minScaleWidthWithBounds'
p1889
sba(idelphi
DelphiFunctionEndAccess
p1890
(dp1891
g462
(lp1892
(i__main__
DelphiIdentAccess
p1893
(dp1894
g15
S'param'
p1895
sg471
(lp1896
(idelphi
DelphiFieldEndAccess
p1897
(dp1898
g484
S'unitSet'
p1899
sbasba(i__main__
DelphiIdentAccess
p1900
(dp1901
g15
S'param'
p1902
sg471
(lp1903
(idelphi
DelphiFieldEndAccess
p1904
(dp1905
g484
S'unitModel'
p1906
sbasba(i__main__
DelphiIdentAccess
p1907
(dp1908
g15
S'minValue'
p1909
sg471
(lp1910
sba(i__main__
DelphiIdentAccess
p1911
(dp1912
g15
S'maxValue'
p1913
sg471
(lp1914
sbasbasbasbasbsg458
(i__main__
DelphiIdentAccess
p1915
(dp1916
g15
S'result'
p1917
sg471
(lp1918
sbsbasbsg502
(lp1919
sbsbsS'dokeydown'
p1920
(i__main__
DelphiMethodImplementation
p1921
(dp1922
g433
g196
sg65
g198
sg73
(lp1923
(i__main__
DelphiFormalParameter
p1924
(dp1925
g87
Nsg88
(lp1926
S'sender'
p1927
asg17
(i__main__
DelphiNamedType
p1928
(dp1929
g20
S'TObject'
p1930
sg115
g1
sg116
Nsbsg94
Nsba(i__main__
DelphiFormalParameter
p1931
(dp1932
g87
Nsg88
(lp1933
S'key'
p1934
asg17
(i__main__
DelphiPrimitiveType
p1935
(dp1936
g20
g213
sbsg94
g214
sba(i__main__
DelphiFormalParameter
p1937
(dp1938
g87
Nsg88
(lp1939
S'shift'
p1940
asg17
(i__main__
DelphiNamedType
p1941
(dp1942
g20
S'TShiftState'
p1943
sg115
g1
sg116
Nsbsg94
Nsbasg435
(lp1944
I1
asg437
(lp1945
sg439
(lp1946
g441
ag1927
ag1934
ag1940
asg442
(dp1947
g1940
g1941
sg1927
g1928
sg1934
g1935
ssg75
S'PdRealParameterPanel'
p1948
sg76
Nsg445
(lp1949
g1934
asg77
I0
sg78
g79
sg447
(i__main__
DelphiBlock
p1950
(dp1951
g450
(idelphi
DelphiCompoundStatement
p1952
(dp1953
g453
(lp1954
(idelphi
DelphiIfStatement
p1955
(dp1956
g580
(idelphi
DelphiMulOp
p1957
(dp1958
g583
(idelphi
DelphiNot
p1959
(dp1960
g756
(i__main__
DelphiIdentAccess
p1961
(dp1962
g15
S'slider'
p1963
sg471
(lp1964
(idelphi
DelphiFieldEndAccess
p1965
(dp1966
g484
S'readOnly'
p1967
sbasbsbsg601
g602
sg603
(i__main__
DelphiIdentAccess
p1968
(dp1969
g15
S'slider'
p1970
sg471
(lp1971
(idelphi
DelphiFieldEndAccess
p1972
(dp1973
g484
S'enabled'
p1974
sbasbsbsg616
Nsg644
(idelphi
DelphiCaseStatement
p1975
(dp1976
S'elseStatement'
p1977
Nsg580
(i__main__
DelphiIdentAccess
p1978
(dp1979
g15
S'key'
p1980
sg471
(lp1981
sbsS'caseSelectorList'
p1982
(lp1983
(idelphi
DelphiCaseSelector
p1984
(dp1985
S'statement'
p1986
(idelphi
DelphiIfStatement
p1987
(dp1988
g580
(idelphi
DelphiNestedExpressionListAccess
p1989
(dp1990
g471
(lp1991
sg462
(lp1992
(idelphi
DelphiRelOp
p1993
(dp1994
g467
(i__main__
DelphiIdentAccess
p1995
(dp1996
g15
S'self'
p1997
sg471
(lp1998
(idelphi
DelphiFieldEndAccess
p1999
(dp2000
g484
S'selectedItemIndex'
p2001
sbasbsg473
(i__main__
DelphiIdentAccess
p2002
(dp2003
g15
S'kItemSlider'
p2004
sg471
(lp2005
sbsg476
S'='
sbasbsg616
Nsg644
(idelphi
DelphiCompoundStatement
p2006
(dp2007
g453
(lp2008
(i__main__
DelphiAssignStatement
p2009
(dp2010
g457
Nsg458
(i__main__
DelphiIdentAccess
p2011
(dp2012
g15
S'slider'
p2013
sg471
(lp2014
(idelphi
DelphiFieldEndAccess
p2015
(dp2016
g484
S'doKeyDown'
p2017
sba(idelphi
DelphiFunctionEndAccess
p2018
(dp2019
g462
(lp2020
(i__main__
DelphiIdentAccess
p2021
(dp2022
g15
S'sender'
p2023
sg471
(lp2024
sba(i__main__
DelphiIdentAccess
p2025
(dp2026
g15
S'key'
p2027
sg471
(lp2028
sba(i__main__
DelphiIdentAccess
p2029
(dp2030
g15
S'shift'
p2031
sg471
(lp2032
sbasbasbsg823
(lp2033
S' process slider arrow keys first '
p2034
asba(i__main__
DelphiExitStatement
p2035
(dp2036
g703
g1921
sbasbsbsS'caseLabelList'
p2037
(lp2038
(i__main__
DelphiIdentAccess
p2039
(dp2040
g15
S'VK_HOME'
p2041
sg471
(lp2042
sba(i__main__
DelphiIdentAccess
p2043
(dp2044
g15
S'VK_END'
p2045
sg471
(lp2046
sba(i__main__
DelphiIdentAccess
p2047
(dp2048
g15
S'VK_DOWN'
p2049
sg471
(lp2050
sba(i__main__
DelphiIdentAccess
p2051
(dp2052
g15
S'VK_LEFT'
p2053
sg471
(lp2054
sba(i__main__
DelphiIdentAccess
p2055
(dp2056
g15
S'VK_UP'
p2057
sg471
(lp2058
sba(i__main__
DelphiIdentAccess
p2059
(dp2060
g15
S'VK_RIGHT'
p2061
sg471
(lp2062
sba(i__main__
DelphiIdentAccess
p2063
(dp2064
g15
S'VK_NEXT'
p2065
sg471
(lp2066
sba(i__main__
DelphiIdentAccess
p2067
(dp2068
g15
S'VK_PRIOR'
p2069
sg471
(lp2070
sbasbasbsba(i__main__
DelphiAssignStatement
p2071
(dp2072
g457
Nsg458
(idelphi
DelphiInheritedCall
p2073
(dp2074
g15
S'doKeyDown'
p2075
sg462
(lp2076
(i__main__
DelphiIdentAccess
p2077
(dp2078
g15
S'sender'
p2079
sg471
(lp2080
sba(i__main__
DelphiIdentAccess
p2081
(dp2082
g15
S'key'
p2083
sg471
(lp2084
sba(i__main__
DelphiIdentAccess
p2085
(dp2086
g15
S'shift'
p2087
sg471
(lp2088
sbasbsba(idelphi
DelphiIfStatement
p2089
(dp2090
g580
(idelphi
DelphiNestedExpressionListAccess
p2091
(dp2092
g471
(lp2093
sg462
(lp2094
(idelphi
DelphiRelOp
p2095
(dp2096
g467
(i__main__
DelphiIdentAccess
p2097
(dp2098
g15
S'key'
p2099
sg471
(lp2100
sbsg473
(i__main__
DelphiIdentAccess
p2101
(dp2102
g15
S'VK_RETURN'
p2103
sg471
(lp2104
sbsg476
S'='
sbasbsg616
Nsg644
(idelphi
DelphiCaseStatement
p2105
(dp2106
g1977
Nsg580
(i__main__
DelphiIdentAccess
p2107
(dp2108
g15
S'self'
p2109
sg471
(lp2110
(idelphi
DelphiFieldEndAccess
p2111
(dp2112
g484
S'selectedItemIndex'
p2113
sbasbsg1982
(lp2114
(idelphi
DelphiCaseSelector
p2115
(dp2116
g1986
(idelphi
DelphiIfStatement
p2117
(dp2118
g580
(idelphi
DelphiMulOp
p2119
(dp2120
g583
(idelphi
DelphiNot
p2121
(dp2122
g756
(i__main__
DelphiIdentAccess
p2123
(dp2124
g15
S'slider'
p2125
sg471
(lp2126
(idelphi
DelphiFieldEndAccess
p2127
(dp2128
g484
S'readOnly'
p2129
sbasbsbsg601
g602
sg603
(i__main__
DelphiIdentAccess
p2130
(dp2131
g15
S'slider'
p2132
sg471
(lp2133
(idelphi
DelphiFieldEndAccess
p2134
(dp2135
g484
S'enabled'
p2136
sbasbsbsg616
Nsg644
(i__main__
DelphiAssignStatement
p2137
(dp2138
g457
Nsg458
(i__main__
DelphiIdentAccess
p2139
(dp2140
g15
S'slider'
p2141
sg471
(lp2142
(idelphi
DelphiFieldEndAccess
p2143
(dp2144
g484
S'doKeyDown'
p2145
sba(idelphi
DelphiFunctionEndAccess
p2146
(dp2147
g462
(lp2148
(i__main__
DelphiIdentAccess
p2149
(dp2150
g15
S'sender'
p2151
sg471
(lp2152
sba(i__main__
DelphiIdentAccess
p2153
(dp2154
g15
S'key'
p2155
sg471
(lp2156
sba(i__main__
DelphiIdentAccess
p2157
(dp2158
g15
S'shift'
p2159
sg471
(lp2160
sbasbasbsbsbsg2037
(lp2161
(i__main__
DelphiIdentAccess
p2162
(dp2163
g15
S'kItemSlider'
p2164
sg471
(lp2165
sbasba(idelphi
DelphiCaseSelector
p2166
(dp2167
g1986
(idelphi
DelphiIfStatement
p2168
(dp2169
g580
(idelphi
DelphiMulOp
p2170
(dp2171
g583
(idelphi
DelphiNot
p2172
(dp2173
g756
(i__main__
DelphiIdentAccess
p2174
(dp2175
g15
S'slider'
p2176
sg471
(lp2177
(idelphi
DelphiFieldEndAccess
p2178
(dp2179
g484
S'readOnly'
p2180
sbasbsbsg601
g602
sg603
(i__main__
DelphiIdentAccess
p2181
(dp2182
g15
S'slider'
p2183
sg471
(lp2184
(idelphi
DelphiFieldEndAccess
p2185
(dp2186
g484
S'enabled'
p2187
sbasbsbsg616
Nsg644
(i__main__
DelphiAssignStatement
p2188
(dp2189
g457
Nsg458
(i__main__
DelphiIdentAccess
p2190
(dp2191
g15
S'self'
p2192
sg471
(lp2193
(idelphi
DelphiFieldEndAccess
p2194
(dp2195
g484
S'adjustValue'
p2196
sbasbsbsbsg2037
(lp2197
(i__main__
DelphiIdentAccess
p2198
(dp2199
g15
S'kItemValueText'
p2200
sg471
(lp2201
sbasba(idelphi
DelphiCaseSelector
p2202
(dp2203
g1986
(i__main__
DelphiAssignStatement
p2204
(dp2205
g457
Nsg458
(i__main__
DelphiIdentAccess
p2206
(dp2207
g15
S'self'
p2208
sg471
(lp2209
(idelphi
DelphiFieldEndAccess
p2210
(dp2211
g484
S'selectNextUnitInSet'
p2212
sba(idelphi
DelphiFunctionEndAccess
p2213
(dp2214
g462
(lp2215
(idelphi
DelphiRelOp
p2216
(dp2217
g467
(i__main__
DelphiIdentAccess
p2218
(dp2219
g15
S'ssShift'
p2220
sg471
(lp2221
sbsg473
(i__main__
DelphiIdentAccess
p2222
(dp2223
g15
S'shift'
p2224
sg471
(lp2225
sbsg476
g1186
sba(idelphi
DelphiRelOp
p2226
(dp2227
g467
(i__main__
DelphiIdentAccess
p2228
(dp2229
g15
S'ssCtrl'
p2230
sg471
(lp2231
sbsg473
(i__main__
DelphiIdentAccess
p2232
(dp2233
g15
S'shift'
p2234
sg471
(lp2235
sbsg476
g1186
sbasbasbsbsg2037
(lp2236
(i__main__
DelphiIdentAccess
p2237
(dp2238
g15
S'kItemUnitText'
p2239
sg471
(lp2240
sbasbasbsbasbsg502
(lp2241
sbsbsS'paint'
p2242
(i__main__
DelphiMethodImplementation
p2243
(dp2244
g433
g223
sg65
g225
sg73
(lp2245
sg435
(lp2246
sg437
(lp2247
sg439
(lp2248
g441
asg442
(dp2249
sg75
S'PdRealParameterPanel'
p2250
sg76
Nsg445
(lp2251
sg77
I0
sg78
g79
sg447
(i__main__
DelphiBlock
p2252
(dp2253
g450
(idelphi
DelphiCompoundStatement
p2254
(dp2255
g453
(lp2256
(idelphi
DelphiIfStatement
p2257
(dp2258
g580
(i__main__
DelphiIdentAccess
p2259
(dp2260
g15
S'Application'
p2261
sg471
(lp2262
(idelphi
DelphiFieldEndAccess
p2263
(dp2264
g484
S'terminated'
p2265
sbasbsg616
Nsg644
(i__main__
DelphiExitStatement
p2266
(dp2267
g703
g2243
sbsba(idelphi
DelphiIfStatement
p2268
(dp2269
g580
(idelphi
DelphiNestedExpressionListAccess
p2270
(dp2271
g471
(lp2272
sg462
(lp2273
(idelphi
DelphiRelOp
p2274
(dp2275
g467
(i__main__
DelphiIdentAccess
p2276
(dp2277
g15
S'self'
p2278
sg471
(lp2279
(idelphi
DelphiFieldEndAccess
p2280
(dp2281
g484
S'selectedItemIndex'
p2282
sbasbsg473
(i__main__
DelphiIdentAccess
p2283
(dp2284
g15
S'kItemSlider'
p2285
sg471
(lp2286
sbsg476
S'='
sbasbsg616
(i__main__
DelphiAssignStatement
p2287
(dp2288
g457
(i__main__
DelphiIdentAccess
p2289
(dp2290
g15
S'false'
p2291
sg471
(lp2292
sbsg458
(i__main__
DelphiIdentAccess
p2293
(dp2294
g15
S'slider'
p2295
sg471
(lp2296
(idelphi
DelphiFieldEndAccess
p2297
(dp2298
g484
S'hasUnofficialFocus'
p2299
sbasbsbsg644
(i__main__
DelphiAssignStatement
p2300
(dp2301
g457
(i__main__
DelphiIdentAccess
p2302
(dp2303
g15
S'true'
p2304
sg471
(lp2305
sbsg458
(i__main__
DelphiIdentAccess
p2306
(dp2307
g15
S'slider'
p2308
sg471
(lp2309
(idelphi
DelphiFieldEndAccess
p2310
(dp2311
g484
S'hasUnofficialFocus'
p2312
sbasbsg823
(lp2313
S' ask slider to update itself based on whether it is selected '
p2314
asbsba(i__main__
DelphiAssignStatement
p2315
(dp2316
g457
Nsg458
(idelphi
DelphiInheritedCall
p2317
(dp2318
g15
S'paint'
p2319
sg462
Nsbsba(i__main__
DelphiAssignStatement
p2320
(dp2321
g457
(idelphi
DelphiNot
p2322
(dp2323
g756
(i__main__
DelphiIdentAccess
p2324
(dp2325
g15
S'param'
p2326
sg471
(lp2327
(idelphi
DelphiFieldEndAccess
p2328
(dp2329
g484
S'collapsed'
p2330
sbasbsbsg458
(i__main__
DelphiIdentAccess
p2331
(dp2332
g15
S'slider'
p2333
sg471
(lp2334
(idelphi
DelphiFieldEndAccess
p2335
(dp2336
g484
S'visible'
p2337
sbasbsba(idelphi
DelphiIfStatement
p2338
(dp2339
g580
(idelphi
DelphiNestedExpressionListAccess
p2340
(dp2341
g471
(lp2342
sg462
(lp2343
(i__main__
DelphiIdentAccess
p2344
(dp2345
g15
S'param'
p2346
sg471
(lp2347
(idelphi
DelphiFieldEndAccess
p2348
(dp2349
g484
S'collapsed'
p2350
sbasbasbsg616
Nsg644
(idelphi
DelphiCompoundStatement
p2351
(dp2352
g453
(lp2353
(i__main__
DelphiAssignStatement
p2354
(dp2355
g457
Nsg458
(i__main__
DelphiIdentAccess
p2356
(dp2357
g15
S'self'
p2358
sg471
(lp2359
(idelphi
DelphiFieldEndAccess
p2360
(dp2361
g484
S'drawExtraValueCaptionWithString'
p2362
sba(idelphi
DelphiFunctionEndAccess
p2363
(dp2364
g462
(lp2365
(i__main__
DelphiIdentAccess
p2366
(dp2367
g15
S'digitValueString'
p2368
sg471
(lp2369
(idelphi
DelphiFunctionEndAccess
p2370
(dp2371
g462
(lp2372
(i__main__
DelphiIdentAccess
p2373
(dp2374
g15
S'toCurrentUnit'
p2375
sg471
(lp2376
(idelphi
DelphiFunctionEndAccess
p2377
(dp2378
g462
(lp2379
(i__main__
DelphiIdentAccess
p2380
(dp2381
g15
S'currentValue'
p2382
sg471
(lp2383
sbasbasbasbasba(i__main__
DelphiIdentAccess
p2384
(dp2385
g15
S'UnitStringForEnum'
p2386
sg471
(lp2387
(idelphi
DelphiFunctionEndAccess
p2388
(dp2389
g462
(lp2390
(i__main__
DelphiIdentAccess
p2391
(dp2392
g15
S'param'
p2393
sg471
(lp2394
(idelphi
DelphiFieldEndAccess
p2395
(dp2396
g484
S'unitSet'
p2397
sbasba(i__main__
DelphiIdentAccess
p2398
(dp2399
g15
S'currentUnitIndex'
p2400
sg471
(lp2401
sbasbasbasbasbsba(i__main__
DelphiExitStatement
p2402
(dp2403
g703
g2243
sbasbsba(i__main__
DelphiAssignStatement
p2404
(dp2405
g457
(i__main__
DelphiIdentAccess
p2406
(dp2407
g15
S'getClientRect'
p2408
sg471
(lp2409
sbsg458
(i__main__
DelphiIdentAccess
p2410
(dp2411
g15
S'rect'
p2412
sg471
(lp2413
sbsba(i__main__
DelphiAssignStatement
p2414
(dp2415
g457
(i__main__
DelphiIdentAccess
p2416
(dp2417
g15
S'digitValueString'
p2418
sg471
(lp2419
(idelphi
DelphiFunctionEndAccess
p2420
(dp2421
g462
(lp2422
(i__main__
DelphiIdentAccess
p2423
(dp2424
g15
S'toCurrentUnit'
p2425
sg471
(lp2426
(idelphi
DelphiFunctionEndAccess
p2427
(dp2428
g462
(lp2429
(i__main__
DelphiIdentAccess
p2430
(dp2431
g15
S'minValue'
p2432
sg471
(lp2433
sbasbasbasbasbsg458
(i__main__
DelphiIdentAccess
p2434
(dp2435
g15
S'minString'
p2436
sg471
(lp2437
sbsba(i__main__
DelphiAssignStatement
p2438
(dp2439
g457
(i__main__
DelphiIdentAccess
p2440
(dp2441
g15
S'digitValueString'
p2442
sg471
(lp2443
(idelphi
DelphiFunctionEndAccess
p2444
(dp2445
g462
(lp2446
(i__main__
DelphiIdentAccess
p2447
(dp2448
g15
S'toCurrentUnit'
p2449
sg471
(lp2450
(idelphi
DelphiFunctionEndAccess
p2451
(dp2452
g462
(lp2453
(i__main__
DelphiIdentAccess
p2454
(dp2455
g15
S'maxValue'
p2456
sg471
(lp2457
sbasbasbasbasbsg458
(i__main__
DelphiIdentAccess
p2458
(dp2459
g15
S'maxString'
p2460
sg471
(lp2461
sbsba(idelphi
DelphiIfStatement
p2462
(dp2463
g580
(i__main__
DelphiIdentAccess
p2464
(dp2465
g15
S'slider'
p2466
sg471
(lp2467
(idelphi
DelphiFieldEndAccess
p2468
(dp2469
g484
S'dragging'
p2470
sbasbsg616
(i__main__
DelphiAssignStatement
p2471
(dp2472
g457
(i__main__
DelphiIdentAccess
p2473
(dp2474
g15
S'digitValueString'
p2475
sg471
(lp2476
(idelphi
DelphiFunctionEndAccess
p2477
(dp2478
g462
(lp2479
(i__main__
DelphiIdentAccess
p2480
(dp2481
g15
S'toCurrentUnit'
p2482
sg471
(lp2483
(idelphi
DelphiFunctionEndAccess
p2484
(dp2485
g462
(lp2486
(i__main__
DelphiIdentAccess
p2487
(dp2488
g15
S'currentValue'
p2489
sg471
(lp2490
sbasbasbasbasbsg458
(i__main__
DelphiIdentAccess
p2491
(dp2492
g15
S'valueString'
p2493
sg471
(lp2494
sbsbsg644
(i__main__
DelphiAssignStatement
p2495
(dp2496
g457
(i__main__
DelphiIdentAccess
p2497
(dp2498
g15
S'digitValueString'
p2499
sg471
(lp2500
(idelphi
DelphiFunctionEndAccess
p2501
(dp2502
g462
(lp2503
(i__main__
DelphiIdentAccess
p2504
(dp2505
g15
S'toCurrentUnit'
p2506
sg471
(lp2507
(idelphi
DelphiFunctionEndAccess
p2508
(dp2509
g462
(lp2510
(i__main__
DelphiIdentAccess
p2511
(dp2512
g15
S'currentValueWhileSliding'
p2513
sg471
(lp2514
sbasbasbasbasbsg458
(i__main__
DelphiIdentAccess
p2515
(dp2516
g15
S'valueString'
p2517
sg471
(lp2518
sbsbsba(i__main__
DelphiAssignStatement
p2519
(dp2520
g457
(i__main__
DelphiIdentAccess
p2521
(dp2522
g15
S'UnitStringForEnum'
p2523
sg471
(lp2524
(idelphi
DelphiFunctionEndAccess
p2525
(dp2526
g462
(lp2527
(i__main__
DelphiIdentAccess
p2528
(dp2529
g15
S'param'
p2530
sg471
(lp2531
(idelphi
DelphiFieldEndAccess
p2532
(dp2533
g484
S'unitSet'
p2534
sbasba(i__main__
DelphiIdentAccess
p2535
(dp2536
g15
S'currentUnitIndex'
p2537
sg471
(lp2538
sbasbasbsg458
(i__main__
DelphiIdentAccess
p2539
(dp2540
g15
S'unitString'
p2541
sg471
(lp2542
sbsba(idelphi
DelphiWithStatement
p2543
(dp2544
g1986
(idelphi
DelphiCompoundStatement
p2545
(dp2546
g453
(lp2547
(i__main__
DelphiAssignStatement
p2548
(dp2549
g457
(i__main__
DelphiIdentAccess
p2550
(dp2551
g15
S'kLeftRightGap'
p2552
sg471
(lp2553
sbsg458
(i__main__
DelphiIdentAccess
p2554
(dp2555
g15
S'left'
p2556
sg471
(lp2557
sbsba(i__main__
DelphiAssignStatement
p2558
(dp2559
g457
(idelphi
DelphiAddOp
p2560
(dp2561
g801
S'+'
sg802
(i__main__
DelphiIdentAccess
p2562
(dp2563
g15
S'self'
p2564
sg471
(lp2565
(idelphi
DelphiFieldEndAccess
p2566
(dp2567
g484
S'canvas'
p2568
sba(idelphi
DelphiFieldEndAccess
p2569
(dp2570
g484
S'textWidth'
p2571
sba(idelphi
DelphiFunctionEndAccess
p2572
(dp2573
g462
(lp2574
(i__main__
DelphiIdentAccess
p2575
(dp2576
g15
S'valueString'
p2577
sg471
(lp2578
sbasbasbsg810
(i__main__
DelphiIdentAccess
p2579
(dp2580
g15
S'left'
p2581
sg471
(lp2582
sbsbsg458
(i__main__
DelphiIdentAccess
p2583
(dp2584
g15
S'right'
p2585
sg471
(lp2586
sbsba(i__main__
DelphiAssignStatement
p2587
(dp2588
g457
(idelphi
DelphiAddOp
p2589
(dp2590
g801
S'+'
sg802
(idelphi
DelphiIntegerValue
p2591
(dp2592
g14
S'1'
sbsg810
(i__main__
DelphiIdentAccess
p2593
(dp2594
g15
S'self'
p2595
sg471
(lp2596
(idelphi
DelphiFieldEndAccess
p2597
(dp2598
g484
S'collapsedHeight'
p2599
sbasbsbsg458
(i__main__
DelphiIdentAccess
p2600
(dp2601
g15
S'top'
p2602
sg471
(lp2603
sbsba(i__main__
DelphiAssignStatement
p2604
(dp2605
g457
(idelphi
DelphiAddOp
p2606
(dp2607
g801
S'+'
sg802
(i__main__
DelphiIdentAccess
p2608
(dp2609
g15
S'self'
p2610
sg471
(lp2611
(idelphi
DelphiFieldEndAccess
p2612
(dp2613
g484
S'textHeight'
p2614
sbasbsg810
(i__main__
DelphiIdentAccess
p2615
(dp2616
g15
S'top'
p2617
sg471
(lp2618
sbsbsg458
(i__main__
DelphiIdentAccess
p2619
(dp2620
g15
S'bottom'
p2621
sg471
(lp2622
sbsbasbsS'variableReferenceList'
p2623
(lp2624
(i__main__
DelphiIdentAccess
p2625
(dp2626
g15
S'valueTextRect'
p2627
sg471
(lp2628
sbasba(i__main__
DelphiAssignStatement
p2629
(dp2630
g457
(i__main__
DelphiIdentAccess
p2631
(dp2632
g15
S'valueTextRect'
p2633
sg471
(lp2634
sbsg458
(i__main__
DelphiIdentAccess
p2635
(dp2636
g15
S'unitTextRect'
p2637
sg471
(lp2638
sbsba(i__main__
DelphiAssignStatement
p2639
(dp2640
g457
(idelphi
DelphiAddOp
p2641
(dp2642
g801
S'+'
sg802
(idelphi
DelphiIntegerValue
p2643
(dp2644
g14
S'5'
sbsg810
(i__main__
DelphiIdentAccess
p2645
(dp2646
g15
S'valueTextRect'
p2647
sg471
(lp2648
(idelphi
DelphiFieldEndAccess
p2649
(dp2650
g484
S'right'
p2651
sbasbsbsg458
(i__main__
DelphiIdentAccess
p2652
(dp2653
g15
S'unitTextRect'
p2654
sg471
(lp2655
(idelphi
DelphiFieldEndAccess
p2656
(dp2657
g484
S'left'
p2658
sbasbsba(i__main__
DelphiAssignStatement
p2659
(dp2660
g457
(idelphi
DelphiAddOp
p2661
(dp2662
g801
S'+'
sg802
(i__main__
DelphiIdentAccess
p2663
(dp2664
g15
S'self'
p2665
sg471
(lp2666
(idelphi
DelphiFieldEndAccess
p2667
(dp2668
g484
S'canvas'
p2669
sba(idelphi
DelphiFieldEndAccess
p2670
(dp2671
g484
S'textWidth'
p2672
sba(idelphi
DelphiFunctionEndAccess
p2673
(dp2674
g462
(lp2675
(i__main__
DelphiIdentAccess
p2676
(dp2677
g15
S'unitString'
p2678
sg471
(lp2679
sbasbasbsg810
(i__main__
DelphiIdentAccess
p2680
(dp2681
g15
S'unitTextRect'
p2682
sg471
(lp2683
(idelphi
DelphiFieldEndAccess
p2684
(dp2685
g484
S'left'
p2686
sbasbsbsg458
(i__main__
DelphiIdentAccess
p2687
(dp2688
g15
S'unitTextRect'
p2689
sg471
(lp2690
(idelphi
DelphiFieldEndAccess
p2691
(dp2692
g484
S'right'
p2693
sbasbsba(i__main__
DelphiAssignStatement
p2694
(dp2695
g457
(i__main__
DelphiIdentAccess
p2696
(dp2697
g15
S'valueTextRect'
p2698
sg471
(lp2699
sbsg458
(i__main__
DelphiIdentAccess
p2700
(dp2701
g15
S'minTextRect'
p2702
sg471
(lp2703
sbsba(i__main__
DelphiAssignStatement
p2704
(dp2705
g457
(idelphi
DelphiAddOp
p2706
(dp2707
g801
S'+'
sg802
(idelphi
DelphiIntegerValue
p2708
(dp2709
g14
S'5'
sbsg810
(i__main__
DelphiIdentAccess
p2710
(dp2711
g15
S'unitTextRect'
p2712
sg471
(lp2713
(idelphi
DelphiFieldEndAccess
p2714
(dp2715
g484
S'right'
p2716
sbasbsbsg458
(i__main__
DelphiIdentAccess
p2717
(dp2718
g15
S'minTextRect'
p2719
sg471
(lp2720
(idelphi
DelphiFieldEndAccess
p2721
(dp2722
g484
S'left'
p2723
sbasbsba(i__main__
DelphiAssignStatement
p2724
(dp2725
g457
(idelphi
DelphiAddOp
p2726
(dp2727
g801
S'+'
sg802
(i__main__
DelphiIdentAccess
p2728
(dp2729
g15
S'self'
p2730
sg471
(lp2731
(idelphi
DelphiFieldEndAccess
p2732
(dp2733
g484
S'canvas'
p2734
sba(idelphi
DelphiFieldEndAccess
p2735
(dp2736
g484
S'textWidth'
p2737
sba(idelphi
DelphiFunctionEndAccess
p2738
(dp2739
g462
(lp2740
(i__main__
DelphiIdentAccess
p2741
(dp2742
g15
S'minString'
p2743
sg471
(lp2744
sbasbasbsg810
(i__main__
DelphiIdentAccess
p2745
(dp2746
g15
S'minTextRect'
p2747
sg471
(lp2748
(idelphi
DelphiFieldEndAccess
p2749
(dp2750
g484
S'left'
p2751
sbasbsbsg458
(i__main__
DelphiIdentAccess
p2752
(dp2753
g15
S'minTextRect'
p2754
sg471
(lp2755
(idelphi
DelphiFieldEndAccess
p2756
(dp2757
g484
S'right'
p2758
sbasbsba(i__main__
DelphiAssignStatement
p2759
(dp2760
g457
(i__main__
DelphiIdentAccess
p2761
(dp2762
g15
S'valueTextRect'
p2763
sg471
(lp2764
sbsg458
(i__main__
DelphiIdentAccess
p2765
(dp2766
g15
S'maxTextRect'
p2767
sg471
(lp2768
sbsba(i__main__
DelphiAssignStatement
p2769
(dp2770
g457
(idelphi
DelphiAddOp
p2771
(dp2772
g801
S'-'
sg802
(i__main__
DelphiIdentAccess
p2773
(dp2774
g15
S'kLeftRightGap'
p2775
sg471
(lp2776
sbsg810
(i__main__
DelphiIdentAccess
p2777
(dp2778
g15
S'rect'
p2779
sg471
(lp2780
(idelphi
DelphiFieldEndAccess
p2781
(dp2782
g484
S'right'
p2783
sbasbsbsg458
(i__main__
DelphiIdentAccess
p2784
(dp2785
g15
S'maxTextRect'
p2786
sg471
(lp2787
(idelphi
DelphiFieldEndAccess
p2788
(dp2789
g484
S'right'
p2790
sbasbsba(i__main__
DelphiAssignStatement
p2791
(dp2792
g457
(idelphi
DelphiAddOp
p2793
(dp2794
g801
S'-'
sg802
(i__main__
DelphiIdentAccess
p2795
(dp2796
g15
S'self'
p2797
sg471
(lp2798
(idelphi
DelphiFieldEndAccess
p2799
(dp2800
g484
S'canvas'
p2801
sba(idelphi
DelphiFieldEndAccess
p2802
(dp2803
g484
S'textWidth'
p2804
sba(idelphi
DelphiFunctionEndAccess
p2805
(dp2806
g462
(lp2807
(i__main__
DelphiIdentAccess
p2808
(dp2809
g15
S'maxString'
p2810
sg471
(lp2811
sbasbasbsg810
(i__main__
DelphiIdentAccess
p2812
(dp2813
g15
S'maxTextRect'
p2814
sg471
(lp2815
(idelphi
DelphiFieldEndAccess
p2816
(dp2817
g484
S'right'
p2818
sbasbsbsg458
(i__main__
DelphiIdentAccess
p2819
(dp2820
g15
S'maxTextRect'
p2821
sg471
(lp2822
(idelphi
DelphiFieldEndAccess
p2823
(dp2824
g484
S'left'
p2825
sbasbsba(idelphi
DelphiWithStatement
p2826
(dp2827
g1986
(idelphi
DelphiCompoundStatement
p2828
(dp2829
g453
(lp2830
(i__main__
DelphiAssignStatement
p2831
(dp2832
g457
Nsg458
(i__main__
DelphiIdentAccess
p2833
(dp2834
g15
S'self'
p2835
sg471
(lp2836
(idelphi
DelphiFieldEndAccess
p2837
(dp2838
g484
S'drawText'
p2839
sba(idelphi
DelphiFunctionEndAccess
p2840
(dp2841
g462
(lp2842
(i__main__
DelphiIdentAccess
p2843
(dp2844
g15
S'minString'
p2845
sg471
(lp2846
sba(i__main__
DelphiIdentAccess
p2847
(dp2848
g15
S'minTextRect'
p2849
sg471
(lp2850
sba(i__main__
DelphiIdentAccess
p2851
(dp2852
g15
S'false'
p2853
sg471
(lp2854
sba(i__main__
DelphiIdentAccess
p2855
(dp2856
g15
S'false'
p2857
sg471
(lp2858
sba(i__main__
DelphiIdentAccess
p2859
(dp2860
g15
S'true'
p2861
sg471
(lp2862
sbasbasbsba(i__main__
DelphiAssignStatement
p2863
(dp2864
g457
Nsg458
(i__main__
DelphiIdentAccess
p2865
(dp2866
g15
S'self'
p2867
sg471
(lp2868
(idelphi
DelphiFieldEndAccess
p2869
(dp2870
g484
S'drawText'
p2871
sba(idelphi
DelphiFunctionEndAccess
p2872
(dp2873
g462
(lp2874
(i__main__
DelphiIdentAccess
p2875
(dp2876
g15
S'valueString'
p2877
sg471
(lp2878
sba(i__main__
DelphiIdentAccess
p2879
(dp2880
g15
S'valueTextRect'
p2881
sg471
(lp2882
sba(idelphi
DelphiNot
p2883
(dp2884
g756
(i__main__
DelphiIdentAccess
p2885
(dp2886
g15
S'self'
p2887
sg471
(lp2888
(idelphi
DelphiFieldEndAccess
p2889
(dp2890
g484
S'readOnly'
p2891
sbasbsba(idelphi
DelphiNestedExpressionListAccess
p2892
(dp2893
g471
(lp2894
sg462
(lp2895
(idelphi
DelphiRelOp
p2896
(dp2897
g467
(i__main__
DelphiIdentAccess
p2898
(dp2899
g15
S'self'
p2900
sg471
(lp2901
(idelphi
DelphiFieldEndAccess
p2902
(dp2903
g484
S'selectedItemIndex'
p2904
sbasbsg473
(i__main__
DelphiIdentAccess
p2905
(dp2906
g15
S'kItemValueText'
p2907
sg471
(lp2908
sbsg476
S'='
sbasba(i__main__
DelphiIdentAccess
p2909
(dp2910
g15
S'false'
p2911
sg471
(lp2912
sbasbasbsba(i__main__
DelphiAssignStatement
p2913
(dp2914
g457
Nsg458
(i__main__
DelphiIdentAccess
p2915
(dp2916
g15
S'self'
p2917
sg471
(lp2918
(idelphi
DelphiFieldEndAccess
p2919
(dp2920
g484
S'drawText'
p2921
sba(idelphi
DelphiFunctionEndAccess
p2922
(dp2923
g462
(lp2924
(i__main__
DelphiIdentAccess
p2925
(dp2926
g15
S'unitString'
p2927
sg471
(lp2928
sba(i__main__
DelphiIdentAccess
p2929
(dp2930
g15
S'unitTextRect'
p2931
sg471
(lp2932
sba(i__main__
DelphiIdentAccess
p2933
(dp2934
g15
S'true'
p2935
sg471
(lp2936
sba(idelphi
DelphiNestedExpressionListAccess
p2937
(dp2938
g471
(lp2939
sg462
(lp2940
(idelphi
DelphiRelOp
p2941
(dp2942
g467
(i__main__
DelphiIdentAccess
p2943
(dp2944
g15
S'self'
p2945
sg471
(lp2946
(idelphi
DelphiFieldEndAccess
p2947
(dp2948
g484
S'selectedItemIndex'
p2949
sbasbsg473
(i__main__
DelphiIdentAccess
p2950
(dp2951
g15
S'kItemUnitText'
p2952
sg471
(lp2953
sbsg476
S'='
sbasba(i__main__
DelphiIdentAccess
p2954
(dp2955
g15
S'false'
p2956
sg471
(lp2957
sbasbasbsba(i__main__
DelphiAssignStatement
p2958
(dp2959
g457
Nsg458
(i__main__
DelphiIdentAccess
p2960
(dp2961
g15
S'self'
p2962
sg471
(lp2963
(idelphi
DelphiFieldEndAccess
p2964
(dp2965
g484
S'drawText'
p2966
sba(idelphi
DelphiFunctionEndAccess
p2967
(dp2968
g462
(lp2969
(i__main__
DelphiIdentAccess
p2970
(dp2971
g15
S'maxString'
p2972
sg471
(lp2973
sba(i__main__
DelphiIdentAccess
p2974
(dp2975
g15
S'maxTextRect'
p2976
sg471
(lp2977
sba(i__main__
DelphiIdentAccess
p2978
(dp2979
g15
S'false'
p2980
sg471
(lp2981
sba(i__main__
DelphiIdentAccess
p2982
(dp2983
g15
S'false'
p2984
sg471
(lp2985
sba(i__main__
DelphiIdentAccess
p2986
(dp2987
g15
S'true'
p2988
sg471
(lp2989
sbasbasbsbasbsg2623
(lp2990
(i__main__
DelphiIdentAccess
p2991
(dp2992
g15
S'Canvas'
p2993
sg471
(lp2994
sbasbasbsg502
(lp2995
(i__main__
DelphiVarSection
p2996
(dp2997
g36
I0
sg1008
(lp2998
(idelphi
DelphiVarDecl
p2999
(dp3000
g11
Nsg1012
(lp3001
S'Rect'
p3002
asg17
(i__main__
DelphiNamedType
p3003
(dp3004
g20
S'TRect'
p3005
sg115
g1
sg116
Nsbsba(idelphi
DelphiVarDecl
p3006
(dp3007
g11
Nsg1012
(lp3008
S'minString'
p3009
aS'valueString'
p3010
aS'maxString'
p3011
aS'unitString'
p3012
asg17
(i__main__
DelphiPrimitiveType
p3013
(dp3014
g20
g14
sbsbasbasbsbsS'nextselecteditemindex'
p3015
(i__main__
DelphiMethodImplementation
p3016
(dp3017
g433
g228
sg65
g230
sg73
(lp3018
(i__main__
DelphiFormalParameter
p3019
(dp3020
g87
Nsg88
(lp3021
S'goForward'
p3022
asg17
(i__main__
DelphiPrimitiveType
p3023
(dp3024
g20
g187
sbsg94
Nsbasg435
(lp3025
sg437
(lp3026
sg439
(lp3027
g441
ag3022
asg442
(dp3028
g3022
g3023
ssg75
S'PdRealParameterPanel'
p3029
sg76
(i__main__
DelphiPrimitiveType
p3030
(dp3031
g20
g128
sbsg445
(lp3032
sg77
I0
sg78
g97
sg447
(i__main__
DelphiBlock
p3033
(dp3034
g450
(idelphi
DelphiCompoundStatement
p3035
(dp3036
g453
(lp3037
(i__main__
DelphiAssignStatement
p3038
(dp3039
g457
(i__main__
DelphiIdentAccess
p3040
(dp3041
g15
S'kItemNone'
p3042
sg471
(lp3043
sbsg458
(i__main__
DelphiIdentAccess
p3044
(dp3045
g15
S'result'
p3046
sg471
(lp3047
sbsba(idelphi
DelphiCaseStatement
p3048
(dp3049
g1977
Nsg580
(i__main__
DelphiIdentAccess
p3050
(dp3051
g15
S'self'
p3052
sg471
(lp3053
(idelphi
DelphiFieldEndAccess
p3054
(dp3055
g484
S'selectedItemIndex'
p3056
sbasbsg1982
(lp3057
(idelphi
DelphiCaseSelector
p3058
(dp3059
g1986
(i__main__
DelphiAssignStatement
p3060
(dp3061
g457
(i__main__
DelphiIdentAccess
p3062
(dp3063
g15
S'self'
p3064
sg471
(lp3065
(idelphi
DelphiFieldEndAccess
p3066
(dp3067
g484
S'selectedItemIndex'
p3068
sbasbsg458
(i__main__
DelphiIdentAccess
p3069
(dp3070
g15
S'result'
p3071
sg471
(lp3072
sbsbsg2037
(lp3073
(i__main__
DelphiIdentAccess
p3074
(dp3075
g15
S'kItemNone'
p3076
sg471
(lp3077
sbasba(idelphi
DelphiCaseSelector
p3078
(dp3079
g1986
(idelphi
DelphiIfStatement
p3080
(dp3081
g580
(i__main__
DelphiIdentAccess
p3082
(dp3083
g15
S'goForward'
p3084
sg471
(lp3085
sbsg616
(i__main__
DelphiAssignStatement
p3086
(dp3087
g457
(i__main__
DelphiIdentAccess
p3088
(dp3089
g15
S'kItemNone'
p3090
sg471
(lp3091
sbsg458
(i__main__
DelphiIdentAccess
p3092
(dp3093
g15
S'result'
p3094
sg471
(lp3095
sbsbsg644
(i__main__
DelphiAssignStatement
p3096
(dp3097
g457
(i__main__
DelphiIdentAccess
p3098
(dp3099
g15
S'kItemValueText'
p3100
sg471
(lp3101
sbsg458
(i__main__
DelphiIdentAccess
p3102
(dp3103
g15
S'result'
p3104
sg471
(lp3105
sbsbsbsg2037
(lp3106
(i__main__
DelphiIdentAccess
p3107
(dp3108
g15
S'kItemLabel'
p3109
sg471
(lp3110
sbasba(idelphi
DelphiCaseSelector
p3111
(dp3112
g1986
(idelphi
DelphiIfStatement
p3113
(dp3114
g580
(i__main__
DelphiIdentAccess
p3115
(dp3116
g15
S'goForward'
p3117
sg471
(lp3118
sbsg616
(i__main__
DelphiAssignStatement
p3119
(dp3120
g457
(i__main__
DelphiIdentAccess
p3121
(dp3122
g15
S'kItemUnitText'
p3123
sg471
(lp3124
sbsg458
(i__main__
DelphiIdentAccess
p3125
(dp3126
g15
S'result'
p3127
sg471
(lp3128
sbsbsg644
(i__main__
DelphiAssignStatement
p3129
(dp3130
g457
(i__main__
DelphiIdentAccess
p3131
(dp3132
g15
S'kItemNone'
p3133
sg471
(lp3134
sbsg458
(i__main__
DelphiIdentAccess
p3135
(dp3136
g15
S'result'
p3137
sg471
(lp3138
sbsbsbsg2037
(lp3139
(i__main__
DelphiIdentAccess
p3140
(dp3141
g15
S'kItemSlider'
p3142
sg471
(lp3143
sbasba(idelphi
DelphiCaseSelector
p3144
(dp3145
g1986
(idelphi
DelphiIfStatement
p3146
(dp3147
g580
(i__main__
DelphiIdentAccess
p3148
(dp3149
g15
S'goForward'
p3150
sg471
(lp3151
sbsg616
(i__main__
DelphiAssignStatement
p3152
(dp3153
g457
(i__main__
DelphiIdentAccess
p3154
(dp3155
g15
S'kItemLabel'
p3156
sg471
(lp3157
sbsg458
(i__main__
DelphiIdentAccess
p3158
(dp3159
g15
S'result'
p3160
sg471
(lp3161
sbsbsg644
(i__main__
DelphiAssignStatement
p3162
(dp3163
g457
(i__main__
DelphiIdentAccess
p3164
(dp3165
g15
S'kItemUnitText'
p3166
sg471
(lp3167
sbsg458
(i__main__
DelphiIdentAccess
p3168
(dp3169
g15
S'result'
p3170
sg471
(lp3171
sbsbsbsg2037
(lp3172
(i__main__
DelphiIdentAccess
p3173
(dp3174
g15
S'kItemValueText'
p3175
sg471
(lp3176
sbasba(idelphi
DelphiCaseSelector
p3177
(dp3178
g1986
(idelphi
DelphiIfStatement
p3179
(dp3180
g580
(i__main__
DelphiIdentAccess
p3181
(dp3182
g15
S'goForward'
p3183
sg471
(lp3184
sbsg616
(i__main__
DelphiAssignStatement
p3185
(dp3186
g457
(i__main__
DelphiIdentAccess
p3187
(dp3188
g15
S'kItemValueText'
p3189
sg471
(lp3190
sbsg458
(i__main__
DelphiIdentAccess
p3191
(dp3192
g15
S'result'
p3193
sg471
(lp3194
sbsbsg644
(i__main__
DelphiAssignStatement
p3195
(dp3196
g457
(i__main__
DelphiIdentAccess
p3197
(dp3198
g15
S'kItemSlider'
p3199
sg471
(lp3200
sbsg458
(i__main__
DelphiIdentAccess
p3201
(dp3202
g15
S'result'
p3203
sg471
(lp3204
sbsbsbsg2037
(lp3205
(i__main__
DelphiIdentAccess
p3206
(dp3207
g15
S'kItemUnitText'
p3208
sg471
(lp3209
sbasbasbasbsg502
(lp3210
sbsbsS'tocurrentunit'
p3211
(i__main__
DelphiMethodImplementation
p3212
(dp3213
g433
g241
sg65
g243
sg73
(lp3214
(i__main__
DelphiFormalParameter
p3215
(dp3216
g87
Nsg88
(lp3217
S'value'
p3218
asg17
(i__main__
DelphiPrimitiveType
p3219
(dp3220
g20
g93
sbsg94
Nsbasg435
(lp3221
sg437
(lp3222
sg439
(lp3223
g441
ag3218
asg442
(dp3224
g3218
g3219
ssg75
S'PdRealParameterPanel'
p3225
sg76
(i__main__
DelphiPrimitiveType
p3226
(dp3227
g20
g93
sbsg445
(lp3228
sg77
I0
sg78
g97
sg447
(i__main__
DelphiBlock
p3229
(dp3230
g450
(idelphi
DelphiCompoundStatement
p3231
(dp3232
g453
(lp3233
(i__main__
DelphiAssignStatement
p3234
(dp3235
g457
(i__main__
DelphiIdentAccess
p3236
(dp3237
g15
S'Convert'
p3238
sg471
(lp3239
(idelphi
DelphiFunctionEndAccess
p3240
(dp3241
g462
(lp3242
(i__main__
DelphiIdentAccess
p3243
(dp3244
g15
S'param'
p3245
sg471
(lp3246
(idelphi
DelphiFieldEndAccess
p3247
(dp3248
g484
S'unitSet'
p3249
sbasba(i__main__
DelphiIdentAccess
p3250
(dp3251
g15
S'param'
p3252
sg471
(lp3253
(idelphi
DelphiFieldEndAccess
p3254
(dp3255
g484
S'unitModel'
p3256
sbasba(i__main__
DelphiIdentAccess
p3257
(dp3258
g15
S'currentUnitIndex'
p3259
sg471
(lp3260
sba(i__main__
DelphiIdentAccess
p3261
(dp3262
g15
S'value'
p3263
sg471
(lp3264
sbasbasbsg458
(i__main__
DelphiIdentAccess
p3265
(dp3266
g15
S'result'
p3267
sg471
(lp3268
sbsbasbsg502
(lp3269
sbsbsS'sliderkeydown'
p3270
(i__main__
DelphiMethodImplementation
p3271
(dp3272
g433
g254
sg65
g256
sg73
(lp3273
(i__main__
DelphiFormalParameter
p3274
(dp3275
g87
Nsg88
(lp3276
S'Sender'
p3277
asg17
(i__main__
DelphiNamedType
p3278
(dp3279
g20
S'TObject'
p3280
sg115
g1
sg116
Nsbsg94
Nsbasg435
(lp3281
sg437
(lp3282
sg439
(lp3283
g441
ag3277
asg442
(dp3284
g3277
g3278
ssg75
S'PdRealParameterPanel'
p3285
sg76
Nsg445
(lp3286
sg77
I0
sg78
g79
sg447
(i__main__
DelphiBlock
p3287
(dp3288
g450
(idelphi
DelphiCompoundStatement
p3289
(dp3290
g453
(lp3291
(i__main__
DelphiAssignStatement
p3292
(dp3293
g457
Nsg458
(i__main__
DelphiIdentAccess
p3294
(dp3295
g15
S'self'
p3296
sg471
(lp3297
(idelphi
DelphiFieldEndAccess
p3298
(dp3299
g484
S'sliderMouseUp'
p3300
sba(idelphi
DelphiFunctionEndAccess
p3301
(dp3302
g462
(lp3303
(i__main__
DelphiIdentAccess
p3304
(dp3305
g15
S'sender'
p3306
sg471
(lp3307
sbasbasbsbasbsg502
(lp3308
sbsbsS'slidermousemove'
p3309
(i__main__
DelphiMethodImplementation
p3310
(dp3311
g433
g266
sg65
g268
sg73
(lp3312
(i__main__
DelphiFormalParameter
p3313
(dp3314
g87
Nsg88
(lp3315
S'Sender'
p3316
asg17
(i__main__
DelphiNamedType
p3317
(dp3318
g20
S'TObject'
p3319
sg115
g1
sg116
Nsbsg94
Nsbasg435
(lp3320
sg437
(lp3321
sg439
(lp3322
g441
ag3316
asg442
(dp3323
g3316
g3317
ssg75
S'PdRealParameterPanel'
p3324
sg76
Nsg445
(lp3325
sg77
I0
sg78
g79
sg447
(i__main__
DelphiBlock
p3326
(dp3327
g450
(idelphi
DelphiCompoundStatement
p3328
(dp3329
g453
(lp3330
(idelphi
DelphiIfStatement
p3331
(dp3332
g580
(idelphi
DelphiRelOp
p3333
(dp3334
g467
(i__main__
DelphiIdentAccess
p3335
(dp3336
g15
S'plant'
p3337
sg471
(lp3338
sbsg473
(idelphi
DelphiNilValue
p3339
(dp3340
bsg476
S'='
sbsg616
Nsg644
(i__main__
DelphiExitStatement
p3341
(dp3342
g703
g3310
sbsba(i__main__
DelphiAssignStatement
p3343
(dp3344
g457
(i__main__
DelphiIdentAccess
p3345
(dp3346
g15
S'self'
p3347
sg471
(lp3348
(idelphi
DelphiFieldEndAccess
p3349
(dp3350
g484
S'valueFromSliderPosition'
p3351
sbasbsg458
(i__main__
DelphiIdentAccess
p3352
(dp3353
g15
S'currentValueWhileSliding'
p3354
sg471
(lp3355
sbsba(i__main__
DelphiAssignStatement
p3356
(dp3357
g457
Nsg458
(i__main__
DelphiIdentAccess
p3358
(dp3359
g15
S'self'
p3360
sg471
(lp3361
(idelphi
DelphiFieldEndAccess
p3362
(dp3363
g484
S'invalidate'
p3364
sbasbsbasbsg502
(lp3365
sbsbsS'slidermouseup'
p3366
(i__main__
DelphiMethodImplementation
p3367
(dp3368
g433
g278
sg65
g280
sg73
(lp3369
(i__main__
DelphiFormalParameter
p3370
(dp3371
g87
Nsg88
(lp3372
S'Sender'
p3373
asg17
(i__main__
DelphiNamedType
p3374
(dp3375
g20
S'TObject'
p3376
sg115
g1
sg116
Nsbsg94
Nsbasg435
(lp3377
sg437
(lp3378
sg439
(lp3379
g441
ag3373
asg442
(dp3380
g3373
g3374
ssg75
S'PdRealParameterPanel'
p3381
sg76
Nsg445
(lp3382
sg77
I0
sg78
g79
sg447
(i__main__
DelphiBlock
p3383
(dp3384
g450
(idelphi
DelphiCompoundStatement
p3385
(dp3386
g453
(lp3387
(idelphi
DelphiIfStatement
p3388
(dp3389
g580
(idelphi
DelphiRelOp
p3390
(dp3391
g467
(i__main__
DelphiIdentAccess
p3392
(dp3393
g15
S'plant'
p3394
sg471
(lp3395
sbsg473
(idelphi
DelphiNilValue
p3396
(dp3397
bsg476
S'='
sbsg616
Nsg644
(i__main__
DelphiExitStatement
p3398
(dp3399
g703
g3367
sbsba(i__main__
DelphiAssignStatement
p3400
(dp3401
g457
(i__main__
DelphiIdentAccess
p3402
(dp3403
g15
S'self'
p3404
sg471
(lp3405
(idelphi
DelphiFieldEndAccess
p3406
(dp3407
g484
S'valueFromSliderPosition'
p3408
sbasbsg458
(i__main__
DelphiIdentAccess
p3409
(dp3410
g15
S'currentValue'
p3411
sg471
(lp3412
sbsba(i__main__
DelphiAssignStatement
p3413
(dp3414
g457
Nsg458
(i__main__
DelphiIdentAccess
p3415
(dp3416
g15
S'MainForm'
p3417
sg471
(lp3418
(idelphi
DelphiFieldEndAccess
p3419
(dp3420
g484
S'doCommand'
p3421
sba(idelphi
DelphiFunctionEndAccess
p3422
(dp3423
g462
(lp3424
(i__main__
DelphiIdentAccess
p3425
(dp3426
g15
S'PdChangeRealValueCommand'
p3427
sg471
(lp3428
(idelphi
DelphiFieldEndAccess
p3429
(dp3430
g484
S'createCommandWithListOfPlants'
p3431
sba(idelphi
DelphiFunctionEndAccess
p3432
(dp3433
g462
(lp3434
(i__main__
DelphiIdentAccess
p3435
(dp3436
g15
S'MainForm'
p3437
sg471
(lp3438
(idelphi
DelphiFieldEndAccess
p3439
(dp3440
g484
S'selectedPlants'
p3441
sbasba(i__main__
DelphiIdentAccess
p3442
(dp3443
g15
S'currentValue'
p3444
sg471
(lp3445
sba(i__main__
DelphiIdentAccess
p3446
(dp3447
g15
S'param'
p3448
sg471
(lp3449
(idelphi
DelphiFieldEndAccess
p3450
(dp3451
g484
S'fieldNumber'
p3452
sbasba(i__main__
DelphiIdentAccess
p3453
(dp3454
g15
S'arrayIndex'
p3455
sg471
(lp3456
sba(i__main__
DelphiIdentAccess
p3457
(dp3458
g15
S'param'
p3459
sg471
(lp3460
(idelphi
DelphiFieldEndAccess
p3461
(dp3462
g484
S'regrow'
p3463
sbasbasbasbasbasbsba(i__main__
DelphiAssignStatement
p3464
(dp3465
g457
Nsg458
(i__main__
DelphiIdentAccess
p3466
(dp3467
g15
S'self'
p3468
sg471
(lp3469
(idelphi
DelphiFieldEndAccess
p3470
(dp3471
g484
S'invalidate'
p3472
sbasbsbasbsg502
(lp3473
sbsbsS'initialize'
p3474
(i__main__
DelphiMethodImplementation
p3475
(dp3476
g433
g290
sg65
g292
sg73
(lp3477
sg435
(lp3478
sg437
(lp3479
sg439
(lp3480
g441
asg442
(dp3481
sg75
S'PdRealParameterPanel'
p3482
sg76
Nsg445
(lp3483
sg77
I0
sg78
g79
sg447
(i__main__
DelphiBlock
p3484
(dp3485
g450
(idelphi
DelphiCompoundStatement
p3486
(dp3487
g453
(lp3488
(i__main__
DelphiAssignStatement
p3489
(dp3490
g457
(i__main__
DelphiIdentAccess
p3491
(dp3492
g15
S'KfSlider'
p3493
sg471
(lp3494
(idelphi
DelphiFieldEndAccess
p3495
(dp3496
g484
S'create'
p3497
sba(idelphi
DelphiFunctionEndAccess
p3498
(dp3499
g462
(lp3500
(i__main__
DelphiIdentAccess
p3501
(dp3502
g15
S'self'
p3503
sg471
(lp3504
sbasbasbsg458
(i__main__
DelphiIdentAccess
p3505
(dp3506
g15
S'slider'
p3507
sg471
(lp3508
sbsg823
(lp3509
S'assuming slider will be deleted automatically by owner - self - otherwise would have destructor'
p3510
asba(i__main__
DelphiAssignStatement
p3511
(dp3512
g457
(i__main__
DelphiIdentAccess
p3513
(dp3514
g15
S'self'
p3515
sg471
(lp3516
sbsg458
(i__main__
DelphiIdentAccess
p3517
(dp3518
g15
S'slider'
p3519
sg471
(lp3520
(idelphi
DelphiFieldEndAccess
p3521
(dp3522
g484
S'parent'
p3523
sbasbsba(i__main__
DelphiAssignStatement
p3524
(dp3525
g457
(i__main__
DelphiIdentAccess
p3526
(dp3527
g15
S'self'
p3528
sg471
(lp3529
(idelphi
DelphiFieldEndAccess
p3530
(dp3531
g484
S'sliderMouseDown'
p3532
sbasbsg458
(i__main__
DelphiIdentAccess
p3533
(dp3534
g15
S'slider'
p3535
sg471
(lp3536
(idelphi
DelphiFieldEndAccess
p3537
(dp3538
g484
S'FOnMouseDown'
p3539
sbasbsba(i__main__
DelphiAssignStatement
p3540
(dp3541
g457
(i__main__
DelphiIdentAccess
p3542
(dp3543
g15
S'self'
p3544
sg471
(lp3545
(idelphi
DelphiFieldEndAccess
p3546
(dp3547
g484
S'sliderMouseMove'
p3548
sbasbsg458
(i__main__
DelphiIdentAccess
p3549
(dp3550
g15
S'slider'
p3551
sg471
(lp3552
(idelphi
DelphiFieldEndAccess
p3553
(dp3554
g484
S'FOnMouseMove'
p3555
sbasbsba(i__main__
DelphiAssignStatement
p3556
(dp3557
g457
(i__main__
DelphiIdentAccess
p3558
(dp3559
g15
S'self'
p3560
sg471
(lp3561
(idelphi
DelphiFieldEndAccess
p3562
(dp3563
g484
S'sliderMouseUp'
p3564
sbasbsg458
(i__main__
DelphiIdentAccess
p3565
(dp3566
g15
S'slider'
p3567
sg471
(lp3568
(idelphi
DelphiFieldEndAccess
p3569
(dp3570
g484
S'FOnMouseUp'
p3571
sbasbsba(i__main__
DelphiAssignStatement
p3572
(dp3573
g457
(i__main__
DelphiIdentAccess
p3574
(dp3575
g15
S'self'
p3576
sg471
(lp3577
(idelphi
DelphiFieldEndAccess
p3578
(dp3579
g484
S'sliderKeyDown'
p3580
sbasbsg458
(i__main__
DelphiIdentAccess
p3581
(dp3582
g15
S'slider'
p3583
sg471
(lp3584
(idelphi
DelphiFieldEndAccess
p3585
(dp3586
g484
S'FOnKeyDown'
p3587
sbasbsba(i__main__
DelphiAssignStatement
p3588
(dp3589
g457
(idelphi
DelphiIntegerValue
p3590
(dp3591
g14
S'100'
p3592
sbsg458
(i__main__
DelphiIdentAccess
p3593
(dp3594
g15
S'slider'
p3595
sg471
(lp3596
(idelphi
DelphiFieldEndAccess
p3597
(dp3598
g484
S'maxValue'
p3599
sbasbsg823
(lp3600
S' make it a percentage move '
p3601
asba(i__main__
DelphiAssignStatement
p3602
(dp3603
g457
(idelphi
DelphiIntegerValue
p3604
(dp3605
g14
S'0'
sbsg458
(i__main__
DelphiIdentAccess
p3606
(dp3607
g15
S'slider'
p3608
sg471
(lp3609
(idelphi
DelphiFieldEndAccess
p3610
(dp3611
g484
S'minValue'
p3612
sbasbsba(i__main__
DelphiAssignStatement
p3613
(dp3614
g457
(i__main__
DelphiIdentAccess
p3615
(dp3616
g15
S'param'
p3617
sg471
(lp3618
(idelphi
DelphiFieldEndAccess
p3619
(dp3620
g484
S'readOnly'
p3621
sbasbsg458
(i__main__
DelphiIdentAccess
p3622
(dp3623
g15
S'slider'
p3624
sg471
(lp3625
(idelphi
DelphiFieldEndAccess
p3626
(dp3627
g484
S'readOnly'
p3628
sbasbsba(i__main__
DelphiAssignStatement
p3629
(dp3630
g457
Nsg458
(i__main__
DelphiIdentAccess
p3631
(dp3632
g15
S'slider'
p3633
sg471
(lp3634
(idelphi
DelphiFieldEndAccess
p3635
(dp3636
g484
S'useDefaultSizeAndDraggerSize'
p3637
sbasbsba(i__main__
DelphiAssignStatement
p3638
(dp3639
g457
(i__main__
DelphiIdentAccess
p3640
(dp3641
g15
S'kNotArray'
p3642
sg471
(lp3643
sbsg458
(i__main__
DelphiIdentAccess
p3644
(dp3645
g15
S'arrayIndex'
p3646
sg471
(lp3647
sbsba(idelphi
DelphiIfStatement
p3648
(dp3649
g580
(i__main__
DelphiIdentAccess
p3650
(dp3651
g15
S'domain'
p3652
sg471
(lp3653
(idelphi
DelphiFieldEndAccess
p3654
(dp3655
g484
S'options'
p3656
sba(idelphi
DelphiFieldEndAccess
p3657
(dp3658
g484
S'useMetricUnits'
p3659
sbasbsg616
(i__main__
DelphiAssignStatement
p3660
(dp3661
g457
(i__main__
DelphiIdentAccess
p3662
(dp3663
g15
S'param'
p3664
sg471
(lp3665
(idelphi
DelphiFieldEndAccess
p3666
(dp3667
g484
S'unitEnglish'
p3668
sbasbsg458
(i__main__
DelphiIdentAccess
p3669
(dp3670
g15
S'currentUnitIndex'
p3671
sg471
(lp3672
sbsbsg644
(i__main__
DelphiAssignStatement
p3673
(dp3674
g457
(i__main__
DelphiIdentAccess
p3675
(dp3676
g15
S'param'
p3677
sg471
(lp3678
(idelphi
DelphiFieldEndAccess
p3679
(dp3680
g484
S'unitMetric'
p3681
sbasbsg458
(i__main__
DelphiIdentAccess
p3682
(dp3683
g15
S'currentUnitIndex'
p3684
sg471
(lp3685
sbsbsba(i__main__
DelphiAssignStatement
p3686
(dp3687
g457
(i__main__
DelphiIdentAccess
p3688
(dp3689
g15
S'param'
p3690
sg471
(lp3691
(idelphi
DelphiFieldEndAccess
p3692
(dp3693
g484
S'lowerBound'
p3694
sbasbsg458
(i__main__
DelphiIdentAccess
p3695
(dp3696
g15
S'minValue'
p3697
sg471
(lp3698
sbsba(i__main__
DelphiAssignStatement
p3699
(dp3700
g457
(i__main__
DelphiIdentAccess
p3701
(dp3702
g15
S'param'
p3703
sg471
(lp3704
(idelphi
DelphiFieldEndAccess
p3705
(dp3706
g484
S'upperBound'
p3707
sbasbsg458
(i__main__
DelphiIdentAccess
p3708
(dp3709
g15
S'maxValue'
p3710
sg471
(lp3711
sbsbasbsg502
(lp3712
sbsbsS'resizeelements'
p3713
(i__main__
DelphiMethodImplementation
p3714
(dp3715
g433
g295
sg65
g297
sg73
(lp3716
sg435
(lp3717
sg437
(lp3718
sg439
(lp3719
g441
asg442
(dp3720
sg75
S'PdRealParameterPanel'
p3721
sg76
Nsg445
(lp3722
sg77
I0
sg78
g79
sg447
(i__main__
DelphiBlock
p3723
(dp3724
g450
(idelphi
DelphiCompoundStatement
p3725
(dp3726
g453
(lp3727
(i__main__
DelphiAssignStatement
p3728
(dp3729
g457
Nsg458
(i__main__
DelphiIdentAccess
p3730
(dp3731
g15
S'self'
p3732
sg471
(lp3733
(idelphi
DelphiFieldEndAccess
p3734
(dp3735
g484
S'paint'
p3736
sbasbsba(i__main__
DelphiAssignStatement
p3737
(dp3738
g457
(idelphi
DelphiAddOp
p3739
(dp3740
g801
S'+'
sg802
(i__main__
DelphiIdentAccess
p3741
(dp3742
g15
S'kSliderSpaceGap'
p3743
sg471
(lp3744
sbsg810
(i__main__
DelphiIdentAccess
p3745
(dp3746
g15
S'minTextRect'
p3747
sg471
(lp3748
(idelphi
DelphiFieldEndAccess
p3749
(dp3750
g484
S'right'
p3751
sbasbsbsg458
(i__main__
DelphiIdentAccess
p3752
(dp3753
g15
S'slider'
p3754
sg471
(lp3755
(idelphi
DelphiFieldEndAccess
p3756
(dp3757
g484
S'left'
p3758
sbasbsba(i__main__
DelphiAssignStatement
p3759
(dp3760
g457
(idelphi
DelphiAddOp
p3761
(dp3762
g801
S'-'
sg802
(idelphi
DelphiMulOp
p3763
(dp3764
g583
(idelphi
DelphiIntegerValue
p3765
(dp3766
g14
S'2'
sbsg601
S'div'
p3767
sg603
(i__main__
DelphiIdentAccess
p3768
(dp3769
g15
S'slider'
p3770
sg471
(lp3771
(idelphi
DelphiFieldEndAccess
p3772
(dp3773
g484
S'height'
p3774
sbasbsbsg810
(idelphi
DelphiAddOp
p3775
(dp3776
g801
S'+'
sg802
(idelphi
DelphiMulOp
p3777
(dp3778
g583
(idelphi
DelphiIntegerValue
p3779
(dp3780
g14
S'2'
sbsg601
g3767
sg603
(i__main__
DelphiIdentAccess
p3781
(dp3782
g15
S'self'
p3783
sg471
(lp3784
(idelphi
DelphiFieldEndAccess
p3785
(dp3786
g484
S'textHeight'
p3787
sbasbsbsg810
(i__main__
DelphiIdentAccess
p3788
(dp3789
g15
S'self'
p3790
sg471
(lp3791
(idelphi
DelphiFieldEndAccess
p3792
(dp3793
g484
S'collapsedHeight'
p3794
sbasbsbsbsg458
(i__main__
DelphiIdentAccess
p3795
(dp3796
g15
S'slider'
p3797
sg471
(lp3798
(idelphi
DelphiFieldEndAccess
p3799
(dp3800
g484
S'top'
p3801
sbasbsba(i__main__
DelphiAssignStatement
p3802
(dp3803
g457
(i__main__
DelphiIdentAccess
p3804
(dp3805
g15
S'intMax'
p3806
sg471
(lp3807
(idelphi
DelphiFunctionEndAccess
p3808
(dp3809
g462
(lp3810
(idelphi
DelphiIntegerValue
p3811
(dp3812
g14
S'0'
sba(idelphi
DelphiAddOp
p3813
(dp3814
g801
S'-'
sg802
(idelphi
DelphiMulOp
p3815
(dp3816
g583
(idelphi
DelphiIntegerValue
p3817
(dp3818
g14
S'2'
sbsg601
S'*'
sg603
(i__main__
DelphiIdentAccess
p3819
(dp3820
g15
S'kSliderSpaceGap'
p3821
sg471
(lp3822
sbsbsg810
(idelphi
DelphiAddOp
p3823
(dp3824
g801
S'-'
sg802
(i__main__
DelphiIdentAccess
p3825
(dp3826
g15
S'minTextRect'
p3827
sg471
(lp3828
(idelphi
DelphiFieldEndAccess
p3829
(dp3830
g484
S'right'
p3831
sbasbsg810
(i__main__
DelphiIdentAccess
p3832
(dp3833
g15
S'maxTextRect'
p3834
sg471
(lp3835
(idelphi
DelphiFieldEndAccess
p3836
(dp3837
g484
S'left'
p3838
sbasbsbsbasbasbsg458
(i__main__
DelphiIdentAccess
p3839
(dp3840
g15
S'slider'
p3841
sg471
(lp3842
(idelphi
DelphiFieldEndAccess
p3843
(dp3844
g484
S'width'
p3845
sbasbsbasbsg502
(lp3846
sbsbsS'maxselecteditemindex'
p3847
(i__main__
DelphiMethodImplementation
p3848
(dp3849
g433
g300
sg65
g302
sg73
(lp3850
sg435
(lp3851
sg437
(lp3852
sg439
(lp3853
g441
asg442
(dp3854
sg75
S'PdRealParameterPanel'
p3855
sg76
(i__main__
DelphiPrimitiveType
p3856
(dp3857
g20
g128
sbsg445
(lp3858
sg77
I0
sg78
g97
sg447
(i__main__
DelphiBlock
p3859
(dp3860
g450
(idelphi
DelphiCompoundStatement
p3861
(dp3862
g453
(lp3863
(idelphi
DelphiIfStatement
p3864
(dp3865
g580
(idelphi
DelphiMulOp
p3866
(dp3867
g583
(idelphi
DelphiNestedExpressionListAccess
p3868
(dp3869
g471
(lp3870
sg462
(lp3871
(idelphi
DelphiRelOp
p3872
(dp3873
g467
(i__main__
DelphiIdentAccess
p3874
(dp3875
g15
S'plant'
p3876
sg471
(lp3877
sbsg473
(idelphi
DelphiNilValue
p3878
(dp3879
bsg476
g477
sbasbsg601
g602
sg603
(idelphi
DelphiNestedExpressionListAccess
p3880
(dp3881
g471
(lp3882
sg462
(lp3883
(idelphi
DelphiNot
p3884
(dp3885
g756
(i__main__
DelphiIdentAccess
p3886
(dp3887
g15
S'param'
p3888
sg471
(lp3889
(idelphi
DelphiFieldEndAccess
p3890
(dp3891
g484
S'collapsed'
p3892
sbasbsbasbsbsg616
(i__main__
DelphiAssignStatement
p3893
(dp3894
g457
(i__main__
DelphiIdentAccess
p3895
(dp3896
g15
S'kItemLabel'
p3897
sg471
(lp3898
sbsg458
(i__main__
DelphiIdentAccess
p3899
(dp3900
g15
S'result'
p3901
sg471
(lp3902
sbsbsg644
(i__main__
DelphiAssignStatement
p3903
(dp3904
g457
(i__main__
DelphiIdentAccess
p3905
(dp3906
g15
S'kItemUnitText'
p3907
sg471
(lp3908
sbsg458
(i__main__
DelphiIdentAccess
p3909
(dp3910
g15
S'result'
p3911
sg471
(lp3912
sbsbsbasbsg502
(lp3913
sbsbsS'sliderpositionfromvalue'
p3914
(i__main__
DelphiMethodImplementation
p3915
(dp3916
g433
g307
sg65
g309
sg73
(lp3917
(i__main__
DelphiFormalParameter
p3918
(dp3919
g87
Nsg88
(lp3920
S'value'
p3921
asg17
(i__main__
DelphiPrimitiveType
p3922
(dp3923
g20
g93
sbsg94
Nsbasg435
(lp3924
sg437
(lp3925
sg439
(lp3926
g441
ag3921
asg442
(dp3927
g3921
g3922
ssg75
S'PdRealParameterPanel'
p3928
sg76
(i__main__
DelphiPrimitiveType
p3929
(dp3930
g20
g128
sbsg445
(lp3931
sg77
I0
sg78
g97
sg447
(i__main__
DelphiBlock
p3932
(dp3933
g450
(idelphi
DelphiCompoundStatement
p3934
(dp3935
g453
(lp3936
(idelphi
DelphiIfStatement
p3937
(dp3938
g580
(idelphi
DelphiRelOp
p3939
(dp3940
g467
(idelphi
DelphiAddOp
p3941
(dp3942
g801
S'-'
sg802
(i__main__
DelphiIdentAccess
p3943
(dp3944
g15
S'minValue'
p3945
sg471
(lp3946
sbsg810
(i__main__
DelphiIdentAccess
p3947
(dp3948
g15
S'maxValue'
p3949
sg471
(lp3950
sbsbsg473
(idelphi
DelphiRealValue
p3951
(dp3952
g14
S'0.0'
p3953
sbsg476
S'='
sbsg616
(idelphi
DelphiIfStatement
p3954
(dp3955
g580
(idelphi
DelphiRelOp
p3956
(dp3957
g467
(i__main__
DelphiIdentAccess
p3958
(dp3959
g15
S'value'
p3960
sg471
(lp3961
sbsg473
(i__main__
DelphiIdentAccess
p3962
(dp3963
g15
S'minValue'
p3964
sg471
(lp3965
sbsg476
S'<='
p3966
sbsg616
(idelphi
DelphiIfStatement
p3967
(dp3968
g580
(idelphi
DelphiRelOp
p3969
(dp3970
g467
(i__main__
DelphiIdentAccess
p3971
(dp3972
g15
S'value'
p3973
sg471
(lp3974
sbsg473
(i__main__
DelphiIdentAccess
p3975
(dp3976
g15
S'maxValue'
p3977
sg471
(lp3978
sbsg476
S'>='
p3979
sbsg616
(i__main__
DelphiAssignStatement
p3980
(dp3981
g457
(i__main__
DelphiIdentAccess
p3982
(dp3983
g15
S'round'
p3984
sg471
(lp3985
(idelphi
DelphiFunctionEndAccess
p3986
(dp3987
g462
(lp3988
(idelphi
DelphiMulOp
p3989
(dp3990
g583
(idelphi
DelphiNestedExpressionListAccess
p3991
(dp3992
g471
(lp3993
sg462
(lp3994
(idelphi
DelphiAddOp
p3995
(dp3996
g801
S'-'
sg802
(i__main__
DelphiIdentAccess
p3997
(dp3998
g15
S'minValue'
p3999
sg471
(lp4000
sbsg810
(i__main__
DelphiIdentAccess
p4001
(dp4002
g15
S'maxValue'
p4003
sg471
(lp4004
sbsbasbsg601
S'/'
sg603
(idelphi
DelphiMulOp
p4005
(dp4006
g583
(idelphi
DelphiNestedExpressionListAccess
p4007
(dp4008
g471
(lp4009
sg462
(lp4010
(idelphi
DelphiAddOp
p4011
(dp4012
g801
S'-'
sg802
(i__main__
DelphiIdentAccess
p4013
(dp4014
g15
S'minValue'
p4015
sg471
(lp4016
sbsg810
(i__main__
DelphiIdentAccess
p4017
(dp4018
g15
S'value'
p4019
sg471
(lp4020
sbsbasbsg601
S'*'
sg603
(idelphi
DelphiRealValue
p4021
(dp4022
g14
S'100.0'
p4023
sbsbsbasbasbsg458
(i__main__
DelphiIdentAccess
p4024
(dp4025
g15
S'result'
p4026
sg471
(lp4027
sbsbsg644
(i__main__
DelphiAssignStatement
p4028
(dp4029
g457
(idelphi
DelphiIntegerValue
p4030
(dp4031
g14
S'100'
p4032
sbsg458
(i__main__
DelphiIdentAccess
p4033
(dp4034
g15
S'result'
p4035
sg471
(lp4036
sbsbsbsg644
(i__main__
DelphiAssignStatement
p4037
(dp4038
g457
(idelphi
DelphiIntegerValue
p4039
(dp4040
g14
S'0'
sbsg458
(i__main__
DelphiIdentAccess
p4041
(dp4042
g15
S'result'
p4043
sg471
(lp4044
sbsbsbsg644
(i__main__
DelphiAssignStatement
p4045
(dp4046
g457
(idelphi
DelphiIntegerValue
p4047
(dp4048
g14
S'0'
sbsg458
(i__main__
DelphiIdentAccess
p4049
(dp4050
g15
S'result'
p4051
sg471
(lp4052
sbsbsbasbsg502
(lp4053
sbsbsS'selectnextunitinset'
p4054
(i__main__
DelphiMethodImplementation
p4055
(dp4056
g433
g320
sg65
g322
sg73
(lp4057
(i__main__
DelphiFormalParameter
p4058
(dp4059
g87
Nsg88
(lp4060
S'shift'
p4061
aS'ctrl'
p4062
asg17
(i__main__
DelphiPrimitiveType
p4063
(dp4064
g20
g187
sbsg94
Nsbasg435
(lp4065
sg437
(lp4066
sg439
(lp4067
g441
ag4061
ag4062
asg442
(dp4068
g4061
g4063
sg4062
g4063
ssg75
S'PdRealParameterPanel'
p4069
sg76
Nsg445
(lp4070
sg77
I0
sg78
g79
sg447
(i__main__
DelphiBlock
p4071
(dp4072
g450
(idelphi
DelphiCompoundStatement
p4073
(dp4074
g453
(lp4075
(idelphi
DelphiIfStatement
p4076
(dp4077
g580
(i__main__
DelphiIdentAccess
p4078
(dp4079
g15
S'shift'
p4080
sg471
(lp4081
sbsg616
(i__main__
DelphiAssignStatement
p4082
(dp4083
g457
(i__main__
DelphiIdentAccess
p4084
(dp4085
g15
S'GetNextUnitEnumInUnitSet'
p4086
sg471
(lp4087
(idelphi
DelphiFunctionEndAccess
p4088
(dp4089
g462
(lp4090
(i__main__
DelphiIdentAccess
p4091
(dp4092
g15
S'param'
p4093
sg471
(lp4094
(idelphi
DelphiFieldEndAccess
p4095
(dp4096
g484
S'unitSet'
p4097
sbasba(i__main__
DelphiIdentAccess
p4098
(dp4099
g15
S'currentUnitIndex'
p4100
sg471
(lp4101
sbasbasbsg458
(i__main__
DelphiIdentAccess
p4102
(dp4103
g15
S'currentUnitIndex'
p4104
sg471
(lp4105
sbsbsg644
(i__main__
DelphiAssignStatement
p4106
(dp4107
g457
(i__main__
DelphiIdentAccess
p4108
(dp4109
g15
S'GetPreviousUnitEnumInUnitSet'
p4110
sg471
(lp4111
(idelphi
DelphiFunctionEndAccess
p4112
(dp4113
g462
(lp4114
(i__main__
DelphiIdentAccess
p4115
(dp4116
g15
S'param'
p4117
sg471
(lp4118
(idelphi
DelphiFieldEndAccess
p4119
(dp4120
g484
S'unitSet'
p4121
sbasba(i__main__
DelphiIdentAccess
p4122
(dp4123
g15
S'currentUnitIndex'
p4124
sg471
(lp4125
sbasbasbsg458
(i__main__
DelphiIdentAccess
p4126
(dp4127
g15
S'currentUnitIndex'
p4128
sg471
(lp4129
sbsbsba(i__main__
DelphiAssignStatement
p4130
(dp4131
g457
Nsg458
(i__main__
DelphiIdentAccess
p4132
(dp4133
g15
S'self'
p4134
sg471
(lp4135
(idelphi
DelphiFieldEndAccess
p4136
(dp4137
g484
S'updateCurrentValue'
p4138
sba(idelphi
DelphiFunctionEndAccess
p4139
(dp4140
g462
(lp4141
(idelphi
DelphiSign
p4142
(dp4143
g756
(idelphi
DelphiIntegerValue
p4144
(dp4145
g14
S'1'
sbsg910
S'-'
sbasbasbsba(i__main__
DelphiAssignStatement
p4146
(dp4147
g457
Nsg458
(i__main__
DelphiIdentAccess
p4148
(dp4149
g15
S'self'
p4150
sg471
(lp4151
(idelphi
DelphiFieldEndAccess
p4152
(dp4153
g484
S'updateDisplay'
p4154
sbasbsba(i__main__
DelphiAssignStatement
p4155
(dp4156
g457
Nsg458
(i__main__
DelphiIdentAccess
p4157
(dp4158
g15
S'self'
p4159
sg471
(lp4160
(idelphi
DelphiFieldEndAccess
p4161
(dp4162
g484
S'invalidate'
p4163
sbasbsbasbsg502
(lp4164
sbsbsS'updatecurrentvalue'
p4165
(i__main__
DelphiMethodImplementation
p4166
(dp4167
g433
g332
sg65
g334
sg73
(lp4168
(i__main__
DelphiFormalParameter
p4169
(dp4170
g87
Nsg88
(lp4171
S'aFieldIndex'
p4172
asg17
(i__main__
DelphiPrimitiveType
p4173
(dp4174
g20
g128
sbsg94
Nsbasg435
(lp4175
sg437
(lp4176
sg439
(lp4177
g441
ag4172
asg442
(dp4178
g4172
g4173
ssg75
S'PdRealParameterPanel'
p4179
sg76
Nsg445
(lp4180
sg77
I0
sg78
g79
sg447
(i__main__
DelphiBlock
p4181
(dp4182
g450
(idelphi
DelphiCompoundStatement
p4183
(dp4184
g453
(lp4185
(idelphi
DelphiIfStatement
p4186
(dp4187
g580
(idelphi
DelphiMulOp
p4188
(dp4189
g583
(idelphi
DelphiNestedExpressionListAccess
p4190
(dp4191
g471
(lp4192
sg462
(lp4193
(idelphi
DelphiRelOp
p4194
(dp4195
g467
(i__main__
DelphiIdentAccess
p4196
(dp4197
g15
S'param'
p4198
sg471
(lp4199
(idelphi
DelphiFieldEndAccess
p4200
(dp4201
g484
S'fieldType'
p4202
sbasbsg473
(i__main__
DelphiIdentAccess
p4203
(dp4204
g15
S'kFieldFloat'
p4205
sg471
(lp4206
sbsg476
S'='
sbasbsg601
g602
sg603
(idelphi
DelphiNestedExpressionListAccess
p4207
(dp4208
g471
(lp4209
sg462
(lp4210
(idelphi
DelphiRelOp
p4211
(dp4212
g467
(i__main__
DelphiIdentAccess
p4213
(dp4214
g15
S'plant'
p4215
sg471
(lp4216
sbsg473
(idelphi
DelphiNilValue
p4217
(dp4218
bsg476
g477
sbasbsbsg616
(i__main__
DelphiAssignStatement
p4219
(dp4220
g457
(idelphi
DelphiRealValue
p4221
(dp4222
g14
S'0.0'
p4223
sbsg458
(i__main__
DelphiIdentAccess
p4224
(dp4225
g15
S'currentValue'
p4226
sg471
(lp4227
sbsbsg644
(idelphi
DelphiCompoundStatement
p4228
(dp4229
g453
(lp4230
(i__main__
DelphiAssignStatement
p4231
(dp4232
g457
Nsg458
(i__main__
DelphiIdentAccess
p4233
(dp4234
g15
S'plant'
p4235
sg471
(lp4236
(idelphi
DelphiFieldEndAccess
p4237
(dp4238
g484
S'transferField'
p4239
sba(idelphi
DelphiFunctionEndAccess
p4240
(dp4241
g462
(lp4242
(i__main__
DelphiIdentAccess
p4243
(dp4244
g15
S'kGetField'
p4245
sg471
(lp4246
sba(i__main__
DelphiIdentAccess
p4247
(dp4248
g15
S'currentValue'
p4249
sg471
(lp4250
sba(i__main__
DelphiIdentAccess
p4251
(dp4252
g15
S'param'
p4253
sg471
(lp4254
(idelphi
DelphiFieldEndAccess
p4255
(dp4256
g484
S'fieldNumber'
p4257
sbasba(i__main__
DelphiIdentAccess
p4258
(dp4259
g15
S'kFieldFloat'
p4260
sg471
(lp4261
sba(i__main__
DelphiIdentAccess
p4262
(dp4263
g15
S'arrayIndex'
p4264
sg471
(lp4265
sba(i__main__
DelphiIdentAccess
p4266
(dp4267
g15
S'false'
p4268
sg471
(lp4269
sba(idelphi
DelphiNilValue
p4270
(dp4271
basbasbsba(idelphi
DelphiIfStatement
p4272
(dp4273
g580
(idelphi
DelphiRelOp
p4274
(dp4275
g467
(i__main__
DelphiIdentAccess
p4276
(dp4277
g15
S'currentValue'
p4278
sg471
(lp4279
sbsg473
(i__main__
DelphiIdentAccess
p4280
(dp4281
g15
S'minValue'
p4282
sg471
(lp4283
sbsg476
S'<'
sbsg616
Nsg644
(i__main__
DelphiAssignStatement
p4284
(dp4285
g457
(i__main__
DelphiIdentAccess
p4286
(dp4287
g15
S'minValue'
p4288
sg471
(lp4289
sbsg458
(i__main__
DelphiIdentAccess
p4290
(dp4291
g15
S'currentValue'
p4292
sg471
(lp4293
sbsbsba(idelphi
DelphiIfStatement
p4294
(dp4295
g580
(idelphi
DelphiRelOp
p4296
(dp4297
g467
(i__main__
DelphiIdentAccess
p4298
(dp4299
g15
S'currentValue'
p4300
sg471
(lp4301
sbsg473
(i__main__
DelphiIdentAccess
p4302
(dp4303
g15
S'maxValue'
p4304
sg471
(lp4305
sbsg476
S'>'
sbsg616
Nsg644
(i__main__
DelphiAssignStatement
p4306
(dp4307
g457
(i__main__
DelphiIdentAccess
p4308
(dp4309
g15
S'maxValue'
p4310
sg471
(lp4311
sbsg458
(i__main__
DelphiIdentAccess
p4312
(dp4313
g15
S'currentValue'
p4314
sg471
(lp4315
sbsbsbasbsbasbsg502
(lp4316
sbsbsS'uncollapsedheight'
p4317
(i__main__
DelphiMethodImplementation
p4318
(dp4319
g433
g343
sg65
g345
sg73
(lp4320
sg435
(lp4321
sg437
(lp4322
sg439
(lp4323
g441
asg442
(dp4324
sg75
S'PdRealParameterPanel'
p4325
sg76
(i__main__
DelphiPrimitiveType
p4326
(dp4327
g20
g128
sbsg445
(lp4328
sg77
I0
sg78
g97
sg447
(i__main__
DelphiBlock
p4329
(dp4330
g450
(idelphi
DelphiCompoundStatement
p4331
(dp4332
g453
(lp4333
(i__main__
DelphiAssignStatement
p4334
(dp4335
g457
(idelphi
DelphiAddOp
p4336
(dp4337
g801
S'+'
sg802
(i__main__
DelphiIdentAccess
p4338
(dp4339
g15
S'kTopBottomGap'
p4340
sg471
(lp4341
sbsg810
(idelphi
DelphiAddOp
p4342
(dp4343
g801
S'+'
sg802
(i__main__
DelphiIdentAccess
p4344
(dp4345
g15
S'self'
p4346
sg471
(lp4347
(idelphi
DelphiFieldEndAccess
p4348
(dp4349
g484
S'textHeight'
p4350
sbasbsg810
(i__main__
DelphiIdentAccess
p4351
(dp4352
g15
S'self'
p4353
sg471
(lp4354
(idelphi
DelphiFieldEndAccess
p4355
(dp4356
g484
S'collapsedHeight'
p4357
sbasbsbsbsg458
(i__main__
DelphiIdentAccess
p4358
(dp4359
g15
S'result'
p4360
sg471
(lp4361
sbsbasbsg502
(lp4362
sbsbsS'updateplantvalues'
p4363
(i__main__
DelphiMethodImplementation
p4364
(dp4365
g433
g350
sg65
g352
sg73
(lp4366
sg435
(lp4367
sg437
(lp4368
sg439
(lp4369
g441
asg442
(dp4370
sg75
S'PdRealParameterPanel'
p4371
sg76
Nsg445
(lp4372
sg77
I0
sg78
g79
sg447
(i__main__
DelphiBlock
p4373
(dp4374
g450
(idelphi
DelphiCompoundStatement
p4375
(dp4376
g453
(lp4377
(idelphi
DelphiIfStatement
p4378
(dp4379
g580
(idelphi
DelphiRelOp
p4380
(dp4381
g467
(i__main__
DelphiIdentAccess
p4382
(dp4383
g15
S'plant'
p4384
sg471
(lp4385
sbsg473
(idelphi
DelphiNilValue
p4386
(dp4387
bsg476
S'='
sbsg616
Nsg644
(i__main__
DelphiExitStatement
p4388
(dp4389
g703
g4364
sbsba(idelphi
DelphiIfStatement
p4390
(dp4391
g580
(i__main__
DelphiIdentAccess
p4392
(dp4393
g15
S'param'
p4394
sg471
(lp4395
(idelphi
DelphiFieldEndAccess
p4396
(dp4397
g484
S'collapsed'
p4398
sbasbsg616
Nsg644
(i__main__
DelphiExitStatement
p4399
(dp4400
g703
g4364
sbsba(i__main__
DelphiAssignStatement
p4401
(dp4402
g457
(i__main__
DelphiIdentAccess
p4403
(dp4404
g15
S'currentValue'
p4405
sg471
(lp4406
sbsg458
(i__main__
DelphiIdentAccess
p4407
(dp4408
g15
S'oldValue'
p4409
sg471
(lp4410
sbsba(i__main__
DelphiAssignStatement
p4411
(dp4412
g457
Nsg458
(i__main__
DelphiIdentAccess
p4413
(dp4414
g15
S'self'
p4415
sg471
(lp4416
(idelphi
DelphiFieldEndAccess
p4417
(dp4418
g484
S'updateCurrentValue'
p4419
sba(idelphi
DelphiFunctionEndAccess
p4420
(dp4421
g462
(lp4422
(idelphi
DelphiSign
p4423
(dp4424
g756
(idelphi
DelphiIntegerValue
p4425
(dp4426
g14
S'1'
sbsg910
S'-'
sbasbasbsba(idelphi
DelphiIfStatement
p4427
(dp4428
g580
(idelphi
DelphiRelOp
p4429
(dp4430
g467
(i__main__
DelphiIdentAccess
p4431
(dp4432
g15
S'oldValue'
p4433
sg471
(lp4434
sbsg473
(i__main__
DelphiIdentAccess
p4435
(dp4436
g15
S'currentValue'
p4437
sg471
(lp4438
sbsg476
g477
sbsg616
Nsg644
(idelphi
DelphiCompoundStatement
p4439
(dp4440
g453
(lp4441
(i__main__
DelphiAssignStatement
p4442
(dp4443
g457
Nsg458
(i__main__
DelphiIdentAccess
p4444
(dp4445
g15
S'updateDisplay'
p4446
sg471
(lp4447
sbsba(i__main__
DelphiAssignStatement
p4448
(dp4449
g457
Nsg458
(i__main__
DelphiIdentAccess
p4450
(dp4451
g15
S'invalidate'
p4452
sg471
(lp4453
sbsbasbsbasbsg502
(lp4454
(i__main__
DelphiVarSection
p4455
(dp4456
g36
I0
sg1008
(lp4457
(idelphi
DelphiVarDecl
p4458
(dp4459
g11
Nsg1012
(lp4460
S'oldValue'
p4461
asg17
(i__main__
DelphiPrimitiveType
p4462
(dp4463
g20
g93
sbsbasbasbsbssS'propertyDeclarations'
p4464
(dp4465
sS'variableNamesInDeclaredOrder'
p4466
(lp4467
g46
ag44
ag54
ag52
ag56
ag64
ag60
ag48
ag58
ag62
ag42
ag50
asbasS'includedUnits'
p4468
NsS'implementationUses'
p4469
(lp4470
S'SysUtils'
p4471
aS'Dialogs'
p4472
aS'Forms'
p4473
aS'umain'
p4474
aS'updcom'
p4475
aS'umath'
p4476
aS'uunits'
p4477
aS'usupport'
p4478
aS'udomain'
p4479
aS'udebug'
p4480
asg65
S'upp_rea'
p4481
sS'constSections'
p4482
(lp4483
g5
asS'globalsInProperCase'
p4484
NsS'interfaceUses'
p4485
(lp4486
S'delphi_compatability'
p4487
aS'ExtCtrls'
p4488
aS'Classes'
p4489
aS'StdCtrls'
p4490
aS'Controls'
p4491
aS'WinTypes'
p4492
aS'Graphics'
p4493
aS'WinProcs'
p4494
aS'Messages'
p4495
aS'uplant'
p4496
aS'uparams'
p4497
aS'uppanel'
p4498
aS'usliders'
p4499
asS'finalCommentToken'
p4500
(i__main__
PassStatement
p4501
(dp4502
g502
(lp4503
sbsS'varSections'
p4504
(lp4505
sS'globals'
p4506
NsS'originalFileName'
p4507
S'../../PlantStudioInPython/converted_source/upp_rea.pas'
p4508
sS'proceduralImplementations'
p4509
(dp4510
sS'fileName'
p4511
S'/Users/pdf/Documents/workspace/PlantStudioInPython/converted_source/upp_rea.pas'
p4512
sS'proceduralDeclarations'
p4513
(dp4514
sS'types'
p4515
(dp4516
S'pdrealparameterpanel'
p4517
g37
ssb.