(i__main__
DelphiUnit
p1
(dp2
S'sectionsInOrderDefined'
p3
(lp4
(i__main__
DelphiConstSection
p5
(dp6
S'constDeclList'
p7
(lp8
(idelphi
DelphiConstDeclaration
p9
(dp10
S'constExpression'
p11
(idelphi
DelphiIntegerValue
p12
(dp13
S'string'
p14
S'1'
sbsS'ident'
p15
S'kItemFileName'
p16
sS'theType'
p17
(idelphi
DelphiPrimitiveType
p18
(dp19
S'typeName'
p20
S'UNDEFINED_NEEDS_CALCULATION'
p21
sbsba(idelphi
DelphiConstDeclaration
p22
(dp23
g11
(idelphi
DelphiIntegerValue
p24
(dp25
g14
S'2'
sbsg15
S'kItemTdo'
p26
sg17
(idelphi
DelphiPrimitiveType
p27
(dp28
g20
g21
sbsba(idelphi
DelphiConstDeclaration
p29
(dp30
g11
(idelphi
DelphiIntegerValue
p31
(dp32
g14
S'3'
sbsg15
S'kItemTurnLeft'
p33
sg17
(idelphi
DelphiPrimitiveType
p34
(dp35
g20
g21
sbsba(idelphi
DelphiConstDeclaration
p36
(dp37
g11
(idelphi
DelphiIntegerValue
p38
(dp39
g14
S'4'
sbsg15
S'kItemTurnRight'
p40
sg17
(idelphi
DelphiPrimitiveType
p41
(dp42
g20
g21
sbsba(idelphi
DelphiConstDeclaration
p43
(dp44
g11
(idelphi
DelphiIntegerValue
p45
(dp46
g14
S'5'
sbsg15
S'kItemEnlarge'
p47
sg17
(idelphi
DelphiPrimitiveType
p48
(dp49
g20
g21
sbsba(idelphi
DelphiConstDeclaration
p50
(dp51
g11
(idelphi
DelphiIntegerValue
p52
(dp53
g14
S'6'
sbsg15
S'kItemReduce'
p54
sg17
(idelphi
DelphiPrimitiveType
p55
(dp56
g20
g21
sbsba(idelphi
DelphiConstDeclaration
p57
(dp58
g11
(idelphi
DelphiIntegerValue
p59
(dp60
g14
S'64'
p61
sbsg15
S'kTdoSize'
p62
sg17
(idelphi
DelphiPrimitiveType
p63
(dp64
g20
g21
sbsbasS'atTopLevel'
p65
I1
sba(i__main__
DelphiClass
p66
(dp67
S'variableNamesInProperCase'
p68
(dp69
S'turnleftrect'
p70
S'turnLeftRect'
p71
sS'filenamerect'
p72
S'fileNameRect'
p73
sS'turnrightrect'
p74
S'turnRightRect'
p75
sS'scale'
p76
S'scale'
p77
sS'tdo'
p78
S'tdo'
p79
sS'rotateangle'
p80
S'rotateAngle'
p81
sS'tdorect'
p82
S'tdoRect'
p83
sS'movingtdo'
p84
S'movingTdo'
p85
sS'movestart'
p86
S'moveStart'
p87
sS'position'
p88
S'position'
p89
sS'editenabled'
p90
S'editEnabled'
p91
sS'movestartposition'
p92
S'moveStartPosition'
p93
sS'reducerect'
p94
S'reduceRect'
p95
sS'enlargerect'
p96
S'enlargeRect'
p97
ssS'name'
p98
S'PdTdoParameterPanel'
p99
sS'methodDeclarations'
p100
(dp101
S'maxselecteditemindex'
p102
(i__main__
DelphiMethodDeclaration
p103
(dp104
g98
S'maxSelectedItemIndex'
p105
sS'formalParameters'
p106
(lp107
sS'className'
p108
g99
sS'resultType'
p109
(i__main__
DelphiPrimitiveType
p110
(dp111
g20
S'integer'
p112
sbsS'isClassMethod'
p113
I0
sS'methodType'
p114
S'function'
p115
sbsS'updateenabling'
p116
(i__main__
DelphiMethodDeclaration
p117
(dp118
g98
S'updateEnabling'
p119
sg106
(lp120
sg108
g99
sg109
Nsg113
I0
sg114
S'procedure'
p121
sbsS'maxwidth'
p122
(i__main__
DelphiMethodDeclaration
p123
(dp124
g98
S'maxWidth'
p125
sg106
(lp126
sg108
g99
sg109
(i__main__
DelphiPrimitiveType
p127
(dp128
g20
g112
sbsg113
I0
sg114
g115
sbsS'updatecurrentvalue'
p129
(i__main__
DelphiMethodDeclaration
p130
(dp131
g98
S'updateCurrentValue'
p132
sg106
(lp133
(i__main__
DelphiFormalParameter
p134
(dp135
S'initialValue'
p136
NsS'names'
p137
(lp138
S'aFieldIndex'
p139
asg17
(i__main__
DelphiPrimitiveType
p140
(dp141
g20
g112
sbsS'parameterVariety'
p142
Nsbasg108
g99
sg109
Nsg113
I0
sg114
g121
sbsS'picktdo'
p143
(i__main__
DelphiMethodDeclaration
p144
(dp145
g98
S'pickTdo'
p146
sg106
(lp147
sg108
g99
sg109
Nsg113
I0
sg114
g121
sbsS'create'
p148
(i__main__
DelphiMethodDeclaration
p149
(dp150
g98
S'create'
p151
sg106
(lp152
(i__main__
DelphiFormalParameter
p153
(dp154
g136
Nsg137
(lp155
S'anOwner'
p156
asg17
(i__main__
DelphiNamedType
p157
(dp158
g20
S'TComponent'
p159
sS'unitDefinedIn'
p160
g1
sS'unitName'
p161
Nsbsg142
Nsbasg108
g99
sg109
Nsg113
I0
sg114
S'constructor'
p162
sbsS'uncollapsedheight'
p163
(i__main__
DelphiMethodDeclaration
p164
(dp165
g98
S'uncollapsedHeight'
p166
sg106
(lp167
sg108
g99
sg109
(i__main__
DelphiPrimitiveType
p168
(dp169
g20
g112
sbsg113
I0
sg114
g115
sbsS'dokeydown'
p170
(i__main__
DelphiMethodDeclaration
p171
(dp172
g98
S'doKeyDown'
p173
sg106
(lp174
(i__main__
DelphiFormalParameter
p175
(dp176
g136
Nsg137
(lp177
S'sender'
p178
asg17
(i__main__
DelphiNamedType
p179
(dp180
g20
S'TObject'
p181
sg160
g1
sg161
Nsbsg142
Nsba(i__main__
DelphiFormalParameter
p182
(dp183
g136
Nsg137
(lp184
S'key'
p185
asg17
(i__main__
DelphiPrimitiveType
p186
(dp187
g20
S'word'
p188
sbsg142
S'var'
p189
sba(i__main__
DelphiFormalParameter
p190
(dp191
g136
Nsg137
(lp192
S'shift'
p193
asg17
(i__main__
DelphiNamedType
p194
(dp195
g20
S'TShiftState'
p196
sg160
g1
sg161
Nsbsg142
Nsbasg108
g99
sg109
Nsg113
I0
sg114
g121
sbsS'updatedisplay'
p197
(i__main__
DelphiMethodDeclaration
p198
(dp199
g98
S'updateDisplay'
p200
sg106
(lp201
sg108
g99
sg109
Nsg113
I0
sg114
g121
sbsS'resizeelements'
p202
(i__main__
DelphiMethodDeclaration
p203
(dp204
g98
S'resizeElements'
p205
sg106
(lp206
sg108
g99
sg109
Nsg113
I0
sg114
g121
sbsS'minwidth'
p207
(i__main__
DelphiMethodDeclaration
p208
(dp209
g98
S'minWidth'
p210
sg106
(lp211
(i__main__
DelphiFormalParameter
p212
(dp213
g136
Nsg137
(lp214
S'requestedWidth'
p215
asg17
(i__main__
DelphiPrimitiveType
p216
(dp217
g20
g112
sbsg142
Nsbasg108
g99
sg109
(i__main__
DelphiPrimitiveType
p218
(dp219
g20
g112
sbsg113
I0
sg114
g115
sbsS'paint'
p220
(i__main__
DelphiMethodDeclaration
p221
(dp222
g98
S'paint'
p223
sg106
(lp224
sg108
g99
sg109
Nsg113
I0
sg114
g121
sbsS'domousemove'
p225
(i__main__
DelphiMethodDeclaration
p226
(dp227
g98
S'doMouseMove'
p228
sg106
(lp229
(i__main__
DelphiFormalParameter
p230
(dp231
g136
Nsg137
(lp232
S'Sender'
p233
asg17
(i__main__
DelphiNamedType
p234
(dp235
g20
S'TObject'
p236
sg160
g1
sg161
Nsbsg142
Nsba(i__main__
DelphiFormalParameter
p237
(dp238
g136
Nsg137
(lp239
S'Shift'
p240
asg17
(i__main__
DelphiNamedType
p241
(dp242
g20
S'TShiftState'
p243
sg160
g1
sg161
Nsbsg142
Nsba(i__main__
DelphiFormalParameter
p244
(dp245
g136
Nsg137
(lp246
S'X'
aS'Y'
asg17
(i__main__
DelphiPrimitiveType
p247
(dp248
g20
g112
sbsg142
Nsbasg108
g99
sg109
Nsg113
I0
sg114
g121
sbsS'drawtdo'
p249
(i__main__
DelphiMethodDeclaration
p250
(dp251
g98
S'drawTdo'
p252
sg106
(lp253
sg108
g99
sg109
Nsg113
I0
sg114
g121
sbsS'domouseup'
p254
(i__main__
DelphiMethodDeclaration
p255
(dp256
g98
S'doMouseUp'
p257
sg106
(lp258
(i__main__
DelphiFormalParameter
p259
(dp260
g136
Nsg137
(lp261
S'Sender'
p262
asg17
(i__main__
DelphiNamedType
p263
(dp264
g20
S'TObject'
p265
sg160
g1
sg161
Nsbsg142
Nsba(i__main__
DelphiFormalParameter
p266
(dp267
g136
Nsg137
(lp268
S'Button'
p269
asg17
(i__main__
DelphiNamedType
p270
(dp271
g20
S'TMouseButton'
p272
sg160
g1
sg161
Nsbsg142
Nsba(i__main__
DelphiFormalParameter
p273
(dp274
g136
Nsg137
(lp275
S'Shift'
p276
asg17
(i__main__
DelphiNamedType
p277
(dp278
g20
S'TShiftState'
p279
sg160
g1
sg161
Nsbsg142
Nsba(i__main__
DelphiFormalParameter
p280
(dp281
g136
Nsg137
(lp282
S'X'
aS'Y'
asg17
(i__main__
DelphiPrimitiveType
p283
(dp284
g20
g112
sbsg142
Nsbasg108
g99
sg109
Nsg113
I0
sg114
g121
sbsS'initialize'
p285
(i__main__
DelphiMethodDeclaration
p286
(dp287
g98
S'initialize'
p288
sg106
(lp289
sg108
g99
sg109
Nsg113
I0
sg114
g121
sbsS'destroy'
p290
(i__main__
DelphiMethodDeclaration
p291
(dp292
g98
S'destroy'
p293
sg106
(lp294
sg108
g99
sg109
Nsg113
I0
sg114
S'destructor'
p295
sbsS'domousedown'
p296
(i__main__
DelphiMethodDeclaration
p297
(dp298
g98
S'doMouseDown'
p299
sg106
(lp300
(i__main__
DelphiFormalParameter
p301
(dp302
g136
Nsg137
(lp303
S'Sender'
p304
asg17
(i__main__
DelphiNamedType
p305
(dp306
g20
S'TObject'
p307
sg160
g1
sg161
Nsbsg142
Nsba(i__main__
DelphiFormalParameter
p308
(dp309
g136
Nsg137
(lp310
S'Button'
p311
asg17
(i__main__
DelphiNamedType
p312
(dp313
g20
S'TMouseButton'
p314
sg160
g1
sg161
Nsbsg142
Nsba(i__main__
DelphiFormalParameter
p315
(dp316
g136
Nsg137
(lp317
S'Shift'
p318
asg17
(i__main__
DelphiNamedType
p319
(dp320
g20
S'TShiftState'
p321
sg160
g1
sg161
Nsbsg142
Nsba(i__main__
DelphiFormalParameter
p322
(dp323
g136
Nsg137
(lp324
S'X'
aS'Y'
asg17
(i__main__
DelphiPrimitiveType
p325
(dp326
g20
g112
sbsg142
Nsbasg108
g99
sg109
Nsg113
I0
sg114
g121
sbsS'recentertdo'
p327
(i__main__
DelphiMethodDeclaration
p328
(dp329
g98
S'recenterTdo'
p330
sg106
(lp331
sg108
g99
sg109
Nsg113
I0
sg114
g121
sbsS'updateplantvalues'
p332
(i__main__
DelphiMethodDeclaration
p333
(dp334
g98
S'updatePlantValues'
p335
sg106
(lp336
sg108
g99
sg109
Nsg113
I0
sg114
g121
sbssS'superclassNamedTypes'
p337
(lp338
(i__main__
DelphiNamedType
p339
(dp340
g20
S'PdParameterPanel'
p341
sg160
g1
sg161
NsbasS'variableNames'
p342
(dp343
S'turnleftrect'
p344
(i__main__
DelphiNamedType
p345
(dp346
g20
S'TRect'
p347
sg160
g1
sg161
NsbsS'filenamerect'
p348
g345
sS'turnrightrect'
p349
g345
sS'scale'
p350
(i__main__
DelphiPrimitiveType
p351
(dp352
g20
S'single'
p353
sbsS'tdo'
p354
(i__main__
DelphiNamedType
p355
(dp356
g20
S'KfObject3D'
p357
sg160
g1
sg161
NsbsS'rotateangle'
p358
(i__main__
DelphiPrimitiveType
p359
(dp360
g20
g112
sbsS'tdorect'
p361
g345
sS'movingtdo'
p362
(i__main__
DelphiPrimitiveType
p363
(dp364
g20
S'boolean'
p365
sbsS'movestart'
p366
(i__main__
DelphiNamedType
p367
(dp368
g20
S'TPoint'
p369
sg160
g1
sg161
NsbsS'position'
p370
(i__main__
DelphiNamedType
p371
(dp372
g20
S'TPoint'
p373
sg160
g1
sg161
NsbsS'editenabled'
p374
(i__main__
DelphiPrimitiveType
p375
(dp376
g20
g365
sbsS'movestartposition'
p377
g367
sS'reducerect'
p378
g345
sS'enlargerect'
p379
g345
ssS'methodNamesInDefinedOrder'
p380
(lp381
S'create'
p382
aS'destroy'
p383
aS'initialize'
p384
aS'updateenabling'
p385
aS'updateplantvalues'
p386
aS'updatecurrentvalue'
p387
aS'updatedisplay'
p388
aS'domousedown'
p389
aS'domousemove'
p390
aS'domouseup'
p391
aS'dokeydown'
p392
aS'picktdo'
p393
aS'maxwidth'
p394
aS'minwidth'
p395
aS'uncollapsedheight'
p396
aS'maxselecteditemindex'
p397
aS'resizeelements'
p398
aS'paint'
p399
aS'recentertdo'
p400
aS'drawtdo'
p401
asS'methodImplementations'
p402
(dp403
S'maxselecteditemindex'
p404
(i__main__
DelphiMethodImplementation
p405
(dp406
S'originalDeclaration'
p407
g103
sg98
g105
sg106
(lp408
sS'varParamIndexes'
p409
(lp410
sS'varParamsSkipped'
p411
(lp412
sS'argNames'
p413
(lp414
S'self'
p415
asS'argTypes'
p416
(dp417
sg108
S'PdTdoParameterPanel'
p418
sg109
(i__main__
DelphiPrimitiveType
p419
(dp420
g20
g112
sbsS'varParamNames'
p421
(lp422
sg113
I0
sg114
g115
sS'block'
p423
(i__main__
DelphiBlock
p424
(dp425
S'compoundStatement'
p426
(idelphi
DelphiCompoundStatement
p427
(dp428
S'statements'
p429
(lp430
(idelphi
DelphiIfStatement
p431
(dp432
S'expression'
p433
(idelphi
DelphiMulOp
p434
(dp435
S'signedFactor2'
p436
(idelphi
DelphiNestedExpressionListAccess
p437
(dp438
S'endAccessList'
p439
(lp440
sS'expressionList'
p441
(lp442
(i__main__
DelphiIdentAccess
p443
(dp444
g15
S'self'
p445
sg439
(lp446
(idelphi
DelphiFieldEndAccess
p447
(dp448
S'field'
p449
S'editEnabled'
p450
sbasbasbsS'mulOp'
p451
S'and'
p452
sS'signedFactor1'
p453
(idelphi
DelphiNestedExpressionListAccess
p454
(dp455
g439
(lp456
sg441
(lp457
(idelphi
DelphiNot
p458
(dp459
S'factor'
p460
(i__main__
DelphiIdentAccess
p461
(dp462
g15
S'param'
p463
sg439
(lp464
(idelphi
DelphiFieldEndAccess
p465
(dp466
g449
S'collapsed'
p467
sbasbsbasbsbsS'ifFalseStatement'
p468
(i__main__
DelphiAssignStatement
p469
(dp470
S'newValueExpression'
p471
(i__main__
DelphiIdentAccess
p472
(dp473
g15
S'kItemLabel'
p474
sg439
(lp475
sbsS'destinationExpression'
p476
(i__main__
DelphiIdentAccess
p477
(dp478
g15
S'result'
p479
sg439
(lp480
sbsbsS'ifTrueStatement'
p481
(i__main__
DelphiAssignStatement
p482
(dp483
g471
(i__main__
DelphiIdentAccess
p484
(dp485
g15
S'kItemReduce'
p486
sg439
(lp487
sbsg476
(i__main__
DelphiIdentAccess
p488
(dp489
g15
S'result'
p490
sg439
(lp491
sbsbsbasbsS'limitedDeclSectionList'
p492
(lp493
sbsbsS'updateenabling'
p494
(i__main__
DelphiMethodImplementation
p495
(dp496
g407
g117
sg98
g119
sg106
(lp497
sg409
(lp498
sg411
(lp499
sg413
(lp500
g415
asg416
(dp501
sg108
S'PdTdoParameterPanel'
p502
sg109
Nsg421
(lp503
sg113
I0
sg114
g121
sg423
(i__main__
DelphiBlock
p504
(dp505
g426
(idelphi
DelphiCompoundStatement
p506
(dp507
g429
(lp508
(i__main__
DelphiAssignStatement
p509
(dp510
g471
Nsg476
(idelphi
DelphiInheritedCall
p511
(dp512
g15
S'updateEnabling'
p513
sg441
Nsbsba(idelphi
DelphiIfStatement
p514
(dp515
g433
(idelphi
DelphiAddOp
p516
(dp517
S'addOp'
p518
S'or'
p519
sS'term2'
p520
(idelphi
DelphiNestedExpressionListAccess
p521
(dp522
g439
(lp523
sg441
(lp524
(i__main__
DelphiIdentAccess
p525
(dp526
g15
S'self'
p527
sg439
(lp528
(idelphi
DelphiFieldEndAccess
p529
(dp530
g449
S'readOnly'
p531
sbasbasbsS'term1'
p532
(idelphi
DelphiNestedExpressionListAccess
p533
(dp534
g439
(lp535
sg441
(lp536
(idelphi
DelphiRelOp
p537
(dp538
S'simpleExpression1'
p539
(i__main__
DelphiIdentAccess
p540
(dp541
g15
S'plant'
p542
sg439
(lp543
sbsS'simpleExpression2'
p544
(idelphi
DelphiNilValue
p545
(dp546
bsS'relOp'
p547
S'='
sbasbsbsg468
(i__main__
DelphiAssignStatement
p548
(dp549
g471
(i__main__
DelphiIdentAccess
p550
(dp551
g15
S'true'
p552
sg439
(lp553
sbsg476
(i__main__
DelphiIdentAccess
p554
(dp555
g15
S'editEnabled'
p556
sg439
(lp557
sbsbsg481
(i__main__
DelphiAssignStatement
p558
(dp559
g471
(i__main__
DelphiIdentAccess
p560
(dp561
g15
S'false'
p562
sg439
(lp563
sbsg476
(i__main__
DelphiIdentAccess
p564
(dp565
g15
S'editEnabled'
p566
sg439
(lp567
sbsbsbasbsg492
(lp568
sbsbsS'maxwidth'
p569
(i__main__
DelphiMethodImplementation
p570
(dp571
g407
g123
sg98
g125
sg106
(lp572
sg409
(lp573
sg411
(lp574
sg413
(lp575
g415
asg416
(dp576
sg108
S'PdTdoParameterPanel'
p577
sg109
(i__main__
DelphiPrimitiveType
p578
(dp579
g20
g112
sbsg421
(lp580
sg113
I0
sg114
g115
sg423
(i__main__
DelphiBlock
p581
(dp582
g426
(idelphi
DelphiCompoundStatement
p583
(dp584
g429
(lp585
(i__main__
DelphiAssignStatement
p586
(dp587
g471
(i__main__
DelphiIdentAccess
p588
(dp589
g15
S'intMax'
p590
sg439
(lp591
(idelphi
DelphiFunctionEndAccess
p592
(dp593
g441
(lp594
(idelphi
DelphiAddOp
p595
(dp596
g518
S'+'
sg520
(i__main__
DelphiIdentAccess
p597
(dp598
g15
S'self'
p599
sg439
(lp600
(idelphi
DelphiFieldEndAccess
p601
(dp602
g449
S'labelWidth'
p603
sbasbsg532
(idelphi
DelphiMulOp
p604
(dp605
g436
(idelphi
DelphiIntegerValue
p606
(dp607
g14
S'2'
sbsg451
S'*'
sg453
(i__main__
DelphiIdentAccess
p608
(dp609
g15
S'kLeftRightGap'
p610
sg439
(lp611
sbsbsba(idelphi
DelphiAddOp
p612
(dp613
g518
S'+'
sg520
(i__main__
DelphiIdentAccess
p614
(dp615
g15
S'kLeftRightGap'
p616
sg439
(lp617
sbsg532
(idelphi
DelphiAddOp
p618
(dp619
g518
S'+'
sg520
(i__main__
DelphiIdentAccess
p620
(dp621
g15
S'kTdoSize'
p622
sg439
(lp623
sbsg532
(idelphi
DelphiAddOp
p624
(dp625
g518
S'+'
sg520
(i__main__
DelphiIdentAccess
p626
(dp627
g15
S'kLeftRightGap'
p628
sg439
(lp629
sbsg532
(idelphi
DelphiAddOp
p630
(dp631
g518
S'+'
sg520
(i__main__
DelphiIdentAccess
p632
(dp633
g15
S'self'
p634
sg439
(lp635
(idelphi
DelphiFieldEndAccess
p636
(dp637
g449
S'formTextWidth'
p638
sba(idelphi
DelphiFunctionEndAccess
p639
(dp640
g441
(lp641
(idelphi
DelphiStringAccess
p642
(dp643
g439
(lp644
sg14
(idelphi
DelphiStringValue
p645
(dp646
g14
S'wwwwwwww.www'
p647
sbsbasbasbsg532
(i__main__
DelphiIdentAccess
p648
(dp649
g15
S'kLeftRightGap'
p650
sg439
(lp651
sbsbsbsbsbasbasbsg476
(i__main__
DelphiIdentAccess
p652
(dp653
g15
S'result'
p654
sg439
(lp655
sbsbasbsg492
(lp656
sbsbsS'updatecurrentvalue'
p657
(i__main__
DelphiMethodImplementation
p658
(dp659
g407
g130
sg98
g132
sg106
(lp660
(i__main__
DelphiFormalParameter
p661
(dp662
g136
Nsg137
(lp663
S'aFieldIndex'
p664
asg17
(i__main__
DelphiPrimitiveType
p665
(dp666
g20
g112
sbsg142
Nsbasg409
(lp667
sg411
(lp668
sg413
(lp669
g415
ag664
asg416
(dp670
g664
g665
ssg108
S'PdTdoParameterPanel'
p671
sg109
Nsg421
(lp672
sg113
I0
sg114
g121
sg423
(i__main__
DelphiBlock
p673
(dp674
g426
(idelphi
DelphiCompoundStatement
p675
(dp676
g429
(lp677
(idelphi
DelphiIfStatement
p678
(dp679
g433
(idelphi
DelphiMulOp
p680
(dp681
g436
(idelphi
DelphiNestedExpressionListAccess
p682
(dp683
g439
(lp684
sg441
(lp685
(idelphi
DelphiRelOp
p686
(dp687
g539
(i__main__
DelphiIdentAccess
p688
(dp689
g15
S'param'
p690
sg439
(lp691
(idelphi
DelphiFieldEndAccess
p692
(dp693
g449
S'fieldType'
p694
sbasbsg544
(i__main__
DelphiIdentAccess
p695
(dp696
g15
S'kFieldThreeDObject'
p697
sg439
(lp698
sbsg547
S'='
sbasbsg451
g452
sg453
(idelphi
DelphiNestedExpressionListAccess
p699
(dp700
g439
(lp701
sg441
(lp702
(idelphi
DelphiRelOp
p703
(dp704
g539
(i__main__
DelphiIdentAccess
p705
(dp706
g15
S'plant'
p707
sg439
(lp708
sbsg544
(idelphi
DelphiNilValue
p709
(dp710
bsg547
S'<>'
p711
sbasbsbsg468
(i__main__
DelphiAssignStatement
p712
(dp713
g471
(i__main__
DelphiIdentAccess
p714
(dp715
g15
S'false'
p716
sg439
(lp717
sbsg476
(i__main__
DelphiIdentAccess
p718
(dp719
g15
S'editEnabled'
p720
sg439
(lp721
sbsbsg481
(idelphi
DelphiCompoundStatement
p722
(dp723
g429
(lp724
(i__main__
DelphiAssignStatement
p725
(dp726
g471
Nsg476
(i__main__
DelphiIdentAccess
p727
(dp728
g15
S'plant'
p729
sg439
(lp730
(idelphi
DelphiFieldEndAccess
p731
(dp732
g449
S'transferField'
p733
sba(idelphi
DelphiFunctionEndAccess
p734
(dp735
g441
(lp736
(i__main__
DelphiIdentAccess
p737
(dp738
g15
S'kGetField'
p739
sg439
(lp740
sba(i__main__
DelphiIdentAccess
p741
(dp742
g15
S'tdo'
p743
sg439
(lp744
sba(i__main__
DelphiIdentAccess
p745
(dp746
g15
S'param'
p747
sg439
(lp748
(idelphi
DelphiFieldEndAccess
p749
(dp750
g449
S'fieldNumber'
p751
sbasba(i__main__
DelphiIdentAccess
p752
(dp753
g15
S'kFieldThreeDObject'
p754
sg439
(lp755
sba(i__main__
DelphiIdentAccess
p756
(dp757
g15
S'kNotArray'
p758
sg439
(lp759
sba(i__main__
DelphiIdentAccess
p760
(dp761
g15
S'false'
p762
sg439
(lp763
sba(idelphi
DelphiNilValue
p764
(dp765
basbasbsba(i__main__
DelphiAssignStatement
p766
(dp767
g471
Nsg476
(i__main__
DelphiIdentAccess
p768
(dp769
g15
S'self'
p770
sg439
(lp771
(idelphi
DelphiFieldEndAccess
p772
(dp773
g449
S'recenterTdo'
p774
sbasbsbasbsbasbsg492
(lp775
sbsbsS'picktdo'
p776
(i__main__
DelphiMethodImplementation
p777
(dp778
g407
g144
sg98
g146
sg106
(lp779
sg409
(lp780
sg411
(lp781
sg413
(lp782
g415
asg416
(dp783
sg108
S'PdTdoParameterPanel'
p784
sg109
Nsg421
(lp785
sg113
I0
sg114
g121
sg423
(i__main__
DelphiBlock
p786
(dp787
g426
(idelphi
DelphiCompoundStatement
p788
(dp789
g429
(lp790
(idelphi
DelphiIfStatement
p791
(dp792
g433
(idelphi
DelphiAddOp
p793
(dp794
g518
g519
sg520
(idelphi
DelphiNestedExpressionListAccess
p795
(dp796
g439
(lp797
sg441
(lp798
(idelphi
DelphiRelOp
p799
(dp800
g539
(i__main__
DelphiIdentAccess
p801
(dp802
g15
S'param'
p803
sg439
(lp804
sbsg544
(idelphi
DelphiNilValue
p805
(dp806
bsg547
S'='
sbasbsg532
(idelphi
DelphiAddOp
p807
(dp808
g518
g519
sg520
(idelphi
DelphiNestedExpressionListAccess
p809
(dp810
g439
(lp811
sg441
(lp812
(idelphi
DelphiRelOp
p813
(dp814
g539
(i__main__
DelphiIdentAccess
p815
(dp816
g15
S'plant'
p817
sg439
(lp818
sbsg544
(idelphi
DelphiNilValue
p819
(dp820
bsg547
S'='
sbasbsg532
(idelphi
DelphiNestedExpressionListAccess
p821
(dp822
g439
(lp823
sg441
(lp824
(idelphi
DelphiRelOp
p825
(dp826
g539
(i__main__
DelphiIdentAccess
p827
(dp828
g15
S'tdo'
p829
sg439
(lp830
sbsg544
(idelphi
DelphiNilValue
p831
(dp832
bsg547
S'='
sbasbsbsbsg468
Nsg481
(i__main__
DelphiExitStatement
p833
(dp834
S'proceduralOrMethodImplementation'
p835
g777
sbsba(i__main__
DelphiAssignStatement
p836
(dp837
g471
(i__main__
DelphiIdentAccess
p838
(dp839
g15
S'TPickTdoForm'
p840
sg439
(lp841
(idelphi
DelphiFieldEndAccess
p842
(dp843
g449
S'create'
p844
sba(idelphi
DelphiFunctionEndAccess
p845
(dp846
g441
(lp847
(i__main__
DelphiIdentAccess
p848
(dp849
g15
S'self'
p850
sg439
(lp851
sbasbasbsg476
(i__main__
DelphiIdentAccess
p852
(dp853
g15
S'tdoPicker'
p854
sg439
(lp855
sbsba(idelphi
DelphiIfStatement
p856
(dp857
g433
(idelphi
DelphiRelOp
p858
(dp859
g539
(i__main__
DelphiIdentAccess
p860
(dp861
g15
S'tdoPicker'
p862
sg439
(lp863
sbsg544
(idelphi
DelphiNilValue
p864
(dp865
bsg547
S'='
sbsg468
Nsg481
(idelphi
DelphiRaiseStatement
p866
(dp867
g433
(i__main__
DelphiIdentAccess
p868
(dp869
g15
S'Exception'
p870
sg439
(lp871
(idelphi
DelphiFieldEndAccess
p872
(dp873
g449
S'create'
p874
sba(idelphi
DelphiFunctionEndAccess
p875
(dp876
g441
(lp877
(idelphi
DelphiStringAccess
p878
(dp879
g439
(lp880
sg14
(idelphi
DelphiStringValue
p881
(dp882
g14
S'Problem: Could not create 3D object chooser window.'
p883
sbsbasbasbsbsba(idelphi
DelphiTryFinallyStatement
p884
(dp885
S'tryStatements'
p886
(lp887
(i__main__
DelphiAssignStatement
p888
(dp889
g471
(i__main__
DelphiIdentAccess
p890
(dp891
g15
S'plant'
p892
sg439
(lp893
(idelphi
DelphiFieldEndAccess
p894
(dp895
g449
S'getName'
p896
sbasbsg476
(i__main__
DelphiIdentAccess
p897
(dp898
g15
S'plantName'
p899
sg439
(lp900
sbsba(idelphi
DelphiIfStatement
p901
(dp902
g433
(i__main__
DelphiIdentAccess
p903
(dp904
g15
S'tdoPicker'
p905
sg439
(lp906
(idelphi
DelphiFieldEndAccess
p907
(dp908
g449
S'initializeWithTdoParameterAndPlantName'
p909
sba(idelphi
DelphiFunctionEndAccess
p910
(dp911
g441
(lp912
(i__main__
DelphiIdentAccess
p913
(dp914
g15
S'self'
p915
sg439
(lp916
(idelphi
DelphiFieldEndAccess
p917
(dp918
g449
S'tdo'
p919
sbasba(i__main__
DelphiIdentAccess
p920
(dp921
g15
S'self'
p922
sg439
(lp923
(idelphi
DelphiFieldEndAccess
p924
(dp925
g449
S'param'
p926
sbasba(i__main__
DelphiIdentAccess
p927
(dp928
g15
S'plantName'
p929
sg439
(lp930
sbasbasbsg468
Nsg481
(i__main__
DelphiAssignStatement
p931
(dp932
g471
Nsg476
(i__main__
DelphiIdentAccess
p933
(dp934
g15
S'tdoPicker'
p935
sg439
(lp936
(idelphi
DelphiFieldEndAccess
p937
(dp938
g449
S'showModal'
p939
sbasbsS'commentLinesBefore'
p940
(lp941
S' if false, user canceled picking a 3D object library\r'
p942
asbsbasS'finallyStatements'
p943
(lp944
(i__main__
DelphiAssignStatement
p945
(dp946
g471
Nsg476
(i__main__
DelphiIdentAccess
p947
(dp948
g15
S'tdoPicker'
p949
sg439
(lp950
(idelphi
DelphiFieldEndAccess
p951
(dp952
g449
S'free'
p953
sbasbsba(i__main__
DelphiAssignStatement
p954
(dp955
g471
(idelphi
DelphiNilValue
p956
(dp957
bsg476
(i__main__
DelphiIdentAccess
p958
(dp959
g15
S'tdoPicker'
p960
sg439
(lp961
sbsbasbasbsg492
(lp962
(i__main__
DelphiVarSection
p963
(dp964
g65
I0
sS'varDeclList'
p965
(lp966
(idelphi
DelphiVarDecl
p967
(dp968
g11
NsS'identList'
p969
(lp970
S'tdoPicker'
p971
asg17
(i__main__
DelphiNamedType
p972
(dp973
g20
S'TPickTdoForm'
p974
sg160
g1
sg161
Nsbsba(idelphi
DelphiVarDecl
p975
(dp976
g11
Nsg969
(lp977
S'plantName'
p978
asg17
(i__main__
DelphiPrimitiveType
p979
(dp980
g20
g14
sbsbasbasbsbsS'create'
p981
(i__main__
DelphiMethodImplementation
p982
(dp983
g407
g149
sg98
g151
sg106
(lp984
(i__main__
DelphiFormalParameter
p985
(dp986
g136
Nsg137
(lp987
S'anOwner'
p988
asg17
(i__main__
DelphiNamedType
p989
(dp990
g20
S'TComponent'
p991
sg160
g1
sg161
Nsbsg142
Nsbasg409
(lp992
sg411
(lp993
sg413
(lp994
g415
ag988
asg416
(dp995
g988
g989
ssg108
S'PdTdoParameterPanel'
p996
sg109
Nsg421
(lp997
sg113
I0
sg114
g162
sg423
(i__main__
DelphiBlock
p998
(dp999
g426
(idelphi
DelphiCompoundStatement
p1000
(dp1001
g429
(lp1002
(i__main__
DelphiAssignStatement
p1003
(dp1004
g471
Nsg476
(idelphi
DelphiInheritedCall
p1005
(dp1006
g15
S'create'
p1007
sg441
(lp1008
(i__main__
DelphiIdentAccess
p1009
(dp1010
g15
S'anOwner'
p1011
sg439
(lp1012
sbasbsba(i__main__
DelphiAssignStatement
p1013
(dp1014
g471
(i__main__
DelphiIdentAccess
p1015
(dp1016
g15
S'KfObject3d'
p1017
sg439
(lp1018
(idelphi
DelphiFieldEndAccess
p1019
(dp1020
g449
S'create'
p1021
sbasbsg476
(i__main__
DelphiIdentAccess
p1022
(dp1023
g15
S'tdo'
p1024
sg439
(lp1025
sbsbasbsg492
(lp1026
sbsbsS'uncollapsedheight'
p1027
(i__main__
DelphiMethodImplementation
p1028
(dp1029
g407
g164
sg98
g166
sg106
(lp1030
sg409
(lp1031
sg411
(lp1032
sg413
(lp1033
g415
asg416
(dp1034
sg108
S'PdTdoParameterPanel'
p1035
sg109
(i__main__
DelphiPrimitiveType
p1036
(dp1037
g20
g112
sbsg421
(lp1038
sg113
I0
sg114
g115
sg423
(i__main__
DelphiBlock
p1039
(dp1040
g426
(idelphi
DelphiCompoundStatement
p1041
(dp1042
g429
(lp1043
(i__main__
DelphiAssignStatement
p1044
(dp1045
g471
(idelphi
DelphiAddOp
p1046
(dp1047
g518
S'+'
sg520
(idelphi
DelphiMulOp
p1048
(dp1049
g436
(idelphi
DelphiIntegerValue
p1050
(dp1051
g14
S'3'
sbsg451
S'*'
sg453
(i__main__
DelphiIdentAccess
p1052
(dp1053
g15
S'kTopBottomGap'
p1054
sg439
(lp1055
sbsbsg532
(idelphi
DelphiAddOp
p1056
(dp1057
g518
S'+'
sg520
(i__main__
DelphiIdentAccess
p1058
(dp1059
g15
S'self'
p1060
sg439
(lp1061
(idelphi
DelphiFieldEndAccess
p1062
(dp1063
g449
S'textHeight'
p1064
sbasbsg532
(idelphi
DelphiAddOp
p1065
(dp1066
g518
S'+'
sg520
(i__main__
DelphiIdentAccess
p1067
(dp1068
g15
S'kBetweenGap'
p1069
sg439
(lp1070
sbsg532
(idelphi
DelphiAddOp
p1071
(dp1072
g518
S'+'
sg520
(i__main__
DelphiIdentAccess
p1073
(dp1074
g15
S'kTdoSize'
p1075
sg439
(lp1076
sbsg532
(i__main__
DelphiIdentAccess
p1077
(dp1078
g15
S'self'
p1079
sg439
(lp1080
(idelphi
DelphiFieldEndAccess
p1081
(dp1082
g449
S'collapsedHeight'
p1083
sbasbsbsbsbsbsg476
(i__main__
DelphiIdentAccess
p1084
(dp1085
g15
S'result'
p1086
sg439
(lp1087
sbsbasbsg492
(lp1088
sbsbsS'dokeydown'
p1089
(i__main__
DelphiMethodImplementation
p1090
(dp1091
g407
g171
sg98
g173
sg106
(lp1092
(i__main__
DelphiFormalParameter
p1093
(dp1094
g136
Nsg137
(lp1095
S'sender'
p1096
asg17
(i__main__
DelphiNamedType
p1097
(dp1098
g20
S'TObject'
p1099
sg160
g1
sg161
Nsbsg142
Nsba(i__main__
DelphiFormalParameter
p1100
(dp1101
g136
Nsg137
(lp1102
S'key'
p1103
asg17
(i__main__
DelphiPrimitiveType
p1104
(dp1105
g20
g188
sbsg142
g189
sba(i__main__
DelphiFormalParameter
p1106
(dp1107
g136
Nsg137
(lp1108
S'shift'
p1109
asg17
(i__main__
DelphiNamedType
p1110
(dp1111
g20
S'TShiftState'
p1112
sg160
g1
sg161
Nsbsg142
Nsbasg409
(lp1113
I1
asg411
(lp1114
sg413
(lp1115
g415
ag1096
ag1103
ag1109
asg416
(dp1116
g1109
g1110
sg1096
g1097
sg1103
g1104
ssg108
S'PdTdoParameterPanel'
p1117
sg109
Nsg421
(lp1118
g1103
asg113
I0
sg114
g121
sg423
(i__main__
DelphiBlock
p1119
(dp1120
g426
(idelphi
DelphiCompoundStatement
p1121
(dp1122
g429
(lp1123
(idelphi
DelphiIfStatement
p1124
(dp1125
g433
(i__main__
DelphiIdentAccess
p1126
(dp1127
g15
S'Application'
p1128
sg439
(lp1129
(idelphi
DelphiFieldEndAccess
p1130
(dp1131
g449
S'terminated'
p1132
sbasbsg468
Nsg481
(i__main__
DelphiExitStatement
p1133
(dp1134
g835
g1090
sbsba(i__main__
DelphiAssignStatement
p1135
(dp1136
g471
Nsg476
(idelphi
DelphiInheritedCall
p1137
(dp1138
g15
S'doKeyDown'
p1139
sg441
(lp1140
(i__main__
DelphiIdentAccess
p1141
(dp1142
g15
S'sender'
p1143
sg439
(lp1144
sba(i__main__
DelphiIdentAccess
p1145
(dp1146
g15
S'key'
p1147
sg439
(lp1148
sba(i__main__
DelphiIdentAccess
p1149
(dp1150
g15
S'shift'
p1151
sg439
(lp1152
sbasbsba(idelphi
DelphiIfStatement
p1153
(dp1154
g433
(idelphi
DelphiMulOp
p1155
(dp1156
g436
(idelphi
DelphiNestedExpressionListAccess
p1157
(dp1158
g439
(lp1159
sg441
(lp1160
(i__main__
DelphiIdentAccess
p1161
(dp1162
g15
S'editEnabled'
p1163
sg439
(lp1164
sbasbsg451
g452
sg453
(idelphi
DelphiNestedExpressionListAccess
p1165
(dp1166
g439
(lp1167
sg441
(lp1168
(idelphi
DelphiRelOp
p1169
(dp1170
g539
(i__main__
DelphiIdentAccess
p1171
(dp1172
g15
S'key'
p1173
sg439
(lp1174
sbsg544
(i__main__
DelphiIdentAccess
p1175
(dp1176
g15
S'VK_RETURN'
p1177
sg439
(lp1178
sbsg547
S'='
sbasbsbsg468
Nsg481
(idelphi
DelphiCompoundStatement
p1179
(dp1180
g429
(lp1181
(idelphi
DelphiCaseStatement
p1182
(dp1183
S'elseStatement'
p1184
Nsg433
(i__main__
DelphiIdentAccess
p1185
(dp1186
g15
S'self'
p1187
sg439
(lp1188
(idelphi
DelphiFieldEndAccess
p1189
(dp1190
g449
S'selectedItemIndex'
p1191
sbasbsS'caseSelectorList'
p1192
(lp1193
(idelphi
DelphiCaseSelector
p1194
(dp1195
S'statement'
p1196
(i__main__
DelphiAssignStatement
p1197
(dp1198
g471
Nsg476
(i__main__
DelphiIdentAccess
p1199
(dp1200
g15
S'self'
p1201
sg439
(lp1202
(idelphi
DelphiFieldEndAccess
p1203
(dp1204
g449
S'pickTdo'
p1205
sbasbsbsS'caseLabelList'
p1206
(lp1207
(i__main__
DelphiIdentAccess
p1208
(dp1209
g15
S'kItemFileName'
p1210
sg439
(lp1211
sbasba(idelphi
DelphiCaseSelector
p1212
(dp1213
g1196
(i__main__
DelphiAssignStatement
p1214
(dp1215
g471
Nsg476
(i__main__
DelphiIdentAccess
p1216
(dp1217
g15
S'self'
p1218
sg439
(lp1219
(idelphi
DelphiFieldEndAccess
p1220
(dp1221
g449
S'pickTdo'
p1222
sbasbsbsg1206
(lp1223
(i__main__
DelphiIdentAccess
p1224
(dp1225
g15
S'kItemTdo'
p1226
sg439
(lp1227
sbasbasbasbsbasbsg492
(lp1228
sbsbsS'updatedisplay'
p1229
(i__main__
DelphiMethodImplementation
p1230
(dp1231
g407
g198
sg98
g200
sg106
(lp1232
sg409
(lp1233
sg411
(lp1234
sg413
(lp1235
g415
asg416
(dp1236
sg108
S'PdTdoParameterPanel'
p1237
sg109
Nsg421
(lp1238
sg113
I0
sg114
g121
sg423
(i__main__
DelphiBlock
p1239
(dp1240
g426
(idelphi
DelphiCompoundStatement
p1241
(dp1242
g429
(lp1243
(idelphi
DelphiIfStatement
p1244
(dp1245
g433
(idelphi
DelphiMulOp
p1246
(dp1247
g436
(idelphi
DelphiNestedExpressionListAccess
p1248
(dp1249
g439
(lp1250
sg441
(lp1251
(idelphi
DelphiRelOp
p1252
(dp1253
g539
(i__main__
DelphiIdentAccess
p1254
(dp1255
g15
S'param'
p1256
sg439
(lp1257
(idelphi
DelphiFieldEndAccess
p1258
(dp1259
g449
S'fieldType'
p1260
sbasbsg544
(i__main__
DelphiIdentAccess
p1261
(dp1262
g15
S'kFieldThreeDObject'
p1263
sg439
(lp1264
sbsg547
S'='
sbasbsg451
g452
sg453
(idelphi
DelphiNestedExpressionListAccess
p1265
(dp1266
g439
(lp1267
sg441
(lp1268
(idelphi
DelphiRelOp
p1269
(dp1270
g539
(i__main__
DelphiIdentAccess
p1271
(dp1272
g15
S'plant'
p1273
sg439
(lp1274
sbsg544
(idelphi
DelphiNilValue
p1275
(dp1276
bsg547
g711
sbasbsbsg468
(i__main__
DelphiAssignStatement
p1277
(dp1278
g471
(i__main__
DelphiIdentAccess
p1279
(dp1280
g15
S'false'
p1281
sg439
(lp1282
sbsg476
(i__main__
DelphiIdentAccess
p1283
(dp1284
g15
S'editEnabled'
p1285
sg439
(lp1286
sbsbsg481
(i__main__
DelphiAssignStatement
p1287
(dp1288
g471
Nsg476
(i__main__
DelphiIdentAccess
p1289
(dp1290
g15
S'self'
p1291
sg439
(lp1292
(idelphi
DelphiFieldEndAccess
p1293
(dp1294
g449
S'invalidate'
p1295
sbasbsbsbasbsg492
(lp1296
sbsbsS'domousedown'
p1297
(i__main__
DelphiMethodImplementation
p1298
(dp1299
g407
g297
sg98
g299
sg106
(lp1300
(i__main__
DelphiFormalParameter
p1301
(dp1302
g136
Nsg137
(lp1303
S'Sender'
p1304
asg17
(i__main__
DelphiNamedType
p1305
(dp1306
g20
S'TObject'
p1307
sg160
g1
sg161
Nsbsg142
Nsba(i__main__
DelphiFormalParameter
p1308
(dp1309
g136
Nsg137
(lp1310
S'Button'
p1311
asg17
(i__main__
DelphiNamedType
p1312
(dp1313
g20
S'TMouseButton'
p1314
sg160
g1
sg161
Nsbsg142
Nsba(i__main__
DelphiFormalParameter
p1315
(dp1316
g136
Nsg137
(lp1317
S'Shift'
p1318
asg17
(i__main__
DelphiNamedType
p1319
(dp1320
g20
S'TShiftState'
p1321
sg160
g1
sg161
Nsbsg142
Nsba(i__main__
DelphiFormalParameter
p1322
(dp1323
g136
Nsg137
(lp1324
S'X'
aS'Y'
asg17
(i__main__
DelphiPrimitiveType
p1325
(dp1326
g20
g112
sbsg142
Nsbasg409
(lp1327
sg411
(lp1328
sg413
(lp1329
g415
ag1304
ag1311
ag1318
aS'X'
aS'Y'
asg416
(dp1330
S'Y'
g1325
sg1318
g1319
sg1311
g1312
sg1304
g1305
sS'X'
g1325
ssg108
S'PdTdoParameterPanel'
p1331
sg109
Nsg421
(lp1332
sg113
I0
sg114
g121
sg423
(i__main__
DelphiBlock
p1333
(dp1334
g426
(idelphi
DelphiCompoundStatement
p1335
(dp1336
g429
(lp1337
(idelphi
DelphiIfStatement
p1338
(dp1339
g433
(i__main__
DelphiIdentAccess
p1340
(dp1341
g15
S'Application'
p1342
sg439
(lp1343
(idelphi
DelphiFieldEndAccess
p1344
(dp1345
g449
S'terminated'
p1346
sbasbsg468
Nsg481
(i__main__
DelphiExitStatement
p1347
(dp1348
g835
g1298
sbsba(i__main__
DelphiAssignStatement
p1349
(dp1350
g471
Nsg476
(idelphi
DelphiInheritedCall
p1351
(dp1352
g15
S'doMouseDown'
p1353
sg441
(lp1354
(i__main__
DelphiIdentAccess
p1355
(dp1356
g15
S'sender'
p1357
sg439
(lp1358
sba(i__main__
DelphiIdentAccess
p1359
(dp1360
g15
S'button'
p1361
sg439
(lp1362
sba(i__main__
DelphiIdentAccess
p1363
(dp1364
g15
S'shift'
p1365
sg439
(lp1366
sba(i__main__
DelphiIdentAccess
p1367
(dp1368
g15
S'x'
sg439
(lp1369
sba(i__main__
DelphiIdentAccess
p1370
(dp1371
g15
S'y'
sg439
(lp1372
sbasbsg940
(lp1373
S' must always call this first because it sets the focus '
p1374
asba(idelphi
DelphiIfStatement
p1375
(dp1376
g433
(idelphi
DelphiNestedExpressionListAccess
p1377
(dp1378
g439
(lp1379
sg441
(lp1380
(i__main__
DelphiIdentAccess
p1381
(dp1382
g15
S'editEnabled'
p1383
sg439
(lp1384
sbasbsg468
Nsg481
(idelphi
DelphiCompoundStatement
p1385
(dp1386
g429
(lp1387
(i__main__
DelphiAssignStatement
p1388
(dp1389
g471
(i__main__
DelphiIdentAccess
p1390
(dp1391
g15
S'Point'
p1392
sg439
(lp1393
(idelphi
DelphiFunctionEndAccess
p1394
(dp1395
g441
(lp1396
(i__main__
DelphiIdentAccess
p1397
(dp1398
g15
S'x'
sg439
(lp1399
sba(i__main__
DelphiIdentAccess
p1400
(dp1401
g15
S'y'
sg439
(lp1402
sbasbasbsg476
(i__main__
DelphiIdentAccess
p1403
(dp1404
g15
S'thePoint'
p1405
sg439
(lp1406
sbsba(idelphi
DelphiIfStatement
p1407
(dp1408
g433
(idelphi
DelphiMulOp
p1409
(dp1410
g436
(idelphi
DelphiNestedExpressionListAccess
p1411
(dp1412
g439
(lp1413
sg441
(lp1414
(idelphi
DelphiRelOp
p1415
(dp1416
g539
(i__main__
DelphiIdentAccess
p1417
(dp1418
g15
S'ssCtrl'
p1419
sg439
(lp1420
sbsg544
(i__main__
DelphiIdentAccess
p1421
(dp1422
g15
S'shift'
p1423
sg439
(lp1424
sbsg547
S'in'
p1425
sbasbsg451
g452
sg453
(i__main__
DelphiIdentAccess
p1426
(dp1427
g15
S'ptInRect'
p1428
sg439
(lp1429
(idelphi
DelphiFunctionEndAccess
p1430
(dp1431
g441
(lp1432
(i__main__
DelphiIdentAccess
p1433
(dp1434
g15
S'tdoRect'
p1435
sg439
(lp1436
sba(i__main__
DelphiIdentAccess
p1437
(dp1438
g15
S'thePoint'
p1439
sg439
(lp1440
sbasbasbsbsg468
Nsg481
(idelphi
DelphiCompoundStatement
p1441
(dp1442
g429
(lp1443
(i__main__
DelphiAssignStatement
p1444
(dp1445
g471
(i__main__
DelphiIdentAccess
p1446
(dp1447
g15
S'true'
p1448
sg439
(lp1449
sbsg476
(i__main__
DelphiIdentAccess
p1450
(dp1451
g15
S'movingTdo'
p1452
sg439
(lp1453
sbsg940
(lp1454
S'(button = mbRight) then\r'
p1455
asba(i__main__
DelphiAssignStatement
p1456
(dp1457
g471
(i__main__
DelphiIdentAccess
p1458
(dp1459
g15
S'thePoint'
p1460
sg439
(lp1461
sbsg476
(i__main__
DelphiIdentAccess
p1462
(dp1463
g15
S'moveStart'
p1464
sg439
(lp1465
sbsba(i__main__
DelphiAssignStatement
p1466
(dp1467
g471
(i__main__
DelphiIdentAccess
p1468
(dp1469
g15
S'position'
p1470
sg439
(lp1471
sbsg476
(i__main__
DelphiIdentAccess
p1472
(dp1473
g15
S'moveStartPosition'
p1474
sg439
(lp1475
sbsbasbsbasbsbasbsg492
(lp1476
(i__main__
DelphiVarSection
p1477
(dp1478
g65
I0
sg965
(lp1479
(idelphi
DelphiVarDecl
p1480
(dp1481
g11
Nsg969
(lp1482
S'thePoint'
p1483
asg17
(i__main__
DelphiNamedType
p1484
(dp1485
g20
S'TPoint'
p1486
sg160
g1
sg161
NsbsbasbasbsbsS'minwidth'
p1487
(i__main__
DelphiMethodImplementation
p1488
(dp1489
g407
g208
sg98
g210
sg106
(lp1490
(i__main__
DelphiFormalParameter
p1491
(dp1492
g136
Nsg137
(lp1493
S'requestedWidth'
p1494
asg17
(i__main__
DelphiPrimitiveType
p1495
(dp1496
g20
g112
sbsg142
Nsbasg409
(lp1497
sg411
(lp1498
sg413
(lp1499
g415
ag1494
asg416
(dp1500
g1494
g1495
ssg108
S'PdTdoParameterPanel'
p1501
sg109
(i__main__
DelphiPrimitiveType
p1502
(dp1503
g20
g112
sbsg421
(lp1504
sg113
I0
sg114
g115
sg423
(i__main__
DelphiBlock
p1505
(dp1506
g426
(idelphi
DelphiCompoundStatement
p1507
(dp1508
g429
(lp1509
(i__main__
DelphiAssignStatement
p1510
(dp1511
g471
(idelphi
DelphiAddOp
p1512
(dp1513
g518
S'+'
sg520
(i__main__
DelphiIdentAccess
p1514
(dp1515
g15
S'intMax'
p1516
sg439
(lp1517
(idelphi
DelphiFunctionEndAccess
p1518
(dp1519
g441
(lp1520
(i__main__
DelphiIdentAccess
p1521
(dp1522
g15
S'self'
p1523
sg439
(lp1524
(idelphi
DelphiFieldEndAccess
p1525
(dp1526
g449
S'longestLabelWordWidth'
p1527
sbasba(idelphi
DelphiAddOp
p1528
(dp1529
g518
S'+'
sg520
(i__main__
DelphiIdentAccess
p1530
(dp1531
g15
S'kTdoSize'
p1532
sg439
(lp1533
sbsg532
(idelphi
DelphiAddOp
p1534
(dp1535
g518
S'+'
sg520
(i__main__
DelphiIdentAccess
p1536
(dp1537
g15
S'kBetweenGap'
p1538
sg439
(lp1539
sbsg532
(i__main__
DelphiIdentAccess
p1540
(dp1541
g15
S'self'
p1542
sg439
(lp1543
(idelphi
DelphiFieldEndAccess
p1544
(dp1545
g449
S'formTextWidth'
p1546
sba(idelphi
DelphiFunctionEndAccess
p1547
(dp1548
g441
(lp1549
(idelphi
DelphiStringAccess
p1550
(dp1551
g439
(lp1552
sg14
(idelphi
DelphiStringValue
p1553
(dp1554
g14
S'wwwwwwww.www'
p1555
sbsbasbasbsbsbasbasbsg532
(idelphi
DelphiMulOp
p1556
(dp1557
g436
(idelphi
DelphiIntegerValue
p1558
(dp1559
g14
S'2'
sbsg451
S'*'
sg453
(i__main__
DelphiIdentAccess
p1560
(dp1561
g15
S'kLeftRightGap'
p1562
sg439
(lp1563
sbsbsbsg476
(i__main__
DelphiIdentAccess
p1564
(dp1565
g15
S'minAllowed'
p1566
sg439
(lp1567
sbsba(idelphi
DelphiIfStatement
p1568
(dp1569
g433
(idelphi
DelphiRelOp
p1570
(dp1571
g539
(i__main__
DelphiIdentAccess
p1572
(dp1573
g15
S'requestedWidth'
p1574
sg439
(lp1575
sbsg544
(i__main__
DelphiIdentAccess
p1576
(dp1577
g15
S'minAllowed'
p1578
sg439
(lp1579
sbsg547
S'>'
sbsg468
(i__main__
DelphiAssignStatement
p1580
(dp1581
g471
(i__main__
DelphiIdentAccess
p1582
(dp1583
g15
S'minAllowed'
p1584
sg439
(lp1585
sbsg476
(i__main__
DelphiIdentAccess
p1586
(dp1587
g15
S'result'
p1588
sg439
(lp1589
sbsbsg481
(i__main__
DelphiAssignStatement
p1590
(dp1591
g471
(idelphi
DelphiSign
p1592
(dp1593
g460
(idelphi
DelphiIntegerValue
p1594
(dp1595
g14
S'1'
sbsS'sign'
p1596
S'-'
sbsg476
(i__main__
DelphiIdentAccess
p1597
(dp1598
g15
S'result'
p1599
sg439
(lp1600
sbsbsbasbsg492
(lp1601
(i__main__
DelphiVarSection
p1602
(dp1603
g65
I0
sg965
(lp1604
(idelphi
DelphiVarDecl
p1605
(dp1606
g11
Nsg969
(lp1607
S'minAllowed'
p1608
asg17
(i__main__
DelphiPrimitiveType
p1609
(dp1610
g20
g112
sbsbasbasbsbsS'paint'
p1611
(i__main__
DelphiMethodImplementation
p1612
(dp1613
g407
g221
sg98
g223
sg106
(lp1614
sg409
(lp1615
sg411
(lp1616
sg413
(lp1617
g415
asg416
(dp1618
sg108
S'PdTdoParameterPanel'
p1619
sg109
Nsg421
(lp1620
sg113
I0
sg114
g121
sg423
(i__main__
DelphiBlock
p1621
(dp1622
g426
(idelphi
DelphiCompoundStatement
p1623
(dp1624
g429
(lp1625
(idelphi
DelphiIfStatement
p1626
(dp1627
g433
(i__main__
DelphiIdentAccess
p1628
(dp1629
g15
S'Application'
p1630
sg439
(lp1631
(idelphi
DelphiFieldEndAccess
p1632
(dp1633
g449
S'terminated'
p1634
sbasbsg468
Nsg481
(i__main__
DelphiExitStatement
p1635
(dp1636
g835
g1612
sbsba(i__main__
DelphiAssignStatement
p1637
(dp1638
g471
Nsg476
(idelphi
DelphiInheritedCall
p1639
(dp1640
g15
S'paint'
p1641
sg441
Nsbsba(idelphi
DelphiIfStatement
p1642
(dp1643
g433
(idelphi
DelphiNestedExpressionListAccess
p1644
(dp1645
g439
(lp1646
sg441
(lp1647
(i__main__
DelphiIdentAccess
p1648
(dp1649
g15
S'param'
p1650
sg439
(lp1651
(idelphi
DelphiFieldEndAccess
p1652
(dp1653
g449
S'collapsed'
p1654
sbasbasbsg468
Nsg481
(idelphi
DelphiCompoundStatement
p1655
(dp1656
g429
(lp1657
(i__main__
DelphiAssignStatement
p1658
(dp1659
g471
Nsg476
(i__main__
DelphiIdentAccess
p1660
(dp1661
g15
S'self'
p1662
sg439
(lp1663
(idelphi
DelphiFieldEndAccess
p1664
(dp1665
g449
S'drawExtraValueCaptionWithString'
p1666
sba(idelphi
DelphiFunctionEndAccess
p1667
(dp1668
g441
(lp1669
(i__main__
DelphiIdentAccess
p1670
(dp1671
g15
S'tdo'
p1672
sg439
(lp1673
(idelphi
DelphiFieldEndAccess
p1674
(dp1675
g449
S'getName'
p1676
sbasba(idelphi
DelphiStringAccess
p1677
(dp1678
g439
(lp1679
sg14
(idelphi
DelphiStringValue
p1680
(dp1681
g14
S''
sbsbasbasbsba(i__main__
DelphiExitStatement
p1682
(dp1683
g835
g1612
sbasbsba(i__main__
DelphiAssignStatement
p1684
(dp1685
g471
(i__main__
DelphiIdentAccess
p1686
(dp1687
g15
S'getClientRect'
p1688
sg439
(lp1689
sbsg476
(i__main__
DelphiIdentAccess
p1690
(dp1691
g15
S'rect'
p1692
sg439
(lp1693
sbsba(idelphi
DelphiWithStatement
p1694
(dp1695
g1196
(idelphi
DelphiCompoundStatement
p1696
(dp1697
g429
(lp1698
(i__main__
DelphiAssignStatement
p1699
(dp1700
g471
(idelphi
DelphiAddOp
p1701
(dp1702
g518
S'+'
sg520
(i__main__
DelphiIdentAccess
p1703
(dp1704
g15
S'kLeftRightGap'
p1705
sg439
(lp1706
sbsg532
(i__main__
DelphiIdentAccess
p1707
(dp1708
g15
S'rect'
p1709
sg439
(lp1710
(idelphi
DelphiFieldEndAccess
p1711
(dp1712
g449
S'left'
p1713
sbasbsbsg476
(i__main__
DelphiIdentAccess
p1714
(dp1715
g15
S'left'
p1716
sg439
(lp1717
sbsba(i__main__
DelphiAssignStatement
p1718
(dp1719
g471
(idelphi
DelphiAddOp
p1720
(dp1721
g518
S'+'
sg520
(i__main__
DelphiIdentAccess
p1722
(dp1723
g15
S'kTdoSize'
p1724
sg439
(lp1725
sbsg532
(i__main__
DelphiIdentAccess
p1726
(dp1727
g15
S'left'
p1728
sg439
(lp1729
sbsbsg476
(i__main__
DelphiIdentAccess
p1730
(dp1731
g15
S'right'
p1732
sg439
(lp1733
sbsba(i__main__
DelphiAssignStatement
p1734
(dp1735
g471
(idelphi
DelphiAddOp
p1736
(dp1737
g518
S'+'
sg520
(i__main__
DelphiIdentAccess
p1738
(dp1739
g15
S'kTopBottomGap'
p1740
sg439
(lp1741
sbsg532
(i__main__
DelphiIdentAccess
p1742
(dp1743
g15
S'self'
p1744
sg439
(lp1745
(idelphi
DelphiFieldEndAccess
p1746
(dp1747
g449
S'collapsedHeight'
p1748
sbasbsbsg476
(i__main__
DelphiIdentAccess
p1749
(dp1750
g15
S'top'
p1751
sg439
(lp1752
sbsba(i__main__
DelphiAssignStatement
p1753
(dp1754
g471
(idelphi
DelphiAddOp
p1755
(dp1756
g518
S'+'
sg520
(i__main__
DelphiIdentAccess
p1757
(dp1758
g15
S'kTdoSize'
p1759
sg439
(lp1760
sbsg532
(i__main__
DelphiIdentAccess
p1761
(dp1762
g15
S'top'
p1763
sg439
(lp1764
sbsbsg476
(i__main__
DelphiIdentAccess
p1765
(dp1766
g15
S'bottom'
p1767
sg439
(lp1768
sbsbasbsS'variableReferenceList'
p1769
(lp1770
(i__main__
DelphiIdentAccess
p1771
(dp1772
g15
S'tdoRect'
p1773
sg439
(lp1774
sbasba(idelphi
DelphiWithStatement
p1775
(dp1776
g1196
(idelphi
DelphiCompoundStatement
p1777
(dp1778
g429
(lp1779
(i__main__
DelphiAssignStatement
p1780
(dp1781
g471
(idelphi
DelphiAddOp
p1782
(dp1783
g518
S'+'
sg520
(i__main__
DelphiIdentAccess
p1784
(dp1785
g15
S'kLeftRightGap'
p1786
sg439
(lp1787
sbsg532
(i__main__
DelphiIdentAccess
p1788
(dp1789
g15
S'tdoRect'
p1790
sg439
(lp1791
(idelphi
DelphiFieldEndAccess
p1792
(dp1793
g449
S'right'
p1794
sbasbsbsg476
(i__main__
DelphiIdentAccess
p1795
(dp1796
g15
S'left'
p1797
sg439
(lp1798
sbsba(i__main__
DelphiAssignStatement
p1799
(dp1800
g471
(idelphi
DelphiAddOp
p1801
(dp1802
g518
S'+'
sg520
(i__main__
DelphiIdentAccess
p1803
(dp1804
g15
S'self'
p1805
sg439
(lp1806
(idelphi
DelphiFieldEndAccess
p1807
(dp1808
g449
S'canvas'
p1809
sba(idelphi
DelphiFieldEndAccess
p1810
(dp1811
g449
S'textWidth'
p1812
sba(idelphi
DelphiFunctionEndAccess
p1813
(dp1814
g441
(lp1815
(i__main__
DelphiIdentAccess
p1816
(dp1817
g15
S'tdo'
p1818
sg439
(lp1819
(idelphi
DelphiFieldEndAccess
p1820
(dp1821
g449
S'getName'
p1822
sbasbasbasbsg532
(i__main__
DelphiIdentAccess
p1823
(dp1824
g15
S'left'
p1825
sg439
(lp1826
sbsbsg476
(i__main__
DelphiIdentAccess
p1827
(dp1828
g15
S'right'
p1829
sg439
(lp1830
sbsba(i__main__
DelphiAssignStatement
p1831
(dp1832
g471
(idelphi
DelphiAddOp
p1833
(dp1834
g518
S'-'
sg520
(idelphi
DelphiMulOp
p1835
(dp1836
g436
(idelphi
DelphiIntegerValue
p1837
(dp1838
g14
S'2'
sbsg451
S'div'
p1839
sg453
(i__main__
DelphiIdentAccess
p1840
(dp1841
g15
S'self'
p1842
sg439
(lp1843
(idelphi
DelphiFieldEndAccess
p1844
(dp1845
g449
S'textHeight'
p1846
sbasbsbsg532
(idelphi
DelphiAddOp
p1847
(dp1848
g518
S'+'
sg520
(idelphi
DelphiMulOp
p1849
(dp1850
g436
(idelphi
DelphiIntegerValue
p1851
(dp1852
g14
S'2'
sbsg451
g1839
sg453
(i__main__
DelphiIdentAccess
p1853
(dp1854
g15
S'kTdoSize'
p1855
sg439
(lp1856
sbsbsg532
(i__main__
DelphiIdentAccess
p1857
(dp1858
g15
S'tdoRect'
p1859
sg439
(lp1860
(idelphi
DelphiFieldEndAccess
p1861
(dp1862
g449
S'top'
p1863
sbasbsbsbsg476
(i__main__
DelphiIdentAccess
p1864
(dp1865
g15
S'top'
p1866
sg439
(lp1867
sbsba(i__main__
DelphiAssignStatement
p1868
(dp1869
g471
(idelphi
DelphiAddOp
p1870
(dp1871
g518
S'+'
sg520
(i__main__
DelphiIdentAccess
p1872
(dp1873
g15
S'self'
p1874
sg439
(lp1875
(idelphi
DelphiFieldEndAccess
p1876
(dp1877
g449
S'textHeight'
p1878
sbasbsg532
(i__main__
DelphiIdentAccess
p1879
(dp1880
g15
S'top'
p1881
sg439
(lp1882
sbsbsg476
(i__main__
DelphiIdentAccess
p1883
(dp1884
g15
S'bottom'
p1885
sg439
(lp1886
sbsbasbsg1769
(lp1887
(i__main__
DelphiIdentAccess
p1888
(dp1889
g15
S'fileNameRect'
p1890
sg439
(lp1891
sbasba(idelphi
DelphiWithStatement
p1892
(dp1893
g1196
(idelphi
DelphiCompoundStatement
p1894
(dp1895
g429
(lp1896
(i__main__
DelphiAssignStatement
p1897
(dp1898
g471
(idelphi
DelphiAddOp
p1899
(dp1900
g518
S'-'
sg520
(idelphi
DelphiMulOp
p1901
(dp1902
g436
(idelphi
DelphiIntegerValue
p1903
(dp1904
g14
S'2'
sbsg451
g1839
sg453
(idelphi
DelphiNestedExpressionListAccess
p1905
(dp1906
g439
(lp1907
sg441
(lp1908
(idelphi
DelphiAddOp
p1909
(dp1910
g518
S'+'
sg520
(idelphi
DelphiMulOp
p1911
(dp1912
g436
(idelphi
DelphiIntegerValue
p1913
(dp1914
g14
S'3'
sbsg451
S'*'
sg453
(i__main__
DelphiIdentAccess
p1915
(dp1916
g15
S'kLeftRightGap'
p1917
sg439
(lp1918
sbsbsg532
(idelphi
DelphiMulOp
p1919
(dp1920
g436
(idelphi
DelphiIntegerValue
p1921
(dp1922
g14
S'4'
sbsg451
S'*'
sg453
(i__main__
DelphiIdentAccess
p1923
(dp1924
g15
S'self'
p1925
sg439
(lp1926
(idelphi
DelphiFieldEndAccess
p1927
(dp1928
g449
S'canvas'
p1929
sba(idelphi
DelphiFieldEndAccess
p1930
(dp1931
g449
S'textWidth'
p1932
sba(idelphi
DelphiFunctionEndAccess
p1933
(dp1934
g441
(lp1935
(idelphi
DelphiStringAccess
p1936
(dp1937
g439
(lp1938
sg14
(idelphi
DelphiStringValue
p1939
(dp1940
g14
S'>'
sbsbasbasbsbsbasbsbsg532
(idelphi
DelphiAddOp
p1941
(dp1942
g518
S'+'
sg520
(idelphi
DelphiMulOp
p1943
(dp1944
g436
(idelphi
DelphiIntegerValue
p1945
(dp1946
g14
S'2'
sbsg451
g1839
sg453
(idelphi
DelphiNestedExpressionListAccess
p1947
(dp1948
g439
(lp1949
sg441
(lp1950
(idelphi
DelphiAddOp
p1951
(dp1952
g518
S'-'
sg520
(i__main__
DelphiIdentAccess
p1953
(dp1954
g15
S'tdoRect'
p1955
sg439
(lp1956
(idelphi
DelphiFieldEndAccess
p1957
(dp1958
g449
S'left'
p1959
sbasbsg532
(i__main__
DelphiIdentAccess
p1960
(dp1961
g15
S'tdoRect'
p1962
sg439
(lp1963
(idelphi
DelphiFieldEndAccess
p1964
(dp1965
g449
S'right'
p1966
sbasbsbasbsbsg532
(i__main__
DelphiIdentAccess
p1967
(dp1968
g15
S'tdoRect'
p1969
sg439
(lp1970
(idelphi
DelphiFieldEndAccess
p1971
(dp1972
g449
S'left'
p1973
sbasbsbsbsg476
(i__main__
DelphiIdentAccess
p1974
(dp1975
g15
S'left'
p1976
sg439
(lp1977
sbsba(i__main__
DelphiAssignStatement
p1978
(dp1979
g471
(idelphi
DelphiAddOp
p1980
(dp1981
g518
S'+'
sg520
(i__main__
DelphiIdentAccess
p1982
(dp1983
g15
S'self'
p1984
sg439
(lp1985
(idelphi
DelphiFieldEndAccess
p1986
(dp1987
g449
S'canvas'
p1988
sba(idelphi
DelphiFieldEndAccess
p1989
(dp1990
g449
S'textWidth'
p1991
sba(idelphi
DelphiFunctionEndAccess
p1992
(dp1993
g441
(lp1994
(idelphi
DelphiStringAccess
p1995
(dp1996
g439
(lp1997
sg14
(idelphi
DelphiStringValue
p1998
(dp1999
g14
S'<'
sbsbasbasbsg532
(i__main__
DelphiIdentAccess
p2000
(dp2001
g15
S'left'
p2002
sg439
(lp2003
sbsbsg476
(i__main__
DelphiIdentAccess
p2004
(dp2005
g15
S'right'
p2006
sg439
(lp2007
sbsba(i__main__
DelphiAssignStatement
p2008
(dp2009
g471
(idelphi
DelphiAddOp
p2010
(dp2011
g518
S'+'
sg520
(i__main__
DelphiIdentAccess
p2012
(dp2013
g15
S'kBetweenGap'
p2014
sg439
(lp2015
sbsg532
(i__main__
DelphiIdentAccess
p2016
(dp2017
g15
S'tdoRect'
p2018
sg439
(lp2019
(idelphi
DelphiFieldEndAccess
p2020
(dp2021
g449
S'bottom'
p2022
sbasbsbsg476
(i__main__
DelphiIdentAccess
p2023
(dp2024
g15
S'top'
p2025
sg439
(lp2026
sbsba(i__main__
DelphiAssignStatement
p2027
(dp2028
g471
(idelphi
DelphiAddOp
p2029
(dp2030
g518
S'+'
sg520
(i__main__
DelphiIdentAccess
p2031
(dp2032
g15
S'self'
p2033
sg439
(lp2034
(idelphi
DelphiFieldEndAccess
p2035
(dp2036
g449
S'textHeight'
p2037
sbasbsg532
(i__main__
DelphiIdentAccess
p2038
(dp2039
g15
S'top'
p2040
sg439
(lp2041
sbsbsg476
(i__main__
DelphiIdentAccess
p2042
(dp2043
g15
S'bottom'
p2044
sg439
(lp2045
sbsbasbsg1769
(lp2046
(i__main__
DelphiIdentAccess
p2047
(dp2048
g15
S'turnLeftRect'
p2049
sg439
(lp2050
sbasba(idelphi
DelphiWithStatement
p2051
(dp2052
g1196
(idelphi
DelphiCompoundStatement
p2053
(dp2054
g429
(lp2055
(i__main__
DelphiAssignStatement
p2056
(dp2057
g471
(idelphi
DelphiAddOp
p2058
(dp2059
g518
S'+'
sg520
(i__main__
DelphiIdentAccess
p2060
(dp2061
g15
S'kLeftRightGap'
p2062
sg439
(lp2063
sbsg532
(i__main__
DelphiIdentAccess
p2064
(dp2065
g15
S'turnLeftRect'
p2066
sg439
(lp2067
(idelphi
DelphiFieldEndAccess
p2068
(dp2069
g449
S'right'
p2070
sbasbsbsg476
(i__main__
DelphiIdentAccess
p2071
(dp2072
g15
S'left'
p2073
sg439
(lp2074
sbsba(i__main__
DelphiAssignStatement
p2075
(dp2076
g471
(idelphi
DelphiAddOp
p2077
(dp2078
g518
S'+'
sg520
(i__main__
DelphiIdentAccess
p2079
(dp2080
g15
S'self'
p2081
sg439
(lp2082
(idelphi
DelphiFieldEndAccess
p2083
(dp2084
g449
S'canvas'
p2085
sba(idelphi
DelphiFieldEndAccess
p2086
(dp2087
g449
S'textWidth'
p2088
sba(idelphi
DelphiFunctionEndAccess
p2089
(dp2090
g441
(lp2091
(idelphi
DelphiStringAccess
p2092
(dp2093
g439
(lp2094
sg14
(idelphi
DelphiStringValue
p2095
(dp2096
g14
S'>'
sbsbasbasbsg532
(i__main__
DelphiIdentAccess
p2097
(dp2098
g15
S'left'
p2099
sg439
(lp2100
sbsbsg476
(i__main__
DelphiIdentAccess
p2101
(dp2102
g15
S'right'
p2103
sg439
(lp2104
sbsba(i__main__
DelphiAssignStatement
p2105
(dp2106
g471
(i__main__
DelphiIdentAccess
p2107
(dp2108
g15
S'turnLeftRect'
p2109
sg439
(lp2110
(idelphi
DelphiFieldEndAccess
p2111
(dp2112
g449
S'top'
p2113
sbasbsg476
(i__main__
DelphiIdentAccess
p2114
(dp2115
g15
S'top'
p2116
sg439
(lp2117
sbsba(i__main__
DelphiAssignStatement
p2118
(dp2119
g471
(idelphi
DelphiAddOp
p2120
(dp2121
g518
S'+'
sg520
(i__main__
DelphiIdentAccess
p2122
(dp2123
g15
S'self'
p2124
sg439
(lp2125
(idelphi
DelphiFieldEndAccess
p2126
(dp2127
g449
S'textHeight'
p2128
sbasbsg532
(i__main__
DelphiIdentAccess
p2129
(dp2130
g15
S'top'
p2131
sg439
(lp2132
sbsbsg476
(i__main__
DelphiIdentAccess
p2133
(dp2134
g15
S'bottom'
p2135
sg439
(lp2136
sbsbasbsg1769
(lp2137
(i__main__
DelphiIdentAccess
p2138
(dp2139
g15
S'turnRightRect'
p2140
sg439
(lp2141
sbasba(idelphi
DelphiWithStatement
p2142
(dp2143
g1196
(idelphi
DelphiCompoundStatement
p2144
(dp2145
g429
(lp2146
(i__main__
DelphiAssignStatement
p2147
(dp2148
g471
(idelphi
DelphiAddOp
p2149
(dp2150
g518
S'+'
sg520
(i__main__
DelphiIdentAccess
p2151
(dp2152
g15
S'kLeftRightGap'
p2153
sg439
(lp2154
sbsg532
(i__main__
DelphiIdentAccess
p2155
(dp2156
g15
S'turnRightRect'
p2157
sg439
(lp2158
(idelphi
DelphiFieldEndAccess
p2159
(dp2160
g449
S'right'
p2161
sbasbsbsg476
(i__main__
DelphiIdentAccess
p2162
(dp2163
g15
S'left'
p2164
sg439
(lp2165
sbsba(i__main__
DelphiAssignStatement
p2166
(dp2167
g471
(idelphi
DelphiAddOp
p2168
(dp2169
g518
S'+'
sg520
(i__main__
DelphiIdentAccess
p2170
(dp2171
g15
S'self'
p2172
sg439
(lp2173
(idelphi
DelphiFieldEndAccess
p2174
(dp2175
g449
S'canvas'
p2176
sba(idelphi
DelphiFieldEndAccess
p2177
(dp2178
g449
S'textWidth'
p2179
sba(idelphi
DelphiFunctionEndAccess
p2180
(dp2181
g441
(lp2182
(idelphi
DelphiStringAccess
p2183
(dp2184
g439
(lp2185
sg14
(idelphi
DelphiStringValue
p2186
(dp2187
g14
S'+'
sbsbasbasbsg532
(i__main__
DelphiIdentAccess
p2188
(dp2189
g15
S'left'
p2190
sg439
(lp2191
sbsbsg476
(i__main__
DelphiIdentAccess
p2192
(dp2193
g15
S'right'
p2194
sg439
(lp2195
sbsba(i__main__
DelphiAssignStatement
p2196
(dp2197
g471
(i__main__
DelphiIdentAccess
p2198
(dp2199
g15
S'turnLeftRect'
p2200
sg439
(lp2201
(idelphi
DelphiFieldEndAccess
p2202
(dp2203
g449
S'top'
p2204
sbasbsg476
(i__main__
DelphiIdentAccess
p2205
(dp2206
g15
S'top'
p2207
sg439
(lp2208
sbsba(i__main__
DelphiAssignStatement
p2209
(dp2210
g471
(idelphi
DelphiAddOp
p2211
(dp2212
g518
S'+'
sg520
(i__main__
DelphiIdentAccess
p2213
(dp2214
g15
S'self'
p2215
sg439
(lp2216
(idelphi
DelphiFieldEndAccess
p2217
(dp2218
g449
S'textHeight'
p2219
sbasbsg532
(i__main__
DelphiIdentAccess
p2220
(dp2221
g15
S'top'
p2222
sg439
(lp2223
sbsbsg476
(i__main__
DelphiIdentAccess
p2224
(dp2225
g15
S'bottom'
p2226
sg439
(lp2227
sbsbasbsg1769
(lp2228
(i__main__
DelphiIdentAccess
p2229
(dp2230
g15
S'enlargeRect'
p2231
sg439
(lp2232
sbasba(idelphi
DelphiWithStatement
p2233
(dp2234
g1196
(idelphi
DelphiCompoundStatement
p2235
(dp2236
g429
(lp2237
(i__main__
DelphiAssignStatement
p2238
(dp2239
g471
(idelphi
DelphiAddOp
p2240
(dp2241
g518
S'+'
sg520
(i__main__
DelphiIdentAccess
p2242
(dp2243
g15
S'kLeftRightGap'
p2244
sg439
(lp2245
sbsg532
(i__main__
DelphiIdentAccess
p2246
(dp2247
g15
S'enlargeRect'
p2248
sg439
(lp2249
(idelphi
DelphiFieldEndAccess
p2250
(dp2251
g449
S'right'
p2252
sbasbsbsg476
(i__main__
DelphiIdentAccess
p2253
(dp2254
g15
S'left'
p2255
sg439
(lp2256
sbsba(i__main__
DelphiAssignStatement
p2257
(dp2258
g471
(idelphi
DelphiAddOp
p2259
(dp2260
g518
S'+'
sg520
(i__main__
DelphiIdentAccess
p2261
(dp2262
g15
S'self'
p2263
sg439
(lp2264
(idelphi
DelphiFieldEndAccess
p2265
(dp2266
g449
S'canvas'
p2267
sba(idelphi
DelphiFieldEndAccess
p2268
(dp2269
g449
S'textWidth'
p2270
sba(idelphi
DelphiFunctionEndAccess
p2271
(dp2272
g441
(lp2273
(idelphi
DelphiStringAccess
p2274
(dp2275
g439
(lp2276
sg14
(idelphi
DelphiStringValue
p2277
(dp2278
g14
S'-'
sbsbasbasbsg532
(i__main__
DelphiIdentAccess
p2279
(dp2280
g15
S'left'
p2281
sg439
(lp2282
sbsbsg476
(i__main__
DelphiIdentAccess
p2283
(dp2284
g15
S'right'
p2285
sg439
(lp2286
sbsba(i__main__
DelphiAssignStatement
p2287
(dp2288
g471
(i__main__
DelphiIdentAccess
p2289
(dp2290
g15
S'turnLeftRect'
p2291
sg439
(lp2292
(idelphi
DelphiFieldEndAccess
p2293
(dp2294
g449
S'top'
p2295
sbasbsg476
(i__main__
DelphiIdentAccess
p2296
(dp2297
g15
S'top'
p2298
sg439
(lp2299
sbsba(i__main__
DelphiAssignStatement
p2300
(dp2301
g471
(idelphi
DelphiAddOp
p2302
(dp2303
g518
S'+'
sg520
(i__main__
DelphiIdentAccess
p2304
(dp2305
g15
S'self'
p2306
sg439
(lp2307
(idelphi
DelphiFieldEndAccess
p2308
(dp2309
g449
S'textHeight'
p2310
sbasbsg532
(i__main__
DelphiIdentAccess
p2311
(dp2312
g15
S'top'
p2313
sg439
(lp2314
sbsbsg476
(i__main__
DelphiIdentAccess
p2315
(dp2316
g15
S'bottom'
p2317
sg439
(lp2318
sbsbasbsg1769
(lp2319
(i__main__
DelphiIdentAccess
p2320
(dp2321
g15
S'reduceRect'
p2322
sg439
(lp2323
sbasba(idelphi
DelphiWithStatement
p2324
(dp2325
g1196
(idelphi
DelphiCompoundStatement
p2326
(dp2327
g429
(lp2328
(idelphi
DelphiIfStatement
p2329
(dp2330
g433
(idelphi
DelphiRelOp
p2331
(dp2332
g539
(i__main__
DelphiIdentAccess
p2333
(dp2334
g15
S'plant'
p2335
sg439
(lp2336
sbsg544
(idelphi
DelphiNilValue
p2337
(dp2338
bsg547
g711
sbsg468
Nsg481
(i__main__
DelphiAssignStatement
p2339
(dp2340
g471
Nsg476
(i__main__
DelphiIdentAccess
p2341
(dp2342
g15
S'self'
p2343
sg439
(lp2344
(idelphi
DelphiFieldEndAccess
p2345
(dp2346
g449
S'drawText'
p2347
sba(idelphi
DelphiFunctionEndAccess
p2348
(dp2349
g441
(lp2350
(i__main__
DelphiIdentAccess
p2351
(dp2352
g15
S'tdo'
p2353
sg439
(lp2354
(idelphi
DelphiFieldEndAccess
p2355
(dp2356
g449
S'getName'
p2357
sbasba(i__main__
DelphiIdentAccess
p2358
(dp2359
g15
S'fileNameRect'
p2360
sg439
(lp2361
sba(i__main__
DelphiIdentAccess
p2362
(dp2363
g15
S'true'
p2364
sg439
(lp2365
sba(idelphi
DelphiMulOp
p2366
(dp2367
g436
(idelphi
DelphiNestedExpressionListAccess
p2368
(dp2369
g439
(lp2370
sg441
(lp2371
(i__main__
DelphiIdentAccess
p2372
(dp2373
g15
S'self'
p2374
sg439
(lp2375
(idelphi
DelphiFieldEndAccess
p2376
(dp2377
g449
S'editEnabled'
p2378
sbasbasbsg451
g452
sg453
(idelphi
DelphiNestedExpressionListAccess
p2379
(dp2380
g439
(lp2381
sg441
(lp2382
(idelphi
DelphiRelOp
p2383
(dp2384
g539
(i__main__
DelphiIdentAccess
p2385
(dp2386
g15
S'self'
p2387
sg439
(lp2388
(idelphi
DelphiFieldEndAccess
p2389
(dp2390
g449
S'selectedItemIndex'
p2391
sbasbsg544
(i__main__
DelphiIdentAccess
p2392
(dp2393
g15
S'kItemFileName'
p2394
sg439
(lp2395
sbsg547
S'='
sbasbsba(i__main__
DelphiIdentAccess
p2396
(dp2397
g15
S'false'
p2398
sg439
(lp2399
sbasbasbsbsba(i__main__
DelphiAssignStatement
p2400
(dp2401
g471
Nsg476
(i__main__
DelphiIdentAccess
p2402
(dp2403
g15
S'self'
p2404
sg439
(lp2405
(idelphi
DelphiFieldEndAccess
p2406
(dp2407
g449
S'drawText'
p2408
sba(idelphi
DelphiFunctionEndAccess
p2409
(dp2410
g441
(lp2411
(idelphi
DelphiStringAccess
p2412
(dp2413
g439
(lp2414
sg14
(idelphi
DelphiStringValue
p2415
(dp2416
g14
S'<'
sbsba(i__main__
DelphiIdentAccess
p2417
(dp2418
g15
S'turnLeftRect'
p2419
sg439
(lp2420
sba(i__main__
DelphiIdentAccess
p2421
(dp2422
g15
S'true'
p2423
sg439
(lp2424
sba(idelphi
DelphiRelOp
p2425
(dp2426
g539
(i__main__
DelphiIdentAccess
p2427
(dp2428
g15
S'self'
p2429
sg439
(lp2430
(idelphi
DelphiFieldEndAccess
p2431
(dp2432
g449
S'selectedItemIndex'
p2433
sbasbsg544
(i__main__
DelphiIdentAccess
p2434
(dp2435
g15
S'kItemTurnLeft'
p2436
sg439
(lp2437
sbsg547
S'='
sba(i__main__
DelphiIdentAccess
p2438
(dp2439
g15
S'false'
p2440
sg439
(lp2441
sbasbasbsba(i__main__
DelphiAssignStatement
p2442
(dp2443
g471
Nsg476
(i__main__
DelphiIdentAccess
p2444
(dp2445
g15
S'self'
p2446
sg439
(lp2447
(idelphi
DelphiFieldEndAccess
p2448
(dp2449
g449
S'drawText'
p2450
sba(idelphi
DelphiFunctionEndAccess
p2451
(dp2452
g441
(lp2453
(idelphi
DelphiStringAccess
p2454
(dp2455
g439
(lp2456
sg14
(idelphi
DelphiStringValue
p2457
(dp2458
g14
S'>'
sbsba(i__main__
DelphiIdentAccess
p2459
(dp2460
g15
S'turnRightRect'
p2461
sg439
(lp2462
sba(i__main__
DelphiIdentAccess
p2463
(dp2464
g15
S'true'
p2465
sg439
(lp2466
sba(idelphi
DelphiRelOp
p2467
(dp2468
g539
(i__main__
DelphiIdentAccess
p2469
(dp2470
g15
S'self'
p2471
sg439
(lp2472
(idelphi
DelphiFieldEndAccess
p2473
(dp2474
g449
S'selectedItemIndex'
p2475
sbasbsg544
(i__main__
DelphiIdentAccess
p2476
(dp2477
g15
S'kItemTurnRight'
p2478
sg439
(lp2479
sbsg547
S'='
sba(i__main__
DelphiIdentAccess
p2480
(dp2481
g15
S'false'
p2482
sg439
(lp2483
sbasbasbsba(i__main__
DelphiAssignStatement
p2484
(dp2485
g471
Nsg476
(i__main__
DelphiIdentAccess
p2486
(dp2487
g15
S'self'
p2488
sg439
(lp2489
(idelphi
DelphiFieldEndAccess
p2490
(dp2491
g449
S'drawText'
p2492
sba(idelphi
DelphiFunctionEndAccess
p2493
(dp2494
g441
(lp2495
(idelphi
DelphiStringAccess
p2496
(dp2497
g439
(lp2498
sg14
(idelphi
DelphiStringValue
p2499
(dp2500
g14
S'+'
sbsba(i__main__
DelphiIdentAccess
p2501
(dp2502
g15
S'enlargeRect'
p2503
sg439
(lp2504
sba(i__main__
DelphiIdentAccess
p2505
(dp2506
g15
S'true'
p2507
sg439
(lp2508
sba(idelphi
DelphiRelOp
p2509
(dp2510
g539
(i__main__
DelphiIdentAccess
p2511
(dp2512
g15
S'self'
p2513
sg439
(lp2514
(idelphi
DelphiFieldEndAccess
p2515
(dp2516
g449
S'selectedItemIndex'
p2517
sbasbsg544
(i__main__
DelphiIdentAccess
p2518
(dp2519
g15
S'kItemEnlarge'
p2520
sg439
(lp2521
sbsg547
S'='
sba(i__main__
DelphiIdentAccess
p2522
(dp2523
g15
S'false'
p2524
sg439
(lp2525
sbasbasbsba(i__main__
DelphiAssignStatement
p2526
(dp2527
g471
Nsg476
(i__main__
DelphiIdentAccess
p2528
(dp2529
g15
S'self'
p2530
sg439
(lp2531
(idelphi
DelphiFieldEndAccess
p2532
(dp2533
g449
S'drawText'
p2534
sba(idelphi
DelphiFunctionEndAccess
p2535
(dp2536
g441
(lp2537
(idelphi
DelphiStringAccess
p2538
(dp2539
g439
(lp2540
sg14
(idelphi
DelphiStringValue
p2541
(dp2542
g14
S'-'
sbsba(i__main__
DelphiIdentAccess
p2543
(dp2544
g15
S'reduceRect'
p2545
sg439
(lp2546
sba(i__main__
DelphiIdentAccess
p2547
(dp2548
g15
S'true'
p2549
sg439
(lp2550
sba(idelphi
DelphiRelOp
p2551
(dp2552
g539
(i__main__
DelphiIdentAccess
p2553
(dp2554
g15
S'self'
p2555
sg439
(lp2556
(idelphi
DelphiFieldEndAccess
p2557
(dp2558
g449
S'selectedItemIndex'
p2559
sbasbsg544
(i__main__
DelphiIdentAccess
p2560
(dp2561
g15
S'kItemReduce'
p2562
sg439
(lp2563
sbsg547
S'='
sba(i__main__
DelphiIdentAccess
p2564
(dp2565
g15
S'false'
p2566
sg439
(lp2567
sbasbasbsba(i__main__
DelphiAssignStatement
p2568
(dp2569
g471
Nsg476
(i__main__
DelphiIdentAccess
p2570
(dp2571
g15
S'self'
p2572
sg439
(lp2573
(idelphi
DelphiFieldEndAccess
p2574
(dp2575
g449
S'drawTdo'
p2576
sbasbsba(idelphi
DelphiIfStatement
p2577
(dp2578
g433
(idelphi
DelphiNestedExpressionListAccess
p2579
(dp2580
g439
(lp2581
sg441
(lp2582
(idelphi
DelphiRelOp
p2583
(dp2584
g539
(i__main__
DelphiIdentAccess
p2585
(dp2586
g15
S'self'
p2587
sg439
(lp2588
(idelphi
DelphiFieldEndAccess
p2589
(dp2590
g449
S'selectedItemIndex'
p2591
sbasbsg544
(i__main__
DelphiIdentAccess
p2592
(dp2593
g15
S'kItemTdo'
p2594
sg439
(lp2595
sbsg547
g711
sbasbsg468
(idelphi
DelphiCompoundStatement
p2596
(dp2597
g429
(lp2598
(i__main__
DelphiAssignStatement
p2599
(dp2600
g471
(i__main__
DelphiIdentAccess
p2601
(dp2602
g15
S'clBtnText'
p2603
sg439
(lp2604
sbsg476
(i__main__
DelphiIdentAccess
p2605
(dp2606
g15
S'pen'
p2607
sg439
(lp2608
(idelphi
DelphiFieldEndAccess
p2609
(dp2610
g449
S'color'
p2611
sbasbsba(i__main__
DelphiAssignStatement
p2612
(dp2613
g471
(idelphi
DelphiIntegerValue
p2614
(dp2615
g14
S'3'
sbsg476
(i__main__
DelphiIdentAccess
p2616
(dp2617
g15
S'pen'
p2618
sg439
(lp2619
(idelphi
DelphiFieldEndAccess
p2620
(dp2621
g449
S'width'
p2622
sbasbsbasbsg481
(idelphi
DelphiCompoundStatement
p2623
(dp2624
g429
(lp2625
(i__main__
DelphiAssignStatement
p2626
(dp2627
g471
(i__main__
DelphiIdentAccess
p2628
(dp2629
g15
S'clBtnShadow'
p2630
sg439
(lp2631
sbsg476
(i__main__
DelphiIdentAccess
p2632
(dp2633
g15
S'pen'
p2634
sg439
(lp2635
(idelphi
DelphiFieldEndAccess
p2636
(dp2637
g449
S'color'
p2638
sbasbsba(i__main__
DelphiAssignStatement
p2639
(dp2640
g471
(idelphi
DelphiIntegerValue
p2641
(dp2642
g14
S'1'
sbsg476
(i__main__
DelphiIdentAccess
p2643
(dp2644
g15
S'pen'
p2645
sg439
(lp2646
(idelphi
DelphiFieldEndAccess
p2647
(dp2648
g449
S'width'
p2649
sbasbsbasbsba(i__main__
DelphiAssignStatement
p2650
(dp2651
g471
(i__main__
DelphiIdentAccess
p2652
(dp2653
g15
S'bsClear'
p2654
sg439
(lp2655
sbsg476
(i__main__
DelphiIdentAccess
p2656
(dp2657
g15
S'brush'
p2658
sg439
(lp2659
(idelphi
DelphiFieldEndAccess
p2660
(dp2661
g449
S'style'
p2662
sbasbsba(i__main__
DelphiAssignStatement
p2663
(dp2664
g471
(idelphi
DelphiIntegerValue
p2665
(dp2666
g14
S'1'
sbsg476
(i__main__
DelphiIdentAccess
p2667
(dp2668
g15
S'pen'
p2669
sg439
(lp2670
(idelphi
DelphiFieldEndAccess
p2671
(dp2672
g449
S'width'
p2673
sbasbsba(i__main__
DelphiAssignStatement
p2674
(dp2675
g471
Nsg476
(i__main__
DelphiIdentAccess
p2676
(dp2677
g15
S'rectangle'
p2678
sg439
(lp2679
(idelphi
DelphiFunctionEndAccess
p2680
(dp2681
g441
(lp2682
(idelphi
DelphiAddOp
p2683
(dp2684
g518
S'-'
sg520
(idelphi
DelphiIntegerValue
p2685
(dp2686
g14
S'1'
sbsg532
(i__main__
DelphiIdentAccess
p2687
(dp2688
g15
S'tdoRect'
p2689
sg439
(lp2690
(idelphi
DelphiFieldEndAccess
p2691
(dp2692
g449
S'left'
p2693
sbasbsba(idelphi
DelphiAddOp
p2694
(dp2695
g518
S'-'
sg520
(idelphi
DelphiIntegerValue
p2696
(dp2697
g14
S'1'
sbsg532
(i__main__
DelphiIdentAccess
p2698
(dp2699
g15
S'tdoRect'
p2700
sg439
(lp2701
(idelphi
DelphiFieldEndAccess
p2702
(dp2703
g449
S'top'
p2704
sbasbsba(idelphi
DelphiAddOp
p2705
(dp2706
g518
S'+'
sg520
(idelphi
DelphiIntegerValue
p2707
(dp2708
g14
S'1'
sbsg532
(i__main__
DelphiIdentAccess
p2709
(dp2710
g15
S'tdoRect'
p2711
sg439
(lp2712
(idelphi
DelphiFieldEndAccess
p2713
(dp2714
g449
S'right'
p2715
sbasbsba(idelphi
DelphiAddOp
p2716
(dp2717
g518
S'+'
sg520
(idelphi
DelphiIntegerValue
p2718
(dp2719
g14
S'1'
sbsg532
(i__main__
DelphiIdentAccess
p2720
(dp2721
g15
S'tdoRect'
p2722
sg439
(lp2723
(idelphi
DelphiFieldEndAccess
p2724
(dp2725
g449
S'bottom'
p2726
sbasbsbasbasbsbasbsg1769
(lp2727
(i__main__
DelphiIdentAccess
p2728
(dp2729
g15
S'Canvas'
p2730
sg439
(lp2731
sbasbasbsg492
(lp2732
(i__main__
DelphiVarSection
p2733
(dp2734
g65
I0
sg965
(lp2735
(idelphi
DelphiVarDecl
p2736
(dp2737
g11
Nsg969
(lp2738
S'rect'
p2739
asg17
(i__main__
DelphiNamedType
p2740
(dp2741
g20
S'TRect'
p2742
sg160
g1
sg161
NsbsbasbasbsbsS'drawtdo'
p2743
(i__main__
DelphiMethodImplementation
p2744
(dp2745
g407
g250
sg98
g252
sg106
(lp2746
sg409
(lp2747
sg411
(lp2748
sg413
(lp2749
g415
asg416
(dp2750
sg108
S'PdTdoParameterPanel'
p2751
sg109
Nsg421
(lp2752
sg113
I0
sg114
g121
sg423
(i__main__
DelphiBlock
p2753
(dp2754
g426
(idelphi
DelphiCompoundStatement
p2755
(dp2756
g429
(lp2757
(idelphi
DelphiIfStatement
p2758
(dp2759
g433
(idelphi
DelphiRelOp
p2760
(dp2761
g539
(i__main__
DelphiIdentAccess
p2762
(dp2763
g15
S'plant'
p2764
sg439
(lp2765
sbsg544
(idelphi
DelphiNilValue
p2766
(dp2767
bsg547
S'='
sbsg468
Nsg481
(i__main__
DelphiExitStatement
p2768
(dp2769
g835
g2744
sbsba(idelphi
DelphiIfStatement
p2770
(dp2771
g433
(idelphi
DelphiRelOp
p2772
(dp2773
g539
(i__main__
DelphiIdentAccess
p2774
(dp2775
g15
S'tdo'
p2776
sg439
(lp2777
sbsg544
(idelphi
DelphiNilValue
p2778
(dp2779
bsg547
S'='
sbsg468
Nsg481
(i__main__
DelphiExitStatement
p2780
(dp2781
g835
g2744
sbsba(i__main__
DelphiAssignStatement
p2782
(dp2783
g471
(i__main__
DelphiIdentAccess
p2784
(dp2785
g15
S'TBitmap'
p2786
sg439
(lp2787
(idelphi
DelphiFieldEndAccess
p2788
(dp2789
g449
S'create'
p2790
sbasbsg476
(i__main__
DelphiIdentAccess
p2791
(dp2792
g15
S'bitmap'
p2793
sg439
(lp2794
sbsg940
(lp2795
S' set up clipping bitmap '
p2796
asba(i__main__
DelphiAssignStatement
p2797
(dp2798
g471
(i__main__
DelphiIdentAccess
p2799
(dp2800
g15
S'kTdoSize'
p2801
sg439
(lp2802
sbsg476
(i__main__
DelphiIdentAccess
p2803
(dp2804
g15
S'bitmap'
p2805
sg439
(lp2806
(idelphi
DelphiFieldEndAccess
p2807
(dp2808
g449
S'width'
p2809
sbasbsba(i__main__
DelphiAssignStatement
p2810
(dp2811
g471
(i__main__
DelphiIdentAccess
p2812
(dp2813
g15
S'kTdoSize'
p2814
sg439
(lp2815
sbsg476
(i__main__
DelphiIdentAccess
p2816
(dp2817
g15
S'bitmap'
p2818
sg439
(lp2819
(idelphi
DelphiFieldEndAccess
p2820
(dp2821
g449
S'height'
p2822
sbasbsba(i__main__
DelphiAssignStatement
p2823
(dp2824
g471
(i__main__
DelphiIdentAccess
p2825
(dp2826
g15
S'clWhite'
p2827
sg439
(lp2828
sbsg476
(i__main__
DelphiIdentAccess
p2829
(dp2830
g15
S'bitmap'
p2831
sg439
(lp2832
(idelphi
DelphiFieldEndAccess
p2833
(dp2834
g449
S'canvas'
p2835
sba(idelphi
DelphiFieldEndAccess
p2836
(dp2837
g449
S'brush'
p2838
sba(idelphi
DelphiFieldEndAccess
p2839
(dp2840
g449
S'color'
p2841
sbasbsba(i__main__
DelphiAssignStatement
p2842
(dp2843
g471
Nsg476
(i__main__
DelphiIdentAccess
p2844
(dp2845
g15
S'bitmap'
p2846
sg439
(lp2847
(idelphi
DelphiFieldEndAccess
p2848
(dp2849
g449
S'canvas'
p2850
sba(idelphi
DelphiFieldEndAccess
p2851
(dp2852
g449
S'rectangle'
p2853
sba(idelphi
DelphiFunctionEndAccess
p2854
(dp2855
g441
(lp2856
(idelphi
DelphiIntegerValue
p2857
(dp2858
g14
S'0'
sba(idelphi
DelphiIntegerValue
p2859
(dp2860
g14
S'0'
sba(i__main__
DelphiIdentAccess
p2861
(dp2862
g15
S'bitmap'
p2863
sg439
(lp2864
(idelphi
DelphiFieldEndAccess
p2865
(dp2866
g449
S'width'
p2867
sbasba(i__main__
DelphiIdentAccess
p2868
(dp2869
g15
S'bitmap'
p2870
sg439
(lp2871
(idelphi
DelphiFieldEndAccess
p2872
(dp2873
g449
S'height'
p2874
sbasbasbasbsba(i__main__
DelphiAssignStatement
p2875
(dp2876
g471
(i__main__
DelphiIdentAccess
p2877
(dp2878
g15
S'KfTurtle'
p2879
sg439
(lp2880
(idelphi
DelphiFieldEndAccess
p2881
(dp2882
g449
S'defaultStartUsing'
p2883
sbasbsg476
(i__main__
DelphiIdentAccess
p2884
(dp2885
g15
S'turtle'
p2886
sg439
(lp2887
sbsg940
(lp2888
S' set up turtle '
p2889
asba(idelphi
DelphiTryFinallyStatement
p2890
(dp2891
g886
(lp2892
(i__main__
DelphiAssignStatement
p2893
(dp2894
g471
(i__main__
DelphiIdentAccess
p2895
(dp2896
g15
S'bitmap'
p2897
sg439
(lp2898
(idelphi
DelphiFieldEndAccess
p2899
(dp2900
g449
S'canvas'
p2901
sbasbsg476
(i__main__
DelphiIdentAccess
p2902
(dp2903
g15
S'turtle'
p2904
sg439
(lp2905
(idelphi
DelphiFieldEndAccess
p2906
(dp2907
g449
S'drawingSurface'
p2908
sba(idelphi
DelphiFieldEndAccess
p2909
(dp2910
g449
S'pane'
p2911
sbasbsba(i__main__
DelphiAssignStatement
p2912
(dp2913
g471
Nsg476
(i__main__
DelphiIdentAccess
p2914
(dp2915
g15
S'turtle'
p2916
sg439
(lp2917
(idelphi
DelphiFieldEndAccess
p2918
(dp2919
g449
S'setDrawOptionsForDrawingTdoOnly'
p2920
sbasbsba(i__main__
DelphiAssignStatement
p2921
(dp2922
g471
Nsg476
(i__main__
DelphiIdentAccess
p2923
(dp2924
g15
S'turtle'
p2925
sg439
(lp2926
(idelphi
DelphiFieldEndAccess
p2927
(dp2928
g449
S'reset'
p2929
sbasbsg940
(lp2930
S' must be after pane and draw options set '
p2931
asba(i__main__
DelphiAssignStatement
p2932
(dp2933
g471
Nsg476
(i__main__
DelphiIdentAccess
p2934
(dp2935
g15
S'turtle'
p2936
sg439
(lp2937
(idelphi
DelphiFieldEndAccess
p2938
(dp2939
g449
S'xyz'
p2940
sba(idelphi
DelphiFunctionEndAccess
p2941
(dp2942
g441
(lp2943
(i__main__
DelphiIdentAccess
p2944
(dp2945
g15
S'position'
p2946
sg439
(lp2947
(idelphi
DelphiFieldEndAccess
p2948
(dp2949
g449
S'x'
sbasba(i__main__
DelphiIdentAccess
p2950
(dp2951
g15
S'position'
p2952
sg439
(lp2953
(idelphi
DelphiFieldEndAccess
p2954
(dp2955
g449
S'y'
sbasba(idelphi
DelphiIntegerValue
p2956
(dp2957
g14
S'0'
sbasbasbsba(idelphi
DelphiTryExceptStatement
p2958
(dp2959
g886
(lp2960
(i__main__
DelphiAssignStatement
p2961
(dp2962
g471
Nsg476
(i__main__
DelphiIdentAccess
p2963
(dp2964
g15
S'turtle'
p2965
sg439
(lp2966
(idelphi
DelphiFieldEndAccess
p2967
(dp2968
g449
S'push'
p2969
sbasbsba(i__main__
DelphiAssignStatement
p2970
(dp2971
g471
Nsg476
(i__main__
DelphiIdentAccess
p2972
(dp2973
g15
S'turtle'
p2974
sg439
(lp2975
(idelphi
DelphiFieldEndAccess
p2976
(dp2977
g449
S'rotateY'
p2978
sba(idelphi
DelphiFunctionEndAccess
p2979
(dp2980
g441
(lp2981
(i__main__
DelphiIdentAccess
p2982
(dp2983
g15
S'rotateAngle'
p2984
sg439
(lp2985
sbasbasbsba(i__main__
DelphiAssignStatement
p2986
(dp2987
g471
Nsg476
(i__main__
DelphiIdentAccess
p2988
(dp2989
g15
S'turtle'
p2990
sg439
(lp2991
(idelphi
DelphiFieldEndAccess
p2992
(dp2993
g449
S'drawingSurface'
p2994
sba(idelphi
DelphiFieldEndAccess
p2995
(dp2996
g449
S'recordingStart'
p2997
sbasbsba(i__main__
DelphiAssignStatement
p2998
(dp2999
g471
Nsg476
(i__main__
DelphiIdentAccess
p3000
(dp3001
g15
S'tdo'
p3002
sg439
(lp3003
(idelphi
DelphiFieldEndAccess
p3004
(dp3005
g449
S'draw'
p3006
sba(idelphi
DelphiFunctionEndAccess
p3007
(dp3008
g441
(lp3009
(i__main__
DelphiIdentAccess
p3010
(dp3011
g15
S'turtle'
p3012
sg439
(lp3013
sba(i__main__
DelphiIdentAccess
p3014
(dp3015
g15
S'scale'
p3016
sg439
(lp3017
sba(idelphi
DelphiStringAccess
p3018
(dp3019
g439
(lp3020
sg14
(idelphi
DelphiStringValue
p3021
(dp3022
g14
S''
sbsba(idelphi
DelphiStringAccess
p3023
(dp3024
g439
(lp3025
sg14
(idelphi
DelphiStringValue
p3026
(dp3027
g14
S''
sbsba(idelphi
DelphiIntegerValue
p3028
(dp3029
g14
S'0'
sba(idelphi
DelphiIntegerValue
p3030
(dp3031
g14
S'0'
sbasbasbsba(i__main__
DelphiAssignStatement
p3032
(dp3033
g471
Nsg476
(i__main__
DelphiIdentAccess
p3034
(dp3035
g15
S'turtle'
p3036
sg439
(lp3037
(idelphi
DelphiFieldEndAccess
p3038
(dp3039
g449
S'drawingSurface'
p3040
sba(idelphi
DelphiFieldEndAccess
p3041
(dp3042
g449
S'recordingStop'
p3043
sbasbsba(i__main__
DelphiAssignStatement
p3044
(dp3045
g471
Nsg476
(i__main__
DelphiIdentAccess
p3046
(dp3047
g15
S'turtle'
p3048
sg439
(lp3049
(idelphi
DelphiFieldEndAccess
p3050
(dp3051
g449
S'drawingSurface'
p3052
sba(idelphi
DelphiFieldEndAccess
p3053
(dp3054
g449
S'recordingDraw'
p3055
sbasbsba(i__main__
DelphiAssignStatement
p3056
(dp3057
g471
Nsg476
(i__main__
DelphiIdentAccess
p3058
(dp3059
g15
S'turtle'
p3060
sg439
(lp3061
(idelphi
DelphiFieldEndAccess
p3062
(dp3063
g449
S'drawingSurface'
p3064
sba(idelphi
DelphiFieldEndAccess
p3065
(dp3066
g449
S'clearTriangles'
p3067
sbasbsba(i__main__
DelphiAssignStatement
p3068
(dp3069
g471
Nsg476
(i__main__
DelphiIdentAccess
p3070
(dp3071
g15
S'turtle'
p3072
sg439
(lp3073
(idelphi
DelphiFieldEndAccess
p3074
(dp3075
g449
S'pop'
p3076
sbasbsbasS'exceptionHandlers'
p3077
(idelphi
DelphiExceptionHandlers
p3078
(dp3079
S'exceptionHandlerList'
p3080
(lp3081
(idelphi
DelphiExceptionHandler
p3082
(dp3083
S'classTypeIdentifier'
p3084
(i__main__
DelphiNamedType
p3085
(dp3086
g20
S'Exception'
p3087
sg160
g1
sg161
Nsbsg15
S'e'
sg1196
(idelphi
DelphiCompoundStatement
p3088
(dp3089
g429
(lp3090
(i__main__
DelphiAssignStatement
p3091
(dp3092
g471
Nsg476
(i__main__
DelphiIdentAccess
p3093
(dp3094
g15
S'messageForExceptionType'
p3095
sg439
(lp3096
(idelphi
DelphiFunctionEndAccess
p3097
(dp3098
g441
(lp3099
(i__main__
DelphiIdentAccess
p3100
(dp3101
g15
S'e'
sg439
(lp3102
sba(idelphi
DelphiStringAccess
p3103
(dp3104
g439
(lp3105
sg14
(idelphi
DelphiStringValue
p3106
(dp3107
g14
S'PdTdoParameterPanel.drawTdo'
p3108
sbsbasbasbsba(i__main__
DelphiAssignStatement
p3109
(dp3110
g471
Nsg476
(i__main__
DelphiIdentAccess
p3111
(dp3112
g15
S'bitmap'
p3113
sg439
(lp3114
(idelphi
DelphiFieldEndAccess
p3115
(dp3116
g449
S'free'
p3117
sbasbsbasbsbasS'statementList'
p3118
(lp3119
sbsba(i__main__
DelphiAssignStatement
p3120
(dp3121
g471
Nsg476
(i__main__
DelphiIdentAccess
p3122
(dp3123
g15
S'copyBitmapToCanvasWithGlobalPalette'
p3124
sg439
(lp3125
(idelphi
DelphiFunctionEndAccess
p3126
(dp3127
g441
(lp3128
(i__main__
DelphiIdentAccess
p3129
(dp3130
g15
S'bitmap'
p3131
sg439
(lp3132
sba(i__main__
DelphiIdentAccess
p3133
(dp3134
g15
S'self'
p3135
sg439
(lp3136
(idelphi
DelphiFieldEndAccess
p3137
(dp3138
g449
S'canvas'
p3139
sbasba(i__main__
DelphiIdentAccess
p3140
(dp3141
g15
S'tdoRect'
p3142
sg439
(lp3143
sbasbasbsbasg943
(lp3144
(i__main__
DelphiAssignStatement
p3145
(dp3146
g471
Nsg476
(i__main__
DelphiIdentAccess
p3147
(dp3148
g15
S'KfTurtle'
p3149
sg439
(lp3150
(idelphi
DelphiFieldEndAccess
p3151
(dp3152
g449
S'defaultStopUsing'
p3153
sbasbsba(i__main__
DelphiAssignStatement
p3154
(dp3155
g471
(idelphi
DelphiNilValue
p3156
(dp3157
bsg476
(i__main__
DelphiIdentAccess
p3158
(dp3159
g15
S'turtle'
p3160
sg439
(lp3161
sbsba(i__main__
DelphiAssignStatement
p3162
(dp3163
g471
Nsg476
(i__main__
DelphiIdentAccess
p3164
(dp3165
g15
S'bitmap'
p3166
sg439
(lp3167
(idelphi
DelphiFieldEndAccess
p3168
(dp3169
g449
S'free'
p3170
sbasbsbasbasbsg492
(lp3171
(i__main__
DelphiVarSection
p3172
(dp3173
g65
I0
sg965
(lp3174
(idelphi
DelphiVarDecl
p3175
(dp3176
g11
Nsg969
(lp3177
S'turtle'
p3178
asg17
(i__main__
DelphiNamedType
p3179
(dp3180
g20
S'KfTurtle'
p3181
sg160
g1
sg161
Nsbsba(idelphi
DelphiVarDecl
p3182
(dp3183
g11
Nsg969
(lp3184
S'bitmap'
p3185
asg17
(i__main__
DelphiNamedType
p3186
(dp3187
g20
S'TBitmap'
p3188
sg160
g1
sg161
NsbsbasbasbsbsS'domousemove'
p3189
(i__main__
DelphiMethodImplementation
p3190
(dp3191
g407
g226
sg98
g228
sg106
(lp3192
(i__main__
DelphiFormalParameter
p3193
(dp3194
g136
Nsg137
(lp3195
S'Sender'
p3196
asg17
(i__main__
DelphiNamedType
p3197
(dp3198
g20
S'TObject'
p3199
sg160
g1
sg161
Nsbsg142
Nsba(i__main__
DelphiFormalParameter
p3200
(dp3201
g136
Nsg137
(lp3202
S'Shift'
p3203
asg17
(i__main__
DelphiNamedType
p3204
(dp3205
g20
S'TShiftState'
p3206
sg160
g1
sg161
Nsbsg142
Nsba(i__main__
DelphiFormalParameter
p3207
(dp3208
g136
Nsg137
(lp3209
S'X'
aS'Y'
asg17
(i__main__
DelphiPrimitiveType
p3210
(dp3211
g20
g112
sbsg142
Nsbasg409
(lp3212
sg411
(lp3213
sg413
(lp3214
g415
ag3196
ag3203
aS'X'
aS'Y'
asg416
(dp3215
S'Y'
g3210
sg3203
g3204
sg3196
g3197
sS'X'
g3210
ssg108
S'PdTdoParameterPanel'
p3216
sg109
Nsg421
(lp3217
sg113
I0
sg114
g121
sg423
(i__main__
DelphiBlock
p3218
(dp3219
g426
(idelphi
DelphiCompoundStatement
p3220
(dp3221
g429
(lp3222
(idelphi
DelphiIfStatement
p3223
(dp3224
g433
(i__main__
DelphiIdentAccess
p3225
(dp3226
g15
S'movingTdo'
p3227
sg439
(lp3228
sbsg468
Nsg481
(idelphi
DelphiCompoundStatement
p3229
(dp3230
g429
(lp3231
(i__main__
DelphiAssignStatement
p3232
(dp3233
g471
(idelphi
DelphiAddOp
p3234
(dp3235
g518
S'+'
sg520
(idelphi
DelphiNestedExpressionListAccess
p3236
(dp3237
g439
(lp3238
sg441
(lp3239
(idelphi
DelphiAddOp
p3240
(dp3241
g518
S'-'
sg520
(i__main__
DelphiIdentAccess
p3242
(dp3243
g15
S'moveStart'
p3244
sg439
(lp3245
(idelphi
DelphiFieldEndAccess
p3246
(dp3247
g449
S'x'
sbasbsg532
(i__main__
DelphiIdentAccess
p3248
(dp3249
g15
S'x'
sg439
(lp3250
sbsbasbsg532
(i__main__
DelphiIdentAccess
p3251
(dp3252
g15
S'self'
p3253
sg439
(lp3254
(idelphi
DelphiFieldEndAccess
p3255
(dp3256
g449
S'moveStartPosition'
p3257
sba(idelphi
DelphiFieldEndAccess
p3258
(dp3259
g449
S'x'
sbasbsbsg476
(i__main__
DelphiIdentAccess
p3260
(dp3261
g15
S'self'
p3262
sg439
(lp3263
(idelphi
DelphiFieldEndAccess
p3264
(dp3265
g449
S'position'
p3266
sba(idelphi
DelphiFieldEndAccess
p3267
(dp3268
g449
S'x'
sbasbsba(i__main__
DelphiAssignStatement
p3269
(dp3270
g471
(idelphi
DelphiAddOp
p3271
(dp3272
g518
S'+'
sg520
(idelphi
DelphiNestedExpressionListAccess
p3273
(dp3274
g439
(lp3275
sg441
(lp3276
(idelphi
DelphiAddOp
p3277
(dp3278
g518
S'-'
sg520
(i__main__
DelphiIdentAccess
p3279
(dp3280
g15
S'moveStart'
p3281
sg439
(lp3282
(idelphi
DelphiFieldEndAccess
p3283
(dp3284
g449
S'y'
sbasbsg532
(i__main__
DelphiIdentAccess
p3285
(dp3286
g15
S'y'
sg439
(lp3287
sbsbasbsg532
(i__main__
DelphiIdentAccess
p3288
(dp3289
g15
S'self'
p3290
sg439
(lp3291
(idelphi
DelphiFieldEndAccess
p3292
(dp3293
g449
S'moveStartPosition'
p3294
sba(idelphi
DelphiFieldEndAccess
p3295
(dp3296
g449
S'y'
sbasbsbsg476
(i__main__
DelphiIdentAccess
p3297
(dp3298
g15
S'self'
p3299
sg439
(lp3300
(idelphi
DelphiFieldEndAccess
p3301
(dp3302
g449
S'position'
p3303
sba(idelphi
DelphiFieldEndAccess
p3304
(dp3305
g449
S'y'
sbasbsba(i__main__
DelphiAssignStatement
p3306
(dp3307
g471
Nsg476
(i__main__
DelphiIdentAccess
p3308
(dp3309
g15
S'self'
p3310
sg439
(lp3311
(idelphi
DelphiFieldEndAccess
p3312
(dp3313
g449
S'invalidate'
p3314
sbasbsbasbsbasbsg492
(lp3315
sbsbsS'recentertdo'
p3316
(i__main__
DelphiMethodImplementation
p3317
(dp3318
g407
g328
sg98
g330
sg106
(lp3319
sg409
(lp3320
sg411
(lp3321
sg413
(lp3322
g415
asg416
(dp3323
sg108
S'PdTdoParameterPanel'
p3324
sg109
Nsg421
(lp3325
sg113
I0
sg114
g121
sg423
(i__main__
DelphiBlock
p3326
(dp3327
g426
(idelphi
DelphiCompoundStatement
p3328
(dp3329
g429
(lp3330
(idelphi
DelphiIfStatement
p3331
(dp3332
g433
(idelphi
DelphiRelOp
p3333
(dp3334
g539
(i__main__
DelphiIdentAccess
p3335
(dp3336
g15
S'plant'
p3337
sg439
(lp3338
sbsg544
(idelphi
DelphiNilValue
p3339
(dp3340
bsg547
S'='
sbsg468
Nsg481
(i__main__
DelphiExitStatement
p3341
(dp3342
g835
g3317
sbsba(idelphi
DelphiIfStatement
p3343
(dp3344
g433
(idelphi
DelphiRelOp
p3345
(dp3346
g539
(i__main__
DelphiIdentAccess
p3347
(dp3348
g15
S'tdo'
p3349
sg439
(lp3350
sbsg544
(idelphi
DelphiNilValue
p3351
(dp3352
bsg547
S'='
sbsg468
Nsg481
(i__main__
DelphiExitStatement
p3353
(dp3354
g835
g3317
sbsba(i__main__
DelphiAssignStatement
p3355
(dp3356
g471
(i__main__
DelphiIdentAccess
p3357
(dp3358
g15
S'KfTurtle'
p3359
sg439
(lp3360
(idelphi
DelphiFieldEndAccess
p3361
(dp3362
g449
S'defaultStartUsing'
p3363
sbasbsg476
(i__main__
DelphiIdentAccess
p3364
(dp3365
g15
S'turtle'
p3366
sg439
(lp3367
sbsba(idelphi
DelphiTryFinallyStatement
p3368
(dp3369
g886
(lp3370
(i__main__
DelphiAssignStatement
p3371
(dp3372
g471
(idelphi
DelphiNilValue
p3373
(dp3374
bsg476
(i__main__
DelphiIdentAccess
p3375
(dp3376
g15
S'turtle'
p3377
sg439
(lp3378
(idelphi
DelphiFieldEndAccess
p3379
(dp3380
g449
S'drawingSurface'
p3381
sba(idelphi
DelphiFieldEndAccess
p3382
(dp3383
g449
S'pane'
p3384
sbasbsba(i__main__
DelphiAssignStatement
p3385
(dp3386
g471
Nsg476
(i__main__
DelphiIdentAccess
p3387
(dp3388
g15
S'turtle'
p3389
sg439
(lp3390
(idelphi
DelphiFieldEndAccess
p3391
(dp3392
g449
S'reset'
p3393
sbasbsg940
(lp3394
S' must be after pane and draw options set '
p3395
asba(i__main__
DelphiAssignStatement
p3396
(dp3397
g471
(i__main__
DelphiIdentAccess
p3398
(dp3399
g15
S'tdo'
p3400
sg439
(lp3401
(idelphi
DelphiFieldEndAccess
p3402
(dp3403
g449
S'bestPointForDrawingAtScale'
p3404
sba(idelphi
DelphiFunctionEndAccess
p3405
(dp3406
g441
(lp3407
(i__main__
DelphiIdentAccess
p3408
(dp3409
g15
S'turtle'
p3410
sg439
(lp3411
sba(i__main__
DelphiIdentAccess
p3412
(dp3413
g15
S'Point'
p3414
sg439
(lp3415
(idelphi
DelphiFunctionEndAccess
p3416
(dp3417
g441
(lp3418
(idelphi
DelphiIntegerValue
p3419
(dp3420
g14
S'0'
sba(idelphi
DelphiIntegerValue
p3421
(dp3422
g14
S'0'
sbasbasba(i__main__
DelphiIdentAccess
p3423
(dp3424
g15
S'Point'
p3425
sg439
(lp3426
(idelphi
DelphiFunctionEndAccess
p3427
(dp3428
g441
(lp3429
(i__main__
DelphiIdentAccess
p3430
(dp3431
g15
S'kTdoSize'
p3432
sg439
(lp3433
sba(i__main__
DelphiIdentAccess
p3434
(dp3435
g15
S'kTdoSize'
p3436
sg439
(lp3437
sbasbasba(i__main__
DelphiIdentAccess
p3438
(dp3439
g15
S'scale'
p3440
sg439
(lp3441
sbasbasbsg476
(i__main__
DelphiIdentAccess
p3442
(dp3443
g15
S'position'
p3444
sg439
(lp3445
sbsbasg943
(lp3446
(i__main__
DelphiAssignStatement
p3447
(dp3448
g471
Nsg476
(i__main__
DelphiIdentAccess
p3449
(dp3450
g15
S'KfTurtle'
p3451
sg439
(lp3452
(idelphi
DelphiFieldEndAccess
p3453
(dp3454
g449
S'defaultStopUsing'
p3455
sbasbsba(i__main__
DelphiAssignStatement
p3456
(dp3457
g471
(idelphi
DelphiNilValue
p3458
(dp3459
bsg476
(i__main__
DelphiIdentAccess
p3460
(dp3461
g15
S'turtle'
p3462
sg439
(lp3463
sbsbasbasbsg492
(lp3464
(i__main__
DelphiVarSection
p3465
(dp3466
g65
I0
sg965
(lp3467
(idelphi
DelphiVarDecl
p3468
(dp3469
g11
Nsg969
(lp3470
S'turtle'
p3471
asg17
(i__main__
DelphiNamedType
p3472
(dp3473
g20
S'KfTurtle'
p3474
sg160
g1
sg161
NsbsbasbasbsbsS'domouseup'
p3475
(i__main__
DelphiMethodImplementation
p3476
(dp3477
g407
g255
sg98
g257
sg106
(lp3478
(i__main__
DelphiFormalParameter
p3479
(dp3480
g136
Nsg137
(lp3481
S'Sender'
p3482
asg17
(i__main__
DelphiNamedType
p3483
(dp3484
g20
S'TObject'
p3485
sg160
g1
sg161
Nsbsg142
Nsba(i__main__
DelphiFormalParameter
p3486
(dp3487
g136
Nsg137
(lp3488
S'Button'
p3489
asg17
(i__main__
DelphiNamedType
p3490
(dp3491
g20
S'TMouseButton'
p3492
sg160
g1
sg161
Nsbsg142
Nsba(i__main__
DelphiFormalParameter
p3493
(dp3494
g136
Nsg137
(lp3495
S'Shift'
p3496
asg17
(i__main__
DelphiNamedType
p3497
(dp3498
g20
S'TShiftState'
p3499
sg160
g1
sg161
Nsbsg142
Nsba(i__main__
DelphiFormalParameter
p3500
(dp3501
g136
Nsg137
(lp3502
S'X'
aS'Y'
asg17
(i__main__
DelphiPrimitiveType
p3503
(dp3504
g20
g112
sbsg142
Nsbasg409
(lp3505
sg411
(lp3506
sg413
(lp3507
g415
ag3482
ag3489
ag3496
aS'X'
aS'Y'
asg416
(dp3508
S'Y'
g3503
sg3496
g3497
sg3489
g3490
sg3482
g3483
sS'X'
g3503
ssg108
S'PdTdoParameterPanel'
p3509
sg109
Nsg421
(lp3510
sg113
I0
sg114
g121
sg423
(i__main__
DelphiBlock
p3511
(dp3512
g426
(idelphi
DelphiCompoundStatement
p3513
(dp3514
g429
(lp3515
(idelphi
DelphiIfStatement
p3516
(dp3517
g433
(i__main__
DelphiIdentAccess
p3518
(dp3519
g15
S'Application'
p3520
sg439
(lp3521
(idelphi
DelphiFieldEndAccess
p3522
(dp3523
g449
S'terminated'
p3524
sbasbsg468
Nsg481
(i__main__
DelphiExitStatement
p3525
(dp3526
g835
g3476
sbsba(i__main__
DelphiAssignStatement
p3527
(dp3528
g471
Nsg476
(idelphi
DelphiInheritedCall
p3529
(dp3530
g15
S'doMouseUp'
p3531
sg441
(lp3532
(i__main__
DelphiIdentAccess
p3533
(dp3534
g15
S'sender'
p3535
sg439
(lp3536
sba(i__main__
DelphiIdentAccess
p3537
(dp3538
g15
S'button'
p3539
sg439
(lp3540
sba(i__main__
DelphiIdentAccess
p3541
(dp3542
g15
S'shift'
p3543
sg439
(lp3544
sba(i__main__
DelphiIdentAccess
p3545
(dp3546
g15
S'x'
sg439
(lp3547
sba(i__main__
DelphiIdentAccess
p3548
(dp3549
g15
S'y'
sg439
(lp3550
sbasbsba(idelphi
DelphiIfStatement
p3551
(dp3552
g433
(idelphi
DelphiNestedExpressionListAccess
p3553
(dp3554
g439
(lp3555
sg441
(lp3556
(i__main__
DelphiIdentAccess
p3557
(dp3558
g15
S'editEnabled'
p3559
sg439
(lp3560
sbasbsg468
Nsg481
(idelphi
DelphiCompoundStatement
p3561
(dp3562
g429
(lp3563
(i__main__
DelphiAssignStatement
p3564
(dp3565
g471
(i__main__
DelphiIdentAccess
p3566
(dp3567
g15
S'Point'
p3568
sg439
(lp3569
(idelphi
DelphiFunctionEndAccess
p3570
(dp3571
g441
(lp3572
(i__main__
DelphiIdentAccess
p3573
(dp3574
g15
S'x'
sg439
(lp3575
sba(i__main__
DelphiIdentAccess
p3576
(dp3577
g15
S'y'
sg439
(lp3578
sbasbasbsg476
(i__main__
DelphiIdentAccess
p3579
(dp3580
g15
S'thePoint'
p3581
sg439
(lp3582
sbsba(idelphi
DelphiIfStatement
p3583
(dp3584
g433
(i__main__
DelphiIdentAccess
p3585
(dp3586
g15
S'ptInRect'
p3587
sg439
(lp3588
(idelphi
DelphiFunctionEndAccess
p3589
(dp3590
g441
(lp3591
(i__main__
DelphiIdentAccess
p3592
(dp3593
g15
S'fileNameRect'
p3594
sg439
(lp3595
sba(i__main__
DelphiIdentAccess
p3596
(dp3597
g15
S'thePoint'
p3598
sg439
(lp3599
sbasbasbsg468
(idelphi
DelphiIfStatement
p3600
(dp3601
g433
(i__main__
DelphiIdentAccess
p3602
(dp3603
g15
S'ptInRect'
p3604
sg439
(lp3605
(idelphi
DelphiFunctionEndAccess
p3606
(dp3607
g441
(lp3608
(i__main__
DelphiIdentAccess
p3609
(dp3610
g15
S'tdoRect'
p3611
sg439
(lp3612
sba(i__main__
DelphiIdentAccess
p3613
(dp3614
g15
S'thePoint'
p3615
sg439
(lp3616
sbasbasbsg468
(idelphi
DelphiIfStatement
p3617
(dp3618
g433
(i__main__
DelphiIdentAccess
p3619
(dp3620
g15
S'ptInRect'
p3621
sg439
(lp3622
(idelphi
DelphiFunctionEndAccess
p3623
(dp3624
g441
(lp3625
(i__main__
DelphiIdentAccess
p3626
(dp3627
g15
S'turnLeftRect'
p3628
sg439
(lp3629
sba(i__main__
DelphiIdentAccess
p3630
(dp3631
g15
S'thePoint'
p3632
sg439
(lp3633
sbasbasbsg468
(idelphi
DelphiIfStatement
p3634
(dp3635
g433
(i__main__
DelphiIdentAccess
p3636
(dp3637
g15
S'ptInRect'
p3638
sg439
(lp3639
(idelphi
DelphiFunctionEndAccess
p3640
(dp3641
g441
(lp3642
(i__main__
DelphiIdentAccess
p3643
(dp3644
g15
S'turnRightRect'
p3645
sg439
(lp3646
sba(i__main__
DelphiIdentAccess
p3647
(dp3648
g15
S'thePoint'
p3649
sg439
(lp3650
sbasbasbsg468
(idelphi
DelphiIfStatement
p3651
(dp3652
g433
(i__main__
DelphiIdentAccess
p3653
(dp3654
g15
S'ptInRect'
p3655
sg439
(lp3656
(idelphi
DelphiFunctionEndAccess
p3657
(dp3658
g441
(lp3659
(i__main__
DelphiIdentAccess
p3660
(dp3661
g15
S'enlargeRect'
p3662
sg439
(lp3663
sba(i__main__
DelphiIdentAccess
p3664
(dp3665
g15
S'thePoint'
p3666
sg439
(lp3667
sbasbasbsg468
(idelphi
DelphiIfStatement
p3668
(dp3669
g433
(i__main__
DelphiIdentAccess
p3670
(dp3671
g15
S'ptInRect'
p3672
sg439
(lp3673
(idelphi
DelphiFunctionEndAccess
p3674
(dp3675
g441
(lp3676
(i__main__
DelphiIdentAccess
p3677
(dp3678
g15
S'reduceRect'
p3679
sg439
(lp3680
sba(i__main__
DelphiIdentAccess
p3681
(dp3682
g15
S'thePoint'
p3683
sg439
(lp3684
sbasbasbsg468
Nsg481
(idelphi
DelphiCompoundStatement
p3685
(dp3686
g429
(lp3687
(i__main__
DelphiAssignStatement
p3688
(dp3689
g471
(i__main__
DelphiIdentAccess
p3690
(dp3691
g15
S'kItemReduce'
p3692
sg439
(lp3693
sbsg476
(i__main__
DelphiIdentAccess
p3694
(dp3695
g15
S'self'
p3696
sg439
(lp3697
(idelphi
DelphiFieldEndAccess
p3698
(dp3699
g449
S'selectedItemIndex'
p3700
sbasbsba(i__main__
DelphiAssignStatement
p3701
(dp3702
g471
(idelphi
DelphiAddOp
p3703
(dp3704
g518
S'-'
sg520
(idelphi
DelphiRealValue
p3705
(dp3706
g14
S'0.1'
p3707
sbsg532
(i__main__
DelphiIdentAccess
p3708
(dp3709
g15
S'scale'
p3710
sg439
(lp3711
sbsbsg476
(i__main__
DelphiIdentAccess
p3712
(dp3713
g15
S'scale'
p3714
sg439
(lp3715
sbsba(i__main__
DelphiAssignStatement
p3716
(dp3717
g471
Nsg476
(i__main__
DelphiIdentAccess
p3718
(dp3719
g15
S'self'
p3720
sg439
(lp3721
(idelphi
DelphiFieldEndAccess
p3722
(dp3723
g449
S'recenterTdo'
p3724
sbasbsbasbsbsg481
(idelphi
DelphiCompoundStatement
p3725
(dp3726
g429
(lp3727
(i__main__
DelphiAssignStatement
p3728
(dp3729
g471
(i__main__
DelphiIdentAccess
p3730
(dp3731
g15
S'kItemEnlarge'
p3732
sg439
(lp3733
sbsg476
(i__main__
DelphiIdentAccess
p3734
(dp3735
g15
S'self'
p3736
sg439
(lp3737
(idelphi
DelphiFieldEndAccess
p3738
(dp3739
g449
S'selectedItemIndex'
p3740
sbasbsba(i__main__
DelphiAssignStatement
p3741
(dp3742
g471
(idelphi
DelphiAddOp
p3743
(dp3744
g518
S'+'
sg520
(idelphi
DelphiRealValue
p3745
(dp3746
g14
S'0.1'
p3747
sbsg532
(i__main__
DelphiIdentAccess
p3748
(dp3749
g15
S'scale'
p3750
sg439
(lp3751
sbsbsg476
(i__main__
DelphiIdentAccess
p3752
(dp3753
g15
S'scale'
p3754
sg439
(lp3755
sbsba(i__main__
DelphiAssignStatement
p3756
(dp3757
g471
Nsg476
(i__main__
DelphiIdentAccess
p3758
(dp3759
g15
S'self'
p3760
sg439
(lp3761
(idelphi
DelphiFieldEndAccess
p3762
(dp3763
g449
S'recenterTdo'
p3764
sbasbsbasbsbsg481
(idelphi
DelphiCompoundStatement
p3765
(dp3766
g429
(lp3767
(i__main__
DelphiAssignStatement
p3768
(dp3769
g471
(i__main__
DelphiIdentAccess
p3770
(dp3771
g15
S'kItemTurnRight'
p3772
sg439
(lp3773
sbsg476
(i__main__
DelphiIdentAccess
p3774
(dp3775
g15
S'self'
p3776
sg439
(lp3777
(idelphi
DelphiFieldEndAccess
p3778
(dp3779
g449
S'selectedItemIndex'
p3780
sbasbsba(i__main__
DelphiAssignStatement
p3781
(dp3782
g471
(idelphi
DelphiAddOp
p3783
(dp3784
g518
S'-'
sg520
(idelphi
DelphiIntegerValue
p3785
(dp3786
g14
S'10'
p3787
sbsg532
(i__main__
DelphiIdentAccess
p3788
(dp3789
g15
S'rotateAngle'
p3790
sg439
(lp3791
sbsbsg476
(i__main__
DelphiIdentAccess
p3792
(dp3793
g15
S'rotateAngle'
p3794
sg439
(lp3795
sbsbasbsbsg481
(idelphi
DelphiCompoundStatement
p3796
(dp3797
g429
(lp3798
(i__main__
DelphiAssignStatement
p3799
(dp3800
g471
(i__main__
DelphiIdentAccess
p3801
(dp3802
g15
S'kItemTurnLeft'
p3803
sg439
(lp3804
sbsg476
(i__main__
DelphiIdentAccess
p3805
(dp3806
g15
S'self'
p3807
sg439
(lp3808
(idelphi
DelphiFieldEndAccess
p3809
(dp3810
g449
S'selectedItemIndex'
p3811
sbasbsba(i__main__
DelphiAssignStatement
p3812
(dp3813
g471
(idelphi
DelphiAddOp
p3814
(dp3815
g518
S'+'
sg520
(idelphi
DelphiIntegerValue
p3816
(dp3817
g14
S'10'
p3818
sbsg532
(i__main__
DelphiIdentAccess
p3819
(dp3820
g15
S'rotateAngle'
p3821
sg439
(lp3822
sbsbsg476
(i__main__
DelphiIdentAccess
p3823
(dp3824
g15
S'rotateAngle'
p3825
sg439
(lp3826
sbsbasbsbsg481
(idelphi
DelphiCompoundStatement
p3827
(dp3828
g429
(lp3829
(i__main__
DelphiAssignStatement
p3830
(dp3831
g471
(i__main__
DelphiIdentAccess
p3832
(dp3833
g15
S'kItemTdo'
p3834
sg439
(lp3835
sbsg476
(i__main__
DelphiIdentAccess
p3836
(dp3837
g15
S'self'
p3838
sg439
(lp3839
(idelphi
DelphiFieldEndAccess
p3840
(dp3841
g449
S'selectedItemIndex'
p3842
sbasbsba(idelphi
DelphiIfStatement
p3843
(dp3844
g433
(i__main__
DelphiIdentAccess
p3845
(dp3846
g15
S'movingTdo'
p3847
sg439
(lp3848
sbsg468
(idelphi
DelphiIfStatement
p3849
(dp3850
g433
(idelphi
DelphiRelOp
p3851
(dp3852
g539
(i__main__
DelphiIdentAccess
p3853
(dp3854
g15
S'button'
p3855
sg439
(lp3856
sbsg544
(i__main__
DelphiIdentAccess
p3857
(dp3858
g15
S'mbLeft'
p3859
sg439
(lp3860
sbsg547
S'='
sbsg468
Nsg481
(i__main__
DelphiAssignStatement
p3861
(dp3862
g471
Nsg476
(i__main__
DelphiIdentAccess
p3863
(dp3864
g15
S'self'
p3865
sg439
(lp3866
(idelphi
DelphiFieldEndAccess
p3867
(dp3868
g449
S'pickTdo'
p3869
sbasbsbsbsg481
(idelphi
DelphiCompoundStatement
p3870
(dp3871
g429
(lp3872
(i__main__
DelphiAssignStatement
p3873
(dp3874
g471
(i__main__
DelphiIdentAccess
p3875
(dp3876
g15
S'false'
p3877
sg439
(lp3878
sbsg476
(i__main__
DelphiIdentAccess
p3879
(dp3880
g15
S'movingTdo'
p3881
sg439
(lp3882
sbsba(i__main__
DelphiAssignStatement
p3883
(dp3884
g471
(idelphi
DelphiAddOp
p3885
(dp3886
g518
S'+'
sg520
(idelphi
DelphiNestedExpressionListAccess
p3887
(dp3888
g439
(lp3889
sg441
(lp3890
(idelphi
DelphiAddOp
p3891
(dp3892
g518
S'-'
sg520
(i__main__
DelphiIdentAccess
p3893
(dp3894
g15
S'moveStart'
p3895
sg439
(lp3896
(idelphi
DelphiFieldEndAccess
p3897
(dp3898
g449
S'x'
sbasbsg532
(i__main__
DelphiIdentAccess
p3899
(dp3900
g15
S'x'
sg439
(lp3901
sbsbasbsg532
(i__main__
DelphiIdentAccess
p3902
(dp3903
g15
S'self'
p3904
sg439
(lp3905
(idelphi
DelphiFieldEndAccess
p3906
(dp3907
g449
S'moveStartPosition'
p3908
sba(idelphi
DelphiFieldEndAccess
p3909
(dp3910
g449
S'x'
sbasbsbsg476
(i__main__
DelphiIdentAccess
p3911
(dp3912
g15
S'self'
p3913
sg439
(lp3914
(idelphi
DelphiFieldEndAccess
p3915
(dp3916
g449
S'position'
p3917
sba(idelphi
DelphiFieldEndAccess
p3918
(dp3919
g449
S'x'
sbasbsba(i__main__
DelphiAssignStatement
p3920
(dp3921
g471
(idelphi
DelphiAddOp
p3922
(dp3923
g518
S'+'
sg520
(idelphi
DelphiNestedExpressionListAccess
p3924
(dp3925
g439
(lp3926
sg441
(lp3927
(idelphi
DelphiAddOp
p3928
(dp3929
g518
S'-'
sg520
(i__main__
DelphiIdentAccess
p3930
(dp3931
g15
S'moveStart'
p3932
sg439
(lp3933
(idelphi
DelphiFieldEndAccess
p3934
(dp3935
g449
S'y'
sbasbsg532
(i__main__
DelphiIdentAccess
p3936
(dp3937
g15
S'y'
sg439
(lp3938
sbsbasbsg532
(i__main__
DelphiIdentAccess
p3939
(dp3940
g15
S'self'
p3941
sg439
(lp3942
(idelphi
DelphiFieldEndAccess
p3943
(dp3944
g449
S'moveStartPosition'
p3945
sba(idelphi
DelphiFieldEndAccess
p3946
(dp3947
g449
S'y'
sbasbsbsg476
(i__main__
DelphiIdentAccess
p3948
(dp3949
g15
S'self'
p3950
sg439
(lp3951
(idelphi
DelphiFieldEndAccess
p3952
(dp3953
g449
S'position'
p3954
sba(idelphi
DelphiFieldEndAccess
p3955
(dp3956
g449
S'y'
sbasbsba(i__main__
DelphiAssignStatement
p3957
(dp3958
g471
(i__main__
DelphiIdentAccess
p3959
(dp3960
g15
S'point'
p3961
sg439
(lp3962
(idelphi
DelphiFunctionEndAccess
p3963
(dp3964
g441
(lp3965
(idelphi
DelphiIntegerValue
p3966
(dp3967
g14
S'0'
sba(idelphi
DelphiIntegerValue
p3968
(dp3969
g14
S'0'
sbasbasbsg476
(i__main__
DelphiIdentAccess
p3970
(dp3971
g15
S'moveStart'
p3972
sg439
(lp3973
sbsba(i__main__
DelphiAssignStatement
p3974
(dp3975
g471
Nsg476
(i__main__
DelphiIdentAccess
p3976
(dp3977
g15
S'self'
p3978
sg439
(lp3979
(idelphi
DelphiFieldEndAccess
p3980
(dp3981
g449
S'invalidate'
p3982
sbasbsbasbsbasbsbsg481
(idelphi
DelphiCompoundStatement
p3983
(dp3984
g429
(lp3985
(i__main__
DelphiAssignStatement
p3986
(dp3987
g471
(i__main__
DelphiIdentAccess
p3988
(dp3989
g15
S'kItemFileName'
p3990
sg439
(lp3991
sbsg476
(i__main__
DelphiIdentAccess
p3992
(dp3993
g15
S'self'
p3994
sg439
(lp3995
(idelphi
DelphiFieldEndAccess
p3996
(dp3997
g449
S'selectedItemIndex'
p3998
sbasbsba(i__main__
DelphiAssignStatement
p3999
(dp4000
g471
Nsg476
(i__main__
DelphiIdentAccess
p4001
(dp4002
g15
S'self'
p4003
sg439
(lp4004
(idelphi
DelphiFieldEndAccess
p4005
(dp4006
g449
S'pickTdo'
p4007
sbasbsbasbsba(i__main__
DelphiAssignStatement
p4008
(dp4009
g471
Nsg476
(i__main__
DelphiIdentAccess
p4010
(dp4011
g15
S'self'
p4012
sg439
(lp4013
(idelphi
DelphiFieldEndAccess
p4014
(dp4015
g449
S'invalidate'
p4016
sbasbsbasbsbasbsg492
(lp4017
(i__main__
DelphiVarSection
p4018
(dp4019
g65
I0
sg965
(lp4020
(idelphi
DelphiVarDecl
p4021
(dp4022
g11
Nsg969
(lp4023
S'thePoint'
p4024
asg17
(i__main__
DelphiNamedType
p4025
(dp4026
g20
S'TPoint'
p4027
sg160
g1
sg161
NsbsbasbasbsbsS'initialize'
p4028
(i__main__
DelphiMethodImplementation
p4029
(dp4030
g407
g286
sg98
g288
sg106
(lp4031
sg409
(lp4032
sg411
(lp4033
sg413
(lp4034
g415
asg416
(dp4035
sg108
S'PdTdoParameterPanel'
p4036
sg109
Nsg421
(lp4037
sg113
I0
sg114
g121
sg423
(i__main__
DelphiBlock
p4038
(dp4039
g426
(idelphi
DelphiCompoundStatement
p4040
(dp4041
g429
(lp4042
(i__main__
DelphiAssignStatement
p4043
(dp4044
g471
(idelphi
DelphiIntegerValue
p4045
(dp4046
g14
S'0'
sbsg476
(i__main__
DelphiIdentAccess
p4047
(dp4048
g15
S'rotateAngle'
p4049
sg439
(lp4050
sbsba(i__main__
DelphiAssignStatement
p4051
(dp4052
g471
(idelphi
DelphiRealValue
p4053
(dp4054
g14
S'0.2'
p4055
sbsg476
(i__main__
DelphiIdentAccess
p4056
(dp4057
g15
S'scale'
p4058
sg439
(lp4059
sbsba(i__main__
DelphiAssignStatement
p4060
(dp4061
g471
(i__main__
DelphiIdentAccess
p4062
(dp4063
g15
S'Point'
p4064
sg439
(lp4065
(idelphi
DelphiFunctionEndAccess
p4066
(dp4067
g441
(lp4068
(idelphi
DelphiIntegerValue
p4069
(dp4070
g14
S'0'
sba(idelphi
DelphiIntegerValue
p4071
(dp4072
g14
S'0'
sbasbasbsg476
(i__main__
DelphiIdentAccess
p4073
(dp4074
g15
S'position'
p4075
sg439
(lp4076
sbsba(i__main__
DelphiAssignStatement
p4077
(dp4078
g471
(i__main__
DelphiIdentAccess
p4079
(dp4080
g15
S'false'
p4081
sg439
(lp4082
sbsg476
(i__main__
DelphiIdentAccess
p4083
(dp4084
g15
S'movingTdo'
p4085
sg439
(lp4086
sbsbasbsg492
(lp4087
sbsbsS'destroy'
p4088
(i__main__
DelphiMethodImplementation
p4089
(dp4090
g407
g291
sg98
g293
sg106
(lp4091
sg409
(lp4092
sg411
(lp4093
sg413
(lp4094
g415
asg416
(dp4095
sg108
S'PdTdoParameterPanel'
p4096
sg109
Nsg421
(lp4097
sg113
I0
sg114
g295
sg423
(i__main__
DelphiBlock
p4098
(dp4099
g426
(idelphi
DelphiCompoundStatement
p4100
(dp4101
g429
(lp4102
(i__main__
DelphiAssignStatement
p4103
(dp4104
g471
Nsg476
(i__main__
DelphiIdentAccess
p4105
(dp4106
g15
S'tdo'
p4107
sg439
(lp4108
(idelphi
DelphiFieldEndAccess
p4109
(dp4110
g449
S'free'
p4111
sbasbsba(i__main__
DelphiAssignStatement
p4112
(dp4113
g471
(idelphi
DelphiNilValue
p4114
(dp4115
bsg476
(i__main__
DelphiIdentAccess
p4116
(dp4117
g15
S'tdo'
p4118
sg439
(lp4119
sbsbasbsg492
(lp4120
sbsbsS'resizeelements'
p4121
(i__main__
DelphiMethodImplementation
p4122
(dp4123
g407
g203
sg98
g205
sg106
(lp4124
sg409
(lp4125
sg411
(lp4126
sg413
(lp4127
g415
asg416
(dp4128
sg108
S'PdTdoParameterPanel'
p4129
sg109
Nsg421
(lp4130
sg113
I0
sg114
g121
sg423
(i__main__
DelphiBlock
p4131
(dp4132
g426
(idelphi
DelphiCompoundStatement
p4133
(dp4134
g429
Nsg940
(lp4135
S' do nothing '
p4136
asbsg492
(lp4137
sbsbsS'updateplantvalues'
p4138
(i__main__
DelphiMethodImplementation
p4139
(dp4140
g407
g333
sg98
g335
sg106
(lp4141
sg409
(lp4142
sg411
(lp4143
sg413
(lp4144
g415
asg416
(dp4145
sg108
S'PdTdoParameterPanel'
p4146
sg109
Nsg421
(lp4147
sg113
I0
sg114
g121
sg423
(i__main__
DelphiBlock
p4148
(dp4149
g426
(idelphi
DelphiCompoundStatement
p4150
(dp4151
g429
Nsg940
(lp4152
S" this won't ever be changed by the simulation, so don't respond "
p4153
asbsg492
(lp4154
sbsbssS'propertyDeclarations'
p4155
(dp4156
sS'variableNamesInDeclaredOrder'
p4157
(lp4158
g79
ag73
ag83
ag71
ag75
ag97
ag95
ag81
ag77
ag89
ag91
ag85
ag87
ag93
asg940
(lp4159
S'<'
aS'>'
aS'+'
aS'-'
asbasS'includedUnits'
p4160
NsS'implementationUses'
p4161
(lp4162
S'SysUtils'
p4163
aS'Dialogs'
p4164
aS'Forms'
p4165
aS'updcom'
p4166
aS'umath'
p4167
aS'uunits'
p4168
aS'usupport'
p4169
aS'udomain'
p4170
aS'udebug'
p4171
aS'utdoedit'
p4172
aS'upicktdo'
p4173
aS'ubmpsupport'
p4174
asg98
S'upp_tdo'
p4175
sS'constSections'
p4176
(lp4177
g5
asS'globalsInProperCase'
p4178
NsS'interfaceUses'
p4179
(lp4180
S'delphi_compatability'
p4181
aS'ExtCtrls'
p4182
aS'Classes'
p4183
aS'StdCtrls'
p4184
aS'Controls'
p4185
aS'WinTypes'
p4186
aS'WinProcs'
p4187
aS'Graphics'
p4188
aS'Messages'
p4189
aS'uplant'
p4190
aS'uparams'
p4191
aS'uppanel'
p4192
aS'utdo'
p4193
aS'uturtle'
p4194
asS'finalCommentToken'
p4195
(i__main__
PassStatement
p4196
(dp4197
g492
(lp4198
sbsS'varSections'
p4199
(lp4200
sS'globals'
p4201
NsS'originalFileName'
p4202
S'../../PlantStudioInPython/converted_source/upp_tdo.pas'
p4203
sS'proceduralImplementations'
p4204
(dp4205
sS'fileName'
p4206
S'/Users/pdf/Documents/workspace/PlantStudioInPython/converted_source/upp_tdo.pas'
p4207
sS'proceduralDeclarations'
p4208
(dp4209
sS'types'
p4210
(dp4211
S'pdtdoparameterpanel'
p4212
g66
ssb.