(i__main__
DelphiUnit
p1
(dp2
S'sectionsInOrderDefined'
p3
(lp4
(i__main__
DelphiConstSection
p5
(dp6
S'constDeclList'
p7
(lp8
(idelphi
DelphiConstDeclaration
p9
(dp10
S'constExpression'
p11
(idelphi
DelphiIntegerValue
p12
(dp13
S'string'
p14
S'1'
sbsS'ident'
p15
S'kItemColorRect'
p16
sS'theType'
p17
(idelphi
DelphiPrimitiveType
p18
(dp19
S'typeName'
p20
S'UNDEFINED_NEEDS_CALCULATION'
p21
sbsba(idelphi
DelphiConstDeclaration
p22
(dp23
g11
(idelphi
DelphiIntegerValue
p24
(dp25
g14
S'2'
sbsg15
S'kItemRedSlider'
p26
sg17
(idelphi
DelphiPrimitiveType
p27
(dp28
g20
g21
sbsba(idelphi
DelphiConstDeclaration
p29
(dp30
g11
(idelphi
DelphiIntegerValue
p31
(dp32
g14
S'3'
sbsg15
S'kItemGreenSlider'
p33
sg17
(idelphi
DelphiPrimitiveType
p34
(dp35
g20
g21
sbsba(idelphi
DelphiConstDeclaration
p36
(dp37
g11
(idelphi
DelphiIntegerValue
p38
(dp39
g14
S'4'
sbsg15
S'kItemBlueSlider'
p40
sg17
(idelphi
DelphiPrimitiveType
p41
(dp42
g20
g21
sbsba(idelphi
DelphiConstDeclaration
p43
(dp44
g11
(idelphi
DelphiIntegerValue
p45
(dp46
g14
S'40'
p47
sbsg15
S'kColorRectSize'
p48
sg17
(idelphi
DelphiPrimitiveType
p49
(dp50
g20
g21
sbsba(idelphi
DelphiConstDeclaration
p51
(dp52
g11
(idelphi
DelphiIntegerValue
p53
(dp54
g14
S'30'
p55
sbsg15
S'kMinSliderLength'
p56
sg17
(idelphi
DelphiPrimitiveType
p57
(dp58
g20
g21
sbsbasS'atTopLevel'
p59
I1
sba(i__main__
DelphiClass
p60
(dp61
S'variableNamesInProperCase'
p62
(dp63
S'currentcolor'
p64
S'currentColor'
p65
sS'colorwhiledragging'
p66
S'colorWhileDragging'
p67
sS'redslider'
p68
S'redSlider'
p69
sS'blueslider'
p70
S'blueSlider'
p71
sS'colorrect'
p72
S'colorRect'
p73
sS'greenslider'
p74
S'greenSlider'
p75
ssS'name'
p76
S'PdColorParameterPanel'
p77
sS'methodDeclarations'
p78
(dp79
S'maxselecteditemindex'
p80
(i__main__
DelphiMethodDeclaration
p81
(dp82
g76
S'maxSelectedItemIndex'
p83
sS'formalParameters'
p84
(lp85
sS'className'
p86
g77
sS'resultType'
p87
(i__main__
DelphiPrimitiveType
p88
(dp89
g20
S'integer'
p90
sbsS'isClassMethod'
p91
I0
sS'methodType'
p92
S'function'
p93
sbsS'updateenabling'
p94
(i__main__
DelphiMethodDeclaration
p95
(dp96
g76
S'updateEnabling'
p97
sg84
(lp98
sg86
g77
sg87
Nsg91
I0
sg92
S'procedure'
p99
sbsS'disablesliders'
p100
(i__main__
DelphiMethodDeclaration
p101
(dp102
g76
S'disableSliders'
p103
sg84
(lp104
sg86
g77
sg87
Nsg91
I0
sg92
g99
sbsS'sliderkeydown'
p105
(i__main__
DelphiMethodDeclaration
p106
(dp107
g76
S'sliderKeyDown'
p108
sg84
(lp109
(i__main__
DelphiFormalParameter
p110
(dp111
S'initialValue'
p112
NsS'names'
p113
(lp114
S'sender'
p115
asg17
(i__main__
DelphiNamedType
p116
(dp117
g20
S'TObject'
p118
sS'unitDefinedIn'
p119
g1
sS'unitName'
p120
NsbsS'parameterVariety'
p121
Nsbasg86
g77
sg87
Nsg91
I0
sg92
g99
sbsS'maxwidth'
p122
(i__main__
DelphiMethodDeclaration
p123
(dp124
g76
S'maxWidth'
p125
sg84
(lp126
sg86
g77
sg87
(i__main__
DelphiPrimitiveType
p127
(dp128
g20
g90
sbsg91
I0
sg92
g93
sbsS'updatecurrentvalue'
p129
(i__main__
DelphiMethodDeclaration
p130
(dp131
g76
S'updateCurrentValue'
p132
sg84
(lp133
(i__main__
DelphiFormalParameter
p134
(dp135
g112
Nsg113
(lp136
S'aFieldIndex'
p137
asg17
(i__main__
DelphiPrimitiveType
p138
(dp139
g20
g90
sbsg121
Nsbasg86
g77
sg87
Nsg91
I0
sg92
g99
sbsS'domouseup'
p140
(i__main__
DelphiMethodDeclaration
p141
(dp142
g76
S'doMouseUp'
p143
sg84
(lp144
(i__main__
DelphiFormalParameter
p145
(dp146
g112
Nsg113
(lp147
S'Sender'
p148
asg17
(i__main__
DelphiNamedType
p149
(dp150
g20
S'TObject'
p151
sg119
g1
sg120
Nsbsg121
Nsba(i__main__
DelphiFormalParameter
p152
(dp153
g112
Nsg113
(lp154
S'Button'
p155
asg17
(i__main__
DelphiNamedType
p156
(dp157
g20
S'TMouseButton'
p158
sg119
g1
sg120
Nsbsg121
Nsba(i__main__
DelphiFormalParameter
p159
(dp160
g112
Nsg113
(lp161
S'Shift'
p162
asg17
(i__main__
DelphiNamedType
p163
(dp164
g20
S'TShiftState'
p165
sg119
g1
sg120
Nsbsg121
Nsba(i__main__
DelphiFormalParameter
p166
(dp167
g112
Nsg113
(lp168
S'X'
aS'Y'
asg17
(i__main__
DelphiPrimitiveType
p169
(dp170
g20
g90
sbsg121
Nsbasg86
g77
sg87
Nsg91
I0
sg92
g99
sbsS'uncollapsedheight'
p171
(i__main__
DelphiMethodDeclaration
p172
(dp173
g76
S'uncollapsedHeight'
p174
sg84
(lp175
sg86
g77
sg87
(i__main__
DelphiPrimitiveType
p176
(dp177
g20
g90
sbsg91
I0
sg92
g93
sbsS'dokeydown'
p178
(i__main__
DelphiMethodDeclaration
p179
(dp180
g76
S'doKeyDown'
p181
sg84
(lp182
(i__main__
DelphiFormalParameter
p183
(dp184
g112
Nsg113
(lp185
S'sender'
p186
asg17
(i__main__
DelphiNamedType
p187
(dp188
g20
S'TObject'
p189
sg119
g1
sg120
Nsbsg121
Nsba(i__main__
DelphiFormalParameter
p190
(dp191
g112
Nsg113
(lp192
S'key'
p193
asg17
(i__main__
DelphiPrimitiveType
p194
(dp195
g20
S'word'
p196
sbsg121
S'var'
p197
sba(i__main__
DelphiFormalParameter
p198
(dp199
g112
Nsg113
(lp200
S'shift'
p201
asg17
(i__main__
DelphiNamedType
p202
(dp203
g20
S'TShiftState'
p204
sg119
g1
sg120
Nsbsg121
Nsbasg86
g77
sg87
Nsg91
I0
sg92
g99
sbsS'updatedisplay'
p205
(i__main__
DelphiMethodDeclaration
p206
(dp207
g76
S'updateDisplay'
p208
sg84
(lp209
sg86
g77
sg87
Nsg91
I0
sg92
g99
sbsS'slidermousedown'
p210
(i__main__
DelphiMethodDeclaration
p211
(dp212
g76
S'sliderMouseDown'
p213
sg84
(lp214
(i__main__
DelphiFormalParameter
p215
(dp216
g112
Nsg113
(lp217
S'Sender'
p218
asg17
(i__main__
DelphiNamedType
p219
(dp220
g20
S'TObject'
p221
sg119
g1
sg120
Nsbsg121
Nsbasg86
g77
sg87
Nsg91
I0
sg92
g99
sbsS'minwidth'
p222
(i__main__
DelphiMethodDeclaration
p223
(dp224
g76
S'minWidth'
p225
sg84
(lp226
(i__main__
DelphiFormalParameter
p227
(dp228
g112
Nsg113
(lp229
S'requestedWidth'
p230
asg17
(i__main__
DelphiPrimitiveType
p231
(dp232
g20
g90
sbsg121
Nsbasg86
g77
sg87
(i__main__
DelphiPrimitiveType
p233
(dp234
g20
g90
sbsg91
I0
sg92
g93
sbsS'paint'
p235
(i__main__
DelphiMethodDeclaration
p236
(dp237
g76
S'paint'
p238
sg84
(lp239
sg86
g77
sg87
Nsg91
I0
sg92
g99
sbsS'getpalette'
p240
(i__main__
DelphiMethodDeclaration
p241
(dp242
g76
S'GetPalette'
p243
sg84
(lp244
sg86
g77
sg87
(i__main__
DelphiNamedType
p245
(dp246
g20
S'HPALETTE'
p247
sg119
g1
sg120
Nsbsg91
I0
sg92
g93
sbsS'slidermousemove'
p248
(i__main__
DelphiMethodDeclaration
p249
(dp250
g76
S'sliderMouseMove'
p251
sg84
(lp252
(i__main__
DelphiFormalParameter
p253
(dp254
g112
Nsg113
(lp255
S'Sender'
p256
asg17
(i__main__
DelphiNamedType
p257
(dp258
g20
S'TObject'
p259
sg119
g1
sg120
Nsbsg121
Nsbasg86
g77
sg87
Nsg91
I0
sg92
g99
sbsS'slidermouseup'
p260
(i__main__
DelphiMethodDeclaration
p261
(dp262
g76
S'sliderMouseUp'
p263
sg84
(lp264
(i__main__
DelphiFormalParameter
p265
(dp266
g112
Nsg113
(lp267
S'Sender'
p268
asg17
(i__main__
DelphiNamedType
p269
(dp270
g20
S'TObject'
p271
sg119
g1
sg120
Nsbsg121
Nsbasg86
g77
sg87
Nsg91
I0
sg92
g99
sbsS'resizeelements'
p272
(i__main__
DelphiMethodDeclaration
p273
(dp274
g76
S'resizeElements'
p275
sg84
(lp276
sg86
g77
sg87
Nsg91
I0
sg92
g99
sbsS'initialize'
p277
(i__main__
DelphiMethodDeclaration
p278
(dp279
g76
S'initialize'
p280
sg84
(lp281
sg86
g77
sg87
Nsg91
I0
sg92
g99
sbsS'fillrectwithcolor'
p282
(i__main__
DelphiMethodDeclaration
p283
(dp284
g76
S'fillRectWithColor'
p285
sg84
(lp286
(i__main__
DelphiFormalParameter
p287
(dp288
g112
Nsg113
(lp289
S'aRect'
p290
asg17
(i__main__
DelphiNamedType
p291
(dp292
g20
S'TRect'
p293
sg119
g1
sg120
Nsbsg121
Nsba(i__main__
DelphiFormalParameter
p294
(dp295
g112
Nsg113
(lp296
S'aColor'
p297
asg17
(i__main__
DelphiNamedType
p298
(dp299
g20
S'TColorRef'
p300
sg119
g1
sg120
Nsbsg121
Nsbasg86
g77
sg87
Nsg91
I0
sg92
g99
sbsS'updateplantvalues'
p301
(i__main__
DelphiMethodDeclaration
p302
(dp303
g76
S'updatePlantValues'
p304
sg84
(lp305
sg86
g77
sg87
Nsg91
I0
sg92
g99
sbsS'initslider'
p306
(i__main__
DelphiMethodDeclaration
p307
(dp308
g76
S'initSlider'
p309
sg84
(lp310
(i__main__
DelphiFormalParameter
p311
(dp312
g112
Nsg113
(lp313
S'slider'
p314
asg17
(i__main__
DelphiNamedType
p315
(dp316
g20
S'KfSlider'
p317
sg119
g1
sg120
Nsbsg121
Nsbasg86
g77
sg87
Nsg91
I0
sg92
g99
sbssS'superclassNamedTypes'
p318
(lp319
(i__main__
DelphiNamedType
p320
(dp321
g20
S'PdParameterPanel'
p322
sg119
g1
sg120
NsbasS'variableNames'
p323
(dp324
S'currentcolor'
p325
(i__main__
DelphiNamedType
p326
(dp327
g20
S'TColorRef'
p328
sg119
g1
sg120
NsbsS'colorwhiledragging'
p329
g326
sS'redslider'
p330
(i__main__
DelphiNamedType
p331
(dp332
g20
S'KfSlider'
p333
sg119
g1
sg120
NsbsS'blueslider'
p334
(i__main__
DelphiNamedType
p335
(dp336
g20
S'KfSlider'
p337
sg119
g1
sg120
NsbsS'colorrect'
p338
(i__main__
DelphiNamedType
p339
(dp340
g20
S'TRect'
p341
sg119
g1
sg120
NsbsS'greenslider'
p342
(i__main__
DelphiNamedType
p343
(dp344
g20
S'KfSlider'
p345
sg119
g1
sg120
NsbssS'methodNamesInDefinedOrder'
p346
(lp347
S'getpalette'
p348
aS'initialize'
p349
aS'initslider'
p350
aS'dokeydown'
p351
aS'domouseup'
p352
aS'updateenabling'
p353
aS'updateplantvalues'
p354
aS'updatecurrentvalue'
p355
aS'disablesliders'
p356
aS'updatedisplay'
p357
aS'slidermousedown'
p358
aS'slidermousemove'
p359
aS'slidermouseup'
p360
aS'sliderkeydown'
p361
aS'maxwidth'
p362
aS'minwidth'
p363
aS'uncollapsedheight'
p364
aS'resizeelements'
p365
aS'maxselecteditemindex'
p366
aS'paint'
p367
aS'fillrectwithcolor'
p368
asS'methodImplementations'
p369
(dp370
S'maxselecteditemindex'
p371
(i__main__
DelphiMethodImplementation
p372
(dp373
S'originalDeclaration'
p374
g81
sg76
g83
sg84
(lp375
sS'varParamIndexes'
p376
(lp377
sS'varParamsSkipped'
p378
(lp379
sS'argNames'
p380
(lp381
S'self'
p382
asS'argTypes'
p383
(dp384
sg86
S'PdColorParameterPanel'
p385
sg87
(i__main__
DelphiPrimitiveType
p386
(dp387
g20
g90
sbsS'varParamNames'
p388
(lp389
sg91
I0
sg92
g93
sS'block'
p390
(i__main__
DelphiBlock
p391
(dp392
S'compoundStatement'
p393
(idelphi
DelphiCompoundStatement
p394
(dp395
S'statements'
p396
(lp397
(idelphi
DelphiIfStatement
p398
(dp399
S'expression'
p400
(idelphi
DelphiMulOp
p401
(dp402
S'signedFactor2'
p403
(idelphi
DelphiNestedExpressionListAccess
p404
(dp405
S'endAccessList'
p406
(lp407
sS'expressionList'
p408
(lp409
(i__main__
DelphiIdentAccess
p410
(dp411
g15
S'redSlider'
p412
sg406
(lp413
(idelphi
DelphiFieldEndAccess
p414
(dp415
S'field'
p416
S'enabled'
p417
sbasbasbsS'mulOp'
p418
S'and'
p419
sS'signedFactor1'
p420
(idelphi
DelphiNestedExpressionListAccess
p421
(dp422
g406
(lp423
sg408
(lp424
(idelphi
DelphiNot
p425
(dp426
S'factor'
p427
(i__main__
DelphiIdentAccess
p428
(dp429
g15
S'param'
p430
sg406
(lp431
(idelphi
DelphiFieldEndAccess
p432
(dp433
g416
S'collapsed'
p434
sbasbsbasbsbsS'ifFalseStatement'
p435
(i__main__
DelphiAssignStatement
p436
(dp437
S'newValueExpression'
p438
(i__main__
DelphiIdentAccess
p439
(dp440
g15
S'kItemLabel'
p441
sg406
(lp442
sbsS'destinationExpression'
p443
(i__main__
DelphiIdentAccess
p444
(dp445
g15
S'result'
p446
sg406
(lp447
sbsbsS'ifTrueStatement'
p448
(i__main__
DelphiAssignStatement
p449
(dp450
g438
(i__main__
DelphiIdentAccess
p451
(dp452
g15
S'kItemBlueSlider'
p453
sg406
(lp454
sbsg443
(i__main__
DelphiIdentAccess
p455
(dp456
g15
S'result'
p457
sg406
(lp458
sbsbsbasbsS'limitedDeclSectionList'
p459
(lp460
sbsbsS'updateenabling'
p461
(i__main__
DelphiMethodImplementation
p462
(dp463
g374
g95
sg76
g97
sg84
(lp464
sg376
(lp465
sg378
(lp466
sg380
(lp467
g382
asg383
(dp468
sg86
S'PdColorParameterPanel'
p469
sg87
Nsg388
(lp470
sg91
I0
sg92
g99
sg390
(i__main__
DelphiBlock
p471
(dp472
g393
(idelphi
DelphiCompoundStatement
p473
(dp474
g396
(lp475
(i__main__
DelphiAssignStatement
p476
(dp477
g438
Nsg443
(idelphi
DelphiInheritedCall
p478
(dp479
g15
S'updateEnabling'
p480
sg408
Nsbsba(i__main__
DelphiAssignStatement
p481
(dp482
g438
(idelphi
DelphiRelOp
p483
(dp484
S'simpleExpression1'
p485
(i__main__
DelphiIdentAccess
p486
(dp487
g15
S'plant'
p488
sg406
(lp489
sbsS'simpleExpression2'
p490
(idelphi
DelphiNilValue
p491
(dp492
bsS'relOp'
p493
S'<>'
p494
sbsg443
(i__main__
DelphiIdentAccess
p495
(dp496
g15
S'redSlider'
p497
sg406
(lp498
(idelphi
DelphiFieldEndAccess
p499
(dp500
g416
S'enabled'
p501
sbasbsba(i__main__
DelphiAssignStatement
p502
(dp503
g438
(idelphi
DelphiRelOp
p504
(dp505
g485
(i__main__
DelphiIdentAccess
p506
(dp507
g15
S'plant'
p508
sg406
(lp509
sbsg490
(idelphi
DelphiNilValue
p510
(dp511
bsg493
g494
sbsg443
(i__main__
DelphiIdentAccess
p512
(dp513
g15
S'greenSlider'
p514
sg406
(lp515
(idelphi
DelphiFieldEndAccess
p516
(dp517
g416
S'enabled'
p518
sbasbsba(i__main__
DelphiAssignStatement
p519
(dp520
g438
(idelphi
DelphiRelOp
p521
(dp522
g485
(i__main__
DelphiIdentAccess
p523
(dp524
g15
S'plant'
p525
sg406
(lp526
sbsg490
(idelphi
DelphiNilValue
p527
(dp528
bsg493
g494
sbsg443
(i__main__
DelphiIdentAccess
p529
(dp530
g15
S'blueSlider'
p531
sg406
(lp532
(idelphi
DelphiFieldEndAccess
p533
(dp534
g416
S'enabled'
p535
sbasbsba(i__main__
DelphiAssignStatement
p536
(dp537
g438
(i__main__
DelphiIdentAccess
p538
(dp539
g15
S'self'
p540
sg406
(lp541
(idelphi
DelphiFieldEndAccess
p542
(dp543
g416
S'readOnly'
p544
sbasbsg443
(i__main__
DelphiIdentAccess
p545
(dp546
g15
S'redSlider'
p547
sg406
(lp548
(idelphi
DelphiFieldEndAccess
p549
(dp550
g416
S'readOnly'
p551
sbasbsba(i__main__
DelphiAssignStatement
p552
(dp553
g438
(i__main__
DelphiIdentAccess
p554
(dp555
g15
S'self'
p556
sg406
(lp557
(idelphi
DelphiFieldEndAccess
p558
(dp559
g416
S'readOnly'
p560
sbasbsg443
(i__main__
DelphiIdentAccess
p561
(dp562
g15
S'greenSlider'
p563
sg406
(lp564
(idelphi
DelphiFieldEndAccess
p565
(dp566
g416
S'readOnly'
p567
sbasbsba(i__main__
DelphiAssignStatement
p568
(dp569
g438
(i__main__
DelphiIdentAccess
p570
(dp571
g15
S'self'
p572
sg406
(lp573
(idelphi
DelphiFieldEndAccess
p574
(dp575
g416
S'readOnly'
p576
sbasbsg443
(i__main__
DelphiIdentAccess
p577
(dp578
g15
S'blueSlider'
p579
sg406
(lp580
(idelphi
DelphiFieldEndAccess
p581
(dp582
g416
S'readOnly'
p583
sbasbsbasbsg459
(lp584
sbsbsS'disablesliders'
p585
(i__main__
DelphiMethodImplementation
p586
(dp587
g374
g101
sg76
g103
sg84
(lp588
sg376
(lp589
sg378
(lp590
sg380
(lp591
g382
asg383
(dp592
sg86
S'PdColorParameterPanel'
p593
sg87
Nsg388
(lp594
sg91
I0
sg92
g99
sg390
(i__main__
DelphiBlock
p595
(dp596
g393
(idelphi
DelphiCompoundStatement
p597
(dp598
g396
(lp599
(i__main__
DelphiAssignStatement
p600
(dp601
g438
(idelphi
DelphiIntegerValue
p602
(dp603
g14
S'0'
sbsg443
(i__main__
DelphiIdentAccess
p604
(dp605
g15
S'redSlider'
p606
sg406
(lp607
(idelphi
DelphiFieldEndAccess
p608
(dp609
g416
S'currentValue'
p610
sbasbsba(i__main__
DelphiAssignStatement
p611
(dp612
g438
(i__main__
DelphiIdentAccess
p613
(dp614
g15
S'false'
p615
sg406
(lp616
sbsg443
(i__main__
DelphiIdentAccess
p617
(dp618
g15
S'redSlider'
p619
sg406
(lp620
(idelphi
DelphiFieldEndAccess
p621
(dp622
g416
S'enabled'
p623
sbasbsba(i__main__
DelphiAssignStatement
p624
(dp625
g438
(idelphi
DelphiIntegerValue
p626
(dp627
g14
S'0'
sbsg443
(i__main__
DelphiIdentAccess
p628
(dp629
g15
S'greenSlider'
p630
sg406
(lp631
(idelphi
DelphiFieldEndAccess
p632
(dp633
g416
S'currentValue'
p634
sbasbsba(i__main__
DelphiAssignStatement
p635
(dp636
g438
(i__main__
DelphiIdentAccess
p637
(dp638
g15
S'false'
p639
sg406
(lp640
sbsg443
(i__main__
DelphiIdentAccess
p641
(dp642
g15
S'greenSlider'
p643
sg406
(lp644
(idelphi
DelphiFieldEndAccess
p645
(dp646
g416
S'enabled'
p647
sbasbsba(i__main__
DelphiAssignStatement
p648
(dp649
g438
(idelphi
DelphiIntegerValue
p650
(dp651
g14
S'0'
sbsg443
(i__main__
DelphiIdentAccess
p652
(dp653
g15
S'blueSlider'
p654
sg406
(lp655
(idelphi
DelphiFieldEndAccess
p656
(dp657
g416
S'currentValue'
p658
sbasbsba(i__main__
DelphiAssignStatement
p659
(dp660
g438
(i__main__
DelphiIdentAccess
p661
(dp662
g15
S'false'
p663
sg406
(lp664
sbsg443
(i__main__
DelphiIdentAccess
p665
(dp666
g15
S'blueSlider'
p667
sg406
(lp668
(idelphi
DelphiFieldEndAccess
p669
(dp670
g416
S'enabled'
p671
sbasbsbasbsg459
(lp672
sbsbsS'sliderkeydown'
p673
(i__main__
DelphiMethodImplementation
p674
(dp675
g374
g106
sg76
g108
sg84
(lp676
(i__main__
DelphiFormalParameter
p677
(dp678
g112
Nsg113
(lp679
S'sender'
p680
asg17
(i__main__
DelphiNamedType
p681
(dp682
g20
S'TOBject'
p683
sg119
g1
sg120
Nsbsg121
Nsbasg376
(lp684
sg378
(lp685
sg380
(lp686
g382
ag680
asg383
(dp687
g680
g681
ssg86
S'PdColorParameterPanel'
p688
sg87
Nsg388
(lp689
sg91
I0
sg92
g99
sg390
(i__main__
DelphiBlock
p690
(dp691
g393
(idelphi
DelphiCompoundStatement
p692
(dp693
g396
(lp694
(i__main__
DelphiAssignStatement
p695
(dp696
g438
Nsg443
(i__main__
DelphiIdentAccess
p697
(dp698
g15
S'self'
p699
sg406
(lp700
(idelphi
DelphiFieldEndAccess
p701
(dp702
g416
S'sliderMouseUp'
p703
sba(idelphi
DelphiFunctionEndAccess
p704
(dp705
g408
(lp706
(i__main__
DelphiIdentAccess
p707
(dp708
g15
S'sender'
p709
sg406
(lp710
sbasbasbsbasbsg459
(lp711
sbsbsS'maxwidth'
p712
(i__main__
DelphiMethodImplementation
p713
(dp714
g374
g123
sg76
g125
sg84
(lp715
sg376
(lp716
sg378
(lp717
sg380
(lp718
g382
asg383
(dp719
sg86
S'PdColorParameterPanel'
p720
sg87
(i__main__
DelphiPrimitiveType
p721
(dp722
g20
g90
sbsg388
(lp723
sg91
I0
sg92
g93
sg390
(i__main__
DelphiBlock
p724
(dp725
g393
(idelphi
DelphiCompoundStatement
p726
(dp727
g396
(lp728
(i__main__
DelphiAssignStatement
p729
(dp730
g438
(idelphi
DelphiAddOp
p731
(dp732
S'addOp'
p733
S'+'
sS'term2'
p734
(i__main__
DelphiIdentAccess
p735
(dp736
g15
S'intMax'
p737
sg406
(lp738
(idelphi
DelphiFunctionEndAccess
p739
(dp740
g408
(lp741
(i__main__
DelphiIdentAccess
p742
(dp743
g15
S'self'
p744
sg406
(lp745
(idelphi
DelphiFieldEndAccess
p746
(dp747
g416
S'labelWidth'
p748
sbasba(i__main__
DelphiIdentAccess
p749
(dp750
g15
S'kEditMaxWidth'
p751
sg406
(lp752
sbasbasbsS'term1'
p753
(idelphi
DelphiMulOp
p754
(dp755
g403
(idelphi
DelphiIntegerValue
p756
(dp757
g14
S'2'
sbsg418
S'*'
sg420
(i__main__
DelphiIdentAccess
p758
(dp759
g15
S'kLeftRightGap'
p760
sg406
(lp761
sbsbsbsg443
(i__main__
DelphiIdentAccess
p762
(dp763
g15
S'result'
p764
sg406
(lp765
sbsbasbsg459
(lp766
sbsbsS'updatecurrentvalue'
p767
(i__main__
DelphiMethodImplementation
p768
(dp769
g374
g130
sg76
g132
sg84
(lp770
(i__main__
DelphiFormalParameter
p771
(dp772
g112
Nsg113
(lp773
S'aFieldIndex'
p774
asg17
(i__main__
DelphiPrimitiveType
p775
(dp776
g20
g90
sbsg121
Nsbasg376
(lp777
sg378
(lp778
sg380
(lp779
g382
ag774
asg383
(dp780
g774
g775
ssg86
S'PdColorParameterPanel'
p781
sg87
Nsg388
(lp782
sg91
I0
sg92
g99
sg390
(i__main__
DelphiBlock
p783
(dp784
g393
(idelphi
DelphiCompoundStatement
p785
(dp786
g396
(lp787
(idelphi
DelphiIfStatement
p788
(dp789
g400
(idelphi
DelphiMulOp
p790
(dp791
g403
(idelphi
DelphiNestedExpressionListAccess
p792
(dp793
g406
(lp794
sg408
(lp795
(idelphi
DelphiRelOp
p796
(dp797
g485
(i__main__
DelphiIdentAccess
p798
(dp799
g15
S'param'
p800
sg406
(lp801
(idelphi
DelphiFieldEndAccess
p802
(dp803
g416
S'fieldType'
p804
sbasbsg490
(i__main__
DelphiIdentAccess
p805
(dp806
g15
S'kFieldColor'
p807
sg406
(lp808
sbsg493
S'='
sbasbsg418
g419
sg420
(idelphi
DelphiNestedExpressionListAccess
p809
(dp810
g406
(lp811
sg408
(lp812
(idelphi
DelphiRelOp
p813
(dp814
g485
(i__main__
DelphiIdentAccess
p815
(dp816
g15
S'plant'
p817
sg406
(lp818
sbsg490
(idelphi
DelphiNilValue
p819
(dp820
bsg493
g494
sbasbsbsg435
(i__main__
DelphiAssignStatement
p821
(dp822
g438
Nsg443
(i__main__
DelphiIdentAccess
p823
(dp824
g15
S'self'
p825
sg406
(lp826
(idelphi
DelphiFieldEndAccess
p827
(dp828
g416
S'disableSliders'
p829
sbasbsbsg448
(idelphi
DelphiCompoundStatement
p830
(dp831
g396
(lp832
(i__main__
DelphiAssignStatement
p833
(dp834
g438
Nsg443
(i__main__
DelphiIdentAccess
p835
(dp836
g15
S'plant'
p837
sg406
(lp838
(idelphi
DelphiFieldEndAccess
p839
(dp840
g416
S'transferField'
p841
sba(idelphi
DelphiFunctionEndAccess
p842
(dp843
g408
(lp844
(i__main__
DelphiIdentAccess
p845
(dp846
g15
S'kGetField'
p847
sg406
(lp848
sba(i__main__
DelphiIdentAccess
p849
(dp850
g15
S'currentColor'
p851
sg406
(lp852
sba(i__main__
DelphiIdentAccess
p853
(dp854
g15
S'param'
p855
sg406
(lp856
(idelphi
DelphiFieldEndAccess
p857
(dp858
g416
S'fieldNumber'
p859
sbasba(i__main__
DelphiIdentAccess
p860
(dp861
g15
S'kFieldColor'
p862
sg406
(lp863
sba(i__main__
DelphiIdentAccess
p864
(dp865
g15
S'kNotArray'
p866
sg406
(lp867
sba(i__main__
DelphiIdentAccess
p868
(dp869
g15
S'false'
p870
sg406
(lp871
sba(idelphi
DelphiNilValue
p872
(dp873
basbasbsbasbsbasbsg459
(lp874
sbsbsS'uncollapsedheight'
p875
(i__main__
DelphiMethodImplementation
p876
(dp877
g374
g172
sg76
g174
sg84
(lp878
sg376
(lp879
sg378
(lp880
sg380
(lp881
g382
asg383
(dp882
sg86
S'PdColorParameterPanel'
p883
sg87
(i__main__
DelphiPrimitiveType
p884
(dp885
g20
g90
sbsg388
(lp886
sg91
I0
sg92
g93
sg390
(i__main__
DelphiBlock
p887
(dp888
g393
(idelphi
DelphiCompoundStatement
p889
(dp890
g396
(lp891
(i__main__
DelphiAssignStatement
p892
(dp893
g438
(idelphi
DelphiAddOp
p894
(dp895
g733
S'+'
sg734
(idelphi
DelphiMulOp
p896
(dp897
g403
(idelphi
DelphiIntegerValue
p898
(dp899
g14
S'3'
sbsg418
S'*'
sg420
(i__main__
DelphiIdentAccess
p900
(dp901
g15
S'kTopBottomGap'
p902
sg406
(lp903
sbsbsg753
(idelphi
DelphiAddOp
p904
(dp905
g733
S'+'
sg734
(idelphi
DelphiMulOp
p906
(dp907
g403
(idelphi
DelphiIntegerValue
p908
(dp909
g14
S'2'
sbsg418
S'*'
sg420
(i__main__
DelphiIdentAccess
p910
(dp911
g15
S'kBetweenGap'
p912
sg406
(lp913
sbsbsg753
(idelphi
DelphiAddOp
p914
(dp915
g733
S'+'
sg734
(idelphi
DelphiMulOp
p916
(dp917
g403
(idelphi
DelphiIntegerValue
p918
(dp919
g14
S'3'
sbsg418
S'*'
sg420
(i__main__
DelphiIdentAccess
p920
(dp921
g15
S'intMax'
p922
sg406
(lp923
(idelphi
DelphiFunctionEndAccess
p924
(dp925
g408
(lp926
(i__main__
DelphiIdentAccess
p927
(dp928
g15
S'redSlider'
p929
sg406
(lp930
(idelphi
DelphiFieldEndAccess
p931
(dp932
g416
S'height'
p933
sbasba(i__main__
DelphiIdentAccess
p934
(dp935
g15
S'self'
p936
sg406
(lp937
(idelphi
DelphiFieldEndAccess
p938
(dp939
g416
S'textHeight'
p940
sbasbasbasbsbsg753
(i__main__
DelphiIdentAccess
p941
(dp942
g15
S'self'
p943
sg406
(lp944
(idelphi
DelphiFieldEndAccess
p945
(dp946
g416
S'collapsedHeight'
p947
sbasbsbsbsbsg443
(i__main__
DelphiIdentAccess
p948
(dp949
g15
S'result'
p950
sg406
(lp951
sbsbasbsg459
(lp952
sbsbsS'dokeydown'
p953
(i__main__
DelphiMethodImplementation
p954
(dp955
g374
g179
sg76
g181
sg84
(lp956
(i__main__
DelphiFormalParameter
p957
(dp958
g112
Nsg113
(lp959
S'sender'
p960
asg17
(i__main__
DelphiNamedType
p961
(dp962
g20
S'TObject'
p963
sg119
g1
sg120
Nsbsg121
Nsba(i__main__
DelphiFormalParameter
p964
(dp965
g112
Nsg113
(lp966
S'key'
p967
asg17
(i__main__
DelphiPrimitiveType
p968
(dp969
g20
g196
sbsg121
g197
sba(i__main__
DelphiFormalParameter
p970
(dp971
g112
Nsg113
(lp972
S'shift'
p973
asg17
(i__main__
DelphiNamedType
p974
(dp975
g20
S'TShiftState'
p976
sg119
g1
sg120
Nsbsg121
Nsbasg376
(lp977
I1
asg378
(lp978
sg380
(lp979
g382
ag960
ag967
ag973
asg383
(dp980
g973
g974
sg960
g961
sg967
g968
ssg86
S'PdColorParameterPanel'
p981
sg87
Nsg388
(lp982
g967
asg91
I0
sg92
g99
sg390
(i__main__
DelphiBlock
p983
(dp984
g393
(idelphi
DelphiCompoundStatement
p985
(dp986
g396
(lp987
(idelphi
DelphiIfStatement
p988
(dp989
g400
(idelphi
DelphiMulOp
p990
(dp991
g403
(idelphi
DelphiNestedExpressionListAccess
p992
(dp993
g406
(lp994
sg408
(lp995
(idelphi
DelphiNot
p996
(dp997
g427
(i__main__
DelphiIdentAccess
p998
(dp999
g15
S'self'
p1000
sg406
(lp1001
(idelphi
DelphiFieldEndAccess
p1002
(dp1003
g416
S'readOnly'
p1004
sbasbsbasbsg418
g419
sg420
(idelphi
DelphiNestedExpressionListAccess
p1005
(dp1006
g406
(lp1007
sg408
(lp1008
(idelphi
DelphiRelOp
p1009
(dp1010
g485
(i__main__
DelphiIdentAccess
p1011
(dp1012
g15
S'plant'
p1013
sg406
(lp1014
sbsg490
(idelphi
DelphiNilValue
p1015
(dp1016
bsg493
g494
sbasbsbsg435
Nsg448
(idelphi
DelphiCaseStatement
p1017
(dp1018
S'elseStatement'
p1019
Nsg400
(i__main__
DelphiIdentAccess
p1020
(dp1021
g15
S'key'
p1022
sg406
(lp1023
sbsS'caseSelectorList'
p1024
(lp1025
(idelphi
DelphiCaseSelector
p1026
(dp1027
S'statement'
p1028
(idelphi
DelphiCaseStatement
p1029
(dp1030
g1019
Nsg400
(i__main__
DelphiIdentAccess
p1031
(dp1032
g15
S'self'
p1033
sg406
(lp1034
(idelphi
DelphiFieldEndAccess
p1035
(dp1036
g416
S'selectedItemIndex'
p1037
sbasbsg1024
(lp1038
(idelphi
DelphiCaseSelector
p1039
(dp1040
g1028
(idelphi
DelphiCompoundStatement
p1041
(dp1042
g396
(lp1043
(i__main__
DelphiAssignStatement
p1044
(dp1045
g438
Nsg443
(i__main__
DelphiIdentAccess
p1046
(dp1047
g15
S'redSlider'
p1048
sg406
(lp1049
(idelphi
DelphiFieldEndAccess
p1050
(dp1051
g416
S'doKeyDown'
p1052
sba(idelphi
DelphiFunctionEndAccess
p1053
(dp1054
g408
(lp1055
(i__main__
DelphiIdentAccess
p1056
(dp1057
g15
S'sender'
p1058
sg406
(lp1059
sba(i__main__
DelphiIdentAccess
p1060
(dp1061
g15
S'key'
p1062
sg406
(lp1063
sba(i__main__
DelphiIdentAccess
p1064
(dp1065
g15
S'shift'
p1066
sg406
(lp1067
sbasbasbsS'commentLinesBefore'
p1068
(lp1069
S' process slider arrow keys first '
p1070
asba(i__main__
DelphiExitStatement
p1071
(dp1072
S'proceduralOrMethodImplementation'
p1073
g954
sbasbsS'caseLabelList'
p1074
(lp1075
(i__main__
DelphiIdentAccess
p1076
(dp1077
g15
S'kItemRedSlider'
p1078
sg406
(lp1079
sbasba(idelphi
DelphiCaseSelector
p1080
(dp1081
g1028
(idelphi
DelphiCompoundStatement
p1082
(dp1083
g396
(lp1084
(i__main__
DelphiAssignStatement
p1085
(dp1086
g438
Nsg443
(i__main__
DelphiIdentAccess
p1087
(dp1088
g15
S'greenSlider'
p1089
sg406
(lp1090
(idelphi
DelphiFieldEndAccess
p1091
(dp1092
g416
S'doKeyDown'
p1093
sba(idelphi
DelphiFunctionEndAccess
p1094
(dp1095
g408
(lp1096
(i__main__
DelphiIdentAccess
p1097
(dp1098
g15
S'sender'
p1099
sg406
(lp1100
sba(i__main__
DelphiIdentAccess
p1101
(dp1102
g15
S'key'
p1103
sg406
(lp1104
sba(i__main__
DelphiIdentAccess
p1105
(dp1106
g15
S'shift'
p1107
sg406
(lp1108
sbasbasbsba(i__main__
DelphiExitStatement
p1109
(dp1110
g1073
g954
sbasbsg1074
(lp1111
(i__main__
DelphiIdentAccess
p1112
(dp1113
g15
S'kItemGreenSlider'
p1114
sg406
(lp1115
sbasba(idelphi
DelphiCaseSelector
p1116
(dp1117
g1028
(idelphi
DelphiCompoundStatement
p1118
(dp1119
g396
(lp1120
(i__main__
DelphiAssignStatement
p1121
(dp1122
g438
Nsg443
(i__main__
DelphiIdentAccess
p1123
(dp1124
g15
S'blueSlider'
p1125
sg406
(lp1126
(idelphi
DelphiFieldEndAccess
p1127
(dp1128
g416
S'doKeyDown'
p1129
sba(idelphi
DelphiFunctionEndAccess
p1130
(dp1131
g408
(lp1132
(i__main__
DelphiIdentAccess
p1133
(dp1134
g15
S'sender'
p1135
sg406
(lp1136
sba(i__main__
DelphiIdentAccess
p1137
(dp1138
g15
S'key'
p1139
sg406
(lp1140
sba(i__main__
DelphiIdentAccess
p1141
(dp1142
g15
S'shift'
p1143
sg406
(lp1144
sbasbasbsba(i__main__
DelphiExitStatement
p1145
(dp1146
g1073
g954
sbasbsg1074
(lp1147
(i__main__
DelphiIdentAccess
p1148
(dp1149
g15
S'kItemBlueSlider'
p1150
sg406
(lp1151
sbasba(idelphi
DelphiCaseSelector
p1152
(dp1153
g1028
(idelphi
DelphiCompoundStatement
p1154
(dp1155
g396
(lp1156
(i__main__
DelphiAssignStatement
p1157
(dp1158
g438
Nsg443
(i__main__
DelphiIdentAccess
p1159
(dp1160
g15
S'self'
p1161
sg406
(lp1162
(idelphi
DelphiFieldEndAccess
p1163
(dp1164
g416
S'doMouseUp'
p1165
sba(idelphi
DelphiFunctionEndAccess
p1166
(dp1167
g408
(lp1168
(i__main__
DelphiIdentAccess
p1169
(dp1170
g15
S'self'
p1171
sg406
(lp1172
sba(i__main__
DelphiIdentAccess
p1173
(dp1174
g15
S'mbLeft'
p1175
sg406
(lp1176
sba(idelphi
DelphiSetConstructor
p1177
(dp1178
S'setElementList'
p1179
(lp1180
sba(idelphi
DelphiAddOp
p1181
(dp1182
g733
S'+'
sg734
(idelphi
DelphiIntegerValue
p1183
(dp1184
g14
S'1'
sbsg753
(i__main__
DelphiIdentAccess
p1185
(dp1186
g15
S'colorRect'
p1187
sg406
(lp1188
(idelphi
DelphiFieldEndAccess
p1189
(dp1190
g416
S'left'
p1191
sbasbsba(idelphi
DelphiAddOp
p1192
(dp1193
g733
S'+'
sg734
(idelphi
DelphiIntegerValue
p1194
(dp1195
g14
S'1'
sbsg753
(i__main__
DelphiIdentAccess
p1196
(dp1197
g15
S'colorRect'
p1198
sg406
(lp1199
(idelphi
DelphiFieldEndAccess
p1200
(dp1201
g416
S'top'
p1202
sbasbsbasbasbsbasbsg1074
(lp1203
(i__main__
DelphiIdentAccess
p1204
(dp1205
g15
S'kItemColorRect'
p1206
sg406
(lp1207
sbasbasbsg1074
(lp1208
(i__main__
DelphiIdentAccess
p1209
(dp1210
g15
S'VK_HOME'
p1211
sg406
(lp1212
sba(i__main__
DelphiIdentAccess
p1213
(dp1214
g15
S'VK_END'
p1215
sg406
(lp1216
sba(i__main__
DelphiIdentAccess
p1217
(dp1218
g15
S'VK_DOWN'
p1219
sg406
(lp1220
sba(i__main__
DelphiIdentAccess
p1221
(dp1222
g15
S'VK_LEFT'
p1223
sg406
(lp1224
sba(i__main__
DelphiIdentAccess
p1225
(dp1226
g15
S'VK_UP'
p1227
sg406
(lp1228
sba(i__main__
DelphiIdentAccess
p1229
(dp1230
g15
S'VK_RIGHT'
p1231
sg406
(lp1232
sba(i__main__
DelphiIdentAccess
p1233
(dp1234
g15
S'VK_NEXT'
p1235
sg406
(lp1236
sba(i__main__
DelphiIdentAccess
p1237
(dp1238
g15
S'VK_PRIOR'
p1239
sg406
(lp1240
sba(i__main__
DelphiIdentAccess
p1241
(dp1242
g15
S'VK_RETURN'
p1243
sg406
(lp1244
sbasbasbsba(i__main__
DelphiAssignStatement
p1245
(dp1246
g438
Nsg443
(idelphi
DelphiInheritedCall
p1247
(dp1248
g15
S'doKeyDown'
p1249
sg408
(lp1250
(i__main__
DelphiIdentAccess
p1251
(dp1252
g15
S'sender'
p1253
sg406
(lp1254
sba(i__main__
DelphiIdentAccess
p1255
(dp1256
g15
S'key'
p1257
sg406
(lp1258
sba(i__main__
DelphiIdentAccess
p1259
(dp1260
g15
S'shift'
p1261
sg406
(lp1262
sbasbsbasbsg459
(lp1263
sbsbsS'updatedisplay'
p1264
(i__main__
DelphiMethodImplementation
p1265
(dp1266
g374
g206
sg76
g208
sg84
(lp1267
sg376
(lp1268
sg378
(lp1269
sg380
(lp1270
g382
asg383
(dp1271
sg86
S'PdColorParameterPanel'
p1272
sg87
Nsg388
(lp1273
sg91
I0
sg92
g99
sg390
(i__main__
DelphiBlock
p1274
(dp1275
g393
(idelphi
DelphiCompoundStatement
p1276
(dp1277
g396
(lp1278
(idelphi
DelphiIfStatement
p1279
(dp1280
g400
(idelphi
DelphiMulOp
p1281
(dp1282
g403
(idelphi
DelphiNestedExpressionListAccess
p1283
(dp1284
g406
(lp1285
sg408
(lp1286
(idelphi
DelphiRelOp
p1287
(dp1288
g485
(i__main__
DelphiIdentAccess
p1289
(dp1290
g15
S'param'
p1291
sg406
(lp1292
(idelphi
DelphiFieldEndAccess
p1293
(dp1294
g416
S'fieldType'
p1295
sbasbsg490
(i__main__
DelphiIdentAccess
p1296
(dp1297
g15
S'kFieldColor'
p1298
sg406
(lp1299
sbsg493
S'='
sbasbsg418
g419
sg420
(idelphi
DelphiNestedExpressionListAccess
p1300
(dp1301
g406
(lp1302
sg408
(lp1303
(idelphi
DelphiRelOp
p1304
(dp1305
g485
(i__main__
DelphiIdentAccess
p1306
(dp1307
g15
S'plant'
p1308
sg406
(lp1309
sbsg490
(idelphi
DelphiNilValue
p1310
(dp1311
bsg493
g494
sbasbsbsg435
(i__main__
DelphiAssignStatement
p1312
(dp1313
g438
Nsg443
(i__main__
DelphiIdentAccess
p1314
(dp1315
g15
S'self'
p1316
sg406
(lp1317
(idelphi
DelphiFieldEndAccess
p1318
(dp1319
g416
S'disableSliders'
p1320
sbasbsbsg448
(idelphi
DelphiCompoundStatement
p1321
(dp1322
g396
(lp1323
(i__main__
DelphiAssignStatement
p1324
(dp1325
g438
(i__main__
DelphiIdentAccess
p1326
(dp1327
g15
S'getRValue'
p1328
sg406
(lp1329
(idelphi
DelphiFunctionEndAccess
p1330
(dp1331
g408
(lp1332
(i__main__
DelphiIdentAccess
p1333
(dp1334
g15
S'currentColor'
p1335
sg406
(lp1336
sbasbasbsg443
(i__main__
DelphiIdentAccess
p1337
(dp1338
g15
S'redSlider'
p1339
sg406
(lp1340
(idelphi
DelphiFieldEndAccess
p1341
(dp1342
g416
S'currentValue'
p1343
sbasbsba(i__main__
DelphiAssignStatement
p1344
(dp1345
g438
(i__main__
DelphiIdentAccess
p1346
(dp1347
g15
S'getGValue'
p1348
sg406
(lp1349
(idelphi
DelphiFunctionEndAccess
p1350
(dp1351
g408
(lp1352
(i__main__
DelphiIdentAccess
p1353
(dp1354
g15
S'currentColor'
p1355
sg406
(lp1356
sbasbasbsg443
(i__main__
DelphiIdentAccess
p1357
(dp1358
g15
S'greenSlider'
p1359
sg406
(lp1360
(idelphi
DelphiFieldEndAccess
p1361
(dp1362
g416
S'currentValue'
p1363
sbasbsba(i__main__
DelphiAssignStatement
p1364
(dp1365
g438
(i__main__
DelphiIdentAccess
p1366
(dp1367
g15
S'getBValue'
p1368
sg406
(lp1369
(idelphi
DelphiFunctionEndAccess
p1370
(dp1371
g408
(lp1372
(i__main__
DelphiIdentAccess
p1373
(dp1374
g15
S'currentColor'
p1375
sg406
(lp1376
sbasbasbsg443
(i__main__
DelphiIdentAccess
p1377
(dp1378
g15
S'blueSlider'
p1379
sg406
(lp1380
(idelphi
DelphiFieldEndAccess
p1381
(dp1382
g416
S'currentValue'
p1383
sbasbsbasbsbasbsg459
(lp1384
sbsbsS'slidermousedown'
p1385
(i__main__
DelphiMethodImplementation
p1386
(dp1387
g374
g211
sg76
g213
sg84
(lp1388
(i__main__
DelphiFormalParameter
p1389
(dp1390
g112
Nsg113
(lp1391
S'Sender'
p1392
asg17
(i__main__
DelphiNamedType
p1393
(dp1394
g20
S'TObject'
p1395
sg119
g1
sg120
Nsbsg121
Nsbasg376
(lp1396
sg378
(lp1397
sg380
(lp1398
g382
ag1392
asg383
(dp1399
g1392
g1393
ssg86
S'PdColorParameterPanel'
p1400
sg87
Nsg388
(lp1401
sg91
I0
sg92
g99
sg390
(i__main__
DelphiBlock
p1402
(dp1403
g393
(idelphi
DelphiCompoundStatement
p1404
(dp1405
g396
(lp1406
(idelphi
DelphiIfStatement
p1407
(dp1408
g400
(idelphi
DelphiRelOp
p1409
(dp1410
g485
(i__main__
DelphiIdentAccess
p1411
(dp1412
g15
S'plant'
p1413
sg406
(lp1414
sbsg490
(idelphi
DelphiNilValue
p1415
(dp1416
bsg493
S'='
sbsg435
Nsg448
(i__main__
DelphiExitStatement
p1417
(dp1418
g1073
g1386
sbsba(i__main__
DelphiAssignStatement
p1419
(dp1420
g438
(i__main__
DelphiIdentAccess
p1421
(dp1422
g15
S'support_rgb'
p1423
sg406
(lp1424
(idelphi
DelphiFunctionEndAccess
p1425
(dp1426
g408
(lp1427
(i__main__
DelphiIdentAccess
p1428
(dp1429
g15
S'redSlider'
p1430
sg406
(lp1431
(idelphi
DelphiFieldEndAccess
p1432
(dp1433
g416
S'currentValue'
p1434
sbasba(i__main__
DelphiIdentAccess
p1435
(dp1436
g15
S'greenSlider'
p1437
sg406
(lp1438
(idelphi
DelphiFieldEndAccess
p1439
(dp1440
g416
S'currentValue'
p1441
sbasba(i__main__
DelphiIdentAccess
p1442
(dp1443
g15
S'blueSlider'
p1444
sg406
(lp1445
(idelphi
DelphiFieldEndAccess
p1446
(dp1447
g416
S'currentValue'
p1448
sbasbasbasbsg443
(i__main__
DelphiIdentAccess
p1449
(dp1450
g15
S'colorWhileDragging'
p1451
sg406
(lp1452
sbsba(idelphi
DelphiIfStatement
p1453
(dp1454
g400
(idelphi
DelphiRelOp
p1455
(dp1456
g485
(i__main__
DelphiIdentAccess
p1457
(dp1458
g15
S'sender'
p1459
sg406
(lp1460
sbsg490
(i__main__
DelphiIdentAccess
p1461
(dp1462
g15
S'redSlider'
p1463
sg406
(lp1464
sbsg493
S'='
sbsg435
(idelphi
DelphiIfStatement
p1465
(dp1466
g400
(idelphi
DelphiRelOp
p1467
(dp1468
g485
(i__main__
DelphiIdentAccess
p1469
(dp1470
g15
S'sender'
p1471
sg406
(lp1472
sbsg490
(i__main__
DelphiIdentAccess
p1473
(dp1474
g15
S'greenSlider'
p1475
sg406
(lp1476
sbsg493
S'='
sbsg435
(idelphi
DelphiIfStatement
p1477
(dp1478
g400
(idelphi
DelphiRelOp
p1479
(dp1480
g485
(i__main__
DelphiIdentAccess
p1481
(dp1482
g15
S'sender'
p1483
sg406
(lp1484
sbsg490
(i__main__
DelphiIdentAccess
p1485
(dp1486
g15
S'blueSlider'
p1487
sg406
(lp1488
sbsg493
S'='
sbsg435
Nsg448
(i__main__
DelphiAssignStatement
p1489
(dp1490
g438
(i__main__
DelphiIdentAccess
p1491
(dp1492
g15
S'kItemBlueSlider'
p1493
sg406
(lp1494
sbsg443
(i__main__
DelphiIdentAccess
p1495
(dp1496
g15
S'self'
p1497
sg406
(lp1498
(idelphi
DelphiFieldEndAccess
p1499
(dp1500
g416
S'selectedItemIndex'
p1501
sbasbsbsbsg448
(i__main__
DelphiAssignStatement
p1502
(dp1503
g438
(i__main__
DelphiIdentAccess
p1504
(dp1505
g15
S'kItemGreenSlider'
p1506
sg406
(lp1507
sbsg443
(i__main__
DelphiIdentAccess
p1508
(dp1509
g15
S'self'
p1510
sg406
(lp1511
(idelphi
DelphiFieldEndAccess
p1512
(dp1513
g416
S'selectedItemIndex'
p1514
sbasbsbsbsg448
(i__main__
DelphiAssignStatement
p1515
(dp1516
g438
(i__main__
DelphiIdentAccess
p1517
(dp1518
g15
S'kItemRedSlider'
p1519
sg406
(lp1520
sbsg443
(i__main__
DelphiIdentAccess
p1521
(dp1522
g15
S'self'
p1523
sg406
(lp1524
(idelphi
DelphiFieldEndAccess
p1525
(dp1526
g416
S'selectedItemIndex'
p1527
sbasbsbsba(idelphi
DelphiIfStatement
p1528
(dp1529
g400
(idelphi
DelphiNot
p1530
(dp1531
g427
(i__main__
DelphiIdentAccess
p1532
(dp1533
g15
S'self'
p1534
sg406
(lp1535
(idelphi
DelphiFieldEndAccess
p1536
(dp1537
g416
S'focused'
p1538
sbasbsbsg435
(i__main__
DelphiAssignStatement
p1539
(dp1540
g438
Nsg443
(i__main__
DelphiIdentAccess
p1541
(dp1542
g15
S'self'
p1543
sg406
(lp1544
(idelphi
DelphiFieldEndAccess
p1545
(dp1546
g416
S'invalidate'
p1547
sbasbsbsg448
(i__main__
DelphiAssignStatement
p1548
(dp1549
g438
Nsg443
(i__main__
DelphiIdentAccess
p1550
(dp1551
g15
S'self'
p1552
sg406
(lp1553
(idelphi
DelphiFieldEndAccess
p1554
(dp1555
g416
S'setFocus'
p1556
sbasbsbsbasg1068
(lp1557
S' paint method updates unofficial focus flags in sliders '
p1558
asbsg459
(lp1559
sbsbsS'minwidth'
p1560
(i__main__
DelphiMethodImplementation
p1561
(dp1562
g374
g223
sg76
g225
sg84
(lp1563
(i__main__
DelphiFormalParameter
p1564
(dp1565
g112
Nsg113
(lp1566
S'requestedWidth'
p1567
asg17
(i__main__
DelphiPrimitiveType
p1568
(dp1569
g20
g90
sbsg121
Nsbasg376
(lp1570
sg378
(lp1571
sg380
(lp1572
g382
ag1567
asg383
(dp1573
g1567
g1568
ssg86
S'PdColorParameterPanel'
p1574
sg87
(i__main__
DelphiPrimitiveType
p1575
(dp1576
g20
g90
sbsg388
(lp1577
sg91
I0
sg92
g93
sg390
(i__main__
DelphiBlock
p1578
(dp1579
g393
(idelphi
DelphiCompoundStatement
p1580
(dp1581
g396
(lp1582
(i__main__
DelphiAssignStatement
p1583
(dp1584
g438
(idelphi
DelphiAddOp
p1585
(dp1586
g733
S'+'
sg734
(i__main__
DelphiIdentAccess
p1587
(dp1588
g15
S'intMax'
p1589
sg406
(lp1590
(idelphi
DelphiFunctionEndAccess
p1591
(dp1592
g408
(lp1593
(i__main__
DelphiIdentAccess
p1594
(dp1595
g15
S'self'
p1596
sg406
(lp1597
(idelphi
DelphiFieldEndAccess
p1598
(dp1599
g416
S'longestLabelWordWidth'
p1600
sbasba(idelphi
DelphiAddOp
p1601
(dp1602
g733
S'+'
sg734
(i__main__
DelphiIdentAccess
p1603
(dp1604
g15
S'kBetweenGap'
p1605
sg406
(lp1606
sbsg753
(idelphi
DelphiAddOp
p1607
(dp1608
g733
S'+'
sg734
(i__main__
DelphiIdentAccess
p1609
(dp1610
g15
S'kMinSliderLength'
p1611
sg406
(lp1612
sbsg753
(i__main__
DelphiIdentAccess
p1613
(dp1614
g15
S'kColorRectSize'
p1615
sg406
(lp1616
sbsbsbasbasbsg753
(idelphi
DelphiMulOp
p1617
(dp1618
g403
(idelphi
DelphiIntegerValue
p1619
(dp1620
g14
S'2'
sbsg418
S'*'
sg420
(i__main__
DelphiIdentAccess
p1621
(dp1622
g15
S'kLeftRightGap'
p1623
sg406
(lp1624
sbsbsbsg443
(i__main__
DelphiIdentAccess
p1625
(dp1626
g15
S'minAllowed'
p1627
sg406
(lp1628
sbsba(idelphi
DelphiIfStatement
p1629
(dp1630
g400
(idelphi
DelphiRelOp
p1631
(dp1632
g485
(i__main__
DelphiIdentAccess
p1633
(dp1634
g15
S'requestedWidth'
p1635
sg406
(lp1636
sbsg490
(i__main__
DelphiIdentAccess
p1637
(dp1638
g15
S'minAllowed'
p1639
sg406
(lp1640
sbsg493
S'>'
sbsg435
(i__main__
DelphiAssignStatement
p1641
(dp1642
g438
(i__main__
DelphiIdentAccess
p1643
(dp1644
g15
S'minAllowed'
p1645
sg406
(lp1646
sbsg443
(i__main__
DelphiIdentAccess
p1647
(dp1648
g15
S'result'
p1649
sg406
(lp1650
sbsbsg448
(i__main__
DelphiAssignStatement
p1651
(dp1652
g438
(idelphi
DelphiSign
p1653
(dp1654
g427
(idelphi
DelphiIntegerValue
p1655
(dp1656
g14
S'1'
sbsS'sign'
p1657
S'-'
sbsg443
(i__main__
DelphiIdentAccess
p1658
(dp1659
g15
S'result'
p1660
sg406
(lp1661
sbsbsbasbsg459
(lp1662
(i__main__
DelphiVarSection
p1663
(dp1664
g59
I0
sS'varDeclList'
p1665
(lp1666
(idelphi
DelphiVarDecl
p1667
(dp1668
g11
NsS'identList'
p1669
(lp1670
S'minAllowed'
p1671
asg17
(i__main__
DelphiPrimitiveType
p1672
(dp1673
g20
g90
sbsbasbasbsbsS'paint'
p1674
(i__main__
DelphiMethodImplementation
p1675
(dp1676
g374
g236
sg76
g238
sg84
(lp1677
sg376
(lp1678
sg378
(lp1679
sg380
(lp1680
g382
asg383
(dp1681
sg86
S'PdColorParameterPanel'
p1682
sg87
Nsg388
(lp1683
sg91
I0
sg92
g99
sg390
(i__main__
DelphiBlock
p1684
(dp1685
g393
(idelphi
DelphiCompoundStatement
p1686
(dp1687
g396
(lp1688
(idelphi
DelphiIfStatement
p1689
(dp1690
g400
(i__main__
DelphiIdentAccess
p1691
(dp1692
g15
S'Application'
p1693
sg406
(lp1694
(idelphi
DelphiFieldEndAccess
p1695
(dp1696
g416
S'terminated'
p1697
sbasbsg435
Nsg448
(i__main__
DelphiExitStatement
p1698
(dp1699
g1073
g1675
sbsba(i__main__
DelphiAssignStatement
p1700
(dp1701
g438
(idelphi
DelphiNestedExpressionListAccess
p1702
(dp1703
g406
(lp1704
sg408
(lp1705
(idelphi
DelphiRelOp
p1706
(dp1707
g485
(i__main__
DelphiIdentAccess
p1708
(dp1709
g15
S'self'
p1710
sg406
(lp1711
(idelphi
DelphiFieldEndAccess
p1712
(dp1713
g416
S'selectedItemIndex'
p1714
sbasbsg490
(i__main__
DelphiIdentAccess
p1715
(dp1716
g15
S'kItemRedSlider'
p1717
sg406
(lp1718
sbsg493
S'='
sbasbsg443
(i__main__
DelphiIdentAccess
p1719
(dp1720
g15
S'redSlider'
p1721
sg406
(lp1722
(idelphi
DelphiFieldEndAccess
p1723
(dp1724
g416
S'hasUnofficialFocus'
p1725
sbasbsg1068
(lp1726
S' ask sliders to update themselves based on whether they are selected '
p1727
asba(i__main__
DelphiAssignStatement
p1728
(dp1729
g438
(idelphi
DelphiNestedExpressionListAccess
p1730
(dp1731
g406
(lp1732
sg408
(lp1733
(idelphi
DelphiRelOp
p1734
(dp1735
g485
(i__main__
DelphiIdentAccess
p1736
(dp1737
g15
S'self'
p1738
sg406
(lp1739
(idelphi
DelphiFieldEndAccess
p1740
(dp1741
g416
S'selectedItemIndex'
p1742
sbasbsg490
(i__main__
DelphiIdentAccess
p1743
(dp1744
g15
S'kItemGreenSlider'
p1745
sg406
(lp1746
sbsg493
S'='
sbasbsg443
(i__main__
DelphiIdentAccess
p1747
(dp1748
g15
S'greenSlider'
p1749
sg406
(lp1750
(idelphi
DelphiFieldEndAccess
p1751
(dp1752
g416
S'hasUnofficialFocus'
p1753
sbasbsba(i__main__
DelphiAssignStatement
p1754
(dp1755
g438
(idelphi
DelphiNestedExpressionListAccess
p1756
(dp1757
g406
(lp1758
sg408
(lp1759
(idelphi
DelphiRelOp
p1760
(dp1761
g485
(i__main__
DelphiIdentAccess
p1762
(dp1763
g15
S'self'
p1764
sg406
(lp1765
(idelphi
DelphiFieldEndAccess
p1766
(dp1767
g416
S'selectedItemIndex'
p1768
sbasbsg490
(i__main__
DelphiIdentAccess
p1769
(dp1770
g15
S'kItemBlueSlider'
p1771
sg406
(lp1772
sbsg493
S'='
sbasbsg443
(i__main__
DelphiIdentAccess
p1773
(dp1774
g15
S'blueSlider'
p1775
sg406
(lp1776
(idelphi
DelphiFieldEndAccess
p1777
(dp1778
g416
S'hasUnofficialFocus'
p1779
sbasbsba(i__main__
DelphiAssignStatement
p1780
(dp1781
g438
Nsg443
(idelphi
DelphiInheritedCall
p1782
(dp1783
g15
S'paint'
p1784
sg408
Nsbsba(i__main__
DelphiAssignStatement
p1785
(dp1786
g438
(i__main__
DelphiIdentAccess
p1787
(dp1788
g15
S'getClientRect'
p1789
sg406
(lp1790
sbsg443
(i__main__
DelphiIdentAccess
p1791
(dp1792
g15
S'aRect'
p1793
sg406
(lp1794
sbsba(idelphi
DelphiIfStatement
p1795
(dp1796
g400
(idelphi
DelphiMulOp
p1797
(dp1798
g403
(idelphi
DelphiNestedExpressionListAccess
p1799
(dp1800
g406
(lp1801
sg408
(lp1802
(idelphi
DelphiRelOp
p1803
(dp1804
g485
(i__main__
DelphiIdentAccess
p1805
(dp1806
g15
S'plant'
p1807
sg406
(lp1808
sbsg490
(idelphi
DelphiNilValue
p1809
(dp1810
bsg493
g494
sbasbsg418
g419
sg420
(idelphi
DelphiNestedExpressionListAccess
p1811
(dp1812
g406
(lp1813
sg408
(lp1814
(i__main__
DelphiIdentAccess
p1815
(dp1816
g15
S'param'
p1817
sg406
(lp1818
(idelphi
DelphiFieldEndAccess
p1819
(dp1820
g416
S'collapsed'
p1821
sbasbasbsbsg435
Nsg448
(idelphi
DelphiCompoundStatement
p1822
(dp1823
g396
(lp1824
(idelphi
DelphiWithStatement
p1825
(dp1826
g1028
(idelphi
DelphiCompoundStatement
p1827
(dp1828
g396
(lp1829
(i__main__
DelphiAssignStatement
p1830
(dp1831
g438
(idelphi
DelphiAddOp
p1832
(dp1833
g733
S'+'
sg734
(i__main__
DelphiIdentAccess
p1834
(dp1835
g15
S'kLeftRightGap'
p1836
sg406
(lp1837
sbsg753
(idelphi
DelphiAddOp
p1838
(dp1839
g733
S'+'
sg734
(i__main__
DelphiIdentAccess
p1840
(dp1841
g15
S'self'
p1842
sg406
(lp1843
(idelphi
DelphiFieldEndAccess
p1844
(dp1845
g416
S'canvas'
p1846
sba(idelphi
DelphiFieldEndAccess
p1847
(dp1848
g416
S'textWidth'
p1849
sba(idelphi
DelphiFunctionEndAccess
p1850
(dp1851
g408
(lp1852
(i__main__
DelphiIdentAccess
p1853
(dp1854
g15
S'self'
p1855
sg406
(lp1856
(idelphi
DelphiFieldEndAccess
p1857
(dp1858
g416
S'caption'
p1859
sbasbasbasbsg753
(idelphi
DelphiAddOp
p1860
(dp1861
g733
S'+'
sg734
(i__main__
DelphiIdentAccess
p1862
(dp1863
g15
S'kBetweenGap'
p1864
sg406
(lp1865
sbsg753
(idelphi
DelphiAddOp
p1866
(dp1867
g733
S'+'
sg734
(i__main__
DelphiIdentAccess
p1868
(dp1869
g15
S'kOverridePictureSize'
p1870
sg406
(lp1871
sbsg753
(idelphi
DelphiAddOp
p1872
(dp1873
g733
S'+'
sg734
(i__main__
DelphiIdentAccess
p1874
(dp1875
g15
S'kArrowPictureSize'
p1876
sg406
(lp1877
sbsg753
(idelphi
DelphiAddOp
p1878
(dp1879
g733
S'+'
sg734
(i__main__
DelphiIdentAccess
p1880
(dp1881
g15
S'kLeftRightGap'
p1882
sg406
(lp1883
sbsg753
(i__main__
DelphiIdentAccess
p1884
(dp1885
g15
S'aRect'
p1886
sg406
(lp1887
(idelphi
DelphiFieldEndAccess
p1888
(dp1889
g416
S'left'
p1890
sbasbsbsbsbsbsbsbsg443
(i__main__
DelphiIdentAccess
p1891
(dp1892
g15
S'left'
p1893
sg406
(lp1894
sbsba(i__main__
DelphiAssignStatement
p1895
(dp1896
g438
(idelphi
DelphiAddOp
p1897
(dp1898
g733
S'+'
sg734
(idelphi
DelphiMulOp
p1899
(dp1900
g403
(idelphi
DelphiIntegerValue
p1901
(dp1902
g14
S'2'
sbsg418
S'*'
sg420
(i__main__
DelphiIdentAccess
p1903
(dp1904
g15
S'self'
p1905
sg406
(lp1906
(idelphi
DelphiFieldEndAccess
p1907
(dp1908
g416
S'textHeight'
p1909
sbasbsbsg753
(i__main__
DelphiIdentAccess
p1910
(dp1911
g15
S'left'
p1912
sg406
(lp1913
sbsbsg443
(i__main__
DelphiIdentAccess
p1914
(dp1915
g15
S'right'
p1916
sg406
(lp1917
sbsba(i__main__
DelphiAssignStatement
p1918
(dp1919
g438
(idelphi
DelphiAddOp
p1920
(dp1921
g733
S'+'
sg734
(idelphi
DelphiIntegerValue
p1922
(dp1923
g14
S'2'
sbsg753
(i__main__
DelphiIdentAccess
p1924
(dp1925
g15
S'aRect'
p1926
sg406
(lp1927
(idelphi
DelphiFieldEndAccess
p1928
(dp1929
g416
S'top'
p1930
sbasbsbsg443
(i__main__
DelphiIdentAccess
p1931
(dp1932
g15
S'top'
p1933
sg406
(lp1934
sbsba(i__main__
DelphiAssignStatement
p1935
(dp1936
g438
(idelphi
DelphiAddOp
p1937
(dp1938
g733
S'+'
sg734
(i__main__
DelphiIdentAccess
p1939
(dp1940
g15
S'self'
p1941
sg406
(lp1942
(idelphi
DelphiFieldEndAccess
p1943
(dp1944
g416
S'textHeight'
p1945
sbasbsg753
(i__main__
DelphiIdentAccess
p1946
(dp1947
g15
S'top'
p1948
sg406
(lp1949
sbsbsg443
(i__main__
DelphiIdentAccess
p1950
(dp1951
g15
S'bottom'
p1952
sg406
(lp1953
sbsbasbsS'variableReferenceList'
p1954
(lp1955
(i__main__
DelphiIdentAccess
p1956
(dp1957
g15
S'collapsedColorRect'
p1958
sg406
(lp1959
sbasba(i__main__
DelphiAssignStatement
p1960
(dp1961
g438
Nsg443
(i__main__
DelphiIdentAccess
p1962
(dp1963
g15
S'inflateRect'
p1964
sg406
(lp1965
(idelphi
DelphiFunctionEndAccess
p1966
(dp1967
g408
(lp1968
(i__main__
DelphiIdentAccess
p1969
(dp1970
g15
S'collapsedColorRect'
p1971
sg406
(lp1972
sba(idelphi
DelphiSign
p1973
(dp1974
g427
(idelphi
DelphiIntegerValue
p1975
(dp1976
g14
S'2'
sbsg1657
S'-'
sba(idelphi
DelphiSign
p1977
(dp1978
g427
(idelphi
DelphiIntegerValue
p1979
(dp1980
g14
S'2'
sbsg1657
S'-'
sbasbasbsba(i__main__
DelphiAssignStatement
p1981
(dp1982
g438
Nsg443
(i__main__
DelphiIdentAccess
p1983
(dp1984
g15
S'self'
p1985
sg406
(lp1986
(idelphi
DelphiFieldEndAccess
p1987
(dp1988
g416
S'fillRectWithColor'
p1989
sba(idelphi
DelphiFunctionEndAccess
p1990
(dp1991
g408
(lp1992
(i__main__
DelphiIdentAccess
p1993
(dp1994
g15
S'collapsedColorRect'
p1995
sg406
(lp1996
sba(i__main__
DelphiIdentAccess
p1997
(dp1998
g15
S'currentColor'
p1999
sg406
(lp2000
sbasbasbsba(i__main__
DelphiExitStatement
p2001
(dp2002
g1073
g1675
sbasbsba(idelphi
DelphiWithStatement
p2003
(dp2004
g1028
(idelphi
DelphiCompoundStatement
p2005
(dp2006
g396
(lp2007
(i__main__
DelphiAssignStatement
p2008
(dp2009
g438
(idelphi
DelphiAddOp
p2010
(dp2011
g733
S'+'
sg734
(idelphi
DelphiMulOp
p2012
(dp2013
g403
(idelphi
DelphiIntegerValue
p2014
(dp2015
g14
S'2'
sbsg418
S'*'
sg420
(i__main__
DelphiIdentAccess
p2016
(dp2017
g15
S'kLeftRightGap'
p2018
sg406
(lp2019
sbsbsg753
(idelphi
DelphiAddOp
p2020
(dp2021
g733
S'+'
sg734
(i__main__
DelphiIdentAccess
p2022
(dp2023
g15
S'kColorRectSize'
p2024
sg406
(lp2025
sbsg753
(idelphi
DelphiAddOp
p2026
(dp2027
g733
S'+'
sg734
(i__main__
DelphiIdentAccess
p2028
(dp2029
g15
S'kLeftRightGap'
p2030
sg406
(lp2031
sbsg753
(i__main__
DelphiIdentAccess
p2032
(dp2033
g15
S'aRect'
p2034
sg406
(lp2035
(idelphi
DelphiFieldEndAccess
p2036
(dp2037
g416
S'left'
p2038
sbasbsbsbsbsg443
(i__main__
DelphiIdentAccess
p2039
(dp2040
g15
S'left'
p2041
sg406
(lp2042
sbsba(i__main__
DelphiAssignStatement
p2043
(dp2044
g438
(idelphi
DelphiAddOp
p2045
(dp2046
g733
S'+'
sg734
(i__main__
DelphiIdentAccess
p2047
(dp2048
g15
S'self'
p2049
sg406
(lp2050
(idelphi
DelphiFieldEndAccess
p2051
(dp2052
g416
S'canvas'
p2053
sba(idelphi
DelphiFieldEndAccess
p2054
(dp2055
g416
S'textWidth'
p2056
sba(idelphi
DelphiFunctionEndAccess
p2057
(dp2058
g408
(lp2059
(idelphi
DelphiStringAccess
p2060
(dp2061
g406
(lp2062
sg14
(idelphi
DelphiStringValue
p2063
(dp2064
g14
S'W'
sbsbasbasbsg753
(i__main__
DelphiIdentAccess
p2065
(dp2066
g15
S'left'
p2067
sg406
(lp2068
sbsbsg443
(i__main__
DelphiIdentAccess
p2069
(dp2070
g15
S'right'
p2071
sg406
(lp2072
sbsba(i__main__
DelphiAssignStatement
p2073
(dp2074
g438
(idelphi
DelphiAddOp
p2075
(dp2076
g733
S'+'
sg734
(i__main__
DelphiIdentAccess
p2077
(dp2078
g15
S'kTopBottomGap'
p2079
sg406
(lp2080
sbsg753
(i__main__
DelphiIdentAccess
p2081
(dp2082
g15
S'self'
p2083
sg406
(lp2084
(idelphi
DelphiFieldEndAccess
p2085
(dp2086
g416
S'collapsedHeight'
p2087
sbasbsbsg443
(i__main__
DelphiIdentAccess
p2088
(dp2089
g15
S'top'
p2090
sg406
(lp2091
sbsba(i__main__
DelphiAssignStatement
p2092
(dp2093
g438
(idelphi
DelphiAddOp
p2094
(dp2095
g733
S'+'
sg734
(i__main__
DelphiIdentAccess
p2096
(dp2097
g15
S'self'
p2098
sg406
(lp2099
(idelphi
DelphiFieldEndAccess
p2100
(dp2101
g416
S'textHeight'
p2102
sbasbsg753
(i__main__
DelphiIdentAccess
p2103
(dp2104
g15
S'top'
p2105
sg406
(lp2106
sbsbsg443
(i__main__
DelphiIdentAccess
p2107
(dp2108
g15
S'bottom'
p2109
sg406
(lp2110
sbsbasbsg1954
(lp2111
(i__main__
DelphiIdentAccess
p2112
(dp2113
g15
S'rTextRect'
p2114
sg406
(lp2115
sbasba(i__main__
DelphiAssignStatement
p2116
(dp2117
g438
(i__main__
DelphiIdentAccess
p2118
(dp2119
g15
S'rTextRect'
p2120
sg406
(lp2121
sbsg443
(i__main__
DelphiIdentAccess
p2122
(dp2123
g15
S'gTextRect'
p2124
sg406
(lp2125
sbsba(idelphi
DelphiWithStatement
p2126
(dp2127
g1028
(idelphi
DelphiCompoundStatement
p2128
(dp2129
g396
(lp2130
(i__main__
DelphiAssignStatement
p2131
(dp2132
g438
(idelphi
DelphiAddOp
p2133
(dp2134
g733
S'+'
sg734
(i__main__
DelphiIdentAccess
p2135
(dp2136
g15
S'kBetweenGap'
p2137
sg406
(lp2138
sbsg753
(i__main__
DelphiIdentAccess
p2139
(dp2140
g15
S'rTextRect'
p2141
sg406
(lp2142
(idelphi
DelphiFieldEndAccess
p2143
(dp2144
g416
S'bottom'
p2145
sbasbsbsg443
(i__main__
DelphiIdentAccess
p2146
(dp2147
g15
S'top'
p2148
sg406
(lp2149
sbsba(i__main__
DelphiAssignStatement
p2150
(dp2151
g438
(idelphi
DelphiAddOp
p2152
(dp2153
g733
S'+'
sg734
(i__main__
DelphiIdentAccess
p2154
(dp2155
g15
S'self'
p2156
sg406
(lp2157
(idelphi
DelphiFieldEndAccess
p2158
(dp2159
g416
S'textHeight'
p2160
sbasbsg753
(i__main__
DelphiIdentAccess
p2161
(dp2162
g15
S'top'
p2163
sg406
(lp2164
sbsbsg443
(i__main__
DelphiIdentAccess
p2165
(dp2166
g15
S'bottom'
p2167
sg406
(lp2168
sbsbasbsg1954
(lp2169
(i__main__
DelphiIdentAccess
p2170
(dp2171
g15
S'gTextRect'
p2172
sg406
(lp2173
sbasba(i__main__
DelphiAssignStatement
p2174
(dp2175
g438
(i__main__
DelphiIdentAccess
p2176
(dp2177
g15
S'rTextRect'
p2178
sg406
(lp2179
sbsg443
(i__main__
DelphiIdentAccess
p2180
(dp2181
g15
S'bTextRect'
p2182
sg406
(lp2183
sbsba(idelphi
DelphiWithStatement
p2184
(dp2185
g1028
(idelphi
DelphiCompoundStatement
p2186
(dp2187
g396
(lp2188
(i__main__
DelphiAssignStatement
p2189
(dp2190
g438
(idelphi
DelphiAddOp
p2191
(dp2192
g733
S'+'
sg734
(i__main__
DelphiIdentAccess
p2193
(dp2194
g15
S'kBetweenGap'
p2195
sg406
(lp2196
sbsg753
(i__main__
DelphiIdentAccess
p2197
(dp2198
g15
S'gTextRect'
p2199
sg406
(lp2200
(idelphi
DelphiFieldEndAccess
p2201
(dp2202
g416
S'bottom'
p2203
sbasbsbsg443
(i__main__
DelphiIdentAccess
p2204
(dp2205
g15
S'top'
p2206
sg406
(lp2207
sbsba(i__main__
DelphiAssignStatement
p2208
(dp2209
g438
(idelphi
DelphiAddOp
p2210
(dp2211
g733
S'+'
sg734
(i__main__
DelphiIdentAccess
p2212
(dp2213
g15
S'self'
p2214
sg406
(lp2215
(idelphi
DelphiFieldEndAccess
p2216
(dp2217
g416
S'textHeight'
p2218
sbasbsg753
(i__main__
DelphiIdentAccess
p2219
(dp2220
g15
S'top'
p2221
sg406
(lp2222
sbsbsg443
(i__main__
DelphiIdentAccess
p2223
(dp2224
g15
S'bottom'
p2225
sg406
(lp2226
sbsbasbsg1954
(lp2227
(i__main__
DelphiIdentAccess
p2228
(dp2229
g15
S'bTextRect'
p2230
sg406
(lp2231
sbasba(idelphi
DelphiWithStatement
p2232
(dp2233
g1028
(idelphi
DelphiCompoundStatement
p2234
(dp2235
g396
(lp2236
(i__main__
DelphiAssignStatement
p2237
(dp2238
g438
(idelphi
DelphiMulOp
p2239
(dp2240
g403
(idelphi
DelphiIntegerValue
p2241
(dp2242
g14
S'2'
sbsg418
S'*'
sg420
(i__main__
DelphiIdentAccess
p2243
(dp2244
g15
S'kLeftRightGap'
p2245
sg406
(lp2246
sbsbsg443
(i__main__
DelphiIdentAccess
p2247
(dp2248
g15
S'left'
p2249
sg406
(lp2250
sbsba(i__main__
DelphiAssignStatement
p2251
(dp2252
g438
(idelphi
DelphiAddOp
p2253
(dp2254
g733
S'-'
sg734
(idelphi
DelphiMulOp
p2255
(dp2256
g403
(idelphi
DelphiIntegerValue
p2257
(dp2258
g14
S'2'
sbsg418
S'*'
sg420
(i__main__
DelphiIdentAccess
p2259
(dp2260
g15
S'kLeftRightGap'
p2261
sg406
(lp2262
sbsbsg753
(i__main__
DelphiIdentAccess
p2263
(dp2264
g15
S'rTextRect'
p2265
sg406
(lp2266
(idelphi
DelphiFieldEndAccess
p2267
(dp2268
g416
S'left'
p2269
sbasbsbsg443
(i__main__
DelphiIdentAccess
p2270
(dp2271
g15
S'right'
p2272
sg406
(lp2273
sbsba(i__main__
DelphiAssignStatement
p2274
(dp2275
g438
(idelphi
DelphiAddOp
p2276
(dp2277
g733
S'+'
sg734
(i__main__
DelphiIdentAccess
p2278
(dp2279
g15
S'kTopBottomGap'
p2280
sg406
(lp2281
sbsg753
(i__main__
DelphiIdentAccess
p2282
(dp2283
g15
S'self'
p2284
sg406
(lp2285
(idelphi
DelphiFieldEndAccess
p2286
(dp2287
g416
S'collapsedHeight'
p2288
sbasbsbsg443
(i__main__
DelphiIdentAccess
p2289
(dp2290
g15
S'top'
p2291
sg406
(lp2292
sbsba(i__main__
DelphiAssignStatement
p2293
(dp2294
g438
(idelphi
DelphiAddOp
p2295
(dp2296
g733
S'-'
sg734
(idelphi
DelphiMulOp
p2297
(dp2298
g403
(idelphi
DelphiIntegerValue
p2299
(dp2300
g14
S'2'
sbsg418
S'*'
sg420
(i__main__
DelphiIdentAccess
p2301
(dp2302
g15
S'kTopBottomGap'
p2303
sg406
(lp2304
sbsbsg753
(i__main__
DelphiIdentAccess
p2305
(dp2306
g15
S'self'
p2307
sg406
(lp2308
(idelphi
DelphiFieldEndAccess
p2309
(dp2310
g416
S'uncollapsedHeight'
p2311
sbasbsbsg443
(i__main__
DelphiIdentAccess
p2312
(dp2313
g15
S'bottom'
p2314
sg406
(lp2315
sbsbasbsg1954
(lp2316
(i__main__
DelphiIdentAccess
p2317
(dp2318
g15
S'colorRect'
p2319
sg406
(lp2320
sbasba(idelphi
DelphiWithStatement
p2321
(dp2322
g1028
(idelphi
DelphiCompoundStatement
p2323
(dp2324
g396
(lp2325
(i__main__
DelphiAssignStatement
p2326
(dp2327
g438
Nsg443
(i__main__
DelphiIdentAccess
p2328
(dp2329
g15
S'self'
p2330
sg406
(lp2331
(idelphi
DelphiFieldEndAccess
p2332
(dp2333
g416
S'drawText'
p2334
sba(idelphi
DelphiFunctionEndAccess
p2335
(dp2336
g408
(lp2337
(idelphi
DelphiStringAccess
p2338
(dp2339
g406
(lp2340
sg14
(idelphi
DelphiStringValue
p2341
(dp2342
g14
S'r'
sbsba(i__main__
DelphiIdentAccess
p2343
(dp2344
g15
S'rTextRect'
p2345
sg406
(lp2346
sba(i__main__
DelphiIdentAccess
p2347
(dp2348
g15
S'false'
p2349
sg406
(lp2350
sba(i__main__
DelphiIdentAccess
p2351
(dp2352
g15
S'false'
p2353
sg406
(lp2354
sba(i__main__
DelphiIdentAccess
p2355
(dp2356
g15
S'false'
p2357
sg406
(lp2358
sbasbasbsba(i__main__
DelphiAssignStatement
p2359
(dp2360
g438
Nsg443
(i__main__
DelphiIdentAccess
p2361
(dp2362
g15
S'self'
p2363
sg406
(lp2364
(idelphi
DelphiFieldEndAccess
p2365
(dp2366
g416
S'drawText'
p2367
sba(idelphi
DelphiFunctionEndAccess
p2368
(dp2369
g408
(lp2370
(idelphi
DelphiStringAccess
p2371
(dp2372
g406
(lp2373
sg14
(idelphi
DelphiStringValue
p2374
(dp2375
g14
S'g'
sbsba(i__main__
DelphiIdentAccess
p2376
(dp2377
g15
S'gTextRect'
p2378
sg406
(lp2379
sba(i__main__
DelphiIdentAccess
p2380
(dp2381
g15
S'false'
p2382
sg406
(lp2383
sba(i__main__
DelphiIdentAccess
p2384
(dp2385
g15
S'false'
p2386
sg406
(lp2387
sba(i__main__
DelphiIdentAccess
p2388
(dp2389
g15
S'false'
p2390
sg406
(lp2391
sbasbasbsba(i__main__
DelphiAssignStatement
p2392
(dp2393
g438
Nsg443
(i__main__
DelphiIdentAccess
p2394
(dp2395
g15
S'self'
p2396
sg406
(lp2397
(idelphi
DelphiFieldEndAccess
p2398
(dp2399
g416
S'drawText'
p2400
sba(idelphi
DelphiFunctionEndAccess
p2401
(dp2402
g408
(lp2403
(idelphi
DelphiStringAccess
p2404
(dp2405
g406
(lp2406
sg14
(idelphi
DelphiStringValue
p2407
(dp2408
g14
S'b'
sbsba(i__main__
DelphiIdentAccess
p2409
(dp2410
g15
S'bTextRect'
p2411
sg406
(lp2412
sba(i__main__
DelphiIdentAccess
p2413
(dp2414
g15
S'false'
p2415
sg406
(lp2416
sba(i__main__
DelphiIdentAccess
p2417
(dp2418
g15
S'false'
p2419
sg406
(lp2420
sba(i__main__
DelphiIdentAccess
p2421
(dp2422
g15
S'false'
p2423
sg406
(lp2424
sbasbasbsba(idelphi
DelphiIfStatement
p2425
(dp2426
g400
(idelphi
DelphiAddOp
p2427
(dp2428
g733
S'or'
p2429
sg734
(idelphi
DelphiNestedExpressionListAccess
p2430
(dp2431
g406
(lp2432
sg408
(lp2433
(i__main__
DelphiIdentAccess
p2434
(dp2435
g15
S'blueSlider'
p2436
sg406
(lp2437
(idelphi
DelphiFieldEndAccess
p2438
(dp2439
g416
S'dragging'
p2440
sbasbasbsg753
(idelphi
DelphiAddOp
p2441
(dp2442
g733
g2429
sg734
(idelphi
DelphiNestedExpressionListAccess
p2443
(dp2444
g406
(lp2445
sg408
(lp2446
(i__main__
DelphiIdentAccess
p2447
(dp2448
g15
S'greenSlider'
p2449
sg406
(lp2450
(idelphi
DelphiFieldEndAccess
p2451
(dp2452
g416
S'dragging'
p2453
sbasbasbsg753
(idelphi
DelphiNestedExpressionListAccess
p2454
(dp2455
g406
(lp2456
sg408
(lp2457
(i__main__
DelphiIdentAccess
p2458
(dp2459
g15
S'redSlider'
p2460
sg406
(lp2461
(idelphi
DelphiFieldEndAccess
p2462
(dp2463
g416
S'dragging'
p2464
sbasbasbsbsbsg435
(idelphi
DelphiIfStatement
p2465
(dp2466
g400
(idelphi
DelphiRelOp
p2467
(dp2468
g485
(i__main__
DelphiIdentAccess
p2469
(dp2470
g15
S'plant'
p2471
sg406
(lp2472
sbsg490
(idelphi
DelphiNilValue
p2473
(dp2474
bsg493
S'='
sbsg435
(i__main__
DelphiAssignStatement
p2475
(dp2476
g438
Nsg443
(i__main__
DelphiIdentAccess
p2477
(dp2478
g15
S'self'
p2479
sg406
(lp2480
(idelphi
DelphiFieldEndAccess
p2481
(dp2482
g416
S'fillRectWithColor'
p2483
sba(idelphi
DelphiFunctionEndAccess
p2484
(dp2485
g408
(lp2486
(i__main__
DelphiIdentAccess
p2487
(dp2488
g15
S'colorRect'
p2489
sg406
(lp2490
sba(i__main__
DelphiIdentAccess
p2491
(dp2492
g15
S'currentColor'
p2493
sg406
(lp2494
sbasbasbsbsg448
(i__main__
DelphiAssignStatement
p2495
(dp2496
g438
Nsg443
(i__main__
DelphiIdentAccess
p2497
(dp2498
g15
S'self'
p2499
sg406
(lp2500
(idelphi
DelphiFieldEndAccess
p2501
(dp2502
g416
S'fillRectWithColor'
p2503
sba(idelphi
DelphiFunctionEndAccess
p2504
(dp2505
g408
(lp2506
(i__main__
DelphiIdentAccess
p2507
(dp2508
g15
S'colorRect'
p2509
sg406
(lp2510
sba(i__main__
DelphiIdentAccess
p2511
(dp2512
g15
S'clBtnFace'
p2513
sg406
(lp2514
sbasbasbsbsbsg448
(i__main__
DelphiAssignStatement
p2515
(dp2516
g438
Nsg443
(i__main__
DelphiIdentAccess
p2517
(dp2518
g15
S'self'
p2519
sg406
(lp2520
(idelphi
DelphiFieldEndAccess
p2521
(dp2522
g416
S'fillRectWithColor'
p2523
sba(idelphi
DelphiFunctionEndAccess
p2524
(dp2525
g408
(lp2526
(i__main__
DelphiIdentAccess
p2527
(dp2528
g15
S'colorRect'
p2529
sg406
(lp2530
sba(i__main__
DelphiIdentAccess
p2531
(dp2532
g15
S'colorWhileDragging'
p2533
sg406
(lp2534
sbasbasbsbsba(i__main__
DelphiAssignStatement
p2535
(dp2536
g438
(i__main__
DelphiIdentAccess
p2537
(dp2538
g15
S'clBtnShadow'
p2539
sg406
(lp2540
sbsg443
(i__main__
DelphiIdentAccess
p2541
(dp2542
g15
S'pen'
p2543
sg406
(lp2544
(idelphi
DelphiFieldEndAccess
p2545
(dp2546
g416
S'color'
p2547
sbasbsba(idelphi
DelphiIfStatement
p2548
(dp2549
g400
(idelphi
DelphiNestedExpressionListAccess
p2550
(dp2551
g406
(lp2552
sg408
(lp2553
(idelphi
DelphiRelOp
p2554
(dp2555
g485
(i__main__
DelphiIdentAccess
p2556
(dp2557
g15
S'self'
p2558
sg406
(lp2559
(idelphi
DelphiFieldEndAccess
p2560
(dp2561
g416
S'selectedItemIndex'
p2562
sbasbsg490
(i__main__
DelphiIdentAccess
p2563
(dp2564
g15
S'kItemColorRect'
p2565
sg406
(lp2566
sbsg493
g494
sbasbsg435
(idelphi
DelphiCompoundStatement
p2567
(dp2568
g396
(lp2569
(i__main__
DelphiAssignStatement
p2570
(dp2571
g438
(idelphi
DelphiIntegerValue
p2572
(dp2573
g14
S'3'
sbsg443
(i__main__
DelphiIdentAccess
p2574
(dp2575
g15
S'pen'
p2576
sg406
(lp2577
(idelphi
DelphiFieldEndAccess
p2578
(dp2579
g416
S'width'
p2580
sbasbsba(i__main__
DelphiAssignStatement
p2581
(dp2582
g438
(i__main__
DelphiIdentAccess
p2583
(dp2584
g15
S'clBtnHighlight'
p2585
sg406
(lp2586
sbsg443
(i__main__
DelphiIdentAccess
p2587
(dp2588
g15
S'pen'
p2589
sg406
(lp2590
(idelphi
DelphiFieldEndAccess
p2591
(dp2592
g416
S'color'
p2593
sbasbsbasbsg448
(idelphi
DelphiCompoundStatement
p2594
(dp2595
g396
(lp2596
(i__main__
DelphiAssignStatement
p2597
(dp2598
g438
(idelphi
DelphiIntegerValue
p2599
(dp2600
g14
S'1'
sbsg443
(i__main__
DelphiIdentAccess
p2601
(dp2602
g15
S'pen'
p2603
sg406
(lp2604
(idelphi
DelphiFieldEndAccess
p2605
(dp2606
g416
S'width'
p2607
sbasbsba(i__main__
DelphiAssignStatement
p2608
(dp2609
g438
(i__main__
DelphiIdentAccess
p2610
(dp2611
g15
S'clBtnShadow'
p2612
sg406
(lp2613
sbsg443
(i__main__
DelphiIdentAccess
p2614
(dp2615
g15
S'pen'
p2616
sg406
(lp2617
(idelphi
DelphiFieldEndAccess
p2618
(dp2619
g416
S'color'
p2620
sbasbsbasbsba(i__main__
DelphiAssignStatement
p2621
(dp2622
g438
(idelphi
DelphiIntegerValue
p2623
(dp2624
g14
S'1'
sbsg443
(i__main__
DelphiIdentAccess
p2625
(dp2626
g15
S'pen'
p2627
sg406
(lp2628
(idelphi
DelphiFieldEndAccess
p2629
(dp2630
g416
S'width'
p2631
sbasbsba(i__main__
DelphiAssignStatement
p2632
(dp2633
g438
(i__main__
DelphiIdentAccess
p2634
(dp2635
g15
S'bsClear'
p2636
sg406
(lp2637
sbsg443
(i__main__
DelphiIdentAccess
p2638
(dp2639
g15
S'brush'
p2640
sg406
(lp2641
(idelphi
DelphiFieldEndAccess
p2642
(dp2643
g416
S'style'
p2644
sbasbsba(i__main__
DelphiAssignStatement
p2645
(dp2646
g438
Nsg443
(i__main__
DelphiIdentAccess
p2647
(dp2648
g15
S'rectangle'
p2649
sg406
(lp2650
(idelphi
DelphiFunctionEndAccess
p2651
(dp2652
g408
(lp2653
(idelphi
DelphiAddOp
p2654
(dp2655
g733
S'-'
sg734
(idelphi
DelphiIntegerValue
p2656
(dp2657
g14
S'1'
sbsg753
(i__main__
DelphiIdentAccess
p2658
(dp2659
g15
S'colorRect'
p2660
sg406
(lp2661
(idelphi
DelphiFieldEndAccess
p2662
(dp2663
g416
S'left'
p2664
sbasbsba(idelphi
DelphiAddOp
p2665
(dp2666
g733
S'-'
sg734
(idelphi
DelphiIntegerValue
p2667
(dp2668
g14
S'1'
sbsg753
(i__main__
DelphiIdentAccess
p2669
(dp2670
g15
S'colorRect'
p2671
sg406
(lp2672
(idelphi
DelphiFieldEndAccess
p2673
(dp2674
g416
S'top'
p2675
sbasbsba(idelphi
DelphiAddOp
p2676
(dp2677
g733
S'+'
sg734
(idelphi
DelphiIntegerValue
p2678
(dp2679
g14
S'1'
sbsg753
(i__main__
DelphiIdentAccess
p2680
(dp2681
g15
S'colorRect'
p2682
sg406
(lp2683
(idelphi
DelphiFieldEndAccess
p2684
(dp2685
g416
S'right'
p2686
sbasbsba(idelphi
DelphiAddOp
p2687
(dp2688
g733
S'+'
sg734
(idelphi
DelphiIntegerValue
p2689
(dp2690
g14
S'1'
sbsg753
(i__main__
DelphiIdentAccess
p2691
(dp2692
g15
S'colorRect'
p2693
sg406
(lp2694
(idelphi
DelphiFieldEndAccess
p2695
(dp2696
g416
S'bottom'
p2697
sbasbsbasbasbsbasbsg1954
(lp2698
(i__main__
DelphiIdentAccess
p2699
(dp2700
g15
S'Canvas'
p2701
sg406
(lp2702
sbasbasbsg459
(lp2703
(i__main__
DelphiVarSection
p2704
(dp2705
g59
I0
sg1665
(lp2706
(idelphi
DelphiVarDecl
p2707
(dp2708
g11
Nsg1669
(lp2709
S'aRect'
p2710
aS'rTextRect'
p2711
aS'gTextRect'
p2712
aS'bTextRect'
p2713
aS'collapsedColorRect'
p2714
asg17
(i__main__
DelphiNamedType
p2715
(dp2716
g20
S'TRect'
p2717
sg119
g1
sg120
NsbsbasbasbsbsS'getpalette'
p2718
(i__main__
DelphiMethodImplementation
p2719
(dp2720
g374
g241
sg76
g243
sg84
(lp2721
sg376
(lp2722
sg378
(lp2723
sg380
(lp2724
g382
asg383
(dp2725
sg86
S'PdColorParameterPanel'
p2726
sg87
(i__main__
DelphiNamedType
p2727
(dp2728
g20
S'HPALETTE'
p2729
sg119
g1
sg120
Nsbsg388
(lp2730
sg91
I0
sg92
g93
sg390
(i__main__
DelphiBlock
p2731
(dp2732
g393
(idelphi
DelphiCompoundStatement
p2733
(dp2734
g396
(lp2735
(i__main__
DelphiAssignStatement
p2736
(dp2737
g438
(i__main__
DelphiIdentAccess
p2738
(dp2739
g15
S'MainForm'
p2740
sg406
(lp2741
(idelphi
DelphiFieldEndAccess
p2742
(dp2743
g416
S'paletteImage'
p2744
sba(idelphi
DelphiFieldEndAccess
p2745
(dp2746
g416
S'picture'
p2747
sba(idelphi
DelphiFieldEndAccess
p2748
(dp2749
g416
S'bitmap'
p2750
sba(idelphi
DelphiFieldEndAccess
p2751
(dp2752
g416
S'palette'
p2753
sbasbsg443
(i__main__
DelphiIdentAccess
p2754
(dp2755
g15
S'result'
p2756
sg406
(lp2757
sbsbasbsg459
(lp2758
sbsbsS'slidermousemove'
p2759
(i__main__
DelphiMethodImplementation
p2760
(dp2761
g374
g249
sg76
g251
sg84
(lp2762
(i__main__
DelphiFormalParameter
p2763
(dp2764
g112
Nsg113
(lp2765
S'Sender'
p2766
asg17
(i__main__
DelphiNamedType
p2767
(dp2768
g20
S'TObject'
p2769
sg119
g1
sg120
Nsbsg121
Nsbasg376
(lp2770
sg378
(lp2771
sg380
(lp2772
g382
ag2766
asg383
(dp2773
g2766
g2767
ssg86
S'PdColorParameterPanel'
p2774
sg87
Nsg388
(lp2775
sg91
I0
sg92
g99
sg390
(i__main__
DelphiBlock
p2776
(dp2777
g393
(idelphi
DelphiCompoundStatement
p2778
(dp2779
g396
(lp2780
(idelphi
DelphiIfStatement
p2781
(dp2782
g400
(idelphi
DelphiRelOp
p2783
(dp2784
g485
(i__main__
DelphiIdentAccess
p2785
(dp2786
g15
S'plant'
p2787
sg406
(lp2788
sbsg490
(idelphi
DelphiNilValue
p2789
(dp2790
bsg493
g494
sbsg435
(i__main__
DelphiAssignStatement
p2791
(dp2792
g438
Nsg443
(i__main__
DelphiIdentAccess
p2793
(dp2794
g15
S'self'
p2795
sg406
(lp2796
(idelphi
DelphiFieldEndAccess
p2797
(dp2798
g416
S'disableSliders'
p2799
sbasbsbsg448
(idelphi
DelphiCompoundStatement
p2800
(dp2801
g396
(lp2802
(i__main__
DelphiAssignStatement
p2803
(dp2804
g438
(i__main__
DelphiIdentAccess
p2805
(dp2806
g15
S'support_rgb'
p2807
sg406
(lp2808
(idelphi
DelphiFunctionEndAccess
p2809
(dp2810
g408
(lp2811
(i__main__
DelphiIdentAccess
p2812
(dp2813
g15
S'redSlider'
p2814
sg406
(lp2815
(idelphi
DelphiFieldEndAccess
p2816
(dp2817
g416
S'currentValue'
p2818
sbasba(i__main__
DelphiIdentAccess
p2819
(dp2820
g15
S'greenSlider'
p2821
sg406
(lp2822
(idelphi
DelphiFieldEndAccess
p2823
(dp2824
g416
S'currentValue'
p2825
sbasba(i__main__
DelphiIdentAccess
p2826
(dp2827
g15
S'blueSlider'
p2828
sg406
(lp2829
(idelphi
DelphiFieldEndAccess
p2830
(dp2831
g416
S'currentValue'
p2832
sbasbasbasbsg443
(i__main__
DelphiIdentAccess
p2833
(dp2834
g15
S'colorWhileDragging'
p2835
sg406
(lp2836
sbsba(i__main__
DelphiAssignStatement
p2837
(dp2838
g438
Nsg443
(i__main__
DelphiIdentAccess
p2839
(dp2840
g15
S'self'
p2841
sg406
(lp2842
(idelphi
DelphiFieldEndAccess
p2843
(dp2844
g416
S'repaint'
p2845
sbasbsg1068
(lp2846
S" don't make change permanent yet, not until mouse up "
p2847
asbasbsbasbsg459
(lp2848
sbsbsS'slidermouseup'
p2849
(i__main__
DelphiMethodImplementation
p2850
(dp2851
g374
g261
sg76
g263
sg84
(lp2852
(i__main__
DelphiFormalParameter
p2853
(dp2854
g112
Nsg113
(lp2855
S'Sender'
p2856
asg17
(i__main__
DelphiNamedType
p2857
(dp2858
g20
S'TObject'
p2859
sg119
g1
sg120
Nsbsg121
Nsbasg376
(lp2860
sg378
(lp2861
sg380
(lp2862
g382
ag2856
asg383
(dp2863
g2856
g2857
ssg86
S'PdColorParameterPanel'
p2864
sg87
Nsg388
(lp2865
sg91
I0
sg92
g99
sg390
(i__main__
DelphiBlock
p2866
(dp2867
g393
(idelphi
DelphiCompoundStatement
p2868
(dp2869
g396
(lp2870
(idelphi
DelphiIfStatement
p2871
(dp2872
g400
(idelphi
DelphiRelOp
p2873
(dp2874
g485
(i__main__
DelphiIdentAccess
p2875
(dp2876
g15
S'plant'
p2877
sg406
(lp2878
sbsg490
(idelphi
DelphiNilValue
p2879
(dp2880
bsg493
g494
sbsg435
(i__main__
DelphiAssignStatement
p2881
(dp2882
g438
Nsg443
(i__main__
DelphiIdentAccess
p2883
(dp2884
g15
S'self'
p2885
sg406
(lp2886
(idelphi
DelphiFieldEndAccess
p2887
(dp2888
g416
S'disableSliders'
p2889
sbasbsbsg448
(idelphi
DelphiCompoundStatement
p2890
(dp2891
g396
(lp2892
(i__main__
DelphiAssignStatement
p2893
(dp2894
g438
(i__main__
DelphiIdentAccess
p2895
(dp2896
g15
S'support_rgb'
p2897
sg406
(lp2898
(idelphi
DelphiFunctionEndAccess
p2899
(dp2900
g408
(lp2901
(i__main__
DelphiIdentAccess
p2902
(dp2903
g15
S'redSlider'
p2904
sg406
(lp2905
(idelphi
DelphiFieldEndAccess
p2906
(dp2907
g416
S'currentValue'
p2908
sbasba(i__main__
DelphiIdentAccess
p2909
(dp2910
g15
S'greenSlider'
p2911
sg406
(lp2912
(idelphi
DelphiFieldEndAccess
p2913
(dp2914
g416
S'currentValue'
p2915
sbasba(i__main__
DelphiIdentAccess
p2916
(dp2917
g15
S'blueSlider'
p2918
sg406
(lp2919
(idelphi
DelphiFieldEndAccess
p2920
(dp2921
g416
S'currentValue'
p2922
sbasbasbasbsg443
(i__main__
DelphiIdentAccess
p2923
(dp2924
g15
S'currentColor'
p2925
sg406
(lp2926
sbsba(i__main__
DelphiAssignStatement
p2927
(dp2928
g438
Nsg443
(i__main__
DelphiIdentAccess
p2929
(dp2930
g15
S'MainForm'
p2931
sg406
(lp2932
(idelphi
DelphiFieldEndAccess
p2933
(dp2934
g416
S'doCommand'
p2935
sba(idelphi
DelphiFunctionEndAccess
p2936
(dp2937
g408
(lp2938
(i__main__
DelphiIdentAccess
p2939
(dp2940
g15
S'PdChangeColorValueCommand'
p2941
sg406
(lp2942
(idelphi
DelphiFieldEndAccess
p2943
(dp2944
g416
S'createCommandWithListOfPlants'
p2945
sba(idelphi
DelphiFunctionEndAccess
p2946
(dp2947
g408
(lp2948
(i__main__
DelphiIdentAccess
p2949
(dp2950
g15
S'MainForm'
p2951
sg406
(lp2952
(idelphi
DelphiFieldEndAccess
p2953
(dp2954
g416
S'selectedPlants'
p2955
sbasba(i__main__
DelphiIdentAccess
p2956
(dp2957
g15
S'currentColor'
p2958
sg406
(lp2959
sba(i__main__
DelphiIdentAccess
p2960
(dp2961
g15
S'param'
p2962
sg406
(lp2963
(idelphi
DelphiFieldEndAccess
p2964
(dp2965
g416
S'fieldNumber'
p2966
sbasba(i__main__
DelphiIdentAccess
p2967
(dp2968
g15
S'kNotArray'
p2969
sg406
(lp2970
sba(i__main__
DelphiIdentAccess
p2971
(dp2972
g15
S'param'
p2973
sg406
(lp2974
(idelphi
DelphiFieldEndAccess
p2975
(dp2976
g416
S'regrow'
p2977
sbasbasbasbasbasbsba(i__main__
DelphiAssignStatement
p2978
(dp2979
g438
Nsg443
(i__main__
DelphiIdentAccess
p2980
(dp2981
g15
S'self'
p2982
sg406
(lp2983
(idelphi
DelphiFieldEndAccess
p2984
(dp2985
g416
S'updateDisplay'
p2986
sbasbsba(i__main__
DelphiAssignStatement
p2987
(dp2988
g438
Nsg443
(i__main__
DelphiIdentAccess
p2989
(dp2990
g15
S'self'
p2991
sg406
(lp2992
(idelphi
DelphiFieldEndAccess
p2993
(dp2994
g416
S'invalidate'
p2995
sbasbsbasbsbasbsg459
(lp2996
sbsbsS'domouseup'
p2997
(i__main__
DelphiMethodImplementation
p2998
(dp2999
g374
g141
sg76
g143
sg84
(lp3000
(i__main__
DelphiFormalParameter
p3001
(dp3002
g112
Nsg113
(lp3003
S'Sender'
p3004
asg17
(i__main__
DelphiNamedType
p3005
(dp3006
g20
S'TObject'
p3007
sg119
g1
sg120
Nsbsg121
Nsba(i__main__
DelphiFormalParameter
p3008
(dp3009
g112
Nsg113
(lp3010
S'Button'
p3011
asg17
(i__main__
DelphiNamedType
p3012
(dp3013
g20
S'TMouseButton'
p3014
sg119
g1
sg120
Nsbsg121
Nsba(i__main__
DelphiFormalParameter
p3015
(dp3016
g112
Nsg113
(lp3017
S'Shift'
p3018
asg17
(i__main__
DelphiNamedType
p3019
(dp3020
g20
S'TShiftState'
p3021
sg119
g1
sg120
Nsbsg121
Nsba(i__main__
DelphiFormalParameter
p3022
(dp3023
g112
Nsg113
(lp3024
S'X'
aS'Y'
asg17
(i__main__
DelphiPrimitiveType
p3025
(dp3026
g20
g90
sbsg121
Nsbasg376
(lp3027
sg378
(lp3028
sg380
(lp3029
g382
ag3004
ag3011
ag3018
aS'X'
aS'Y'
asg383
(dp3030
S'Y'
g3025
sg3018
g3019
sg3011
g3012
sg3004
g3005
sS'X'
g3025
ssg86
S'PdColorParameterPanel'
p3031
sg87
Nsg388
(lp3032
sg91
I0
sg92
g99
sg390
(i__main__
DelphiBlock
p3033
(dp3034
g393
(idelphi
DelphiCompoundStatement
p3035
(dp3036
g396
(lp3037
(i__main__
DelphiAssignStatement
p3038
(dp3039
g438
Nsg443
(idelphi
DelphiInheritedCall
p3040
(dp3041
g15
S'doMouseUp'
p3042
sg408
(lp3043
(i__main__
DelphiIdentAccess
p3044
(dp3045
g15
S'sender'
p3046
sg406
(lp3047
sba(i__main__
DelphiIdentAccess
p3048
(dp3049
g15
S'button'
p3050
sg406
(lp3051
sba(i__main__
DelphiIdentAccess
p3052
(dp3053
g15
S'shift'
p3054
sg406
(lp3055
sba(i__main__
DelphiIdentAccess
p3056
(dp3057
g15
S'x'
sg406
(lp3058
sba(i__main__
DelphiIdentAccess
p3059
(dp3060
g15
S'y'
sg406
(lp3061
sbasbsg1068
(lp3062
S' must always call this first because it sets the focus '
p3063
asba(idelphi
DelphiIfStatement
p3064
(dp3065
g400
(idelphi
DelphiAddOp
p3066
(dp3067
g733
g2429
sg734
(idelphi
DelphiNestedExpressionListAccess
p3068
(dp3069
g406
(lp3070
sg408
(lp3071
(i__main__
DelphiIdentAccess
p3072
(dp3073
g15
S'self'
p3074
sg406
(lp3075
(idelphi
DelphiFieldEndAccess
p3076
(dp3077
g416
S'readOnly'
p3078
sbasbasbsg753
(idelphi
DelphiNestedExpressionListAccess
p3079
(dp3080
g406
(lp3081
sg408
(lp3082
(idelphi
DelphiRelOp
p3083
(dp3084
g485
(i__main__
DelphiIdentAccess
p3085
(dp3086
g15
S'plant'
p3087
sg406
(lp3088
sbsg490
(idelphi
DelphiNilValue
p3089
(dp3090
bsg493
S'='
sbasbsbsg435
Nsg448
(i__main__
DelphiExitStatement
p3091
(dp3092
g1073
g2998
sbsba(i__main__
DelphiAssignStatement
p3093
(dp3094
g438
(i__main__
DelphiIdentAccess
p3095
(dp3096
g15
S'point'
p3097
sg406
(lp3098
(idelphi
DelphiFunctionEndAccess
p3099
(dp3100
g408
(lp3101
(i__main__
DelphiIdentAccess
p3102
(dp3103
g15
S'x'
sg406
(lp3104
sba(i__main__
DelphiIdentAccess
p3105
(dp3106
g15
S'y'
sg406
(lp3107
sbasbasbsg443
(i__main__
DelphiIdentAccess
p3108
(dp3109
g15
S'thePoint'
p3110
sg406
(lp3111
sbsba(idelphi
DelphiIfStatement
p3112
(dp3113
g400
(i__main__
DelphiIdentAccess
p3114
(dp3115
g15
S'ptInRect'
p3116
sg406
(lp3117
(idelphi
DelphiFunctionEndAccess
p3118
(dp3119
g408
(lp3120
(i__main__
DelphiIdentAccess
p3121
(dp3122
g15
S'colorRect'
p3123
sg406
(lp3124
sba(i__main__
DelphiIdentAccess
p3125
(dp3126
g15
S'thePoint'
p3127
sg406
(lp3128
sbasbasbsg435
Nsg448
(idelphi
DelphiCompoundStatement
p3129
(dp3130
g396
(lp3131
(i__main__
DelphiAssignStatement
p3132
(dp3133
g438
(i__main__
DelphiIdentAccess
p3134
(dp3135
g15
S'kItemColorRect'
p3136
sg406
(lp3137
sbsg443
(i__main__
DelphiIdentAccess
p3138
(dp3139
g15
S'self'
p3140
sg406
(lp3141
(idelphi
DelphiFieldEndAccess
p3142
(dp3143
g416
S'selectedItemIndex'
p3144
sbasbsba(i__main__
DelphiAssignStatement
p3145
(dp3146
g438
(i__main__
DelphiIdentAccess
p3147
(dp3148
g15
S'domain'
p3149
sg406
(lp3150
(idelphi
DelphiFieldEndAccess
p3151
(dp3152
g416
S'getColorUsingCustomColors'
p3153
sba(idelphi
DelphiFunctionEndAccess
p3154
(dp3155
g408
(lp3156
(i__main__
DelphiIdentAccess
p3157
(dp3158
g15
S'currentColor'
p3159
sg406
(lp3160
sbasbasbsg443
(i__main__
DelphiIdentAccess
p3161
(dp3162
g15
S'newColor'
p3163
sg406
(lp3164
sbsba(idelphi
DelphiIfStatement
p3165
(dp3166
g400
(idelphi
DelphiRelOp
p3167
(dp3168
g485
(i__main__
DelphiIdentAccess
p3169
(dp3170
g15
S'newColor'
p3171
sg406
(lp3172
sbsg490
(i__main__
DelphiIdentAccess
p3173
(dp3174
g15
S'currentColor'
p3175
sg406
(lp3176
sbsg493
g494
sbsg435
Nsg448
(idelphi
DelphiCompoundStatement
p3177
(dp3178
g396
(lp3179
(i__main__
DelphiAssignStatement
p3180
(dp3181
g438
(i__main__
DelphiIdentAccess
p3182
(dp3183
g15
S'newColor'
p3184
sg406
(lp3185
sbsg443
(i__main__
DelphiIdentAccess
p3186
(dp3187
g15
S'currentColor'
p3188
sg406
(lp3189
sbsba(i__main__
DelphiAssignStatement
p3190
(dp3191
g438
Nsg443
(i__main__
DelphiIdentAccess
p3192
(dp3193
g15
S'MainForm'
p3194
sg406
(lp3195
(idelphi
DelphiFieldEndAccess
p3196
(dp3197
g416
S'doCommand'
p3198
sba(idelphi
DelphiFunctionEndAccess
p3199
(dp3200
g408
(lp3201
(i__main__
DelphiIdentAccess
p3202
(dp3203
g15
S'PdChangeColorValueCommand'
p3204
sg406
(lp3205
(idelphi
DelphiFieldEndAccess
p3206
(dp3207
g416
S'createCommandWithListOfPlants'
p3208
sba(idelphi
DelphiFunctionEndAccess
p3209
(dp3210
g408
(lp3211
(i__main__
DelphiIdentAccess
p3212
(dp3213
g15
S'MainForm'
p3214
sg406
(lp3215
(idelphi
DelphiFieldEndAccess
p3216
(dp3217
g416
S'selectedPlants'
p3218
sbasba(i__main__
DelphiIdentAccess
p3219
(dp3220
g15
S'currentColor'
p3221
sg406
(lp3222
sba(i__main__
DelphiIdentAccess
p3223
(dp3224
g15
S'param'
p3225
sg406
(lp3226
(idelphi
DelphiFieldEndAccess
p3227
(dp3228
g416
S'fieldNumber'
p3229
sbasba(i__main__
DelphiIdentAccess
p3230
(dp3231
g15
S'kNotArray'
p3232
sg406
(lp3233
sba(i__main__
DelphiIdentAccess
p3234
(dp3235
g15
S'param'
p3236
sg406
(lp3237
(idelphi
DelphiFieldEndAccess
p3238
(dp3239
g416
S'regrow'
p3240
sbasbasbasbasbasbsba(i__main__
DelphiAssignStatement
p3241
(dp3242
g438
Nsg443
(i__main__
DelphiIdentAccess
p3243
(dp3244
g15
S'self'
p3245
sg406
(lp3246
(idelphi
DelphiFieldEndAccess
p3247
(dp3248
g416
S'updateDisplay'
p3249
sbasbsba(i__main__
DelphiAssignStatement
p3250
(dp3251
g438
Nsg443
(i__main__
DelphiIdentAccess
p3252
(dp3253
g15
S'self'
p3254
sg406
(lp3255
(idelphi
DelphiFieldEndAccess
p3256
(dp3257
g416
S'invalidate'
p3258
sbasbsbasbsbasbsbasbsg459
(lp3259
(i__main__
DelphiVarSection
p3260
(dp3261
g59
I0
sg1665
(lp3262
(idelphi
DelphiVarDecl
p3263
(dp3264
g11
Nsg1669
(lp3265
S'thePoint'
p3266
asg17
(i__main__
DelphiNamedType
p3267
(dp3268
g20
S'TPoint'
p3269
sg119
g1
sg120
Nsbsba(idelphi
DelphiVarDecl
p3270
(dp3271
g11
Nsg1669
(lp3272
S'newColor'
p3273
asg17
(i__main__
DelphiNamedType
p3274
(dp3275
g20
S'TColorRef'
p3276
sg119
g1
sg120
NsbsbasbasbsbsS'initialize'
p3277
(i__main__
DelphiMethodImplementation
p3278
(dp3279
g374
g278
sg76
g280
sg84
(lp3280
sg376
(lp3281
sg378
(lp3282
sg380
(lp3283
g382
asg383
(dp3284
sg86
S'PdColorParameterPanel'
p3285
sg87
Nsg388
(lp3286
sg91
I0
sg92
g99
sg390
(i__main__
DelphiBlock
p3287
(dp3288
g393
(idelphi
DelphiCompoundStatement
p3289
(dp3290
g396
(lp3291
(i__main__
DelphiAssignStatement
p3292
(dp3293
g438
(i__main__
DelphiIdentAccess
p3294
(dp3295
g15
S'KfSlider'
p3296
sg406
(lp3297
(idelphi
DelphiFieldEndAccess
p3298
(dp3299
g416
S'create'
p3300
sba(idelphi
DelphiFunctionEndAccess
p3301
(dp3302
g408
(lp3303
(i__main__
DelphiIdentAccess
p3304
(dp3305
g15
S'self'
p3306
sg406
(lp3307
sbasbasbsg443
(i__main__
DelphiIdentAccess
p3308
(dp3309
g15
S'redSlider'
p3310
sg406
(lp3311
sbsg1068
(lp3312
S'assuming sliders will be deleted automatically by owner - self - otherwise would have destructor'
p3313
asba(i__main__
DelphiAssignStatement
p3314
(dp3315
g438
Nsg443
(i__main__
DelphiIdentAccess
p3316
(dp3317
g15
S'self'
p3318
sg406
(lp3319
(idelphi
DelphiFieldEndAccess
p3320
(dp3321
g416
S'initSlider'
p3322
sba(idelphi
DelphiFunctionEndAccess
p3323
(dp3324
g408
(lp3325
(i__main__
DelphiIdentAccess
p3326
(dp3327
g15
S'redSlider'
p3328
sg406
(lp3329
sbasbasbsba(i__main__
DelphiAssignStatement
p3330
(dp3331
g438
(i__main__
DelphiIdentAccess
p3332
(dp3333
g15
S'KfSlider'
p3334
sg406
(lp3335
(idelphi
DelphiFieldEndAccess
p3336
(dp3337
g416
S'create'
p3338
sba(idelphi
DelphiFunctionEndAccess
p3339
(dp3340
g408
(lp3341
(i__main__
DelphiIdentAccess
p3342
(dp3343
g15
S'self'
p3344
sg406
(lp3345
sbasbasbsg443
(i__main__
DelphiIdentAccess
p3346
(dp3347
g15
S'greenSlider'
p3348
sg406
(lp3349
sbsba(i__main__
DelphiAssignStatement
p3350
(dp3351
g438
Nsg443
(i__main__
DelphiIdentAccess
p3352
(dp3353
g15
S'self'
p3354
sg406
(lp3355
(idelphi
DelphiFieldEndAccess
p3356
(dp3357
g416
S'initSlider'
p3358
sba(idelphi
DelphiFunctionEndAccess
p3359
(dp3360
g408
(lp3361
(i__main__
DelphiIdentAccess
p3362
(dp3363
g15
S'greenSlider'
p3364
sg406
(lp3365
sbasbasbsba(i__main__
DelphiAssignStatement
p3366
(dp3367
g438
(i__main__
DelphiIdentAccess
p3368
(dp3369
g15
S'KfSlider'
p3370
sg406
(lp3371
(idelphi
DelphiFieldEndAccess
p3372
(dp3373
g416
S'create'
p3374
sba(idelphi
DelphiFunctionEndAccess
p3375
(dp3376
g408
(lp3377
(i__main__
DelphiIdentAccess
p3378
(dp3379
g15
S'self'
p3380
sg406
(lp3381
sbasbasbsg443
(i__main__
DelphiIdentAccess
p3382
(dp3383
g15
S'blueSlider'
p3384
sg406
(lp3385
sbsba(i__main__
DelphiAssignStatement
p3386
(dp3387
g438
Nsg443
(i__main__
DelphiIdentAccess
p3388
(dp3389
g15
S'self'
p3390
sg406
(lp3391
(idelphi
DelphiFieldEndAccess
p3392
(dp3393
g416
S'initSlider'
p3394
sba(idelphi
DelphiFunctionEndAccess
p3395
(dp3396
g408
(lp3397
(i__main__
DelphiIdentAccess
p3398
(dp3399
g15
S'blueSlider'
p3400
sg406
(lp3401
sbasbasbsba(i__main__
DelphiAssignStatement
p3402
(dp3403
g438
(i__main__
DelphiIdentAccess
p3404
(dp3405
g15
S'self'
p3406
sg406
(lp3407
(idelphi
DelphiFieldEndAccess
p3408
(dp3409
g416
S'doMouseUp'
p3410
sbasbsg443
(i__main__
DelphiIdentAccess
p3411
(dp3412
g15
S'self'
p3413
sg406
(lp3414
(idelphi
DelphiFieldEndAccess
p3415
(dp3416
g416
S'onMouseUp'
p3417
sbasbsbasbsg459
(lp3418
sbsbsS'fillrectwithcolor'
p3419
(i__main__
DelphiMethodImplementation
p3420
(dp3421
g374
g283
sg76
g285
sg84
(lp3422
(i__main__
DelphiFormalParameter
p3423
(dp3424
g112
Nsg113
(lp3425
S'aRect'
p3426
asg17
(i__main__
DelphiNamedType
p3427
(dp3428
g20
S'TRect'
p3429
sg119
g1
sg120
Nsbsg121
Nsba(i__main__
DelphiFormalParameter
p3430
(dp3431
g112
Nsg113
(lp3432
S'aColor'
p3433
asg17
(i__main__
DelphiNamedType
p3434
(dp3435
g20
S'TColorRef'
p3436
sg119
g1
sg120
Nsbsg121
Nsbasg376
(lp3437
sg378
(lp3438
sg380
(lp3439
g382
ag3426
ag3433
asg383
(dp3440
g3433
g3434
sg3426
g3427
ssg86
S'PdColorParameterPanel'
p3441
sg87
Nsg388
(lp3442
sg91
I0
sg92
g99
sg390
(i__main__
DelphiBlock
p3443
(dp3444
g393
(idelphi
DelphiCompoundStatement
p3445
(dp3446
g396
(lp3447
(i__main__
DelphiAssignStatement
p3448
(dp3449
g438
(i__main__
DelphiIdentAccess
p3450
(dp3451
g15
S'TBitmap'
p3452
sg406
(lp3453
(idelphi
DelphiFieldEndAccess
p3454
(dp3455
g416
S'create'
p3456
sbasbsg443
(i__main__
DelphiIdentAccess
p3457
(dp3458
g15
S'bitmap'
p3459
sg406
(lp3460
sbsba(idelphi
DelphiTryFinallyStatement
p3461
(dp3462
S'tryStatements'
p3463
(lp3464
(idelphi
DelphiTryExceptStatement
p3465
(dp3466
g3463
(lp3467
(i__main__
DelphiAssignStatement
p3468
(dp3469
g438
(i__main__
DelphiIdentAccess
p3470
(dp3471
g15
S'rWidth'
p3472
sg406
(lp3473
(idelphi
DelphiFunctionEndAccess
p3474
(dp3475
g408
(lp3476
(i__main__
DelphiIdentAccess
p3477
(dp3478
g15
S'aRect'
p3479
sg406
(lp3480
sbasbasbsg443
(i__main__
DelphiIdentAccess
p3481
(dp3482
g15
S'bitmap'
p3483
sg406
(lp3484
(idelphi
DelphiFieldEndAccess
p3485
(dp3486
g416
S'width'
p3487
sbasbsba(i__main__
DelphiAssignStatement
p3488
(dp3489
g438
(i__main__
DelphiIdentAccess
p3490
(dp3491
g15
S'rHeight'
p3492
sg406
(lp3493
(idelphi
DelphiFunctionEndAccess
p3494
(dp3495
g408
(lp3496
(i__main__
DelphiIdentAccess
p3497
(dp3498
g15
S'aRect'
p3499
sg406
(lp3500
sbasbasbsg443
(i__main__
DelphiIdentAccess
p3501
(dp3502
g15
S'bitmap'
p3503
sg406
(lp3504
(idelphi
DelphiFieldEndAccess
p3505
(dp3506
g416
S'height'
p3507
sbasbsbasS'exceptionHandlers'
p3508
(idelphi
DelphiExceptionHandlers
p3509
(dp3510
S'exceptionHandlerList'
p3511
NsS'statementList'
p3512
(lp3513
(i__main__
DelphiAssignStatement
p3514
(dp3515
g438
(idelphi
DelphiIntegerValue
p3516
(dp3517
g14
S'1'
sbsg443
(i__main__
DelphiIdentAccess
p3518
(dp3519
g15
S'bitmap'
p3520
sg406
(lp3521
(idelphi
DelphiFieldEndAccess
p3522
(dp3523
g416
S'width'
p3524
sbasbsba(i__main__
DelphiAssignStatement
p3525
(dp3526
g438
(idelphi
DelphiIntegerValue
p3527
(dp3528
g14
S'1'
sbsg443
(i__main__
DelphiIdentAccess
p3529
(dp3530
g15
S'bitmap'
p3531
sg406
(lp3532
(idelphi
DelphiFieldEndAccess
p3533
(dp3534
g416
S'height'
p3535
sbasbsbasbsba(i__main__
DelphiAssignStatement
p3536
(dp3537
g438
Nsg443
(i__main__
DelphiIdentAccess
p3538
(dp3539
g15
S'setPixelFormatBasedOnScreenForBitmap'
p3540
sg406
(lp3541
(idelphi
DelphiFunctionEndAccess
p3542
(dp3543
g408
(lp3544
(i__main__
DelphiIdentAccess
p3545
(dp3546
g15
S'bitmap'
p3547
sg406
(lp3548
sbasbasbsba(i__main__
DelphiAssignStatement
p3549
(dp3550
g438
(i__main__
DelphiIdentAccess
p3551
(dp3552
g15
S'aColor'
p3553
sg406
(lp3554
sbsg443
(i__main__
DelphiIdentAccess
p3555
(dp3556
g15
S'bitmap'
p3557
sg406
(lp3558
(idelphi
DelphiFieldEndAccess
p3559
(dp3560
g416
S'canvas'
p3561
sba(idelphi
DelphiFieldEndAccess
p3562
(dp3563
g416
S'brush'
p3564
sba(idelphi
DelphiFieldEndAccess
p3565
(dp3566
g416
S'color'
p3567
sbasbsba(i__main__
DelphiAssignStatement
p3568
(dp3569
g438
Nsg443
(i__main__
DelphiIdentAccess
p3570
(dp3571
g15
S'bitmap'
p3572
sg406
(lp3573
(idelphi
DelphiFieldEndAccess
p3574
(dp3575
g416
S'canvas'
p3576
sba(idelphi
DelphiFieldEndAccess
p3577
(dp3578
g416
S'fillRect'
p3579
sba(idelphi
DelphiFunctionEndAccess
p3580
(dp3581
g408
(lp3582
(i__main__
DelphiIdentAccess
p3583
(dp3584
g15
S'Rect'
p3585
sg406
(lp3586
(idelphi
DelphiFunctionEndAccess
p3587
(dp3588
g408
(lp3589
(idelphi
DelphiIntegerValue
p3590
(dp3591
g14
S'0'
sba(idelphi
DelphiIntegerValue
p3592
(dp3593
g14
S'0'
sba(i__main__
DelphiIdentAccess
p3594
(dp3595
g15
S'bitmap'
p3596
sg406
(lp3597
(idelphi
DelphiFieldEndAccess
p3598
(dp3599
g416
S'width'
p3600
sbasba(i__main__
DelphiIdentAccess
p3601
(dp3602
g15
S'bitmap'
p3603
sg406
(lp3604
(idelphi
DelphiFieldEndAccess
p3605
(dp3606
g416
S'height'
p3607
sbasbasbasbasbasbsba(i__main__
DelphiAssignStatement
p3608
(dp3609
g438
Nsg443
(i__main__
DelphiIdentAccess
p3610
(dp3611
g15
S'copyBitmapToCanvasWithGlobalPalette'
p3612
sg406
(lp3613
(idelphi
DelphiFunctionEndAccess
p3614
(dp3615
g408
(lp3616
(i__main__
DelphiIdentAccess
p3617
(dp3618
g15
S'bitmap'
p3619
sg406
(lp3620
sba(i__main__
DelphiIdentAccess
p3621
(dp3622
g15
S'self'
p3623
sg406
(lp3624
(idelphi
DelphiFieldEndAccess
p3625
(dp3626
g416
S'canvas'
p3627
sbasba(i__main__
DelphiIdentAccess
p3628
(dp3629
g15
S'aRect'
p3630
sg406
(lp3631
sbasbasbsbasS'finallyStatements'
p3632
(lp3633
(i__main__
DelphiAssignStatement
p3634
(dp3635
g438
Nsg443
(i__main__
DelphiIdentAccess
p3636
(dp3637
g15
S'bitmap'
p3638
sg406
(lp3639
(idelphi
DelphiFieldEndAccess
p3640
(dp3641
g416
S'free'
p3642
sbasbsbasbasbsg459
(lp3643
(i__main__
DelphiVarSection
p3644
(dp3645
g59
I0
sg1665
(lp3646
(idelphi
DelphiVarDecl
p3647
(dp3648
g11
Nsg1669
(lp3649
S'bitmap'
p3650
asg17
(i__main__
DelphiNamedType
p3651
(dp3652
g20
S'TBitmap'
p3653
sg119
g1
sg120
NsbsbasbasbsbsS'resizeelements'
p3654
(i__main__
DelphiMethodImplementation
p3655
(dp3656
g374
g273
sg76
g275
sg84
(lp3657
sg376
(lp3658
sg378
(lp3659
sg380
(lp3660
g382
asg383
(dp3661
sg86
S'PdColorParameterPanel'
p3662
sg87
Nsg388
(lp3663
sg91
I0
sg92
g99
sg390
(i__main__
DelphiBlock
p3664
(dp3665
g393
(idelphi
DelphiCompoundStatement
p3666
(dp3667
g396
(lp3668
(i__main__
DelphiAssignStatement
p3669
(dp3670
g438
(idelphi
DelphiAddOp
p3671
(dp3672
g733
S'+'
sg734
(idelphi
DelphiMulOp
p3673
(dp3674
g403
(idelphi
DelphiIntegerValue
p3675
(dp3676
g14
S'2'
sbsg418
S'*'
sg420
(i__main__
DelphiIdentAccess
p3677
(dp3678
g15
S'kLeftRightGap'
p3679
sg406
(lp3680
sbsbsg753
(idelphi
DelphiAddOp
p3681
(dp3682
g733
S'+'
sg734
(i__main__
DelphiIdentAccess
p3683
(dp3684
g15
S'self'
p3685
sg406
(lp3686
(idelphi
DelphiFieldEndAccess
p3687
(dp3688
g416
S'formTextWidth'
p3689
sba(idelphi
DelphiFunctionEndAccess
p3690
(dp3691
g408
(lp3692
(idelphi
DelphiStringAccess
p3693
(dp3694
g406
(lp3695
sg14
(idelphi
DelphiStringValue
p3696
(dp3697
g14
S'W'
sbsbasbasbsg753
(idelphi
DelphiAddOp
p3698
(dp3699
g733
S'+'
sg734
(i__main__
DelphiIdentAccess
p3700
(dp3701
g15
S'kColorRectSize'
p3702
sg406
(lp3703
sbsg753
(i__main__
DelphiIdentAccess
p3704
(dp3705
g15
S'kLeftRightGap'
p3706
sg406
(lp3707
sbsbsbsbsg443
(i__main__
DelphiIdentAccess
p3708
(dp3709
g15
S'redSlider'
p3710
sg406
(lp3711
(idelphi
DelphiFieldEndAccess
p3712
(dp3713
g416
S'left'
p3714
sbasbsba(i__main__
DelphiAssignStatement
p3715
(dp3716
g438
(i__main__
DelphiIdentAccess
p3717
(dp3718
g15
S'intMax'
p3719
sg406
(lp3720
(idelphi
DelphiFunctionEndAccess
p3721
(dp3722
g408
(lp3723
(idelphi
DelphiIntegerValue
p3724
(dp3725
g14
S'0'
sba(idelphi
DelphiAddOp
p3726
(dp3727
g733
S'-'
sg734
(i__main__
DelphiIdentAccess
p3728
(dp3729
g15
S'kLeftRightGap'
p3730
sg406
(lp3731
sbsg753
(idelphi
DelphiAddOp
p3732
(dp3733
g733
S'-'
sg734
(i__main__
DelphiIdentAccess
p3734
(dp3735
g15
S'redSlider'
p3736
sg406
(lp3737
(idelphi
DelphiFieldEndAccess
p3738
(dp3739
g416
S'left'
p3740
sbasbsg753
(i__main__
DelphiIdentAccess
p3741
(dp3742
g15
S'self'
p3743
sg406
(lp3744
(idelphi
DelphiFieldEndAccess
p3745
(dp3746
g416
S'width'
p3747
sbasbsbsbasbasbsg443
(i__main__
DelphiIdentAccess
p3748
(dp3749
g15
S'redSlider'
p3750
sg406
(lp3751
(idelphi
DelphiFieldEndAccess
p3752
(dp3753
g416
S'width'
p3754
sbasbsba(i__main__
DelphiAssignStatement
p3755
(dp3756
g438
(idelphi
DelphiAddOp
p3757
(dp3758
g733
S'-'
sg734
(idelphi
DelphiMulOp
p3759
(dp3760
g403
(idelphi
DelphiIntegerValue
p3761
(dp3762
g14
S'2'
sbsg418
S'div'
p3763
sg420
(i__main__
DelphiIdentAccess
p3764
(dp3765
g15
S'redSlider'
p3766
sg406
(lp3767
(idelphi
DelphiFieldEndAccess
p3768
(dp3769
g416
S'height'
p3770
sbasbsbsg753
(idelphi
DelphiAddOp
p3771
(dp3772
g733
S'+'
sg734
(idelphi
DelphiMulOp
p3773
(dp3774
g403
(idelphi
DelphiIntegerValue
p3775
(dp3776
g14
S'2'
sbsg418
g3763
sg420
(i__main__
DelphiIdentAccess
p3777
(dp3778
g15
S'self'
p3779
sg406
(lp3780
(idelphi
DelphiFieldEndAccess
p3781
(dp3782
g416
S'canvas'
p3783
sba(idelphi
DelphiFieldEndAccess
p3784
(dp3785
g416
S'textHeight'
p3786
sba(idelphi
DelphiFunctionEndAccess
p3787
(dp3788
g408
(lp3789
(idelphi
DelphiStringAccess
p3790
(dp3791
g406
(lp3792
sg14
(idelphi
DelphiStringValue
p3793
(dp3794
g14
S'r'
sbsbasbasbsbsg753
(idelphi
DelphiAddOp
p3795
(dp3796
g733
S'+'
sg734
(i__main__
DelphiIdentAccess
p3797
(dp3798
g15
S'kTopBottomGap'
p3799
sg406
(lp3800
sbsg753
(i__main__
DelphiIdentAccess
p3801
(dp3802
g15
S'self'
p3803
sg406
(lp3804
(idelphi
DelphiFieldEndAccess
p3805
(dp3806
g416
S'collapsedHeight'
p3807
sbasbsbsbsbsg443
(i__main__
DelphiIdentAccess
p3808
(dp3809
g15
S'redSlider'
p3810
sg406
(lp3811
(idelphi
DelphiFieldEndAccess
p3812
(dp3813
g416
S'top'
p3814
sbasbsba(i__main__
DelphiAssignStatement
p3815
(dp3816
g438
(i__main__
DelphiIdentAccess
p3817
(dp3818
g15
S'redSlider'
p3819
sg406
(lp3820
(idelphi
DelphiFieldEndAccess
p3821
(dp3822
g416
S'left'
p3823
sbasbsg443
(i__main__
DelphiIdentAccess
p3824
(dp3825
g15
S'greenSlider'
p3826
sg406
(lp3827
(idelphi
DelphiFieldEndAccess
p3828
(dp3829
g416
S'left'
p3830
sbasbsba(i__main__
DelphiAssignStatement
p3831
(dp3832
g438
(i__main__
DelphiIdentAccess
p3833
(dp3834
g15
S'redSlider'
p3835
sg406
(lp3836
(idelphi
DelphiFieldEndAccess
p3837
(dp3838
g416
S'width'
p3839
sbasbsg443
(i__main__
DelphiIdentAccess
p3840
(dp3841
g15
S'greenSlider'
p3842
sg406
(lp3843
(idelphi
DelphiFieldEndAccess
p3844
(dp3845
g416
S'width'
p3846
sbasbsba(i__main__
DelphiAssignStatement
p3847
(dp3848
g438
(idelphi
DelphiAddOp
p3849
(dp3850
g733
S'-'
sg734
(idelphi
DelphiMulOp
p3851
(dp3852
g403
(idelphi
DelphiIntegerValue
p3853
(dp3854
g14
S'2'
sbsg418
g3763
sg420
(i__main__
DelphiIdentAccess
p3855
(dp3856
g15
S'greenSlider'
p3857
sg406
(lp3858
(idelphi
DelphiFieldEndAccess
p3859
(dp3860
g416
S'height'
p3861
sbasbsbsg753
(idelphi
DelphiAddOp
p3862
(dp3863
g733
S'+'
sg734
(idelphi
DelphiMulOp
p3864
(dp3865
g403
(idelphi
DelphiIntegerValue
p3866
(dp3867
g14
S'2'
sbsg418
g3763
sg420
(i__main__
DelphiIdentAccess
p3868
(dp3869
g15
S'self'
p3870
sg406
(lp3871
(idelphi
DelphiFieldEndAccess
p3872
(dp3873
g416
S'canvas'
p3874
sba(idelphi
DelphiFieldEndAccess
p3875
(dp3876
g416
S'textHeight'
p3877
sba(idelphi
DelphiFunctionEndAccess
p3878
(dp3879
g408
(lp3880
(idelphi
DelphiStringAccess
p3881
(dp3882
g406
(lp3883
sg14
(idelphi
DelphiStringValue
p3884
(dp3885
g14
S'r'
sbsbasbasbsbsg753
(idelphi
DelphiAddOp
p3886
(dp3887
g733
S'+'
sg734
(i__main__
DelphiIdentAccess
p3888
(dp3889
g15
S'self'
p3890
sg406
(lp3891
(idelphi
DelphiFieldEndAccess
p3892
(dp3893
g416
S'textHeight'
p3894
sbasbsg753
(i__main__
DelphiIdentAccess
p3895
(dp3896
g15
S'redSlider'
p3897
sg406
(lp3898
(idelphi
DelphiFieldEndAccess
p3899
(dp3900
g416
S'top'
p3901
sbasbsbsbsbsg443
(i__main__
DelphiIdentAccess
p3902
(dp3903
g15
S'greenSlider'
p3904
sg406
(lp3905
(idelphi
DelphiFieldEndAccess
p3906
(dp3907
g416
S'top'
p3908
sbasbsba(i__main__
DelphiAssignStatement
p3909
(dp3910
g438
(i__main__
DelphiIdentAccess
p3911
(dp3912
g15
S'redSlider'
p3913
sg406
(lp3914
(idelphi
DelphiFieldEndAccess
p3915
(dp3916
g416
S'left'
p3917
sbasbsg443
(i__main__
DelphiIdentAccess
p3918
(dp3919
g15
S'blueSlider'
p3920
sg406
(lp3921
(idelphi
DelphiFieldEndAccess
p3922
(dp3923
g416
S'left'
p3924
sbasbsba(i__main__
DelphiAssignStatement
p3925
(dp3926
g438
(i__main__
DelphiIdentAccess
p3927
(dp3928
g15
S'redSlider'
p3929
sg406
(lp3930
(idelphi
DelphiFieldEndAccess
p3931
(dp3932
g416
S'width'
p3933
sbasbsg443
(i__main__
DelphiIdentAccess
p3934
(dp3935
g15
S'blueSlider'
p3936
sg406
(lp3937
(idelphi
DelphiFieldEndAccess
p3938
(dp3939
g416
S'width'
p3940
sbasbsba(i__main__
DelphiAssignStatement
p3941
(dp3942
g438
(idelphi
DelphiAddOp
p3943
(dp3944
g733
S'-'
sg734
(idelphi
DelphiMulOp
p3945
(dp3946
g403
(idelphi
DelphiIntegerValue
p3947
(dp3948
g14
S'2'
sbsg418
g3763
sg420
(i__main__
DelphiIdentAccess
p3949
(dp3950
g15
S'blueSlider'
p3951
sg406
(lp3952
(idelphi
DelphiFieldEndAccess
p3953
(dp3954
g416
S'height'
p3955
sbasbsbsg753
(idelphi
DelphiAddOp
p3956
(dp3957
g733
S'+'
sg734
(idelphi
DelphiMulOp
p3958
(dp3959
g403
(idelphi
DelphiIntegerValue
p3960
(dp3961
g14
S'2'
sbsg418
g3763
sg420
(i__main__
DelphiIdentAccess
p3962
(dp3963
g15
S'self'
p3964
sg406
(lp3965
(idelphi
DelphiFieldEndAccess
p3966
(dp3967
g416
S'canvas'
p3968
sba(idelphi
DelphiFieldEndAccess
p3969
(dp3970
g416
S'textHeight'
p3971
sba(idelphi
DelphiFunctionEndAccess
p3972
(dp3973
g408
(lp3974
(idelphi
DelphiStringAccess
p3975
(dp3976
g406
(lp3977
sg14
(idelphi
DelphiStringValue
p3978
(dp3979
g14
S'r'
sbsbasbasbsbsg753
(idelphi
DelphiAddOp
p3980
(dp3981
g733
S'+'
sg734
(i__main__
DelphiIdentAccess
p3982
(dp3983
g15
S'self'
p3984
sg406
(lp3985
(idelphi
DelphiFieldEndAccess
p3986
(dp3987
g416
S'textHeight'
p3988
sbasbsg753
(i__main__
DelphiIdentAccess
p3989
(dp3990
g15
S'greenSlider'
p3991
sg406
(lp3992
(idelphi
DelphiFieldEndAccess
p3993
(dp3994
g416
S'top'
p3995
sbasbsbsbsbsg443
(i__main__
DelphiIdentAccess
p3996
(dp3997
g15
S'blueSlider'
p3998
sg406
(lp3999
(idelphi
DelphiFieldEndAccess
p4000
(dp4001
g416
S'top'
p4002
sbasbsbasbsg459
(lp4003
sbsbsS'updateplantvalues'
p4004
(i__main__
DelphiMethodImplementation
p4005
(dp4006
g374
g302
sg76
g304
sg84
(lp4007
sg376
(lp4008
sg378
(lp4009
sg380
(lp4010
g382
asg383
(dp4011
sg86
S'PdColorParameterPanel'
p4012
sg87
Nsg388
(lp4013
sg91
I0
sg92
g99
sg390
(i__main__
DelphiBlock
p4014
(dp4015
g393
(idelphi
DelphiCompoundStatement
p4016
(dp4017
g396
(lp4018
(idelphi
DelphiIfStatement
p4019
(dp4020
g400
(idelphi
DelphiRelOp
p4021
(dp4022
g485
(i__main__
DelphiIdentAccess
p4023
(dp4024
g15
S'plant'
p4025
sg406
(lp4026
sbsg490
(idelphi
DelphiNilValue
p4027
(dp4028
bsg493
S'='
sbsg435
Nsg448
(i__main__
DelphiExitStatement
p4029
(dp4030
g1073
g4005
sbsba(idelphi
DelphiIfStatement
p4031
(dp4032
g400
(i__main__
DelphiIdentAccess
p4033
(dp4034
g15
S'param'
p4035
sg406
(lp4036
(idelphi
DelphiFieldEndAccess
p4037
(dp4038
g416
S'collapsed'
p4039
sbasbsg435
Nsg448
(i__main__
DelphiExitStatement
p4040
(dp4041
g1073
g4005
sbsba(i__main__
DelphiAssignStatement
p4042
(dp4043
g438
(i__main__
DelphiIdentAccess
p4044
(dp4045
g15
S'currentColor'
p4046
sg406
(lp4047
sbsg443
(i__main__
DelphiIdentAccess
p4048
(dp4049
g15
S'oldColor'
p4050
sg406
(lp4051
sbsba(i__main__
DelphiAssignStatement
p4052
(dp4053
g438
Nsg443
(i__main__
DelphiIdentAccess
p4054
(dp4055
g15
S'self'
p4056
sg406
(lp4057
(idelphi
DelphiFieldEndAccess
p4058
(dp4059
g416
S'updateCurrentValue'
p4060
sba(idelphi
DelphiFunctionEndAccess
p4061
(dp4062
g408
(lp4063
(idelphi
DelphiSign
p4064
(dp4065
g427
(idelphi
DelphiIntegerValue
p4066
(dp4067
g14
S'1'
sbsg1657
S'-'
sbasbasbsba(idelphi
DelphiIfStatement
p4068
(dp4069
g400
(idelphi
DelphiRelOp
p4070
(dp4071
g485
(i__main__
DelphiIdentAccess
p4072
(dp4073
g15
S'oldColor'
p4074
sg406
(lp4075
sbsg490
(i__main__
DelphiIdentAccess
p4076
(dp4077
g15
S'currentColor'
p4078
sg406
(lp4079
sbsg493
g494
sbsg435
Nsg448
(idelphi
DelphiCompoundStatement
p4080
(dp4081
g396
(lp4082
(i__main__
DelphiAssignStatement
p4083
(dp4084
g438
Nsg443
(i__main__
DelphiIdentAccess
p4085
(dp4086
g15
S'self'
p4087
sg406
(lp4088
(idelphi
DelphiFieldEndAccess
p4089
(dp4090
g416
S'updateDisplay'
p4091
sbasbsba(i__main__
DelphiAssignStatement
p4092
(dp4093
g438
Nsg443
(i__main__
DelphiIdentAccess
p4094
(dp4095
g15
S'self'
p4096
sg406
(lp4097
(idelphi
DelphiFieldEndAccess
p4098
(dp4099
g416
S'invalidate'
p4100
sbasbsbasbsbasbsg459
(lp4101
(i__main__
DelphiVarSection
p4102
(dp4103
g59
I0
sg1665
(lp4104
(idelphi
DelphiVarDecl
p4105
(dp4106
g11
Nsg1669
(lp4107
S'oldColor'
p4108
asg17
(i__main__
DelphiNamedType
p4109
(dp4110
g20
S'TColorRef'
p4111
sg119
g1
sg120
NsbsbasbasbsbsS'initslider'
p4112
(i__main__
DelphiMethodImplementation
p4113
(dp4114
g374
g307
sg76
g309
sg84
(lp4115
(i__main__
DelphiFormalParameter
p4116
(dp4117
g112
Nsg113
(lp4118
S'slider'
p4119
asg17
(i__main__
DelphiNamedType
p4120
(dp4121
g20
S'KfSlider'
p4122
sg119
g1
sg120
Nsbsg121
Nsbasg376
(lp4123
sg378
(lp4124
sg380
(lp4125
g382
ag4119
asg383
(dp4126
g4119
g4120
ssg86
S'PdColorParameterPanel'
p4127
sg87
Nsg388
(lp4128
sg91
I0
sg92
g99
sg390
(i__main__
DelphiBlock
p4129
(dp4130
g393
(idelphi
DelphiCompoundStatement
p4131
(dp4132
g396
(lp4133
(idelphi
DelphiWithStatement
p4134
(dp4135
g1028
(idelphi
DelphiCompoundStatement
p4136
(dp4137
g396
(lp4138
(i__main__
DelphiAssignStatement
p4139
(dp4140
g438
(i__main__
DelphiIdentAccess
p4141
(dp4142
g15
S'self'
p4143
sg406
(lp4144
sbsg443
(i__main__
DelphiIdentAccess
p4145
(dp4146
g15
S'parent'
p4147
sg406
(lp4148
sbsba(i__main__
DelphiAssignStatement
p4149
(dp4150
g438
(i__main__
DelphiIdentAccess
p4151
(dp4152
g15
S'self'
p4153
sg406
(lp4154
(idelphi
DelphiFieldEndAccess
p4155
(dp4156
g416
S'sliderMouseDown'
p4157
sbasbsg443
(i__main__
DelphiIdentAccess
p4158
(dp4159
g15
S'FOnMouseDown'
p4160
sg406
(lp4161
sbsba(i__main__
DelphiAssignStatement
p4162
(dp4163
g438
(i__main__
DelphiIdentAccess
p4164
(dp4165
g15
S'self'
p4166
sg406
(lp4167
(idelphi
DelphiFieldEndAccess
p4168
(dp4169
g416
S'sliderMouseMove'
p4170
sbasbsg443
(i__main__
DelphiIdentAccess
p4171
(dp4172
g15
S'FOnMouseMove'
p4173
sg406
(lp4174
sbsba(i__main__
DelphiAssignStatement
p4175
(dp4176
g438
(i__main__
DelphiIdentAccess
p4177
(dp4178
g15
S'self'
p4179
sg406
(lp4180
(idelphi
DelphiFieldEndAccess
p4181
(dp4182
g416
S'sliderMouseUp'
p4183
sbasbsg443
(i__main__
DelphiIdentAccess
p4184
(dp4185
g15
S'FOnMouseUp'
p4186
sg406
(lp4187
sbsba(i__main__
DelphiAssignStatement
p4188
(dp4189
g438
(i__main__
DelphiIdentAccess
p4190
(dp4191
g15
S'self'
p4192
sg406
(lp4193
(idelphi
DelphiFieldEndAccess
p4194
(dp4195
g416
S'sliderKeyDown'
p4196
sbasbsg443
(i__main__
DelphiIdentAccess
p4197
(dp4198
g15
S'FOnKeyDown'
p4199
sg406
(lp4200
sbsba(i__main__
DelphiAssignStatement
p4201
(dp4202
g438
(i__main__
DelphiIdentAccess
p4203
(dp4204
g15
S'param'
p4205
sg406
(lp4206
(idelphi
DelphiFieldEndAccess
p4207
(dp4208
g416
S'readOnly'
p4209
sbasbsg443
(i__main__
DelphiIdentAccess
p4210
(dp4211
g15
S'readOnly'
p4212
sg406
(lp4213
sbsba(i__main__
DelphiAssignStatement
p4214
(dp4215
g438
Nsg443
(i__main__
DelphiIdentAccess
p4216
(dp4217
g15
S'useDefaultSizeAndDraggerSize'
p4218
sg406
(lp4219
sbsba(i__main__
DelphiAssignStatement
p4220
(dp4221
g438
(idelphi
DelphiIntegerValue
p4222
(dp4223
g14
S'0'
sbsg443
(i__main__
DelphiIdentAccess
p4224
(dp4225
g15
S'minValue'
p4226
sg406
(lp4227
sbsba(i__main__
DelphiAssignStatement
p4228
(dp4229
g438
(idelphi
DelphiIntegerValue
p4230
(dp4231
g14
S'255'
p4232
sbsg443
(i__main__
DelphiIdentAccess
p4233
(dp4234
g15
S'maxValue'
p4235
sg406
(lp4236
sbsbasbsg1954
(lp4237
(i__main__
DelphiIdentAccess
p4238
(dp4239
g15
S'slider'
p4240
sg406
(lp4241
sbasbasbsg459
(lp4242
sbsbssS'propertyDeclarations'
p4243
(dp4244
sS'variableNamesInDeclaredOrder'
p4245
(lp4246
g65
ag67
ag69
ag75
ag71
ag73
asbasS'includedUnits'
p4247
NsS'implementationUses'
p4248
(lp4249
S'SysUtils'
p4250
aS'Dialogs'
p4251
aS'Forms'
p4252
aS'umain'
p4253
aS'updcom'
p4254
aS'umath'
p4255
aS'uunits'
p4256
aS'usupport'
p4257
aS'udomain'
p4258
aS'udebug'
p4259
aS'ubmpsupport'
p4260
asg76
S'upp_col'
p4261
sS'constSections'
p4262
(lp4263
g5
asS'globalsInProperCase'
p4264
NsS'interfaceUses'
p4265
(lp4266
S'delphi_compatability'
p4267
aS'ExtCtrls'
p4268
aS'Classes'
p4269
aS'StdCtrls'
p4270
aS'Controls'
p4271
aS'WinTypes'
p4272
aS'WinProcs'
p4273
aS'Graphics'
p4274
aS'Messages'
p4275
aS'uplant'
p4276
aS'uparams'
p4277
aS'uppanel'
p4278
aS'usliders'
p4279
asS'finalCommentToken'
p4280
(i__main__
PassStatement
p4281
(dp4282
g459
(lp4283
sbsS'varSections'
p4284
(lp4285
sS'globals'
p4286
NsS'originalFileName'
p4287
S'../../PlantStudioInPython/converted_source/upp_col.pas'
p4288
sS'proceduralImplementations'
p4289
(dp4290
sS'fileName'
p4291
S'/Users/pdf/Documents/workspace/PlantStudioInPython/converted_source/upp_col.pas'
p4292
sS'proceduralDeclarations'
p4293
(dp4294
sS'types'
p4295
(dp4296
S'pdcolorparameterpanel'
p4297
g60
ssb.