(i__main__
DelphiUnit
p1
(dp2
S'sectionsInOrderDefined'
p3
(lp4
(i__main__
DelphiConstSection
p5
(dp6
S'constDeclList'
p7
(lp8
(idelphi
DelphiConstDeclaration
p9
(dp10
S'constExpression'
p11
(idelphi
DelphiIntegerValue
p12
(dp13
S'string'
p14
S'1'
sbsS'ident'
p15
S'kItemFirstChoice'
p16
sS'theType'
p17
(idelphi
DelphiPrimitiveType
p18
(dp19
S'typeName'
p20
S'UNDEFINED_NEEDS_CALCULATION'
p21
sbsba(idelphi
DelphiConstDeclaration
p22
(dp23
g11
(idelphi
DelphiIntegerValue
p24
(dp25
g14
S'20'
p26
sbsg15
S'kMaxNumChoices'
p27
sg17
(idelphi
DelphiPrimitiveType
p28
(dp29
g20
g21
sbsbasS'atTopLevel'
p30
I1
sba(i__main__
DelphiClass
p31
(dp32
S'variableNamesInProperCase'
p33
(dp34
S'choicestrings'
p35
S'choiceStrings'
p36
sS'choicerects'
p37
S'choiceRects'
p38
sS'choicechecks'
p39
S'choiceChecks'
p40
sS'hasradiobuttons'
p41
S'hasRadioButtons'
p42
sS'editenabled'
p43
S'editEnabled'
p44
sS'currentchoice'
p45
S'currentChoice'
p46
ssS'name'
p47
S'PdListParameterPanel'
p48
sS'methodDeclarations'
p49
(dp50
S'maxselecteditemindex'
p51
(i__main__
DelphiMethodDeclaration
p52
(dp53
g47
S'maxSelectedItemIndex'
p54
sS'formalParameters'
p55
(lp56
sS'className'
p57
g48
sS'resultType'
p58
(i__main__
DelphiPrimitiveType
p59
(dp60
g20
S'integer'
p61
sbsS'isClassMethod'
p62
I0
sS'methodType'
p63
S'function'
p64
sbsS'updateenabling'
p65
(i__main__
DelphiMethodDeclaration
p66
(dp67
g47
S'updateEnabling'
p68
sg55
(lp69
sg57
g48
sg58
Nsg62
I0
sg63
S'procedure'
p70
sbsS'maxwidth'
p71
(i__main__
DelphiMethodDeclaration
p72
(dp73
g47
S'maxWidth'
p74
sg55
(lp75
sg57
g48
sg58
(i__main__
DelphiPrimitiveType
p76
(dp77
g20
g61
sbsg62
I0
sg63
g64
sbsS'updatecurrentvalue'
p78
(i__main__
DelphiMethodDeclaration
p79
(dp80
g47
S'updateCurrentValue'
p81
sg55
(lp82
(i__main__
DelphiFormalParameter
p83
(dp84
S'initialValue'
p85
NsS'names'
p86
(lp87
S'aFieldIndex'
p88
asg17
(i__main__
DelphiPrimitiveType
p89
(dp90
g20
g61
sbsS'parameterVariety'
p91
Nsbasg57
g48
sg58
Nsg62
I0
sg63
g70
sbsS'drawradiobutton'
p92
(i__main__
DelphiMethodDeclaration
p93
(dp94
g47
S'drawRadioButton'
p95
sg55
(lp96
(i__main__
DelphiFormalParameter
p97
(dp98
g85
Nsg86
(lp99
S'value'
p100
asg17
(i__main__
DelphiPrimitiveType
p101
(dp102
g20
S'boolean'
p103
sbsg91
Nsba(i__main__
DelphiFormalParameter
p104
(dp105
g85
Nsg86
(lp106
S'enabled'
p107
asg17
(i__main__
DelphiPrimitiveType
p108
(dp109
g20
g103
sbsg91
Nsba(i__main__
DelphiFormalParameter
p110
(dp111
g85
Nsg86
(lp112
S'rect'
p113
asg17
(i__main__
DelphiNamedType
p114
(dp115
g20
S'TRect'
p116
sS'unitDefinedIn'
p117
g1
sS'unitName'
p118
Nsbsg91
Nsbasg57
g48
sg58
Nsg62
I0
sg63
g70
sbsS'firstcheckedstring'
p119
(i__main__
DelphiMethodDeclaration
p120
(dp121
g47
S'firstCheckedString'
p122
sg55
(lp123
sg57
g48
sg58
(i__main__
DelphiPrimitiveType
p124
(dp125
g20
g14
sbsg62
I0
sg63
g64
sbsS'clearchecks'
p126
(i__main__
DelphiMethodDeclaration
p127
(dp128
g47
S'clearChecks'
p129
sg55
(lp130
sg57
g48
sg58
Nsg62
I0
sg63
g70
sbsS'uncollapsedheight'
p131
(i__main__
DelphiMethodDeclaration
p132
(dp133
g47
S'uncollapsedHeight'
p134
sg55
(lp135
sg57
g48
sg58
(i__main__
DelphiPrimitiveType
p136
(dp137
g20
g61
sbsg62
I0
sg63
g64
sbsS'dokeydown'
p138
(i__main__
DelphiMethodDeclaration
p139
(dp140
g47
S'doKeyDown'
p141
sg55
(lp142
(i__main__
DelphiFormalParameter
p143
(dp144
g85
Nsg86
(lp145
S'sender'
p146
asg17
(i__main__
DelphiNamedType
p147
(dp148
g20
S'TObject'
p149
sg117
g1
sg118
Nsbsg91
Nsba(i__main__
DelphiFormalParameter
p150
(dp151
g85
Nsg86
(lp152
S'key'
p153
asg17
(i__main__
DelphiPrimitiveType
p154
(dp155
g20
S'word'
p156
sbsg91
S'var'
p157
sba(i__main__
DelphiFormalParameter
p158
(dp159
g85
Nsg86
(lp160
S'shift'
p161
asg17
(i__main__
DelphiNamedType
p162
(dp163
g20
S'TShiftState'
p164
sg117
g1
sg118
Nsbsg91
Nsbasg57
g48
sg58
Nsg62
I0
sg63
g70
sbsS'updatedisplay'
p165
(i__main__
DelphiMethodDeclaration
p166
(dp167
g47
S'updateDisplay'
p168
sg55
(lp169
sg57
g48
sg58
Nsg62
I0
sg63
g70
sbsS'resizeelements'
p170
(i__main__
DelphiMethodDeclaration
p171
(dp172
g47
S'resizeElements'
p173
sg55
(lp174
sg57
g48
sg58
Nsg62
I0
sg63
g70
sbsS'minwidth'
p175
(i__main__
DelphiMethodDeclaration
p176
(dp177
g47
S'minWidth'
p178
sg55
(lp179
(i__main__
DelphiFormalParameter
p180
(dp181
g85
Nsg86
(lp182
S'requestedWidth'
p183
asg17
(i__main__
DelphiPrimitiveType
p184
(dp185
g20
g61
sbsg91
Nsbasg57
g48
sg58
(i__main__
DelphiPrimitiveType
p186
(dp187
g20
g61
sbsg62
I0
sg63
g64
sbsS'paint'
p188
(i__main__
DelphiMethodDeclaration
p189
(dp190
g47
S'paint'
p191
sg55
(lp192
sg57
g48
sg58
Nsg62
I0
sg63
g70
sbsS'domouseup'
p193
(i__main__
DelphiMethodDeclaration
p194
(dp195
g47
S'doMouseUp'
p196
sg55
(lp197
(i__main__
DelphiFormalParameter
p198
(dp199
g85
Nsg86
(lp200
S'Sender'
p201
asg17
(i__main__
DelphiNamedType
p202
(dp203
g20
S'TObject'
p204
sg117
g1
sg118
Nsbsg91
Nsba(i__main__
DelphiFormalParameter
p205
(dp206
g85
Nsg86
(lp207
S'Button'
p208
asg17
(i__main__
DelphiNamedType
p209
(dp210
g20
S'TMouseButton'
p211
sg117
g1
sg118
Nsbsg91
Nsba(i__main__
DelphiFormalParameter
p212
(dp213
g85
Nsg86
(lp214
S'Shift'
p215
asg17
(i__main__
DelphiNamedType
p216
(dp217
g20
S'TShiftState'
p218
sg117
g1
sg118
Nsbsg91
Nsba(i__main__
DelphiFormalParameter
p219
(dp220
g85
Nsg86
(lp221
S'X'
aS'Y'
asg17
(i__main__
DelphiPrimitiveType
p222
(dp223
g20
g61
sbsg91
Nsbasg57
g48
sg58
Nsg62
I0
sg63
g70
sbsS'drawcheckbox'
p224
(i__main__
DelphiMethodDeclaration
p225
(dp226
g47
S'drawCheckBox'
p227
sg55
(lp228
(i__main__
DelphiFormalParameter
p229
(dp230
g85
Nsg86
(lp231
S'value'
p232
asg17
(i__main__
DelphiPrimitiveType
p233
(dp234
g20
g103
sbsg91
Nsba(i__main__
DelphiFormalParameter
p235
(dp236
g85
Nsg86
(lp237
S'enabled'
p238
asg17
(i__main__
DelphiPrimitiveType
p239
(dp240
g20
g103
sbsg91
Nsba(i__main__
DelphiFormalParameter
p241
(dp242
g85
Nsg86
(lp243
S'rect'
p244
asg17
(i__main__
DelphiNamedType
p245
(dp246
g20
S'TRect'
p247
sg117
g1
sg118
Nsbsg91
Nsbasg57
g48
sg58
Nsg62
I0
sg63
g70
sbsS'initialize'
p248
(i__main__
DelphiMethodDeclaration
p249
(dp250
g47
S'initialize'
p251
sg55
(lp252
sg57
g48
sg58
Nsg62
I0
sg63
g70
sbsS'destroy'
p253
(i__main__
DelphiMethodDeclaration
p254
(dp255
g47
S'destroy'
p256
sg55
(lp257
sg57
g48
sg58
Nsg62
I0
sg63
S'destructor'
p258
sbsS'updateplantvalues'
p259
(i__main__
DelphiMethodDeclaration
p260
(dp261
g47
S'updatePlantValues'
p262
sg55
(lp263
sg57
g48
sg58
Nsg62
I0
sg63
g70
sbsS'setnewvalue'
p264
(i__main__
DelphiMethodDeclaration
p265
(dp266
g47
S'setNewValue'
p267
sg55
(lp268
(i__main__
DelphiFormalParameter
p269
(dp270
g85
Nsg86
(lp271
S'index'
p272
asg17
(i__main__
DelphiPrimitiveType
p273
(dp274
g20
g61
sbsg91
Nsbasg57
g48
sg58
Nsg62
I0
sg63
g70
sbssS'superclassNamedTypes'
p275
(lp276
(i__main__
DelphiNamedType
p277
(dp278
g20
S'PdParameterPanel'
p279
sg117
g1
sg118
NsbasS'variableNames'
p280
(dp281
S'choicestrings'
p282
(i__main__
DelphiNamedType
p283
(dp284
g20
S'TStringList'
p285
sg117
g1
sg118
NsbsS'choicerects'
p286
(i__main__
DelphiArrayType
p287
(dp288
g17
(i__main__
DelphiNamedType
p289
(dp290
g20
S'TRect'
p291
sg117
g1
sg118
NsbsS'sizes'
p292
(lp293
(idelphi
DelphiSubrange
p294
(dp295
S'high'
p296
(i__main__
DelphiIdentAccess
p297
(dp298
g15
S'kMaxNumChoices'
p299
sS'endAccessList'
p300
(lp301
sbsS'low'
p302
(idelphi
DelphiIntegerValue
p303
(dp304
g14
S'0'
sbsg47
S''
sbasbsS'choicechecks'
p305
(i__main__
DelphiArrayType
p306
(dp307
g17
(i__main__
DelphiPrimitiveType
p308
(dp309
g20
g103
sbsg292
(lp310
(idelphi
DelphiSubrange
p311
(dp312
g296
(i__main__
DelphiIdentAccess
p313
(dp314
g15
S'kMaxNumChoices'
p315
sg300
(lp316
sbsg302
(idelphi
DelphiIntegerValue
p317
(dp318
g14
S'0'
sbsg47
S''
sbasbsS'hasradiobuttons'
p319
(i__main__
DelphiPrimitiveType
p320
(dp321
g20
g103
sbsS'editenabled'
p322
(i__main__
DelphiPrimitiveType
p323
(dp324
g20
g103
sbsS'currentchoice'
p325
(i__main__
DelphiPrimitiveType
p326
(dp327
g20
g61
sbssS'methodNamesInDefinedOrder'
p328
(lp329
S'initialize'
p330
aS'destroy'
p331
aS'updateenabling'
p332
aS'updateplantvalues'
p333
aS'updatecurrentvalue'
p334
aS'updatedisplay'
p335
aS'clearchecks'
p336
aS'domouseup'
p337
aS'dokeydown'
p338
aS'setnewvalue'
p339
aS'firstcheckedstring'
p340
aS'maxwidth'
p341
aS'minwidth'
p342
aS'uncollapsedheight'
p343
aS'maxselecteditemindex'
p344
aS'resizeelements'
p345
aS'paint'
p346
aS'drawradiobutton'
p347
aS'drawcheckbox'
p348
asS'methodImplementations'
p349
(dp350
S'maxselecteditemindex'
p351
(i__main__
DelphiMethodImplementation
p352
(dp353
S'originalDeclaration'
p354
g52
sg47
g54
sg55
(lp355
sS'varParamIndexes'
p356
(lp357
sS'varParamsSkipped'
p358
(lp359
sS'argNames'
p360
(lp361
S'self'
p362
asS'argTypes'
p363
(dp364
sg57
S'PdListParameterPanel'
p365
sg58
(i__main__
DelphiPrimitiveType
p366
(dp367
g20
g61
sbsS'varParamNames'
p368
(lp369
sg62
I0
sg63
g64
sS'block'
p370
(i__main__
DelphiBlock
p371
(dp372
S'compoundStatement'
p373
(idelphi
DelphiCompoundStatement
p374
(dp375
S'statements'
p376
(lp377
(idelphi
DelphiIfStatement
p378
(dp379
S'expression'
p380
(idelphi
DelphiMulOp
p381
(dp382
S'signedFactor2'
p383
(idelphi
DelphiNestedExpressionListAccess
p384
(dp385
g300
(lp386
sS'expressionList'
p387
(lp388
(i__main__
DelphiIdentAccess
p389
(dp390
g15
S'self'
p391
sg300
(lp392
(idelphi
DelphiFieldEndAccess
p393
(dp394
S'field'
p395
S'editEnabled'
p396
sbasbasbsS'mulOp'
p397
S'and'
p398
sS'signedFactor1'
p399
(idelphi
DelphiNestedExpressionListAccess
p400
(dp401
g300
(lp402
sg387
(lp403
(idelphi
DelphiNot
p404
(dp405
S'factor'
p406
(i__main__
DelphiIdentAccess
p407
(dp408
g15
S'param'
p409
sg300
(lp410
(idelphi
DelphiFieldEndAccess
p411
(dp412
g395
S'collapsed'
p413
sbasbsbasbsbsS'ifFalseStatement'
p414
(i__main__
DelphiAssignStatement
p415
(dp416
S'newValueExpression'
p417
(i__main__
DelphiIdentAccess
p418
(dp419
g15
S'kItemLabel'
p420
sg300
(lp421
sbsS'destinationExpression'
p422
(i__main__
DelphiIdentAccess
p423
(dp424
g15
S'result'
p425
sg300
(lp426
sbsbsS'ifTrueStatement'
p427
(i__main__
DelphiAssignStatement
p428
(dp429
g417
(idelphi
DelphiAddOp
p430
(dp431
S'addOp'
p432
S'-'
sS'term2'
p433
(idelphi
DelphiIntegerValue
p434
(dp435
g14
S'1'
sbsS'term1'
p436
(idelphi
DelphiAddOp
p437
(dp438
g432
S'+'
sg433
(i__main__
DelphiIdentAccess
p439
(dp440
g15
S'choiceStrings'
p441
sg300
(lp442
(idelphi
DelphiFieldEndAccess
p443
(dp444
g395
S'count'
p445
sbasbsg436
(i__main__
DelphiIdentAccess
p446
(dp447
g15
S'kItemFirstChoice'
p448
sg300
(lp449
sbsbsbsg422
(i__main__
DelphiIdentAccess
p450
(dp451
g15
S'result'
p452
sg300
(lp453
sbsbsbasbsS'limitedDeclSectionList'
p454
(lp455
sbsbsS'updateenabling'
p456
(i__main__
DelphiMethodImplementation
p457
(dp458
g354
g66
sg47
g68
sg55
(lp459
sg356
(lp460
sg358
(lp461
sg360
(lp462
g362
asg363
(dp463
sg57
S'PdListParameterPanel'
p464
sg58
Nsg368
(lp465
sg62
I0
sg63
g70
sg370
(i__main__
DelphiBlock
p466
(dp467
g373
(idelphi
DelphiCompoundStatement
p468
(dp469
g376
(lp470
(i__main__
DelphiAssignStatement
p471
(dp472
g417
Nsg422
(idelphi
DelphiInheritedCall
p473
(dp474
g15
S'updateEnabling'
p475
sg387
Nsbsba(i__main__
DelphiAssignStatement
p476
(dp477
g417
(idelphi
DelphiNot
p478
(dp479
g406
(idelphi
DelphiNestedExpressionListAccess
p480
(dp481
g300
(lp482
sg387
(lp483
(idelphi
DelphiAddOp
p484
(dp485
g432
S'or'
p486
sg433
(idelphi
DelphiNestedExpressionListAccess
p487
(dp488
g300
(lp489
sg387
(lp490
(i__main__
DelphiIdentAccess
p491
(dp492
g15
S'self'
p493
sg300
(lp494
(idelphi
DelphiFieldEndAccess
p495
(dp496
g395
S'readOnly'
p497
sbasbasbsg436
(idelphi
DelphiNestedExpressionListAccess
p498
(dp499
g300
(lp500
sg387
(lp501
(idelphi
DelphiRelOp
p502
(dp503
S'simpleExpression1'
p504
(i__main__
DelphiIdentAccess
p505
(dp506
g15
S'plant'
p507
sg300
(lp508
sbsS'simpleExpression2'
p509
(idelphi
DelphiNilValue
p510
(dp511
bsS'relOp'
p512
S'='
sbasbsbasbsbsg422
(i__main__
DelphiIdentAccess
p513
(dp514
g15
S'editEnabled'
p515
sg300
(lp516
sbsbasbsg454
(lp517
sbsbsS'maxwidth'
p518
(i__main__
DelphiMethodImplementation
p519
(dp520
g354
g72
sg47
g74
sg55
(lp521
sg356
(lp522
sg358
(lp523
sg360
(lp524
g362
asg363
(dp525
sg57
S'PdListParameterPanel'
p526
sg58
(i__main__
DelphiPrimitiveType
p527
(dp528
g20
g61
sbsg368
(lp529
sg62
I0
sg63
g64
sg370
(i__main__
DelphiBlock
p530
(dp531
g373
(idelphi
DelphiCompoundStatement
p532
(dp533
g376
(lp534
(i__main__
DelphiAssignStatement
p535
(dp536
g417
(idelphi
DelphiIntegerValue
p537
(dp538
g14
S'0'
sbsg422
(i__main__
DelphiIdentAccess
p539
(dp540
g15
S'maxWidth'
p541
sg300
(lp542
sbsba(idelphi
DelphiWithStatement
p543
(dp544
S'statement'
p545
(idelphi
DelphiForStatement
p546
(dp547
S'variable'
p548
S'i'
sS'finalValue'
p549
(idelphi
DelphiAddOp
p550
(dp551
g432
S'-'
sg433
(idelphi
DelphiIntegerValue
p552
(dp553
g14
S'1'
sbsg436
(i__main__
DelphiIdentAccess
p554
(dp555
g15
S'choiceStrings'
p556
sg300
(lp557
(idelphi
DelphiFieldEndAccess
p558
(dp559
g395
S'count'
p560
sbasbsbsS'direction'
p561
S'to'
p562
sg85
(idelphi
DelphiIntegerValue
p563
(dp564
g14
S'0'
sbsg545
(i__main__
DelphiAssignStatement
p565
(dp566
g417
(i__main__
DelphiIdentAccess
p567
(dp568
g15
S'intMax'
p569
sg300
(lp570
(idelphi
DelphiFunctionEndAccess
p571
(dp572
g387
(lp573
(i__main__
DelphiIdentAccess
p574
(dp575
g15
S'maxWidth'
p576
sg300
(lp577
sba(i__main__
DelphiIdentAccess
p578
(dp579
g15
S'textWidth'
p580
sg300
(lp581
(idelphi
DelphiFunctionEndAccess
p582
(dp583
g387
(lp584
(i__main__
DelphiIdentAccess
p585
(dp586
g15
S'choiceStrings'
p587
sg300
(lp588
(idelphi
DelphiFieldEndAccess
p589
(dp590
g395
S'strings'
p591
sba(idelphi
DelphiArrayEndAccess
p592
(dp593
g387
(lp594
(i__main__
DelphiIdentAccess
p595
(dp596
g15
S'i'
sg300
(lp597
sbasbasbasbasbasbasbsg422
(i__main__
DelphiIdentAccess
p598
(dp599
g15
S'maxWidth'
p600
sg300
(lp601
sbsbsbsS'variableReferenceList'
p602
(lp603
(i__main__
DelphiIdentAccess
p604
(dp605
g15
S'TMainForm'
p606
sg300
(lp607
(idelphi
DelphiFunctionEndAccess
p608
(dp609
g387
(lp610
(i__main__
DelphiIdentAccess
p611
(dp612
g15
S'owner'
p613
sg300
(lp614
sbasba(idelphi
DelphiFieldEndAccess
p615
(dp616
g395
S'canvas'
p617
sbasbasba(i__main__
DelphiAssignStatement
p618
(dp619
g417
(i__main__
DelphiIdentAccess
p620
(dp621
g15
S'intMax'
p622
sg300
(lp623
(idelphi
DelphiFunctionEndAccess
p624
(dp625
g387
(lp626
(idelphi
DelphiAddOp
p627
(dp628
g432
S'+'
sg433
(i__main__
DelphiIdentAccess
p629
(dp630
g15
S'self'
p631
sg300
(lp632
(idelphi
DelphiFieldEndAccess
p633
(dp634
g395
S'labelWidth'
p635
sbasbsg436
(idelphi
DelphiMulOp
p636
(dp637
g383
(idelphi
DelphiIntegerValue
p638
(dp639
g14
S'2'
sbsg397
S'*'
sg399
(i__main__
DelphiIdentAccess
p640
(dp641
g15
S'kLeftRightGap'
p642
sg300
(lp643
sbsbsba(idelphi
DelphiAddOp
p644
(dp645
g432
S'+'
sg433
(i__main__
DelphiIdentAccess
p646
(dp647
g15
S'kLeftRightGap'
p648
sg300
(lp649
sbsg436
(idelphi
DelphiAddOp
p650
(dp651
g432
S'+'
sg433
(i__main__
DelphiIdentAccess
p652
(dp653
g15
S'maxWidth'
p654
sg300
(lp655
sbsg436
(idelphi
DelphiAddOp
p656
(dp657
g432
S'+'
sg433
(i__main__
DelphiIdentAccess
p658
(dp659
g15
S'kRadioButtonBeforeTextGap'
p660
sg300
(lp661
sbsg436
(idelphi
DelphiAddOp
p662
(dp663
g432
S'+'
sg433
(i__main__
DelphiIdentAccess
p664
(dp665
g15
S'kRadioButtonWidth'
p666
sg300
(lp667
sbsg436
(idelphi
DelphiSign
p668
(dp669
g406
(i__main__
DelphiIdentAccess
p670
(dp671
g15
S'kRadioButtonLeftGap'
p672
sg300
(lp673
sbsS'sign'
p674
S'+'
sbsbsbsbsbasbasbsg422
(i__main__
DelphiIdentAccess
p675
(dp676
g15
S'result'
p677
sg300
(lp678
sbsbasbsg454
(lp679
(i__main__
DelphiVarSection
p680
(dp681
g30
I0
sS'varDeclList'
p682
(lp683
(idelphi
DelphiVarDecl
p684
(dp685
g11
NsS'identList'
p686
(lp687
S'i'
aS'maxWidth'
p688
asg17
(i__main__
DelphiPrimitiveType
p689
(dp690
g20
g61
sbsbasbasbsbsS'updatecurrentvalue'
p691
(i__main__
DelphiMethodImplementation
p692
(dp693
g354
g79
sg47
g81
sg55
(lp694
(i__main__
DelphiFormalParameter
p695
(dp696
g85
Nsg86
(lp697
S'aFieldIndex'
p698
asg17
(i__main__
DelphiPrimitiveType
p699
(dp700
g20
g61
sbsg91
Nsbasg356
(lp701
sg358
(lp702
sg360
(lp703
g362
ag698
asg363
(dp704
g698
g699
ssg57
S'PdListParameterPanel'
p705
sg58
Nsg368
(lp706
sg62
I0
sg63
g70
sg370
(i__main__
DelphiBlock
p707
(dp708
g373
(idelphi
DelphiCompoundStatement
p709
(dp710
g376
(lp711
(idelphi
DelphiIfStatement
p712
(dp713
g380
(idelphi
DelphiAddOp
p714
(dp715
g432
g486
sg433
(idelphi
DelphiNestedExpressionListAccess
p716
(dp717
g300
(lp718
sg387
(lp719
(idelphi
DelphiRelOp
p720
(dp721
g504
(i__main__
DelphiIdentAccess
p722
(dp723
g15
S'param'
p724
sg300
(lp725
(idelphi
DelphiFieldEndAccess
p726
(dp727
g395
S'fieldType'
p728
sbasbsg509
(i__main__
DelphiIdentAccess
p729
(dp730
g15
S'kFieldEnumeratedList'
p731
sg300
(lp732
sbsg512
S'<>'
p733
sbasbsg436
(idelphi
DelphiNestedExpressionListAccess
p734
(dp735
g300
(lp736
sg387
(lp737
(idelphi
DelphiRelOp
p738
(dp739
g504
(i__main__
DelphiIdentAccess
p740
(dp741
g15
S'plant'
p742
sg300
(lp743
sbsg509
(idelphi
DelphiNilValue
p744
(dp745
bsg512
S'='
sbasbsbsg414
(idelphi
DelphiCompoundStatement
p746
(dp747
g376
(lp748
(idelphi
DelphiIfStatement
p749
(dp750
g380
(i__main__
DelphiIdentAccess
p751
(dp752
g15
S'hasRadioButtons'
p753
sg300
(lp754
sbsg414
(idelphi
DelphiIfStatement
p755
(dp756
g380
(idelphi
DelphiRelOp
p757
(dp758
g504
(i__main__
DelphiIdentAccess
p759
(dp760
g15
S'choiceStrings'
p761
sg300
(lp762
(idelphi
DelphiFieldEndAccess
p763
(dp764
g395
S'count'
p765
sbasbsg509
(idelphi
DelphiIntegerValue
p766
(dp767
g14
S'0'
sbsg512
S'>'
sbsg414
Nsg427
(idelphi
DelphiForStatement
p768
(dp769
g548
S'i'
sg549
(idelphi
DelphiAddOp
p770
(dp771
g432
S'-'
sg433
(idelphi
DelphiIntegerValue
p772
(dp773
g14
S'1'
sbsg436
(i__main__
DelphiIdentAccess
p774
(dp775
g15
S'choiceStrings'
p776
sg300
(lp777
(idelphi
DelphiFieldEndAccess
p778
(dp779
g395
S'count'
p780
sbasbsbsg561
g562
sg85
(idelphi
DelphiIntegerValue
p781
(dp782
g14
S'0'
sbsg545
(i__main__
DelphiAssignStatement
p783
(dp784
g417
Nsg422
(i__main__
DelphiIdentAccess
p785
(dp786
g15
S'plant'
p787
sg300
(lp788
(idelphi
DelphiFieldEndAccess
p789
(dp790
g395
S'transferField'
p791
sba(idelphi
DelphiFunctionEndAccess
p792
(dp793
g387
(lp794
(i__main__
DelphiIdentAccess
p795
(dp796
g15
S'kGetField'
p797
sg300
(lp798
sba(i__main__
DelphiIdentAccess
p799
(dp800
g15
S'choiceChecks'
p801
sg300
(lp802
(idelphi
DelphiArrayEndAccess
p803
(dp804
g387
(lp805
(i__main__
DelphiIdentAccess
p806
(dp807
g15
S'i'
sg300
(lp808
sbasbasba(i__main__
DelphiIdentAccess
p809
(dp810
g15
S'param'
p811
sg300
(lp812
(idelphi
DelphiFieldEndAccess
p813
(dp814
g395
S'fieldNumber'
p815
sbasba(i__main__
DelphiIdentAccess
p816
(dp817
g15
S'kFieldBoolean'
p818
sg300
(lp819
sba(i__main__
DelphiIdentAccess
p820
(dp821
g15
S'i'
sg300
(lp822
sba(i__main__
DelphiIdentAccess
p823
(dp824
g15
S'false'
p825
sg300
(lp826
sba(idelphi
DelphiNilValue
p827
(dp828
basbasbsbsbsbsg427
(i__main__
DelphiAssignStatement
p829
(dp830
g417
Nsg422
(i__main__
DelphiIdentAccess
p831
(dp832
g15
S'plant'
p833
sg300
(lp834
(idelphi
DelphiFieldEndAccess
p835
(dp836
g395
S'transferField'
p837
sba(idelphi
DelphiFunctionEndAccess
p838
(dp839
g387
(lp840
(i__main__
DelphiIdentAccess
p841
(dp842
g15
S'kGetField'
p843
sg300
(lp844
sba(i__main__
DelphiIdentAccess
p845
(dp846
g15
S'currentChoice'
p847
sg300
(lp848
sba(i__main__
DelphiIdentAccess
p849
(dp850
g15
S'param'
p851
sg300
(lp852
(idelphi
DelphiFieldEndAccess
p853
(dp854
g395
S'fieldNumber'
p855
sbasba(i__main__
DelphiIdentAccess
p856
(dp857
g15
S'kFieldSmallint'
p858
sg300
(lp859
sba(i__main__
DelphiIdentAccess
p860
(dp861
g15
S'kNotArray'
p862
sg300
(lp863
sba(i__main__
DelphiIdentAccess
p864
(dp865
g15
S'false'
p866
sg300
(lp867
sba(idelphi
DelphiNilValue
p868
(dp869
basbasbsbsbasbsg427
(idelphi
DelphiCompoundStatement
p870
(dp871
g376
(lp872
(i__main__
DelphiAssignStatement
p873
(dp874
g417
(idelphi
DelphiIntegerValue
p875
(dp876
g14
S'0'
sbsg422
(i__main__
DelphiIdentAccess
p877
(dp878
g15
S'currentChoice'
p879
sg300
(lp880
sbsba(i__main__
DelphiAssignStatement
p881
(dp882
g417
Nsg422
(i__main__
DelphiIdentAccess
p883
(dp884
g15
S'self'
p885
sg300
(lp886
(idelphi
DelphiFieldEndAccess
p887
(dp888
g395
S'clearChecks'
p889
sbasbsba(i__main__
DelphiAssignStatement
p890
(dp891
g417
(i__main__
DelphiIdentAccess
p892
(dp893
g15
S'false'
p894
sg300
(lp895
sbsg422
(i__main__
DelphiIdentAccess
p896
(dp897
g15
S'editEnabled'
p898
sg300
(lp899
sbsbasbsbasbsg454
(lp900
(i__main__
DelphiVarSection
p901
(dp902
g30
I0
sg682
(lp903
(idelphi
DelphiVarDecl
p904
(dp905
g11
Nsg686
(lp906
S'i'
asg17
(i__main__
DelphiPrimitiveType
p907
(dp908
g20
S'smallint'
p909
sbsbasbasbsbsS'drawradiobutton'
p910
(i__main__
DelphiMethodImplementation
p911
(dp912
g354
g93
sg47
g95
sg55
(lp913
(i__main__
DelphiFormalParameter
p914
(dp915
g85
Nsg86
(lp916
S'value'
p917
asg17
(i__main__
DelphiPrimitiveType
p918
(dp919
g20
g103
sbsg91
Nsba(i__main__
DelphiFormalParameter
p920
(dp921
g85
Nsg86
(lp922
S'enabled'
p923
asg17
(i__main__
DelphiPrimitiveType
p924
(dp925
g20
g103
sbsg91
Nsba(i__main__
DelphiFormalParameter
p926
(dp927
g85
Nsg86
(lp928
S'rect'
p929
asg17
(i__main__
DelphiNamedType
p930
(dp931
g20
S'TRect'
p932
sg117
g1
sg118
Nsbsg91
Nsbasg356
(lp933
sg358
(lp934
sg360
(lp935
g362
ag917
ag923
ag929
asg363
(dp936
g923
g924
sg929
g930
sg917
g918
ssg57
S'PdListParameterPanel'
p937
sg58
Nsg368
(lp938
sg62
I0
sg63
g70
sg370
(i__main__
DelphiBlock
p939
(dp940
g373
(idelphi
DelphiCompoundStatement
p941
(dp942
g376
(lp943
(idelphi
DelphiWithStatement
p944
(dp945
g545
(idelphi
DelphiCompoundStatement
p946
(dp947
g376
(lp948
(i__main__
DelphiAssignStatement
p949
(dp950
g417
(i__main__
DelphiIdentAccess
p951
(dp952
g15
S'brush'
p953
sg300
(lp954
(idelphi
DelphiFieldEndAccess
p955
(dp956
g395
S'color'
p957
sbasbsg422
(i__main__
DelphiIdentAccess
p958
(dp959
g15
S'brushColor'
p960
sg300
(lp961
sbsba(idelphi
DelphiIfStatement
p962
(dp963
g380
(i__main__
DelphiIdentAccess
p964
(dp965
g15
S'value'
p966
sg300
(lp967
sbsg414
(i__main__
DelphiAssignStatement
p968
(dp969
g417
(i__main__
DelphiIdentAccess
p970
(dp971
g15
S'clBtnFace'
p972
sg300
(lp973
sbsg422
(i__main__
DelphiIdentAccess
p974
(dp975
g15
S'brush'
p976
sg300
(lp977
(idelphi
DelphiFieldEndAccess
p978
(dp979
g395
S'color'
p980
sbasbsbsg427
(idelphi
DelphiIfStatement
p981
(dp982
g380
(i__main__
DelphiIdentAccess
p983
(dp984
g15
S'enabled'
p985
sg300
(lp986
sbsg414
(i__main__
DelphiAssignStatement
p987
(dp988
g417
(i__main__
DelphiIdentAccess
p989
(dp990
g15
S'clBtnShadow'
p991
sg300
(lp992
sbsg422
(i__main__
DelphiIdentAccess
p993
(dp994
g15
S'brush'
p995
sg300
(lp996
(idelphi
DelphiFieldEndAccess
p997
(dp998
g395
S'color'
p999
sbasbsbsg427
(i__main__
DelphiAssignStatement
p1000
(dp1001
g417
(i__main__
DelphiIdentAccess
p1002
(dp1003
g15
S'clBtnText'
p1004
sg300
(lp1005
sbsg422
(i__main__
DelphiIdentAccess
p1006
(dp1007
g15
S'brush'
p1008
sg300
(lp1009
(idelphi
DelphiFieldEndAccess
p1010
(dp1011
g395
S'color'
p1012
sbasbsbsbsba(idelphi
DelphiIfStatement
p1013
(dp1014
g380
(i__main__
DelphiIdentAccess
p1015
(dp1016
g15
S'enabled'
p1017
sg300
(lp1018
sbsg414
(i__main__
DelphiAssignStatement
p1019
(dp1020
g417
(i__main__
DelphiIdentAccess
p1021
(dp1022
g15
S'clBtnShadow'
p1023
sg300
(lp1024
sbsg422
(i__main__
DelphiIdentAccess
p1025
(dp1026
g15
S'pen'
p1027
sg300
(lp1028
(idelphi
DelphiFieldEndAccess
p1029
(dp1030
g395
S'color'
p1031
sbasbsbsg427
(i__main__
DelphiAssignStatement
p1032
(dp1033
g417
(i__main__
DelphiIdentAccess
p1034
(dp1035
g15
S'clBtnText'
p1036
sg300
(lp1037
sbsg422
(i__main__
DelphiIdentAccess
p1038
(dp1039
g15
S'pen'
p1040
sg300
(lp1041
(idelphi
DelphiFieldEndAccess
p1042
(dp1043
g395
S'color'
p1044
sbasbsbsba(idelphi
DelphiWithStatement
p1045
(dp1046
g545
(i__main__
DelphiAssignStatement
p1047
(dp1048
g417
Nsg422
(i__main__
DelphiIdentAccess
p1049
(dp1050
g15
S'ellipse'
p1051
sg300
(lp1052
(idelphi
DelphiFunctionEndAccess
p1053
(dp1054
g387
(lp1055
(i__main__
DelphiIdentAccess
p1056
(dp1057
g15
S'left'
p1058
sg300
(lp1059
sba(i__main__
DelphiIdentAccess
p1060
(dp1061
g15
S'top'
p1062
sg300
(lp1063
sba(i__main__
DelphiIdentAccess
p1064
(dp1065
g15
S'right'
p1066
sg300
(lp1067
sba(i__main__
DelphiIdentAccess
p1068
(dp1069
g15
S'bottom'
p1070
sg300
(lp1071
sbasbasbsbsg602
(lp1072
(i__main__
DelphiIdentAccess
p1073
(dp1074
g15
S'rect'
p1075
sg300
(lp1076
sbasba(i__main__
DelphiAssignStatement
p1077
(dp1078
g417
(i__main__
DelphiIdentAccess
p1079
(dp1080
g15
S'brushColor'
p1081
sg300
(lp1082
sbsg422
(i__main__
DelphiIdentAccess
p1083
(dp1084
g15
S'brush'
p1085
sg300
(lp1086
(idelphi
DelphiFieldEndAccess
p1087
(dp1088
g395
S'color'
p1089
sbasbsba(i__main__
DelphiAssignStatement
p1090
(dp1091
g417
(i__main__
DelphiIdentAccess
p1092
(dp1093
g15
S'bsClear'
p1094
sg300
(lp1095
sbsg422
(i__main__
DelphiIdentAccess
p1096
(dp1097
g15
S'brush'
p1098
sg300
(lp1099
(idelphi
DelphiFieldEndAccess
p1100
(dp1101
g395
S'style'
p1102
sbasbsbasbsg602
(lp1103
(i__main__
DelphiIdentAccess
p1104
(dp1105
g15
S'self'
p1106
sg300
(lp1107
(idelphi
DelphiFieldEndAccess
p1108
(dp1109
g395
S'canvas'
p1110
sbasbasbasbsg454
(lp1111
(i__main__
DelphiVarSection
p1112
(dp1113
g30
I0
sg682
(lp1114
(idelphi
DelphiVarDecl
p1115
(dp1116
g11
Nsg686
(lp1117
S'brushColor'
p1118
asg17
(i__main__
DelphiNamedType
p1119
(dp1120
g20
S'TColor'
p1121
sg117
g1
sg118
NsbsbasbasbsbsS'uncollapsedheight'
p1122
(i__main__
DelphiMethodImplementation
p1123
(dp1124
g354
g132
sg47
g134
sg55
(lp1125
sg356
(lp1126
sg358
(lp1127
sg360
(lp1128
g362
asg363
(dp1129
sg57
S'PdListParameterPanel'
p1130
sg58
(i__main__
DelphiPrimitiveType
p1131
(dp1132
g20
g61
sbsg368
(lp1133
sg62
I0
sg63
g64
sg370
(i__main__
DelphiBlock
p1134
(dp1135
g373
(idelphi
DelphiCompoundStatement
p1136
(dp1137
g376
(lp1138
(i__main__
DelphiAssignStatement
p1139
(dp1140
g417
(idelphi
DelphiAddOp
p1141
(dp1142
g432
S'+'
sg433
(i__main__
DelphiIdentAccess
p1143
(dp1144
g15
S'kTopBottomGap'
p1145
sg300
(lp1146
sbsg436
(idelphi
DelphiAddOp
p1147
(dp1148
g432
S'+'
sg433
(idelphi
DelphiMulOp
p1149
(dp1150
g383
(i__main__
DelphiIdentAccess
p1151
(dp1152
g15
S'choiceStrings'
p1153
sg300
(lp1154
(idelphi
DelphiFieldEndAccess
p1155
(dp1156
g395
S'count'
p1157
sbasbsg397
S'*'
sg399
(i__main__
DelphiIdentAccess
p1158
(dp1159
g15
S'self'
p1160
sg300
(lp1161
(idelphi
DelphiFieldEndAccess
p1162
(dp1163
g395
S'textHeight'
p1164
sbasbsbsg436
(i__main__
DelphiIdentAccess
p1165
(dp1166
g15
S'self'
p1167
sg300
(lp1168
(idelphi
DelphiFieldEndAccess
p1169
(dp1170
g395
S'collapsedHeight'
p1171
sbasbsbsbsg422
(i__main__
DelphiIdentAccess
p1172
(dp1173
g15
S'result'
p1174
sg300
(lp1175
sbsbasbsg454
(lp1176
sbsbsS'clearchecks'
p1177
(i__main__
DelphiMethodImplementation
p1178
(dp1179
g354
g127
sg47
g129
sg55
(lp1180
sg356
(lp1181
sg358
(lp1182
sg360
(lp1183
g362
asg363
(dp1184
sg57
S'PdListParameterPanel'
p1185
sg58
Nsg368
(lp1186
sg62
I0
sg63
g70
sg370
(i__main__
DelphiBlock
p1187
(dp1188
g373
(idelphi
DelphiCompoundStatement
p1189
(dp1190
g376
(lp1191
(idelphi
DelphiForStatement
p1192
(dp1193
g548
S'i'
sg549
(i__main__
DelphiIdentAccess
p1194
(dp1195
g15
S'kMaxNumChoices'
p1196
sg300
(lp1197
sbsg561
g562
sg85
(idelphi
DelphiIntegerValue
p1198
(dp1199
g14
S'0'
sbsg545
(i__main__
DelphiAssignStatement
p1200
(dp1201
g417
(i__main__
DelphiIdentAccess
p1202
(dp1203
g15
S'false'
p1204
sg300
(lp1205
sbsg422
(i__main__
DelphiIdentAccess
p1206
(dp1207
g15
S'choiceChecks'
p1208
sg300
(lp1209
(idelphi
DelphiArrayEndAccess
p1210
(dp1211
g387
(lp1212
(i__main__
DelphiIdentAccess
p1213
(dp1214
g15
S'i'
sg300
(lp1215
sbasbasbsbsbasbsg454
(lp1216
(i__main__
DelphiVarSection
p1217
(dp1218
g30
I0
sg682
(lp1219
(idelphi
DelphiVarDecl
p1220
(dp1221
g11
Nsg686
(lp1222
S'i'
asg17
(i__main__
DelphiPrimitiveType
p1223
(dp1224
g20
g909
sbsbasbasbsbsS'firstcheckedstring'
p1225
(i__main__
DelphiMethodImplementation
p1226
(dp1227
g354
g120
sg47
g122
sg55
(lp1228
sg356
(lp1229
sg358
(lp1230
sg360
(lp1231
g362
asg363
(dp1232
sg57
S'PdListParameterPanel'
p1233
sg58
(i__main__
DelphiPrimitiveType
p1234
(dp1235
g20
g14
sbsg368
(lp1236
sg62
I0
sg63
g64
sg370
(i__main__
DelphiBlock
p1237
(dp1238
g373
(idelphi
DelphiCompoundStatement
p1239
(dp1240
g376
(lp1241
(i__main__
DelphiAssignStatement
p1242
(dp1243
g417
(idelphi
DelphiStringAccess
p1244
(dp1245
g300
(lp1246
sg14
(idelphi
DelphiStringValue
p1247
(dp1248
g14
S''
sbsbsg422
(i__main__
DelphiIdentAccess
p1249
(dp1250
g15
S'result'
p1251
sg300
(lp1252
sbsba(idelphi
DelphiIfStatement
p1253
(dp1254
g380
(idelphi
DelphiRelOp
p1255
(dp1256
g504
(i__main__
DelphiIdentAccess
p1257
(dp1258
g15
S'choiceStrings'
p1259
sg300
(lp1260
(idelphi
DelphiFieldEndAccess
p1261
(dp1262
g395
S'count'
p1263
sbasbsg509
(idelphi
DelphiIntegerValue
p1264
(dp1265
g14
S'0'
sbsg512
S'>'
sbsg414
Nsg427
(idelphi
DelphiForStatement
p1266
(dp1267
g548
S'i'
sg549
(idelphi
DelphiAddOp
p1268
(dp1269
g432
S'-'
sg433
(idelphi
DelphiIntegerValue
p1270
(dp1271
g14
S'1'
sbsg436
(i__main__
DelphiIdentAccess
p1272
(dp1273
g15
S'choiceStrings'
p1274
sg300
(lp1275
(idelphi
DelphiFieldEndAccess
p1276
(dp1277
g395
S'count'
p1278
sbasbsbsg561
g562
sg85
(idelphi
DelphiIntegerValue
p1279
(dp1280
g14
S'0'
sbsg545
(idelphi
DelphiCompoundStatement
p1281
(dp1282
g376
(lp1283
(idelphi
DelphiIfStatement
p1284
(dp1285
g380
(i__main__
DelphiIdentAccess
p1286
(dp1287
g15
S'hasRadioButtons'
p1288
sg300
(lp1289
sbsg414
(idelphi
DelphiCompoundStatement
p1290
(dp1291
g376
(lp1292
(idelphi
DelphiIfStatement
p1293
(dp1294
g380
(i__main__
DelphiIdentAccess
p1295
(dp1296
g15
S'choiceChecks'
p1297
sg300
(lp1298
(idelphi
DelphiArrayEndAccess
p1299
(dp1300
g387
(lp1301
(i__main__
DelphiIdentAccess
p1302
(dp1303
g15
S'i'
sg300
(lp1304
sbasbasbsg414
Nsg427
(idelphi
DelphiCompoundStatement
p1305
(dp1306
g376
(lp1307
(i__main__
DelphiAssignStatement
p1308
(dp1309
g417
(i__main__
DelphiIdentAccess
p1310
(dp1311
g15
S'choiceStrings'
p1312
sg300
(lp1313
(idelphi
DelphiFieldEndAccess
p1314
(dp1315
g395
S'strings'
p1316
sba(idelphi
DelphiArrayEndAccess
p1317
(dp1318
g387
(lp1319
(i__main__
DelphiIdentAccess
p1320
(dp1321
g15
S'i'
sg300
(lp1322
sbasbasbsg422
(i__main__
DelphiIdentAccess
p1323
(dp1324
g15
S'result'
p1325
sg300
(lp1326
sbsba(i__main__
DelphiExitStatement
p1327
(dp1328
S'proceduralOrMethodImplementation'
p1329
g1226
sbasbsbasbsg427
(idelphi
DelphiCompoundStatement
p1330
(dp1331
g376
(lp1332
(idelphi
DelphiIfStatement
p1333
(dp1334
g380
(idelphi
DelphiRelOp
p1335
(dp1336
g504
(i__main__
DelphiIdentAccess
p1337
(dp1338
g15
S'currentChoice'
p1339
sg300
(lp1340
sbsg509
(i__main__
DelphiIdentAccess
p1341
(dp1342
g15
S'i'
sg300
(lp1343
sbsg512
S'='
sbsg414
Nsg427
(idelphi
DelphiCompoundStatement
p1344
(dp1345
g376
(lp1346
(i__main__
DelphiAssignStatement
p1347
(dp1348
g417
(i__main__
DelphiIdentAccess
p1349
(dp1350
g15
S'choiceStrings'
p1351
sg300
(lp1352
(idelphi
DelphiFieldEndAccess
p1353
(dp1354
g395
S'strings'
p1355
sba(idelphi
DelphiArrayEndAccess
p1356
(dp1357
g387
(lp1358
(i__main__
DelphiIdentAccess
p1359
(dp1360
g15
S'i'
sg300
(lp1361
sbasbasbsg422
(i__main__
DelphiIdentAccess
p1362
(dp1363
g15
S'result'
p1364
sg300
(lp1365
sbsba(i__main__
DelphiExitStatement
p1366
(dp1367
g1329
g1226
sbasbsbasbsbasbsbsbasbsg454
(lp1368
(i__main__
DelphiVarSection
p1369
(dp1370
g30
I0
sg682
(lp1371
(idelphi
DelphiVarDecl
p1372
(dp1373
g11
Nsg686
(lp1374
S'i'
asg17
(i__main__
DelphiPrimitiveType
p1375
(dp1376
g20
g909
sbsbasbasbsbsS'dokeydown'
p1377
(i__main__
DelphiMethodImplementation
p1378
(dp1379
g354
g139
sg47
g141
sg55
(lp1380
(i__main__
DelphiFormalParameter
p1381
(dp1382
g85
Nsg86
(lp1383
S'sender'
p1384
asg17
(i__main__
DelphiNamedType
p1385
(dp1386
g20
S'TObject'
p1387
sg117
g1
sg118
Nsbsg91
Nsba(i__main__
DelphiFormalParameter
p1388
(dp1389
g85
Nsg86
(lp1390
S'key'
p1391
asg17
(i__main__
DelphiPrimitiveType
p1392
(dp1393
g20
g156
sbsg91
g157
sba(i__main__
DelphiFormalParameter
p1394
(dp1395
g85
Nsg86
(lp1396
S'shift'
p1397
asg17
(i__main__
DelphiNamedType
p1398
(dp1399
g20
S'TShiftState'
p1400
sg117
g1
sg118
Nsbsg91
Nsbasg356
(lp1401
I1
asg358
(lp1402
sg360
(lp1403
g362
ag1384
ag1391
ag1397
asg363
(dp1404
g1397
g1398
sg1384
g1385
sg1391
g1392
ssg57
S'PdListParameterPanel'
p1405
sg58
Nsg368
(lp1406
g1391
asg62
I0
sg63
g70
sg370
(i__main__
DelphiBlock
p1407
(dp1408
g373
(idelphi
DelphiCompoundStatement
p1409
(dp1410
g376
(lp1411
(i__main__
DelphiAssignStatement
p1412
(dp1413
g417
Nsg422
(idelphi
DelphiInheritedCall
p1414
(dp1415
g15
S'doKeyDown'
p1416
sg387
(lp1417
(i__main__
DelphiIdentAccess
p1418
(dp1419
g15
S'sender'
p1420
sg300
(lp1421
sba(i__main__
DelphiIdentAccess
p1422
(dp1423
g15
S'key'
p1424
sg300
(lp1425
sba(i__main__
DelphiIdentAccess
p1426
(dp1427
g15
S'shift'
p1428
sg300
(lp1429
sbasbsba(idelphi
DelphiIfStatement
p1430
(dp1431
g380
(idelphi
DelphiMulOp
p1432
(dp1433
g383
(idelphi
DelphiNestedExpressionListAccess
p1434
(dp1435
g300
(lp1436
sg387
(lp1437
(idelphi
DelphiRelOp
p1438
(dp1439
g504
(i__main__
DelphiIdentAccess
p1440
(dp1441
g15
S'self'
p1442
sg300
(lp1443
(idelphi
DelphiFieldEndAccess
p1444
(dp1445
g395
S'selectedItemIndex'
p1446
sbasbsg509
(i__main__
DelphiIdentAccess
p1447
(dp1448
g15
S'kItemFirstChoice'
p1449
sg300
(lp1450
sbsg512
S'>='
p1451
sbasbsg397
g398
sg399
(idelphi
DelphiMulOp
p1452
(dp1453
g383
(idelphi
DelphiNestedExpressionListAccess
p1454
(dp1455
g300
(lp1456
sg387
(lp1457
(idelphi
DelphiRelOp
p1458
(dp1459
g504
(i__main__
DelphiIdentAccess
p1460
(dp1461
g15
S'key'
p1462
sg300
(lp1463
sbsg509
(i__main__
DelphiIdentAccess
p1464
(dp1465
g15
S'VK_RETURN'
p1466
sg300
(lp1467
sbsg512
S'='
sbasbsg397
g398
sg399
(idelphi
DelphiNestedExpressionListAccess
p1468
(dp1469
g300
(lp1470
sg387
(lp1471
(i__main__
DelphiIdentAccess
p1472
(dp1473
g15
S'editEnabled'
p1474
sg300
(lp1475
sbasbsbsbsg414
Nsg427
(idelphi
DelphiCompoundStatement
p1476
(dp1477
g376
(lp1478
(i__main__
DelphiAssignStatement
p1479
(dp1480
g417
Nsg422
(i__main__
DelphiIdentAccess
p1481
(dp1482
g15
S'self'
p1483
sg300
(lp1484
(idelphi
DelphiFieldEndAccess
p1485
(dp1486
g395
S'setNewValue'
p1487
sba(idelphi
DelphiFunctionEndAccess
p1488
(dp1489
g387
(lp1490
(idelphi
DelphiAddOp
p1491
(dp1492
g432
S'-'
sg433
(i__main__
DelphiIdentAccess
p1493
(dp1494
g15
S'kItemFirstChoice'
p1495
sg300
(lp1496
sbsg436
(i__main__
DelphiIdentAccess
p1497
(dp1498
g15
S'self'
p1499
sg300
(lp1500
(idelphi
DelphiFieldEndAccess
p1501
(dp1502
g395
S'selectedItemIndex'
p1503
sbasbsbasbasbsba(i__main__
DelphiAssignStatement
p1504
(dp1505
g417
Nsg422
(i__main__
DelphiIdentAccess
p1506
(dp1507
g15
S'self'
p1508
sg300
(lp1509
(idelphi
DelphiFieldEndAccess
p1510
(dp1511
g395
S'invalidate'
p1512
sbasbsbasbsbasbsg454
(lp1513
sbsbsS'updatedisplay'
p1514
(i__main__
DelphiMethodImplementation
p1515
(dp1516
g354
g166
sg47
g168
sg55
(lp1517
sg356
(lp1518
sg358
(lp1519
sg360
(lp1520
g362
asg363
(dp1521
sg57
S'PdListParameterPanel'
p1522
sg58
Nsg368
(lp1523
sg62
I0
sg63
g70
sg370
(i__main__
DelphiBlock
p1524
(dp1525
g373
(idelphi
DelphiCompoundStatement
p1526
(dp1527
g376
(lp1528
(idelphi
DelphiIfStatement
p1529
(dp1530
g380
(idelphi
DelphiMulOp
p1531
(dp1532
g383
(idelphi
DelphiNestedExpressionListAccess
p1533
(dp1534
g300
(lp1535
sg387
(lp1536
(idelphi
DelphiRelOp
p1537
(dp1538
g504
(i__main__
DelphiIdentAccess
p1539
(dp1540
g15
S'param'
p1541
sg300
(lp1542
(idelphi
DelphiFieldEndAccess
p1543
(dp1544
g395
S'fieldType'
p1545
sbasbsg509
(i__main__
DelphiIdentAccess
p1546
(dp1547
g15
S'kFieldEnumeratedList'
p1548
sg300
(lp1549
sbsg512
S'='
sbasbsg397
g398
sg399
(idelphi
DelphiNestedExpressionListAccess
p1550
(dp1551
g300
(lp1552
sg387
(lp1553
(idelphi
DelphiRelOp
p1554
(dp1555
g504
(i__main__
DelphiIdentAccess
p1556
(dp1557
g15
S'plant'
p1558
sg300
(lp1559
sbsg509
(idelphi
DelphiNilValue
p1560
(dp1561
bsg512
g733
sbasbsbsg414
(i__main__
DelphiAssignStatement
p1562
(dp1563
g417
(i__main__
DelphiIdentAccess
p1564
(dp1565
g15
S'false'
p1566
sg300
(lp1567
sbsg422
(i__main__
DelphiIdentAccess
p1568
(dp1569
g15
S'editEnabled'
p1570
sg300
(lp1571
sbsbsg427
(i__main__
DelphiAssignStatement
p1572
(dp1573
g417
Nsg422
(i__main__
DelphiIdentAccess
p1574
(dp1575
g15
S'self'
p1576
sg300
(lp1577
(idelphi
DelphiFieldEndAccess
p1578
(dp1579
g395
S'invalidate'
p1580
sbasbsbsbasbsg454
(lp1581
sbsbsS'resizeelements'
p1582
(i__main__
DelphiMethodImplementation
p1583
(dp1584
g354
g171
sg47
g173
sg55
(lp1585
sg356
(lp1586
sg358
(lp1587
sg360
(lp1588
g362
asg363
(dp1589
sg57
S'PdListParameterPanel'
p1590
sg58
Nsg368
(lp1591
sg62
I0
sg63
g70
sg370
(i__main__
DelphiBlock
p1592
(dp1593
g373
(idelphi
DelphiCompoundStatement
p1594
(dp1595
g376
NsS'commentLinesBefore'
p1596
(lp1597
S' do nothing '
p1598
asbsg454
(lp1599
sbsbsS'minwidth'
p1600
(i__main__
DelphiMethodImplementation
p1601
(dp1602
g354
g176
sg47
g178
sg55
(lp1603
(i__main__
DelphiFormalParameter
p1604
(dp1605
g85
Nsg86
(lp1606
S'requestedWidth'
p1607
asg17
(i__main__
DelphiPrimitiveType
p1608
(dp1609
g20
g61
sbsg91
Nsbasg356
(lp1610
sg358
(lp1611
sg360
(lp1612
g362
ag1607
asg363
(dp1613
g1607
g1608
ssg57
S'PdListParameterPanel'
p1614
sg58
(i__main__
DelphiPrimitiveType
p1615
(dp1616
g20
g61
sbsg368
(lp1617
sg62
I0
sg63
g64
sg370
(i__main__
DelphiBlock
p1618
(dp1619
g373
(idelphi
DelphiCompoundStatement
p1620
(dp1621
g376
(lp1622
(i__main__
DelphiAssignStatement
p1623
(dp1624
g417
(idelphi
DelphiIntegerValue
p1625
(dp1626
g14
S'0'
sbsg422
(i__main__
DelphiIdentAccess
p1627
(dp1628
g15
S'longestWidth'
p1629
sg300
(lp1630
sbsba(idelphi
DelphiWithStatement
p1631
(dp1632
g545
(idelphi
DelphiForStatement
p1633
(dp1634
g548
S'i'
sg549
(idelphi
DelphiAddOp
p1635
(dp1636
g432
S'-'
sg433
(idelphi
DelphiIntegerValue
p1637
(dp1638
g14
S'1'
sbsg436
(i__main__
DelphiIdentAccess
p1639
(dp1640
g15
S'choiceStrings'
p1641
sg300
(lp1642
(idelphi
DelphiFieldEndAccess
p1643
(dp1644
g395
S'count'
p1645
sbasbsbsg561
g562
sg85
(idelphi
DelphiIntegerValue
p1646
(dp1647
g14
S'0'
sbsg545
(i__main__
DelphiAssignStatement
p1648
(dp1649
g417
(i__main__
DelphiIdentAccess
p1650
(dp1651
g15
S'intMax'
p1652
sg300
(lp1653
(idelphi
DelphiFunctionEndAccess
p1654
(dp1655
g387
(lp1656
(i__main__
DelphiIdentAccess
p1657
(dp1658
g15
S'longestWidth'
p1659
sg300
(lp1660
sba(i__main__
DelphiIdentAccess
p1661
(dp1662
g15
S'textWidth'
p1663
sg300
(lp1664
(idelphi
DelphiFunctionEndAccess
p1665
(dp1666
g387
(lp1667
(i__main__
DelphiIdentAccess
p1668
(dp1669
g15
S'choiceStrings'
p1670
sg300
(lp1671
(idelphi
DelphiFieldEndAccess
p1672
(dp1673
g395
S'strings'
p1674
sba(idelphi
DelphiArrayEndAccess
p1675
(dp1676
g387
(lp1677
(i__main__
DelphiIdentAccess
p1678
(dp1679
g15
S'i'
sg300
(lp1680
sbasbasbasbasbasbasbsg422
(i__main__
DelphiIdentAccess
p1681
(dp1682
g15
S'longestWidth'
p1683
sg300
(lp1684
sbsbsbsg602
(lp1685
(i__main__
DelphiIdentAccess
p1686
(dp1687
g15
S'TMainForm'
p1688
sg300
(lp1689
(idelphi
DelphiFunctionEndAccess
p1690
(dp1691
g387
(lp1692
(i__main__
DelphiIdentAccess
p1693
(dp1694
g15
S'owner'
p1695
sg300
(lp1696
sbasba(idelphi
DelphiFieldEndAccess
p1697
(dp1698
g395
S'canvas'
p1699
sbasbasba(i__main__
DelphiAssignStatement
p1700
(dp1701
g417
(i__main__
DelphiIdentAccess
p1702
(dp1703
g15
S'intMax'
p1704
sg300
(lp1705
(idelphi
DelphiFunctionEndAccess
p1706
(dp1707
g387
(lp1708
(idelphi
DelphiAddOp
p1709
(dp1710
g432
S'+'
sg433
(i__main__
DelphiIdentAccess
p1711
(dp1712
g15
S'self'
p1713
sg300
(lp1714
(idelphi
DelphiFieldEndAccess
p1715
(dp1716
g395
S'longestLabelWordWidth'
p1717
sbasbsg436
(idelphi
DelphiMulOp
p1718
(dp1719
g383
(idelphi
DelphiIntegerValue
p1720
(dp1721
g14
S'2'
sbsg397
S'*'
sg399
(i__main__
DelphiIdentAccess
p1722
(dp1723
g15
S'kLeftRightGap'
p1724
sg300
(lp1725
sbsbsba(idelphi
DelphiAddOp
p1726
(dp1727
g432
S'+'
sg433
(i__main__
DelphiIdentAccess
p1728
(dp1729
g15
S'kLeftRightGap'
p1730
sg300
(lp1731
sbsg436
(idelphi
DelphiAddOp
p1732
(dp1733
g432
S'+'
sg433
(i__main__
DelphiIdentAccess
p1734
(dp1735
g15
S'longestWidth'
p1736
sg300
(lp1737
sbsg436
(idelphi
DelphiAddOp
p1738
(dp1739
g432
S'+'
sg433
(i__main__
DelphiIdentAccess
p1740
(dp1741
g15
S'kRadioButtonBeforeTextGap'
p1742
sg300
(lp1743
sbsg436
(idelphi
DelphiAddOp
p1744
(dp1745
g432
S'+'
sg433
(i__main__
DelphiIdentAccess
p1746
(dp1747
g15
S'kRadioButtonWidth'
p1748
sg300
(lp1749
sbsg436
(idelphi
DelphiSign
p1750
(dp1751
g406
(i__main__
DelphiIdentAccess
p1752
(dp1753
g15
S'kRadioButtonLeftGap'
p1754
sg300
(lp1755
sbsg674
S'+'
sbsbsbsbsbasbasbsg422
(i__main__
DelphiIdentAccess
p1756
(dp1757
g15
S'minAllowed'
p1758
sg300
(lp1759
sbsba(idelphi
DelphiIfStatement
p1760
(dp1761
g380
(idelphi
DelphiRelOp
p1762
(dp1763
g504
(i__main__
DelphiIdentAccess
p1764
(dp1765
g15
S'requestedWidth'
p1766
sg300
(lp1767
sbsg509
(i__main__
DelphiIdentAccess
p1768
(dp1769
g15
S'minAllowed'
p1770
sg300
(lp1771
sbsg512
S'>'
sbsg414
(i__main__
DelphiAssignStatement
p1772
(dp1773
g417
(i__main__
DelphiIdentAccess
p1774
(dp1775
g15
S'minAllowed'
p1776
sg300
(lp1777
sbsg422
(i__main__
DelphiIdentAccess
p1778
(dp1779
g15
S'result'
p1780
sg300
(lp1781
sbsbsg427
(i__main__
DelphiAssignStatement
p1782
(dp1783
g417
(idelphi
DelphiSign
p1784
(dp1785
g406
(idelphi
DelphiIntegerValue
p1786
(dp1787
g14
S'1'
sbsg674
S'-'
sbsg422
(i__main__
DelphiIdentAccess
p1788
(dp1789
g15
S'result'
p1790
sg300
(lp1791
sbsbsbasbsg454
(lp1792
(i__main__
DelphiVarSection
p1793
(dp1794
g30
I0
sg682
(lp1795
(idelphi
DelphiVarDecl
p1796
(dp1797
g11
Nsg686
(lp1798
S'i'
aS'longestWidth'
p1799
aS'minAllowed'
p1800
asg17
(i__main__
DelphiPrimitiveType
p1801
(dp1802
g20
g61
sbsbasbasbsbsS'paint'
p1803
(i__main__
DelphiMethodImplementation
p1804
(dp1805
g354
g189
sg47
g191
sg55
(lp1806
sg356
(lp1807
sg358
(lp1808
sg360
(lp1809
g362
asg363
(dp1810
sg57
S'PdListParameterPanel'
p1811
sg58
Nsg368
(lp1812
sg62
I0
sg63
g70
sg370
(i__main__
DelphiBlock
p1813
(dp1814
g373
(idelphi
DelphiCompoundStatement
p1815
(dp1816
g376
(lp1817
(idelphi
DelphiIfStatement
p1818
(dp1819
g380
(i__main__
DelphiIdentAccess
p1820
(dp1821
g15
S'Application'
p1822
sg300
(lp1823
(idelphi
DelphiFieldEndAccess
p1824
(dp1825
g395
S'terminated'
p1826
sbasbsg414
Nsg427
(i__main__
DelphiExitStatement
p1827
(dp1828
g1329
g1804
sbsba(i__main__
DelphiAssignStatement
p1829
(dp1830
g417
Nsg422
(idelphi
DelphiInheritedCall
p1831
(dp1832
g15
S'paint'
p1833
sg387
Nsbsba(idelphi
DelphiIfStatement
p1834
(dp1835
g380
(idelphi
DelphiNestedExpressionListAccess
p1836
(dp1837
g300
(lp1838
sg387
(lp1839
(i__main__
DelphiIdentAccess
p1840
(dp1841
g15
S'param'
p1842
sg300
(lp1843
(idelphi
DelphiFieldEndAccess
p1844
(dp1845
g395
S'collapsed'
p1846
sbasbasbsg414
Nsg427
(idelphi
DelphiCompoundStatement
p1847
(dp1848
g376
(lp1849
(i__main__
DelphiAssignStatement
p1850
(dp1851
g417
Nsg422
(i__main__
DelphiIdentAccess
p1852
(dp1853
g15
S'self'
p1854
sg300
(lp1855
(idelphi
DelphiFieldEndAccess
p1856
(dp1857
g395
S'drawExtraValueCaptionWithString'
p1858
sba(idelphi
DelphiFunctionEndAccess
p1859
(dp1860
g387
(lp1861
(i__main__
DelphiIdentAccess
p1862
(dp1863
g15
S'self'
p1864
sg300
(lp1865
(idelphi
DelphiFieldEndAccess
p1866
(dp1867
g395
S'firstCheckedString'
p1868
sbasba(idelphi
DelphiStringAccess
p1869
(dp1870
g300
(lp1871
sg14
(idelphi
DelphiStringValue
p1872
(dp1873
g14
S''
sbsbasbasbsba(i__main__
DelphiExitStatement
p1874
(dp1875
g1329
g1804
sbasbsba(i__main__
DelphiAssignStatement
p1876
(dp1877
g417
(i__main__
DelphiIdentAccess
p1878
(dp1879
g15
S'GetClientRect'
p1880
sg300
(lp1881
sbsg422
(i__main__
DelphiIdentAccess
p1882
(dp1883
g15
S'rect'
p1884
sg300
(lp1885
sbsba(idelphi
DelphiIfStatement
p1886
(dp1887
g380
(idelphi
DelphiRelOp
p1888
(dp1889
g504
(i__main__
DelphiIdentAccess
p1890
(dp1891
g15
S'choiceStrings'
p1892
sg300
(lp1893
(idelphi
DelphiFieldEndAccess
p1894
(dp1895
g395
S'count'
p1896
sbasbsg509
(idelphi
DelphiIntegerValue
p1897
(dp1898
g14
S'0'
sbsg512
S'>'
sbsg414
Nsg427
(idelphi
DelphiForStatement
p1899
(dp1900
g548
S'i'
sg549
(idelphi
DelphiAddOp
p1901
(dp1902
g432
S'-'
sg433
(idelphi
DelphiIntegerValue
p1903
(dp1904
g14
S'1'
sbsg436
(i__main__
DelphiIdentAccess
p1905
(dp1906
g15
S'choiceStrings'
p1907
sg300
(lp1908
(idelphi
DelphiFieldEndAccess
p1909
(dp1910
g395
S'count'
p1911
sbasbsbsg561
g562
sg85
(idelphi
DelphiIntegerValue
p1912
(dp1913
g14
S'0'
sbsg545
(idelphi
DelphiCompoundStatement
p1914
(dp1915
g376
(lp1916
(idelphi
DelphiWithStatement
p1917
(dp1918
g545
(idelphi
DelphiCompoundStatement
p1919
(dp1920
g376
(lp1921
(i__main__
DelphiAssignStatement
p1922
(dp1923
g417
(idelphi
DelphiAddOp
p1924
(dp1925
g432
S'+'
sg433
(i__main__
DelphiIdentAccess
p1926
(dp1927
g15
S'kRadioButtonLeftGap'
p1928
sg300
(lp1929
sbsg436
(i__main__
DelphiIdentAccess
p1930
(dp1931
g15
S'rect'
p1932
sg300
(lp1933
(idelphi
DelphiFieldEndAccess
p1934
(dp1935
g395
S'left'
p1936
sbasbsbsg422
(i__main__
DelphiIdentAccess
p1937
(dp1938
g15
S'left'
p1939
sg300
(lp1940
sbsba(i__main__
DelphiAssignStatement
p1941
(dp1942
g417
(idelphi
DelphiAddOp
p1943
(dp1944
g432
S'+'
sg433
(i__main__
DelphiIdentAccess
p1945
(dp1946
g15
S'kRadioButtonWidth'
p1947
sg300
(lp1948
sbsg436
(i__main__
DelphiIdentAccess
p1949
(dp1950
g15
S'left'
p1951
sg300
(lp1952
sbsbsg422
(i__main__
DelphiIdentAccess
p1953
(dp1954
g15
S'right'
p1955
sg300
(lp1956
sbsba(i__main__
DelphiAssignStatement
p1957
(dp1958
g417
(idelphi
DelphiAddOp
p1959
(dp1960
g432
S'+'
sg433
(idelphi
DelphiNestedExpressionListAccess
p1961
(dp1962
g300
(lp1963
sg387
(lp1964
(idelphi
DelphiAddOp
p1965
(dp1966
g432
S'-'
sg433
(idelphi
DelphiMulOp
p1967
(dp1968
g383
(idelphi
DelphiIntegerValue
p1969
(dp1970
g14
S'2'
sbsg397
S'div'
p1971
sg399
(i__main__
DelphiIdentAccess
p1972
(dp1973
g15
S'kRadioButtonWidth'
p1974
sg300
(lp1975
sbsbsg436
(idelphi
DelphiMulOp
p1976
(dp1977
g383
(idelphi
DelphiIntegerValue
p1978
(dp1979
g14
S'2'
sbsg397
g1971
sg399
(i__main__
DelphiIdentAccess
p1980
(dp1981
g15
S'self'
p1982
sg300
(lp1983
(idelphi
DelphiFieldEndAccess
p1984
(dp1985
g395
S'textHeight'
p1986
sbasbsbsbasbsg436
(idelphi
DelphiAddOp
p1987
(dp1988
g432
S'+'
sg433
(idelphi
DelphiMulOp
p1989
(dp1990
g383
(i__main__
DelphiIdentAccess
p1991
(dp1992
g15
S'i'
sg300
(lp1993
sbsg397
S'*'
sg399
(i__main__
DelphiIdentAccess
p1994
(dp1995
g15
S'self'
p1996
sg300
(lp1997
(idelphi
DelphiFieldEndAccess
p1998
(dp1999
g395
S'textHeight'
p2000
sbasbsbsg436
(idelphi
DelphiAddOp
p2001
(dp2002
g432
S'+'
sg433
(i__main__
DelphiIdentAccess
p2003
(dp2004
g15
S'self'
p2005
sg300
(lp2006
(idelphi
DelphiFieldEndAccess
p2007
(dp2008
g395
S'collapsedHeight'
p2009
sbasbsg436
(i__main__
DelphiIdentAccess
p2010
(dp2011
g15
S'rect'
p2012
sg300
(lp2013
(idelphi
DelphiFieldEndAccess
p2014
(dp2015
g395
S'top'
p2016
sbasbsbsbsbsg422
(i__main__
DelphiIdentAccess
p2017
(dp2018
g15
S'top'
p2019
sg300
(lp2020
sbsba(i__main__
DelphiAssignStatement
p2021
(dp2022
g417
(idelphi
DelphiAddOp
p2023
(dp2024
g432
S'+'
sg433
(i__main__
DelphiIdentAccess
p2025
(dp2026
g15
S'kRadioButtonWidth'
p2027
sg300
(lp2028
sbsg436
(i__main__
DelphiIdentAccess
p2029
(dp2030
g15
S'top'
p2031
sg300
(lp2032
sbsbsg422
(i__main__
DelphiIdentAccess
p2033
(dp2034
g15
S'bottom'
p2035
sg300
(lp2036
sbsbasbsg602
(lp2037
(i__main__
DelphiIdentAccess
p2038
(dp2039
g15
S'circleRects'
p2040
sg300
(lp2041
(idelphi
DelphiArrayEndAccess
p2042
(dp2043
g387
(lp2044
(i__main__
DelphiIdentAccess
p2045
(dp2046
g15
S'i'
sg300
(lp2047
sbasbasbasba(idelphi
DelphiWithStatement
p2048
(dp2049
g545
(idelphi
DelphiCompoundStatement
p2050
(dp2051
g376
(lp2052
(i__main__
DelphiAssignStatement
p2053
(dp2054
g417
(idelphi
DelphiAddOp
p2055
(dp2056
g432
S'+'
sg433
(i__main__
DelphiIdentAccess
p2057
(dp2058
g15
S'kRadioButtonBeforeTextGap'
p2059
sg300
(lp2060
sbsg436
(idelphi
DelphiAddOp
p2061
(dp2062
g432
S'+'
sg433
(i__main__
DelphiIdentAccess
p2063
(dp2064
g15
S'kRadioButtonWidth'
p2065
sg300
(lp2066
sbsg436
(idelphi
DelphiAddOp
p2067
(dp2068
g432
S'+'
sg433
(i__main__
DelphiIdentAccess
p2069
(dp2070
g15
S'kRadioButtonLeftGap'
p2071
sg300
(lp2072
sbsg436
(i__main__
DelphiIdentAccess
p2073
(dp2074
g15
S'rect'
p2075
sg300
(lp2076
(idelphi
DelphiFieldEndAccess
p2077
(dp2078
g395
S'left'
p2079
sbasbsbsbsbsg422
(i__main__
DelphiIdentAccess
p2080
(dp2081
g15
S'left'
p2082
sg300
(lp2083
sbsba(i__main__
DelphiAssignStatement
p2084
(dp2085
g417
(idelphi
DelphiAddOp
p2086
(dp2087
g432
S'+'
sg433
(i__main__
DelphiIdentAccess
p2088
(dp2089
g15
S'self'
p2090
sg300
(lp2091
(idelphi
DelphiFieldEndAccess
p2092
(dp2093
g395
S'canvas'
p2094
sba(idelphi
DelphiFieldEndAccess
p2095
(dp2096
g395
S'textWidth'
p2097
sba(idelphi
DelphiFunctionEndAccess
p2098
(dp2099
g387
(lp2100
(i__main__
DelphiIdentAccess
p2101
(dp2102
g15
S'choiceStrings'
p2103
sg300
(lp2104
(idelphi
DelphiFieldEndAccess
p2105
(dp2106
g395
S'strings'
p2107
sba(idelphi
DelphiArrayEndAccess
p2108
(dp2109
g387
(lp2110
(i__main__
DelphiIdentAccess
p2111
(dp2112
g15
S'i'
sg300
(lp2113
sbasbasbasbasbsg436
(i__main__
DelphiIdentAccess
p2114
(dp2115
g15
S'left'
p2116
sg300
(lp2117
sbsbsg422
(i__main__
DelphiIdentAccess
p2118
(dp2119
g15
S'right'
p2120
sg300
(lp2121
sbsba(i__main__
DelphiAssignStatement
p2122
(dp2123
g417
(idelphi
DelphiAddOp
p2124
(dp2125
g432
S'+'
sg433
(idelphi
DelphiMulOp
p2126
(dp2127
g383
(i__main__
DelphiIdentAccess
p2128
(dp2129
g15
S'i'
sg300
(lp2130
sbsg397
S'*'
sg399
(i__main__
DelphiIdentAccess
p2131
(dp2132
g15
S'self'
p2133
sg300
(lp2134
(idelphi
DelphiFieldEndAccess
p2135
(dp2136
g395
S'textHeight'
p2137
sbasbsbsg436
(idelphi
DelphiAddOp
p2138
(dp2139
g432
S'+'
sg433
(i__main__
DelphiIdentAccess
p2140
(dp2141
g15
S'self'
p2142
sg300
(lp2143
(idelphi
DelphiFieldEndAccess
p2144
(dp2145
g395
S'collapsedHeight'
p2146
sbasbsg436
(i__main__
DelphiIdentAccess
p2147
(dp2148
g15
S'rect'
p2149
sg300
(lp2150
(idelphi
DelphiFieldEndAccess
p2151
(dp2152
g395
S'top'
p2153
sbasbsbsbsg422
(i__main__
DelphiIdentAccess
p2154
(dp2155
g15
S'top'
p2156
sg300
(lp2157
sbsba(i__main__
DelphiAssignStatement
p2158
(dp2159
g417
(idelphi
DelphiAddOp
p2160
(dp2161
g432
S'+'
sg433
(i__main__
DelphiIdentAccess
p2162
(dp2163
g15
S'self'
p2164
sg300
(lp2165
(idelphi
DelphiFieldEndAccess
p2166
(dp2167
g395
S'textHeight'
p2168
sbasbsg436
(i__main__
DelphiIdentAccess
p2169
(dp2170
g15
S'top'
p2171
sg300
(lp2172
sbsbsg422
(i__main__
DelphiIdentAccess
p2173
(dp2174
g15
S'bottom'
p2175
sg300
(lp2176
sbsbasbsg602
(lp2177
(i__main__
DelphiIdentAccess
p2178
(dp2179
g15
S'textRects'
p2180
sg300
(lp2181
(idelphi
DelphiArrayEndAccess
p2182
(dp2183
g387
(lp2184
(i__main__
DelphiIdentAccess
p2185
(dp2186
g15
S'i'
sg300
(lp2187
sbasbasbasba(idelphi
DelphiIfStatement
p2188
(dp2189
g380
(i__main__
DelphiIdentAccess
p2190
(dp2191
g15
S'hasRadioButtons'
p2192
sg300
(lp2193
sbsg414
(i__main__
DelphiAssignStatement
p2194
(dp2195
g417
Nsg422
(i__main__
DelphiIdentAccess
p2196
(dp2197
g15
S'self'
p2198
sg300
(lp2199
(idelphi
DelphiFieldEndAccess
p2200
(dp2201
g395
S'drawCheckBox'
p2202
sba(idelphi
DelphiFunctionEndAccess
p2203
(dp2204
g387
(lp2205
(i__main__
DelphiIdentAccess
p2206
(dp2207
g15
S'choiceChecks'
p2208
sg300
(lp2209
(idelphi
DelphiArrayEndAccess
p2210
(dp2211
g387
(lp2212
(i__main__
DelphiIdentAccess
p2213
(dp2214
g15
S'i'
sg300
(lp2215
sbasbasba(i__main__
DelphiIdentAccess
p2216
(dp2217
g15
S'editEnabled'
p2218
sg300
(lp2219
sba(i__main__
DelphiIdentAccess
p2220
(dp2221
g15
S'circleRects'
p2222
sg300
(lp2223
(idelphi
DelphiArrayEndAccess
p2224
(dp2225
g387
(lp2226
(i__main__
DelphiIdentAccess
p2227
(dp2228
g15
S'i'
sg300
(lp2229
sbasbasbasbasbsbsg427
(i__main__
DelphiAssignStatement
p2230
(dp2231
g417
Nsg422
(i__main__
DelphiIdentAccess
p2232
(dp2233
g15
S'self'
p2234
sg300
(lp2235
(idelphi
DelphiFieldEndAccess
p2236
(dp2237
g395
S'drawRadioButton'
p2238
sba(idelphi
DelphiFunctionEndAccess
p2239
(dp2240
g387
(lp2241
(idelphi
DelphiNestedExpressionListAccess
p2242
(dp2243
g300
(lp2244
sg387
(lp2245
(idelphi
DelphiRelOp
p2246
(dp2247
g504
(i__main__
DelphiIdentAccess
p2248
(dp2249
g15
S'currentChoice'
p2250
sg300
(lp2251
sbsg509
(i__main__
DelphiIdentAccess
p2252
(dp2253
g15
S'i'
sg300
(lp2254
sbsg512
S'='
sbasba(i__main__
DelphiIdentAccess
p2255
(dp2256
g15
S'editEnabled'
p2257
sg300
(lp2258
sba(i__main__
DelphiIdentAccess
p2259
(dp2260
g15
S'circleRects'
p2261
sg300
(lp2262
(idelphi
DelphiArrayEndAccess
p2263
(dp2264
g387
(lp2265
(i__main__
DelphiIdentAccess
p2266
(dp2267
g15
S'i'
sg300
(lp2268
sbasbasbasbasbsbsba(i__main__
DelphiAssignStatement
p2269
(dp2270
g417
Nsg422
(i__main__
DelphiIdentAccess
p2271
(dp2272
g15
S'self'
p2273
sg300
(lp2274
(idelphi
DelphiFieldEndAccess
p2275
(dp2276
g395
S'drawText'
p2277
sba(idelphi
DelphiFunctionEndAccess
p2278
(dp2279
g387
(lp2280
(i__main__
DelphiIdentAccess
p2281
(dp2282
g15
S'choiceStrings'
p2283
sg300
(lp2284
(idelphi
DelphiFieldEndAccess
p2285
(dp2286
g395
S'strings'
p2287
sba(idelphi
DelphiArrayEndAccess
p2288
(dp2289
g387
(lp2290
(i__main__
DelphiIdentAccess
p2291
(dp2292
g15
S'i'
sg300
(lp2293
sbasbasba(i__main__
DelphiIdentAccess
p2294
(dp2295
g15
S'textRects'
p2296
sg300
(lp2297
(idelphi
DelphiArrayEndAccess
p2298
(dp2299
g387
(lp2300
(i__main__
DelphiIdentAccess
p2301
(dp2302
g15
S'i'
sg300
(lp2303
sbasbasba(i__main__
DelphiIdentAccess
p2304
(dp2305
g15
S'true'
p2306
sg300
(lp2307
sba(idelphi
DelphiMulOp
p2308
(dp2309
g383
(idelphi
DelphiNestedExpressionListAccess
p2310
(dp2311
g300
(lp2312
sg387
(lp2313
(i__main__
DelphiIdentAccess
p2314
(dp2315
g15
S'self'
p2316
sg300
(lp2317
(idelphi
DelphiFieldEndAccess
p2318
(dp2319
g395
S'editEnabled'
p2320
sbasbasbsg397
g398
sg399
(idelphi
DelphiNestedExpressionListAccess
p2321
(dp2322
g300
(lp2323
sg387
(lp2324
(idelphi
DelphiRelOp
p2325
(dp2326
g504
(i__main__
DelphiIdentAccess
p2327
(dp2328
g15
S'self'
p2329
sg300
(lp2330
(idelphi
DelphiFieldEndAccess
p2331
(dp2332
g395
S'selectedItemIndex'
p2333
sbasbsg509
(idelphi
DelphiAddOp
p2334
(dp2335
g432
S'+'
sg433
(i__main__
DelphiIdentAccess
p2336
(dp2337
g15
S'i'
sg300
(lp2338
sbsg436
(i__main__
DelphiIdentAccess
p2339
(dp2340
g15
S'kItemFirstChoice'
p2341
sg300
(lp2342
sbsbsg512
S'='
sbasbsba(i__main__
DelphiIdentAccess
p2343
(dp2344
g15
S'false'
p2345
sg300
(lp2346
sbasbasbsba(i__main__
DelphiAssignStatement
p2347
(dp2348
g417
Nsg422
(i__main__
DelphiIdentAccess
p2349
(dp2350
g15
S'unionRect'
p2351
sg300
(lp2352
(idelphi
DelphiFunctionEndAccess
p2353
(dp2354
g387
(lp2355
(i__main__
DelphiIdentAccess
p2356
(dp2357
g15
S'choiceRects'
p2358
sg300
(lp2359
(idelphi
DelphiArrayEndAccess
p2360
(dp2361
g387
(lp2362
(i__main__
DelphiIdentAccess
p2363
(dp2364
g15
S'i'
sg300
(lp2365
sbasbasba(i__main__
DelphiIdentAccess
p2366
(dp2367
g15
S'circleRects'
p2368
sg300
(lp2369
(idelphi
DelphiArrayEndAccess
p2370
(dp2371
g387
(lp2372
(i__main__
DelphiIdentAccess
p2373
(dp2374
g15
S'i'
sg300
(lp2375
sbasbasba(i__main__
DelphiIdentAccess
p2376
(dp2377
g15
S'textRects'
p2378
sg300
(lp2379
(idelphi
DelphiArrayEndAccess
p2380
(dp2381
g387
(lp2382
(i__main__
DelphiIdentAccess
p2383
(dp2384
g15
S'i'
sg300
(lp2385
sbasbasbasbasbsbasbsbsbasbsg454
(lp2386
(i__main__
DelphiVarSection
p2387
(dp2388
g30
I0
sg682
(lp2389
(idelphi
DelphiVarDecl
p2390
(dp2391
g11
Nsg686
(lp2392
S'i'
asg17
(i__main__
DelphiPrimitiveType
p2393
(dp2394
g20
g61
sbsba(idelphi
DelphiVarDecl
p2395
(dp2396
g11
Nsg686
(lp2397
S'rect'
p2398
asg17
(i__main__
DelphiNamedType
p2399
(dp2400
g20
S'TRect'
p2401
sg117
g1
sg118
Nsbsba(idelphi
DelphiVarDecl
p2402
(dp2403
g11
Nsg686
(lp2404
S'circleRects'
p2405
asg17
(i__main__
DelphiArrayType
p2406
(dp2407
g17
(i__main__
DelphiNamedType
p2408
(dp2409
g20
S'TRect'
p2410
sg117
g1
sg118
Nsbsg292
(lp2411
(idelphi
DelphiSubrange
p2412
(dp2413
g296
(i__main__
DelphiIdentAccess
p2414
(dp2415
g15
S'kMaxNumChoices'
p2416
sg300
(lp2417
sbsg302
(idelphi
DelphiIntegerValue
p2418
(dp2419
g14
S'0'
sbsg47
S''
sbasbsba(idelphi
DelphiVarDecl
p2420
(dp2421
g11
Nsg686
(lp2422
S'textRects'
p2423
asg17
(i__main__
DelphiArrayType
p2424
(dp2425
g17
(i__main__
DelphiNamedType
p2426
(dp2427
g20
S'TRect'
p2428
sg117
g1
sg118
Nsbsg292
(lp2429
(idelphi
DelphiSubrange
p2430
(dp2431
g296
(i__main__
DelphiIdentAccess
p2432
(dp2433
g15
S'kMaxNumChoices'
p2434
sg300
(lp2435
sbsg302
(idelphi
DelphiIntegerValue
p2436
(dp2437
g14
S'0'
sbsg47
S''
sbasbsbasbasbsbsS'domouseup'
p2438
(i__main__
DelphiMethodImplementation
p2439
(dp2440
g354
g194
sg47
g196
sg55
(lp2441
(i__main__
DelphiFormalParameter
p2442
(dp2443
g85
Nsg86
(lp2444
S'Sender'
p2445
asg17
(i__main__
DelphiNamedType
p2446
(dp2447
g20
S'TObject'
p2448
sg117
g1
sg118
Nsbsg91
Nsba(i__main__
DelphiFormalParameter
p2449
(dp2450
g85
Nsg86
(lp2451
S'Button'
p2452
asg17
(i__main__
DelphiNamedType
p2453
(dp2454
g20
S'TMouseButton'
p2455
sg117
g1
sg118
Nsbsg91
Nsba(i__main__
DelphiFormalParameter
p2456
(dp2457
g85
Nsg86
(lp2458
S'Shift'
p2459
asg17
(i__main__
DelphiNamedType
p2460
(dp2461
g20
S'TShiftState'
p2462
sg117
g1
sg118
Nsbsg91
Nsba(i__main__
DelphiFormalParameter
p2463
(dp2464
g85
Nsg86
(lp2465
S'X'
aS'Y'
asg17
(i__main__
DelphiPrimitiveType
p2466
(dp2467
g20
g61
sbsg91
Nsbasg356
(lp2468
sg358
(lp2469
sg360
(lp2470
g362
ag2445
ag2452
ag2459
aS'X'
aS'Y'
asg363
(dp2471
S'Y'
g2466
sg2459
g2460
sg2452
g2453
sg2445
g2446
sS'X'
g2466
ssg57
S'PdListParameterPanel'
p2472
sg58
Nsg368
(lp2473
sg62
I0
sg63
g70
sg370
(i__main__
DelphiBlock
p2474
(dp2475
g373
(idelphi
DelphiCompoundStatement
p2476
(dp2477
g376
(lp2478
(i__main__
DelphiAssignStatement
p2479
(dp2480
g417
Nsg422
(idelphi
DelphiInheritedCall
p2481
(dp2482
g15
S'doMouseUp'
p2483
sg387
(lp2484
(i__main__
DelphiIdentAccess
p2485
(dp2486
g15
S'sender'
p2487
sg300
(lp2488
sba(i__main__
DelphiIdentAccess
p2489
(dp2490
g15
S'button'
p2491
sg300
(lp2492
sba(i__main__
DelphiIdentAccess
p2493
(dp2494
g15
S'shift'
p2495
sg300
(lp2496
sba(i__main__
DelphiIdentAccess
p2497
(dp2498
g15
S'x'
sg300
(lp2499
sba(i__main__
DelphiIdentAccess
p2500
(dp2501
g15
S'y'
sg300
(lp2502
sbasbsg1596
(lp2503
S' must always call this first because it sets the focus '
p2504
asba(idelphi
DelphiIfStatement
p2505
(dp2506
g380
(idelphi
DelphiNestedExpressionListAccess
p2507
(dp2508
g300
(lp2509
sg387
(lp2510
(i__main__
DelphiIdentAccess
p2511
(dp2512
g15
S'editEnabled'
p2513
sg300
(lp2514
sbasbsg414
Nsg427
(idelphi
DelphiCompoundStatement
p2515
(dp2516
g376
(lp2517
(i__main__
DelphiAssignStatement
p2518
(dp2519
g417
(i__main__
DelphiIdentAccess
p2520
(dp2521
g15
S'Point'
p2522
sg300
(lp2523
(idelphi
DelphiFunctionEndAccess
p2524
(dp2525
g387
(lp2526
(i__main__
DelphiIdentAccess
p2527
(dp2528
g15
S'x'
sg300
(lp2529
sba(i__main__
DelphiIdentAccess
p2530
(dp2531
g15
S'y'
sg300
(lp2532
sbasbasbsg422
(i__main__
DelphiIdentAccess
p2533
(dp2534
g15
S'thePoint'
p2535
sg300
(lp2536
sbsba(idelphi
DelphiIfStatement
p2537
(dp2538
g380
(idelphi
DelphiRelOp
p2539
(dp2540
g504
(i__main__
DelphiIdentAccess
p2541
(dp2542
g15
S'choiceStrings'
p2543
sg300
(lp2544
(idelphi
DelphiFieldEndAccess
p2545
(dp2546
g395
S'count'
p2547
sbasbsg509
(idelphi
DelphiIntegerValue
p2548
(dp2549
g14
S'0'
sbsg512
S'>'
sbsg414
Nsg427
(idelphi
DelphiForStatement
p2550
(dp2551
g548
S'i'
sg549
(idelphi
DelphiAddOp
p2552
(dp2553
g432
S'-'
sg433
(idelphi
DelphiIntegerValue
p2554
(dp2555
g14
S'1'
sbsg436
(i__main__
DelphiIdentAccess
p2556
(dp2557
g15
S'choiceStrings'
p2558
sg300
(lp2559
(idelphi
DelphiFieldEndAccess
p2560
(dp2561
g395
S'count'
p2562
sbasbsbsg561
g562
sg85
(idelphi
DelphiIntegerValue
p2563
(dp2564
g14
S'0'
sbsg545
(idelphi
DelphiIfStatement
p2565
(dp2566
g380
(i__main__
DelphiIdentAccess
p2567
(dp2568
g15
S'ptInRect'
p2569
sg300
(lp2570
(idelphi
DelphiFunctionEndAccess
p2571
(dp2572
g387
(lp2573
(i__main__
DelphiIdentAccess
p2574
(dp2575
g15
S'choiceRects'
p2576
sg300
(lp2577
(idelphi
DelphiArrayEndAccess
p2578
(dp2579
g387
(lp2580
(i__main__
DelphiIdentAccess
p2581
(dp2582
g15
S'i'
sg300
(lp2583
sbasbasba(i__main__
DelphiIdentAccess
p2584
(dp2585
g15
S'thePoint'
p2586
sg300
(lp2587
sbasbasbsg414
Nsg427
(idelphi
DelphiCompoundStatement
p2588
(dp2589
g376
(lp2590
(i__main__
DelphiAssignStatement
p2591
(dp2592
g417
Nsg422
(i__main__
DelphiIdentAccess
p2593
(dp2594
g15
S'self'
p2595
sg300
(lp2596
(idelphi
DelphiFieldEndAccess
p2597
(dp2598
g395
S'setNewValue'
p2599
sba(idelphi
DelphiFunctionEndAccess
p2600
(dp2601
g387
(lp2602
(i__main__
DelphiIdentAccess
p2603
(dp2604
g15
S'i'
sg300
(lp2605
sbasbasbsba(i__main__
DelphiAssignStatement
p2606
(dp2607
g417
(idelphi
DelphiAddOp
p2608
(dp2609
g432
S'+'
sg433
(i__main__
DelphiIdentAccess
p2610
(dp2611
g15
S'currentChoice'
p2612
sg300
(lp2613
sbsg436
(i__main__
DelphiIdentAccess
p2614
(dp2615
g15
S'kItemFirstChoice'
p2616
sg300
(lp2617
sbsbsg422
(i__main__
DelphiIdentAccess
p2618
(dp2619
g15
S'self'
p2620
sg300
(lp2621
(idelphi
DelphiFieldEndAccess
p2622
(dp2623
g395
S'selectedItemIndex'
p2624
sbasbsba(idelphi
DelphiBreakStatement
p2625
(dp2626
basbsbsbsba(i__main__
DelphiAssignStatement
p2627
(dp2628
g417
Nsg422
(i__main__
DelphiIdentAccess
p2629
(dp2630
g15
S'self'
p2631
sg300
(lp2632
(idelphi
DelphiFieldEndAccess
p2633
(dp2634
g395
S'invalidate'
p2635
sbasbsbasbsbasbsg454
(lp2636
(i__main__
DelphiVarSection
p2637
(dp2638
g30
I0
sg682
(lp2639
(idelphi
DelphiVarDecl
p2640
(dp2641
g11
Nsg686
(lp2642
S'i'
asg17
(i__main__
DelphiPrimitiveType
p2643
(dp2644
g20
g61
sbsba(idelphi
DelphiVarDecl
p2645
(dp2646
g11
Nsg686
(lp2647
S'thePoint'
p2648
asg17
(i__main__
DelphiNamedType
p2649
(dp2650
g20
S'TPoint'
p2651
sg117
g1
sg118
NsbsbasbasbsbsS'drawcheckbox'
p2652
(i__main__
DelphiMethodImplementation
p2653
(dp2654
g354
g225
sg47
g227
sg55
(lp2655
(i__main__
DelphiFormalParameter
p2656
(dp2657
g85
Nsg86
(lp2658
S'value'
p2659
asg17
(i__main__
DelphiPrimitiveType
p2660
(dp2661
g20
g103
sbsg91
Nsba(i__main__
DelphiFormalParameter
p2662
(dp2663
g85
Nsg86
(lp2664
S'enabled'
p2665
asg17
(i__main__
DelphiPrimitiveType
p2666
(dp2667
g20
g103
sbsg91
Nsba(i__main__
DelphiFormalParameter
p2668
(dp2669
g85
Nsg86
(lp2670
S'rect'
p2671
asg17
(i__main__
DelphiNamedType
p2672
(dp2673
g20
S'TRect'
p2674
sg117
g1
sg118
Nsbsg91
Nsbasg356
(lp2675
sg358
(lp2676
sg360
(lp2677
g362
ag2659
ag2665
ag2671
asg363
(dp2678
g2665
g2666
sg2671
g2672
sg2659
g2660
ssg57
S'PdListParameterPanel'
p2679
sg58
Nsg368
(lp2680
sg62
I0
sg63
g70
sg370
(i__main__
DelphiBlock
p2681
(dp2682
g373
(idelphi
DelphiCompoundStatement
p2683
(dp2684
g376
(lp2685
(idelphi
DelphiWithStatement
p2686
(dp2687
g545
(idelphi
DelphiCompoundStatement
p2688
(dp2689
g376
(lp2690
(i__main__
DelphiAssignStatement
p2691
(dp2692
g417
(i__main__
DelphiIdentAccess
p2693
(dp2694
g15
S'bsClear'
p2695
sg300
(lp2696
sbsg422
(i__main__
DelphiIdentAccess
p2697
(dp2698
g15
S'brush'
p2699
sg300
(lp2700
(idelphi
DelphiFieldEndAccess
p2701
(dp2702
g395
S'style'
p2703
sbasbsba(idelphi
DelphiIfStatement
p2704
(dp2705
g380
(i__main__
DelphiIdentAccess
p2706
(dp2707
g15
S'enabled'
p2708
sg300
(lp2709
sbsg414
(i__main__
DelphiAssignStatement
p2710
(dp2711
g417
(i__main__
DelphiIdentAccess
p2712
(dp2713
g15
S'clBtnShadow'
p2714
sg300
(lp2715
sbsg422
(i__main__
DelphiIdentAccess
p2716
(dp2717
g15
S'pen'
p2718
sg300
(lp2719
(idelphi
DelphiFieldEndAccess
p2720
(dp2721
g395
S'color'
p2722
sbasbsbsg427
(i__main__
DelphiAssignStatement
p2723
(dp2724
g417
(i__main__
DelphiIdentAccess
p2725
(dp2726
g15
S'clBtnText'
p2727
sg300
(lp2728
sbsg422
(i__main__
DelphiIdentAccess
p2729
(dp2730
g15
S'pen'
p2731
sg300
(lp2732
(idelphi
DelphiFieldEndAccess
p2733
(dp2734
g395
S'color'
p2735
sbasbsbsba(idelphi
DelphiWithStatement
p2736
(dp2737
g545
(i__main__
DelphiAssignStatement
p2738
(dp2739
g417
Nsg422
(i__main__
DelphiIdentAccess
p2740
(dp2741
g15
S'rectangle'
p2742
sg300
(lp2743
(idelphi
DelphiFunctionEndAccess
p2744
(dp2745
g387
(lp2746
(i__main__
DelphiIdentAccess
p2747
(dp2748
g15
S'left'
p2749
sg300
(lp2750
sba(i__main__
DelphiIdentAccess
p2751
(dp2752
g15
S'top'
p2753
sg300
(lp2754
sba(i__main__
DelphiIdentAccess
p2755
(dp2756
g15
S'right'
p2757
sg300
(lp2758
sba(i__main__
DelphiIdentAccess
p2759
(dp2760
g15
S'bottom'
p2761
sg300
(lp2762
sbasbasbsbsg602
(lp2763
(i__main__
DelphiIdentAccess
p2764
(dp2765
g15
S'rect'
p2766
sg300
(lp2767
sbasba(idelphi
DelphiIfStatement
p2768
(dp2769
g380
(i__main__
DelphiIdentAccess
p2770
(dp2771
g15
S'value'
p2772
sg300
(lp2773
sbsg414
Nsg427
(idelphi
DelphiWithStatement
p2774
(dp2775
g545
(idelphi
DelphiCompoundStatement
p2776
(dp2777
g376
(lp2778
(i__main__
DelphiAssignStatement
p2779
(dp2780
g417
Nsg422
(i__main__
DelphiIdentAccess
p2781
(dp2782
g15
S'moveTo'
p2783
sg300
(lp2784
(idelphi
DelphiFunctionEndAccess
p2785
(dp2786
g387
(lp2787
(i__main__
DelphiIdentAccess
p2788
(dp2789
g15
S'left'
p2790
sg300
(lp2791
sba(i__main__
DelphiIdentAccess
p2792
(dp2793
g15
S'top'
p2794
sg300
(lp2795
sbasbasbsba(i__main__
DelphiAssignStatement
p2796
(dp2797
g417
Nsg422
(i__main__
DelphiIdentAccess
p2798
(dp2799
g15
S'lineTo'
p2800
sg300
(lp2801
(idelphi
DelphiFunctionEndAccess
p2802
(dp2803
g387
(lp2804
(i__main__
DelphiIdentAccess
p2805
(dp2806
g15
S'right'
p2807
sg300
(lp2808
sba(i__main__
DelphiIdentAccess
p2809
(dp2810
g15
S'bottom'
p2811
sg300
(lp2812
sbasbasbsba(i__main__
DelphiAssignStatement
p2813
(dp2814
g417
Nsg422
(i__main__
DelphiIdentAccess
p2815
(dp2816
g15
S'moveTo'
p2817
sg300
(lp2818
(idelphi
DelphiFunctionEndAccess
p2819
(dp2820
g387
(lp2821
(i__main__
DelphiIdentAccess
p2822
(dp2823
g15
S'left'
p2824
sg300
(lp2825
sba(i__main__
DelphiIdentAccess
p2826
(dp2827
g15
S'bottom'
p2828
sg300
(lp2829
sbasbasbsba(i__main__
DelphiAssignStatement
p2830
(dp2831
g417
Nsg422
(i__main__
DelphiIdentAccess
p2832
(dp2833
g15
S'lineTo'
p2834
sg300
(lp2835
(idelphi
DelphiFunctionEndAccess
p2836
(dp2837
g387
(lp2838
(i__main__
DelphiIdentAccess
p2839
(dp2840
g15
S'right'
p2841
sg300
(lp2842
sba(i__main__
DelphiIdentAccess
p2843
(dp2844
g15
S'top'
p2845
sg300
(lp2846
sbasbasbsbasbsg602
(lp2847
(i__main__
DelphiIdentAccess
p2848
(dp2849
g15
S'rect'
p2850
sg300
(lp2851
sbasbsbasbsg602
(lp2852
(i__main__
DelphiIdentAccess
p2853
(dp2854
g15
S'self'
p2855
sg300
(lp2856
(idelphi
DelphiFieldEndAccess
p2857
(dp2858
g395
S'canvas'
p2859
sbasbasbasbsg454
(lp2860
sbsbsS'initialize'
p2861
(i__main__
DelphiMethodImplementation
p2862
(dp2863
g354
g249
sg47
g251
sg55
(lp2864
sg356
(lp2865
sg358
(lp2866
sg360
(lp2867
g362
asg363
(dp2868
sg57
S'PdListParameterPanel'
p2869
sg58
Nsg368
(lp2870
sg62
I0
sg63
g70
sg370
(i__main__
DelphiBlock
p2871
(dp2872
g373
(idelphi
DelphiCompoundStatement
p2873
(dp2874
g376
(lp2875
(i__main__
DelphiAssignStatement
p2876
(dp2877
g417
(idelphi
DelphiIntegerValue
p2878
(dp2879
g14
S'0'
sbsg422
(i__main__
DelphiIdentAccess
p2880
(dp2881
g15
S'currentChoice'
p2882
sg300
(lp2883
sbsba(i__main__
DelphiAssignStatement
p2884
(dp2885
g417
(i__main__
DelphiIdentAccess
p2886
(dp2887
g15
S'false'
p2888
sg300
(lp2889
sbsg422
(i__main__
DelphiIdentAccess
p2890
(dp2891
g15
S'editEnabled'
p2892
sg300
(lp2893
sbsba(i__main__
DelphiAssignStatement
p2894
(dp2895
g417
(i__main__
DelphiIdentAccess
p2896
(dp2897
g15
S'TStringList'
p2898
sg300
(lp2899
(idelphi
DelphiFieldEndAccess
p2900
(dp2901
g395
S'create'
p2902
sbasbsg422
(i__main__
DelphiIdentAccess
p2903
(dp2904
g15
S'choiceStrings'
p2905
sg300
(lp2906
sbsba(i__main__
DelphiAssignStatement
p2907
(dp2908
g417
Nsg422
(i__main__
DelphiIdentAccess
p2909
(dp2910
g15
S'PdPlant'
p2911
sg300
(lp2912
(idelphi
DelphiFieldEndAccess
p2913
(dp2914
g395
S'fillEnumStringList'
p2915
sba(idelphi
DelphiFunctionEndAccess
p2916
(dp2917
g387
(lp2918
(i__main__
DelphiIdentAccess
p2919
(dp2920
g15
S'choiceStrings'
p2921
sg300
(lp2922
sba(i__main__
DelphiIdentAccess
p2923
(dp2924
g15
S'param'
p2925
sg300
(lp2926
(idelphi
DelphiFieldEndAccess
p2927
(dp2928
g395
S'fieldNumber'
p2929
sbasba(i__main__
DelphiIdentAccess
p2930
(dp2931
g15
S'hasRadioButtons'
p2932
sg300
(lp2933
sbasbasbsbasbsg454
(lp2934
sbsbsS'destroy'
p2935
(i__main__
DelphiMethodImplementation
p2936
(dp2937
g354
g254
sg47
g256
sg55
(lp2938
sg356
(lp2939
sg358
(lp2940
sg360
(lp2941
g362
asg363
(dp2942
sg57
S'PdListParameterPanel'
p2943
sg58
Nsg368
(lp2944
sg62
I0
sg63
g258
sg370
(i__main__
DelphiBlock
p2945
(dp2946
g373
(idelphi
DelphiCompoundStatement
p2947
(dp2948
g376
(lp2949
(i__main__
DelphiAssignStatement
p2950
(dp2951
g417
Nsg422
(i__main__
DelphiIdentAccess
p2952
(dp2953
g15
S'choiceStrings'
p2954
sg300
(lp2955
(idelphi
DelphiFieldEndAccess
p2956
(dp2957
g395
S'free'
p2958
sbasbsba(i__main__
DelphiAssignStatement
p2959
(dp2960
g417
(idelphi
DelphiNilValue
p2961
(dp2962
bsg422
(i__main__
DelphiIdentAccess
p2963
(dp2964
g15
S'choiceStrings'
p2965
sg300
(lp2966
sbsba(i__main__
DelphiAssignStatement
p2967
(dp2968
g417
Nsg422
(idelphi
DelphiInheritedCall
p2969
(dp2970
g15
S'destroy'
p2971
sg387
Nsbsbasbsg454
(lp2972
sbsbsS'updateplantvalues'
p2973
(i__main__
DelphiMethodImplementation
p2974
(dp2975
g354
g260
sg47
g262
sg55
(lp2976
sg356
(lp2977
sg358
(lp2978
sg360
(lp2979
g362
asg363
(dp2980
sg57
S'PdListParameterPanel'
p2981
sg58
Nsg368
(lp2982
sg62
I0
sg63
g70
sg370
(i__main__
DelphiBlock
p2983
(dp2984
g373
(idelphi
DelphiCompoundStatement
p2985
(dp2986
g376
(lp2987
(idelphi
DelphiIfStatement
p2988
(dp2989
g380
(idelphi
DelphiRelOp
p2990
(dp2991
g504
(i__main__
DelphiIdentAccess
p2992
(dp2993
g15
S'plant'
p2994
sg300
(lp2995
sbsg509
(idelphi
DelphiNilValue
p2996
(dp2997
bsg512
S'='
sbsg414
Nsg427
(i__main__
DelphiExitStatement
p2998
(dp2999
g1329
g2974
sbsba(idelphi
DelphiIfStatement
p3000
(dp3001
g380
(i__main__
DelphiIdentAccess
p3002
(dp3003
g15
S'param'
p3004
sg300
(lp3005
(idelphi
DelphiFieldEndAccess
p3006
(dp3007
g395
S'collapsed'
p3008
sbasbsg414
Nsg427
(i__main__
DelphiExitStatement
p3009
(dp3010
g1329
g2974
sbsba(i__main__
DelphiAssignStatement
p3011
(dp3012
g417
(i__main__
DelphiIdentAccess
p3013
(dp3014
g15
S'currentChoice'
p3015
sg300
(lp3016
sbsg422
(i__main__
DelphiIdentAccess
p3017
(dp3018
g15
S'oldChoice'
p3019
sg300
(lp3020
sbsba(i__main__
DelphiAssignStatement
p3021
(dp3022
g417
Nsg422
(i__main__
DelphiIdentAccess
p3023
(dp3024
g15
S'self'
p3025
sg300
(lp3026
(idelphi
DelphiFieldEndAccess
p3027
(dp3028
g395
S'updateCurrentValue'
p3029
sba(idelphi
DelphiFunctionEndAccess
p3030
(dp3031
g387
(lp3032
(idelphi
DelphiSign
p3033
(dp3034
g406
(idelphi
DelphiIntegerValue
p3035
(dp3036
g14
S'1'
sbsg674
S'-'
sbasbasbsba(idelphi
DelphiIfStatement
p3037
(dp3038
g380
(idelphi
DelphiAddOp
p3039
(dp3040
g432
g486
sg433
(idelphi
DelphiNestedExpressionListAccess
p3041
(dp3042
g300
(lp3043
sg387
(lp3044
(idelphi
DelphiRelOp
p3045
(dp3046
g504
(i__main__
DelphiIdentAccess
p3047
(dp3048
g15
S'oldChoice'
p3049
sg300
(lp3050
sbsg509
(i__main__
DelphiIdentAccess
p3051
(dp3052
g15
S'currentChoice'
p3053
sg300
(lp3054
sbsg512
g733
sbasbsg436
(idelphi
DelphiNot
p3055
(dp3056
g406
(i__main__
DelphiIdentAccess
p3057
(dp3058
g15
S'hasRadioButtons'
p3059
sg300
(lp3060
sbsbsbsg414
Nsg427
(idelphi
DelphiCompoundStatement
p3061
(dp3062
g376
(lp3063
(i__main__
DelphiAssignStatement
p3064
(dp3065
g417
Nsg422
(i__main__
DelphiIdentAccess
p3066
(dp3067
g15
S'updateDisplay'
p3068
sg300
(lp3069
sbsba(i__main__
DelphiAssignStatement
p3070
(dp3071
g417
Nsg422
(i__main__
DelphiIdentAccess
p3072
(dp3073
g15
S'invalidate'
p3074
sg300
(lp3075
sbsbasbsbasbsg454
(lp3076
(i__main__
DelphiVarSection
p3077
(dp3078
g30
I0
sg682
(lp3079
(idelphi
DelphiVarDecl
p3080
(dp3081
g11
Nsg686
(lp3082
S'oldChoice'
p3083
asg17
(i__main__
DelphiPrimitiveType
p3084
(dp3085
g20
g61
sbsbasbasbsbsS'setnewvalue'
p3086
(i__main__
DelphiMethodImplementation
p3087
(dp3088
g354
g265
sg47
g267
sg55
(lp3089
(i__main__
DelphiFormalParameter
p3090
(dp3091
g85
Nsg86
(lp3092
g272
asg17
(i__main__
DelphiPrimitiveType
p3093
(dp3094
g20
g61
sbsg91
Nsbasg356
(lp3095
sg358
(lp3096
sg360
(lp3097
g362
ag272
asg363
(dp3098
g272
g3093
ssg57
S'PdListParameterPanel'
p3099
sg58
Nsg368
(lp3100
sg62
I0
sg63
g70
sg370
(i__main__
DelphiBlock
p3101
(dp3102
g373
(idelphi
DelphiCompoundStatement
p3103
(dp3104
g376
(lp3105
(idelphi
DelphiIfStatement
p3106
(dp3107
g380
(i__main__
DelphiIdentAccess
p3108
(dp3109
g15
S'hasRadioButtons'
p3110
sg300
(lp3111
sbsg414
(idelphi
DelphiCompoundStatement
p3112
(dp3113
g376
(lp3114
(i__main__
DelphiAssignStatement
p3115
(dp3116
g417
(idelphi
DelphiNot
p3117
(dp3118
g406
(i__main__
DelphiIdentAccess
p3119
(dp3120
g15
S'choiceChecks'
p3121
sg300
(lp3122
(idelphi
DelphiArrayEndAccess
p3123
(dp3124
g387
(lp3125
(i__main__
DelphiIdentAccess
p3126
(dp3127
g15
g272
sg300
(lp3128
sbasbasbsbsg422
(i__main__
DelphiIdentAccess
p3129
(dp3130
g15
S'choiceChecks'
p3131
sg300
(lp3132
(idelphi
DelphiArrayEndAccess
p3133
(dp3134
g387
(lp3135
(i__main__
DelphiIdentAccess
p3136
(dp3137
g15
g272
sg300
(lp3138
sbasbasbsba(i__main__
DelphiAssignStatement
p3139
(dp3140
g417
Nsg422
(i__main__
DelphiIdentAccess
p3141
(dp3142
g15
S'MainForm'
p3143
sg300
(lp3144
(idelphi
DelphiFieldEndAccess
p3145
(dp3146
g395
S'doCommand'
p3147
sba(idelphi
DelphiFunctionEndAccess
p3148
(dp3149
g387
(lp3150
(i__main__
DelphiIdentAccess
p3151
(dp3152
g15
S'PdChangeBooleanValueCommand'
p3153
sg300
(lp3154
(idelphi
DelphiFieldEndAccess
p3155
(dp3156
g395
S'createCommandWithListOfPlants'
p3157
sba(idelphi
DelphiFunctionEndAccess
p3158
(dp3159
g387
(lp3160
(i__main__
DelphiIdentAccess
p3161
(dp3162
g15
S'MainForm'
p3163
sg300
(lp3164
(idelphi
DelphiFieldEndAccess
p3165
(dp3166
g395
S'selectedPlants'
p3167
sbasba(i__main__
DelphiIdentAccess
p3168
(dp3169
g15
S'choiceChecks'
p3170
sg300
(lp3171
(idelphi
DelphiArrayEndAccess
p3172
(dp3173
g387
(lp3174
(i__main__
DelphiIdentAccess
p3175
(dp3176
g15
g272
sg300
(lp3177
sbasbasba(i__main__
DelphiIdentAccess
p3178
(dp3179
g15
S'param'
p3180
sg300
(lp3181
(idelphi
DelphiFieldEndAccess
p3182
(dp3183
g395
S'fieldNumber'
p3184
sbasba(i__main__
DelphiIdentAccess
p3185
(dp3186
g15
g272
sg300
(lp3187
sba(i__main__
DelphiIdentAccess
p3188
(dp3189
g15
S'param'
p3190
sg300
(lp3191
(idelphi
DelphiFieldEndAccess
p3192
(dp3193
g395
S'regrow'
p3194
sbasbasbasbasbasbsbasbsg427
(idelphi
DelphiCompoundStatement
p3195
(dp3196
g376
(lp3197
(i__main__
DelphiAssignStatement
p3198
(dp3199
g417
(i__main__
DelphiIdentAccess
p3200
(dp3201
g15
g272
sg300
(lp3202
sbsg422
(i__main__
DelphiIdentAccess
p3203
(dp3204
g15
S'currentChoice'
p3205
sg300
(lp3206
sbsba(i__main__
DelphiAssignStatement
p3207
(dp3208
g417
Nsg422
(i__main__
DelphiIdentAccess
p3209
(dp3210
g15
S'MainForm'
p3211
sg300
(lp3212
(idelphi
DelphiFieldEndAccess
p3213
(dp3214
g395
S'doCommand'
p3215
sba(idelphi
DelphiFunctionEndAccess
p3216
(dp3217
g387
(lp3218
(i__main__
DelphiIdentAccess
p3219
(dp3220
g15
S'PdChangeSmallintValueCommand'
p3221
sg300
(lp3222
(idelphi
DelphiFieldEndAccess
p3223
(dp3224
g395
S'createCommandWithListOfPlants'
p3225
sba(idelphi
DelphiFunctionEndAccess
p3226
(dp3227
g387
(lp3228
(i__main__
DelphiIdentAccess
p3229
(dp3230
g15
S'MainForm'
p3231
sg300
(lp3232
(idelphi
DelphiFieldEndAccess
p3233
(dp3234
g395
S'selectedPlants'
p3235
sbasba(i__main__
DelphiIdentAccess
p3236
(dp3237
g15
S'currentChoice'
p3238
sg300
(lp3239
sba(i__main__
DelphiIdentAccess
p3240
(dp3241
g15
S'param'
p3242
sg300
(lp3243
(idelphi
DelphiFieldEndAccess
p3244
(dp3245
g395
S'fieldNumber'
p3246
sbasba(i__main__
DelphiIdentAccess
p3247
(dp3248
g15
S'kNotArray'
p3249
sg300
(lp3250
sba(i__main__
DelphiIdentAccess
p3251
(dp3252
g15
S'param'
p3253
sg300
(lp3254
(idelphi
DelphiFieldEndAccess
p3255
(dp3256
g395
S'regrow'
p3257
sbasbasbasbasbasbsbasbsbasbsg454
(lp3258
sbsbssS'propertyDeclarations'
p3259
(dp3260
sS'variableNamesInDeclaredOrder'
p3261
(lp3262
g42
ag46
ag36
ag38
ag40
ag44
asbasS'includedUnits'
p3263
NsS'implementationUses'
p3264
(lp3265
S'SysUtils'
p3266
aS'Dialogs'
p3267
aS'Forms'
p3268
aS'umain'
p3269
aS'updcom'
p3270
aS'umath'
p3271
aS'uunits'
p3272
aS'usupport'
p3273
aS'udomain'
p3274
aS'udebug'
p3275
asg47
S'upp_lis'
p3276
sS'constSections'
p3277
(lp3278
g5
asS'globalsInProperCase'
p3279
NsS'interfaceUses'
p3280
(lp3281
S'delphi_compatability'
p3282
aS'ExtCtrls'
p3283
aS'Classes'
p3284
aS'StdCtrls'
p3285
aS'Controls'
p3286
aS'WinTypes'
p3287
aS'Graphics'
p3288
aS'WinProcs'
p3289
aS'Messages'
p3290
aS'uplant'
p3291
aS'uparams'
p3292
aS'uppanel'
p3293
asS'finalCommentToken'
p3294
(i__main__
PassStatement
p3295
(dp3296
g454
(lp3297
sbsS'varSections'
p3298
(lp3299
sS'globals'
p3300
NsS'originalFileName'
p3301
S'../../PlantStudioInPython/converted_source/upp_lis.pas'
p3302
sS'proceduralImplementations'
p3303
(dp3304
sS'fileName'
p3305
S'/Users/pdf/Documents/workspace/PlantStudioInPython/converted_source/upp_lis.pas'
p3306
sS'proceduralDeclarations'
p3307
(dp3308
sS'types'
p3309
(dp3310
S'pdlistparameterpanel'
p3311
g31
ssb.