(i__main__
DelphiUnit
p1
(dp2
S'sectionsInOrderDefined'
p3
(lp4
(i__main__
DelphiConstSection
p5
(dp6
S'constDeclList'
p7
(lp8
(idelphi
DelphiConstDeclaration
p9
(dp10
S'constExpression'
p11
(idelphi
DelphiIntegerValue
p12
(dp13
S'string'
p14
S'3'
sbsS'ident'
p15
S'kBetweenGap'
p16
sS'theType'
p17
(idelphi
DelphiPrimitiveType
p18
(dp19
S'typeName'
p20
S'UNDEFINED_NEEDS_CALCULATION'
p21
sbsba(idelphi
DelphiConstDeclaration
p22
(dp23
g11
(idelphi
DelphiIntegerValue
p24
(dp25
g14
S'4'
sbsg15
S'kTopBottomGap'
p26
sg17
(idelphi
DelphiPrimitiveType
p27
(dp28
g20
g21
sbsba(idelphi
DelphiConstDeclaration
p29
(dp30
g11
(idelphi
DelphiIntegerValue
p31
(dp32
g14
S'6'
sbsg15
S'kLeftRightGap'
p33
sg17
(idelphi
DelphiPrimitiveType
p34
(dp35
g20
g21
sbsba(idelphi
DelphiConstDeclaration
p36
(dp37
g11
(idelphi
DelphiIntegerValue
p38
(dp39
g14
S'10'
p40
sbsg15
S'kRadioButtonLeftGap'
p41
sg17
(idelphi
DelphiPrimitiveType
p42
(dp43
g20
g21
sbsba(idelphi
DelphiConstDeclaration
p44
(dp45
g11
(idelphi
DelphiIntegerValue
p46
(dp47
g14
S'10'
p48
sbsg15
S'kRadioButtonWidth'
p49
sg17
(idelphi
DelphiPrimitiveType
p50
(dp51
g20
g21
sbsba(idelphi
DelphiConstDeclaration
p52
(dp53
g11
(idelphi
DelphiIntegerValue
p54
(dp55
g14
S'10'
p56
sbsg15
S'kRadioButtonBetweenGap'
p57
sg17
(idelphi
DelphiPrimitiveType
p58
(dp59
g20
g21
sbsba(idelphi
DelphiConstDeclaration
p60
(dp61
g11
(idelphi
DelphiIntegerValue
p62
(dp63
g14
S'5'
sbsg15
S'kRadioButtonBeforeTextGap'
p64
sg17
(idelphi
DelphiPrimitiveType
p65
(dp66
g20
g21
sbsba(idelphi
DelphiConstDeclaration
p67
(dp68
g11
(idelphi
DelphiIntegerValue
p69
(dp70
g14
S'10'
p71
sbsg15
S'kSliderSpaceGap'
p72
sg17
(idelphi
DelphiPrimitiveType
p73
(dp74
g20
g21
sbsba(idelphi
DelphiConstDeclaration
p75
(dp76
g11
(idelphi
DelphiIntegerValue
p77
(dp78
g14
S'100'
p79
sbsg15
S'kEditMaxWidth'
p80
sg17
(idelphi
DelphiPrimitiveType
p81
(dp82
g20
g21
sbsba(idelphi
DelphiConstDeclaration
p83
(dp84
g11
(idelphi
DelphiIntegerValue
p85
(dp86
g14
S'50'
p87
sbsg15
S'kEditMinWidth'
p88
sg17
(idelphi
DelphiPrimitiveType
p89
(dp90
g20
g21
sbsba(idelphi
DelphiConstDeclaration
p91
(dp92
g11
(idelphi
DelphiStringAccess
p93
(dp94
S'endAccessList'
p95
(lp96
sg14
(idelphi
DelphiStringValue
p97
(dp98
g14
S'(not selected)'
p99
sbsbsg15
S'kNotSelectedString'
p100
sg17
(idelphi
DelphiPrimitiveType
p101
(dp102
g20
g21
sbsba(idelphi
DelphiConstDeclaration
p103
(dp104
g11
(idelphi
DelphiIntegerValue
p105
(dp106
g14
S'100'
p107
sbsg15
S'kGraphHeight'
p108
sg17
(idelphi
DelphiPrimitiveType
p109
(dp110
g20
g21
sbsba(idelphi
DelphiConstDeclaration
p111
(dp112
g11
(idelphi
DelphiIntegerValue
p113
(dp114
g14
S'7'
sbsg15
S'kMaxDisplayDigitsToLeftOfDecimal'
p115
sg17
(idelphi
DelphiPrimitiveType
p116
(dp117
g20
g21
sbsba(idelphi
DelphiConstDeclaration
p118
(dp119
g11
(idelphi
DelphiIntegerValue
p120
(dp121
g14
S'6'
sbsg15
S'kMaxDisplayDigitsToRightOfDecimal'
p122
sg17
(idelphi
DelphiPrimitiveType
p123
(dp124
g20
g21
sbsba(idelphi
DelphiConstDeclaration
p125
(dp126
g11
(idelphi
DelphiIntegerValue
p127
(dp128
g14
S'9'
sbsg15
S'kMaxDisplayDigits'
p129
sg17
(idelphi
DelphiPrimitiveType
p130
(dp131
g20
g21
sbsba(idelphi
DelphiConstDeclaration
p132
(dp133
g11
(idelphi
DelphiIntegerValue
p134
(dp135
g14
S'13'
p136
sbsg15
S'kArrowPictureSize'
p137
sg17
(idelphi
DelphiPrimitiveType
p138
(dp139
g20
g21
sbsba(idelphi
DelphiConstDeclaration
p140
(dp141
g11
(idelphi
DelphiIntegerValue
p142
(dp143
g14
S'0'
sbsg15
S'kOverridePictureSize'
p144
sg17
(idelphi
DelphiPrimitiveType
p145
(dp146
g20
g21
sbsba(idelphi
DelphiConstDeclaration
p147
(dp148
g11
(idelphi
DelphiSignedValue
p149
(dp150
S'value'
p151
(idelphi
DelphiIntegerValue
p152
(dp153
g14
S'1'
sbsS'sign'
p154
S'-'
sbsg15
S'kItemNone'
p155
sg17
(idelphi
DelphiPrimitiveType
p156
(dp157
g20
g21
sbsba(idelphi
DelphiConstDeclaration
p158
(dp159
g11
(idelphi
DelphiIntegerValue
p160
(dp161
g14
S'0'
sbsg15
S'kItemLabel'
p162
sg17
(idelphi
DelphiPrimitiveType
p163
(dp164
g20
g21
sbsbasS'atTopLevel'
p165
I1
sba(i__main__
DelphiClass
p166
(dp167
S'variableNamesInProperCase'
p168
(dp169
S'textheight'
p170
S'textHeight'
p171
sS'selecteditemindex'
p172
S'selectedItemIndex'
p173
sS'labelwidth'
p174
S'labelWidth'
p175
sS'longestlabelwordwidth'
p176
S'longestLabelWordWidth'
p177
sS'overriderect'
p178
S'overrideRect'
p179
sS'plant'
p180
S'plant'
p181
sS'param'
p182
S'param'
p183
sS'readonly'
p184
S'readOnly'
p185
sS'wrappedlabelheight'
p186
S'wrappedLabelHeight'
p187
sS'picturerect'
p188
S'pictureRect'
p189
sS'labelrect'
p190
S'labelRect'
p191
ssS'name'
p192
S'PdParameterPanel'
p193
sS'methodDeclarations'
p194
(dp195
S'updateenabling'
p196
(i__main__
DelphiMethodDeclaration
p197
(dp198
g192
S'updateEnabling'
p199
sS'formalParameters'
p200
(lp201
sS'className'
p202
g193
sS'resultType'
p203
NsS'isClassMethod'
p204
I0
sS'methodType'
p205
S'procedure'
p206
sbsS'drawtextlabel'
p207
(i__main__
DelphiMethodDeclaration
p208
(dp209
g192
S'drawTextLabel'
p210
sg200
(lp211
(i__main__
DelphiFormalParameter
p212
(dp213
S'initialValue'
p214
NsS'names'
p215
(lp216
S'text'
p217
asg17
(i__main__
DelphiPrimitiveType
p218
(dp219
g20
g14
sbsS'parameterVariety'
p220
Nsba(i__main__
DelphiFormalParameter
p221
(dp222
g214
Nsg215
(lp223
S'drawRect'
p224
asg17
(i__main__
DelphiNamedType
p225
(dp226
g20
S'TRect'
p227
sS'unitDefinedIn'
p228
g1
sS'unitName'
p229
Nsbsg220
Nsba(i__main__
DelphiFormalParameter
p230
(dp231
g214
Nsg215
(lp232
S'drawBox'
p233
asg17
(i__main__
DelphiPrimitiveType
p234
(dp235
g20
S'boolean'
p236
sbsg220
Nsbasg202
g193
sg203
Nsg204
I0
sg205
g206
sbsS'updatefromupdateeventlist'
p237
(i__main__
DelphiMethodDeclaration
p238
(dp239
g192
S'updateFromUpdateEventList'
p240
sg200
(lp241
(i__main__
DelphiFormalParameter
p242
(dp243
g214
Nsg215
(lp244
S'updateList'
p245
asg17
(i__main__
DelphiNamedType
p246
(dp247
g20
S'TListCollection'
p248
sg228
g1
sg229
Nsbsg220
Nsbasg202
g193
sg203
Nsg204
I0
sg205
g206
sbsS'minscalewidthwithoutbounds'
p249
(i__main__
DelphiMethodDeclaration
p250
(dp251
g192
S'minScaleWidthWithoutBounds'
p252
sg200
(lp253
(i__main__
DelphiFormalParameter
p254
(dp255
g214
Nsg215
(lp256
S'unitSet'
p257
aS'unitPlant'
p258
asg17
(i__main__
DelphiPrimitiveType
p259
(dp260
g20
S'integer'
p261
sbsg220
Nsbasg202
g193
sg203
(i__main__
DelphiPrimitiveType
p262
(dp263
g20
g261
sbsg204
I0
sg205
S'function'
p264
sbsS'updatedisplay'
p265
(i__main__
DelphiMethodDeclaration
p266
(dp267
g192
S'updateDisplay'
p268
sg200
(lp269
sg202
g193
sg203
Nsg204
I0
sg205
g206
sbsS'minwidth'
p270
(i__main__
DelphiMethodDeclaration
p271
(dp272
g192
S'minWidth'
p273
sg200
(lp274
(i__main__
DelphiFormalParameter
p275
(dp276
g214
Nsg215
(lp277
S'requestedWidth'
p278
asg17
(i__main__
DelphiPrimitiveType
p279
(dp280
g20
g261
sbsg220
Nsbasg202
g193
sg203
(i__main__
DelphiPrimitiveType
p281
(dp282
g20
g261
sbsg204
I0
sg205
g264
sbsS'formtextheight'
p283
(i__main__
DelphiMethodDeclaration
p284
(dp285
g192
S'formTextHeight'
p286
sg200
(lp287
sg202
g193
sg203
(i__main__
DelphiPrimitiveType
p288
(dp289
g20
S'longint'
p290
sbsg204
I0
sg205
g264
sbsS'domousemove'
p291
(i__main__
DelphiMethodDeclaration
p292
(dp293
g192
S'doMouseMove'
p294
sg200
(lp295
(i__main__
DelphiFormalParameter
p296
(dp297
g214
Nsg215
(lp298
S'Sender'
p299
asg17
(i__main__
DelphiNamedType
p300
(dp301
g20
S'TObject'
p302
sg228
g1
sg229
Nsbsg220
Nsba(i__main__
DelphiFormalParameter
p303
(dp304
g214
Nsg215
(lp305
S'Shift'
p306
asg17
(i__main__
DelphiNamedType
p307
(dp308
g20
S'TShiftState'
p309
sg228
g1
sg229
Nsbsg220
Nsba(i__main__
DelphiFormalParameter
p310
(dp311
g214
Nsg215
(lp312
S'X'
aS'Y'
asg17
(i__main__
DelphiPrimitiveType
p313
(dp314
g20
g261
sbsg220
Nsbasg202
g193
sg203
Nsg204
I0
sg205
g206
sbsS'domouseup'
p315
(i__main__
DelphiMethodDeclaration
p316
(dp317
g192
S'doMouseUp'
p318
sg200
(lp319
(i__main__
DelphiFormalParameter
p320
(dp321
g214
Nsg215
(lp322
S'Sender'
p323
asg17
(i__main__
DelphiNamedType
p324
(dp325
g20
S'TObject'
p326
sg228
g1
sg229
Nsbsg220
Nsba(i__main__
DelphiFormalParameter
p327
(dp328
g214
Nsg215
(lp329
S'Button'
p330
asg17
(i__main__
DelphiNamedType
p331
(dp332
g20
S'TMouseButton'
p333
sg228
g1
sg229
Nsbsg220
Nsba(i__main__
DelphiFormalParameter
p334
(dp335
g214
Nsg215
(lp336
S'Shift'
p337
asg17
(i__main__
DelphiNamedType
p338
(dp339
g20
S'TShiftState'
p340
sg228
g1
sg229
Nsbsg220
Nsba(i__main__
DelphiFormalParameter
p341
(dp342
g214
Nsg215
(lp343
S'X'
aS'Y'
asg17
(i__main__
DelphiPrimitiveType
p344
(dp345
g20
g261
sbsg220
Nsbasg202
g193
sg203
Nsg204
I0
sg205
g206
sbsS'wmgetdlgcode'
p346
(i__main__
DelphiMethodDeclaration
p347
(dp348
g192
S'WMGetDlgCode'
p349
sg200
(lp350
(i__main__
DelphiFormalParameter
p351
(dp352
g214
Nsg215
(lp353
S'message'
p354
asg17
(i__main__
DelphiNamedType
p355
(dp356
g20
S'TWMGetDlgCode'
p357
sg228
g1
sg229
Nsbsg220
S'var'
p358
sbasg202
g193
sg203
Nsg204
I0
sg205
g206
sbsS'collapsedheight'
p359
(i__main__
DelphiMethodDeclaration
p360
(dp361
g192
S'collapsedHeight'
p362
sg200
(lp363
sg202
g193
sg203
(i__main__
DelphiPrimitiveType
p364
(dp365
g20
g261
sbsg204
I0
sg205
g264
sbsS'calculatetextdimensions'
p366
(i__main__
DelphiMethodDeclaration
p367
(dp368
g192
S'calculateTextDimensions'
p369
sg200
(lp370
sg202
g193
sg203
Nsg204
I0
sg205
g206
sbsS'createforparameter'
p371
(i__main__
DelphiMethodDeclaration
p372
(dp373
g192
S'createForParameter'
p374
sg200
(lp375
(i__main__
DelphiFormalParameter
p376
(dp377
g214
Nsg215
(lp378
S'anOwner'
p379
asg17
(i__main__
DelphiNamedType
p380
(dp381
g20
S'TComponent'
p382
sg228
g1
sg229
Nsbsg220
Nsba(i__main__
DelphiFormalParameter
p383
(dp384
g214
Nsg215
(lp385
S'aParameter'
p386
asg17
(i__main__
DelphiNamedType
p387
(dp388
g20
S'PdParameter'
p389
sg228
g1
sg229
Nsbsg220
Nsbasg202
g193
sg203
Nsg204
I0
sg205
S'constructor'
p390
sbsS'maxwidth'
p391
(i__main__
DelphiMethodDeclaration
p392
(dp393
g192
S'maxWidth'
p394
sg200
(lp395
sg202
g193
sg203
(i__main__
DelphiPrimitiveType
p396
(dp397
g20
g261
sbsg204
I0
sg205
g264
sbsS'create'
p398
(i__main__
DelphiMethodDeclaration
p399
(dp400
g192
S'create'
p401
sg200
(lp402
(i__main__
DelphiFormalParameter
p403
(dp404
g214
Nsg215
(lp405
S'anOwner'
p406
asg17
(i__main__
DelphiNamedType
p407
(dp408
g20
S'TComponent'
p409
sg228
g1
sg229
Nsbsg220
Nsbasg202
g193
sg203
Nsg204
I0
sg205
g390
sbsS'dokeydown'
p410
(i__main__
DelphiMethodDeclaration
p411
(dp412
g192
S'doKeyDown'
p413
sg200
(lp414
(i__main__
DelphiFormalParameter
p415
(dp416
g214
Nsg215
(lp417
S'sender'
p418
asg17
(i__main__
DelphiNamedType
p419
(dp420
g20
S'TObject'
p421
sg228
g1
sg229
Nsbsg220
Nsba(i__main__
DelphiFormalParameter
p422
(dp423
g214
Nsg215
(lp424
S'key'
p425
asg17
(i__main__
DelphiPrimitiveType
p426
(dp427
g20
S'word'
p428
sbsg220
g358
sba(i__main__
DelphiFormalParameter
p429
(dp430
g214
Nsg215
(lp431
S'shift'
p432
asg17
(i__main__
DelphiNamedType
p433
(dp434
g20
S'TShiftState'
p435
sg228
g1
sg229
Nsbsg220
Nsbasg202
g193
sg203
Nsg204
I0
sg205
g206
sbsS'paint'
p436
(i__main__
DelphiMethodDeclaration
p437
(dp438
g192
S'paint'
p439
sg200
(lp440
sg202
g193
sg203
Nsg204
I0
sg205
g206
sbsS'calculateheight'
p441
(i__main__
DelphiMethodDeclaration
p442
(dp443
g192
S'calculateHeight'
p444
sg200
(lp445
sg202
g193
sg203
Nsg204
I0
sg205
g206
sbsS'drawextravaluecaptionwithstring'
p446
(i__main__
DelphiMethodDeclaration
p447
(dp448
g192
S'drawExtraValueCaptionWithString'
p449
sg200
(lp450
(i__main__
DelphiFormalParameter
p451
(dp452
g214
Nsg215
(lp453
S'valueString'
p454
aS'unitString'
p455
asg17
(i__main__
DelphiPrimitiveType
p456
(dp457
g20
g14
sbsg220
Nsbasg202
g193
sg203
Nsg204
I0
sg205
g206
sbsS'drawtextselectedbox'
p458
(i__main__
DelphiMethodDeclaration
p459
(dp460
g192
S'drawTextSelectedBox'
p461
sg200
(lp462
(i__main__
DelphiFormalParameter
p463
(dp464
g214
Nsg215
(lp465
S'rect'
p466
asg17
(i__main__
DelphiNamedType
p467
(dp468
g20
S'TRect'
p469
sg228
g1
sg229
Nsbsg220
Nsbasg202
g193
sg203
Nsg204
I0
sg205
g206
sbsS'collapseorexpand'
p470
(i__main__
DelphiMethodDeclaration
p471
(dp472
g192
S'collapseOrExpand'
p473
sg200
(lp474
(i__main__
DelphiFormalParameter
p475
(dp476
g214
Nsg215
(lp477
S'y'
asg17
(i__main__
DelphiPrimitiveType
p478
(dp479
g20
g261
sbsg220
Nsbasg202
g193
sg203
Nsg204
I0
sg205
g206
sbsS'doonenter'
p480
(i__main__
DelphiMethodDeclaration
p481
(dp482
g192
S'doOnEnter'
p483
sg200
(lp484
(i__main__
DelphiFormalParameter
p485
(dp486
g214
Nsg215
(lp487
S'sender'
p488
asg17
(i__main__
DelphiNamedType
p489
(dp490
g20
S'TObject'
p491
sg228
g1
sg229
Nsbsg220
Nsbasg202
g193
sg203
Nsg204
I0
sg205
g206
sbsS'formtextwidth'
p492
(i__main__
DelphiMethodDeclaration
p493
(dp494
g192
S'formTextWidth'
p495
sg200
(lp496
(i__main__
DelphiFormalParameter
p497
(dp498
g214
Nsg215
(lp499
S'aString'
p500
asg17
(i__main__
DelphiPrimitiveType
p501
(dp502
g20
g14
sbsg220
Nsbasg202
g193
sg203
(i__main__
DelphiPrimitiveType
p503
(dp504
g20
g290
sbsg204
I0
sg205
g264
sbsS'calculatelongestlabelwordwidth'
p505
(i__main__
DelphiMethodDeclaration
p506
(dp507
g192
S'calculateLongestLabelWordWidth'
p508
sg200
(lp509
sg202
g193
sg203
(i__main__
DelphiPrimitiveType
p510
(dp511
g20
g261
sbsg204
I0
sg205
g264
sbsS'doonexit'
p512
(i__main__
DelphiMethodDeclaration
p513
(dp514
g192
S'doOnExit'
p515
sg200
(lp516
(i__main__
DelphiFormalParameter
p517
(dp518
g214
Nsg215
(lp519
S'sender'
p520
asg17
(i__main__
DelphiNamedType
p521
(dp522
g20
S'TObject'
p523
sg228
g1
sg229
Nsbsg220
Nsbasg202
g193
sg203
Nsg204
I0
sg205
g206
sbsS'collapse'
p524
(i__main__
DelphiMethodDeclaration
p525
(dp526
g192
S'collapse'
p527
sg200
(lp528
sg202
g193
sg203
Nsg204
I0
sg205
g206
sbsS'tabthroughitems'
p529
(i__main__
DelphiMethodDeclaration
p530
(dp531
g192
S'tabThroughItems'
p532
sg200
(lp533
(i__main__
DelphiFormalParameter
p534
(dp535
g214
Nsg215
(lp536
S'goForward'
p537
asg17
(i__main__
DelphiPrimitiveType
p538
(dp539
g20
g236
sbsg220
Nsbasg202
g193
sg203
Nsg204
I0
sg205
g206
sbsS'drawtext'
p540
(i__main__
DelphiMethodDeclaration
p541
(dp542
g192
S'drawText'
p543
sg200
(lp544
(i__main__
DelphiFormalParameter
p545
(dp546
g214
Nsg215
(lp547
S'text'
p548
asg17
(i__main__
DelphiPrimitiveType
p549
(dp550
g20
g14
sbsg220
Nsba(i__main__
DelphiFormalParameter
p551
(dp552
g214
Nsg215
(lp553
S'drawRect'
p554
asg17
(i__main__
DelphiNamedType
p555
(dp556
g20
S'TRect'
p557
sg228
g1
sg229
Nsbsg220
Nsba(i__main__
DelphiFormalParameter
p558
(dp559
g214
Nsg215
(lp560
S'isSelectable'
p561
aS'isSelected'
p562
aS'italicize'
p563
asg17
(i__main__
DelphiPrimitiveType
p564
(dp565
g20
g236
sbsg220
Nsbasg202
g193
sg203
(i__main__
DelphiPrimitiveType
p566
(dp567
g20
g261
sbsg204
I0
sg205
g264
sbsS'fillwithbevels'
p568
(i__main__
DelphiMethodDeclaration
p569
(dp570
g192
S'fillWithBevels'
p571
sg200
(lp572
sg202
g193
sg203
Nsg204
I0
sg205
g206
sbsS'initialize'
p573
(i__main__
DelphiMethodDeclaration
p574
(dp575
g192
S'initialize'
p576
sg200
(lp577
sg202
g193
sg203
Nsg204
I0
sg205
g206
sbsS'resizeelements'
p578
(i__main__
DelphiMethodDeclaration
p579
(dp580
g192
S'resizeElements'
p581
sg200
(lp582
sg202
g193
sg203
Nsg204
I0
sg205
g206
sbsS'expand'
p583
(i__main__
DelphiMethodDeclaration
p584
(dp585
g192
S'expand'
p586
sg200
(lp587
sg202
g193
sg203
Nsg204
I0
sg205
g206
sbsS'nextselecteditemindex'
p588
(i__main__
DelphiMethodDeclaration
p589
(dp590
g192
S'nextSelectedItemIndex'
p591
sg200
(lp592
(i__main__
DelphiFormalParameter
p593
(dp594
g214
Nsg215
(lp595
S'goForward'
p596
asg17
(i__main__
DelphiPrimitiveType
p597
(dp598
g20
g236
sbsg220
Nsbasg202
g193
sg203
(i__main__
DelphiPrimitiveType
p599
(dp600
g20
g261
sbsg204
I0
sg205
g264
sbsS'maxselecteditemindex'
p601
(i__main__
DelphiMethodDeclaration
p602
(dp603
g192
S'maxSelectedItemIndex'
p604
sg200
(lp605
sg202
g193
sg203
(i__main__
DelphiPrimitiveType
p606
(dp607
g20
g261
sbsg204
I0
sg205
g264
sbsS'updatecurrentvalue'
p608
(i__main__
DelphiMethodDeclaration
p609
(dp610
g192
S'updateCurrentValue'
p611
sg200
(lp612
(i__main__
DelphiFormalParameter
p613
(dp614
g214
Nsg215
(lp615
S'aFieldIndex'
p616
asg17
(i__main__
DelphiPrimitiveType
p617
(dp618
g20
g261
sbsg220
Nsbasg202
g193
sg203
Nsg204
I0
sg205
g206
sbsS'uncollapsedheight'
p619
(i__main__
DelphiMethodDeclaration
p620
(dp621
g192
S'uncollapsedHeight'
p622
sg200
(lp623
sg202
g193
sg203
(i__main__
DelphiPrimitiveType
p624
(dp625
g20
g261
sbsg204
I0
sg205
g264
sbsS'domousedown'
p626
(i__main__
DelphiMethodDeclaration
p627
(dp628
g192
S'doMouseDown'
p629
sg200
(lp630
(i__main__
DelphiFormalParameter
p631
(dp632
g214
Nsg215
(lp633
S'Sender'
p634
asg17
(i__main__
DelphiNamedType
p635
(dp636
g20
S'TObject'
p637
sg228
g1
sg229
Nsbsg220
Nsba(i__main__
DelphiFormalParameter
p638
(dp639
g214
Nsg215
(lp640
S'Button'
p641
asg17
(i__main__
DelphiNamedType
p642
(dp643
g20
S'TMouseButton'
p644
sg228
g1
sg229
Nsbsg220
Nsba(i__main__
DelphiFormalParameter
p645
(dp646
g214
Nsg215
(lp647
S'Shift'
p648
asg17
(i__main__
DelphiNamedType
p649
(dp650
g20
S'TShiftState'
p651
sg228
g1
sg229
Nsbsg220
Nsba(i__main__
DelphiFormalParameter
p652
(dp653
g214
Nsg215
(lp654
S'X'
aS'Y'
asg17
(i__main__
DelphiPrimitiveType
p655
(dp656
g20
g261
sbsg220
Nsbasg202
g193
sg203
Nsg204
I0
sg205
g206
sbsS'updateplant'
p657
(i__main__
DelphiMethodDeclaration
p658
(dp659
g192
S'updatePlant'
p660
sg200
(lp661
(i__main__
DelphiFormalParameter
p662
(dp663
g214
Nsg215
(lp664
S'newPlant'
p665
asg17
(i__main__
DelphiNamedType
p666
(dp667
g20
S'PdPlant'
p668
sg228
g1
sg229
Nsbsg220
Nsbasg202
g193
sg203
Nsg204
I0
sg205
g206
sbsS'measuretext'
p669
(i__main__
DelphiMethodDeclaration
p670
(dp671
g192
S'measureText'
p672
sg200
(lp673
(i__main__
DelphiFormalParameter
p674
(dp675
g214
Nsg215
(lp676
S'text'
p677
asg17
(i__main__
DelphiPrimitiveType
p678
(dp679
g20
g14
sbsg220
Nsba(i__main__
DelphiFormalParameter
p680
(dp681
g214
Nsg215
(lp682
S'drawRect'
p683
asg17
(i__main__
DelphiNamedType
p684
(dp685
g20
S'TRect'
p686
sg228
g1
sg229
Nsbsg220
Nsbasg202
g193
sg203
(i__main__
DelphiPrimitiveType
p687
(dp688
g20
g261
sbsg204
I0
sg205
g264
sbsS'editheight'
p689
(i__main__
DelphiMethodDeclaration
p690
(dp691
g192
S'editHeight'
p692
sg200
(lp693
sg202
g193
sg203
(i__main__
DelphiPrimitiveType
p694
(dp695
g20
g261
sbsg204
I0
sg205
g264
sbsS'minscalewidthwithbounds'
p696
(i__main__
DelphiMethodDeclaration
p697
(dp698
g192
S'minScaleWidthWithBounds'
p699
sg200
(lp700
(i__main__
DelphiFormalParameter
p701
(dp702
g214
Nsg215
(lp703
S'unitSet'
p704
aS'unitPlant'
p705
asg17
(i__main__
DelphiPrimitiveType
p706
(dp707
g20
g261
sbsg220
Nsba(i__main__
DelphiFormalParameter
p708
(dp709
g214
Nsg215
(lp710
S'softMin'
p711
aS'softMax'
p712
asg17
(i__main__
DelphiPrimitiveType
p713
(dp714
g20
S'single'
p715
sbsg220
Nsbasg202
g193
sg203
(i__main__
DelphiPrimitiveType
p716
(dp717
g20
g261
sbsg204
I0
sg205
g264
sbsS'updateplantvalues'
p718
(i__main__
DelphiMethodDeclaration
p719
(dp720
g192
S'updatePlantValues'
p721
sg200
(lp722
sg202
g193
sg203
Nsg204
I0
sg205
g206
sbssS'superclassNamedTypes'
p723
(lp724
(i__main__
DelphiNamedType
p725
(dp726
g20
S'TPanel'
p727
sg228
g1
sg229
NsbasS'variableNames'
p728
(dp729
S'textheight'
p730
(i__main__
DelphiPrimitiveType
p731
(dp732
g20
g261
sbsS'selecteditemindex'
p733
(i__main__
DelphiPrimitiveType
p734
(dp735
g20
g261
sbsS'labelwidth'
p736
(i__main__
DelphiPrimitiveType
p737
(dp738
g20
g261
sbsS'longestlabelwordwidth'
p739
(i__main__
DelphiPrimitiveType
p740
(dp741
g20
g261
sbsS'overriderect'
p742
(i__main__
DelphiNamedType
p743
(dp744
g20
S'TRect'
p745
sg228
g1
sg229
NsbsS'plant'
p746
(i__main__
DelphiNamedType
p747
(dp748
g20
S'PdPlant'
p749
sg228
g1
sg229
NsbsS'param'
p750
(i__main__
DelphiNamedType
p751
(dp752
g20
S'PdParameter'
p753
sg228
g1
sg229
NsbsS'readonly'
p754
(i__main__
DelphiPrimitiveType
p755
(dp756
g20
g236
sbsS'wrappedlabelheight'
p757
(i__main__
DelphiPrimitiveType
p758
(dp759
g20
g261
sbsS'picturerect'
p760
g743
sS'labelrect'
p761
g743
ssS'methodNamesInDefinedOrder'
p762
(lp763
S'create'
p764
aS'createforparameter'
p765
aS'formtextheight'
p766
aS'formtextwidth'
p767
aS'calculatetextdimensions'
p768
aS'domousedown'
p769
aS'domousemove'
p770
aS'domouseup'
p771
aS'dokeydown'
p772
aS'maxselecteditemindex'
p773
aS'tabthroughitems'
p774
aS'nextselecteditemindex'
p775
aS'wmgetdlgcode'
p776
aS'initialize'
p777
aS'doonenter'
p778
aS'doonexit'
p779
aS'updateplant'
p780
aS'updateplantvalues'
p781
aS'updateenabling'
p782
aS'updatecurrentvalue'
p783
aS'updatefromupdateeventlist'
p784
aS'updatedisplay'
p785
aS'minwidth'
p786
aS'maxwidth'
p787
aS'uncollapsedheight'
p788
aS'resizeelements'
p789
aS'editheight'
p790
aS'calculatelongestlabelwordwidth'
p791
aS'calculateheight'
p792
aS'collapseorexpand'
p793
aS'collapse'
p794
aS'expand'
p795
aS'paint'
p796
aS'drawextravaluecaptionwithstring'
p797
aS'fillwithbevels'
p798
aS'measuretext'
p799
aS'drawtext'
p800
aS'drawtextselectedbox'
p801
aS'drawtextlabel'
p802
aS'collapsedheight'
p803
aS'minscalewidthwithbounds'
p804
aS'minscalewidthwithoutbounds'
p805
asS'methodImplementations'
p806
(dp807
S'updateenabling'
p808
(i__main__
DelphiMethodImplementation
p809
(dp810
S'originalDeclaration'
p811
g197
sg192
g199
sg200
(lp812
sS'varParamIndexes'
p813
(lp814
sS'varParamsSkipped'
p815
(lp816
sS'argNames'
p817
(lp818
S'self'
p819
asS'argTypes'
p820
(dp821
sg202
S'PdParameterPanel'
p822
sg203
NsS'varParamNames'
p823
(lp824
sg204
I0
sg205
g206
sS'block'
p825
(i__main__
DelphiBlock
p826
(dp827
S'compoundStatement'
p828
(idelphi
DelphiCompoundStatement
p829
(dp830
S'statements'
p831
(lp832
(i__main__
DelphiAssignStatement
p833
(dp834
S'newValueExpression'
p835
(idelphi
DelphiNestedExpressionListAccess
p836
(dp837
g95
(lp838
sS'expressionList'
p839
(lp840
(idelphi
DelphiRelOp
p841
(dp842
S'simpleExpression1'
p843
(i__main__
DelphiIdentAccess
p844
(dp845
g15
S'self'
p846
sg95
(lp847
(idelphi
DelphiFieldEndAccess
p848
(dp849
S'field'
p850
S'plant'
p851
sbasbsS'simpleExpression2'
p852
(idelphi
DelphiNilValue
p853
(dp854
bsS'relOp'
p855
S'<>'
p856
sbasbsS'destinationExpression'
p857
(i__main__
DelphiIdentAccess
p858
(dp859
g15
S'self'
p860
sg95
(lp861
(idelphi
DelphiFieldEndAccess
p862
(dp863
g850
S'enabled'
p864
sbasbsS'commentLinesBefore'
p865
(lp866
S' subclasses should call this when they do their enabling '
p867
asbasbsS'limitedDeclSectionList'
p868
(lp869
sbsbsS'drawtextlabel'
p870
(i__main__
DelphiMethodImplementation
p871
(dp872
g811
g208
sg192
g210
sg200
(lp873
(i__main__
DelphiFormalParameter
p874
(dp875
g214
Nsg215
(lp876
S'text'
p877
asg17
(i__main__
DelphiPrimitiveType
p878
(dp879
g20
g14
sbsg220
Nsba(i__main__
DelphiFormalParameter
p880
(dp881
g214
Nsg215
(lp882
S'drawRect'
p883
asg17
(i__main__
DelphiNamedType
p884
(dp885
g20
S'TRect'
p886
sg228
g1
sg229
Nsbsg220
Nsba(i__main__
DelphiFormalParameter
p887
(dp888
g214
Nsg215
(lp889
S'drawBox'
p890
asg17
(i__main__
DelphiPrimitiveType
p891
(dp892
g20
g236
sbsg220
Nsbasg813
(lp893
sg815
(lp894
sg817
(lp895
g819
ag877
ag883
ag890
asg820
(dp896
g883
g884
sg877
g878
sg890
g891
ssg202
S'PdParameterPanel'
p897
sg203
Nsg823
(lp898
sg204
I0
sg205
g206
sg825
(i__main__
DelphiBlock
p899
(dp900
g828
(idelphi
DelphiCompoundStatement
p901
(dp902
g831
(lp903
(idelphi
DelphiWithStatement
p904
(dp905
S'statement'
p906
(idelphi
DelphiCompoundStatement
p907
(dp908
g831
(lp909
(i__main__
DelphiAssignStatement
p910
(dp911
g835
(i__main__
DelphiIdentAccess
p912
(dp913
g15
S'self'
p914
sg95
(lp915
(idelphi
DelphiFieldEndAccess
p916
(dp917
g850
S'font'
p918
sbasbsg857
(i__main__
DelphiIdentAccess
p919
(dp920
g15
S'font'
p921
sg95
(lp922
sbsba(i__main__
DelphiAssignStatement
p923
(dp924
g835
(i__main__
DelphiIdentAccess
p925
(dp926
g15
S'clBtnText'
p927
sg95
(lp928
sbsg857
(i__main__
DelphiIdentAccess
p929
(dp930
g15
S'font'
p931
sg95
(lp932
(idelphi
DelphiFieldEndAccess
p933
(dp934
g850
S'color'
p935
sbasbsba(i__main__
DelphiAssignStatement
p936
(dp937
g835
Nsg857
(i__main__
DelphiIdentAccess
p938
(dp939
g15
S'strPCopy'
p940
sg95
(lp941
(idelphi
DelphiFunctionEndAccess
p942
(dp943
g839
(lp944
(i__main__
DelphiIdentAccess
p945
(dp946
g15
S'cText'
p947
sg95
(lp948
sba(i__main__
DelphiIdentAccess
p949
(dp950
g15
S'text'
p951
sg95
(lp952
sbasbasbsba(i__main__
DelphiAssignStatement
p953
(dp954
g835
Nsg857
(i__main__
DelphiIdentAccess
p955
(dp956
g15
S'winprocs'
p957
sg95
(lp958
(idelphi
DelphiFieldEndAccess
p959
(dp960
g850
S'drawText'
p961
sba(idelphi
DelphiFunctionEndAccess
p962
(dp963
g839
(lp964
(i__main__
DelphiIdentAccess
p965
(dp966
g15
S'handle'
p967
sg95
(lp968
sba(i__main__
DelphiIdentAccess
p969
(dp970
g15
S'cText'
p971
sg95
(lp972
sba(i__main__
DelphiIdentAccess
p973
(dp974
g15
S'strLen'
p975
sg95
(lp976
(idelphi
DelphiFunctionEndAccess
p977
(dp978
g839
(lp979
(i__main__
DelphiIdentAccess
p980
(dp981
g15
S'cText'
p982
sg95
(lp983
sbasbasba(i__main__
DelphiIdentAccess
p984
(dp985
g15
S'drawRect'
p986
sg95
(lp987
sba(idelphi
DelphiAddOp
p988
(dp989
S'addOp'
p990
S'or'
p991
sS'term2'
p992
(i__main__
DelphiIdentAccess
p993
(dp994
g15
S'DT_WORDBREAK'
p995
sg95
(lp996
sbsS'term1'
p997
(i__main__
DelphiIdentAccess
p998
(dp999
g15
S'DT_LEFT'
p1000
sg95
(lp1001
sbsbasbasbsbasbsS'variableReferenceList'
p1002
(lp1003
(i__main__
DelphiIdentAccess
p1004
(dp1005
g15
S'self'
p1006
sg95
(lp1007
(idelphi
DelphiFieldEndAccess
p1008
(dp1009
g850
S'canvas'
p1010
sbasbasba(idelphi
DelphiIfStatement
p1011
(dp1012
S'expression'
p1013
(i__main__
DelphiIdentAccess
p1014
(dp1015
g15
S'drawBox'
p1016
sg95
(lp1017
sbsS'ifFalseStatement'
p1018
NsS'ifTrueStatement'
p1019
(i__main__
DelphiAssignStatement
p1020
(dp1021
g835
Nsg857
(i__main__
DelphiIdentAccess
p1022
(dp1023
g15
S'self'
p1024
sg95
(lp1025
(idelphi
DelphiFieldEndAccess
p1026
(dp1027
g850
S'drawTextSelectedBox'
p1028
sba(idelphi
DelphiFunctionEndAccess
p1029
(dp1030
g839
(lp1031
(i__main__
DelphiIdentAccess
p1032
(dp1033
g15
S'drawRect'
p1034
sg95
(lp1035
sbasbasbsbsbasbsg868
(lp1036
(i__main__
DelphiVarSection
p1037
(dp1038
g165
I0
sS'varDeclList'
p1039
(lp1040
(idelphi
DelphiVarDecl
p1041
(dp1042
g11
NsS'identList'
p1043
(lp1044
S'cText'
p1045
asg17
(i__main__
DelphiArrayType
p1046
(dp1047
g17
(i__main__
DelphiPrimitiveType
p1048
(dp1049
g20
S'char'
p1050
sbsS'sizes'
p1051
(lp1052
(idelphi
DelphiSubrange
p1053
(dp1054
S'high'
p1055
(idelphi
DelphiIntegerValue
p1056
(dp1057
g14
S'255'
p1058
sbsS'low'
p1059
(idelphi
DelphiIntegerValue
p1060
(dp1061
g14
S'0'
sbsg192
S''
sbasbsbasbasbsbsS'updatefromupdateeventlist'
p1062
(i__main__
DelphiMethodImplementation
p1063
(dp1064
g811
g238
sg192
g240
sg200
(lp1065
(i__main__
DelphiFormalParameter
p1066
(dp1067
g214
Nsg215
(lp1068
S'updateList'
p1069
asg17
(i__main__
DelphiNamedType
p1070
(dp1071
g20
S'TListCollection'
p1072
sg228
g1
sg229
Nsbsg220
Nsbasg813
(lp1073
sg815
(lp1074
sg817
(lp1075
g819
ag1069
asg820
(dp1076
g1069
g1070
ssg202
S'PdParameterPanel'
p1077
sg203
Nsg823
(lp1078
sg204
I0
sg205
g206
sg825
(i__main__
DelphiBlock
p1079
(dp1080
g828
(idelphi
DelphiCompoundStatement
p1081
(dp1082
g831
(lp1083
(idelphi
DelphiIfStatement
p1084
(dp1085
g1013
(idelphi
DelphiRelOp
p1086
(dp1087
g843
(i__main__
DelphiIdentAccess
p1088
(dp1089
g15
S'updateList'
p1090
sg95
(lp1091
(idelphi
DelphiFieldEndAccess
p1092
(dp1093
g850
S'count'
p1094
sbasbsg852
(idelphi
DelphiIntegerValue
p1095
(dp1096
g14
S'0'
sbsg855
S'<='
p1097
sbsg1018
Nsg1019
(i__main__
DelphiExitStatement
p1098
(dp1099
S'proceduralOrMethodImplementation'
p1100
g1063
sbsba(idelphi
DelphiIfStatement
p1101
(dp1102
g1013
(idelphi
DelphiRelOp
p1103
(dp1104
g843
(i__main__
DelphiIdentAccess
p1105
(dp1106
g15
S'self'
p1107
sg95
(lp1108
(idelphi
DelphiFieldEndAccess
p1109
(dp1110
g850
S'plant'
p1111
sbasbsg852
(idelphi
DelphiNilValue
p1112
(dp1113
bsg855
S'='
sbsg1018
Nsg1019
(i__main__
DelphiExitStatement
p1114
(dp1115
g1100
g1063
sbsba(i__main__
DelphiAssignStatement
p1116
(dp1117
g835
(i__main__
DelphiIdentAccess
p1118
(dp1119
g15
S'false'
p1120
sg95
(lp1121
sbsg857
(i__main__
DelphiIdentAccess
p1122
(dp1123
g15
S'shouldUpdate'
p1124
sg95
(lp1125
sbsba(i__main__
DelphiAssignStatement
p1126
(dp1127
g835
(idelphi
DelphiNilValue
p1128
(dp1129
bsg857
(i__main__
DelphiIdentAccess
p1130
(dp1131
g15
S'updateEvent'
p1132
sg95
(lp1133
sbsba(idelphi
DelphiForStatement
p1134
(dp1135
S'variable'
p1136
S'i'
sS'finalValue'
p1137
(idelphi
DelphiAddOp
p1138
(dp1139
g990
S'-'
sg992
(idelphi
DelphiIntegerValue
p1140
(dp1141
g14
S'1'
sbsg997
(i__main__
DelphiIdentAccess
p1142
(dp1143
g15
S'updateList'
p1144
sg95
(lp1145
(idelphi
DelphiFieldEndAccess
p1146
(dp1147
g850
S'count'
p1148
sbasbsbsS'direction'
p1149
S'to'
p1150
sg214
(idelphi
DelphiIntegerValue
p1151
(dp1152
g14
S'0'
sbsg906
(idelphi
DelphiCompoundStatement
p1153
(dp1154
g831
(lp1155
(i__main__
DelphiAssignStatement
p1156
(dp1157
g835
(i__main__
DelphiIdentAccess
p1158
(dp1159
g15
S'PdPlantUpdateEvent'
p1160
sg95
(lp1161
(idelphi
DelphiFunctionEndAccess
p1162
(dp1163
g839
(lp1164
(i__main__
DelphiIdentAccess
p1165
(dp1166
g15
S'updateList'
p1167
sg95
(lp1168
(idelphi
DelphiFieldEndAccess
p1169
(dp1170
g850
S'items'
p1171
sba(idelphi
DelphiArrayEndAccess
p1172
(dp1173
g839
(lp1174
(i__main__
DelphiIdentAccess
p1175
(dp1176
g15
S'i'
sg95
(lp1177
sbasbasbasbasbsg857
(i__main__
DelphiIdentAccess
p1178
(dp1179
g15
S'updateEvent'
p1180
sg95
(lp1181
sbsba(idelphi
DelphiIfStatement
p1182
(dp1183
g1013
(idelphi
DelphiRelOp
p1184
(dp1185
g843
(i__main__
DelphiIdentAccess
p1186
(dp1187
g15
S'updateEvent'
p1188
sg95
(lp1189
sbsg852
(idelphi
DelphiNilValue
p1190
(dp1191
bsg855
S'='
sbsg1018
Nsg1019
(idelphi
DelphiContinueStatement
p1192
(dp1193
bsba(idelphi
DelphiIfStatement
p1194
(dp1195
g1013
(idelphi
DelphiRelOp
p1196
(dp1197
g843
(i__main__
DelphiIdentAccess
p1198
(dp1199
g15
S'updateEvent'
p1200
sg95
(lp1201
(idelphi
DelphiFieldEndAccess
p1202
(dp1203
g850
S'plant'
p1204
sbasbsg852
(idelphi
DelphiNilValue
p1205
(dp1206
bsg855
S'='
sbsg1018
Nsg1019
(idelphi
DelphiContinueStatement
p1207
(dp1208
bsba(idelphi
DelphiIfStatement
p1209
(dp1210
g1013
(idelphi
DelphiMulOp
p1211
(dp1212
S'signedFactor2'
p1213
(idelphi
DelphiNestedExpressionListAccess
p1214
(dp1215
g95
(lp1216
sg839
(lp1217
(idelphi
DelphiRelOp
p1218
(dp1219
g843
(i__main__
DelphiIdentAccess
p1220
(dp1221
g15
S'updateEvent'
p1222
sg95
(lp1223
(idelphi
DelphiFieldEndAccess
p1224
(dp1225
g850
S'fieldID'
p1226
sbasbsg852
(i__main__
DelphiIdentAccess
p1227
(dp1228
g15
S'param'
p1229
sg95
(lp1230
(idelphi
DelphiFieldEndAccess
p1231
(dp1232
g850
S'fieldNumber'
p1233
sbasbsg855
S'='
sbasbsS'mulOp'
p1234
S'and'
p1235
sS'signedFactor1'
p1236
(idelphi
DelphiNestedExpressionListAccess
p1237
(dp1238
g95
(lp1239
sg839
(lp1240
(idelphi
DelphiRelOp
p1241
(dp1242
g843
(i__main__
DelphiIdentAccess
p1243
(dp1244
g15
S'updateEvent'
p1245
sg95
(lp1246
(idelphi
DelphiFieldEndAccess
p1247
(dp1248
g850
S'plant'
p1249
sbasbsg852
(i__main__
DelphiIdentAccess
p1250
(dp1251
g15
S'self'
p1252
sg95
(lp1253
(idelphi
DelphiFieldEndAccess
p1254
(dp1255
g850
S'plant'
p1256
sbasbsg855
S'='
sbasbsbsg1018
Nsg1019
(idelphi
DelphiCompoundStatement
p1257
(dp1258
g831
(lp1259
(i__main__
DelphiAssignStatement
p1260
(dp1261
g835
(i__main__
DelphiIdentAccess
p1262
(dp1263
g15
S'true'
p1264
sg95
(lp1265
sbsg857
(i__main__
DelphiIdentAccess
p1266
(dp1267
g15
S'shouldUpdate'
p1268
sg95
(lp1269
sbsba(idelphi
DelphiBreakStatement
p1270
(dp1271
basbsbasbsba(idelphi
DelphiIfStatement
p1272
(dp1273
g1013
(idelphi
DelphiMulOp
p1274
(dp1275
g1213
(idelphi
DelphiNestedExpressionListAccess
p1276
(dp1277
g95
(lp1278
sg839
(lp1279
(idelphi
DelphiRelOp
p1280
(dp1281
g843
(i__main__
DelphiIdentAccess
p1282
(dp1283
g15
S'updateEvent'
p1284
sg95
(lp1285
sbsg852
(idelphi
DelphiNilValue
p1286
(dp1287
bsg855
g856
sbasbsg1234
g1235
sg1236
(i__main__
DelphiIdentAccess
p1288
(dp1289
g15
S'shouldUpdate'
p1290
sg95
(lp1291
sbsbsg1018
Nsg1019
(idelphi
DelphiCompoundStatement
p1292
(dp1293
g831
(lp1294
(i__main__
DelphiAssignStatement
p1295
(dp1296
g835
Nsg857
(i__main__
DelphiIdentAccess
p1297
(dp1298
g15
S'self'
p1299
sg95
(lp1300
(idelphi
DelphiFieldEndAccess
p1301
(dp1302
g850
S'updateCurrentValue'
p1303
sba(idelphi
DelphiFunctionEndAccess
p1304
(dp1305
g839
(lp1306
(i__main__
DelphiIdentAccess
p1307
(dp1308
g15
S'updateEvent'
p1309
sg95
(lp1310
(idelphi
DelphiFieldEndAccess
p1311
(dp1312
g850
S'fieldIndex'
p1313
sbasbasbasbsg865
(lp1314
S' could put check in descendents to only update if value is different from current '
p1315
asba(i__main__
DelphiAssignStatement
p1316
(dp1317
g835
Nsg857
(i__main__
DelphiIdentAccess
p1318
(dp1319
g15
S'self'
p1320
sg95
(lp1321
(idelphi
DelphiFieldEndAccess
p1322
(dp1323
g850
S'updateDisplay'
p1324
sbasbsba(i__main__
DelphiAssignStatement
p1325
(dp1326
g835
Nsg857
(i__main__
DelphiIdentAccess
p1327
(dp1328
g15
S'self'
p1329
sg95
(lp1330
(idelphi
DelphiFieldEndAccess
p1331
(dp1332
g850
S'invalidate'
p1333
sbasbsbasbsbasbsg868
(lp1334
(i__main__
DelphiVarSection
p1335
(dp1336
g165
I0
sg1039
(lp1337
(idelphi
DelphiVarDecl
p1338
(dp1339
g11
Nsg1043
(lp1340
S'i'
asg17
(i__main__
DelphiPrimitiveType
p1341
(dp1342
g20
g290
sbsba(idelphi
DelphiVarDecl
p1343
(dp1344
g11
Nsg1043
(lp1345
S'updateEvent'
p1346
asg17
(i__main__
DelphiNamedType
p1347
(dp1348
g20
S'PdPlantUpdateEvent'
p1349
sg228
g1
sg229
Nsbsba(idelphi
DelphiVarDecl
p1350
(dp1351
g11
Nsg1043
(lp1352
S'shouldUpdate'
p1353
asg17
(i__main__
DelphiPrimitiveType
p1354
(dp1355
g20
g236
sbsbasbasbsbsS'minscalewidthwithoutbounds'
p1356
(i__main__
DelphiMethodImplementation
p1357
(dp1358
g811
g250
sg192
g252
sg200
(lp1359
(i__main__
DelphiFormalParameter
p1360
(dp1361
g214
Nsg215
(lp1362
S'unitSet'
p1363
aS'unitPlant'
p1364
asg17
(i__main__
DelphiPrimitiveType
p1365
(dp1366
g20
g261
sbsg220
Nsbasg813
(lp1367
sg815
(lp1368
sg817
(lp1369
g819
ag1363
ag1364
asg820
(dp1370
g1364
g1365
sg1363
g1365
ssg202
S'PdParameterPanel'
p1371
sg203
(i__main__
DelphiPrimitiveType
p1372
(dp1373
g20
g261
sbsg823
(lp1374
sg204
I0
sg205
g264
sg825
(i__main__
DelphiBlock
p1375
(dp1376
g828
(idelphi
DelphiCompoundStatement
p1377
(dp1378
g831
(lp1379
(i__main__
DelphiAssignStatement
p1380
(dp1381
g835
(i__main__
DelphiIdentAccess
p1382
(dp1383
g15
S'kMaxDisplayDigitsToLeftOfDecimal'
p1384
sg95
(lp1385
sbsg857
(i__main__
DelphiIdentAccess
p1386
(dp1387
g15
S'numeralChars'
p1388
sg95
(lp1389
sbsg865
(lp1390
S' value number of chars (always use max) '
p1391
aS'+ kMaxDisplayDigitsToRightOfDecimal + 1'
p1392
asba(i__main__
DelphiAssignStatement
p1393
(dp1394
g835
(i__main__
DelphiIdentAccess
p1395
(dp1396
g15
S'maxUnitStringLengthForSet'
p1397
sg95
(lp1398
(idelphi
DelphiFunctionEndAccess
p1399
(dp1400
g839
(lp1401
(i__main__
DelphiIdentAccess
p1402
(dp1403
g15
S'unitSet'
p1404
sg95
(lp1405
sbasbasbsg857
(i__main__
DelphiIdentAccess
p1406
(dp1407
g15
S'letterChars'
p1408
sg95
(lp1409
sbsg865
(lp1410
S' unit string number of chars (get max for set) '
p1411
asba(i__main__
DelphiAssignStatement
p1412
(dp1413
g835
(idelphi
DelphiAddOp
p1414
(dp1415
g990
S'+'
sg992
(idelphi
DelphiMulOp
p1416
(dp1417
g1213
(idelphi
DelphiIntegerValue
p1418
(dp1419
g14
S'2'
sbsg1234
S'*'
sg1236
(i__main__
DelphiIdentAccess
p1420
(dp1421
g15
S'kLeftRightGap'
p1422
sg95
(lp1423
sbsbsg997
(idelphi
DelphiAddOp
p1424
(dp1425
g990
S'+'
sg992
(i__main__
DelphiIdentAccess
p1426
(dp1427
g15
S'kBetweenGap'
p1428
sg95
(lp1429
sbsg997
(idelphi
DelphiAddOp
p1430
(dp1431
g990
S'+'
sg992
(idelphi
DelphiMulOp
p1432
(dp1433
g1213
(i__main__
DelphiIdentAccess
p1434
(dp1435
g15
S'numeralChars'
p1436
sg95
(lp1437
sbsg1234
S'*'
sg1236
(i__main__
DelphiIdentAccess
p1438
(dp1439
g15
S'self'
p1440
sg95
(lp1441
(idelphi
DelphiFieldEndAccess
p1442
(dp1443
g850
S'formTextWidth'
p1444
sba(idelphi
DelphiFunctionEndAccess
p1445
(dp1446
g839
(lp1447
(idelphi
DelphiStringAccess
p1448
(dp1449
g95
(lp1450
sg14
(idelphi
DelphiStringValue
p1451
(dp1452
g14
S'1'
sbsbasbasbsbsg997
(idelphi
DelphiMulOp
p1453
(dp1454
g1213
(i__main__
DelphiIdentAccess
p1455
(dp1456
g15
S'letterChars'
p1457
sg95
(lp1458
sbsg1234
S'*'
sg1236
(i__main__
DelphiIdentAccess
p1459
(dp1460
g15
S'self'
p1461
sg95
(lp1462
(idelphi
DelphiFieldEndAccess
p1463
(dp1464
g850
S'formTextWidth'
p1465
sba(idelphi
DelphiFunctionEndAccess
p1466
(dp1467
g839
(lp1468
(idelphi
DelphiStringAccess
p1469
(dp1470
g95
(lp1471
sg14
(idelphi
DelphiStringValue
p1472
(dp1473
g14
S'i'
sbsbasbasbsbsbsbsbsg857
(i__main__
DelphiIdentAccess
p1474
(dp1475
g15
S'result'
p1476
sg95
(lp1477
sbsg865
(lp1478
S' calc min scale width from number of chars '
p1479
asbasbsg868
(lp1480
(i__main__
DelphiVarSection
p1481
(dp1482
g165
I0
sg1039
(lp1483
(idelphi
DelphiVarDecl
p1484
(dp1485
g11
Nsg1043
(lp1486
S'numeralChars'
p1487
aS'letterChars'
p1488
asg17
(i__main__
DelphiPrimitiveType
p1489
(dp1490
g20
g261
sbsbasbasbsbsS'updatedisplay'
p1491
(i__main__
DelphiMethodImplementation
p1492
(dp1493
g811
g266
sg192
g268
sg200
(lp1494
sg813
(lp1495
sg815
(lp1496
sg817
(lp1497
g819
asg820
(dp1498
sg202
S'PdParameterPanel'
p1499
sg203
Nsg823
(lp1500
sg204
I0
sg205
g206
sg825
(i__main__
DelphiBlock
p1501
(dp1502
g828
(idelphi
DelphiCompoundStatement
p1503
(dp1504
g831
Nsg865
(lp1505
S' subclasses should override '
p1506
asbsg868
(lp1507
sbsbsS'minwidth'
p1508
(i__main__
DelphiMethodImplementation
p1509
(dp1510
g811
g271
sg192
g273
sg200
(lp1511
(i__main__
DelphiFormalParameter
p1512
(dp1513
g214
Nsg215
(lp1514
S'requestedWidth'
p1515
asg17
(i__main__
DelphiPrimitiveType
p1516
(dp1517
g20
g261
sbsg220
Nsbasg813
(lp1518
sg815
(lp1519
sg817
(lp1520
g819
ag1515
asg820
(dp1521
g1515
g1516
ssg202
S'PdParameterPanel'
p1522
sg203
(i__main__
DelphiPrimitiveType
p1523
(dp1524
g20
g261
sbsg823
(lp1525
sg204
I0
sg205
g264
sg825
(i__main__
DelphiBlock
p1526
(dp1527
g828
(idelphi
DelphiCompoundStatement
p1528
(dp1529
g831
(lp1530
(i__main__
DelphiAssignStatement
p1531
(dp1532
g835
(idelphi
DelphiIntegerValue
p1533
(dp1534
g14
S'0'
sbsg857
(i__main__
DelphiIdentAccess
p1535
(dp1536
g15
S'result'
p1537
sg95
(lp1538
sbsg865
(lp1539
S' subclasses must override '
p1540
asbasbsg868
(lp1541
sbsbsS'formtextwidth'
p1542
(i__main__
DelphiMethodImplementation
p1543
(dp1544
g811
g493
sg192
g495
sg200
(lp1545
(i__main__
DelphiFormalParameter
p1546
(dp1547
g214
Nsg215
(lp1548
S'aString'
p1549
asg17
(i__main__
DelphiPrimitiveType
p1550
(dp1551
g20
g14
sbsg220
Nsbasg813
(lp1552
sg815
(lp1553
sg817
(lp1554
g819
ag1549
asg820
(dp1555
g1549
g1550
ssg202
S'PdParameterPanel'
p1556
sg203
(i__main__
DelphiPrimitiveType
p1557
(dp1558
g20
g290
sbsg823
(lp1559
sg204
I0
sg205
g264
sg825
(i__main__
DelphiBlock
p1560
(dp1561
g828
(idelphi
DelphiCompoundStatement
p1562
(dp1563
g831
(lp1564
(i__main__
DelphiAssignStatement
p1565
(dp1566
g835
(i__main__
DelphiIdentAccess
p1567
(dp1568
g15
S'getParentForm'
p1569
sg95
(lp1570
(idelphi
DelphiFunctionEndAccess
p1571
(dp1572
g839
(lp1573
(i__main__
DelphiIdentAccess
p1574
(dp1575
g15
S'self'
p1576
sg95
(lp1577
sbasbasbsg857
(i__main__
DelphiIdentAccess
p1578
(dp1579
g15
S'theForm'
p1580
sg95
(lp1581
sbsba(idelphi
DelphiIfStatement
p1582
(dp1583
g1013
(idelphi
DelphiRelOp
p1584
(dp1585
g843
(i__main__
DelphiIdentAccess
p1586
(dp1587
g15
S'theForm'
p1588
sg95
(lp1589
sbsg852
(idelphi
DelphiNilValue
p1590
(dp1591
bsg855
S'='
sbsg1018
(idelphi
DelphiIfStatement
p1592
(dp1593
g1013
(idelphi
DelphiRelOp
p1594
(dp1595
g843
(i__main__
DelphiIdentAccess
p1596
(dp1597
g15
S'theForm'
p1598
sg95
(lp1599
(idelphi
DelphiFieldEndAccess
p1600
(dp1601
g850
S'canvas'
p1602
sbasbsg852
(idelphi
DelphiNilValue
p1603
(dp1604
bsg855
S'='
sbsg1018
(idelphi
DelphiCompoundStatement
p1605
(dp1606
g831
(lp1607
(i__main__
DelphiAssignStatement
p1608
(dp1609
g835
(idelphi
DelphiMulOp
p1610
(dp1611
g1213
(idelphi
DelphiIntegerValue
p1612
(dp1613
g14
S'8'
sbsg1234
S'*'
sg1236
(i__main__
DelphiIdentAccess
p1614
(dp1615
g15
S'length'
p1616
sg95
(lp1617
(idelphi
DelphiFunctionEndAccess
p1618
(dp1619
g839
(lp1620
(i__main__
DelphiIdentAccess
p1621
(dp1622
g15
S'aString'
p1623
sg95
(lp1624
sbasbasbsbsg857
(i__main__
DelphiIdentAccess
p1625
(dp1626
g15
S'result'
p1627
sg95
(lp1628
sbsba(i__main__
DelphiAssignStatement
p1629
(dp1630
g835
(i__main__
DelphiIdentAccess
p1631
(dp1632
g15
S'theForm'
p1633
sg95
(lp1634
(idelphi
DelphiFieldEndAccess
p1635
(dp1636
g850
S'font'
p1637
sbasbsg857
(i__main__
DelphiIdentAccess
p1638
(dp1639
g15
S'theForm'
p1640
sg95
(lp1641
(idelphi
DelphiFieldEndAccess
p1642
(dp1643
g850
S'canvas'
p1644
sba(idelphi
DelphiFieldEndAccess
p1645
(dp1646
g850
S'font'
p1647
sbasbsba(i__main__
DelphiAssignStatement
p1648
(dp1649
g835
(i__main__
DelphiIdentAccess
p1650
(dp1651
g15
S'theForm'
p1652
sg95
(lp1653
(idelphi
DelphiFieldEndAccess
p1654
(dp1655
g850
S'canvas'
p1656
sba(idelphi
DelphiFieldEndAccess
p1657
(dp1658
g850
S'textWidth'
p1659
sba(idelphi
DelphiFunctionEndAccess
p1660
(dp1661
g839
(lp1662
(i__main__
DelphiIdentAccess
p1663
(dp1664
g15
S'aString'
p1665
sg95
(lp1666
sbasbasbsg857
(i__main__
DelphiIdentAccess
p1667
(dp1668
g15
S'result'
p1669
sg95
(lp1670
sbsbasbsg1019
(i__main__
DelphiAssignStatement
p1671
(dp1672
g835
(idelphi
DelphiIntegerValue
p1673
(dp1674
g14
S'50'
p1675
sbsg857
(i__main__
DelphiIdentAccess
p1676
(dp1677
g15
S'result'
p1678
sg95
(lp1679
sbsg865
(lp1680
S'default'
p1681
asbsbsg1019
(i__main__
DelphiAssignStatement
p1682
(dp1683
g835
(idelphi
DelphiIntegerValue
p1684
(dp1685
g14
S'50'
p1686
sbsg857
(i__main__
DelphiIdentAccess
p1687
(dp1688
g15
S'result'
p1689
sg95
(lp1690
sbsg865
(lp1691
S'default'
p1692
asbsbasbsg868
(lp1693
(i__main__
DelphiVarSection
p1694
(dp1695
g165
I0
sg1039
(lp1696
(idelphi
DelphiVarDecl
p1697
(dp1698
g11
Nsg1043
(lp1699
S'theForm'
p1700
asg17
(i__main__
DelphiNamedType
p1701
(dp1702
g20
S'TCustomForm'
p1703
sg228
g1
sg229
NsbsbasbasbsbsS'domousemove'
p1704
(i__main__
DelphiMethodImplementation
p1705
(dp1706
g811
g292
sg192
g294
sg200
(lp1707
(i__main__
DelphiFormalParameter
p1708
(dp1709
g214
Nsg215
(lp1710
S'Sender'
p1711
asg17
(i__main__
DelphiNamedType
p1712
(dp1713
g20
S'TObject'
p1714
sg228
g1
sg229
Nsbsg220
Nsba(i__main__
DelphiFormalParameter
p1715
(dp1716
g214
Nsg215
(lp1717
S'Shift'
p1718
asg17
(i__main__
DelphiNamedType
p1719
(dp1720
g20
S'TShiftState'
p1721
sg228
g1
sg229
Nsbsg220
Nsba(i__main__
DelphiFormalParameter
p1722
(dp1723
g214
Nsg215
(lp1724
S'X'
aS'Y'
asg17
(i__main__
DelphiPrimitiveType
p1725
(dp1726
g20
g261
sbsg220
Nsbasg813
(lp1727
sg815
(lp1728
sg817
(lp1729
g819
ag1711
ag1718
aS'X'
aS'Y'
asg820
(dp1730
S'Y'
g1725
sg1718
g1719
sg1711
g1712
sS'X'
g1725
ssg202
S'PdParameterPanel'
p1731
sg203
Nsg823
(lp1732
sg204
I0
sg205
g206
sg825
(i__main__
DelphiBlock
p1733
(dp1734
g828
(idelphi
DelphiCompoundStatement
p1735
(dp1736
g831
Nsg865
(lp1737
S' subclasses can override '
p1738
asbsg868
(lp1739
sbsbsS'domouseup'
p1740
(i__main__
DelphiMethodImplementation
p1741
(dp1742
g811
g316
sg192
g318
sg200
(lp1743
(i__main__
DelphiFormalParameter
p1744
(dp1745
g214
Nsg215
(lp1746
S'Sender'
p1747
asg17
(i__main__
DelphiNamedType
p1748
(dp1749
g20
S'TObject'
p1750
sg228
g1
sg229
Nsbsg220
Nsba(i__main__
DelphiFormalParameter
p1751
(dp1752
g214
Nsg215
(lp1753
S'Button'
p1754
asg17
(i__main__
DelphiNamedType
p1755
(dp1756
g20
S'TMouseButton'
p1757
sg228
g1
sg229
Nsbsg220
Nsba(i__main__
DelphiFormalParameter
p1758
(dp1759
g214
Nsg215
(lp1760
S'Shift'
p1761
asg17
(i__main__
DelphiNamedType
p1762
(dp1763
g20
S'TShiftState'
p1764
sg228
g1
sg229
Nsbsg220
Nsba(i__main__
DelphiFormalParameter
p1765
(dp1766
g214
Nsg215
(lp1767
S'X'
aS'Y'
asg17
(i__main__
DelphiPrimitiveType
p1768
(dp1769
g20
g261
sbsg220
Nsbasg813
(lp1770
sg815
(lp1771
sg817
(lp1772
g819
ag1747
ag1754
ag1761
aS'X'
aS'Y'
asg820
(dp1773
S'Y'
g1768
sg1761
g1762
sg1754
g1755
sg1747
g1748
sS'X'
g1768
ssg202
S'PdParameterPanel'
p1774
sg203
Nsg823
(lp1775
sg204
I0
sg205
g206
sg825
(i__main__
DelphiBlock
p1776
(dp1777
g828
(idelphi
DelphiCompoundStatement
p1778
(dp1779
g831
Nsg865
(lp1780
S' subclasses can override '
p1781
asbsg868
(lp1782
sbsbsS'wmgetdlgcode'
p1783
(i__main__
DelphiMethodImplementation
p1784
(dp1785
g811
g347
sg192
g349
sg200
(lp1786
(i__main__
DelphiFormalParameter
p1787
(dp1788
g214
Nsg215
(lp1789
g354
asg17
(i__main__
DelphiNamedType
p1790
(dp1791
g20
S'TWMGetDlgCode'
p1792
sg228
g1
sg229
Nsbsg220
g358
sbasg813
(lp1793
sg815
(lp1794
g354
asg817
(lp1795
g819
ag354
asg820
(dp1796
g354
g1790
ssg202
S'PdParameterPanel'
p1797
sg203
Nsg823
(lp1798
sg204
I0
sg205
g206
sg825
(i__main__
DelphiBlock
p1799
(dp1800
g828
(idelphi
DelphiCompoundStatement
p1801
(dp1802
g831
(lp1803
(i__main__
DelphiAssignStatement
p1804
(dp1805
g835
Nsg857
(idelphi
DelphiInheritedCall
p1806
(dp1807
g15
Nsg839
Nsbsba(i__main__
DelphiAssignStatement
p1808
(dp1809
g835
(idelphi
DelphiAddOp
p1810
(dp1811
g990
g991
sg992
(i__main__
DelphiIdentAccess
p1812
(dp1813
g15
S'DLGC_WANTARROWS'
p1814
sg95
(lp1815
sbsg997
(idelphi
DelphiAddOp
p1816
(dp1817
g990
g991
sg992
(i__main__
DelphiIdentAccess
p1818
(dp1819
g15
S'DLGC_WANTTAB'
p1820
sg95
(lp1821
sbsg997
(i__main__
DelphiIdentAccess
p1822
(dp1823
g15
g354
sg95
(lp1824
(idelphi
DelphiFieldEndAccess
p1825
(dp1826
g850
S'Result'
p1827
sbasbsbsbsg857
(i__main__
DelphiIdentAccess
p1828
(dp1829
g15
g354
sg95
(lp1830
(idelphi
DelphiFieldEndAccess
p1831
(dp1832
g850
S'Result'
p1833
sbasbsg865
(lp1834
S' want arrows allows us to pass arrow keys on to slider or combo box '
p1835
asbasbsg868
(lp1836
sbsbsS'collapsedheight'
p1837
(i__main__
DelphiMethodImplementation
p1838
(dp1839
g811
g360
sg192
g362
sg200
(lp1840
sg813
(lp1841
sg815
(lp1842
sg817
(lp1843
g819
asg820
(dp1844
sg202
S'PdParameterPanel'
p1845
sg203
(i__main__
DelphiPrimitiveType
p1846
(dp1847
g20
g261
sbsg823
(lp1848
sg204
I0
sg205
g264
sg825
(i__main__
DelphiBlock
p1849
(dp1850
g828
(idelphi
DelphiCompoundStatement
p1851
(dp1852
g831
(lp1853
(i__main__
DelphiAssignStatement
p1854
(dp1855
g835
(idelphi
DelphiAddOp
p1856
(dp1857
g990
S'+'
sg992
(i__main__
DelphiIdentAccess
p1858
(dp1859
g15
S'kTopBottomGap'
p1860
sg95
(lp1861
sbsg997
(i__main__
DelphiIdentAccess
p1862
(dp1863
g15
S'self'
p1864
sg95
(lp1865
(idelphi
DelphiFieldEndAccess
p1866
(dp1867
g850
S'wrappedLabelHeight'
p1868
sbasbsbsg857
(i__main__
DelphiIdentAccess
p1869
(dp1870
g15
S'result'
p1871
sg95
(lp1872
sbsba(i__main__
DelphiAssignStatement
p1873
(dp1874
g835
(i__main__
DelphiIdentAccess
p1875
(dp1876
g15
S'intMax'
p1877
sg95
(lp1878
(idelphi
DelphiFunctionEndAccess
p1879
(dp1880
g839
(lp1881
(i__main__
DelphiIdentAccess
p1882
(dp1883
g15
S'result'
p1884
sg95
(lp1885
sba(idelphi
DelphiAddOp
p1886
(dp1887
g990
S'+'
sg992
(idelphi
DelphiIntegerValue
p1888
(dp1889
g14
S'5'
sbsg997
(i__main__
DelphiIdentAccess
p1890
(dp1891
g15
S'kArrowPictureSize'
p1892
sg95
(lp1893
sbsbasbasbsg857
(i__main__
DelphiIdentAccess
p1894
(dp1895
g15
S'result'
p1896
sg95
(lp1897
sbsbasbsg868
(lp1898
sbsbsS'calculatetextdimensions'
p1899
(i__main__
DelphiMethodImplementation
p1900
(dp1901
g811
g367
sg192
g369
sg200
(lp1902
sg813
(lp1903
sg815
(lp1904
sg817
(lp1905
g819
asg820
(dp1906
sg202
S'PdParameterPanel'
p1907
sg203
Nsg823
(lp1908
sg204
I0
sg205
g206
sg825
(i__main__
DelphiBlock
p1909
(dp1910
g828
(idelphi
DelphiCompoundStatement
p1911
(dp1912
g831
(lp1913
(i__main__
DelphiAssignStatement
p1914
(dp1915
g835
(i__main__
DelphiIdentAccess
p1916
(dp1917
g15
S'self'
p1918
sg95
(lp1919
(idelphi
DelphiFieldEndAccess
p1920
(dp1921
g850
S'formTextHeight'
p1922
sbasbsg857
(i__main__
DelphiIdentAccess
p1923
(dp1924
g15
S'self'
p1925
sg95
(lp1926
(idelphi
DelphiFieldEndAccess
p1927
(dp1928
g850
S'textHeight'
p1929
sbasbsg865
(lp1930
S" use form canvas for this because when component is first created, doesn't know what font it has "
p1931
asba(i__main__
DelphiAssignStatement
p1932
(dp1933
g835
(i__main__
DelphiIdentAccess
p1934
(dp1935
g15
S'self'
p1936
sg95
(lp1937
(idelphi
DelphiFieldEndAccess
p1938
(dp1939
g850
S'formTextWidth'
p1940
sba(idelphi
DelphiFunctionEndAccess
p1941
(dp1942
g839
(lp1943
(i__main__
DelphiIdentAccess
p1944
(dp1945
g15
S'trimLeftAndRight'
p1946
sg95
(lp1947
(idelphi
DelphiFunctionEndAccess
p1948
(dp1949
g839
(lp1950
(i__main__
DelphiIdentAccess
p1951
(dp1952
g15
S'self'
p1953
sg95
(lp1954
(idelphi
DelphiFieldEndAccess
p1955
(dp1956
g850
S'caption'
p1957
sbasbasbasbasbasbsg857
(i__main__
DelphiIdentAccess
p1958
(dp1959
g15
S'self'
p1960
sg95
(lp1961
(idelphi
DelphiFieldEndAccess
p1962
(dp1963
g850
S'labelWidth'
p1964
sbasbsba(i__main__
DelphiAssignStatement
p1965
(dp1966
g835
(i__main__
DelphiIdentAccess
p1967
(dp1968
g15
S'self'
p1969
sg95
(lp1970
(idelphi
DelphiFieldEndAccess
p1971
(dp1972
g850
S'calculateLongestLabelWordWidth'
p1973
sbasbsg857
(i__main__
DelphiIdentAccess
p1974
(dp1975
g15
S'self'
p1976
sg95
(lp1977
(idelphi
DelphiFieldEndAccess
p1978
(dp1979
g850
S'longestLabelWordWidth'
p1980
sbasbsbasbsg868
(lp1981
sbsbsS'createforparameter'
p1982
(i__main__
DelphiMethodImplementation
p1983
(dp1984
g811
g372
sg192
g374
sg200
(lp1985
(i__main__
DelphiFormalParameter
p1986
(dp1987
g214
Nsg215
(lp1988
S'anOwner'
p1989
asg17
(i__main__
DelphiNamedType
p1990
(dp1991
g20
S'TComponent'
p1992
sg228
g1
sg229
Nsbsg220
Nsba(i__main__
DelphiFormalParameter
p1993
(dp1994
g214
Nsg215
(lp1995
S'aParameter'
p1996
asg17
(i__main__
DelphiNamedType
p1997
(dp1998
g20
S'PdParameter'
p1999
sg228
g1
sg229
Nsbsg220
Nsbasg813
(lp2000
sg815
(lp2001
sg817
(lp2002
g819
ag1989
ag1996
asg820
(dp2003
g1989
g1990
sg1996
g1997
ssg202
S'PdParameterPanel'
p2004
sg203
Nsg823
(lp2005
sg204
I0
sg205
g390
sg825
(i__main__
DelphiBlock
p2006
(dp2007
g828
(idelphi
DelphiCompoundStatement
p2008
(dp2009
g831
(lp2010
(i__main__
DelphiAssignStatement
p2011
(dp2012
g835
Nsg857
(i__main__
DelphiIdentAccess
p2013
(dp2014
g15
S'self'
p2015
sg95
(lp2016
(idelphi
DelphiFieldEndAccess
p2017
(dp2018
g850
S'create'
p2019
sba(idelphi
DelphiFunctionEndAccess
p2020
(dp2021
g839
(lp2022
(i__main__
DelphiIdentAccess
p2023
(dp2024
g15
S'anOwner'
p2025
sg95
(lp2026
sbasbasbsba(i__main__
DelphiAssignStatement
p2027
(dp2028
g835
(i__main__
DelphiIdentAccess
p2029
(dp2030
g15
S'aParameter'
p2031
sg95
(lp2032
sbsg857
(i__main__
DelphiIdentAccess
p2033
(dp2034
g15
S'param'
p2035
sg95
(lp2036
sbsba(i__main__
DelphiAssignStatement
p2037
(dp2038
g835
(i__main__
DelphiIdentAccess
p2039
(dp2040
g15
S'param'
p2041
sg95
(lp2042
(idelphi
DelphiFieldEndAccess
p2043
(dp2044
g850
S'readOnly'
p2045
sbasbsg857
(i__main__
DelphiIdentAccess
p2046
(dp2047
g15
S'self'
p2048
sg95
(lp2049
(idelphi
DelphiFieldEndAccess
p2050
(dp2051
g850
S'readOnly'
p2052
sbasbsba(i__main__
DelphiAssignStatement
p2053
(dp2054
g835
(i__main__
DelphiIdentAccess
p2055
(dp2056
g15
S'param'
p2057
sg95
(lp2058
(idelphi
DelphiFieldEndAccess
p2059
(dp2060
g850
S'getName'
p2061
sbasbsg857
(i__main__
DelphiIdentAccess
p2062
(dp2063
g15
S'self'
p2064
sg95
(lp2065
(idelphi
DelphiFieldEndAccess
p2066
(dp2067
g850
S'caption'
p2068
sbasbsba(i__main__
DelphiAssignStatement
p2069
(dp2070
g835
Nsg857
(i__main__
DelphiIdentAccess
p2071
(dp2072
g15
S'self'
p2073
sg95
(lp2074
(idelphi
DelphiFieldEndAccess
p2075
(dp2076
g850
S'initialize'
p2077
sbasbsba(i__main__
DelphiAssignStatement
p2078
(dp2079
g835
Nsg857
(i__main__
DelphiIdentAccess
p2080
(dp2081
g15
S'self'
p2082
sg95
(lp2083
(idelphi
DelphiFieldEndAccess
p2084
(dp2085
g850
S'updateDisplay'
p2086
sbasbsba(i__main__
DelphiAssignStatement
p2087
(dp2088
g835
Nsg857
(i__main__
DelphiIdentAccess
p2089
(dp2090
g15
S'self'
p2091
sg95
(lp2092
(idelphi
DelphiFieldEndAccess
p2093
(dp2094
g850
S'updateEnabling'
p2095
sbasbsba(i__main__
DelphiAssignStatement
p2096
(dp2097
g835
(idelphi
DelphiSign
p2098
(dp2099
S'factor'
p2100
(idelphi
DelphiIntegerValue
p2101
(dp2102
g14
S'1'
sbsg154
S'-'
sbsg857
(i__main__
DelphiIdentAccess
p2103
(dp2104
g15
S'self'
p2105
sg95
(lp2106
(idelphi
DelphiFieldEndAccess
p2107
(dp2108
g850
S'selectedItemIndex'
p2109
sbasbsba(i__main__
DelphiAssignStatement
p2110
(dp2111
g835
(i__main__
DelphiIdentAccess
p2112
(dp2113
g15
S'bvRaised'
p2114
sg95
(lp2115
sbsg857
(i__main__
DelphiIdentAccess
p2116
(dp2117
g15
S'self'
p2118
sg95
(lp2119
(idelphi
DelphiFieldEndAccess
p2120
(dp2121
g850
S'bevelInner'
p2122
sbasbsba(i__main__
DelphiAssignStatement
p2123
(dp2124
g835
(i__main__
DelphiIdentAccess
p2125
(dp2126
g15
S'bvNone'
p2127
sg95
(lp2128
sbsg857
(i__main__
DelphiIdentAccess
p2129
(dp2130
g15
S'self'
p2131
sg95
(lp2132
(idelphi
DelphiFieldEndAccess
p2133
(dp2134
g850
S'bevelOuter'
p2135
sbasbsbasbsg868
(lp2136
sbsbsS'maxwidth'
p2137
(i__main__
DelphiMethodImplementation
p2138
(dp2139
g811
g392
sg192
g394
sg200
(lp2140
sg813
(lp2141
sg815
(lp2142
sg817
(lp2143
g819
asg820
(dp2144
sg202
S'PdParameterPanel'
p2145
sg203
(i__main__
DelphiPrimitiveType
p2146
(dp2147
g20
g261
sbsg823
(lp2148
sg204
I0
sg205
g264
sg825
(i__main__
DelphiBlock
p2149
(dp2150
g828
(idelphi
DelphiCompoundStatement
p2151
(dp2152
g831
(lp2153
(i__main__
DelphiAssignStatement
p2154
(dp2155
g835
(idelphi
DelphiIntegerValue
p2156
(dp2157
g14
S'0'
sbsg857
(i__main__
DelphiIdentAccess
p2158
(dp2159
g15
S'result'
p2160
sg95
(lp2161
sbsg865
(lp2162
S' subclasses must override '
p2163
asbasbsg868
(lp2164
sbsbsS'create'
p2165
(i__main__
DelphiMethodImplementation
p2166
(dp2167
g811
g399
sg192
g401
sg200
(lp2168
(i__main__
DelphiFormalParameter
p2169
(dp2170
g214
Nsg215
(lp2171
S'anOwner'
p2172
asg17
(i__main__
DelphiNamedType
p2173
(dp2174
g20
S'TComponent'
p2175
sg228
g1
sg229
Nsbsg220
Nsbasg813
(lp2176
sg815
(lp2177
sg817
(lp2178
g819
ag2172
asg820
(dp2179
g2172
g2173
ssg202
S'PdParameterPanel'
p2180
sg203
Nsg823
(lp2181
sg204
I0
sg205
g390
sg825
(i__main__
DelphiBlock
p2182
(dp2183
g828
(idelphi
DelphiCompoundStatement
p2184
(dp2185
g831
(lp2186
(i__main__
DelphiAssignStatement
p2187
(dp2188
g835
Nsg857
(idelphi
DelphiInheritedCall
p2189
(dp2190
g15
S'create'
p2191
sg839
(lp2192
(i__main__
DelphiIdentAccess
p2193
(dp2194
g15
S'anOwner'
p2195
sg95
(lp2196
sbasbsba(i__main__
DelphiAssignStatement
p2197
(dp2198
g835
(idelphi
DelphiNilValue
p2199
(dp2200
bsg857
(i__main__
DelphiIdentAccess
p2201
(dp2202
g15
S'self'
p2203
sg95
(lp2204
(idelphi
DelphiFieldEndAccess
p2205
(dp2206
g850
S'plant'
p2207
sbasbsba(i__main__
DelphiAssignStatement
p2208
(dp2209
g835
(i__main__
DelphiIdentAccess
p2210
(dp2211
g15
S'true'
p2212
sg95
(lp2213
sbsg857
(i__main__
DelphiIdentAccess
p2214
(dp2215
g15
S'self'
p2216
sg95
(lp2217
(idelphi
DelphiFieldEndAccess
p2218
(dp2219
g850
S'parentFont'
p2220
sbasbsba(i__main__
DelphiAssignStatement
p2221
(dp2222
g835
(i__main__
DelphiIdentAccess
p2223
(dp2224
g15
S'self'
p2225
sg95
(lp2226
(idelphi
DelphiFieldEndAccess
p2227
(dp2228
g850
S'doMouseDown'
p2229
sbasbsg857
(i__main__
DelphiIdentAccess
p2230
(dp2231
g15
S'self'
p2232
sg95
(lp2233
(idelphi
DelphiFieldEndAccess
p2234
(dp2235
g850
S'onMouseDown'
p2236
sbasbsba(i__main__
DelphiAssignStatement
p2237
(dp2238
g835
(i__main__
DelphiIdentAccess
p2239
(dp2240
g15
S'self'
p2241
sg95
(lp2242
(idelphi
DelphiFieldEndAccess
p2243
(dp2244
g850
S'doMouseMove'
p2245
sbasbsg857
(i__main__
DelphiIdentAccess
p2246
(dp2247
g15
S'self'
p2248
sg95
(lp2249
(idelphi
DelphiFieldEndAccess
p2250
(dp2251
g850
S'onMouseMove'
p2252
sbasbsba(i__main__
DelphiAssignStatement
p2253
(dp2254
g835
(i__main__
DelphiIdentAccess
p2255
(dp2256
g15
S'self'
p2257
sg95
(lp2258
(idelphi
DelphiFieldEndAccess
p2259
(dp2260
g850
S'doMouseUp'
p2261
sbasbsg857
(i__main__
DelphiIdentAccess
p2262
(dp2263
g15
S'self'
p2264
sg95
(lp2265
(idelphi
DelphiFieldEndAccess
p2266
(dp2267
g850
S'onMouseUp'
p2268
sbasbsba(i__main__
DelphiAssignStatement
p2269
(dp2270
g835
(i__main__
DelphiIdentAccess
p2271
(dp2272
g15
S'self'
p2273
sg95
(lp2274
(idelphi
DelphiFieldEndAccess
p2275
(dp2276
g850
S'doKeyDown'
p2277
sbasbsg857
(i__main__
DelphiIdentAccess
p2278
(dp2279
g15
S'self'
p2280
sg95
(lp2281
(idelphi
DelphiFieldEndAccess
p2282
(dp2283
g850
S'onKeyDown'
p2284
sbasbsba(i__main__
DelphiAssignStatement
p2285
(dp2286
g835
(i__main__
DelphiIdentAccess
p2287
(dp2288
g15
S'self'
p2289
sg95
(lp2290
(idelphi
DelphiFieldEndAccess
p2291
(dp2292
g850
S'doOnEnter'
p2293
sbasbsg857
(i__main__
DelphiIdentAccess
p2294
(dp2295
g15
S'self'
p2296
sg95
(lp2297
(idelphi
DelphiFieldEndAccess
p2298
(dp2299
g850
S'onEnter'
p2300
sbasbsba(i__main__
DelphiAssignStatement
p2301
(dp2302
g835
(i__main__
DelphiIdentAccess
p2303
(dp2304
g15
S'self'
p2305
sg95
(lp2306
(idelphi
DelphiFieldEndAccess
p2307
(dp2308
g850
S'doOnExit'
p2309
sbasbsg857
(i__main__
DelphiIdentAccess
p2310
(dp2311
g15
S'self'
p2312
sg95
(lp2313
(idelphi
DelphiFieldEndAccess
p2314
(dp2315
g850
S'onExit'
p2316
sbasbsba(i__main__
DelphiAssignStatement
p2317
(dp2318
g835
(i__main__
DelphiIdentAccess
p2319
(dp2320
g15
S'true'
p2321
sg95
(lp2322
sbsg857
(i__main__
DelphiIdentAccess
p2323
(dp2324
g15
S'self'
p2325
sg95
(lp2326
(idelphi
DelphiFieldEndAccess
p2327
(dp2328
g850
S'tabStop'
p2329
sbasbsba(i__main__
DelphiAssignStatement
p2330
(dp2331
g835
(i__main__
DelphiIdentAccess
p2332
(dp2333
g15
S'true'
p2334
sg95
(lp2335
sbsg857
(i__main__
DelphiIdentAccess
p2336
(dp2337
g15
S'self'
p2338
sg95
(lp2339
(idelphi
DelphiFieldEndAccess
p2340
(dp2341
g850
S'enabled'
p2342
sbasbsba(idelphi
DelphiIfStatement
p2343
(dp2344
g1013
(idelphi
DelphiRelOp
p2345
(dp2346
g843
(i__main__
DelphiIdentAccess
p2347
(dp2348
g15
S'MainForm'
p2349
sg95
(lp2350
sbsg852
(idelphi
DelphiNilValue
p2351
(dp2352
bsg855
g856
sbsg1018
Nsg1019
(i__main__
DelphiAssignStatement
p2353
(dp2354
g835
(i__main__
DelphiIdentAccess
p2355
(dp2356
g15
S'MainForm'
p2357
sg95
(lp2358
(idelphi
DelphiFieldEndAccess
p2359
(dp2360
g850
S'paramPopupMenu'
p2361
sbasbsg857
(i__main__
DelphiIdentAccess
p2362
(dp2363
g15
S'self'
p2364
sg95
(lp2365
(idelphi
DelphiFieldEndAccess
p2366
(dp2367
g850
S'popupMenu'
p2368
sbasbsbsbasbsg868
(lp2369
sbsbsS'calculateheight'
p2370
(i__main__
DelphiMethodImplementation
p2371
(dp2372
g811
g442
sg192
g444
sg200
(lp2373
sg813
(lp2374
sg815
(lp2375
sg817
(lp2376
g819
asg820
(dp2377
sg202
S'PdParameterPanel'
p2378
sg203
Nsg823
(lp2379
sg204
I0
sg205
g206
sg825
(i__main__
DelphiBlock
p2380
(dp2381
g828
(idelphi
DelphiCompoundStatement
p2382
(dp2383
g831
(lp2384
(i__main__
DelphiAssignStatement
p2385
(dp2386
g835
(i__main__
DelphiIdentAccess
p2387
(dp2388
g15
S'getClientRect'
p2389
sg95
(lp2390
sbsg857
(i__main__
DelphiIdentAccess
p2391
(dp2392
g15
S'fullRect'
p2393
sg95
(lp2394
sbsba(idelphi
DelphiWithStatement
p2395
(dp2396
g906
(idelphi
DelphiCompoundStatement
p2397
(dp2398
g831
(lp2399
(i__main__
DelphiAssignStatement
p2400
(dp2401
g835
(idelphi
DelphiAddOp
p2402
(dp2403
g990
S'+'
sg992
(i__main__
DelphiIdentAccess
p2404
(dp2405
g15
S'kBetweenGap'
p2406
sg95
(lp2407
sbsg997
(idelphi
DelphiAddOp
p2408
(dp2409
g990
S'+'
sg992
(i__main__
DelphiIdentAccess
p2410
(dp2411
g15
S'kOverridePictureSize'
p2412
sg95
(lp2413
sbsg997
(idelphi
DelphiAddOp
p2414
(dp2415
g990
S'+'
sg992
(i__main__
DelphiIdentAccess
p2416
(dp2417
g15
S'kArrowPictureSize'
p2418
sg95
(lp2419
sbsg997
(idelphi
DelphiAddOp
p2420
(dp2421
g990
S'+'
sg992
(i__main__
DelphiIdentAccess
p2422
(dp2423
g15
S'kLeftRightGap'
p2424
sg95
(lp2425
sbsg997
(i__main__
DelphiIdentAccess
p2426
(dp2427
g15
S'fullRect'
p2428
sg95
(lp2429
(idelphi
DelphiFieldEndAccess
p2430
(dp2431
g850
S'left'
p2432
sbasbsbsbsbsbsg857
(i__main__
DelphiIdentAccess
p2433
(dp2434
g15
S'left'
p2435
sg95
(lp2436
sbsba(i__main__
DelphiAssignStatement
p2437
(dp2438
g835
(idelphi
DelphiAddOp
p2439
(dp2440
g990
S'-'
sg992
(i__main__
DelphiIdentAccess
p2441
(dp2442
g15
S'kLeftRightGap'
p2443
sg95
(lp2444
sbsg997
(i__main__
DelphiIdentAccess
p2445
(dp2446
g15
S'fullRect'
p2447
sg95
(lp2448
(idelphi
DelphiFieldEndAccess
p2449
(dp2450
g850
S'right'
p2451
sbasbsbsg857
(i__main__
DelphiIdentAccess
p2452
(dp2453
g15
S'right'
p2454
sg95
(lp2455
sbsba(i__main__
DelphiAssignStatement
p2456
(dp2457
g835
(idelphi
DelphiAddOp
p2458
(dp2459
g990
S'+'
sg992
(idelphi
DelphiIntegerValue
p2460
(dp2461
g14
S'2'
sbsg997
(i__main__
DelphiIdentAccess
p2462
(dp2463
g15
S'fullRect'
p2464
sg95
(lp2465
(idelphi
DelphiFieldEndAccess
p2466
(dp2467
g850
S'top'
p2468
sbasbsbsg857
(i__main__
DelphiIdentAccess
p2469
(dp2470
g15
S'top'
p2471
sg95
(lp2472
sbsba(i__main__
DelphiAssignStatement
p2473
(dp2474
g835
(idelphi
DelphiAddOp
p2475
(dp2476
g990
S'+'
sg992
(i__main__
DelphiIdentAccess
p2477
(dp2478
g15
S'self'
p2479
sg95
(lp2480
(idelphi
DelphiFieldEndAccess
p2481
(dp2482
g850
S'textHeight'
p2483
sbasbsg997
(i__main__
DelphiIdentAccess
p2484
(dp2485
g15
S'top'
p2486
sg95
(lp2487
sbsbsg857
(i__main__
DelphiIdentAccess
p2488
(dp2489
g15
S'bottom'
p2490
sg95
(lp2491
sbsbasbsg1002
(lp2492
(i__main__
DelphiIdentAccess
p2493
(dp2494
g15
S'labelRect'
p2495
sg95
(lp2496
sbasba(i__main__
DelphiAssignStatement
p2497
(dp2498
g835
(i__main__
DelphiIdentAccess
p2499
(dp2500
g15
S'self'
p2501
sg95
(lp2502
(idelphi
DelphiFieldEndAccess
p2503
(dp2504
g850
S'measureText'
p2505
sba(idelphi
DelphiFunctionEndAccess
p2506
(dp2507
g839
(lp2508
(i__main__
DelphiIdentAccess
p2509
(dp2510
g15
S'self'
p2511
sg95
(lp2512
(idelphi
DelphiFieldEndAccess
p2513
(dp2514
g850
S'caption'
p2515
sbasba(i__main__
DelphiIdentAccess
p2516
(dp2517
g15
S'labelRect'
p2518
sg95
(lp2519
sbasbasbsg857
(i__main__
DelphiIdentAccess
p2520
(dp2521
g15
S'self'
p2522
sg95
(lp2523
(idelphi
DelphiFieldEndAccess
p2524
(dp2525
g850
S'wrappedLabelHeight'
p2526
sbasbsba(idelphi
DelphiIfStatement
p2527
(dp2528
g1013
(idelphi
DelphiRelOp
p2529
(dp2530
g843
(i__main__
DelphiIdentAccess
p2531
(dp2532
g15
S'param'
p2533
sg95
(lp2534
sbsg852
(idelphi
DelphiNilValue
p2535
(dp2536
bsg855
g856
sbsg1018
Nsg1019
(idelphi
DelphiCompoundStatement
p2537
(dp2538
g831
(lp2539
(idelphi
DelphiIfStatement
p2540
(dp2541
g1013
(i__main__
DelphiIdentAccess
p2542
(dp2543
g15
S'param'
p2544
sg95
(lp2545
(idelphi
DelphiFieldEndAccess
p2546
(dp2547
g850
S'collapsed'
p2548
sbasbsg1018
(i__main__
DelphiAssignStatement
p2549
(dp2550
g835
(i__main__
DelphiIdentAccess
p2551
(dp2552
g15
S'self'
p2553
sg95
(lp2554
(idelphi
DelphiFieldEndAccess
p2555
(dp2556
g850
S'uncollapsedHeight'
p2557
sbasbsg857
(i__main__
DelphiIdentAccess
p2558
(dp2559
g15
S'self'
p2560
sg95
(lp2561
(idelphi
DelphiFieldEndAccess
p2562
(dp2563
g850
S'height'
p2564
sbasbsbsg1019
(i__main__
DelphiAssignStatement
p2565
(dp2566
g835
(i__main__
DelphiIdentAccess
p2567
(dp2568
g15
S'self'
p2569
sg95
(lp2570
(idelphi
DelphiFieldEndAccess
p2571
(dp2572
g850
S'collapsedHeight'
p2573
sbasbsg857
(i__main__
DelphiIdentAccess
p2574
(dp2575
g15
S'self'
p2576
sg95
(lp2577
(idelphi
DelphiFieldEndAccess
p2578
(dp2579
g850
S'height'
p2580
sbasbsbsbasbsbasbsg868
(lp2581
(i__main__
DelphiVarSection
p2582
(dp2583
g165
I0
sg1039
(lp2584
(idelphi
DelphiVarDecl
p2585
(dp2586
g11
Nsg1043
(lp2587
S'fullRect'
p2588
asg17
(i__main__
DelphiNamedType
p2589
(dp2590
g20
S'TRect'
p2591
sg228
g1
sg229
NsbsbasbasbsbsS'formtextheight'
p2592
(i__main__
DelphiMethodImplementation
p2593
(dp2594
g811
g284
sg192
g286
sg200
(lp2595
sg813
(lp2596
sg815
(lp2597
sg817
(lp2598
g819
asg820
(dp2599
sg202
S'PdParameterPanel'
p2600
sg203
(i__main__
DelphiPrimitiveType
p2601
(dp2602
g20
g290
sbsg823
(lp2603
sg204
I0
sg205
g264
sg825
(i__main__
DelphiBlock
p2604
(dp2605
g828
(idelphi
DelphiCompoundStatement
p2606
(dp2607
g831
(lp2608
(i__main__
DelphiAssignStatement
p2609
(dp2610
g835
(i__main__
DelphiIdentAccess
p2611
(dp2612
g15
S'getParentForm'
p2613
sg95
(lp2614
(idelphi
DelphiFunctionEndAccess
p2615
(dp2616
g839
(lp2617
(i__main__
DelphiIdentAccess
p2618
(dp2619
g15
S'self'
p2620
sg95
(lp2621
sbasbasbsg857
(i__main__
DelphiIdentAccess
p2622
(dp2623
g15
S'theForm'
p2624
sg95
(lp2625
sbsba(idelphi
DelphiIfStatement
p2626
(dp2627
g1013
(idelphi
DelphiRelOp
p2628
(dp2629
g843
(i__main__
DelphiIdentAccess
p2630
(dp2631
g15
S'theForm'
p2632
sg95
(lp2633
sbsg852
(idelphi
DelphiNilValue
p2634
(dp2635
bsg855
S'='
sbsg1018
(idelphi
DelphiIfStatement
p2636
(dp2637
g1013
(idelphi
DelphiRelOp
p2638
(dp2639
g843
(i__main__
DelphiIdentAccess
p2640
(dp2641
g15
S'theForm'
p2642
sg95
(lp2643
(idelphi
DelphiFieldEndAccess
p2644
(dp2645
g850
S'canvas'
p2646
sbasbsg852
(idelphi
DelphiNilValue
p2647
(dp2648
bsg855
S'='
sbsg1018
(idelphi
DelphiCompoundStatement
p2649
(dp2650
g831
(lp2651
(i__main__
DelphiAssignStatement
p2652
(dp2653
g835
(idelphi
DelphiIntegerValue
p2654
(dp2655
g14
S'16'
p2656
sbsg857
(i__main__
DelphiIdentAccess
p2657
(dp2658
g15
S'result'
p2659
sg95
(lp2660
sbsba(i__main__
DelphiAssignStatement
p2661
(dp2662
g835
(i__main__
DelphiIdentAccess
p2663
(dp2664
g15
S'theForm'
p2665
sg95
(lp2666
(idelphi
DelphiFieldEndAccess
p2667
(dp2668
g850
S'font'
p2669
sbasbsg857
(i__main__
DelphiIdentAccess
p2670
(dp2671
g15
S'theForm'
p2672
sg95
(lp2673
(idelphi
DelphiFieldEndAccess
p2674
(dp2675
g850
S'canvas'
p2676
sba(idelphi
DelphiFieldEndAccess
p2677
(dp2678
g850
S'font'
p2679
sbasbsba(i__main__
DelphiAssignStatement
p2680
(dp2681
g835
(i__main__
DelphiIdentAccess
p2682
(dp2683
g15
S'theForm'
p2684
sg95
(lp2685
(idelphi
DelphiFieldEndAccess
p2686
(dp2687
g850
S'canvas'
p2688
sba(idelphi
DelphiFieldEndAccess
p2689
(dp2690
g850
S'textHeight'
p2691
sba(idelphi
DelphiFunctionEndAccess
p2692
(dp2693
g839
(lp2694
(idelphi
DelphiStringAccess
p2695
(dp2696
g95
(lp2697
sg14
(idelphi
DelphiStringValue
p2698
(dp2699
g14
S'W'
sbsbasbasbsg857
(i__main__
DelphiIdentAccess
p2700
(dp2701
g15
S'result'
p2702
sg95
(lp2703
sbsbasbsg1019
(i__main__
DelphiAssignStatement
p2704
(dp2705
g835
(idelphi
DelphiIntegerValue
p2706
(dp2707
g14
S'16'
p2708
sbsg857
(i__main__
DelphiIdentAccess
p2709
(dp2710
g15
S'result'
p2711
sg95
(lp2712
sbsg865
(lp2713
S'default'
p2714
asbsbsg1019
(i__main__
DelphiAssignStatement
p2715
(dp2716
g835
(idelphi
DelphiIntegerValue
p2717
(dp2718
g14
S'16'
p2719
sbsg857
(i__main__
DelphiIdentAccess
p2720
(dp2721
g15
S'result'
p2722
sg95
(lp2723
sbsg865
(lp2724
S'default'
p2725
asbsbasbsg868
(lp2726
(i__main__
DelphiVarSection
p2727
(dp2728
g165
I0
sg1039
(lp2729
(idelphi
DelphiVarDecl
p2730
(dp2731
g11
Nsg1043
(lp2732
S'theForm'
p2733
asg17
(i__main__
DelphiNamedType
p2734
(dp2735
g20
S'TCustomForm'
p2736
sg228
g1
sg229
Nsbsba(idelphi
DelphiVarDecl
p2737
(dp2738
g11
Nsg1043
(lp2739
S'oldSize'
p2740
asg17
(i__main__
DelphiPrimitiveType
p2741
(dp2742
g20
g261
sbsbasbasbsbsS'dokeydown'
p2743
(i__main__
DelphiMethodImplementation
p2744
(dp2745
g811
g411
sg192
g413
sg200
(lp2746
(i__main__
DelphiFormalParameter
p2747
(dp2748
g214
Nsg215
(lp2749
S'sender'
p2750
asg17
(i__main__
DelphiNamedType
p2751
(dp2752
g20
S'TObject'
p2753
sg228
g1
sg229
Nsbsg220
Nsba(i__main__
DelphiFormalParameter
p2754
(dp2755
g214
Nsg215
(lp2756
S'key'
p2757
asg17
(i__main__
DelphiPrimitiveType
p2758
(dp2759
g20
g428
sbsg220
g358
sba(i__main__
DelphiFormalParameter
p2760
(dp2761
g214
Nsg215
(lp2762
S'shift'
p2763
asg17
(i__main__
DelphiNamedType
p2764
(dp2765
g20
S'TShiftState'
p2766
sg228
g1
sg229
Nsbsg220
Nsbasg813
(lp2767
I1
asg815
(lp2768
sg817
(lp2769
g819
ag2750
ag2757
ag2763
asg820
(dp2770
g2763
g2764
sg2750
g2751
sg2757
g2758
ssg202
S'PdParameterPanel'
p2771
sg203
Nsg823
(lp2772
g2757
asg204
I0
sg205
g206
sg825
(i__main__
DelphiBlock
p2773
(dp2774
g828
(idelphi
DelphiCompoundStatement
p2775
(dp2776
g831
(lp2777
(idelphi
DelphiIfStatement
p2778
(dp2779
g1013
(idelphi
DelphiNestedExpressionListAccess
p2780
(dp2781
g95
(lp2782
sg839
(lp2783
(idelphi
DelphiRelOp
p2784
(dp2785
g843
(i__main__
DelphiIdentAccess
p2786
(dp2787
g15
S'key'
p2788
sg95
(lp2789
sbsg852
(i__main__
DelphiIdentAccess
p2790
(dp2791
g15
S'VK_TAB'
p2792
sg95
(lp2793
sbsg855
S'='
sbasbsg1018
(idelphi
DelphiIfStatement
p2794
(dp2795
g1013
(idelphi
DelphiMulOp
p2796
(dp2797
g1213
(idelphi
DelphiNestedExpressionListAccess
p2798
(dp2799
g95
(lp2800
sg839
(lp2801
(idelphi
DelphiRelOp
p2802
(dp2803
g843
(i__main__
DelphiIdentAccess
p2804
(dp2805
g15
S'self'
p2806
sg95
(lp2807
(idelphi
DelphiFieldEndAccess
p2808
(dp2809
g850
S'selectedItemIndex'
p2810
sbasbsg852
(i__main__
DelphiIdentAccess
p2811
(dp2812
g15
S'kItemLabel'
p2813
sg95
(lp2814
sbsg855
S'='
sbasbsg1234
g1235
sg1236
(idelphi
DelphiNestedExpressionListAccess
p2815
(dp2816
g95
(lp2817
sg839
(lp2818
(idelphi
DelphiRelOp
p2819
(dp2820
g843
(i__main__
DelphiIdentAccess
p2821
(dp2822
g15
S'key'
p2823
sg95
(lp2824
sbsg852
(i__main__
DelphiIdentAccess
p2825
(dp2826
g15
S'VK_RETURN'
p2827
sg95
(lp2828
sbsg855
S'='
sbasbsbsg1018
Nsg1019
(i__main__
DelphiAssignStatement
p2829
(dp2830
g835
Nsg857
(i__main__
DelphiIdentAccess
p2831
(dp2832
g15
S'self'
p2833
sg95
(lp2834
(idelphi
DelphiFieldEndAccess
p2835
(dp2836
g850
S'collapseOrExpand'
p2837
sba(idelphi
DelphiFunctionEndAccess
p2838
(dp2839
g839
(lp2840
(idelphi
DelphiIntegerValue
p2841
(dp2842
g14
S'0'
sbasbasbsg865
(lp2843
S'give it a y as if the label was clicked on'
p2844
asbsbsg1019
(idelphi
DelphiCompoundStatement
p2845
(dp2846
g831
(lp2847
(idelphi
DelphiIfStatement
p2848
(dp2849
g1013
(idelphi
DelphiRelOp
p2850
(dp2851
g843
(i__main__
DelphiIdentAccess
p2852
(dp2853
g15
S'shift'
p2854
sg95
(lp2855
sbsg852
(idelphi
DelphiSetConstructor
p2856
(dp2857
S'setElementList'
p2858
(lp2859
(i__main__
DelphiIdentAccess
p2860
(dp2861
g15
S'ssShift'
p2862
sg95
(lp2863
sbasbsg855
S'='
sbsg1018
(i__main__
DelphiAssignStatement
p2864
(dp2865
g835
Nsg857
(i__main__
DelphiIdentAccess
p2866
(dp2867
g15
S'self'
p2868
sg95
(lp2869
(idelphi
DelphiFieldEndAccess
p2870
(dp2871
g850
S'tabThroughItems'
p2872
sba(idelphi
DelphiFunctionEndAccess
p2873
(dp2874
g839
(lp2875
(i__main__
DelphiIdentAccess
p2876
(dp2877
g15
S'true'
p2878
sg95
(lp2879
sbasbasbsbsg1019
(i__main__
DelphiAssignStatement
p2880
(dp2881
g835
Nsg857
(i__main__
DelphiIdentAccess
p2882
(dp2883
g15
S'self'
p2884
sg95
(lp2885
(idelphi
DelphiFieldEndAccess
p2886
(dp2887
g850
S'tabThroughItems'
p2888
sba(idelphi
DelphiFunctionEndAccess
p2889
(dp2890
g839
(lp2891
(i__main__
DelphiIdentAccess
p2892
(dp2893
g15
S'false'
p2894
sg95
(lp2895
sbasbasbsg865
(lp2896
S' subclasses should override and respond to enter events when different items are selected '
p2897
aS' subclasses should call inherited '
p2898
asbsba(idelphi
DelphiIfStatement
p2899
(dp2900
g1013
(idelphi
DelphiRelOp
p2901
(dp2902
g843
(i__main__
DelphiIdentAccess
p2903
(dp2904
g15
S'self'
p2905
sg95
(lp2906
(idelphi
DelphiFieldEndAccess
p2907
(dp2908
g850
S'selectedItemIndex'
p2909
sbasbsg852
(i__main__
DelphiIdentAccess
p2910
(dp2911
g15
S'kItemNone'
p2912
sg95
(lp2913
sbsg855
S'='
sbsg1018
Nsg1019
(idelphi
DelphiCompoundStatement
p2914
(dp2915
g831
(lp2916
(i__main__
DelphiAssignStatement
p2917
(dp2918
g835
(i__main__
DelphiIdentAccess
p2919
(dp2920
g15
S'getParentForm'
p2921
sg95
(lp2922
(idelphi
DelphiFunctionEndAccess
p2923
(dp2924
g839
(lp2925
(i__main__
DelphiIdentAccess
p2926
(dp2927
g15
S'self'
p2928
sg95
(lp2929
sbasbasbsg857
(i__main__
DelphiIdentAccess
p2930
(dp2931
g15
S'form'
p2932
sg95
(lp2933
sbsba(idelphi
DelphiIfStatement
p2934
(dp2935
g1013
(idelphi
DelphiRelOp
p2936
(dp2937
g843
(i__main__
DelphiIdentAccess
p2938
(dp2939
g15
S'form'
p2940
sg95
(lp2941
sbsg852
(idelphi
DelphiNilValue
p2942
(dp2943
bsg855
g856
sbsg1018
Nsg1019
(idelphi
DelphiIfStatement
p2944
(dp2945
g1013
(idelphi
DelphiRelOp
p2946
(dp2947
g843
(i__main__
DelphiIdentAccess
p2948
(dp2949
g15
S'shift'
p2950
sg95
(lp2951
sbsg852
(idelphi
DelphiSetConstructor
p2952
(dp2953
g2858
(lp2954
(i__main__
DelphiIdentAccess
p2955
(dp2956
g15
S'ssShift'
p2957
sg95
(lp2958
sbasbsg855
S'='
sbsg1018
(i__main__
DelphiAssignStatement
p2959
(dp2960
g835
Nsg857
(i__main__
DelphiIdentAccess
p2961
(dp2962
g15
S'form'
p2963
sg95
(lp2964
(idelphi
DelphiFieldEndAccess
p2965
(dp2966
g850
S'perform'
p2967
sba(idelphi
DelphiFunctionEndAccess
p2968
(dp2969
g839
(lp2970
(i__main__
DelphiIdentAccess
p2971
(dp2972
g15
S'wm_NextDlgCtl'
p2973
sg95
(lp2974
sba(idelphi
DelphiIntegerValue
p2975
(dp2976
g14
S'0'
sba(idelphi
DelphiIntegerValue
p2977
(dp2978
g14
S'0'
sbasbasbsbsg1019
(idelphi
DelphiCompoundStatement
p2979
(dp2980
g831
(lp2981
(i__main__
DelphiAssignStatement
p2982
(dp2983
g835
(i__main__
DelphiIdentAccess
p2984
(dp2985
g15
S'true'
p2986
sg95
(lp2987
sbsg857
(i__main__
DelphiIdentAccess
p2988
(dp2989
g15
S'TMainForm'
p2990
sg95
(lp2991
(idelphi
DelphiFunctionEndAccess
p2992
(dp2993
g839
(lp2994
(i__main__
DelphiIdentAccess
p2995
(dp2996
g15
S'form'
p2997
sg95
(lp2998
sbasba(idelphi
DelphiFieldEndAccess
p2999
(dp3000
g850
S'backTabbingInParametersPanel'
p3001
sbasbsba(i__main__
DelphiAssignStatement
p3002
(dp3003
g835
Nsg857
(i__main__
DelphiIdentAccess
p3004
(dp3005
g15
S'form'
p3006
sg95
(lp3007
(idelphi
DelphiFieldEndAccess
p3008
(dp3009
g850
S'perform'
p3010
sba(idelphi
DelphiFunctionEndAccess
p3011
(dp3012
g839
(lp3013
(i__main__
DelphiIdentAccess
p3014
(dp3015
g15
S'wm_NextDlgCtl'
p3016
sg95
(lp3017
sba(idelphi
DelphiIntegerValue
p3018
(dp3019
g14
S'1'
sba(idelphi
DelphiIntegerValue
p3020
(dp3021
g14
S'0'
sbasbasbsg865
(lp3022
S'previous'
p3023
asbasbsbsbasbsbasbsbasbsg868
(lp3024
(i__main__
DelphiVarSection
p3025
(dp3026
g165
I0
sg1039
(lp3027
(idelphi
DelphiVarDecl
p3028
(dp3029
g11
Nsg1043
(lp3030
S'Form'
p3031
asg17
(i__main__
DelphiNamedType
p3032
(dp3033
g20
S'TCustomForm'
p3034
sg228
g1
sg229
NsbsbasbasbsbsS'paint'
p3035
(i__main__
DelphiMethodImplementation
p3036
(dp3037
g811
g437
sg192
g439
sg200
(lp3038
sg813
(lp3039
sg815
(lp3040
sg817
(lp3041
g819
asg820
(dp3042
sg202
S'PdParameterPanel'
p3043
sg203
Nsg823
(lp3044
sg204
I0
sg205
g206
sg825
(i__main__
DelphiBlock
p3045
(dp3046
g828
(idelphi
DelphiCompoundStatement
p3047
(dp3048
g831
(lp3049
(i__main__
DelphiAssignStatement
p3050
(dp3051
g835
Nsg857
(i__main__
DelphiIdentAccess
p3052
(dp3053
g15
S'self'
p3054
sg95
(lp3055
(idelphi
DelphiFieldEndAccess
p3056
(dp3057
g850
S'fillWithBevels'
p3058
sbasbsg865
(lp3059
S' copied from TCustomPanel.paint and location of caption text changed '
p3060
aS" can't call inherited paint because it wants to put the caption in the middle "
p3061
asba(i__main__
DelphiAssignStatement
p3062
(dp3063
g835
(i__main__
DelphiIdentAccess
p3064
(dp3065
g15
S'getClientRect'
p3066
sg95
(lp3067
sbsg857
(i__main__
DelphiIdentAccess
p3068
(dp3069
g15
S'fullRect'
p3070
sg95
(lp3071
sbsba(idelphi
DelphiWithStatement
p3072
(dp3073
g906
(idelphi
DelphiCompoundStatement
p3074
(dp3075
g831
(lp3076
(i__main__
DelphiAssignStatement
p3077
(dp3078
g835
(i__main__
DelphiIdentAccess
p3079
(dp3080
g15
S'self'
p3081
sg95
(lp3082
(idelphi
DelphiFieldEndAccess
p3083
(dp3084
g850
S'font'
p3085
sbasbsg857
(i__main__
DelphiIdentAccess
p3086
(dp3087
g15
S'font'
p3088
sg95
(lp3089
sbsba(i__main__
DelphiAssignStatement
p3090
(dp3091
g835
(i__main__
DelphiIdentAccess
p3092
(dp3093
g15
S'bsClear'
p3094
sg95
(lp3095
sbsg857
(i__main__
DelphiIdentAccess
p3096
(dp3097
g15
S'brush'
p3098
sg95
(lp3099
(idelphi
DelphiFieldEndAccess
p3100
(dp3101
g850
S'style'
p3102
sbasbsba(idelphi
DelphiWithStatement
p3103
(dp3104
g906
(idelphi
DelphiCompoundStatement
p3105
(dp3106
g831
(lp3107
(i__main__
DelphiAssignStatement
p3108
(dp3109
g835
(idelphi
DelphiAddOp
p3110
(dp3111
g990
S'+'
sg992
(i__main__
DelphiIdentAccess
p3112
(dp3113
g15
S'kBetweenGap'
p3114
sg95
(lp3115
sbsg997
(idelphi
DelphiAddOp
p3116
(dp3117
g990
S'+'
sg992
(i__main__
DelphiIdentAccess
p3118
(dp3119
g15
S'kOverridePictureSize'
p3120
sg95
(lp3121
sbsg997
(idelphi
DelphiAddOp
p3122
(dp3123
g990
S'+'
sg992
(i__main__
DelphiIdentAccess
p3124
(dp3125
g15
S'kArrowPictureSize'
p3126
sg95
(lp3127
sbsg997
(idelphi
DelphiAddOp
p3128
(dp3129
g990
S'+'
sg992
(i__main__
DelphiIdentAccess
p3130
(dp3131
g15
S'kLeftRightGap'
p3132
sg95
(lp3133
sbsg997
(i__main__
DelphiIdentAccess
p3134
(dp3135
g15
S'fullRect'
p3136
sg95
(lp3137
(idelphi
DelphiFieldEndAccess
p3138
(dp3139
g850
S'left'
p3140
sbasbsbsbsbsbsg857
(i__main__
DelphiIdentAccess
p3141
(dp3142
g15
S'left'
p3143
sg95
(lp3144
sbsba(i__main__
DelphiAssignStatement
p3145
(dp3146
g835
(idelphi
DelphiAddOp
p3147
(dp3148
g990
S'-'
sg992
(i__main__
DelphiIdentAccess
p3149
(dp3150
g15
S'kOverridePictureSize'
p3151
sg95
(lp3152
sbsg997
(idelphi
DelphiAddOp
p3153
(dp3154
g990
S'-'
sg992
(i__main__
DelphiIdentAccess
p3155
(dp3156
g15
S'kArrowPictureSize'
p3157
sg95
(lp3158
sbsg997
(idelphi
DelphiAddOp
p3159
(dp3160
g990
S'-'
sg992
(idelphi
DelphiMulOp
p3161
(dp3162
g1213
(idelphi
DelphiIntegerValue
p3163
(dp3164
g14
S'2'
sbsg1234
S'*'
sg1236
(i__main__
DelphiIdentAccess
p3165
(dp3166
g15
S'kLeftRightGap'
p3167
sg95
(lp3168
sbsbsg997
(idelphi
DelphiAddOp
p3169
(dp3170
g990
S'+'
sg992
(i__main__
DelphiIdentAccess
p3171
(dp3172
g15
S'self'
p3173
sg95
(lp3174
(idelphi
DelphiFieldEndAccess
p3175
(dp3176
g850
S'width'
p3177
sbasbsg997
(i__main__
DelphiIdentAccess
p3178
(dp3179
g15
S'left'
p3180
sg95
(lp3181
sbsbsbsbsbsg857
(i__main__
DelphiIdentAccess
p3182
(dp3183
g15
S'right'
p3184
sg95
(lp3185
sbsba(i__main__
DelphiAssignStatement
p3186
(dp3187
g835
(idelphi
DelphiAddOp
p3188
(dp3189
g990
S'+'
sg992
(idelphi
DelphiIntegerValue
p3190
(dp3191
g14
S'2'
sbsg997
(i__main__
DelphiIdentAccess
p3192
(dp3193
g15
S'fullRect'
p3194
sg95
(lp3195
(idelphi
DelphiFieldEndAccess
p3196
(dp3197
g850
S'top'
p3198
sbasbsbsg857
(i__main__
DelphiIdentAccess
p3199
(dp3200
g15
S'top'
p3201
sg95
(lp3202
sbsba(i__main__
DelphiAssignStatement
p3203
(dp3204
g835
(idelphi
DelphiAddOp
p3205
(dp3206
g990
S'+'
sg992
(i__main__
DelphiIdentAccess
p3207
(dp3208
g15
S'self'
p3209
sg95
(lp3210
(idelphi
DelphiFieldEndAccess
p3211
(dp3212
g850
S'textHeight'
p3213
sbasbsg997
(i__main__
DelphiIdentAccess
p3214
(dp3215
g15
S'top'
p3216
sg95
(lp3217
sbsbsg857
(i__main__
DelphiIdentAccess
p3218
(dp3219
g15
S'bottom'
p3220
sg95
(lp3221
sbsbasbsg1002
(lp3222
(i__main__
DelphiIdentAccess
p3223
(dp3224
g15
S'labelRect'
p3225
sg95
(lp3226
sbasba(i__main__
DelphiAssignStatement
p3227
(dp3228
g835
(i__main__
DelphiIdentAccess
p3229
(dp3230
g15
S'self'
p3231
sg95
(lp3232
(idelphi
DelphiFieldEndAccess
p3233
(dp3234
g850
S'drawText'
p3235
sba(idelphi
DelphiFunctionEndAccess
p3236
(dp3237
g839
(lp3238
(i__main__
DelphiIdentAccess
p3239
(dp3240
g15
S'self'
p3241
sg95
(lp3242
(idelphi
DelphiFieldEndAccess
p3243
(dp3244
g850
S'caption'
p3245
sbasba(i__main__
DelphiIdentAccess
p3246
(dp3247
g15
S'labelRect'
p3248
sg95
(lp3249
sba(i__main__
DelphiIdentAccess
p3250
(dp3251
g15
S'false'
p3252
sg95
(lp3253
sba(i__main__
DelphiIdentAccess
p3254
(dp3255
g15
S'false'
p3256
sg95
(lp3257
sba(i__main__
DelphiIdentAccess
p3258
(dp3259
g15
S'false'
p3260
sg95
(lp3261
sbasbasbsg857
(i__main__
DelphiIdentAccess
p3262
(dp3263
g15
S'self'
p3264
sg95
(lp3265
(idelphi
DelphiFieldEndAccess
p3266
(dp3267
g850
S'wrappedLabelHeight'
p3268
sbasbsba(idelphi
DelphiWithStatement
p3269
(dp3270
g906
(idelphi
DelphiCompoundStatement
p3271
(dp3272
g831
(lp3273
(i__main__
DelphiAssignStatement
p3274
(dp3275
g835
(idelphi
DelphiAddOp
p3276
(dp3277
g990
S'+'
sg992
(i__main__
DelphiIdentAccess
p3278
(dp3279
g15
S'kLeftRightGap'
p3280
sg95
(lp3281
sbsg997
(i__main__
DelphiIdentAccess
p3282
(dp3283
g15
S'fullRect'
p3284
sg95
(lp3285
(idelphi
DelphiFieldEndAccess
p3286
(dp3287
g850
S'left'
p3288
sbasbsbsg857
(i__main__
DelphiIdentAccess
p3289
(dp3290
g15
S'left'
p3291
sg95
(lp3292
sbsba(i__main__
DelphiAssignStatement
p3293
(dp3294
g835
(idelphi
DelphiAddOp
p3295
(dp3296
g990
S'+'
sg992
(i__main__
DelphiIdentAccess
p3297
(dp3298
g15
S'kArrowPictureSize'
p3299
sg95
(lp3300
sbsg997
(i__main__
DelphiIdentAccess
p3301
(dp3302
g15
S'left'
p3303
sg95
(lp3304
sbsbsg857
(i__main__
DelphiIdentAccess
p3305
(dp3306
g15
S'right'
p3307
sg95
(lp3308
sbsba(i__main__
DelphiAssignStatement
p3309
(dp3310
g835
(idelphi
DelphiAddOp
p3311
(dp3312
g990
S'+'
sg992
(idelphi
DelphiIntegerValue
p3313
(dp3314
g14
S'1'
sbsg997
(i__main__
DelphiIdentAccess
p3315
(dp3316
g15
S'labelRect'
p3317
sg95
(lp3318
(idelphi
DelphiFieldEndAccess
p3319
(dp3320
g850
S'top'
p3321
sbasbsbsg857
(i__main__
DelphiIdentAccess
p3322
(dp3323
g15
S'top'
p3324
sg95
(lp3325
sbsba(i__main__
DelphiAssignStatement
p3326
(dp3327
g835
(idelphi
DelphiAddOp
p3328
(dp3329
g990
S'+'
sg992
(i__main__
DelphiIdentAccess
p3330
(dp3331
g15
S'kArrowPictureSize'
p3332
sg95
(lp3333
sbsg997
(i__main__
DelphiIdentAccess
p3334
(dp3335
g15
S'top'
p3336
sg95
(lp3337
sbsbsg857
(i__main__
DelphiIdentAccess
p3338
(dp3339
g15
S'bottom'
p3340
sg95
(lp3341
sbsbasbsg1002
(lp3342
(i__main__
DelphiIdentAccess
p3343
(dp3344
g15
S'pictureRect'
p3345
sg95
(lp3346
sbasba(idelphi
DelphiIfStatement
p3347
(dp3348
g1013
(idelphi
DelphiMulOp
p3349
(dp3350
g1213
(idelphi
DelphiNestedExpressionListAccess
p3351
(dp3352
g95
(lp3353
sg839
(lp3354
(idelphi
DelphiRelOp
p3355
(dp3356
g843
(i__main__
DelphiIdentAccess
p3357
(dp3358
g15
S'param'
p3359
sg95
(lp3360
sbsg852
(idelphi
DelphiNilValue
p3361
(dp3362
bsg855
g856
sbasbsg1234
g1235
sg1236
(idelphi
DelphiNestedExpressionListAccess
p3363
(dp3364
g95
(lp3365
sg839
(lp3366
(idelphi
DelphiRelOp
p3367
(dp3368
g843
(i__main__
DelphiIdentAccess
p3369
(dp3370
g15
S'self'
p3371
sg95
(lp3372
(idelphi
DelphiFieldEndAccess
p3373
(dp3374
g850
S'plant'
p3375
sbasbsg852
(idelphi
DelphiNilValue
p3376
(dp3377
bsg855
g856
sbasbsbsg1018
Nsg1019
(idelphi
DelphiCompoundStatement
p3378
(dp3379
g831
(lp3380
(idelphi
DelphiIfStatement
p3381
(dp3382
g1013
(i__main__
DelphiIdentAccess
p3383
(dp3384
g15
S'param'
p3385
sg95
(lp3386
(idelphi
DelphiFieldEndAccess
p3387
(dp3388
g850
S'collapsed'
p3389
sbasbsg1018
(i__main__
DelphiAssignStatement
p3390
(dp3391
g835
Nsg857
(i__main__
DelphiIdentAccess
p3392
(dp3393
g15
S'draw'
p3394
sg95
(lp3395
(idelphi
DelphiFunctionEndAccess
p3396
(dp3397
g839
(lp3398
(i__main__
DelphiIdentAccess
p3399
(dp3400
g15
S'pictureRect'
p3401
sg95
(lp3402
(idelphi
DelphiFieldEndAccess
p3403
(dp3404
g850
S'left'
p3405
sbasba(i__main__
DelphiIdentAccess
p3406
(dp3407
g15
S'pictureRect'
p3408
sg95
(lp3409
(idelphi
DelphiFieldEndAccess
p3410
(dp3411
g850
S'top'
p3412
sbasba(i__main__
DelphiIdentAccess
p3413
(dp3414
g15
S'MainForm'
p3415
sg95
(lp3416
(idelphi
DelphiFieldEndAccess
p3417
(dp3418
g850
S'paramPanelOpenArrowImage'
p3419
sba(idelphi
DelphiFieldEndAccess
p3420
(dp3421
g850
S'picture'
p3422
sba(idelphi
DelphiFieldEndAccess
p3423
(dp3424
g850
S'bitmap'
p3425
sbasbasbasbsbsg1019
(i__main__
DelphiAssignStatement
p3426
(dp3427
g835
Nsg857
(i__main__
DelphiIdentAccess
p3428
(dp3429
g15
S'draw'
p3430
sg95
(lp3431
(idelphi
DelphiFunctionEndAccess
p3432
(dp3433
g839
(lp3434
(i__main__
DelphiIdentAccess
p3435
(dp3436
g15
S'pictureRect'
p3437
sg95
(lp3438
(idelphi
DelphiFieldEndAccess
p3439
(dp3440
g850
S'left'
p3441
sbasba(i__main__
DelphiIdentAccess
p3442
(dp3443
g15
S'pictureRect'
p3444
sg95
(lp3445
(idelphi
DelphiFieldEndAccess
p3446
(dp3447
g850
S'top'
p3448
sbasba(i__main__
DelphiIdentAccess
p3449
(dp3450
g15
S'MainForm'
p3451
sg95
(lp3452
(idelphi
DelphiFieldEndAccess
p3453
(dp3454
g850
S'paramPanelClosedArrowImage'
p3455
sba(idelphi
DelphiFieldEndAccess
p3456
(dp3457
g850
S'picture'
p3458
sba(idelphi
DelphiFieldEndAccess
p3459
(dp3460
g850
S'bitmap'
p3461
sbasbasbasbsg865
(lp3462
S'\r'
aS'    with overrideRect do\r'
p3463
aS'      begin\r'
p3464
aS'      left := pictureRect.right;\r'
p3465
aS'      right := left + kOverridePictureSize;\r'
p3466
aS'      top := labelRect.top + 1;\r'
p3467
aS'      bottom := top + kOverridePictureSize;\r'
p3468
aS'      end;\r'
p3469
aS'      '
p3470
asbsbasg865
(lp3471
S'\r'
aS'      if (not param.cannotOverride) and (param.isOverridden) then\r'
p3472
aS'        draw(overrideRect.left, overrideRect.top, MainForm.paramOverride.picture.bitmap)\r'
p3473
aS'      else\r'
p3474
aS'        draw(overrideRect.left, overrideRect.top, MainForm.paramOverrideNot.picture.bitmap);\r'
p3475
aS'        '
p3476
asbsba(idelphi
DelphiIfStatement
p3477
(dp3478
g1013
(idelphi
DelphiNestedExpressionListAccess
p3479
(dp3480
g95
(lp3481
sg839
(lp3482
(idelphi
DelphiRelOp
p3483
(dp3484
g843
(i__main__
DelphiIdentAccess
p3485
(dp3486
g15
S'self'
p3487
sg95
(lp3488
(idelphi
DelphiFieldEndAccess
p3489
(dp3490
g850
S'selectedItemIndex'
p3491
sbasbsg852
(i__main__
DelphiIdentAccess
p3492
(dp3493
g15
S'kItemLabel'
p3494
sg95
(lp3495
sbsg855
S'='
sbasbsg1018
Nsg1019
(idelphi
DelphiWithStatement
p3496
(dp3497
g906
(i__main__
DelphiAssignStatement
p3498
(dp3499
g835
Nsg857
(i__main__
DelphiIdentAccess
p3500
(dp3501
g15
S'rectangle'
p3502
sg95
(lp3503
(idelphi
DelphiFunctionEndAccess
p3504
(dp3505
g839
(lp3506
(i__main__
DelphiIdentAccess
p3507
(dp3508
g15
S'left'
p3509
sg95
(lp3510
sba(i__main__
DelphiIdentAccess
p3511
(dp3512
g15
S'top'
p3513
sg95
(lp3514
sba(i__main__
DelphiIdentAccess
p3515
(dp3516
g15
S'right'
p3517
sg95
(lp3518
sba(i__main__
DelphiIdentAccess
p3519
(dp3520
g15
S'bottom'
p3521
sg95
(lp3522
sbasbasbsbsg1002
(lp3523
(i__main__
DelphiIdentAccess
p3524
(dp3525
g15
S'pictureRect'
p3526
sg95
(lp3527
sbasbsbasbsg1002
(lp3528
(i__main__
DelphiIdentAccess
p3529
(dp3530
g15
S'canvas'
p3531
sg95
(lp3532
sbasbasbsg868
(lp3533
(i__main__
DelphiVarSection
p3534
(dp3535
g165
I0
sg1039
(lp3536
(idelphi
DelphiVarDecl
p3537
(dp3538
g11
Nsg1043
(lp3539
S'fullRect'
p3540
asg17
(i__main__
DelphiNamedType
p3541
(dp3542
g20
S'TRect'
p3543
sg228
g1
sg229
NsbsbasbasbsbsS'nextselecteditemindex'
p3544
(i__main__
DelphiMethodImplementation
p3545
(dp3546
g811
g589
sg192
g591
sg200
(lp3547
(i__main__
DelphiFormalParameter
p3548
(dp3549
g214
Nsg215
(lp3550
S'goForward'
p3551
asg17
(i__main__
DelphiPrimitiveType
p3552
(dp3553
g20
g236
sbsg220
Nsbasg813
(lp3554
sg815
(lp3555
sg817
(lp3556
g819
ag3551
asg820
(dp3557
g3551
g3552
ssg202
S'PdParameterPanel'
p3558
sg203
(i__main__
DelphiPrimitiveType
p3559
(dp3560
g20
g261
sbsg823
(lp3561
sg204
I0
sg205
g264
sg825
(i__main__
DelphiBlock
p3562
(dp3563
g828
(idelphi
DelphiCompoundStatement
p3564
(dp3565
g831
(lp3566
(idelphi
DelphiIfStatement
p3567
(dp3568
g1013
(i__main__
DelphiIdentAccess
p3569
(dp3570
g15
S'goForward'
p3571
sg95
(lp3572
sbsg1018
(i__main__
DelphiAssignStatement
p3573
(dp3574
g835
(idelphi
DelphiAddOp
p3575
(dp3576
g990
S'-'
sg992
(idelphi
DelphiIntegerValue
p3577
(dp3578
g14
S'1'
sbsg997
(i__main__
DelphiIdentAccess
p3579
(dp3580
g15
S'self'
p3581
sg95
(lp3582
(idelphi
DelphiFieldEndAccess
p3583
(dp3584
g850
S'selectedItemIndex'
p3585
sbasbsbsg857
(i__main__
DelphiIdentAccess
p3586
(dp3587
g15
S'result'
p3588
sg95
(lp3589
sbsbsg1019
(i__main__
DelphiAssignStatement
p3590
(dp3591
g835
(idelphi
DelphiAddOp
p3592
(dp3593
g990
S'+'
sg992
(idelphi
DelphiIntegerValue
p3594
(dp3595
g14
S'1'
sbsg997
(i__main__
DelphiIdentAccess
p3596
(dp3597
g15
S'self'
p3598
sg95
(lp3599
(idelphi
DelphiFieldEndAccess
p3600
(dp3601
g850
S'selectedItemIndex'
p3602
sbasbsbsg857
(i__main__
DelphiIdentAccess
p3603
(dp3604
g15
S'result'
p3605
sg95
(lp3606
sbsbsbasbsg868
(lp3607
sbsbsS'drawextravaluecaptionwithstring'
p3608
(i__main__
DelphiMethodImplementation
p3609
(dp3610
g811
g447
sg192
g449
sg200
(lp3611
(i__main__
DelphiFormalParameter
p3612
(dp3613
g214
Nsg215
(lp3614
S'valueString'
p3615
aS'unitString'
p3616
asg17
(i__main__
DelphiPrimitiveType
p3617
(dp3618
g20
g14
sbsg220
Nsbasg813
(lp3619
sg815
(lp3620
sg817
(lp3621
g819
ag3615
ag3616
asg820
(dp3622
g3616
g3617
sg3615
g3617
ssg202
S'PdParameterPanel'
p3623
sg203
Nsg823
(lp3624
sg204
I0
sg205
g206
sg825
(i__main__
DelphiBlock
p3625
(dp3626
g828
(idelphi
DelphiCompoundStatement
p3627
(dp3628
g831
(lp3629
(idelphi
DelphiIfStatement
p3630
(dp3631
g1013
(idelphi
DelphiNestedExpressionListAccess
p3632
(dp3633
g95
(lp3634
sg839
(lp3635
(idelphi
DelphiRelOp
p3636
(dp3637
g843
(i__main__
DelphiIdentAccess
p3638
(dp3639
g15
S'self'
p3640
sg95
(lp3641
(idelphi
DelphiFieldEndAccess
p3642
(dp3643
g850
S'wrappedLabelHeight'
p3644
sbasbsg852
(i__main__
DelphiIdentAccess
p3645
(dp3646
g15
S'self'
p3647
sg95
(lp3648
(idelphi
DelphiFieldEndAccess
p3649
(dp3650
g850
S'textHeight'
p3651
sbasbsg855
S'>'
sbasbsg1018
Nsg1019
(i__main__
DelphiExitStatement
p3652
(dp3653
g1100
g3609
sbsba(i__main__
DelphiAssignStatement
p3654
(dp3655
g835
(idelphi
DelphiAddOp
p3656
(dp3657
g990
S'+'
sg992
(i__main__
DelphiIdentAccess
p3658
(dp3659
g15
S'valueString'
p3660
sg95
(lp3661
sbsg997
(idelphi
DelphiStringAccess
p3662
(dp3663
g95
(lp3664
sg14
(idelphi
DelphiStringValue
p3665
(dp3666
g14
S':  '
p3667
sbsbsbsg857
(i__main__
DelphiIdentAccess
p3668
(dp3669
g15
S'stringToDisplay'
p3670
sg95
(lp3671
sbsba(idelphi
DelphiIfStatement
p3672
(dp3673
g1013
(idelphi
DelphiRelOp
p3674
(dp3675
g843
(i__main__
DelphiIdentAccess
p3676
(dp3677
g15
S'unitString'
p3678
sg95
(lp3679
sbsg852
(idelphi
DelphiStringAccess
p3680
(dp3681
g95
(lp3682
sg14
(idelphi
DelphiStringValue
p3683
(dp3684
g14
S'(no unit)'
p3685
sbsbsg855
g856
sbsg1018
Nsg1019
(i__main__
DelphiAssignStatement
p3686
(dp3687
g835
(idelphi
DelphiAddOp
p3688
(dp3689
g990
S'+'
sg992
(i__main__
DelphiIdentAccess
p3690
(dp3691
g15
S'unitString'
p3692
sg95
(lp3693
sbsg997
(idelphi
DelphiAddOp
p3694
(dp3695
g990
S'+'
sg992
(idelphi
DelphiStringAccess
p3696
(dp3697
g95
(lp3698
sg14
(idelphi
DelphiStringValue
p3699
(dp3700
g14
S' '
sbsbsg997
(i__main__
DelphiIdentAccess
p3701
(dp3702
g15
S'stringToDisplay'
p3703
sg95
(lp3704
sbsbsbsg857
(i__main__
DelphiIdentAccess
p3705
(dp3706
g15
S'stringToDisplay'
p3707
sg95
(lp3708
sbsbsba(i__main__
DelphiAssignStatement
p3709
(dp3710
g835
(i__main__
DelphiIdentAccess
p3711
(dp3712
g15
S'self'
p3713
sg95
(lp3714
(idelphi
DelphiFieldEndAccess
p3715
(dp3716
g850
S'getClientRect'
p3717
sbasbsg857
(i__main__
DelphiIdentAccess
p3718
(dp3719
g15
S'rect'
p3720
sg95
(lp3721
sbsba(idelphi
DelphiWithStatement
p3722
(dp3723
g906
(idelphi
DelphiCompoundStatement
p3724
(dp3725
g831
(lp3726
(i__main__
DelphiAssignStatement
p3727
(dp3728
g835
(idelphi
DelphiAddOp
p3729
(dp3730
g990
S'+'
sg992
(i__main__
DelphiIdentAccess
p3731
(dp3732
g15
S'self'
p3733
sg95
(lp3734
(idelphi
DelphiFieldEndAccess
p3735
(dp3736
g850
S'canvas'
p3737
sba(idelphi
DelphiFieldEndAccess
p3738
(dp3739
g850
S'textWidth'
p3740
sba(idelphi
DelphiFunctionEndAccess
p3741
(dp3742
g839
(lp3743
(i__main__
DelphiIdentAccess
p3744
(dp3745
g15
S'self'
p3746
sg95
(lp3747
(idelphi
DelphiFieldEndAccess
p3748
(dp3749
g850
S'caption'
p3750
sbasbasbasbsg997
(idelphi
DelphiAddOp
p3751
(dp3752
g990
S'+'
sg992
(i__main__
DelphiIdentAccess
p3753
(dp3754
g15
S'kBetweenGap'
p3755
sg95
(lp3756
sbsg997
(idelphi
DelphiAddOp
p3757
(dp3758
g990
S'+'
sg992
(i__main__
DelphiIdentAccess
p3759
(dp3760
g15
S'kOverridePictureSize'
p3761
sg95
(lp3762
sbsg997
(idelphi
DelphiAddOp
p3763
(dp3764
g990
S'+'
sg992
(i__main__
DelphiIdentAccess
p3765
(dp3766
g15
S'kArrowPictureSize'
p3767
sg95
(lp3768
sbsg997
(idelphi
DelphiAddOp
p3769
(dp3770
g990
S'+'
sg992
(i__main__
DelphiIdentAccess
p3771
(dp3772
g15
S'kLeftRightGap'
p3773
sg95
(lp3774
sbsg997
(i__main__
DelphiIdentAccess
p3775
(dp3776
g15
S'rect'
p3777
sg95
(lp3778
(idelphi
DelphiFieldEndAccess
p3779
(dp3780
g850
S'left'
p3781
sbasbsbsbsbsbsbsg857
(i__main__
DelphiIdentAccess
p3782
(dp3783
g15
S'left'
p3784
sg95
(lp3785
sbsba(i__main__
DelphiAssignStatement
p3786
(dp3787
g835
(i__main__
DelphiIdentAccess
p3788
(dp3789
g15
S'rect'
p3790
sg95
(lp3791
(idelphi
DelphiFieldEndAccess
p3792
(dp3793
g850
S'right'
p3794
sbasbsg857
(i__main__
DelphiIdentAccess
p3795
(dp3796
g15
S'right'
p3797
sg95
(lp3798
sbsba(i__main__
DelphiAssignStatement
p3799
(dp3800
g835
(idelphi
DelphiAddOp
p3801
(dp3802
g990
S'+'
sg992
(idelphi
DelphiIntegerValue
p3803
(dp3804
g14
S'2'
sbsg997
(i__main__
DelphiIdentAccess
p3805
(dp3806
g15
S'rect'
p3807
sg95
(lp3808
(idelphi
DelphiFieldEndAccess
p3809
(dp3810
g850
S'top'
p3811
sbasbsbsg857
(i__main__
DelphiIdentAccess
p3812
(dp3813
g15
S'top'
p3814
sg95
(lp3815
sbsba(i__main__
DelphiAssignStatement
p3816
(dp3817
g835
(idelphi
DelphiAddOp
p3818
(dp3819
g990
S'+'
sg992
(i__main__
DelphiIdentAccess
p3820
(dp3821
g15
S'self'
p3822
sg95
(lp3823
(idelphi
DelphiFieldEndAccess
p3824
(dp3825
g850
S'textHeight'
p3826
sbasbsg997
(i__main__
DelphiIdentAccess
p3827
(dp3828
g15
S'top'
p3829
sg95
(lp3830
sbsbsg857
(i__main__
DelphiIdentAccess
p3831
(dp3832
g15
S'bottom'
p3833
sg95
(lp3834
sbsbasbsg1002
(lp3835
(i__main__
DelphiIdentAccess
p3836
(dp3837
g15
S'collapsedExtraRect'
p3838
sg95
(lp3839
sbasba(idelphi
DelphiIfStatement
p3840
(dp3841
g1013
(idelphi
DelphiRelOp
p3842
(dp3843
g843
(i__main__
DelphiIdentAccess
p3844
(dp3845
g15
S'rWidth'
p3846
sg95
(lp3847
(idelphi
DelphiFunctionEndAccess
p3848
(dp3849
g839
(lp3850
(i__main__
DelphiIdentAccess
p3851
(dp3852
g15
S'collapsedExtraRect'
p3853
sg95
(lp3854
sbasbasbsg852
(i__main__
DelphiIdentAccess
p3855
(dp3856
g15
S'self'
p3857
sg95
(lp3858
(idelphi
DelphiFieldEndAccess
p3859
(dp3860
g850
S'canvas'
p3861
sba(idelphi
DelphiFieldEndAccess
p3862
(dp3863
g850
S'textWidth'
p3864
sba(idelphi
DelphiFunctionEndAccess
p3865
(dp3866
g839
(lp3867
(i__main__
DelphiIdentAccess
p3868
(dp3869
g15
S'stringToDisplay'
p3870
sg95
(lp3871
sbasbasbsg855
g1097
sbsg1018
Nsg1019
(i__main__
DelphiExitStatement
p3872
(dp3873
g1100
g3609
sbsba(i__main__
DelphiAssignStatement
p3874
(dp3875
g835
Nsg857
(i__main__
DelphiIdentAccess
p3876
(dp3877
g15
S'self'
p3878
sg95
(lp3879
(idelphi
DelphiFieldEndAccess
p3880
(dp3881
g850
S'drawText'
p3882
sba(idelphi
DelphiFunctionEndAccess
p3883
(dp3884
g839
(lp3885
(i__main__
DelphiIdentAccess
p3886
(dp3887
g15
S'stringToDisplay'
p3888
sg95
(lp3889
sba(i__main__
DelphiIdentAccess
p3890
(dp3891
g15
S'collapsedExtraRect'
p3892
sg95
(lp3893
sba(i__main__
DelphiIdentAccess
p3894
(dp3895
g15
S'false'
p3896
sg95
(lp3897
sba(i__main__
DelphiIdentAccess
p3898
(dp3899
g15
S'false'
p3900
sg95
(lp3901
sba(i__main__
DelphiIdentAccess
p3902
(dp3903
g15
S'false'
p3904
sg95
(lp3905
sbasbasbsbasbsg868
(lp3906
(i__main__
DelphiVarSection
p3907
(dp3908
g165
I0
sg1039
(lp3909
(idelphi
DelphiVarDecl
p3910
(dp3911
g11
Nsg1043
(lp3912
S'rect'
p3913
aS'collapsedExtraRect'
p3914
asg17
(i__main__
DelphiNamedType
p3915
(dp3916
g20
S'TRect'
p3917
sg228
g1
sg229
Nsbsba(idelphi
DelphiVarDecl
p3918
(dp3919
g11
Nsg1043
(lp3920
S'stringToDisplay'
p3921
asg17
(i__main__
DelphiPrimitiveType
p3922
(dp3923
g20
g14
sbsbasbasbsbsS'drawtextselectedbox'
p3924
(i__main__
DelphiMethodImplementation
p3925
(dp3926
g811
g459
sg192
g461
sg200
(lp3927
(i__main__
DelphiFormalParameter
p3928
(dp3929
g214
Nsg215
(lp3930
S'rect'
p3931
asg17
(i__main__
DelphiNamedType
p3932
(dp3933
g20
S'TRect'
p3934
sg228
g1
sg229
Nsbsg220
Nsbasg813
(lp3935
sg815
(lp3936
sg817
(lp3937
g819
ag3931
asg820
(dp3938
g3931
g3932
ssg202
S'PdParameterPanel'
p3939
sg203
Nsg823
(lp3940
sg204
I0
sg205
g206
sg825
(i__main__
DelphiBlock
p3941
(dp3942
g828
(idelphi
DelphiCompoundStatement
p3943
(dp3944
g831
(lp3945
(idelphi
DelphiWithStatement
p3946
(dp3947
g906
(idelphi
DelphiCompoundStatement
p3948
(dp3949
g831
(lp3950
(i__main__
DelphiAssignStatement
p3951
(dp3952
g835
(i__main__
DelphiIdentAccess
p3953
(dp3954
g15
S'clBtnShadow'
p3955
sg95
(lp3956
sbsg857
(i__main__
DelphiIdentAccess
p3957
(dp3958
g15
S'pen'
p3959
sg95
(lp3960
(idelphi
DelphiFieldEndAccess
p3961
(dp3962
g850
S'color'
p3963
sbasbsba(i__main__
DelphiAssignStatement
p3964
(dp3965
g835
Nsg857
(i__main__
DelphiIdentAccess
p3966
(dp3967
g15
S'moveTo'
p3968
sg95
(lp3969
(idelphi
DelphiFunctionEndAccess
p3970
(dp3971
g839
(lp3972
(idelphi
DelphiAddOp
p3973
(dp3974
g990
S'+'
sg992
(idelphi
DelphiIntegerValue
p3975
(dp3976
g14
S'2'
sbsg997
(i__main__
DelphiIdentAccess
p3977
(dp3978
g15
S'rect'
p3979
sg95
(lp3980
(idelphi
DelphiFieldEndAccess
p3981
(dp3982
g850
S'right'
p3983
sbasbsba(i__main__
DelphiIdentAccess
p3984
(dp3985
g15
S'rect'
p3986
sg95
(lp3987
(idelphi
DelphiFieldEndAccess
p3988
(dp3989
g850
S'top'
p3990
sbasbasbasbsba(i__main__
DelphiAssignStatement
p3991
(dp3992
g835
Nsg857
(i__main__
DelphiIdentAccess
p3993
(dp3994
g15
S'lineTo'
p3995
sg95
(lp3996
(idelphi
DelphiFunctionEndAccess
p3997
(dp3998
g839
(lp3999
(idelphi
DelphiAddOp
p4000
(dp4001
g990
S'-'
sg992
(idelphi
DelphiIntegerValue
p4002
(dp4003
g14
S'2'
sbsg997
(i__main__
DelphiIdentAccess
p4004
(dp4005
g15
S'rect'
p4006
sg95
(lp4007
(idelphi
DelphiFieldEndAccess
p4008
(dp4009
g850
S'left'
p4010
sbasbsba(i__main__
DelphiIdentAccess
p4011
(dp4012
g15
S'rect'
p4013
sg95
(lp4014
(idelphi
DelphiFieldEndAccess
p4015
(dp4016
g850
S'top'
p4017
sbasbasbasbsba(i__main__
DelphiAssignStatement
p4018
(dp4019
g835
Nsg857
(i__main__
DelphiIdentAccess
p4020
(dp4021
g15
S'lineTo'
p4022
sg95
(lp4023
(idelphi
DelphiFunctionEndAccess
p4024
(dp4025
g839
(lp4026
(idelphi
DelphiAddOp
p4027
(dp4028
g990
S'-'
sg992
(idelphi
DelphiIntegerValue
p4029
(dp4030
g14
S'2'
sbsg997
(i__main__
DelphiIdentAccess
p4031
(dp4032
g15
S'rect'
p4033
sg95
(lp4034
(idelphi
DelphiFieldEndAccess
p4035
(dp4036
g850
S'left'
p4037
sbasbsba(idelphi
DelphiAddOp
p4038
(dp4039
g990
S'-'
sg992
(idelphi
DelphiIntegerValue
p4040
(dp4041
g14
S'2'
sbsg997
(i__main__
DelphiIdentAccess
p4042
(dp4043
g15
S'rect'
p4044
sg95
(lp4045
(idelphi
DelphiFieldEndAccess
p4046
(dp4047
g850
S'bottom'
p4048
sbasbsbasbasbsba(i__main__
DelphiAssignStatement
p4049
(dp4050
g835
Nsg857
(i__main__
DelphiIdentAccess
p4051
(dp4052
g15
S'lineTo'
p4053
sg95
(lp4054
(idelphi
DelphiFunctionEndAccess
p4055
(dp4056
g839
(lp4057
(idelphi
DelphiAddOp
p4058
(dp4059
g990
S'+'
sg992
(idelphi
DelphiIntegerValue
p4060
(dp4061
g14
S'2'
sbsg997
(i__main__
DelphiIdentAccess
p4062
(dp4063
g15
S'rect'
p4064
sg95
(lp4065
(idelphi
DelphiFieldEndAccess
p4066
(dp4067
g850
S'right'
p4068
sbasbsba(idelphi
DelphiAddOp
p4069
(dp4070
g990
S'-'
sg992
(idelphi
DelphiIntegerValue
p4071
(dp4072
g14
S'2'
sbsg997
(i__main__
DelphiIdentAccess
p4073
(dp4074
g15
S'rect'
p4075
sg95
(lp4076
(idelphi
DelphiFieldEndAccess
p4077
(dp4078
g850
S'bottom'
p4079
sbasbsbasbasbsba(i__main__
DelphiAssignStatement
p4080
(dp4081
g835
Nsg857
(i__main__
DelphiIdentAccess
p4082
(dp4083
g15
S'lineTo'
p4084
sg95
(lp4085
(idelphi
DelphiFunctionEndAccess
p4086
(dp4087
g839
(lp4088
(idelphi
DelphiAddOp
p4089
(dp4090
g990
S'+'
sg992
(idelphi
DelphiIntegerValue
p4091
(dp4092
g14
S'2'
sbsg997
(i__main__
DelphiIdentAccess
p4093
(dp4094
g15
S'rect'
p4095
sg95
(lp4096
(idelphi
DelphiFieldEndAccess
p4097
(dp4098
g850
S'right'
p4099
sbasbsba(i__main__
DelphiIdentAccess
p4100
(dp4101
g15
S'rect'
p4102
sg95
(lp4103
(idelphi
DelphiFieldEndAccess
p4104
(dp4105
g850
S'top'
p4106
sbasbasbasbsbasbsg1002
(lp4107
(i__main__
DelphiIdentAccess
p4108
(dp4109
g15
S'canvas'
p4110
sg95
(lp4111
sbasbasbsg868
(lp4112
sbsbsS'collapseorexpand'
p4113
(i__main__
DelphiMethodImplementation
p4114
(dp4115
g811
g471
sg192
g473
sg200
(lp4116
(i__main__
DelphiFormalParameter
p4117
(dp4118
g214
Nsg215
(lp4119
S'y'
asg17
(i__main__
DelphiPrimitiveType
p4120
(dp4121
g20
g261
sbsg220
Nsbasg813
(lp4122
sg815
(lp4123
sg817
(lp4124
g819
aS'y'
asg820
(dp4125
S'y'
g4120
ssg202
S'PdParameterPanel'
p4126
sg203
Nsg823
(lp4127
sg204
I0
sg205
g206
sg825
(i__main__
DelphiBlock
p4128
(dp4129
g828
(idelphi
DelphiCompoundStatement
p4130
(dp4131
g831
(lp4132
(idelphi
DelphiIfStatement
p4133
(dp4134
g1013
(idelphi
DelphiRelOp
p4135
(dp4136
g843
(i__main__
DelphiIdentAccess
p4137
(dp4138
g15
S'y'
sg95
(lp4139
sbsg852
(i__main__
DelphiIdentAccess
p4140
(dp4141
g15
S'self'
p4142
sg95
(lp4143
(idelphi
DelphiFieldEndAccess
p4144
(dp4145
g850
S'collapsedHeight'
p4146
sbasbsg855
S'>'
sbsg1018
Nsg1019
(i__main__
DelphiExitStatement
p4147
(dp4148
g1100
g4114
sbsba(idelphi
DelphiIfStatement
p4149
(dp4150
g1013
(idelphi
DelphiRelOp
p4151
(dp4152
g843
(i__main__
DelphiIdentAccess
p4153
(dp4154
g15
S'param'
p4155
sg95
(lp4156
sbsg852
(idelphi
DelphiNilValue
p4157
(dp4158
bsg855
g856
sbsg1018
Nsg1019
(idelphi
DelphiCompoundStatement
p4159
(dp4160
g831
(lp4161
(idelphi
DelphiIfStatement
p4162
(dp4163
g1013
(idelphi
DelphiNot
p4164
(dp4165
g2100
(i__main__
DelphiIdentAccess
p4166
(dp4167
g15
S'param'
p4168
sg95
(lp4169
(idelphi
DelphiFieldEndAccess
p4170
(dp4171
g850
S'collapsed'
p4172
sbasbsbsg1018
(i__main__
DelphiAssignStatement
p4173
(dp4174
g835
Nsg857
(i__main__
DelphiIdentAccess
p4175
(dp4176
g15
S'self'
p4177
sg95
(lp4178
(idelphi
DelphiFieldEndAccess
p4179
(dp4180
g850
S'expand'
p4181
sbasbsbsg1019
(i__main__
DelphiAssignStatement
p4182
(dp4183
g835
Nsg857
(i__main__
DelphiIdentAccess
p4184
(dp4185
g15
S'self'
p4186
sg95
(lp4187
(idelphi
DelphiFieldEndAccess
p4188
(dp4189
g850
S'collapse'
p4190
sbasbsbsbasbsba(idelphi
DelphiIfStatement
p4191
(dp4192
g1013
(idelphi
DelphiMulOp
p4193
(dp4194
g1213
(idelphi
DelphiNestedExpressionListAccess
p4195
(dp4196
g95
(lp4197
sg839
(lp4198
(idelphi
DelphiNot
p4199
(dp4200
g2100
(i__main__
DelphiIdentAccess
p4201
(dp4202
g15
S'TMainForm'
p4203
sg95
(lp4204
(idelphi
DelphiFunctionEndAccess
p4205
(dp4206
g839
(lp4207
(i__main__
DelphiIdentAccess
p4208
(dp4209
g15
S'owner'
p4210
sg95
(lp4211
sbasba(idelphi
DelphiFieldEndAccess
p4212
(dp4213
g850
S'internalChange'
p4214
sbasbsbasbsg1234
g1235
sg1236
(idelphi
DelphiNestedExpressionListAccess
p4215
(dp4216
g95
(lp4217
sg839
(lp4218
(idelphi
DelphiRelOp
p4219
(dp4220
g843
(i__main__
DelphiIdentAccess
p4221
(dp4222
g15
S'owner'
p4223
sg95
(lp4224
sbsg852
(idelphi
DelphiNilValue
p4225
(dp4226
bsg855
g856
sbasbsbsg1018
Nsg1019
(i__main__
DelphiAssignStatement
p4227
(dp4228
g835
Nsg857
(i__main__
DelphiIdentAccess
p4229
(dp4230
g15
S'TMainForm'
p4231
sg95
(lp4232
(idelphi
DelphiFunctionEndAccess
p4233
(dp4234
g839
(lp4235
(i__main__
DelphiIdentAccess
p4236
(dp4237
g15
S'owner'
p4238
sg95
(lp4239
sbasba(idelphi
DelphiFieldEndAccess
p4240
(dp4241
g850
S'repositionParameterPanels'
p4242
sbasbsbsbasbsg868
(lp4243
sbsbsS'doonenter'
p4244
(i__main__
DelphiMethodImplementation
p4245
(dp4246
g811
g481
sg192
g483
sg200
(lp4247
(i__main__
DelphiFormalParameter
p4248
(dp4249
g214
Nsg215
(lp4250
S'sender'
p4251
asg17
(i__main__
DelphiNamedType
p4252
(dp4253
g20
S'TObject'
p4254
sg228
g1
sg229
Nsbsg220
Nsbasg813
(lp4255
sg815
(lp4256
sg817
(lp4257
g819
ag4251
asg820
(dp4258
g4251
g4252
ssg202
S'PdParameterPanel'
p4259
sg203
Nsg823
(lp4260
sg204
I0
sg205
g206
sg825
(i__main__
DelphiBlock
p4261
(dp4262
g828
(idelphi
DelphiCompoundStatement
p4263
(dp4264
g831
(lp4265
(i__main__
DelphiAssignStatement
p4266
(dp4267
g835
Nsg857
(i__main__
DelphiIdentAccess
p4268
(dp4269
g15
S'TMainForm'
p4270
sg95
(lp4271
(idelphi
DelphiFunctionEndAccess
p4272
(dp4273
g839
(lp4274
(i__main__
DelphiIdentAccess
p4275
(dp4276
g15
S'owner'
p4277
sg95
(lp4278
sbasba(idelphi
DelphiFieldEndAccess
p4279
(dp4280
g850
S'enteringAParameterPanel'
p4281
sba(idelphi
DelphiFunctionEndAccess
p4282
(dp4283
g839
(lp4284
(i__main__
DelphiIdentAccess
p4285
(dp4286
g15
S'self'
p4287
sg95
(lp4288
sbasbasbsba(idelphi
DelphiIfStatement
p4289
(dp4290
g1013
(i__main__
DelphiIdentAccess
p4291
(dp4292
g15
S'TMainForm'
p4293
sg95
(lp4294
(idelphi
DelphiFunctionEndAccess
p4295
(dp4296
g839
(lp4297
(i__main__
DelphiIdentAccess
p4298
(dp4299
g15
S'owner'
p4300
sg95
(lp4301
sbasba(idelphi
DelphiFieldEndAccess
p4302
(dp4303
g850
S'backTabbingInParametersPanel'
p4304
sbasbsg1018
Nsg1019
(idelphi
DelphiCompoundStatement
p4305
(dp4306
g831
(lp4307
(i__main__
DelphiAssignStatement
p4308
(dp4309
g835
(i__main__
DelphiIdentAccess
p4310
(dp4311
g15
S'self'
p4312
sg95
(lp4313
(idelphi
DelphiFieldEndAccess
p4314
(dp4315
g850
S'maxSelectedItemIndex'
p4316
sbasbsg857
(i__main__
DelphiIdentAccess
p4317
(dp4318
g15
S'self'
p4319
sg95
(lp4320
(idelphi
DelphiFieldEndAccess
p4321
(dp4322
g850
S'selectedItemIndex'
p4323
sbasbsba(i__main__
DelphiAssignStatement
p4324
(dp4325
g835
(i__main__
DelphiIdentAccess
p4326
(dp4327
g15
S'false'
p4328
sg95
(lp4329
sbsg857
(i__main__
DelphiIdentAccess
p4330
(dp4331
g15
S'TMainForm'
p4332
sg95
(lp4333
(idelphi
DelphiFunctionEndAccess
p4334
(dp4335
g839
(lp4336
(i__main__
DelphiIdentAccess
p4337
(dp4338
g15
S'owner'
p4339
sg95
(lp4340
sbasba(idelphi
DelphiFieldEndAccess
p4341
(dp4342
g850
S'backTabbingInParametersPanel'
p4343
sbasbsbasbsba(idelphi
DelphiIfStatement
p4344
(dp4345
g1013
(idelphi
DelphiRelOp
p4346
(dp4347
g843
(i__main__
DelphiIdentAccess
p4348
(dp4349
g15
S'self'
p4350
sg95
(lp4351
(idelphi
DelphiFieldEndAccess
p4352
(dp4353
g850
S'selectedItemIndex'
p4354
sbasbsg852
(i__main__
DelphiIdentAccess
p4355
(dp4356
g15
S'kItemNone'
p4357
sg95
(lp4358
sbsg855
S'='
sbsg1018
Nsg1019
(i__main__
DelphiAssignStatement
p4359
(dp4360
g835
(i__main__
DelphiIdentAccess
p4361
(dp4362
g15
S'kItemLabel'
p4363
sg95
(lp4364
sbsg857
(i__main__
DelphiIdentAccess
p4365
(dp4366
g15
S'self'
p4367
sg95
(lp4368
(idelphi
DelphiFieldEndAccess
p4369
(dp4370
g850
S'selectedItemIndex'
p4371
sbasbsbsba(i__main__
DelphiAssignStatement
p4372
(dp4373
g835
Nsg857
(i__main__
DelphiIdentAccess
p4374
(dp4375
g15
S'self'
p4376
sg95
(lp4377
(idelphi
DelphiFieldEndAccess
p4378
(dp4379
g850
S'invalidate'
p4380
sbasbsbasbsg868
(lp4381
sbsbsS'calculatelongestlabelwordwidth'
p4382
(i__main__
DelphiMethodImplementation
p4383
(dp4384
g811
g506
sg192
g508
sg200
(lp4385
sg813
(lp4386
sg815
(lp4387
sg817
(lp4388
g819
asg820
(dp4389
sg202
S'PdParameterPanel'
p4390
sg203
(i__main__
DelphiPrimitiveType
p4391
(dp4392
g20
g261
sbsg823
(lp4393
sg204
I0
sg205
g264
sg825
(i__main__
DelphiBlock
p4394
(dp4395
g828
(idelphi
DelphiCompoundStatement
p4396
(dp4397
g831
(lp4398
(i__main__
DelphiAssignStatement
p4399
(dp4400
g835
(idelphi
DelphiIntegerValue
p4401
(dp4402
g14
S'3'
sbsg857
(i__main__
DelphiIdentAccess
p4403
(dp4404
g15
S'lastSpace'
p4405
sg95
(lp4406
sbsg865
(lp4407
S' o: xxxxx xxxxxxxxx xx '
p4408
asba(i__main__
DelphiAssignStatement
p4409
(dp4410
g835
(idelphi
DelphiIntegerValue
p4411
(dp4412
g14
S'0'
sbsg857
(i__main__
DelphiIdentAccess
p4413
(dp4414
g15
S'maxLength'
p4415
sg95
(lp4416
sbsba(idelphi
DelphiForStatement
p4417
(dp4418
g1136
S'i'
sg1137
(i__main__
DelphiIdentAccess
p4419
(dp4420
g15
S'length'
p4421
sg95
(lp4422
(idelphi
DelphiFunctionEndAccess
p4423
(dp4424
g839
(lp4425
(i__main__
DelphiIdentAccess
p4426
(dp4427
g15
S'self'
p4428
sg95
(lp4429
(idelphi
DelphiFieldEndAccess
p4430
(dp4431
g850
S'caption'
p4432
sbasbasbasbsg1149
g1150
sg214
(idelphi
DelphiIntegerValue
p4433
(dp4434
g14
S'4'
sbsg906
(idelphi
DelphiCompoundStatement
p4435
(dp4436
g831
(lp4437
(idelphi
DelphiIfStatement
p4438
(dp4439
g1013
(idelphi
DelphiAddOp
p4440
(dp4441
g990
g991
sg992
(idelphi
DelphiNestedExpressionListAccess
p4442
(dp4443
g95
(lp4444
sg839
(lp4445
(idelphi
DelphiRelOp
p4446
(dp4447
g843
(i__main__
DelphiIdentAccess
p4448
(dp4449
g15
S'i'
sg95
(lp4450
sbsg852
(i__main__
DelphiIdentAccess
p4451
(dp4452
g15
S'length'
p4453
sg95
(lp4454
(idelphi
DelphiFunctionEndAccess
p4455
(dp4456
g839
(lp4457
(i__main__
DelphiIdentAccess
p4458
(dp4459
g15
S'self'
p4460
sg95
(lp4461
(idelphi
DelphiFieldEndAccess
p4462
(dp4463
g850
S'caption'
p4464
sbasbasbasbsg855
S'='
sbasbsg997
(idelphi
DelphiNestedExpressionListAccess
p4465
(dp4466
g95
(lp4467
sg839
(lp4468
(idelphi
DelphiRelOp
p4469
(dp4470
g843
(i__main__
DelphiIdentAccess
p4471
(dp4472
g15
S'caption'
p4473
sg95
(lp4474
(idelphi
DelphiArrayEndAccess
p4475
(dp4476
g839
(lp4477
(i__main__
DelphiIdentAccess
p4478
(dp4479
g15
S'i'
sg95
(lp4480
sbasbasbsg852
(idelphi
DelphiStringAccess
p4481
(dp4482
g95
(lp4483
sg14
(idelphi
DelphiStringValue
p4484
(dp4485
g14
S' '
sbsbsg855
S'='
sbasbsbsg1018
Nsg1019
(idelphi
DelphiCompoundStatement
p4486
(dp4487
g831
(lp4488
(idelphi
DelphiIfStatement
p4489
(dp4490
g1013
(idelphi
DelphiRelOp
p4491
(dp4492
g843
(idelphi
DelphiAddOp
p4493
(dp4494
g990
S'-'
sg992
(i__main__
DelphiIdentAccess
p4495
(dp4496
g15
S'lastSpace'
p4497
sg95
(lp4498
sbsg997
(i__main__
DelphiIdentAccess
p4499
(dp4500
g15
S'i'
sg95
(lp4501
sbsbsg852
(i__main__
DelphiIdentAccess
p4502
(dp4503
g15
S'maxLength'
p4504
sg95
(lp4505
sbsg855
S'>'
sbsg1018
Nsg1019
(i__main__
DelphiAssignStatement
p4506
(dp4507
g835
(idelphi
DelphiAddOp
p4508
(dp4509
g990
S'-'
sg992
(i__main__
DelphiIdentAccess
p4510
(dp4511
g15
S'lastSpace'
p4512
sg95
(lp4513
sbsg997
(i__main__
DelphiIdentAccess
p4514
(dp4515
g15
S'i'
sg95
(lp4516
sbsbsg857
(i__main__
DelphiIdentAccess
p4517
(dp4518
g15
S'maxLength'
p4519
sg95
(lp4520
sbsbsba(i__main__
DelphiAssignStatement
p4521
(dp4522
g835
(i__main__
DelphiIdentAccess
p4523
(dp4524
g15
S'i'
sg95
(lp4525
sbsg857
(i__main__
DelphiIdentAccess
p4526
(dp4527
g15
S'lastSpace'
p4528
sg95
(lp4529
sbsbasbsbasbsba(i__main__
DelphiAssignStatement
p4530
(dp4531
g835
(idelphi
DelphiMulOp
p4532
(dp4533
g1213
(i__main__
DelphiIdentAccess
p4534
(dp4535
g15
S'maxLength'
p4536
sg95
(lp4537
sbsg1234
S'*'
sg1236
(i__main__
DelphiIdentAccess
p4538
(dp4539
g15
S'self'
p4540
sg95
(lp4541
(idelphi
DelphiFieldEndAccess
p4542
(dp4543
g850
S'formTextWidth'
p4544
sba(idelphi
DelphiFunctionEndAccess
p4545
(dp4546
g839
(lp4547
(idelphi
DelphiStringAccess
p4548
(dp4549
g95
(lp4550
sg14
(idelphi
DelphiStringValue
p4551
(dp4552
g14
S'w'
sbsbasbasbsbsg857
(i__main__
DelphiIdentAccess
p4553
(dp4554
g15
S'result'
p4555
sg95
(lp4556
sbsbasbsg868
(lp4557
(i__main__
DelphiVarSection
p4558
(dp4559
g165
I0
sg1039
(lp4560
(idelphi
DelphiVarDecl
p4561
(dp4562
g11
Nsg1043
(lp4563
S'i'
aS'lastSpace'
p4564
aS'maxLength'
p4565
asg17
(i__main__
DelphiPrimitiveType
p4566
(dp4567
g20
g261
sbsbasbasbsbsS'doonexit'
p4568
(i__main__
DelphiMethodImplementation
p4569
(dp4570
g811
g513
sg192
g515
sg200
(lp4571
(i__main__
DelphiFormalParameter
p4572
(dp4573
g214
Nsg215
(lp4574
S'sender'
p4575
asg17
(i__main__
DelphiNamedType
p4576
(dp4577
g20
S'TObject'
p4578
sg228
g1
sg229
Nsbsg220
Nsbasg813
(lp4579
sg815
(lp4580
sg817
(lp4581
g819
ag4575
asg820
(dp4582
g4575
g4576
ssg202
S'PdParameterPanel'
p4583
sg203
Nsg823
(lp4584
sg204
I0
sg205
g206
sg825
(i__main__
DelphiBlock
p4585
(dp4586
g828
(idelphi
DelphiCompoundStatement
p4587
(dp4588
g831
(lp4589
(i__main__
DelphiAssignStatement
p4590
(dp4591
g835
Nsg857
(i__main__
DelphiIdentAccess
p4592
(dp4593
g15
S'TMainForm'
p4594
sg95
(lp4595
(idelphi
DelphiFunctionEndAccess
p4596
(dp4597
g839
(lp4598
(i__main__
DelphiIdentAccess
p4599
(dp4600
g15
S'owner'
p4601
sg95
(lp4602
sbasba(idelphi
DelphiFieldEndAccess
p4603
(dp4604
g850
S'leavingAParameterPanel'
p4605
sba(idelphi
DelphiFunctionEndAccess
p4606
(dp4607
g839
(lp4608
(i__main__
DelphiIdentAccess
p4609
(dp4610
g15
S'self'
p4611
sg95
(lp4612
sbasbasbsba(i__main__
DelphiAssignStatement
p4613
(dp4614
g835
(i__main__
DelphiIdentAccess
p4615
(dp4616
g15
S'kItemNone'
p4617
sg95
(lp4618
sbsg857
(i__main__
DelphiIdentAccess
p4619
(dp4620
g15
S'self'
p4621
sg95
(lp4622
(idelphi
DelphiFieldEndAccess
p4623
(dp4624
g850
S'selectedItemIndex'
p4625
sbasbsba(i__main__
DelphiAssignStatement
p4626
(dp4627
g835
Nsg857
(i__main__
DelphiIdentAccess
p4628
(dp4629
g15
S'self'
p4630
sg95
(lp4631
(idelphi
DelphiFieldEndAccess
p4632
(dp4633
g850
S'invalidate'
p4634
sbasbsbasbsg868
(lp4635
sbsbsS'collapse'
p4636
(i__main__
DelphiMethodImplementation
p4637
(dp4638
g811
g525
sg192
g527
sg200
(lp4639
sg813
(lp4640
sg815
(lp4641
sg817
(lp4642
g819
asg820
(dp4643
sg202
S'PdParameterPanel'
p4644
sg203
Nsg823
(lp4645
sg204
I0
sg205
g206
sg825
(i__main__
DelphiBlock
p4646
(dp4647
g828
(idelphi
DelphiCompoundStatement
p4648
(dp4649
g831
(lp4650
(idelphi
DelphiIfStatement
p4651
(dp4652
g1013
(idelphi
DelphiRelOp
p4653
(dp4654
g843
(i__main__
DelphiIdentAccess
p4655
(dp4656
g15
S'param'
p4657
sg95
(lp4658
sbsg852
(idelphi
DelphiNilValue
p4659
(dp4660
bsg855
g856
sbsg1018
Nsg1019
(i__main__
DelphiAssignStatement
p4661
(dp4662
g835
(i__main__
DelphiIdentAccess
p4663
(dp4664
g15
S'true'
p4665
sg95
(lp4666
sbsg857
(i__main__
DelphiIdentAccess
p4667
(dp4668
g15
S'param'
p4669
sg95
(lp4670
(idelphi
DelphiFieldEndAccess
p4671
(dp4672
g850
S'collapsed'
p4673
sbasbsbsba(i__main__
DelphiAssignStatement
p4674
(dp4675
g835
(i__main__
DelphiIdentAccess
p4676
(dp4677
g15
S'self'
p4678
sg95
(lp4679
(idelphi
DelphiFieldEndAccess
p4680
(dp4681
g850
S'collapsedHeight'
p4682
sbasbsg857
(i__main__
DelphiIdentAccess
p4683
(dp4684
g15
S'self'
p4685
sg95
(lp4686
(idelphi
DelphiFieldEndAccess
p4687
(dp4688
g850
S'height'
p4689
sbasbsbasbsg868
(lp4690
sbsbsS'tabthroughitems'
p4691
(i__main__
DelphiMethodImplementation
p4692
(dp4693
g811
g530
sg192
g532
sg200
(lp4694
(i__main__
DelphiFormalParameter
p4695
(dp4696
g214
Nsg215
(lp4697
S'goForward'
p4698
asg17
(i__main__
DelphiPrimitiveType
p4699
(dp4700
g20
g236
sbsg220
Nsbasg813
(lp4701
sg815
(lp4702
sg817
(lp4703
g819
ag4698
asg820
(dp4704
g4698
g4699
ssg202
S'PdParameterPanel'
p4705
sg203
Nsg823
(lp4706
sg204
I0
sg205
g206
sg825
(i__main__
DelphiBlock
p4707
(dp4708
g828
(idelphi
DelphiCompoundStatement
p4709
(dp4710
g831
(lp4711
(i__main__
DelphiAssignStatement
p4712
(dp4713
g835
(i__main__
DelphiIdentAccess
p4714
(dp4715
g15
S'self'
p4716
sg95
(lp4717
(idelphi
DelphiFieldEndAccess
p4718
(dp4719
g850
S'nextSelectedItemIndex'
p4720
sba(idelphi
DelphiFunctionEndAccess
p4721
(dp4722
g839
(lp4723
(i__main__
DelphiIdentAccess
p4724
(dp4725
g15
S'goForward'
p4726
sg95
(lp4727
sbasbasbsg857
(i__main__
DelphiIdentAccess
p4728
(dp4729
g15
S'self'
p4730
sg95
(lp4731
(idelphi
DelphiFieldEndAccess
p4732
(dp4733
g850
S'selectedItemIndex'
p4734
sbasbsg865
(lp4735
S' subclasses need not override this if they override maxSelectedItemIndex '
p4736
asba(idelphi
DelphiIfStatement
p4737
(dp4738
g1013
(idelphi
DelphiRelOp
p4739
(dp4740
g843
(i__main__
DelphiIdentAccess
p4741
(dp4742
g15
S'self'
p4743
sg95
(lp4744
(idelphi
DelphiFieldEndAccess
p4745
(dp4746
g850
S'selectedItemIndex'
p4747
sbasbsg852
(i__main__
DelphiIdentAccess
p4748
(dp4749
g15
S'self'
p4750
sg95
(lp4751
(idelphi
DelphiFieldEndAccess
p4752
(dp4753
g850
S'maxSelectedItemIndex'
p4754
sbasbsg855
S'>'
sbsg1018
Nsg1019
(i__main__
DelphiAssignStatement
p4755
(dp4756
g835
(i__main__
DelphiIdentAccess
p4757
(dp4758
g15
S'kItemNone'
p4759
sg95
(lp4760
sbsg857
(i__main__
DelphiIdentAccess
p4761
(dp4762
g15
S'self'
p4763
sg95
(lp4764
(idelphi
DelphiFieldEndAccess
p4765
(dp4766
g850
S'selectedItemIndex'
p4767
sbasbsbsba(i__main__
DelphiAssignStatement
p4768
(dp4769
g835
Nsg857
(i__main__
DelphiIdentAccess
p4770
(dp4771
g15
S'self'
p4772
sg95
(lp4773
(idelphi
DelphiFieldEndAccess
p4774
(dp4775
g850
S'invalidate'
p4776
sbasbsbasbsg868
(lp4777
sbsbsS'drawtext'
p4778
(i__main__
DelphiMethodImplementation
p4779
(dp4780
g811
g541
sg192
g543
sg200
(lp4781
(i__main__
DelphiFormalParameter
p4782
(dp4783
g214
Nsg215
(lp4784
S'text'
p4785
asg17
(i__main__
DelphiPrimitiveType
p4786
(dp4787
g20
g14
sbsg220
Nsba(i__main__
DelphiFormalParameter
p4788
(dp4789
g214
Nsg215
(lp4790
S'drawRect'
p4791
asg17
(i__main__
DelphiNamedType
p4792
(dp4793
g20
S'TRect'
p4794
sg228
g1
sg229
Nsbsg220
Nsba(i__main__
DelphiFormalParameter
p4795
(dp4796
g214
Nsg215
(lp4797
S'isSelectable'
p4798
aS'isSelected'
p4799
aS'italicize'
p4800
asg17
(i__main__
DelphiPrimitiveType
p4801
(dp4802
g20
g236
sbsg220
Nsbasg813
(lp4803
sg815
(lp4804
sg817
(lp4805
g819
ag4785
ag4791
ag4798
ag4799
ag4800
asg820
(dp4806
g4791
g4792
sg4785
g4786
sg4800
g4801
sg4798
g4801
sg4799
g4801
ssg202
S'PdParameterPanel'
p4807
sg203
(i__main__
DelphiPrimitiveType
p4808
(dp4809
g20
g261
sbsg823
(lp4810
sg204
I0
sg205
g264
sg825
(i__main__
DelphiBlock
p4811
(dp4812
g828
(idelphi
DelphiCompoundStatement
p4813
(dp4814
g831
(lp4815
(idelphi
DelphiWithStatement
p4816
(dp4817
g906
(idelphi
DelphiCompoundStatement
p4818
(dp4819
g831
(lp4820
(i__main__
DelphiAssignStatement
p4821
(dp4822
g835
(i__main__
DelphiIdentAccess
p4823
(dp4824
g15
S'self'
p4825
sg95
(lp4826
(idelphi
DelphiFieldEndAccess
p4827
(dp4828
g850
S'font'
p4829
sbasbsg857
(i__main__
DelphiIdentAccess
p4830
(dp4831
g15
S'font'
p4832
sg95
(lp4833
sbsba(idelphi
DelphiIfStatement
p4834
(dp4835
g1013
(idelphi
DelphiRelOp
p4836
(dp4837
g843
(i__main__
DelphiIdentAccess
p4838
(dp4839
g15
S'self'
p4840
sg95
(lp4841
(idelphi
DelphiFieldEndAccess
p4842
(dp4843
g850
S'plant'
p4844
sbasbsg852
(idelphi
DelphiNilValue
p4845
(dp4846
bsg855
g856
sbsg1018
(idelphi
DelphiCompoundStatement
p4847
(dp4848
g831
(lp4849
(idelphi
DelphiIfStatement
p4850
(dp4851
g1013
(idelphi
DelphiRelOp
p4852
(dp4853
g843
(i__main__
DelphiIdentAccess
p4854
(dp4855
g15
S'self'
p4856
sg95
(lp4857
sbsg852
(i__main__
DelphiIdentAccess
p4858
(dp4859
g15
S'PdHeaderParameterPanel'
p4860
sg95
(lp4861
sbsg855
S'is'
p4862
sbsg1018
(i__main__
DelphiAssignStatement
p4863
(dp4864
g835
(i__main__
DelphiIdentAccess
p4865
(dp4866
g15
S'clBtnShadow'
p4867
sg95
(lp4868
sbsg857
(i__main__
DelphiIdentAccess
p4869
(dp4870
g15
S'font'
p4871
sg95
(lp4872
(idelphi
DelphiFieldEndAccess
p4873
(dp4874
g850
S'color'
p4875
sbasbsbsg1019
(i__main__
DelphiAssignStatement
p4876
(dp4877
g835
(i__main__
DelphiIdentAccess
p4878
(dp4879
g15
S'clBtnFace'
p4880
sg95
(lp4881
sbsg857
(i__main__
DelphiIdentAccess
p4882
(dp4883
g15
S'font'
p4884
sg95
(lp4885
(idelphi
DelphiFieldEndAccess
p4886
(dp4887
g850
S'color'
p4888
sbasbsbsbasbsg1019
(idelphi
DelphiCompoundStatement
p4889
(dp4890
g831
(lp4891
(idelphi
DelphiIfStatement
p4892
(dp4893
g1013
(idelphi
DelphiRelOp
p4894
(dp4895
g843
(i__main__
DelphiIdentAccess
p4896
(dp4897
g15
S'self'
p4898
sg95
(lp4899
sbsg852
(i__main__
DelphiIdentAccess
p4900
(dp4901
g15
S'PdHeaderParameterPanel'
p4902
sg95
(lp4903
sbsg855
g4862
sbsg1018
(idelphi
DelphiIfStatement
p4904
(dp4905
g1013
(idelphi
DelphiRelOp
p4906
(dp4907
g843
(i__main__
DelphiIdentAccess
p4908
(dp4909
g15
S'text'
p4910
sg95
(lp4911
sbsg852
(i__main__
DelphiIdentAccess
p4912
(dp4913
g15
S'self'
p4914
sg95
(lp4915
(idelphi
DelphiFieldEndAccess
p4916
(dp4917
g850
S'caption'
p4918
sbasbsg855
S'='
sbsg1018
(i__main__
DelphiAssignStatement
p4919
(dp4920
g835
(i__main__
DelphiIdentAccess
p4921
(dp4922
g15
S'clBtnText'
p4923
sg95
(lp4924
sbsg857
(i__main__
DelphiIdentAccess
p4925
(dp4926
g15
S'font'
p4927
sg95
(lp4928
(idelphi
DelphiFieldEndAccess
p4929
(dp4930
g850
S'color'
p4931
sbasbsbsg1019
(i__main__
DelphiAssignStatement
p4932
(dp4933
g835
(i__main__
DelphiIdentAccess
p4934
(dp4935
g15
S'clBlue'
p4936
sg95
(lp4937
sbsg857
(i__main__
DelphiIdentAccess
p4938
(dp4939
g15
S'font'
p4940
sg95
(lp4941
(idelphi
DelphiFieldEndAccess
p4942
(dp4943
g850
S'color'
p4944
sbasbsbsbsg1019
(i__main__
DelphiAssignStatement
p4945
(dp4946
g835
(i__main__
DelphiIdentAccess
p4947
(dp4948
g15
S'clWhite'
p4949
sg95
(lp4950
sbsg857
(i__main__
DelphiIdentAccess
p4951
(dp4952
g15
S'font'
p4953
sg95
(lp4954
(idelphi
DelphiFieldEndAccess
p4955
(dp4956
g850
S'color'
p4957
sbasbsbsbasbsba(idelphi
DelphiIfStatement
p4958
(dp4959
g1013
(i__main__
DelphiIdentAccess
p4960
(dp4961
g15
S'italicize'
p4962
sg95
(lp4963
sbsg1018
Nsg1019
(i__main__
DelphiAssignStatement
p4964
(dp4965
g835
(idelphi
DelphiSetConstructor
p4966
(dp4967
g2858
(lp4968
(i__main__
DelphiIdentAccess
p4969
(dp4970
g15
S'fsItalic'
p4971
sg95
(lp4972
sbasbsg857
(i__main__
DelphiIdentAccess
p4973
(dp4974
g15
S'font'
p4975
sg95
(lp4976
(idelphi
DelphiFieldEndAccess
p4977
(dp4978
g850
S'style'
p4979
sbasbsbsba(idelphi
DelphiIfStatement
p4980
(dp4981
g1013
(idelphi
DelphiRelOp
p4982
(dp4983
g843
(i__main__
DelphiIdentAccess
p4984
(dp4985
g15
S'self'
p4986
sg95
(lp4987
sbsg852
(i__main__
DelphiIdentAccess
p4988
(dp4989
g15
S'PdHeaderParameterPanel'
p4990
sg95
(lp4991
sbsg855
g4862
sbsg1018
Nsg1019
(i__main__
DelphiAssignStatement
p4992
(dp4993
g835
(idelphi
DelphiSetConstructor
p4994
(dp4995
g2858
(lp4996
(i__main__
DelphiIdentAccess
p4997
(dp4998
g15
S'fsBold'
p4999
sg95
(lp5000
sbasbsg857
(i__main__
DelphiIdentAccess
p5001
(dp5002
g15
S'font'
p5003
sg95
(lp5004
(idelphi
DelphiFieldEndAccess
p5005
(dp5006
g850
S'style'
p5007
sbasbsbsba(i__main__
DelphiAssignStatement
p5008
(dp5009
g835
Nsg857
(i__main__
DelphiIdentAccess
p5010
(dp5011
g15
S'strPCopy'
p5012
sg95
(lp5013
(idelphi
DelphiFunctionEndAccess
p5014
(dp5015
g839
(lp5016
(i__main__
DelphiIdentAccess
p5017
(dp5018
g15
S'cText'
p5019
sg95
(lp5020
sba(i__main__
DelphiIdentAccess
p5021
(dp5022
g15
S'text'
p5023
sg95
(lp5024
sbasbasbsba(i__main__
DelphiAssignStatement
p5025
(dp5026
g835
(i__main__
DelphiIdentAccess
p5027
(dp5028
g15
S'winprocs'
p5029
sg95
(lp5030
(idelphi
DelphiFieldEndAccess
p5031
(dp5032
g850
S'drawText'
p5033
sba(idelphi
DelphiFunctionEndAccess
p5034
(dp5035
g839
(lp5036
(i__main__
DelphiIdentAccess
p5037
(dp5038
g15
S'handle'
p5039
sg95
(lp5040
sba(i__main__
DelphiIdentAccess
p5041
(dp5042
g15
S'cText'
p5043
sg95
(lp5044
sba(i__main__
DelphiIdentAccess
p5045
(dp5046
g15
S'strLen'
p5047
sg95
(lp5048
(idelphi
DelphiFunctionEndAccess
p5049
(dp5050
g839
(lp5051
(i__main__
DelphiIdentAccess
p5052
(dp5053
g15
S'cText'
p5054
sg95
(lp5055
sbasbasba(i__main__
DelphiIdentAccess
p5056
(dp5057
g15
S'drawRect'
p5058
sg95
(lp5059
sba(idelphi
DelphiAddOp
p5060
(dp5061
g990
g991
sg992
(i__main__
DelphiIdentAccess
p5062
(dp5063
g15
S'DT_NOCLIP'
p5064
sg95
(lp5065
sbsg997
(idelphi
DelphiAddOp
p5066
(dp5067
g990
g991
sg992
(i__main__
DelphiIdentAccess
p5068
(dp5069
g15
S'DT_WORDBREAK'
p5070
sg95
(lp5071
sbsg997
(i__main__
DelphiIdentAccess
p5072
(dp5073
g15
S'DT_LEFT'
p5074
sg95
(lp5075
sbsbsbasbasbsg857
(i__main__
DelphiIdentAccess
p5076
(dp5077
g15
S'result'
p5078
sg95
(lp5079
sbsba(i__main__
DelphiAssignStatement
p5080
(dp5081
g835
(idelphi
DelphiAddOp
p5082
(dp5083
g990
S'+'
sg992
(i__main__
DelphiIdentAccess
p5084
(dp5085
g15
S'result'
p5086
sg95
(lp5087
sbsg997
(i__main__
DelphiIdentAccess
p5088
(dp5089
g15
S'drawRect'
p5090
sg95
(lp5091
(idelphi
DelphiFieldEndAccess
p5092
(dp5093
g850
S'top'
p5094
sbasbsbsg857
(i__main__
DelphiIdentAccess
p5095
(dp5096
g15
S'drawRect'
p5097
sg95
(lp5098
(idelphi
DelphiFieldEndAccess
p5099
(dp5100
g850
S'bottom'
p5101
sbasbsba(idelphi
DelphiIfStatement
p5102
(dp5103
g1013
(idelphi
DelphiNestedExpressionListAccess
p5104
(dp5105
g95
(lp5106
sg839
(lp5107
(i__main__
DelphiIdentAccess
p5108
(dp5109
g15
S'isSelected'
p5110
sg95
(lp5111
sbasbsg1018
(idelphi
DelphiIfStatement
p5112
(dp5113
g1013
(idelphi
DelphiNestedExpressionListAccess
p5114
(dp5115
g95
(lp5116
sg839
(lp5117
(i__main__
DelphiIdentAccess
p5118
(dp5119
g15
S'isSelectable'
p5120
sg95
(lp5121
sbasbsg1018
Nsg1019
(idelphi
DelphiCompoundStatement
p5122
(dp5123
g831
(lp5124
(i__main__
DelphiAssignStatement
p5125
(dp5126
g835
(i__main__
DelphiIdentAccess
p5127
(dp5128
g15
S'clBtnShadow'
p5129
sg95
(lp5130
sbsg857
(i__main__
DelphiIdentAccess
p5131
(dp5132
g15
S'pen'
p5133
sg95
(lp5134
(idelphi
DelphiFieldEndAccess
p5135
(dp5136
g850
S'color'
p5137
sbasbsba(i__main__
DelphiAssignStatement
p5138
(dp5139
g835
Nsg857
(i__main__
DelphiIdentAccess
p5140
(dp5141
g15
S'moveTo'
p5142
sg95
(lp5143
(idelphi
DelphiFunctionEndAccess
p5144
(dp5145
g839
(lp5146
(i__main__
DelphiIdentAccess
p5147
(dp5148
g15
S'drawRect'
p5149
sg95
(lp5150
(idelphi
DelphiFieldEndAccess
p5151
(dp5152
g850
S'left'
p5153
sbasba(idelphi
DelphiAddOp
p5154
(dp5155
g990
S'-'
sg992
(idelphi
DelphiIntegerValue
p5156
(dp5157
g14
S'3'
sbsg997
(i__main__
DelphiIdentAccess
p5158
(dp5159
g15
S'drawRect'
p5160
sg95
(lp5161
(idelphi
DelphiFieldEndAccess
p5162
(dp5163
g850
S'bottom'
p5164
sbasbsbasbasbsba(i__main__
DelphiAssignStatement
p5165
(dp5166
g835
Nsg857
(i__main__
DelphiIdentAccess
p5167
(dp5168
g15
S'lineTo'
p5169
sg95
(lp5170
(idelphi
DelphiFunctionEndAccess
p5171
(dp5172
g839
(lp5173
(i__main__
DelphiIdentAccess
p5174
(dp5175
g15
S'drawRect'
p5176
sg95
(lp5177
(idelphi
DelphiFieldEndAccess
p5178
(dp5179
g850
S'right'
p5180
sbasba(idelphi
DelphiAddOp
p5181
(dp5182
g990
S'-'
sg992
(idelphi
DelphiIntegerValue
p5183
(dp5184
g14
S'3'
sbsg997
(i__main__
DelphiIdentAccess
p5185
(dp5186
g15
S'drawRect'
p5187
sg95
(lp5188
(idelphi
DelphiFieldEndAccess
p5189
(dp5190
g850
S'bottom'
p5191
sbasbsbasbasbsbasbsbsg1019
(i__main__
DelphiAssignStatement
p5192
(dp5193
g835
Nsg857
(i__main__
DelphiIdentAccess
p5194
(dp5195
g15
S'self'
p5196
sg95
(lp5197
(idelphi
DelphiFieldEndAccess
p5198
(dp5199
g850
S'drawTextSelectedBox'
p5200
sba(idelphi
DelphiFunctionEndAccess
p5201
(dp5202
g839
(lp5203
(i__main__
DelphiIdentAccess
p5204
(dp5205
g15
S'drawRect'
p5206
sg95
(lp5207
sbasbasbsbsbasbsg1002
(lp5208
(i__main__
DelphiIdentAccess
p5209
(dp5210
g15
S'self'
p5211
sg95
(lp5212
(idelphi
DelphiFieldEndAccess
p5213
(dp5214
g850
S'canvas'
p5215
sbasbasbasbsg868
(lp5216
(i__main__
DelphiVarSection
p5217
(dp5218
g165
I0
sg1039
(lp5219
(idelphi
DelphiVarDecl
p5220
(dp5221
g11
Nsg1043
(lp5222
S'cText'
p5223
asg17
(i__main__
DelphiArrayType
p5224
(dp5225
g17
(i__main__
DelphiPrimitiveType
p5226
(dp5227
g20
g1050
sbsg1051
(lp5228
(idelphi
DelphiSubrange
p5229
(dp5230
g1055
(idelphi
DelphiIntegerValue
p5231
(dp5232
g14
S'255'
p5233
sbsg1059
(idelphi
DelphiIntegerValue
p5234
(dp5235
g14
S'0'
sbsg192
S''
sbasbsbasbasbsbsS'fillwithbevels'
p5236
(i__main__
DelphiMethodImplementation
p5237
(dp5238
g811
g569
sg192
g571
sg200
(lp5239
sg813
(lp5240
sg815
(lp5241
sg817
(lp5242
g819
asg820
(dp5243
sg202
S'PdParameterPanel'
p5244
sg203
Nsg823
(lp5245
sg204
I0
sg205
g206
sg825
(i__main__
DelphiBlock
p5246
(dp5247
g828
(idelphi
DelphiCompoundStatement
p5248
(dp5249
g831
(lp5250
(i__main__
DelphiAssignStatement
p5251
(dp5252
g835
(i__main__
DelphiIdentAccess
p5253
(dp5254
g15
S'getClientRect'
p5255
sg95
(lp5256
sbsg857
(i__main__
DelphiIdentAccess
p5257
(dp5258
g15
S'fullRect'
p5259
sg95
(lp5260
sbsg865
(lp5261
S' PDF PORT moved function inline \r'
p5262
aS' procedure AdjustColors(Bevel: TPanelBevel);\r'
p5263
aS'  begin\r'
p5264
aS'  TopColor := clBtnHighlight;\r'
p5265
aS'  if Bevel = bvLowered then TopColor := clBtnShadow;\r'
p5266
aS'  BottomColor := clBtnShadow;\r'
p5267
aS'  if Bevel = bvLowered then BottomColor := clBtnHighlight;\r'
p5268
aS'  end;\r'
p5269
asba(idelphi
DelphiWithStatement
p5270
(dp5271
g906
(idelphi
DelphiCompoundStatement
p5272
(dp5273
g831
(lp5274
(i__main__
DelphiAssignStatement
p5275
(dp5276
g835
(i__main__
DelphiIdentAccess
p5277
(dp5278
g15
S'clBtnFace'
p5279
sg95
(lp5280
sbsg857
(i__main__
DelphiIdentAccess
p5281
(dp5282
g15
S'brush'
p5283
sg95
(lp5284
(idelphi
DelphiFieldEndAccess
p5285
(dp5286
g850
S'color'
p5287
sbasbsba(i__main__
DelphiAssignStatement
p5288
(dp5289
g835
(i__main__
DelphiIdentAccess
p5290
(dp5291
g15
S'getParentForm'
p5292
sg95
(lp5293
(idelphi
DelphiFunctionEndAccess
p5294
(dp5295
g839
(lp5296
(i__main__
DelphiIdentAccess
p5297
(dp5298
g15
S'self'
p5299
sg95
(lp5300
sbasbasbsg857
(i__main__
DelphiIdentAccess
p5301
(dp5302
g15
S'theForm'
p5303
sg95
(lp5304
sbsba(idelphi
DelphiIfStatement
p5305
(dp5306
g1013
(idelphi
DelphiMulOp
p5307
(dp5308
g1213
(idelphi
DelphiNestedExpressionListAccess
p5309
(dp5310
g95
(lp5311
sg839
(lp5312
(idelphi
DelphiRelOp
p5313
(dp5314
g843
(idelphi
DelphiNestedExpressionListAccess
p5315
(dp5316
g95
(lp5317
(idelphi
DelphiFieldEndAccess
p5318
(dp5319
g850
S'selectedParameterPanel'
p5320
sbasg839
(lp5321
(idelphi
DelphiMulOp
p5322
(dp5323
g1213
(i__main__
DelphiIdentAccess
p5324
(dp5325
g15
S'TMainForm'
p5326
sg95
(lp5327
sbsg1234
S'as'
p5328
sg1236
(i__main__
DelphiIdentAccess
p5329
(dp5330
g15
S'theForm'
p5331
sg95
(lp5332
sbsbasbsg852
(i__main__
DelphiIdentAccess
p5333
(dp5334
g15
S'self'
p5335
sg95
(lp5336
sbsg855
S'='
sbasbsg1234
g1235
sg1236
(idelphi
DelphiMulOp
p5337
(dp5338
g1213
(idelphi
DelphiNestedExpressionListAccess
p5339
(dp5340
g95
(lp5341
sg839
(lp5342
(idelphi
DelphiRelOp
p5343
(dp5344
g843
(i__main__
DelphiIdentAccess
p5345
(dp5346
g15
S'theForm'
p5347
sg95
(lp5348
sbsg852
(i__main__
DelphiIdentAccess
p5349
(dp5350
g15
S'TMainForm'
p5351
sg95
(lp5352
sbsg855
g4862
sbasbsg1234
g1235
sg1236
(idelphi
DelphiNestedExpressionListAccess
p5353
(dp5354
g95
(lp5355
sg839
(lp5356
(idelphi
DelphiRelOp
p5357
(dp5358
g843
(i__main__
DelphiIdentAccess
p5359
(dp5360
g15
S'theForm'
p5361
sg95
(lp5362
sbsg852
(idelphi
DelphiNilValue
p5363
(dp5364
bsg855
g856
sbasbsbsbsg1018
(i__main__
DelphiAssignStatement
p5365
(dp5366
g835
Nsg857
(i__main__
DelphiIdentAccess
p5367
(dp5368
g15
S'fillRect'
p5369
sg95
(lp5370
(idelphi
DelphiFunctionEndAccess
p5371
(dp5372
g839
(lp5373
(i__main__
DelphiIdentAccess
p5374
(dp5375
g15
S'fullRect'
p5376
sg95
(lp5377
sbasbasbsbsg1019
(idelphi
DelphiCompoundStatement
p5378
(dp5379
g831
(lp5380
(i__main__
DelphiAssignStatement
p5381
(dp5382
g835
(i__main__
DelphiIdentAccess
p5383
(dp5384
g15
S'clHighlight'
p5385
sg95
(lp5386
sbsg857
(i__main__
DelphiIdentAccess
p5387
(dp5388
g15
S'pen'
p5389
sg95
(lp5390
(idelphi
DelphiFieldEndAccess
p5391
(dp5392
g850
S'color'
p5393
sbasbsba(i__main__
DelphiAssignStatement
p5394
(dp5395
g835
(i__main__
DelphiIdentAccess
p5396
(dp5397
g15
S'psSolid'
p5398
sg95
(lp5399
sbsg857
(i__main__
DelphiIdentAccess
p5400
(dp5401
g15
S'pen'
p5402
sg95
(lp5403
(idelphi
DelphiFieldEndAccess
p5404
(dp5405
g850
S'style'
p5406
sbasbsba(idelphi
DelphiWithStatement
p5407
(dp5408
g906
(i__main__
DelphiAssignStatement
p5409
(dp5410
g835
Nsg857
(i__main__
DelphiIdentAccess
p5411
(dp5412
g15
S'rectangle'
p5413
sg95
(lp5414
(idelphi
DelphiFunctionEndAccess
p5415
(dp5416
g839
(lp5417
(idelphi
DelphiAddOp
p5418
(dp5419
g990
S'+'
sg992
(idelphi
DelphiIntegerValue
p5420
(dp5421
g14
S'2'
sbsg997
(i__main__
DelphiIdentAccess
p5422
(dp5423
g15
S'left'
p5424
sg95
(lp5425
sbsba(idelphi
DelphiAddOp
p5426
(dp5427
g990
S'+'
sg992
(idelphi
DelphiIntegerValue
p5428
(dp5429
g14
S'2'
sbsg997
(i__main__
DelphiIdentAccess
p5430
(dp5431
g15
S'top'
p5432
sg95
(lp5433
sbsba(idelphi
DelphiAddOp
p5434
(dp5435
g990
S'-'
sg992
(idelphi
DelphiIntegerValue
p5436
(dp5437
g14
S'1'
sbsg997
(i__main__
DelphiIdentAccess
p5438
(dp5439
g15
S'right'
p5440
sg95
(lp5441
sbsba(idelphi
DelphiAddOp
p5442
(dp5443
g990
S'-'
sg992
(idelphi
DelphiIntegerValue
p5444
(dp5445
g14
S'1'
sbsg997
(i__main__
DelphiIdentAccess
p5446
(dp5447
g15
S'bottom'
p5448
sg95
(lp5449
sbsbasbasbsg865
(lp5450
S' pen.width := 2; '
p5451
asbsg1002
(lp5452
(i__main__
DelphiIdentAccess
p5453
(dp5454
g15
S'fullRect'
p5455
sg95
(lp5456
sbasbasbsba(i__main__
DelphiAssignStatement
p5457
(dp5458
g835
(i__main__
DelphiIdentAccess
p5459
(dp5460
g15
S'bsClear'
p5461
sg95
(lp5462
sbsg857
(i__main__
DelphiIdentAccess
p5463
(dp5464
g15
S'brush'
p5465
sg95
(lp5466
(idelphi
DelphiFieldEndAccess
p5467
(dp5468
g850
S'style'
p5469
sbasbsbasbsg1002
(lp5470
(i__main__
DelphiIdentAccess
p5471
(dp5472
g15
S'canvas'
p5473
sg95
(lp5474
sbasba(idelphi
DelphiIfStatement
p5475
(dp5476
g1013
(idelphi
DelphiRelOp
p5477
(dp5478
g843
(i__main__
DelphiIdentAccess
p5479
(dp5480
g15
S'BevelOuter'
p5481
sg95
(lp5482
sbsg852
(i__main__
DelphiIdentAccess
p5483
(dp5484
g15
S'bvNone'
p5485
sg95
(lp5486
sbsg855
g856
sbsg1018
Nsg1019
(idelphi
DelphiCompoundStatement
p5487
(dp5488
g831
(lp5489
(i__main__
DelphiAssignStatement
p5490
(dp5491
g835
(i__main__
DelphiIdentAccess
p5492
(dp5493
g15
S'clBtnHighlight'
p5494
sg95
(lp5495
sbsg857
(i__main__
DelphiIdentAccess
p5496
(dp5497
g15
S'TopColor'
p5498
sg95
(lp5499
sbsg865
(lp5500
S' AdjustColors(BevelOuter);\r'
p5501
asba(idelphi
DelphiIfStatement
p5502
(dp5503
g1013
(idelphi
DelphiRelOp
p5504
(dp5505
g843
(i__main__
DelphiIdentAccess
p5506
(dp5507
g15
S'BevelOuter'
p5508
sg95
(lp5509
sbsg852
(i__main__
DelphiIdentAccess
p5510
(dp5511
g15
S'bvLowered'
p5512
sg95
(lp5513
sbsg855
S'='
sbsg1018
Nsg1019
(i__main__
DelphiAssignStatement
p5514
(dp5515
g835
(i__main__
DelphiIdentAccess
p5516
(dp5517
g15
S'clBtnShadow'
p5518
sg95
(lp5519
sbsg857
(i__main__
DelphiIdentAccess
p5520
(dp5521
g15
S'TopColor'
p5522
sg95
(lp5523
sbsbsba(i__main__
DelphiAssignStatement
p5524
(dp5525
g835
(i__main__
DelphiIdentAccess
p5526
(dp5527
g15
S'clBtnShadow'
p5528
sg95
(lp5529
sbsg857
(i__main__
DelphiIdentAccess
p5530
(dp5531
g15
S'BottomColor'
p5532
sg95
(lp5533
sbsba(idelphi
DelphiIfStatement
p5534
(dp5535
g1013
(idelphi
DelphiRelOp
p5536
(dp5537
g843
(i__main__
DelphiIdentAccess
p5538
(dp5539
g15
S'BevelOuter'
p5540
sg95
(lp5541
sbsg852
(i__main__
DelphiIdentAccess
p5542
(dp5543
g15
S'bvLowered'
p5544
sg95
(lp5545
sbsg855
S'='
sbsg1018
Nsg1019
(i__main__
DelphiAssignStatement
p5546
(dp5547
g835
(i__main__
DelphiIdentAccess
p5548
(dp5549
g15
S'clBtnHighlight'
p5550
sg95
(lp5551
sbsg857
(i__main__
DelphiIdentAccess
p5552
(dp5553
g15
S'BottomColor'
p5554
sg95
(lp5555
sbsbsba(i__main__
DelphiAssignStatement
p5556
(dp5557
g835
Nsg857
(i__main__
DelphiIdentAccess
p5558
(dp5559
g15
S'Frame3D'
p5560
sg95
(lp5561
(idelphi
DelphiFunctionEndAccess
p5562
(dp5563
g839
(lp5564
(i__main__
DelphiIdentAccess
p5565
(dp5566
g15
S'Canvas'
p5567
sg95
(lp5568
sba(i__main__
DelphiIdentAccess
p5569
(dp5570
g15
S'fullRect'
p5571
sg95
(lp5572
sba(i__main__
DelphiIdentAccess
p5573
(dp5574
g15
S'TopColor'
p5575
sg95
(lp5576
sba(i__main__
DelphiIdentAccess
p5577
(dp5578
g15
S'BottomColor'
p5579
sg95
(lp5580
sba(i__main__
DelphiIdentAccess
p5581
(dp5582
g15
S'BevelWidth'
p5583
sg95
(lp5584
sbasbasbsbasbsba(i__main__
DelphiAssignStatement
p5585
(dp5586
g835
Nsg857
(i__main__
DelphiIdentAccess
p5587
(dp5588
g15
S'Frame3D'
p5589
sg95
(lp5590
(idelphi
DelphiFunctionEndAccess
p5591
(dp5592
g839
(lp5593
(i__main__
DelphiIdentAccess
p5594
(dp5595
g15
S'Canvas'
p5596
sg95
(lp5597
sba(i__main__
DelphiIdentAccess
p5598
(dp5599
g15
S'fullRect'
p5600
sg95
(lp5601
sba(i__main__
DelphiIdentAccess
p5602
(dp5603
g15
S'Color'
p5604
sg95
(lp5605
sba(i__main__
DelphiIdentAccess
p5606
(dp5607
g15
S'Color'
p5608
sg95
(lp5609
sba(i__main__
DelphiIdentAccess
p5610
(dp5611
g15
S'BorderWidth'
p5612
sg95
(lp5613
sbasbasbsba(idelphi
DelphiIfStatement
p5614
(dp5615
g1013
(idelphi
DelphiRelOp
p5616
(dp5617
g843
(i__main__
DelphiIdentAccess
p5618
(dp5619
g15
S'BevelInner'
p5620
sg95
(lp5621
sbsg852
(i__main__
DelphiIdentAccess
p5622
(dp5623
g15
S'bvNone'
p5624
sg95
(lp5625
sbsg855
g856
sbsg1018
Nsg1019
(idelphi
DelphiCompoundStatement
p5626
(dp5627
g831
(lp5628
(i__main__
DelphiAssignStatement
p5629
(dp5630
g835
(i__main__
DelphiIdentAccess
p5631
(dp5632
g15
S'clBtnHighlight'
p5633
sg95
(lp5634
sbsg857
(i__main__
DelphiIdentAccess
p5635
(dp5636
g15
S'TopColor'
p5637
sg95
(lp5638
sbsg865
(lp5639
S' AdjustColors(BevelInner);\r'
p5640
asba(idelphi
DelphiIfStatement
p5641
(dp5642
g1013
(idelphi
DelphiRelOp
p5643
(dp5644
g843
(i__main__
DelphiIdentAccess
p5645
(dp5646
g15
S'BevelInner'
p5647
sg95
(lp5648
sbsg852
(i__main__
DelphiIdentAccess
p5649
(dp5650
g15
S'bvLowered'
p5651
sg95
(lp5652
sbsg855
S'='
sbsg1018
Nsg1019
(i__main__
DelphiAssignStatement
p5653
(dp5654
g835
(i__main__
DelphiIdentAccess
p5655
(dp5656
g15
S'clBtnShadow'
p5657
sg95
(lp5658
sbsg857
(i__main__
DelphiIdentAccess
p5659
(dp5660
g15
S'TopColor'
p5661
sg95
(lp5662
sbsbsba(i__main__
DelphiAssignStatement
p5663
(dp5664
g835
(i__main__
DelphiIdentAccess
p5665
(dp5666
g15
S'clBtnShadow'
p5667
sg95
(lp5668
sbsg857
(i__main__
DelphiIdentAccess
p5669
(dp5670
g15
S'BottomColor'
p5671
sg95
(lp5672
sbsba(idelphi
DelphiIfStatement
p5673
(dp5674
g1013
(idelphi
DelphiRelOp
p5675
(dp5676
g843
(i__main__
DelphiIdentAccess
p5677
(dp5678
g15
S'BevelInner'
p5679
sg95
(lp5680
sbsg852
(i__main__
DelphiIdentAccess
p5681
(dp5682
g15
S'bvLowered'
p5683
sg95
(lp5684
sbsg855
S'='
sbsg1018
Nsg1019
(i__main__
DelphiAssignStatement
p5685
(dp5686
g835
(i__main__
DelphiIdentAccess
p5687
(dp5688
g15
S'clBtnHighlight'
p5689
sg95
(lp5690
sbsg857
(i__main__
DelphiIdentAccess
p5691
(dp5692
g15
S'BottomColor'
p5693
sg95
(lp5694
sbsbsba(i__main__
DelphiAssignStatement
p5695
(dp5696
g835
Nsg857
(i__main__
DelphiIdentAccess
p5697
(dp5698
g15
S'Frame3D'
p5699
sg95
(lp5700
(idelphi
DelphiFunctionEndAccess
p5701
(dp5702
g839
(lp5703
(i__main__
DelphiIdentAccess
p5704
(dp5705
g15
S'Canvas'
p5706
sg95
(lp5707
sba(i__main__
DelphiIdentAccess
p5708
(dp5709
g15
S'fullRect'
p5710
sg95
(lp5711
sba(i__main__
DelphiIdentAccess
p5712
(dp5713
g15
S'TopColor'
p5714
sg95
(lp5715
sba(i__main__
DelphiIdentAccess
p5716
(dp5717
g15
S'BottomColor'
p5718
sg95
(lp5719
sba(i__main__
DelphiIdentAccess
p5720
(dp5721
g15
S'BevelWidth'
p5722
sg95
(lp5723
sbasbasbsbasbsbasbsg868
(lp5724
(i__main__
DelphiVarSection
p5725
(dp5726
g165
I0
sg1039
(lp5727
(idelphi
DelphiVarDecl
p5728
(dp5729
g11
Nsg1043
(lp5730
S'fullRect'
p5731
asg17
(i__main__
DelphiNamedType
p5732
(dp5733
g20
S'TRect'
p5734
sg228
g1
sg229
Nsbsba(idelphi
DelphiVarDecl
p5735
(dp5736
g11
Nsg1043
(lp5737
S'TopColor'
p5738
aS'BottomColor'
p5739
asg17
(i__main__
DelphiNamedType
p5740
(dp5741
g20
S'TColor'
p5742
sg228
g1
sg229
Nsbsba(idelphi
DelphiVarDecl
p5743
(dp5744
g11
Nsg1043
(lp5745
S'theForm'
p5746
asg17
(i__main__
DelphiNamedType
p5747
(dp5748
g20
S'TCustomForm'
p5749
sg228
g1
sg229
NsbsbasbasbsbsS'initialize'
p5750
(i__main__
DelphiMethodImplementation
p5751
(dp5752
g811
g574
sg192
g576
sg200
(lp5753
sg813
(lp5754
sg815
(lp5755
sg817
(lp5756
g819
asg820
(dp5757
sg202
S'PdParameterPanel'
p5758
sg203
Nsg823
(lp5759
sg204
I0
sg205
g206
sg825
(i__main__
DelphiBlock
p5760
(dp5761
g828
(idelphi
DelphiCompoundStatement
p5762
(dp5763
g831
Nsg865
(lp5764
S' sublasses can override '
p5765
asbsg868
(lp5766
sbsbsS'resizeelements'
p5767
(i__main__
DelphiMethodImplementation
p5768
(dp5769
g811
g579
sg192
g581
sg200
(lp5770
sg813
(lp5771
sg815
(lp5772
sg817
(lp5773
g819
asg820
(dp5774
sg202
S'PdParameterPanel'
p5775
sg203
Nsg823
(lp5776
sg204
I0
sg205
g206
sg825
(i__main__
DelphiBlock
p5777
(dp5778
g828
(idelphi
DelphiCompoundStatement
p5779
(dp5780
g831
Nsg865
(lp5781
S' subclasses must override '
p5782
asbsg868
(lp5783
sbsbsS'expand'
p5784
(i__main__
DelphiMethodImplementation
p5785
(dp5786
g811
g584
sg192
g586
sg200
(lp5787
sg813
(lp5788
sg815
(lp5789
sg817
(lp5790
g819
asg820
(dp5791
sg202
S'PdParameterPanel'
p5792
sg203
Nsg823
(lp5793
sg204
I0
sg205
g206
sg825
(i__main__
DelphiBlock
p5794
(dp5795
g828
(idelphi
DelphiCompoundStatement
p5796
(dp5797
g831
(lp5798
(idelphi
DelphiIfStatement
p5799
(dp5800
g1013
(idelphi
DelphiRelOp
p5801
(dp5802
g843
(i__main__
DelphiIdentAccess
p5803
(dp5804
g15
S'param'
p5805
sg95
(lp5806
sbsg852
(idelphi
DelphiNilValue
p5807
(dp5808
bsg855
g856
sbsg1018
Nsg1019
(i__main__
DelphiAssignStatement
p5809
(dp5810
g835
(i__main__
DelphiIdentAccess
p5811
(dp5812
g15
S'false'
p5813
sg95
(lp5814
sbsg857
(i__main__
DelphiIdentAccess
p5815
(dp5816
g15
S'param'
p5817
sg95
(lp5818
(idelphi
DelphiFieldEndAccess
p5819
(dp5820
g850
S'collapsed'
p5821
sbasbsbsba(i__main__
DelphiAssignStatement
p5822
(dp5823
g835
(i__main__
DelphiIdentAccess
p5824
(dp5825
g15
S'self'
p5826
sg95
(lp5827
(idelphi
DelphiFieldEndAccess
p5828
(dp5829
g850
S'uncollapsedHeight'
p5830
sbasbsg857
(i__main__
DelphiIdentAccess
p5831
(dp5832
g15
S'self'
p5833
sg95
(lp5834
(idelphi
DelphiFieldEndAccess
p5835
(dp5836
g850
S'height'
p5837
sbasbsbasg865
(lp5838
S'  updateCurrentValue(-1); '
p5839
aS"cfk don't think i need this anymore"
p5840
asbsg868
(lp5841
sbsbsS'maxselecteditemindex'
p5842
(i__main__
DelphiMethodImplementation
p5843
(dp5844
g811
g602
sg192
g604
sg200
(lp5845
sg813
(lp5846
sg815
(lp5847
sg817
(lp5848
g819
asg820
(dp5849
sg202
S'PdParameterPanel'
p5850
sg203
(i__main__
DelphiPrimitiveType
p5851
(dp5852
g20
g261
sbsg823
(lp5853
sg204
I0
sg205
g264
sg825
(i__main__
DelphiBlock
p5854
(dp5855
g828
(idelphi
DelphiCompoundStatement
p5856
(dp5857
g831
(lp5858
(i__main__
DelphiAssignStatement
p5859
(dp5860
g835
(idelphi
DelphiIntegerValue
p5861
(dp5862
g14
S'0'
sbsg857
(i__main__
DelphiIdentAccess
p5863
(dp5864
g15
S'result'
p5865
sg95
(lp5866
sbsg865
(lp5867
S' subclasses should override '
p5868
asbasbsg868
(lp5869
sbsbsS'updatecurrentvalue'
p5870
(i__main__
DelphiMethodImplementation
p5871
(dp5872
g811
g609
sg192
g611
sg200
(lp5873
(i__main__
DelphiFormalParameter
p5874
(dp5875
g214
Nsg215
(lp5876
S'aFieldIndex'
p5877
asg17
(i__main__
DelphiPrimitiveType
p5878
(dp5879
g20
g261
sbsg220
Nsbasg813
(lp5880
sg815
(lp5881
sg817
(lp5882
g819
ag5877
asg820
(dp5883
g5877
g5878
ssg202
S'PdParameterPanel'
p5884
sg203
Nsg823
(lp5885
sg204
I0
sg205
g206
sg825
(i__main__
DelphiBlock
p5886
(dp5887
g828
(idelphi
DelphiCompoundStatement
p5888
(dp5889
g831
Nsg865
(lp5890
S' subclasses may override '
p5891
asbsg868
(lp5892
sbsbsS'uncollapsedheight'
p5893
(i__main__
DelphiMethodImplementation
p5894
(dp5895
g811
g620
sg192
g622
sg200
(lp5896
sg813
(lp5897
sg815
(lp5898
sg817
(lp5899
g819
asg820
(dp5900
sg202
S'PdParameterPanel'
p5901
sg203
(i__main__
DelphiPrimitiveType
p5902
(dp5903
g20
g261
sbsg823
(lp5904
sg204
I0
sg205
g264
sg825
(i__main__
DelphiBlock
p5905
(dp5906
g828
(idelphi
DelphiCompoundStatement
p5907
(dp5908
g831
(lp5909
(i__main__
DelphiAssignStatement
p5910
(dp5911
g835
(idelphi
DelphiIntegerValue
p5912
(dp5913
g14
S'0'
sbsg857
(i__main__
DelphiIdentAccess
p5914
(dp5915
g15
S'result'
p5916
sg95
(lp5917
sbsg865
(lp5918
S' subclasses must override '
p5919
asbasbsg868
(lp5920
sbsbsS'domousedown'
p5921
(i__main__
DelphiMethodImplementation
p5922
(dp5923
g811
g627
sg192
g629
sg200
(lp5924
(i__main__
DelphiFormalParameter
p5925
(dp5926
g214
Nsg215
(lp5927
S'Sender'
p5928
asg17
(i__main__
DelphiNamedType
p5929
(dp5930
g20
S'TObject'
p5931
sg228
g1
sg229
Nsbsg220
Nsba(i__main__
DelphiFormalParameter
p5932
(dp5933
g214
Nsg215
(lp5934
S'Button'
p5935
asg17
(i__main__
DelphiNamedType
p5936
(dp5937
g20
S'TMouseButton'
p5938
sg228
g1
sg229
Nsbsg220
Nsba(i__main__
DelphiFormalParameter
p5939
(dp5940
g214
Nsg215
(lp5941
S'Shift'
p5942
asg17
(i__main__
DelphiNamedType
p5943
(dp5944
g20
S'TShiftState'
p5945
sg228
g1
sg229
Nsbsg220
Nsba(i__main__
DelphiFormalParameter
p5946
(dp5947
g214
Nsg215
(lp5948
S'X'
aS'Y'
asg17
(i__main__
DelphiPrimitiveType
p5949
(dp5950
g20
g261
sbsg220
Nsbasg813
(lp5951
sg815
(lp5952
sg817
(lp5953
g819
ag5928
ag5935
ag5942
aS'X'
aS'Y'
asg820
(dp5954
S'Y'
g5949
sg5942
g5943
sg5935
g5936
sg5928
g5929
sS'X'
g5949
ssg202
S'PdParameterPanel'
p5955
sg203
Nsg823
(lp5956
sg204
I0
sg205
g206
sg825
(i__main__
DelphiBlock
p5957
(dp5958
g828
(idelphi
DelphiCompoundStatement
p5959
(dp5960
g831
(lp5961
(idelphi
DelphiIfStatement
p5962
(dp5963
g1013
(idelphi
DelphiNot
p5964
(dp5965
g2100
(i__main__
DelphiIdentAccess
p5966
(dp5967
g15
S'self'
p5968
sg95
(lp5969
(idelphi
DelphiFieldEndAccess
p5970
(dp5971
g850
S'focused'
p5972
sbasbsbsg1018
Nsg1019
(i__main__
DelphiAssignStatement
p5973
(dp5974
g835
Nsg857
(i__main__
DelphiIdentAccess
p5975
(dp5976
g15
S'self'
p5977
sg95
(lp5978
(idelphi
DelphiFieldEndAccess
p5979
(dp5980
g850
S'setFocus'
p5981
sbasbsbsba(idelphi
DelphiIfStatement
p5982
(dp5983
g1013
(idelphi
DelphiRelOp
p5984
(dp5985
g843
(i__main__
DelphiIdentAccess
p5986
(dp5987
g15
S'x'
sg95
(lp5988
sbsg852
(i__main__
DelphiIdentAccess
p5989
(dp5990
g15
S'pictureRect'
p5991
sg95
(lp5992
(idelphi
DelphiFieldEndAccess
p5993
(dp5994
g850
S'right'
p5995
sbasbsg855
S'<'
sbsg1018
Nsg1019
(i__main__
DelphiAssignStatement
p5996
(dp5997
g835
Nsg857
(i__main__
DelphiIdentAccess
p5998
(dp5999
g15
S'self'
p6000
sg95
(lp6001
(idelphi
DelphiFieldEndAccess
p6002
(dp6003
g850
S'collapseOrExpand'
p6004
sba(idelphi
DelphiFunctionEndAccess
p6005
(dp6006
g839
(lp6007
(i__main__
DelphiIdentAccess
p6008
(dp6009
g15
S'y'
sg95
(lp6010
sbasbasbsbsba(idelphi
DelphiIfStatement
p6011
(dp6012
g1013
(idelphi
DelphiNot
p6013
(dp6014
g2100
(i__main__
DelphiIdentAccess
p6015
(dp6016
g15
S'self'
p6017
sg95
(lp6018
(idelphi
DelphiFieldEndAccess
p6019
(dp6020
g850
S'focused'
p6021
sbasbsbsg1018
Nsg1019
(i__main__
DelphiAssignStatement
p6022
(dp6023
g835
Nsg857
(i__main__
DelphiIdentAccess
p6024
(dp6025
g15
S'self'
p6026
sg95
(lp6027
(idelphi
DelphiFieldEndAccess
p6028
(dp6029
g850
S'setFocus'
p6030
sbasbsbsba(idelphi
DelphiIfStatement
p6031
(dp6032
g1013
(idelphi
DelphiRelOp
p6033
(dp6034
g843
(i__main__
DelphiIdentAccess
p6035
(dp6036
g15
S'param'
p6037
sg95
(lp6038
sbsg852
(idelphi
DelphiNilValue
p6039
(dp6040
bsg855
g856
sbsg1018
Nsg1019
(idelphi
DelphiIfStatement
p6041
(dp6042
g1013
(i__main__
DelphiIdentAccess
p6043
(dp6044
g15
S'param'
p6045
sg95
(lp6046
(idelphi
DelphiFieldEndAccess
p6047
(dp6048
g850
S'collapsed'
p6049
sbasbsg1018
Nsg1019
(i__main__
DelphiAssignStatement
p6050
(dp6051
g835
(i__main__
DelphiIdentAccess
p6052
(dp6053
g15
S'kItemLabel'
p6054
sg95
(lp6055
sbsg857
(i__main__
DelphiIdentAccess
p6056
(dp6057
g15
S'self'
p6058
sg95
(lp6059
(idelphi
DelphiFieldEndAccess
p6060
(dp6061
g850
S'selectedItemIndex'
p6062
sbasbsbsbsbasbsg868
(lp6063
sbsbsS'updateplant'
p6064
(i__main__
DelphiMethodImplementation
p6065
(dp6066
g811
g658
sg192
g660
sg200
(lp6067
(i__main__
DelphiFormalParameter
p6068
(dp6069
g214
Nsg215
(lp6070
S'newPlant'
p6071
asg17
(i__main__
DelphiNamedType
p6072
(dp6073
g20
S'PdPlant'
p6074
sg228
g1
sg229
Nsbsg220
Nsbasg813
(lp6075
sg815
(lp6076
sg817
(lp6077
g819
ag6071
asg820
(dp6078
g6071
g6072
ssg202
S'PdParameterPanel'
p6079
sg203
Nsg823
(lp6080
sg204
I0
sg205
g206
sg825
(i__main__
DelphiBlock
p6081
(dp6082
g828
(idelphi
DelphiCompoundStatement
p6083
(dp6084
g831
(lp6085
(idelphi
DelphiIfStatement
p6086
(dp6087
g1013
(idelphi
DelphiRelOp
p6088
(dp6089
g843
(i__main__
DelphiIdentAccess
p6090
(dp6091
g15
S'plant'
p6092
sg95
(lp6093
sbsg852
(i__main__
DelphiIdentAccess
p6094
(dp6095
g15
S'newPlant'
p6096
sg95
(lp6097
sbsg855
g856
sbsg1018
Nsg1019
(idelphi
DelphiCompoundStatement
p6098
(dp6099
g831
(lp6100
(i__main__
DelphiAssignStatement
p6101
(dp6102
g835
(i__main__
DelphiIdentAccess
p6103
(dp6104
g15
S'newPlant'
p6105
sg95
(lp6106
sbsg857
(i__main__
DelphiIdentAccess
p6107
(dp6108
g15
S'plant'
p6109
sg95
(lp6110
sbsba(i__main__
DelphiAssignStatement
p6111
(dp6112
g835
Nsg857
(i__main__
DelphiIdentAccess
p6113
(dp6114
g15
S'self'
p6115
sg95
(lp6116
(idelphi
DelphiFieldEndAccess
p6117
(dp6118
g850
S'updateEnabling'
p6119
sbasbsba(i__main__
DelphiAssignStatement
p6120
(dp6121
g835
Nsg857
(i__main__
DelphiIdentAccess
p6122
(dp6123
g15
S'self'
p6124
sg95
(lp6125
(idelphi
DelphiFieldEndAccess
p6126
(dp6127
g850
S'updateCurrentValue'
p6128
sba(idelphi
DelphiFunctionEndAccess
p6129
(dp6130
g839
(lp6131
(idelphi
DelphiSign
p6132
(dp6133
g2100
(idelphi
DelphiIntegerValue
p6134
(dp6135
g14
S'1'
sbsg154
S'-'
sbasbasbsg865
(lp6136
S' -1 means update all '
p6137
asba(i__main__
DelphiAssignStatement
p6138
(dp6139
g835
Nsg857
(i__main__
DelphiIdentAccess
p6140
(dp6141
g15
S'self'
p6142
sg95
(lp6143
(idelphi
DelphiFieldEndAccess
p6144
(dp6145
g850
S'updateDisplay'
p6146
sbasbsba(i__main__
DelphiAssignStatement
p6147
(dp6148
g835
Nsg857
(i__main__
DelphiIdentAccess
p6149
(dp6150
g15
S'self'
p6151
sg95
(lp6152
(idelphi
DelphiFieldEndAccess
p6153
(dp6154
g850
S'invalidate'
p6155
sbasbsbasbsbasbsg868
(lp6156
sbsg865
(lp6157
S'plant has changed'
p6158
asbsS'measuretext'
p6159
(i__main__
DelphiMethodImplementation
p6160
(dp6161
g811
g670
sg192
g672
sg200
(lp6162
(i__main__
DelphiFormalParameter
p6163
(dp6164
g214
Nsg215
(lp6165
S'text'
p6166
asg17
(i__main__
DelphiPrimitiveType
p6167
(dp6168
g20
g14
sbsg220
Nsba(i__main__
DelphiFormalParameter
p6169
(dp6170
g214
Nsg215
(lp6171
S'drawRect'
p6172
asg17
(i__main__
DelphiNamedType
p6173
(dp6174
g20
S'TRect'
p6175
sg228
g1
sg229
Nsbsg220
Nsbasg813
(lp6176
sg815
(lp6177
sg817
(lp6178
g819
ag6166
ag6172
asg820
(dp6179
g6172
g6173
sg6166
g6167
ssg202
S'PdParameterPanel'
p6180
sg203
(i__main__
DelphiPrimitiveType
p6181
(dp6182
g20
g261
sbsg823
(lp6183
sg204
I0
sg205
g264
sg825
(i__main__
DelphiBlock
p6184
(dp6185
g828
(idelphi
DelphiCompoundStatement
p6186
(dp6187
g831
(lp6188
(i__main__
DelphiAssignStatement
p6189
(dp6190
g835
(i__main__
DelphiIdentAccess
p6191
(dp6192
g15
S'getParentForm'
p6193
sg95
(lp6194
(idelphi
DelphiFunctionEndAccess
p6195
(dp6196
g839
(lp6197
(i__main__
DelphiIdentAccess
p6198
(dp6199
g15
S'self'
p6200
sg95
(lp6201
sbasbasbsg857
(i__main__
DelphiIdentAccess
p6202
(dp6203
g15
S'theForm'
p6204
sg95
(lp6205
sbsba(idelphi
DelphiIfStatement
p6206
(dp6207
g1013
(idelphi
DelphiRelOp
p6208
(dp6209
g843
(i__main__
DelphiIdentAccess
p6210
(dp6211
g15
S'theForm'
p6212
sg95
(lp6213
sbsg852
(idelphi
DelphiNilValue
p6214
(dp6215
bsg855
S'='
sbsg1018
(idelphi
DelphiCompoundStatement
p6216
(dp6217
g831
(lp6218
(idelphi
DelphiIfStatement
p6219
(dp6220
g1013
(idelphi
DelphiRelOp
p6221
(dp6222
g843
(i__main__
DelphiIdentAccess
p6223
(dp6224
g15
S'theForm'
p6225
sg95
(lp6226
(idelphi
DelphiFieldEndAccess
p6227
(dp6228
g850
S'canvas'
p6229
sbasbsg852
(idelphi
DelphiNilValue
p6230
(dp6231
bsg855
S'='
sbsg1018
(idelphi
DelphiWithStatement
p6232
(dp6233
g906
(idelphi
DelphiCompoundStatement
p6234
(dp6235
g831
(lp6236
(i__main__
DelphiAssignStatement
p6237
(dp6238
g835
(i__main__
DelphiIdentAccess
p6239
(dp6240
g15
S'theForm'
p6241
sg95
(lp6242
(idelphi
DelphiFieldEndAccess
p6243
(dp6244
g850
S'font'
p6245
sbasbsg857
(i__main__
DelphiIdentAccess
p6246
(dp6247
g15
S'font'
p6248
sg95
(lp6249
sbsba(i__main__
DelphiAssignStatement
p6250
(dp6251
g835
(i__main__
DelphiIdentAccess
p6252
(dp6253
g15
S'drawRect'
p6254
sg95
(lp6255
sbsg857
(i__main__
DelphiIdentAccess
p6256
(dp6257
g15
S'useRect'
p6258
sg95
(lp6259
sbsba(i__main__
DelphiAssignStatement
p6260
(dp6261
g835
Nsg857
(i__main__
DelphiIdentAccess
p6262
(dp6263
g15
S'strPCopy'
p6264
sg95
(lp6265
(idelphi
DelphiFunctionEndAccess
p6266
(dp6267
g839
(lp6268
(i__main__
DelphiIdentAccess
p6269
(dp6270
g15
S'cText'
p6271
sg95
(lp6272
sba(i__main__
DelphiIdentAccess
p6273
(dp6274
g15
S'text'
p6275
sg95
(lp6276
sbasbasbsba(i__main__
DelphiAssignStatement
p6277
(dp6278
g835
(i__main__
DelphiIdentAccess
p6279
(dp6280
g15
S'winprocs'
p6281
sg95
(lp6282
(idelphi
DelphiFieldEndAccess
p6283
(dp6284
g850
S'drawText'
p6285
sba(idelphi
DelphiFunctionEndAccess
p6286
(dp6287
g839
(lp6288
(i__main__
DelphiIdentAccess
p6289
(dp6290
g15
S'handle'
p6291
sg95
(lp6292
sba(i__main__
DelphiIdentAccess
p6293
(dp6294
g15
S'cText'
p6295
sg95
(lp6296
sba(i__main__
DelphiIdentAccess
p6297
(dp6298
g15
S'strLen'
p6299
sg95
(lp6300
(idelphi
DelphiFunctionEndAccess
p6301
(dp6302
g839
(lp6303
(i__main__
DelphiIdentAccess
p6304
(dp6305
g15
S'cText'
p6306
sg95
(lp6307
sbasbasba(i__main__
DelphiIdentAccess
p6308
(dp6309
g15
S'useRect'
p6310
sg95
(lp6311
sba(idelphi
DelphiAddOp
p6312
(dp6313
g990
g991
sg992
(i__main__
DelphiIdentAccess
p6314
(dp6315
g15
S'DT_CALCRECT'
p6316
sg95
(lp6317
sbsg997
(idelphi
DelphiAddOp
p6318
(dp6319
g990
g991
sg992
(i__main__
DelphiIdentAccess
p6320
(dp6321
g15
S'DT_WORDBREAK'
p6322
sg95
(lp6323
sbsg997
(i__main__
DelphiIdentAccess
p6324
(dp6325
g15
S'DT_LEFT'
p6326
sg95
(lp6327
sbsbsbasbasbsg857
(i__main__
DelphiIdentAccess
p6328
(dp6329
g15
S'result'
p6330
sg95
(lp6331
sbsg865
(lp6332
S' returns height of rectangle '
p6333
asbasbsg1002
(lp6334
(i__main__
DelphiIdentAccess
p6335
(dp6336
g15
S'theForm'
p6337
sg95
(lp6338
(idelphi
DelphiFieldEndAccess
p6339
(dp6340
g850
S'canvas'
p6341
sbasbasbsg1019
(i__main__
DelphiAssignStatement
p6342
(dp6343
g835
(idelphi
DelphiIntegerValue
p6344
(dp6345
g14
S'16'
p6346
sbsg857
(i__main__
DelphiIdentAccess
p6347
(dp6348
g15
S'result'
p6349
sg95
(lp6350
sbsg865
(lp6351
S'default'
p6352
asbsbasbsg1019
(i__main__
DelphiAssignStatement
p6353
(dp6354
g835
(idelphi
DelphiIntegerValue
p6355
(dp6356
g14
S'16'
p6357
sbsg857
(i__main__
DelphiIdentAccess
p6358
(dp6359
g15
S'result'
p6360
sg95
(lp6361
sbsg865
(lp6362
S'default'
p6363
asbsbasg865
(lp6364
S' cfk change v1.6b1 -- taken out, dealt with problem by using form to get size\r'
p6365
aS' deal with large fonts by increasing label height -- kludge\r'
p6366
aS'if screen.pixelsPerInch >= 120 then // large fonts\r'
p6367
aS'  result := round(result * 1.5);\r'
p6368
asbsg868
(lp6369
(i__main__
DelphiVarSection
p6370
(dp6371
g165
I0
sg1039
(lp6372
(idelphi
DelphiVarDecl
p6373
(dp6374
g11
Nsg1043
(lp6375
S'cText'
p6376
asg17
(i__main__
DelphiArrayType
p6377
(dp6378
g17
(i__main__
DelphiPrimitiveType
p6379
(dp6380
g20
g1050
sbsg1051
(lp6381
(idelphi
DelphiSubrange
p6382
(dp6383
g1055
(idelphi
DelphiIntegerValue
p6384
(dp6385
g14
S'255'
p6386
sbsg1059
(idelphi
DelphiIntegerValue
p6387
(dp6388
g14
S'0'
sbsg192
S''
sbasbsba(idelphi
DelphiVarDecl
p6389
(dp6390
g11
Nsg1043
(lp6391
S'theForm'
p6392
asg17
(i__main__
DelphiNamedType
p6393
(dp6394
g20
S'TCustomForm'
p6395
sg228
g1
sg229
Nsbsba(idelphi
DelphiVarDecl
p6396
(dp6397
g11
Nsg1043
(lp6398
S'useRect'
p6399
asg17
(i__main__
DelphiNamedType
p6400
(dp6401
g20
S'TRect'
p6402
sg228
g1
sg229
NsbsbasbasbsbsS'editheight'
p6403
(i__main__
DelphiMethodImplementation
p6404
(dp6405
g811
g690
sg192
g692
sg200
(lp6406
sg813
(lp6407
sg815
(lp6408
sg817
(lp6409
g819
asg820
(dp6410
sg202
S'PdParameterPanel'
p6411
sg203
(i__main__
DelphiPrimitiveType
p6412
(dp6413
g20
g261
sbsg823
(lp6414
sg204
I0
sg205
g264
sg825
(i__main__
DelphiBlock
p6415
(dp6416
g828
(idelphi
DelphiCompoundStatement
p6417
(dp6418
g831
(lp6419
(i__main__
DelphiAssignStatement
p6420
(dp6421
g835
(idelphi
DelphiAddOp
p6422
(dp6423
g990
S'+'
sg992
(idelphi
DelphiIntegerValue
p6424
(dp6425
g14
S'8'
sbsg997
(i__main__
DelphiIdentAccess
p6426
(dp6427
g15
S'self'
p6428
sg95
(lp6429
(idelphi
DelphiFieldEndAccess
p6430
(dp6431
g850
S'textHeight'
p6432
sbasbsbsg857
(i__main__
DelphiIdentAccess
p6433
(dp6434
g15
S'result'
p6435
sg95
(lp6436
sbsbasbsg868
(lp6437
sbsbsS'minscalewidthwithbounds'
p6438
(i__main__
DelphiMethodImplementation
p6439
(dp6440
g811
g697
sg192
g699
sg200
(lp6441
(i__main__
DelphiFormalParameter
p6442
(dp6443
g214
Nsg215
(lp6444
S'unitSet'
p6445
aS'unitPlant'
p6446
asg17
(i__main__
DelphiPrimitiveType
p6447
(dp6448
g20
g261
sbsg220
Nsba(i__main__
DelphiFormalParameter
p6449
(dp6450
g214
Nsg215
(lp6451
S'softMin'
p6452
aS'softMax'
p6453
asg17
(i__main__
DelphiPrimitiveType
p6454
(dp6455
g20
g715
sbsg220
Nsbasg813
(lp6456
sg815
(lp6457
sg817
(lp6458
g819
ag6445
ag6446
ag6452
ag6453
asg820
(dp6459
g6446
g6447
sg6452
g6454
sg6445
g6447
sg6453
g6454
ssg202
S'PdParameterPanel'
p6460
sg203
(i__main__
DelphiPrimitiveType
p6461
(dp6462
g20
g261
sbsg823
(lp6463
sg204
I0
sg205
g264
sg825
(i__main__
DelphiBlock
p6464
(dp6465
g828
(idelphi
DelphiCompoundStatement
p6466
(dp6467
g831
(lp6468
(i__main__
DelphiAssignStatement
p6469
(dp6470
g835
(i__main__
DelphiIdentAccess
p6471
(dp6472
g15
S'kMaxDisplayDigitsToLeftOfDecimal'
p6473
sg95
(lp6474
sbsg857
(i__main__
DelphiIdentAccess
p6475
(dp6476
g15
S'numeralChars'
p6477
sg95
(lp6478
sbsg865
(lp6479
S' value number of chars (always use max) '
p6480
aS'+ kMaxDisplayDigitsToRightOfDecimal + 1'
p6481
asba(i__main__
DelphiAssignStatement
p6482
(dp6483
g835
(i__main__
DelphiIdentAccess
p6484
(dp6485
g15
S'maxUnitStringLengthForSet'
p6486
sg95
(lp6487
(idelphi
DelphiFunctionEndAccess
p6488
(dp6489
g839
(lp6490
(i__main__
DelphiIdentAccess
p6491
(dp6492
g15
S'unitSet'
p6493
sg95
(lp6494
sbasbasbsg857
(i__main__
DelphiIdentAccess
p6495
(dp6496
g15
S'letterChars'
p6497
sg95
(lp6498
sbsg865
(lp6499
S' unit string number of chars (get max for set) '
p6500
asba(i__main__
DelphiAssignStatement
p6501
(dp6502
g835
(idelphi
DelphiIntegerValue
p6503
(dp6504
g14
S'0'
sbsg857
(i__main__
DelphiIdentAccess
p6505
(dp6506
g15
S'maxLengthSoftMin'
p6507
sg95
(lp6508
sbsg865
(lp6509
S' bounds number of chars (use actual bounds, but calculate max for set) '
p6510
asba(i__main__
DelphiAssignStatement
p6511
(dp6512
g835
(idelphi
DelphiIntegerValue
p6513
(dp6514
g14
S'0'
sbsg857
(i__main__
DelphiIdentAccess
p6515
(dp6516
g15
S'maxLengthSoftMax'
p6517
sg95
(lp6518
sbsba(idelphi
DelphiForStatement
p6519
(dp6520
g1136
S'i'
sg1137
(idelphi
DelphiAddOp
p6521
(dp6522
g990
S'-'
sg992
(idelphi
DelphiIntegerValue
p6523
(dp6524
g14
S'1'
sbsg997
(i__main__
DelphiIdentAccess
p6525
(dp6526
g15
S'GetLastUnitEnumInUnitSet'
p6527
sg95
(lp6528
(idelphi
DelphiFunctionEndAccess
p6529
(dp6530
g839
(lp6531
(i__main__
DelphiIdentAccess
p6532
(dp6533
g15
S'unitSet'
p6534
sg95
(lp6535
sbasbasbsbsg1149
g1150
sg214
(idelphi
DelphiIntegerValue
p6536
(dp6537
g14
S'1'
sbsg906
(idelphi
DelphiCompoundStatement
p6538
(dp6539
g831
(lp6540
(i__main__
DelphiAssignStatement
p6541
(dp6542
g835
(i__main__
DelphiIdentAccess
p6543
(dp6544
g15
S'Convert'
p6545
sg95
(lp6546
(idelphi
DelphiFunctionEndAccess
p6547
(dp6548
g839
(lp6549
(i__main__
DelphiIdentAccess
p6550
(dp6551
g15
S'unitSet'
p6552
sg95
(lp6553
sba(i__main__
DelphiIdentAccess
p6554
(dp6555
g15
S'unitPlant'
p6556
sg95
(lp6557
sba(i__main__
DelphiIdentAccess
p6558
(dp6559
g15
S'i'
sg95
(lp6560
sba(i__main__
DelphiIdentAccess
p6561
(dp6562
g15
S'softMin'
p6563
sg95
(lp6564
sbasbasbsg857
(i__main__
DelphiIdentAccess
p6565
(dp6566
g15
S'minValue'
p6567
sg95
(lp6568
sbsba(i__main__
DelphiAssignStatement
p6569
(dp6570
g835
(i__main__
DelphiIdentAccess
p6571
(dp6572
g15
S'Convert'
p6573
sg95
(lp6574
(idelphi
DelphiFunctionEndAccess
p6575
(dp6576
g839
(lp6577
(i__main__
DelphiIdentAccess
p6578
(dp6579
g15
S'unitSet'
p6580
sg95
(lp6581
sba(i__main__
DelphiIdentAccess
p6582
(dp6583
g15
S'unitPlant'
p6584
sg95
(lp6585
sba(i__main__
DelphiIdentAccess
p6586
(dp6587
g15
S'i'
sg95
(lp6588
sba(i__main__
DelphiIdentAccess
p6589
(dp6590
g15
S'softMax'
p6591
sg95
(lp6592
sbasbasbsg857
(i__main__
DelphiIdentAccess
p6593
(dp6594
g15
S'maxValue'
p6595
sg95
(lp6596
sbsba(i__main__
DelphiAssignStatement
p6597
(dp6598
g835
(i__main__
DelphiIdentAccess
p6599
(dp6600
g15
S'intMax'
p6601
sg95
(lp6602
(idelphi
DelphiFunctionEndAccess
p6603
(dp6604
g839
(lp6605
(i__main__
DelphiIdentAccess
p6606
(dp6607
g15
S'maxLengthSoftMin'
p6608
sg95
(lp6609
sba(i__main__
DelphiIdentAccess
p6610
(dp6611
g15
S'length'
p6612
sg95
(lp6613
(idelphi
DelphiFunctionEndAccess
p6614
(dp6615
g839
(lp6616
(i__main__
DelphiIdentAccess
p6617
(dp6618
g15
S'digitValueString'
p6619
sg95
(lp6620
(idelphi
DelphiFunctionEndAccess
p6621
(dp6622
g839
(lp6623
(i__main__
DelphiIdentAccess
p6624
(dp6625
g15
S'minValue'
p6626
sg95
(lp6627
sbasbasbasbasbasbasbsg857
(i__main__
DelphiIdentAccess
p6628
(dp6629
g15
S'maxLengthSoftMin'
p6630
sg95
(lp6631
sbsba(i__main__
DelphiAssignStatement
p6632
(dp6633
g835
(i__main__
DelphiIdentAccess
p6634
(dp6635
g15
S'intMax'
p6636
sg95
(lp6637
(idelphi
DelphiFunctionEndAccess
p6638
(dp6639
g839
(lp6640
(i__main__
DelphiIdentAccess
p6641
(dp6642
g15
S'maxLengthSoftMax'
p6643
sg95
(lp6644
sba(i__main__
DelphiIdentAccess
p6645
(dp6646
g15
S'length'
p6647
sg95
(lp6648
(idelphi
DelphiFunctionEndAccess
p6649
(dp6650
g839
(lp6651
(i__main__
DelphiIdentAccess
p6652
(dp6653
g15
S'digitValueString'
p6654
sg95
(lp6655
(idelphi
DelphiFunctionEndAccess
p6656
(dp6657
g839
(lp6658
(i__main__
DelphiIdentAccess
p6659
(dp6660
g15
S'maxValue'
p6661
sg95
(lp6662
sbasbasbasbasbasbasbsg857
(i__main__
DelphiIdentAccess
p6663
(dp6664
g15
S'maxLengthSoftMax'
p6665
sg95
(lp6666
sbsbasbsba(i__main__
DelphiAssignStatement
p6667
(dp6668
g835
(idelphi
DelphiAddOp
p6669
(dp6670
g990
S'+'
sg992
(i__main__
DelphiIdentAccess
p6671
(dp6672
g15
S'maxLengthSoftMax'
p6673
sg95
(lp6674
sbsg997
(idelphi
DelphiAddOp
p6675
(dp6676
g990
S'+'
sg992
(i__main__
DelphiIdentAccess
p6677
(dp6678
g15
S'maxLengthSoftMin'
p6679
sg95
(lp6680
sbsg997
(i__main__
DelphiIdentAccess
p6681
(dp6682
g15
S'numeralChars'
p6683
sg95
(lp6684
sbsbsbsg857
(i__main__
DelphiIdentAccess
p6685
(dp6686
g15
S'numeralChars'
p6687
sg95
(lp6688
sbsba(i__main__
DelphiAssignStatement
p6689
(dp6690
g835
(idelphi
DelphiAddOp
p6691
(dp6692
g990
S'+'
sg992
(idelphi
DelphiMulOp
p6693
(dp6694
g1213
(idelphi
DelphiIntegerValue
p6695
(dp6696
g14
S'2'
sbsg1234
S'*'
sg1236
(i__main__
DelphiIdentAccess
p6697
(dp6698
g15
S'kLeftRightGap'
p6699
sg95
(lp6700
sbsbsg997
(idelphi
DelphiAddOp
p6701
(dp6702
g990
S'+'
sg992
(idelphi
DelphiMulOp
p6703
(dp6704
g1213
(idelphi
DelphiIntegerValue
p6705
(dp6706
g14
S'3'
sbsg1234
S'*'
sg1236
(i__main__
DelphiIdentAccess
p6707
(dp6708
g15
S'kBetweenGap'
p6709
sg95
(lp6710
sbsbsg997
(idelphi
DelphiAddOp
p6711
(dp6712
g990
S'+'
sg992
(idelphi
DelphiMulOp
p6713
(dp6714
g1213
(i__main__
DelphiIdentAccess
p6715
(dp6716
g15
S'numeralChars'
p6717
sg95
(lp6718
sbsg1234
S'*'
sg1236
(i__main__
DelphiIdentAccess
p6719
(dp6720
g15
S'self'
p6721
sg95
(lp6722
(idelphi
DelphiFieldEndAccess
p6723
(dp6724
g850
S'formTextWidth'
p6725
sba(idelphi
DelphiFunctionEndAccess
p6726
(dp6727
g839
(lp6728
(idelphi
DelphiStringAccess
p6729
(dp6730
g95
(lp6731
sg14
(idelphi
DelphiStringValue
p6732
(dp6733
g14
S'1'
sbsbasbasbsbsg997
(idelphi
DelphiMulOp
p6734
(dp6735
g1213
(i__main__
DelphiIdentAccess
p6736
(dp6737
g15
S'letterChars'
p6738
sg95
(lp6739
sbsg1234
S'*'
sg1236
(i__main__
DelphiIdentAccess
p6740
(dp6741
g15
S'self'
p6742
sg95
(lp6743
(idelphi
DelphiFieldEndAccess
p6744
(dp6745
g850
S'formTextWidth'
p6746
sba(idelphi
DelphiFunctionEndAccess
p6747
(dp6748
g839
(lp6749
(idelphi
DelphiStringAccess
p6750
(dp6751
g95
(lp6752
sg14
(idelphi
DelphiStringValue
p6753
(dp6754
g14
S'i'
sbsbasbasbsbsbsbsbsg857
(i__main__
DelphiIdentAccess
p6755
(dp6756
g15
S'result'
p6757
sg95
(lp6758
sbsg865
(lp6759
S' calc min scale width from number of chars '
p6760
asbasbsg868
(lp6761
(i__main__
DelphiVarSection
p6762
(dp6763
g165
I0
sg1039
(lp6764
(idelphi
DelphiVarDecl
p6765
(dp6766
g11
Nsg1043
(lp6767
S'i'
aS'numeralChars'
p6768
aS'letterChars'
p6769
aS'maxLengthSoftMin'
p6770
aS'maxLengthSoftMax'
p6771
asg17
(i__main__
DelphiPrimitiveType
p6772
(dp6773
g20
g261
sbsba(idelphi
DelphiVarDecl
p6774
(dp6775
g11
Nsg1043
(lp6776
S'minValue'
p6777
aS'maxValue'
p6778
asg17
(i__main__
DelphiPrimitiveType
p6779
(dp6780
g20
g715
sbsbasbasbsbsS'updateplantvalues'
p6781
(i__main__
DelphiMethodImplementation
p6782
(dp6783
g811
g719
sg192
g721
sg200
(lp6784
sg813
(lp6785
sg815
(lp6786
sg817
(lp6787
g819
asg820
(dp6788
sg202
S'PdParameterPanel'
p6789
sg203
Nsg823
(lp6790
sg204
I0
sg205
g206
sg825
(i__main__
DelphiBlock
p6791
(dp6792
g828
(idelphi
DelphiCompoundStatement
p6793
(dp6794
g831
Nsg865
(lp6795
S' subclasses should override '
p6796
asbsg868
(lp6797
sbsbssS'propertyDeclarations'
p6798
(dp6799
sS'variableNamesInDeclaredOrder'
p6800
(lp6801
g181
ag183
ag185
ag175
ag171
ag191
ag189
ag179
ag187
ag177
ag173
asg865
(lp6802
S'200;'
p6803
aS'150;'
p6804
aS'150;'
p6805
aS' 13\r'
p6806
asbasS'includedUnits'
p6807
NsS'implementationUses'
p6808
(lp6809
S'SysUtils'
p6810
aS'Dialogs'
p6811
aS'Forms'
p6812
aS'umain'
p6813
aS'updcom'
p6814
aS'umath'
p6815
aS'uunits'
p6816
aS'usupport'
p6817
aS'udomain'
p6818
aS'udebug'
p6819
aS'upp_hed'
p6820
asg192
S'uppanel'
p6821
sS'constSections'
p6822
(lp6823
g5
asS'globalsInProperCase'
p6824
NsS'interfaceUses'
p6825
(lp6826
S'delphi_compatability'
p6827
aS'ExtCtrls'
p6828
aS'Classes'
p6829
aS'StdCtrls'
p6830
aS'Controls'
p6831
aS'WinTypes'
p6832
aS'Graphics'
p6833
aS'WinProcs'
p6834
aS'Messages'
p6835
aS'uparams'
p6836
aS'usection'
p6837
aS'ucollect'
p6838
aS'uplant'
p6839
asS'finalCommentToken'
p6840
(i__main__
PassStatement
p6841
(dp6842
g868
(lp6843
sbsS'varSections'
p6844
(lp6845
sS'globals'
p6846
NsS'originalFileName'
p6847
S'../../PlantStudioInPython/converted_source/uppanel.pas'
p6848
sS'proceduralImplementations'
p6849
(dp6850
sS'fileName'
p6851
S'/Users/pdf/Documents/workspace/PlantStudioInPython/converted_source/uppanel.pas'
p6852
sS'proceduralDeclarations'
p6853
(dp6854
sS'types'
p6855
(dp6856
S'pdparameterpanel'
p6857
g166
ssb.