(i__main__
DelphiUnit
p1
(dp2
S'sectionsInOrderDefined'
p3
(lp4
(i__main__
DelphiClass
p5
(dp6
S'variableNamesInProperCase'
p7
(dp8
S'close'
p9
S'Close'
p10
sS'infolist'
p11
S'infoList'
p12
sS'helpbutton'
p13
S'helpButton'
p14
sS'copytoclipboard'
p15
S'copyToClipboard'
p16
sS'savelistas'
p17
S'saveListAs'
p18
ssS'name'
p19
S'TProgramInfoForm'
p20
sS'methodDeclarations'
p21
(dp22
S'helpbuttonclick'
p23
(i__main__
DelphiMethodDeclaration
p24
(dp25
g19
S'helpButtonClick'
p26
sS'formalParameters'
p27
(lp28
(i__main__
DelphiFormalParameter
p29
(dp30
S'initialValue'
p31
NsS'names'
p32
(lp33
S'Sender'
p34
asS'theType'
p35
(i__main__
DelphiNamedType
p36
(dp37
S'typeName'
p38
S'TObject'
p39
sS'unitDefinedIn'
p40
g1
sS'unitName'
p41
NsbsS'parameterVariety'
p42
NsbasS'className'
p43
g20
sS'resultType'
p44
NsS'isClassMethod'
p45
I0
sS'methodType'
p46
S'procedure'
p47
sbsS'getosinfo'
p48
(i__main__
DelphiMethodDeclaration
p49
(dp50
g19
S'GetOSInfo'
p51
sg27
(lp52
sg43
g20
sg44
Nsg45
I0
sg46
g47
sbsS'formresize'
p53
(i__main__
DelphiMethodDeclaration
p54
(dp55
g19
S'FormResize'
p56
sg27
(lp57
(i__main__
DelphiFormalParameter
p58
(dp59
g31
Nsg32
(lp60
S'Sender'
p61
asg35
(i__main__
DelphiNamedType
p62
(dp63
g38
S'TObject'
p64
sg40
g1
sg41
Nsbsg42
Nsbasg43
g20
sg44
Nsg45
I0
sg46
g47
sbsS'copytoclipboardclick'
p65
(i__main__
DelphiMethodDeclaration
p66
(dp67
g19
S'copyToClipboardClick'
p68
sg27
(lp69
(i__main__
DelphiFormalParameter
p70
(dp71
g31
Nsg32
(lp72
S'Sender'
p73
asg35
(i__main__
DelphiNamedType
p74
(dp75
g38
S'TObject'
p76
sg40
g1
sg41
Nsbsg42
Nsbasg43
g20
sg44
Nsg45
I0
sg46
g47
sbsS'stringformemoryink'
p77
(i__main__
DelphiMethodDeclaration
p78
(dp79
g19
S'stringForMemoryInK'
p80
sg27
(lp81
(i__main__
DelphiFormalParameter
p82
(dp83
g31
Nsg32
(lp84
S'kilobytes'
p85
asg35
(i__main__
DelphiPrimitiveType
p86
(dp87
g38
S'extended'
p88
sbsg42
Nsbasg43
g20
sg44
(i__main__
DelphiPrimitiveType
p89
(dp90
g38
S'string'
p91
sbsg45
I0
sg46
S'function'
p92
sbsS'describeplant'
p93
(i__main__
DelphiMethodDeclaration
p94
(dp95
g19
S'describePlant'
p96
sg27
(lp97
(i__main__
DelphiFormalParameter
p98
(dp99
g31
Nsg32
(lp100
S'describeString'
p101
asg35
(i__main__
DelphiPrimitiveType
p102
(dp103
g38
g91
sbsg42
Nsba(i__main__
DelphiFormalParameter
p104
(dp105
g31
Nsg32
(lp106
S'plantProxy'
p107
asg35
(i__main__
DelphiNamedType
p108
(dp109
g38
S'TObject'
p110
sg40
g1
sg41
Nsbsg42
Nsbasg43
g20
sg44
Nsg45
I0
sg46
g47
sbsS'savelistasclick'
p111
(i__main__
DelphiMethodDeclaration
p112
(dp113
g19
S'saveListAsClick'
p114
sg27
(lp115
(i__main__
DelphiFormalParameter
p116
(dp117
g31
Nsg32
(lp118
S'Sender'
p119
asg35
(i__main__
DelphiNamedType
p120
(dp121
g38
S'TObject'
p122
sg40
g1
sg41
Nsbsg42
Nsbasg43
g20
sg44
Nsg45
I0
sg46
g47
sbsS'saveinfolisttofile'
p123
(i__main__
DelphiMethodDeclaration
p124
(dp125
g19
S'saveInfoListToFile'
p126
sg27
(lp127
(i__main__
DelphiFormalParameter
p128
(dp129
g31
Nsg32
(lp130
S'fileName'
p131
asg35
(i__main__
DelphiPrimitiveType
p132
(dp133
g38
g91
sbsg42
Nsbasg43
g20
sg44
Nsg45
I0
sg46
g47
sS'commentLinesBefore'
p134
(lp135
S' Private declarations '
p136
aS' Public declarations '
p137
asbsS'formcreate'
p138
(i__main__
DelphiMethodDeclaration
p139
(dp140
g19
S'FormCreate'
p141
sg27
(lp142
(i__main__
DelphiFormalParameter
p143
(dp144
g31
Nsg32
(lp145
S'Sender'
p146
asg35
(i__main__
DelphiNamedType
p147
(dp148
g38
S'TObject'
p149
sg40
g1
sg41
Nsbsg42
Nsbasg43
g20
sg44
Nsg45
I0
sg46
g47
sbsS'closeclick'
p150
(i__main__
DelphiMethodDeclaration
p151
(dp152
g19
S'CloseClick'
p153
sg27
(lp154
(i__main__
DelphiFormalParameter
p155
(dp156
g31
Nsg32
(lp157
S'Sender'
p158
asg35
(i__main__
DelphiNamedType
p159
(dp160
g38
S'TObject'
p161
sg40
g1
sg41
Nsbsg42
Nsbasg43
g20
sg44
Nsg45
I0
sg46
g47
sbssS'superclassNamedTypes'
p162
(lp163
(i__main__
DelphiNamedType
p164
(dp165
g38
S'PdForm'
p166
sg40
g1
sg41
NsbasS'variableNames'
p167
(dp168
S'close'
p169
(i__main__
DelphiNamedType
p170
(dp171
g38
S'TButton'
p172
sg40
g1
sg41
NsbsS'infolist'
p173
(i__main__
DelphiNamedType
p174
(dp175
g38
S'TMemo'
p176
sg40
g1
sg41
NsbsS'helpbutton'
p177
(i__main__
DelphiNamedType
p178
(dp179
g38
S'TSpeedButton'
p180
sg40
g1
sg41
NsbsS'copytoclipboard'
p181
(i__main__
DelphiNamedType
p182
(dp183
g38
S'TButton'
p184
sg40
g1
sg41
NsbsS'savelistas'
p185
(i__main__
DelphiNamedType
p186
(dp187
g38
S'TButton'
p188
sg40
g1
sg41
NsbssS'methodNamesInDefinedOrder'
p189
(lp190
S'formcreate'
p191
aS'describeplant'
p192
aS'stringformemoryink'
p193
aS'getosinfo'
p194
aS'savelistasclick'
p195
aS'saveinfolisttofile'
p196
aS'formresize'
p197
aS'closeclick'
p198
aS'copytoclipboardclick'
p199
aS'helpbuttonclick'
p200
asS'methodImplementations'
p201
(dp202
S'helpbuttonclick'
p203
(i__main__
DelphiMethodImplementation
p204
(dp205
S'originalDeclaration'
p206
g24
sg19
g26
sg27
(lp207
(i__main__
DelphiFormalParameter
p208
(dp209
g31
Nsg32
(lp210
S'Sender'
p211
asg35
(i__main__
DelphiNamedType
p212
(dp213
g38
S'TObject'
p214
sg40
g1
sg41
Nsbsg42
NsbasS'varParamIndexes'
p215
(lp216
sS'varParamsSkipped'
p217
(lp218
sS'argNames'
p219
(lp220
S'self'
p221
ag211
asS'argTypes'
p222
(dp223
g211
g212
ssg43
S'TProgramInfoForm'
p224
sg44
NsS'varParamNames'
p225
(lp226
sg45
I0
sg46
g47
sS'block'
p227
(i__main__
DelphiBlock
p228
(dp229
S'compoundStatement'
p230
(idelphi
DelphiCompoundStatement
p231
(dp232
S'statements'
p233
(lp234
(i__main__
DelphiAssignStatement
p235
(dp236
S'newValueExpression'
p237
NsS'destinationExpression'
p238
(i__main__
DelphiIdentAccess
p239
(dp240
S'ident'
p241
S'application'
p242
sS'endAccessList'
p243
(lp244
(idelphi
DelphiFieldEndAccess
p245
(dp246
S'field'
p247
S'helpJump'
p248
sba(idelphi
DelphiFunctionEndAccess
p249
(dp250
S'expressionList'
p251
(lp252
(idelphi
DelphiStringAccess
p253
(dp254
g243
(lp255
sg91
(idelphi
DelphiStringValue
p256
(dp257
g91
S'Getting_diagnostic_information'
p258
sbsbasbasbsbasbsS'limitedDeclSectionList'
p259
(lp260
sbsbsS'getosinfo'
p261
(i__main__
DelphiMethodImplementation
p262
(dp263
g206
g49
sg19
g51
sg27
(lp264
sg215
(lp265
sg217
(lp266
sg219
(lp267
g221
asg222
(dp268
sg43
S'TProgramInfoForm'
p269
sg44
Nsg225
(lp270
sg45
I0
sg46
g47
sg227
(i__main__
DelphiBlock
p271
(dp272
g230
(idelphi
DelphiCompoundStatement
p273
(dp274
g233
(lp275
(idelphi
DelphiCaseStatement
p276
(dp277
S'elseStatement'
p278
(idelphi
DelphiCompoundStatement
p279
(dp280
g233
(lp281
(i__main__
DelphiAssignStatement
p282
(dp283
g237
(idelphi
DelphiStringAccess
p284
(dp285
g243
(lp286
sg91
(idelphi
DelphiStringValue
p287
(dp288
g91
S'Windows'
p289
sbsbsg238
(i__main__
DelphiIdentAccess
p290
(dp291
g241
S'Platform'
p292
sg243
(lp293
sbsba(i__main__
DelphiAssignStatement
p294
(dp295
g237
(idelphi
DelphiIntegerValue
p296
(dp297
g91
S'0'
sbsg238
(i__main__
DelphiIdentAccess
p298
(dp299
g241
S'BuildNumber'
p300
sg243
(lp301
sbsbasbsS'expression'
p302
(i__main__
DelphiIdentAccess
p303
(dp304
g241
S'Win32Platform'
p305
sg243
(lp306
sbsS'caseSelectorList'
p307
(lp308
(idelphi
DelphiCaseSelector
p309
(dp310
S'statement'
p311
(idelphi
DelphiCompoundStatement
p312
(dp313
g233
(lp314
(i__main__
DelphiAssignStatement
p315
(dp316
g237
(idelphi
DelphiStringAccess
p317
(dp318
g243
(lp319
sg91
(idelphi
DelphiStringValue
p320
(dp321
g91
S'Windows 95'
p322
sbsbsg238
(i__main__
DelphiIdentAccess
p323
(dp324
g241
S'Platform'
p325
sg243
(lp326
sbsba(i__main__
DelphiAssignStatement
p327
(dp328
g237
(idelphi
DelphiMulOp
p329
(dp330
S'signedFactor2'
p331
(idelphi
DelphiHexValue
p332
(dp333
g91
S'$0000FFFF'
p334
sbsS'mulOp'
p335
S'and'
p336
sS'signedFactor1'
p337
(i__main__
DelphiIdentAccess
p338
(dp339
g241
S'Win32BuildNumber'
p340
sg243
(lp341
sbsbsg238
(i__main__
DelphiIdentAccess
p342
(dp343
g241
S'BuildNumber'
p344
sg243
(lp345
sbsbasbsS'caseLabelList'
p346
(lp347
(i__main__
DelphiIdentAccess
p348
(dp349
g241
S'VER_PLATFORM_WIN32_WINDOWS'
p350
sg243
(lp351
sbasba(idelphi
DelphiCaseSelector
p352
(dp353
g311
(idelphi
DelphiCompoundStatement
p354
(dp355
g233
(lp356
(i__main__
DelphiAssignStatement
p357
(dp358
g237
(idelphi
DelphiStringAccess
p359
(dp360
g243
(lp361
sg91
(idelphi
DelphiStringValue
p362
(dp363
g91
S'Windows NT'
p364
sbsbsg238
(i__main__
DelphiIdentAccess
p365
(dp366
g241
S'Platform'
p367
sg243
(lp368
sbsba(i__main__
DelphiAssignStatement
p369
(dp370
g237
(i__main__
DelphiIdentAccess
p371
(dp372
g241
S'Win32BuildNumber'
p373
sg243
(lp374
sbsg238
(i__main__
DelphiIdentAccess
p375
(dp376
g241
S'BuildNumber'
p377
sg243
(lp378
sbsbasbsg346
(lp379
(i__main__
DelphiIdentAccess
p380
(dp381
g241
S'VER_PLATFORM_WIN32_NT'
p382
sg243
(lp383
sbasbasba(idelphi
DelphiIfStatement
p384
(dp385
g302
(idelphi
DelphiAddOp
p386
(dp387
S'addOp'
p388
S'or'
p389
sS'term2'
p390
(idelphi
DelphiNestedExpressionListAccess
p391
(dp392
g243
(lp393
sg251
(lp394
(idelphi
DelphiRelOp
p395
(dp396
S'simpleExpression1'
p397
(i__main__
DelphiIdentAccess
p398
(dp399
g241
S'Win32Platform'
p400
sg243
(lp401
sbsS'simpleExpression2'
p402
(i__main__
DelphiIdentAccess
p403
(dp404
g241
S'VER_PLATFORM_WIN32_NT'
p405
sg243
(lp406
sbsS'relOp'
p407
S'='
sbasbsS'term1'
p408
(idelphi
DelphiNestedExpressionListAccess
p409
(dp410
g243
(lp411
sg251
(lp412
(idelphi
DelphiRelOp
p413
(dp414
g397
(i__main__
DelphiIdentAccess
p415
(dp416
g241
S'Win32Platform'
p417
sg243
(lp418
sbsg402
(i__main__
DelphiIdentAccess
p419
(dp420
g241
S'VER_PLATFORM_WIN32_WINDOWS'
p421
sg243
(lp422
sbsg407
S'='
sbasbsbsS'ifFalseStatement'
p423
(i__main__
DelphiAssignStatement
p424
(dp425
g237
Nsg238
(i__main__
DelphiIdentAccess
p426
(dp427
g241
S'infoList'
p428
sg243
(lp429
(idelphi
DelphiFieldEndAccess
p430
(dp431
g247
S'lines'
p432
sba(idelphi
DelphiFieldEndAccess
p433
(dp434
g247
S'add'
p435
sba(idelphi
DelphiFunctionEndAccess
p436
(dp437
g251
(lp438
(i__main__
DelphiIdentAccess
p439
(dp440
g241
S'Format'
p441
sg243
(lp442
(idelphi
DelphiFunctionEndAccess
p443
(dp444
g251
(lp445
(idelphi
DelphiStringAccess
p446
(dp447
g243
(lp448
sg91
(idelphi
DelphiStringValue
p449
(dp450
g91
S'%s %d.%d'
p451
sbsba(idelphi
DelphiSetConstructor
p452
(dp453
S'setElementList'
p454
(lp455
(i__main__
DelphiIdentAccess
p456
(dp457
g241
S'Platform'
p458
sg243
(lp459
sba(i__main__
DelphiIdentAccess
p460
(dp461
g241
S'Win32MajorVersion'
p462
sg243
(lp463
sba(i__main__
DelphiIdentAccess
p464
(dp465
g241
S'Win32MinorVersion'
p466
sg243
(lp467
sbasbasbasbasbasbsbsS'ifTrueStatement'
p468
(idelphi
DelphiCompoundStatement
p469
(dp470
g233
(lp471
(idelphi
DelphiIfStatement
p472
(dp473
g302
(idelphi
DelphiRelOp
p474
(dp475
g397
(i__main__
DelphiIdentAccess
p476
(dp477
g241
S'Win32CSDVersion'
p478
sg243
(lp479
sbsg402
(idelphi
DelphiStringAccess
p480
(dp481
g243
(lp482
sg91
(idelphi
DelphiStringValue
p483
(dp484
g91
S''
sbsbsg407
S'='
sbsg423
(i__main__
DelphiAssignStatement
p485
(dp486
g237
Nsg238
(i__main__
DelphiIdentAccess
p487
(dp488
g241
S'infoList'
p489
sg243
(lp490
(idelphi
DelphiFieldEndAccess
p491
(dp492
g247
S'lines'
p493
sba(idelphi
DelphiFieldEndAccess
p494
(dp495
g247
S'add'
p496
sba(idelphi
DelphiFunctionEndAccess
p497
(dp498
g251
(lp499
(i__main__
DelphiIdentAccess
p500
(dp501
g241
S'Format'
p502
sg243
(lp503
(idelphi
DelphiFunctionEndAccess
p504
(dp505
g251
(lp506
(idelphi
DelphiStringAccess
p507
(dp508
g243
(lp509
sg91
(idelphi
DelphiStringValue
p510
(dp511
g91
S'%s %d.%d (Build %d: %s)'
p512
sbsba(idelphi
DelphiSetConstructor
p513
(dp514
g454
(lp515
(i__main__
DelphiIdentAccess
p516
(dp517
g241
S'Platform'
p518
sg243
(lp519
sba(i__main__
DelphiIdentAccess
p520
(dp521
g241
S'Win32MajorVersion'
p522
sg243
(lp523
sba(i__main__
DelphiIdentAccess
p524
(dp525
g241
S'Win32MinorVersion'
p526
sg243
(lp527
sba(i__main__
DelphiIdentAccess
p528
(dp529
g241
S'BuildNumber'
p530
sg243
(lp531
sba(i__main__
DelphiIdentAccess
p532
(dp533
g241
S'Win32CSDVersion'
p534
sg243
(lp535
sbasbasbasbasbasbsbsg468
(i__main__
DelphiAssignStatement
p536
(dp537
g237
Nsg238
(i__main__
DelphiIdentAccess
p538
(dp539
g241
S'infoList'
p540
sg243
(lp541
(idelphi
DelphiFieldEndAccess
p542
(dp543
g247
S'lines'
p544
sba(idelphi
DelphiFieldEndAccess
p545
(dp546
g247
S'add'
p547
sba(idelphi
DelphiFunctionEndAccess
p548
(dp549
g251
(lp550
(i__main__
DelphiIdentAccess
p551
(dp552
g241
S'Format'
p553
sg243
(lp554
(idelphi
DelphiFunctionEndAccess
p555
(dp556
g251
(lp557
(idelphi
DelphiStringAccess
p558
(dp559
g243
(lp560
sg91
(idelphi
DelphiStringValue
p561
(dp562
g91
S'%s %d.%d (Build %d)'
p563
sbsba(idelphi
DelphiSetConstructor
p564
(dp565
g454
(lp566
(i__main__
DelphiIdentAccess
p567
(dp568
g241
S'Platform'
p569
sg243
(lp570
sba(i__main__
DelphiIdentAccess
p571
(dp572
g241
S'Win32MajorVersion'
p573
sg243
(lp574
sba(i__main__
DelphiIdentAccess
p575
(dp576
g241
S'Win32MinorVersion'
p577
sg243
(lp578
sba(i__main__
DelphiIdentAccess
p579
(dp580
g241
S'BuildNumber'
p581
sg243
(lp582
sbasbasbasbasbasbsbsbasbsbasbsg259
(lp583
(i__main__
DelphiVarSection
p584
(dp585
S'atTopLevel'
p586
I0
sS'varDeclList'
p587
(lp588
(idelphi
DelphiVarDecl
p589
(dp590
S'constExpression'
p591
NsS'identList'
p592
(lp593
S'Platform'
p594
asg35
(i__main__
DelphiPrimitiveType
p595
(dp596
g38
g91
sbsba(idelphi
DelphiVarDecl
p597
(dp598
g591
Nsg592
(lp599
S'BuildNumber'
p600
asg35
(i__main__
DelphiPrimitiveType
p601
(dp602
g38
S'integer'
p603
sbsbasbasbsbsS'formresize'
p604
(i__main__
DelphiMethodImplementation
p605
(dp606
g206
g54
sg19
g56
sg27
(lp607
(i__main__
DelphiFormalParameter
p608
(dp609
g31
Nsg32
(lp610
S'Sender'
p611
asg35
(i__main__
DelphiNamedType
p612
(dp613
g38
S'TObject'
p614
sg40
g1
sg41
Nsbsg42
Nsbasg215
(lp615
sg217
(lp616
sg219
(lp617
g221
ag611
asg222
(dp618
g611
g612
ssg43
S'TProgramInfoForm'
p619
sg44
Nsg225
(lp620
sg45
I0
sg46
g47
sg227
(i__main__
DelphiBlock
p621
(dp622
g230
(idelphi
DelphiCompoundStatement
p623
(dp624
g233
(lp625
(idelphi
DelphiIfStatement
p626
(dp627
g302
(i__main__
DelphiIdentAccess
p628
(dp629
g241
S'Application'
p630
sg243
(lp631
(idelphi
DelphiFieldEndAccess
p632
(dp633
g247
S'terminated'
p634
sbasbsg423
Nsg468
(i__main__
DelphiExitStatement
p635
(dp636
S'proceduralOrMethodImplementation'
p637
g605
sbsba(i__main__
DelphiAssignStatement
p638
(dp639
g237
(idelphi
DelphiAddOp
p640
(dp641
g388
S'-'
sg390
(i__main__
DelphiIdentAccess
p642
(dp643
g241
S'kBetweenGap'
p644
sg243
(lp645
sbsg408
(idelphi
DelphiAddOp
p646
(dp647
g388
S'-'
sg390
(i__main__
DelphiIdentAccess
p648
(dp649
g241
S'close'
p650
sg243
(lp651
(idelphi
DelphiFieldEndAccess
p652
(dp653
g247
S'width'
p654
sbasbsg408
(i__main__
DelphiIdentAccess
p655
(dp656
g241
S'self'
p657
sg243
(lp658
(idelphi
DelphiFieldEndAccess
p659
(dp660
g247
S'clientWidth'
p661
sbasbsbsbsg238
(i__main__
DelphiIdentAccess
p662
(dp663
g241
S'close'
p664
sg243
(lp665
(idelphi
DelphiFieldEndAccess
p666
(dp667
g247
S'left'
p668
sbasbsba(i__main__
DelphiAssignStatement
p669
(dp670
g237
(i__main__
DelphiIdentAccess
p671
(dp672
g241
S'close'
p673
sg243
(lp674
(idelphi
DelphiFieldEndAccess
p675
(dp676
g247
S'left'
p677
sbasbsg238
(i__main__
DelphiIdentAccess
p678
(dp679
g241
S'saveListAs'
p680
sg243
(lp681
(idelphi
DelphiFieldEndAccess
p682
(dp683
g247
S'left'
p684
sbasbsba(i__main__
DelphiAssignStatement
p685
(dp686
g237
(i__main__
DelphiIdentAccess
p687
(dp688
g241
S'close'
p689
sg243
(lp690
(idelphi
DelphiFieldEndAccess
p691
(dp692
g247
S'left'
p693
sbasbsg238
(i__main__
DelphiIdentAccess
p694
(dp695
g241
S'copyToClipboard'
p696
sg243
(lp697
(idelphi
DelphiFieldEndAccess
p698
(dp699
g247
S'left'
p700
sbasbsba(i__main__
DelphiAssignStatement
p701
(dp702
g237
(i__main__
DelphiIdentAccess
p703
(dp704
g241
S'close'
p705
sg243
(lp706
(idelphi
DelphiFieldEndAccess
p707
(dp708
g247
S'left'
p709
sbasbsg238
(i__main__
DelphiIdentAccess
p710
(dp711
g241
S'helpButton'
p712
sg243
(lp713
(idelphi
DelphiFieldEndAccess
p714
(dp715
g247
S'left'
p716
sbasbsba(idelphi
DelphiWithStatement
p717
(dp718
g311
(i__main__
DelphiAssignStatement
p719
(dp720
g237
Nsg238
(i__main__
DelphiIdentAccess
p721
(dp722
g241
S'setBounds'
p723
sg243
(lp724
(idelphi
DelphiFunctionEndAccess
p725
(dp726
g251
(lp727
(i__main__
DelphiIdentAccess
p728
(dp729
g241
S'kBetweenGap'
p730
sg243
(lp731
sba(i__main__
DelphiIdentAccess
p732
(dp733
g241
S'kBetweenGap'
p734
sg243
(lp735
sba(idelphi
DelphiAddOp
p736
(dp737
g388
S'-'
sg390
(idelphi
DelphiMulOp
p738
(dp739
g331
(idelphi
DelphiIntegerValue
p740
(dp741
g91
S'2'
sbsg335
S'*'
sg337
(i__main__
DelphiIdentAccess
p742
(dp743
g241
S'kBetweenGap'
p744
sg243
(lp745
sbsbsg408
(i__main__
DelphiIdentAccess
p746
(dp747
g241
S'close'
p748
sg243
(lp749
(idelphi
DelphiFieldEndAccess
p750
(dp751
g247
S'left'
p752
sbasbsba(i__main__
DelphiIdentAccess
p753
(dp754
g241
S'intMax'
p755
sg243
(lp756
(idelphi
DelphiFunctionEndAccess
p757
(dp758
g251
(lp759
(idelphi
DelphiIntegerValue
p760
(dp761
g91
S'0'
sba(idelphi
DelphiAddOp
p762
(dp763
g388
S'-'
sg390
(idelphi
DelphiMulOp
p764
(dp765
g331
(idelphi
DelphiIntegerValue
p766
(dp767
g91
S'2'
sbsg335
S'*'
sg337
(i__main__
DelphiIdentAccess
p768
(dp769
g241
S'kBetweenGap'
p770
sg243
(lp771
sbsbsg408
(i__main__
DelphiIdentAccess
p772
(dp773
g241
S'self'
p774
sg243
(lp775
(idelphi
DelphiFieldEndAccess
p776
(dp777
g247
S'clientHeight'
p778
sbasbsbasbasbasbasbsbsS'variableReferenceList'
p779
(lp780
(i__main__
DelphiIdentAccess
p781
(dp782
g241
S'infoList'
p783
sg243
(lp784
sbasbasbsg259
(lp785
sbsbsS'copytoclipboardclick'
p786
(i__main__
DelphiMethodImplementation
p787
(dp788
g206
g66
sg19
g68
sg27
(lp789
(i__main__
DelphiFormalParameter
p790
(dp791
g31
Nsg32
(lp792
S'Sender'
p793
asg35
(i__main__
DelphiNamedType
p794
(dp795
g38
S'TObject'
p796
sg40
g1
sg41
Nsbsg42
Nsbasg215
(lp797
sg217
(lp798
sg219
(lp799
g221
ag793
asg222
(dp800
g793
g794
ssg43
S'TProgramInfoForm'
p801
sg44
Nsg225
(lp802
sg45
I0
sg46
g47
sg227
(i__main__
DelphiBlock
p803
(dp804
g230
(idelphi
DelphiCompoundStatement
p805
(dp806
g233
(lp807
(i__main__
DelphiAssignStatement
p808
(dp809
g237
Nsg238
(i__main__
DelphiIdentAccess
p810
(dp811
g241
S'infoList'
p812
sg243
(lp813
(idelphi
DelphiFieldEndAccess
p814
(dp815
g247
S'selectAll'
p816
sbasbsba(i__main__
DelphiAssignStatement
p817
(dp818
g237
Nsg238
(i__main__
DelphiIdentAccess
p819
(dp820
g241
S'infoList'
p821
sg243
(lp822
(idelphi
DelphiFieldEndAccess
p823
(dp824
g247
S'copyToClipboard'
p825
sbasbsbasbsg259
(lp826
sbsbsS'stringformemoryink'
p827
(i__main__
DelphiMethodImplementation
p828
(dp829
g206
g78
sg19
g80
sg27
(lp830
(i__main__
DelphiFormalParameter
p831
(dp832
g31
Nsg32
(lp833
S'kilobytes'
p834
asg35
(i__main__
DelphiPrimitiveType
p835
(dp836
g38
g88
sbsg42
Nsbasg215
(lp837
sg217
(lp838
sg219
(lp839
g221
ag834
asg222
(dp840
g834
g835
ssg43
S'TProgramInfoForm'
p841
sg44
(i__main__
DelphiPrimitiveType
p842
(dp843
g38
g91
sbsg225
(lp844
sg45
I0
sg46
g92
sg227
(i__main__
DelphiBlock
p845
(dp846
g230
(idelphi
DelphiCompoundStatement
p847
(dp848
g233
(lp849
(idelphi
DelphiIfStatement
p850
(dp851
g302
(idelphi
DelphiRelOp
p852
(dp853
g397
(i__main__
DelphiIdentAccess
p854
(dp855
g241
S'kilobytes'
p856
sg243
(lp857
sbsg402
(idelphi
DelphiIntegerValue
p858
(dp859
g91
S'1024'
p860
sbsg407
S'<='
p861
sbsg423
(i__main__
DelphiAssignStatement
p862
(dp863
g237
(idelphi
DelphiAddOp
p864
(dp865
g388
S'+'
sg390
(idelphi
DelphiStringAccess
p866
(dp867
g243
(lp868
sg91
(idelphi
DelphiStringValue
p869
(dp870
g91
S' MB'
p871
sbsbsg408
(i__main__
DelphiIdentAccess
p872
(dp873
g241
S'digitValueString'
p874
sg243
(lp875
(idelphi
DelphiFunctionEndAccess
p876
(dp877
g251
(lp878
(idelphi
DelphiMulOp
p879
(dp880
g331
(idelphi
DelphiRealValue
p881
(dp882
g91
S'1024.0'
p883
sbsg335
S'/'
sg337
(i__main__
DelphiIdentAccess
p884
(dp885
g241
S'kilobytes'
p886
sg243
(lp887
sbsbasbasbsbsg238
(i__main__
DelphiIdentAccess
p888
(dp889
g241
S'result'
p890
sg243
(lp891
sbsbsg468
(i__main__
DelphiAssignStatement
p892
(dp893
g237
(idelphi
DelphiAddOp
p894
(dp895
g388
S'+'
sg390
(idelphi
DelphiStringAccess
p896
(dp897
g243
(lp898
sg91
(idelphi
DelphiStringValue
p899
(dp900
g91
S' K'
p901
sbsbsg408
(i__main__
DelphiIdentAccess
p902
(dp903
g241
S'digitValueString'
p904
sg243
(lp905
(idelphi
DelphiFunctionEndAccess
p906
(dp907
g251
(lp908
(i__main__
DelphiIdentAccess
p909
(dp910
g241
S'kilobytes'
p911
sg243
(lp912
sbasbasbsbsg238
(i__main__
DelphiIdentAccess
p913
(dp914
g241
S'result'
p915
sg243
(lp916
sbsbsbasbsg259
(lp917
sbsbsS'describeplant'
p918
(i__main__
DelphiMethodImplementation
p919
(dp920
g206
g94
sg19
g96
sg27
(lp921
(i__main__
DelphiFormalParameter
p922
(dp923
g31
Nsg32
(lp924
S'describeString'
p925
asg35
(i__main__
DelphiPrimitiveType
p926
(dp927
g38
g91
sbsg42
Nsba(i__main__
DelphiFormalParameter
p928
(dp929
g31
Nsg32
(lp930
S'plantProxy'
p931
asg35
(i__main__
DelphiNamedType
p932
(dp933
g38
S'TObject'
p934
sg40
g1
sg41
Nsbsg42
Nsbasg215
(lp935
sg217
(lp936
sg219
(lp937
g221
ag925
ag931
asg222
(dp938
g925
g926
sg931
g932
ssg43
S'TProgramInfoForm'
p939
sg44
Nsg225
(lp940
sg45
I0
sg46
g47
sg227
(i__main__
DelphiBlock
p941
(dp942
g230
(idelphi
DelphiCompoundStatement
p943
(dp944
g233
(lp945
(idelphi
DelphiIfStatement
p946
(dp947
g302
(idelphi
DelphiRelOp
p948
(dp949
g397
(i__main__
DelphiIdentAccess
p950
(dp951
g241
S'plantProxy'
p952
sg243
(lp953
sbsg402
(idelphi
DelphiNilValue
p954
(dp955
bsg407
S'='
sbsg423
Nsg468
(i__main__
DelphiExitStatement
p956
(dp957
g637
g919
sbsba(i__main__
DelphiAssignStatement
p958
(dp959
g237
(idelphi
DelphiMulOp
p960
(dp961
g331
(i__main__
DelphiIdentAccess
p962
(dp963
g241
S'PdPlant'
p964
sg243
(lp965
sbsg335
S'as'
p966
sg337
(i__main__
DelphiIdentAccess
p967
(dp968
g241
S'plantProxy'
p969
sg243
(lp970
sbsbsg238
(i__main__
DelphiIdentAccess
p971
(dp972
g241
S'plant'
p973
sg243
(lp974
sbsba(i__main__
DelphiAssignStatement
p975
(dp976
g237
Nsg238
(i__main__
DelphiIdentAccess
p977
(dp978
g241
S'plant'
p979
sg243
(lp980
(idelphi
DelphiFieldEndAccess
p981
(dp982
g247
S'countPlantParts'
p983
sbasbsba(i__main__
DelphiAssignStatement
p984
(dp985
g237
Nsg238
(i__main__
DelphiIdentAccess
p986
(dp987
g241
S'infoList'
p988
sg243
(lp989
(idelphi
DelphiFieldEndAccess
p990
(dp991
g247
S'lines'
p992
sba(idelphi
DelphiFieldEndAccess
p993
(dp994
g247
S'add'
p995
sba(idelphi
DelphiFunctionEndAccess
p996
(dp997
g251
(lp998
(idelphi
DelphiAddOp
p999
(dp1000
g388
S'+'
sg390
(i__main__
DelphiIdentAccess
p1001
(dp1002
g241
S'plant'
p1003
sg243
(lp1004
(idelphi
DelphiFieldEndAccess
p1005
(dp1006
g247
S'name'
p1007
sbasbsg408
(idelphi
DelphiAddOp
p1008
(dp1009
g388
S'+'
sg390
(idelphi
DelphiStringAccess
p1010
(dp1011
g243
(lp1012
sg91
(idelphi
DelphiStringValue
p1013
(dp1014
g91
S' plant: '
p1015
sbsbsg408
(i__main__
DelphiIdentAccess
p1016
(dp1017
g241
S'describeString'
p1018
sg243
(lp1019
sbsbsbasbasbsba(i__main__
DelphiAssignStatement
p1020
(dp1021
g237
(i__main__
DelphiIdentAccess
p1022
(dp1023
g241
S'plant'
p1024
sg243
(lp1025
(idelphi
DelphiFieldEndAccess
p1026
(dp1027
g247
S'calculateTotalMemorySize'
p1028
sbasbsg238
(i__main__
DelphiIdentAccess
p1029
(dp1030
g241
S'totalMemUse'
p1031
sg243
(lp1032
sbsg134
(lp1033
S' memory\r'
p1034
asba(i__main__
DelphiAssignStatement
p1035
(dp1036
g237
(idelphi
DelphiMulOp
p1037
(dp1038
g331
(idelphi
DelphiRealValue
p1039
(dp1040
g91
S'1024.0'
p1041
sbsg335
S'/'
sg337
(i__main__
DelphiIdentAccess
p1042
(dp1043
g241
S'plant'
p1044
sg243
(lp1045
(idelphi
DelphiFieldEndAccess
p1046
(dp1047
g247
S'instanceSize'
p1048
sbasbsbsg238
(i__main__
DelphiIdentAccess
p1049
(dp1050
g241
S'baseMemUse'
p1051
sg243
(lp1052
sbsba(i__main__
DelphiAssignStatement
p1053
(dp1054
g237
(i__main__
DelphiIdentAccess
p1055
(dp1056
g241
S'plant'
p1057
sg243
(lp1058
(idelphi
DelphiFieldEndAccess
p1059
(dp1060
g247
S'hangingObjectsMemoryUse_K'
p1061
sbasbsg238
(i__main__
DelphiIdentAccess
p1062
(dp1063
g241
S'hangingMemUse'
p1064
sg243
(lp1065
sbsba(i__main__
DelphiAssignStatement
p1066
(dp1067
g237
(i__main__
DelphiIdentAccess
p1068
(dp1069
g241
S'plant'
p1070
sg243
(lp1071
(idelphi
DelphiFieldEndAccess
p1072
(dp1073
g247
S'tdoMemoryUse_K'
p1074
sbasbsg238
(i__main__
DelphiIdentAccess
p1075
(dp1076
g241
S'tdoMemUse'
p1077
sg243
(lp1078
sbsba(idelphi
DelphiIfStatement
p1079
(dp1080
g302
(idelphi
DelphiRelOp
p1081
(dp1082
g397
(i__main__
DelphiIdentAccess
p1083
(dp1084
g241
S'plant'
p1085
sg243
(lp1086
(idelphi
DelphiFieldEndAccess
p1087
(dp1088
g247
S'previewCache'
p1089
sbasbsg402
(idelphi
DelphiNilValue
p1090
(dp1091
bsg407
S'<>'
p1092
sbsg423
(i__main__
DelphiAssignStatement
p1093
(dp1094
g237
(idelphi
DelphiIntegerValue
p1095
(dp1096
g91
S'0'
sbsg238
(i__main__
DelphiIdentAccess
p1097
(dp1098
g241
S'cacheMemUse'
p1099
sg243
(lp1100
sbsbsg468
(i__main__
DelphiAssignStatement
p1101
(dp1102
g237
(idelphi
DelphiMulOp
p1103
(dp1104
g331
(idelphi
DelphiRealValue
p1105
(dp1106
g91
S'1024.0'
p1107
sbsg335
S'/'
sg337
(i__main__
DelphiIdentAccess
p1108
(dp1109
g241
S'BitmapMemorySize'
p1110
sg243
(lp1111
(idelphi
DelphiFunctionEndAccess
p1112
(dp1113
g251
(lp1114
(i__main__
DelphiIdentAccess
p1115
(dp1116
g241
S'plant'
p1117
sg243
(lp1118
(idelphi
DelphiFieldEndAccess
p1119
(dp1120
g247
S'previewCache'
p1121
sbasbasbasbsbsg238
(i__main__
DelphiIdentAccess
p1122
(dp1123
g241
S'cacheMemUse'
p1124
sg243
(lp1125
sbsbsba(i__main__
DelphiAssignStatement
p1126
(dp1127
g237
(idelphi
DelphiAddOp
p1128
(dp1129
g388
S'-'
sg390
(i__main__
DelphiIdentAccess
p1130
(dp1131
g241
S'cacheMemUse'
p1132
sg243
(lp1133
sbsg408
(idelphi
DelphiAddOp
p1134
(dp1135
g388
S'-'
sg390
(i__main__
DelphiIdentAccess
p1136
(dp1137
g241
S'tdoMemUse'
p1138
sg243
(lp1139
sbsg408
(idelphi
DelphiAddOp
p1140
(dp1141
g388
S'-'
sg390
(i__main__
DelphiIdentAccess
p1142
(dp1143
g241
S'hangingMemUse'
p1144
sg243
(lp1145
sbsg408
(idelphi
DelphiAddOp
p1146
(dp1147
g388
S'-'
sg390
(i__main__
DelphiIdentAccess
p1148
(dp1149
g241
S'baseMemUse'
p1150
sg243
(lp1151
sbsg408
(i__main__
DelphiIdentAccess
p1152
(dp1153
g241
S'totalMemUse'
p1154
sg243
(lp1155
sbsbsbsbsbsg238
(i__main__
DelphiIdentAccess
p1156
(dp1157
g241
S'partsMemUse'
p1158
sg243
(lp1159
sbsba(i__main__
DelphiAssignStatement
p1160
(dp1161
g237
Nsg238
(i__main__
DelphiIdentAccess
p1162
(dp1163
g241
S'infoList'
p1164
sg243
(lp1165
(idelphi
DelphiFieldEndAccess
p1166
(dp1167
g247
S'lines'
p1168
sba(idelphi
DelphiFieldEndAccess
p1169
(dp1170
g247
S'add'
p1171
sba(idelphi
DelphiFunctionEndAccess
p1172
(dp1173
g251
(lp1174
(idelphi
DelphiAddOp
p1175
(dp1176
g388
S'+'
sg390
(i__main__
DelphiIdentAccess
p1177
(dp1178
g241
S'self'
p1179
sg243
(lp1180
(idelphi
DelphiFieldEndAccess
p1181
(dp1182
g247
S'stringForMemoryInK'
p1183
sba(idelphi
DelphiFunctionEndAccess
p1184
(dp1185
g251
(lp1186
(i__main__
DelphiIdentAccess
p1187
(dp1188
g241
S'totalMemUse'
p1189
sg243
(lp1190
sbasbasbsg408
(idelphi
DelphiStringAccess
p1191
(dp1192
g243
(lp1193
sg91
(idelphi
DelphiStringValue
p1194
(dp1195
g91
S'  total memory use '
p1196
sbsbsbasbasbsba(i__main__
DelphiAssignStatement
p1197
(dp1198
g237
Nsg238
(i__main__
DelphiIdentAccess
p1199
(dp1200
g241
S'infoList'
p1201
sg243
(lp1202
(idelphi
DelphiFieldEndAccess
p1203
(dp1204
g247
S'lines'
p1205
sba(idelphi
DelphiFieldEndAccess
p1206
(dp1207
g247
S'add'
p1208
sba(idelphi
DelphiFunctionEndAccess
p1209
(dp1210
g251
(lp1211
(idelphi
DelphiAddOp
p1212
(dp1213
g388
S'+'
sg390
(i__main__
DelphiIdentAccess
p1214
(dp1215
g241
S'self'
p1216
sg243
(lp1217
(idelphi
DelphiFieldEndAccess
p1218
(dp1219
g247
S'stringForMemoryInK'
p1220
sba(idelphi
DelphiFunctionEndAccess
p1221
(dp1222
g251
(lp1223
(i__main__
DelphiIdentAccess
p1224
(dp1225
g241
S'baseMemUse'
p1226
sg243
(lp1227
sbasbasbsg408
(idelphi
DelphiStringAccess
p1228
(dp1229
g243
(lp1230
sg91
(idelphi
DelphiStringValue
p1231
(dp1232
g91
S'    base memory with parameters '
p1233
sbsbsbasbasbsba(i__main__
DelphiAssignStatement
p1234
(dp1235
g237
Nsg238
(i__main__
DelphiIdentAccess
p1236
(dp1237
g241
S'infoList'
p1238
sg243
(lp1239
(idelphi
DelphiFieldEndAccess
p1240
(dp1241
g247
S'lines'
p1242
sba(idelphi
DelphiFieldEndAccess
p1243
(dp1244
g247
S'add'
p1245
sba(idelphi
DelphiFunctionEndAccess
p1246
(dp1247
g251
(lp1248
(idelphi
DelphiAddOp
p1249
(dp1250
g388
S'+'
sg390
(i__main__
DelphiIdentAccess
p1251
(dp1252
g241
S'self'
p1253
sg243
(lp1254
(idelphi
DelphiFieldEndAccess
p1255
(dp1256
g247
S'stringForMemoryInK'
p1257
sba(idelphi
DelphiFunctionEndAccess
p1258
(dp1259
g251
(lp1260
(i__main__
DelphiIdentAccess
p1261
(dp1262
g241
S'hangingMemUse'
p1263
sg243
(lp1264
sbasbasbsg408
(idelphi
DelphiStringAccess
p1265
(dp1266
g243
(lp1267
sg91
(idelphi
DelphiStringValue
p1268
(dp1269
g91
S'    posing and random number generators '
p1270
sbsbsbasbasbsba(i__main__
DelphiAssignStatement
p1271
(dp1272
g237
Nsg238
(i__main__
DelphiIdentAccess
p1273
(dp1274
g241
S'infoList'
p1275
sg243
(lp1276
(idelphi
DelphiFieldEndAccess
p1277
(dp1278
g247
S'lines'
p1279
sba(idelphi
DelphiFieldEndAccess
p1280
(dp1281
g247
S'add'
p1282
sba(idelphi
DelphiFunctionEndAccess
p1283
(dp1284
g251
(lp1285
(idelphi
DelphiAddOp
p1286
(dp1287
g388
S'+'
sg390
(i__main__
DelphiIdentAccess
p1288
(dp1289
g241
S'self'
p1290
sg243
(lp1291
(idelphi
DelphiFieldEndAccess
p1292
(dp1293
g247
S'stringForMemoryInK'
p1294
sba(idelphi
DelphiFunctionEndAccess
p1295
(dp1296
g251
(lp1297
(i__main__
DelphiIdentAccess
p1298
(dp1299
g241
S'tdoMemUse'
p1300
sg243
(lp1301
sbasbasbsg408
(idelphi
DelphiStringAccess
p1302
(dp1303
g243
(lp1304
sg91
(idelphi
DelphiStringValue
p1305
(dp1306
g91
S'    memory for 3D objects '
p1307
sbsbsbasbasbsba(i__main__
DelphiAssignStatement
p1308
(dp1309
g237
Nsg238
(i__main__
DelphiIdentAccess
p1310
(dp1311
g241
S'infoList'
p1312
sg243
(lp1313
(idelphi
DelphiFieldEndAccess
p1314
(dp1315
g247
S'lines'
p1316
sba(idelphi
DelphiFieldEndAccess
p1317
(dp1318
g247
S'add'
p1319
sba(idelphi
DelphiFunctionEndAccess
p1320
(dp1321
g251
(lp1322
(idelphi
DelphiAddOp
p1323
(dp1324
g388
S'+'
sg390
(i__main__
DelphiIdentAccess
p1325
(dp1326
g241
S'self'
p1327
sg243
(lp1328
(idelphi
DelphiFieldEndAccess
p1329
(dp1330
g247
S'stringForMemoryInK'
p1331
sba(idelphi
DelphiFunctionEndAccess
p1332
(dp1333
g251
(lp1334
(i__main__
DelphiIdentAccess
p1335
(dp1336
g241
S'cacheMemUse'
p1337
sg243
(lp1338
sbasbasbsg408
(idelphi
DelphiStringAccess
p1339
(dp1340
g243
(lp1341
sg91
(idelphi
DelphiStringValue
p1342
(dp1343
g91
S'    memory for drawing cache '
p1344
sbsbsbasbasbsba(i__main__
DelphiAssignStatement
p1345
(dp1346
g237
Nsg238
(i__main__
DelphiIdentAccess
p1347
(dp1348
g241
S'infoList'
p1349
sg243
(lp1350
(idelphi
DelphiFieldEndAccess
p1351
(dp1352
g247
S'lines'
p1353
sba(idelphi
DelphiFieldEndAccess
p1354
(dp1355
g247
S'add'
p1356
sba(idelphi
DelphiFunctionEndAccess
p1357
(dp1358
g251
(lp1359
(idelphi
DelphiAddOp
p1360
(dp1361
g388
S'+'
sg390
(i__main__
DelphiIdentAccess
p1362
(dp1363
g241
S'self'
p1364
sg243
(lp1365
(idelphi
DelphiFieldEndAccess
p1366
(dp1367
g247
S'stringForMemoryInK'
p1368
sba(idelphi
DelphiFunctionEndAccess
p1369
(dp1370
g251
(lp1371
(i__main__
DelphiIdentAccess
p1372
(dp1373
g241
S'partsMemUse'
p1374
sg243
(lp1375
sbasbasbsg408
(idelphi
DelphiStringAccess
p1376
(dp1377
g243
(lp1378
sg91
(idelphi
DelphiStringValue
p1379
(dp1380
g91
S'    memory for plant parts '
p1381
sbsbsbasbasbsba(i__main__
DelphiAssignStatement
p1382
(dp1383
g237
Nsg238
(i__main__
DelphiIdentAccess
p1384
(dp1385
g241
S'infoList'
p1386
sg243
(lp1387
(idelphi
DelphiFieldEndAccess
p1388
(dp1389
g247
S'lines'
p1390
sba(idelphi
DelphiFieldEndAccess
p1391
(dp1392
g247
S'add'
p1393
sba(idelphi
DelphiFunctionEndAccess
p1394
(dp1395
g251
(lp1396
(idelphi
DelphiAddOp
p1397
(dp1398
g388
S'+'
sg390
(i__main__
DelphiIdentAccess
p1399
(dp1400
g241
S'intToStr'
p1401
sg243
(lp1402
(idelphi
DelphiFunctionEndAccess
p1403
(dp1404
g251
(lp1405
(i__main__
DelphiIdentAccess
p1406
(dp1407
g241
S'plant'
p1408
sg243
(lp1409
(idelphi
DelphiFieldEndAccess
p1410
(dp1411
g247
S'age'
p1412
sbasbasbasbsg408
(idelphi
DelphiStringAccess
p1413
(dp1414
g243
(lp1415
sg91
(idelphi
DelphiStringValue
p1416
(dp1417
g91
S'  age '
p1418
sbsbsbasbasbsg134
(lp1419
S' status\r'
p1420
asba(i__main__
DelphiAssignStatement
p1421
(dp1422
g237
Nsg238
(i__main__
DelphiIdentAccess
p1423
(dp1424
g241
S'infoList'
p1425
sg243
(lp1426
(idelphi
DelphiFieldEndAccess
p1427
(dp1428
g247
S'lines'
p1429
sba(idelphi
DelphiFieldEndAccess
p1430
(dp1431
g247
S'add'
p1432
sba(idelphi
DelphiFunctionEndAccess
p1433
(dp1434
g251
(lp1435
(idelphi
DelphiAddOp
p1436
(dp1437
g388
S'+'
sg390
(i__main__
DelphiIdentAccess
p1438
(dp1439
g241
S'intToStr'
p1440
sg243
(lp1441
(idelphi
DelphiFunctionEndAccess
p1442
(dp1443
g251
(lp1444
(i__main__
DelphiIdentAccess
p1445
(dp1446
g241
S'plant'
p1447
sg243
(lp1448
(idelphi
DelphiFieldEndAccess
p1449
(dp1450
g247
S'pGeneral'
p1451
sba(idelphi
DelphiFieldEndAccess
p1452
(dp1453
g247
S'ageAtMaturity'
p1454
sbasbasbasbsg408
(idelphi
DelphiStringAccess
p1455
(dp1456
g243
(lp1457
sg91
(idelphi
DelphiStringValue
p1458
(dp1459
g91
S'  maturity '
p1460
sbsbsbasbasbsba(i__main__
DelphiAssignStatement
p1461
(dp1462
g237
Nsg238
(i__main__
DelphiIdentAccess
p1463
(dp1464
g241
S'infoList'
p1465
sg243
(lp1466
(idelphi
DelphiFieldEndAccess
p1467
(dp1468
g247
S'lines'
p1469
sba(idelphi
DelphiFieldEndAccess
p1470
(dp1471
g247
S'add'
p1472
sba(idelphi
DelphiFunctionEndAccess
p1473
(dp1474
g251
(lp1475
(idelphi
DelphiAddOp
p1476
(dp1477
g388
S'+'
sg390
(i__main__
DelphiIdentAccess
p1478
(dp1479
g241
S'digitValueString'
p1480
sg243
(lp1481
(idelphi
DelphiFunctionEndAccess
p1482
(dp1483
g251
(lp1484
(i__main__
DelphiIdentAccess
p1485
(dp1486
g241
S'plant'
p1487
sg243
(lp1488
(idelphi
DelphiFieldEndAccess
p1489
(dp1490
g247
S'drawingScale_PixelsPerMm'
p1491
sbasbasbasbsg408
(idelphi
DelphiStringAccess
p1492
(dp1493
g243
(lp1494
sg91
(idelphi
DelphiStringValue
p1495
(dp1496
g91
S'  scale '
p1497
sbsbsbasbasbsba(idelphi
DelphiIfStatement
p1498
(dp1499
g302
(idelphi
DelphiRelOp
p1500
(dp1501
g397
(i__main__
DelphiIdentAccess
p1502
(dp1503
g241
S'plant'
p1504
sg243
(lp1505
(idelphi
DelphiFieldEndAccess
p1506
(dp1507
g247
S'previewCache'
p1508
sbasbsg402
(idelphi
DelphiNilValue
p1509
(dp1510
bsg407
g1092
sbsg423
(i__main__
DelphiAssignStatement
p1511
(dp1512
g237
Nsg238
(i__main__
DelphiIdentAccess
p1513
(dp1514
g241
S'infoList'
p1515
sg243
(lp1516
(idelphi
DelphiFieldEndAccess
p1517
(dp1518
g247
S'lines'
p1519
sba(idelphi
DelphiFieldEndAccess
p1520
(dp1521
g247
S'add'
p1522
sba(idelphi
DelphiFunctionEndAccess
p1523
(dp1524
g251
(lp1525
(idelphi
DelphiStringAccess
p1526
(dp1527
g243
(lp1528
sg91
(idelphi
DelphiStringValue
p1529
(dp1530
g91
S'  no cache'
p1531
sbsbasbasbsbsg468
(i__main__
DelphiAssignStatement
p1532
(dp1533
g237
Nsg238
(i__main__
DelphiIdentAccess
p1534
(dp1535
g241
S'infoList'
p1536
sg243
(lp1537
(idelphi
DelphiFieldEndAccess
p1538
(dp1539
g247
S'lines'
p1540
sba(idelphi
DelphiFieldEndAccess
p1541
(dp1542
g247
S'add'
p1543
sba(idelphi
DelphiFunctionEndAccess
p1544
(dp1545
g251
(lp1546
(idelphi
DelphiAddOp
p1547
(dp1548
g388
S'+'
sg390
(i__main__
DelphiIdentAccess
p1549
(dp1550
g241
S'intToStr'
p1551
sg243
(lp1552
(idelphi
DelphiFunctionEndAccess
p1553
(dp1554
g251
(lp1555
(i__main__
DelphiIdentAccess
p1556
(dp1557
g241
S'plant'
p1558
sg243
(lp1559
(idelphi
DelphiFieldEndAccess
p1560
(dp1561
g247
S'previewCache'
p1562
sba(idelphi
DelphiFieldEndAccess
p1563
(dp1564
g247
S'height'
p1565
sbasbasbasbsg408
(idelphi
DelphiAddOp
p1566
(dp1567
g388
S'+'
sg390
(idelphi
DelphiStringAccess
p1568
(dp1569
g243
(lp1570
sg91
(idelphi
DelphiStringValue
p1571
(dp1572
g91
S'x'
sbsbsg408
(idelphi
DelphiAddOp
p1573
(dp1574
g388
S'+'
sg390
(i__main__
DelphiIdentAccess
p1575
(dp1576
g241
S'intToStr'
p1577
sg243
(lp1578
(idelphi
DelphiFunctionEndAccess
p1579
(dp1580
g251
(lp1581
(i__main__
DelphiIdentAccess
p1582
(dp1583
g241
S'plant'
p1584
sg243
(lp1585
(idelphi
DelphiFieldEndAccess
p1586
(dp1587
g247
S'previewCache'
p1588
sba(idelphi
DelphiFieldEndAccess
p1589
(dp1590
g247
S'width'
p1591
sbasbasbasbsg408
(idelphi
DelphiStringAccess
p1592
(dp1593
g243
(lp1594
sg91
(idelphi
DelphiStringValue
p1595
(dp1596
g91
S'  cache '
p1597
sbsbsbsbsbasbasbsbsba(i__main__
DelphiAssignStatement
p1598
(dp1599
g237
Nsg238
(i__main__
DelphiIdentAccess
p1600
(dp1601
g241
S'infoList'
p1602
sg243
(lp1603
(idelphi
DelphiFieldEndAccess
p1604
(dp1605
g247
S'lines'
p1606
sba(idelphi
DelphiFieldEndAccess
p1607
(dp1608
g247
S'add'
p1609
sba(idelphi
DelphiFunctionEndAccess
p1610
(dp1611
g251
(lp1612
(idelphi
DelphiAddOp
p1613
(dp1614
g388
S'+'
sg390
(i__main__
DelphiIdentAccess
p1615
(dp1616
g241
S'digitValueString'
p1617
sg243
(lp1618
(idelphi
DelphiFunctionEndAccess
p1619
(dp1620
g251
(lp1621
(i__main__
DelphiIdentAccess
p1622
(dp1623
g241
S'plant'
p1624
sg243
(lp1625
(idelphi
DelphiFieldEndAccess
p1626
(dp1627
g247
S'basePoint_mm'
p1628
sba(idelphi
DelphiFieldEndAccess
p1629
(dp1630
g247
S'y'
sbasbasbasbsg408
(idelphi
DelphiAddOp
p1631
(dp1632
g388
S'+'
sg390
(idelphi
DelphiStringAccess
p1633
(dp1634
g243
(lp1635
sg91
(idelphi
DelphiStringValue
p1636
(dp1637
g91
S'x'
sbsbsg408
(idelphi
DelphiAddOp
p1638
(dp1639
g388
S'+'
sg390
(i__main__
DelphiIdentAccess
p1640
(dp1641
g241
S'digitValueString'
p1642
sg243
(lp1643
(idelphi
DelphiFunctionEndAccess
p1644
(dp1645
g251
(lp1646
(i__main__
DelphiIdentAccess
p1647
(dp1648
g241
S'plant'
p1649
sg243
(lp1650
(idelphi
DelphiFieldEndAccess
p1651
(dp1652
g247
S'basePoint_mm'
p1653
sba(idelphi
DelphiFieldEndAccess
p1654
(dp1655
g247
S'x'
sbasbasbasbsg408
(idelphi
DelphiStringAccess
p1656
(dp1657
g243
(lp1658
sg91
(idelphi
DelphiStringValue
p1659
(dp1660
g91
S'  base '
p1661
sbsbsbsbsbasbasbsba(i__main__
DelphiAssignStatement
p1662
(dp1663
g237
Nsg238
(i__main__
DelphiIdentAccess
p1664
(dp1665
g241
S'infoList'
p1666
sg243
(lp1667
(idelphi
DelphiFieldEndAccess
p1668
(dp1669
g247
S'lines'
p1670
sba(idelphi
DelphiFieldEndAccess
p1671
(dp1672
g247
S'add'
p1673
sba(idelphi
DelphiFunctionEndAccess
p1674
(dp1675
g251
(lp1676
(idelphi
DelphiAddOp
p1677
(dp1678
g388
S'+'
sg390
(i__main__
DelphiIdentAccess
p1679
(dp1680
g241
S'boolToStr'
p1681
sg243
(lp1682
(idelphi
DelphiFunctionEndAccess
p1683
(dp1684
g251
(lp1685
(i__main__
DelphiIdentAccess
p1686
(dp1687
g241
S'plant'
p1688
sg243
(lp1689
(idelphi
DelphiFieldEndAccess
p1690
(dp1691
g247
S'hidden'
p1692
sbasbasbasbsg408
(idelphi
DelphiStringAccess
p1693
(dp1694
g243
(lp1695
sg91
(idelphi
DelphiStringValue
p1696
(dp1697
g91
S'  hidden '
p1698
sbsbsbasbasbsba(i__main__
DelphiAssignStatement
p1699
(dp1700
g237
Nsg238
(i__main__
DelphiIdentAccess
p1701
(dp1702
g241
S'infoList'
p1703
sg243
(lp1704
(idelphi
DelphiFieldEndAccess
p1705
(dp1706
g247
S'lines'
p1707
sba(idelphi
DelphiFieldEndAccess
p1708
(dp1709
g247
S'add'
p1710
sba(idelphi
DelphiFunctionEndAccess
p1711
(dp1712
g251
(lp1713
(idelphi
DelphiAddOp
p1714
(dp1715
g388
S'+'
sg390
(i__main__
DelphiIdentAccess
p1716
(dp1717
g241
S'intToStr'
p1718
sg243
(lp1719
(idelphi
DelphiFunctionEndAccess
p1720
(dp1721
g251
(lp1722
(i__main__
DelphiIdentAccess
p1723
(dp1724
g241
S'plant'
p1725
sg243
(lp1726
(idelphi
DelphiFieldEndAccess
p1727
(dp1728
g247
S'pGeneral'
p1729
sba(idelphi
DelphiFieldEndAccess
p1730
(dp1731
g247
S'startingSeedForRandomNumberGenerator'
p1732
sbasbasbasbsg408
(idelphi
DelphiStringAccess
p1733
(dp1734
g243
(lp1735
sg91
(idelphi
DelphiStringValue
p1736
(dp1737
g91
S'  random number seed '
p1738
sbsbsbasbasbsba(i__main__
DelphiAssignStatement
p1739
(dp1740
g237
(i__main__
DelphiIdentAccess
p1741
(dp1742
g241
S'plant'
p1743
sg243
(lp1744
(idelphi
DelphiFieldEndAccess
p1745
(dp1746
g247
S'boundsRect_pixels'
p1747
sbasbsg238
(i__main__
DelphiIdentAccess
p1748
(dp1749
g241
S'theRect'
p1750
sg243
(lp1751
sbsba(i__main__
DelphiAssignStatement
p1752
(dp1753
g237
Nsg238
(i__main__
DelphiIdentAccess
p1754
(dp1755
g241
S'infoList'
p1756
sg243
(lp1757
(idelphi
DelphiFieldEndAccess
p1758
(dp1759
g247
S'lines'
p1760
sba(idelphi
DelphiFieldEndAccess
p1761
(dp1762
g247
S'add'
p1763
sba(idelphi
DelphiFunctionEndAccess
p1764
(dp1765
g251
(lp1766
(idelphi
DelphiAddOp
p1767
(dp1768
g388
S'+'
sg390
(idelphi
DelphiStringAccess
p1769
(dp1770
g243
(lp1771
sg91
(idelphi
DelphiStringValue
p1772
(dp1773
g91
S')'
sbsbsg408
(idelphi
DelphiAddOp
p1774
(dp1775
g388
S'+'
sg390
(i__main__
DelphiIdentAccess
p1776
(dp1777
g241
S'intToStr'
p1778
sg243
(lp1779
(idelphi
DelphiFunctionEndAccess
p1780
(dp1781
g251
(lp1782
(i__main__
DelphiIdentAccess
p1783
(dp1784
g241
S'rHeight'
p1785
sg243
(lp1786
(idelphi
DelphiFunctionEndAccess
p1787
(dp1788
g251
(lp1789
(i__main__
DelphiIdentAccess
p1790
(dp1791
g241
S'theRect'
p1792
sg243
(lp1793
sbasbasbasbasbsg408
(idelphi
DelphiAddOp
p1794
(dp1795
g388
S'+'
sg390
(idelphi
DelphiStringAccess
p1796
(dp1797
g243
(lp1798
sg91
(idelphi
DelphiStringValue
p1799
(dp1800
g91
S'x'
sbsbsg408
(idelphi
DelphiAddOp
p1801
(dp1802
g388
S'+'
sg390
(i__main__
DelphiIdentAccess
p1803
(dp1804
g241
S'intToStr'
p1805
sg243
(lp1806
(idelphi
DelphiFunctionEndAccess
p1807
(dp1808
g251
(lp1809
(i__main__
DelphiIdentAccess
p1810
(dp1811
g241
S'rWidth'
p1812
sg243
(lp1813
(idelphi
DelphiFunctionEndAccess
p1814
(dp1815
g251
(lp1816
(i__main__
DelphiIdentAccess
p1817
(dp1818
g241
S'theRect'
p1819
sg243
(lp1820
sbasbasbasbasbsg408
(idelphi
DelphiAddOp
p1821
(dp1822
g388
S'+'
sg390
(idelphi
DelphiStringAccess
p1823
(dp1824
g243
(lp1825
sg91
(idelphi
DelphiStringValue
p1826
(dp1827
g91
S' ('
p1828
sbsbsg408
(idelphi
DelphiAddOp
p1829
(dp1830
g388
S'+'
sg390
(i__main__
DelphiIdentAccess
p1831
(dp1832
g241
S'intToStr'
p1833
sg243
(lp1834
(idelphi
DelphiFunctionEndAccess
p1835
(dp1836
g251
(lp1837
(i__main__
DelphiIdentAccess
p1838
(dp1839
g241
S'theRect'
p1840
sg243
(lp1841
(idelphi
DelphiFieldEndAccess
p1842
(dp1843
g247
S'bottom'
p1844
sbasbasbasbsg408
(idelphi
DelphiAddOp
p1845
(dp1846
g388
S'+'
sg390
(idelphi
DelphiStringAccess
p1847
(dp1848
g243
(lp1849
sg91
(idelphi
DelphiStringValue
p1850
(dp1851
g91
S'x'
sbsbsg408
(idelphi
DelphiAddOp
p1852
(dp1853
g388
S'+'
sg390
(i__main__
DelphiIdentAccess
p1854
(dp1855
g241
S'intToStr'
p1856
sg243
(lp1857
(idelphi
DelphiFunctionEndAccess
p1858
(dp1859
g251
(lp1860
(i__main__
DelphiIdentAccess
p1861
(dp1862
g241
S'theRect'
p1863
sg243
(lp1864
(idelphi
DelphiFieldEndAccess
p1865
(dp1866
g247
S'right'
p1867
sbasbasbasbsg408
(idelphi
DelphiAddOp
p1868
(dp1869
g388
S'+'
sg390
(idelphi
DelphiStringAccess
p1870
(dp1871
g243
(lp1872
sg91
(idelphi
DelphiStringValue
p1873
(dp1874
g91
S'x'
sbsbsg408
(idelphi
DelphiAddOp
p1875
(dp1876
g388
S'+'
sg390
(i__main__
DelphiIdentAccess
p1877
(dp1878
g241
S'intToStr'
p1879
sg243
(lp1880
(idelphi
DelphiFunctionEndAccess
p1881
(dp1882
g251
(lp1883
(i__main__
DelphiIdentAccess
p1884
(dp1885
g241
S'theRect'
p1886
sg243
(lp1887
(idelphi
DelphiFieldEndAccess
p1888
(dp1889
g247
S'top'
p1890
sbasbasbasbsg408
(idelphi
DelphiAddOp
p1891
(dp1892
g388
S'+'
sg390
(idelphi
DelphiStringAccess
p1893
(dp1894
g243
(lp1895
sg91
(idelphi
DelphiStringValue
p1896
(dp1897
g91
S'x'
sbsbsg408
(idelphi
DelphiAddOp
p1898
(dp1899
g388
S'+'
sg390
(i__main__
DelphiIdentAccess
p1900
(dp1901
g241
S'intToStr'
p1902
sg243
(lp1903
(idelphi
DelphiFunctionEndAccess
p1904
(dp1905
g251
(lp1906
(i__main__
DelphiIdentAccess
p1907
(dp1908
g241
S'theRect'
p1909
sg243
(lp1910
(idelphi
DelphiFieldEndAccess
p1911
(dp1912
g247
S'left'
p1913
sbasbasbasbsg408
(idelphi
DelphiStringAccess
p1914
(dp1915
g243
(lp1916
sg91
(idelphi
DelphiStringValue
p1917
(dp1918
g91
S'  bounds '
p1919
sbsbsbsbsbsbsbsbsbsbsbsbsbsbasbasbsba(i__main__
DelphiAssignStatement
p1920
(dp1921
g237
Nsg238
(i__main__
DelphiIdentAccess
p1922
(dp1923
g241
S'infoList'
p1924
sg243
(lp1925
(idelphi
DelphiFieldEndAccess
p1926
(dp1927
g247
S'lines'
p1928
sba(idelphi
DelphiFieldEndAccess
p1929
(dp1930
g247
S'add'
p1931
sba(idelphi
DelphiFunctionEndAccess
p1932
(dp1933
g251
(lp1934
(idelphi
DelphiAddOp
p1935
(dp1936
g388
S'+'
sg390
(i__main__
DelphiIdentAccess
p1937
(dp1938
g241
S'intToStr'
p1939
sg243
(lp1940
(idelphi
DelphiFunctionEndAccess
p1941
(dp1942
g251
(lp1943
(i__main__
DelphiIdentAccess
p1944
(dp1945
g241
S'plant'
p1946
sg243
(lp1947
(idelphi
DelphiFieldEndAccess
p1948
(dp1949
g247
S'totalPlantParts'
p1950
sbasbasbasbsg408
(idelphi
DelphiStringAccess
p1951
(dp1952
g243
(lp1953
sg91
(idelphi
DelphiStringValue
p1954
(dp1955
g91
S'  parts '
p1956
sbsbsbasbasbsba(i__main__
DelphiAssignStatement
p1957
(dp1958
g237
Nsg238
(i__main__
DelphiIdentAccess
p1959
(dp1960
g241
S'infoList'
p1961
sg243
(lp1962
(idelphi
DelphiFieldEndAccess
p1963
(dp1964
g247
S'lines'
p1965
sba(idelphi
DelphiFieldEndAccess
p1966
(dp1967
g247
S'add'
p1968
sba(idelphi
DelphiFunctionEndAccess
p1969
(dp1970
g251
(lp1971
(idelphi
DelphiStringAccess
p1972
(dp1973
g243
(lp1974
sg91
(idelphi
DelphiStringValue
p1975
(dp1976
g91
S''
sbsbasbasbsbasbsg259
(lp1977
(i__main__
DelphiVarSection
p1978
(dp1979
g586
I0
sg587
(lp1980
(idelphi
DelphiVarDecl
p1981
(dp1982
g591
Nsg592
(lp1983
S'plant'
p1984
asg35
(i__main__
DelphiNamedType
p1985
(dp1986
g38
S'PdPlant'
p1987
sg40
g1
sg41
Nsbsba(idelphi
DelphiVarDecl
p1988
(dp1989
g591
Nsg592
(lp1990
S'theRect'
p1991
asg35
(i__main__
DelphiNamedType
p1992
(dp1993
g38
S'TRect'
p1994
sg40
g1
sg41
Nsbsba(idelphi
DelphiVarDecl
p1995
(dp1996
g591
Nsg592
(lp1997
S'totalMemUse'
p1998
aS'baseMemUse'
p1999
aS'hangingMemUse'
p2000
aS'tdoMemUse'
p2001
aS'cacheMemUse'
p2002
aS'partsMemUse'
p2003
asg35
(i__main__
DelphiPrimitiveType
p2004
(dp2005
g38
g88
sbsbasbasbsbsS'savelistasclick'
p2006
(i__main__
DelphiMethodImplementation
p2007
(dp2008
g206
g112
sg19
g114
sg27
(lp2009
(i__main__
DelphiFormalParameter
p2010
(dp2011
g31
Nsg32
(lp2012
S'Sender'
p2013
asg35
(i__main__
DelphiNamedType
p2014
(dp2015
g38
S'TObject'
p2016
sg40
g1
sg41
Nsbsg42
Nsbasg215
(lp2017
sg217
(lp2018
sg219
(lp2019
g221
ag2013
asg222
(dp2020
g2013
g2014
ssg43
S'TProgramInfoForm'
p2021
sg44
Nsg225
(lp2022
sg45
I0
sg46
g47
sg227
(i__main__
DelphiBlock
p2023
(dp2024
g230
(idelphi
DelphiCompoundStatement
p2025
(dp2026
g233
(lp2027
(idelphi
DelphiIfStatement
p2028
(dp2029
g302
(idelphi
DelphiRelOp
p2030
(dp2031
g397
(i__main__
DelphiIdentAccess
p2032
(dp2033
g241
S'infoList'
p2034
sg243
(lp2035
(idelphi
DelphiFieldEndAccess
p2036
(dp2037
g247
S'lines'
p2038
sba(idelphi
DelphiFieldEndAccess
p2039
(dp2040
g247
S'count'
p2041
sbasbsg402
(idelphi
DelphiIntegerValue
p2042
(dp2043
g91
S'0'
sbsg407
g861
sbsg423
Nsg468
(i__main__
DelphiExitStatement
p2044
(dp2045
g637
g2007
sbsba(idelphi
DelphiIfStatement
p2046
(dp2047
g302
(idelphi
DelphiNot
p2048
(dp2049
S'factor'
p2050
(i__main__
DelphiIdentAccess
p2051
(dp2052
g241
S'getFileSaveInfo'
p2053
sg243
(lp2054
(idelphi
DelphiFunctionEndAccess
p2055
(dp2056
g251
(lp2057
(i__main__
DelphiIdentAccess
p2058
(dp2059
g241
S'kFileTypeProgramInfo'
p2060
sg243
(lp2061
sba(i__main__
DelphiIdentAccess
p2062
(dp2063
g241
S'kAskForFileName'
p2064
sg243
(lp2065
sba(idelphi
DelphiStringAccess
p2066
(dp2067
g243
(lp2068
sg91
(idelphi
DelphiStringValue
p2069
(dp2070
g91
S'PStudio.txt'
p2071
sbsba(i__main__
DelphiIdentAccess
p2072
(dp2073
g241
S'fileInfo'
p2074
sg243
(lp2075
sbasbasbsbsg423
Nsg468
(i__main__
DelphiExitStatement
p2076
(dp2077
g637
g2007
sbsba(idelphi
DelphiTryFinallyStatement
p2078
(dp2079
S'tryStatements'
p2080
(lp2081
(i__main__
DelphiAssignStatement
p2082
(dp2083
g237
Nsg238
(i__main__
DelphiIdentAccess
p2084
(dp2085
g241
S'self'
p2086
sg243
(lp2087
(idelphi
DelphiFieldEndAccess
p2088
(dp2089
g247
S'saveInfoListToFile'
p2090
sba(idelphi
DelphiFunctionEndAccess
p2091
(dp2092
g251
(lp2093
(i__main__
DelphiIdentAccess
p2094
(dp2095
g241
S'fileInfo'
p2096
sg243
(lp2097
(idelphi
DelphiFieldEndAccess
p2098
(dp2099
g247
S'tempFile'
p2100
sbasbasbasbsba(i__main__
DelphiAssignStatement
p2101
(dp2102
g237
(i__main__
DelphiIdentAccess
p2103
(dp2104
g241
S'true'
p2105
sg243
(lp2106
sbsg238
(i__main__
DelphiIdentAccess
p2107
(dp2108
g241
S'fileInfo'
p2109
sg243
(lp2110
(idelphi
DelphiFieldEndAccess
p2111
(dp2112
g247
S'writingWasSuccessful'
p2113
sbasbsbasS'finallyStatements'
p2114
(lp2115
(i__main__
DelphiAssignStatement
p2116
(dp2117
g237
Nsg238
(i__main__
DelphiIdentAccess
p2118
(dp2119
g241
S'cleanUpAfterFileSave'
p2120
sg243
(lp2121
(idelphi
DelphiFunctionEndAccess
p2122
(dp2123
g251
(lp2124
(i__main__
DelphiIdentAccess
p2125
(dp2126
g241
S'fileInfo'
p2127
sg243
(lp2128
sbasbasbsbasbasbsg259
(lp2129
(i__main__
DelphiVarSection
p2130
(dp2131
g586
I0
sg587
(lp2132
(idelphi
DelphiVarDecl
p2133
(dp2134
g591
Nsg592
(lp2135
S'fileInfo'
p2136
asg35
(i__main__
DelphiNamedType
p2137
(dp2138
g38
S'SaveFileNamesStructure'
p2139
sg40
g1
sg41
NsbsbasbasbsbsS'saveinfolisttofile'
p2140
(i__main__
DelphiMethodImplementation
p2141
(dp2142
g206
g124
sg19
g126
sg27
(lp2143
(i__main__
DelphiFormalParameter
p2144
(dp2145
g31
Nsg32
(lp2146
S'fileName'
p2147
asg35
(i__main__
DelphiPrimitiveType
p2148
(dp2149
g38
g91
sbsg42
Nsbasg215
(lp2150
sg217
(lp2151
sg219
(lp2152
g221
ag2147
asg222
(dp2153
g2147
g2148
ssg43
S'TProgramInfoForm'
p2154
sg44
Nsg225
(lp2155
sg45
I0
sg46
g47
sg227
(i__main__
DelphiBlock
p2156
(dp2157
g230
(idelphi
DelphiCompoundStatement
p2158
(dp2159
g233
(lp2160
(i__main__
DelphiAssignStatement
p2161
(dp2162
g237
Nsg238
(i__main__
DelphiIdentAccess
p2163
(dp2164
g241
S'assignFile'
p2165
sg243
(lp2166
(idelphi
DelphiFunctionEndAccess
p2167
(dp2168
g251
(lp2169
(i__main__
DelphiIdentAccess
p2170
(dp2171
g241
S'outputFile'
p2172
sg243
(lp2173
sba(i__main__
DelphiIdentAccess
p2174
(dp2175
g241
S'fileName'
p2176
sg243
(lp2177
sbasbasbsba(i__main__
DelphiAssignStatement
p2178
(dp2179
g237
Nsg238
(i__main__
DelphiIdentAccess
p2180
(dp2181
g241
S'setDecimalSeparator'
p2182
sg243
(lp2183
sbsg134
(lp2184
S' v1.5\r'
p2185
asba(i__main__
DelphiAssignStatement
p2186
(dp2187
g237
Nsg238
(i__main__
DelphiIdentAccess
p2188
(dp2189
g241
S'rewrite'
p2190
sg243
(lp2191
(idelphi
DelphiFunctionEndAccess
p2192
(dp2193
g251
(lp2194
(i__main__
DelphiIdentAccess
p2195
(dp2196
g241
S'outputFile'
p2197
sg243
(lp2198
sbasbasbsba(idelphi
DelphiTryFinallyStatement
p2199
(dp2200
g2080
(lp2201
(idelphi
DelphiIfStatement
p2202
(dp2203
g302
(idelphi
DelphiRelOp
p2204
(dp2205
g397
(i__main__
DelphiIdentAccess
p2206
(dp2207
g241
S'infoList'
p2208
sg243
(lp2209
(idelphi
DelphiFieldEndAccess
p2210
(dp2211
g247
S'lines'
p2212
sba(idelphi
DelphiFieldEndAccess
p2213
(dp2214
g247
S'count'
p2215
sbasbsg402
(idelphi
DelphiIntegerValue
p2216
(dp2217
g91
S'0'
sbsg407
S'>'
sbsg423
Nsg468
(idelphi
DelphiForStatement
p2218
(dp2219
S'variable'
p2220
S'i'
sS'finalValue'
p2221
(idelphi
DelphiAddOp
p2222
(dp2223
g388
S'-'
sg390
(idelphi
DelphiIntegerValue
p2224
(dp2225
g91
S'1'
sbsg408
(i__main__
DelphiIdentAccess
p2226
(dp2227
g241
S'infoList'
p2228
sg243
(lp2229
(idelphi
DelphiFieldEndAccess
p2230
(dp2231
g247
S'lines'
p2232
sba(idelphi
DelphiFieldEndAccess
p2233
(dp2234
g247
S'count'
p2235
sbasbsbsS'direction'
p2236
S'to'
p2237
sg31
(idelphi
DelphiIntegerValue
p2238
(dp2239
g91
S'0'
sbsg311
(i__main__
DelphiAssignStatement
p2240
(dp2241
g237
Nsg238
(i__main__
DelphiIdentAccess
p2242
(dp2243
g241
S'writeln'
p2244
sg243
(lp2245
(idelphi
DelphiFunctionEndAccess
p2246
(dp2247
g251
(lp2248
(i__main__
DelphiIdentAccess
p2249
(dp2250
g241
S'outputFile'
p2251
sg243
(lp2252
sba(i__main__
DelphiIdentAccess
p2253
(dp2254
g241
S'infoList'
p2255
sg243
(lp2256
(idelphi
DelphiFieldEndAccess
p2257
(dp2258
g247
S'lines'
p2259
sba(idelphi
DelphiArrayEndAccess
p2260
(dp2261
g251
(lp2262
(i__main__
DelphiIdentAccess
p2263
(dp2264
g241
S'i'
sg243
(lp2265
sbasbasbasbasbsbsbsbasg2114
(lp2266
(i__main__
DelphiAssignStatement
p2267
(dp2268
g237
Nsg238
(i__main__
DelphiIdentAccess
p2269
(dp2270
g241
S'closeFile'
p2271
sg243
(lp2272
(idelphi
DelphiFunctionEndAccess
p2273
(dp2274
g251
(lp2275
(i__main__
DelphiIdentAccess
p2276
(dp2277
g241
S'outputFile'
p2278
sg243
(lp2279
sbasbasbsbasbasbsg259
(lp2280
(i__main__
DelphiVarSection
p2281
(dp2282
g586
I0
sg587
(lp2283
(idelphi
DelphiVarDecl
p2284
(dp2285
g591
Nsg592
(lp2286
S'i'
asg35
(i__main__
DelphiPrimitiveType
p2287
(dp2288
g38
S'longint'
p2289
sbsba(idelphi
DelphiVarDecl
p2290
(dp2291
g591
Nsg592
(lp2292
S'outputFile'
p2293
asg35
(i__main__
DelphiNamedType
p2294
(dp2295
g38
S'TextFile'
p2296
sg40
g1
sg41
Nsbsbasbasbsg134
g135
sbsS'formcreate'
p2297
(i__main__
DelphiMethodImplementation
p2298
(dp2299
g206
g139
sg19
g141
sg27
(lp2300
(i__main__
DelphiFormalParameter
p2301
(dp2302
g31
Nsg32
(lp2303
S'Sender'
p2304
asg35
(i__main__
DelphiNamedType
p2305
(dp2306
g38
S'TObject'
p2307
sg40
g1
sg41
Nsbsg42
Nsbasg215
(lp2308
sg217
(lp2309
sg219
(lp2310
g221
ag2304
asg222
(dp2311
g2304
g2305
ssg43
S'TProgramInfoForm'
p2312
sg44
Nsg225
(lp2313
sg45
I0
sg46
g47
sg227
(i__main__
DelphiBlock
p2314
(dp2315
g230
(idelphi
DelphiCompoundStatement
p2316
(dp2317
g233
(lp2318
(i__main__
DelphiAssignStatement
p2319
(dp2320
g237
Nsg238
(i__main__
DelphiIdentAccess
p2321
(dp2322
g241
S'infoList'
p2323
sg243
(lp2324
(idelphi
DelphiFieldEndAccess
p2325
(dp2326
g247
S'lines'
p2327
sba(idelphi
DelphiFieldEndAccess
p2328
(dp2329
g247
S'clear'
p2330
sbasbsba(i__main__
DelphiAssignStatement
p2331
(dp2332
g237
Nsg238
(i__main__
DelphiIdentAccess
p2333
(dp2334
g241
S'infoList'
p2335
sg243
(lp2336
(idelphi
DelphiFieldEndAccess
p2337
(dp2338
g247
S'lines'
p2339
sba(idelphi
DelphiFieldEndAccess
p2340
(dp2341
g247
S'add'
p2342
sba(idelphi
DelphiFunctionEndAccess
p2343
(dp2344
g251
(lp2345
(idelphi
DelphiStringAccess
p2346
(dp2347
g243
(lp2348
sg91
(idelphi
DelphiStringValue
p2349
(dp2350
g91
S''
sbsbasbasbsba(i__main__
DelphiAssignStatement
p2351
(dp2352
g237
Nsg238
(i__main__
DelphiIdentAccess
p2353
(dp2354
g241
S'infoList'
p2355
sg243
(lp2356
(idelphi
DelphiFieldEndAccess
p2357
(dp2358
g247
S'lines'
p2359
sba(idelphi
DelphiFieldEndAccess
p2360
(dp2361
g247
S'add'
p2362
sba(idelphi
DelphiFunctionEndAccess
p2363
(dp2364
g251
(lp2365
(idelphi
DelphiStringAccess
p2366
(dp2367
g243
(lp2368
sg91
(idelphi
DelphiStringValue
p2369
(dp2370
g91
S'PlantStudio Program Information'
p2371
sbsbasbasbsba(i__main__
DelphiAssignStatement
p2372
(dp2373
g237
Nsg238
(i__main__
DelphiIdentAccess
p2374
(dp2375
g241
S'infoList'
p2376
sg243
(lp2377
(idelphi
DelphiFieldEndAccess
p2378
(dp2379
g247
S'lines'
p2380
sba(idelphi
DelphiFieldEndAccess
p2381
(dp2382
g247
S'add'
p2383
sba(idelphi
DelphiFunctionEndAccess
p2384
(dp2385
g251
(lp2386
(i__main__
DelphiIdentAccess
p2387
(dp2388
g241
S'gVersionName'
p2389
sg243
(lp2390
sbasbasbsba(i__main__
DelphiAssignStatement
p2391
(dp2392
g237
Nsg238
(i__main__
DelphiIdentAccess
p2393
(dp2394
g241
S'infoList'
p2395
sg243
(lp2396
(idelphi
DelphiFieldEndAccess
p2397
(dp2398
g247
S'lines'
p2399
sba(idelphi
DelphiFieldEndAccess
p2400
(dp2401
g247
S'add'
p2402
sba(idelphi
DelphiFunctionEndAccess
p2403
(dp2404
g251
(lp2405
(idelphi
DelphiStringAccess
p2406
(dp2407
g243
(lp2408
sg91
(idelphi
DelphiStringValue
p2409
(dp2410
g91
S'-------------------------------------------'
p2411
sbsbasbasbsba(i__main__
DelphiAssignStatement
p2412
(dp2413
g237
Nsg238
(i__main__
DelphiIdentAccess
p2414
(dp2415
g241
S'infoList'
p2416
sg243
(lp2417
(idelphi
DelphiFieldEndAccess
p2418
(dp2419
g247
S'lines'
p2420
sba(idelphi
DelphiFieldEndAccess
p2421
(dp2422
g247
S'add'
p2423
sba(idelphi
DelphiFunctionEndAccess
p2424
(dp2425
g251
(lp2426
(idelphi
DelphiStringAccess
p2427
(dp2428
g243
(lp2429
sg91
(idelphi
DelphiStringValue
p2430
(dp2431
g91
S''
sbsbasbasbsg134
(lp2432
S' OS info\r'
p2433
asba(i__main__
DelphiAssignStatement
p2434
(dp2435
g237
Nsg238
(i__main__
DelphiIdentAccess
p2436
(dp2437
g241
S'infoList'
p2438
sg243
(lp2439
(idelphi
DelphiFieldEndAccess
p2440
(dp2441
g247
S'lines'
p2442
sba(idelphi
DelphiFieldEndAccess
p2443
(dp2444
g247
S'add'
p2445
sba(idelphi
DelphiFunctionEndAccess
p2446
(dp2447
g251
(lp2448
(idelphi
DelphiStringAccess
p2449
(dp2450
g243
(lp2451
sg91
(idelphi
DelphiStringValue
p2452
(dp2453
g91
S'Operating system'
p2454
sbsbasbasbsba(i__main__
DelphiAssignStatement
p2455
(dp2456
g237
Nsg238
(i__main__
DelphiIdentAccess
p2457
(dp2458
g241
S'infoList'
p2459
sg243
(lp2460
(idelphi
DelphiFieldEndAccess
p2461
(dp2462
g247
S'lines'
p2463
sba(idelphi
DelphiFieldEndAccess
p2464
(dp2465
g247
S'add'
p2466
sba(idelphi
DelphiFunctionEndAccess
p2467
(dp2468
g251
(lp2469
(idelphi
DelphiStringAccess
p2470
(dp2471
g243
(lp2472
sg91
(idelphi
DelphiStringValue
p2473
(dp2474
g91
S'-------------------------------------------'
p2475
sbsbasbasbsba(i__main__
DelphiAssignStatement
p2476
(dp2477
g237
Nsg238
(i__main__
DelphiIdentAccess
p2478
(dp2479
g241
S'self'
p2480
sg243
(lp2481
(idelphi
DelphiFieldEndAccess
p2482
(dp2483
g247
S'GetOSInfo'
p2484
sbasbsba(i__main__
DelphiAssignStatement
p2485
(dp2486
g237
(idelphi
DelphiSizeof
p2487
(dp2488
g591
(i__main__
DelphiIdentAccess
p2489
(dp2490
g241
S'memoryStatus'
p2491
sg243
(lp2492
sbsbsg238
(i__main__
DelphiIdentAccess
p2493
(dp2494
g241
S'memoryStatus'
p2495
sg243
(lp2496
(idelphi
DelphiFieldEndAccess
p2497
(dp2498
g247
S'dwLength'
p2499
sbasbsba(i__main__
DelphiAssignStatement
p2500
(dp2501
g237
Nsg238
(i__main__
DelphiIdentAccess
p2502
(dp2503
g241
S'GlobalMemoryStatus'
p2504
sg243
(lp2505
(idelphi
DelphiFunctionEndAccess
p2506
(dp2507
g251
(lp2508
(i__main__
DelphiIdentAccess
p2509
(dp2510
g241
S'memoryStatus'
p2511
sg243
(lp2512
sbasbasbsba(i__main__
DelphiAssignStatement
p2513
(dp2514
g237
Nsg238
(i__main__
DelphiIdentAccess
p2515
(dp2516
g241
S'infoList'
p2517
sg243
(lp2518
(idelphi
DelphiFieldEndAccess
p2519
(dp2520
g247
S'lines'
p2521
sba(idelphi
DelphiFieldEndAccess
p2522
(dp2523
g247
S'add'
p2524
sba(idelphi
DelphiFunctionEndAccess
p2525
(dp2526
g251
(lp2527
(idelphi
DelphiAddOp
p2528
(dp2529
g388
S'+'
sg390
(i__main__
DelphiIdentAccess
p2530
(dp2531
g241
S'intToStr'
p2532
sg243
(lp2533
(idelphi
DelphiFunctionEndAccess
p2534
(dp2535
g251
(lp2536
(i__main__
DelphiIdentAccess
p2537
(dp2538
g241
S'memoryStatus'
p2539
sg243
(lp2540
(idelphi
DelphiFieldEndAccess
p2541
(dp2542
g247
S'dwMemoryLoad'
p2543
sbasbasbasbsg408
(idelphi
DelphiStringAccess
p2544
(dp2545
g243
(lp2546
sg91
(idelphi
DelphiStringValue
p2547
(dp2548
g91
S'Percent memory in use: '
p2549
sbsbsbasbasbsba(i__main__
DelphiAssignStatement
p2550
(dp2551
g237
Nsg238
(i__main__
DelphiIdentAccess
p2552
(dp2553
g241
S'infoList'
p2554
sg243
(lp2555
(idelphi
DelphiFieldEndAccess
p2556
(dp2557
g247
S'lines'
p2558
sba(idelphi
DelphiFieldEndAccess
p2559
(dp2560
g247
S'add'
p2561
sba(idelphi
DelphiFunctionEndAccess
p2562
(dp2563
g251
(lp2564
(idelphi
DelphiAddOp
p2565
(dp2566
g388
S'+'
sg390
(idelphi
DelphiStringAccess
p2567
(dp2568
g243
(lp2569
sg91
(idelphi
DelphiStringValue
p2570
(dp2571
g91
S' K'
p2572
sbsbsg408
(idelphi
DelphiAddOp
p2573
(dp2574
g388
S'+'
sg390
(i__main__
DelphiIdentAccess
p2575
(dp2576
g241
S'intToStr'
p2577
sg243
(lp2578
(idelphi
DelphiFunctionEndAccess
p2579
(dp2580
g251
(lp2581
(idelphi
DelphiMulOp
p2582
(dp2583
g331
(idelphi
DelphiIntegerValue
p2584
(dp2585
g91
S'1024'
p2586
sbsg335
S'div'
p2587
sg337
(i__main__
DelphiIdentAccess
p2588
(dp2589
g241
S'memoryStatus'
p2590
sg243
(lp2591
(idelphi
DelphiFieldEndAccess
p2592
(dp2593
g247
S'dwTotalPhys'
p2594
sbasbsbasbasbsg408
(idelphi
DelphiStringAccess
p2595
(dp2596
g243
(lp2597
sg91
(idelphi
DelphiStringValue
p2598
(dp2599
g91
S'Total physical memory: '
p2600
sbsbsbsbasbasbsba(i__main__
DelphiAssignStatement
p2601
(dp2602
g237
Nsg238
(i__main__
DelphiIdentAccess
p2603
(dp2604
g241
S'infoList'
p2605
sg243
(lp2606
(idelphi
DelphiFieldEndAccess
p2607
(dp2608
g247
S'lines'
p2609
sba(idelphi
DelphiFieldEndAccess
p2610
(dp2611
g247
S'add'
p2612
sba(idelphi
DelphiFunctionEndAccess
p2613
(dp2614
g251
(lp2615
(idelphi
DelphiAddOp
p2616
(dp2617
g388
S'+'
sg390
(idelphi
DelphiStringAccess
p2618
(dp2619
g243
(lp2620
sg91
(idelphi
DelphiStringValue
p2621
(dp2622
g91
S' K'
p2623
sbsbsg408
(idelphi
DelphiAddOp
p2624
(dp2625
g388
S'+'
sg390
(i__main__
DelphiIdentAccess
p2626
(dp2627
g241
S'intToStr'
p2628
sg243
(lp2629
(idelphi
DelphiFunctionEndAccess
p2630
(dp2631
g251
(lp2632
(idelphi
DelphiMulOp
p2633
(dp2634
g331
(idelphi
DelphiIntegerValue
p2635
(dp2636
g91
S'1024'
p2637
sbsg335
g2587
sg337
(i__main__
DelphiIdentAccess
p2638
(dp2639
g241
S'memoryStatus'
p2640
sg243
(lp2641
(idelphi
DelphiFieldEndAccess
p2642
(dp2643
g247
S'dwAvailPhys'
p2644
sbasbsbasbasbsg408
(idelphi
DelphiStringAccess
p2645
(dp2646
g243
(lp2647
sg91
(idelphi
DelphiStringValue
p2648
(dp2649
g91
S'Available physical memory: '
p2650
sbsbsbsbasbasbsba(i__main__
DelphiAssignStatement
p2651
(dp2652
g237
Nsg238
(i__main__
DelphiIdentAccess
p2653
(dp2654
g241
S'infoList'
p2655
sg243
(lp2656
(idelphi
DelphiFieldEndAccess
p2657
(dp2658
g247
S'lines'
p2659
sba(idelphi
DelphiFieldEndAccess
p2660
(dp2661
g247
S'add'
p2662
sba(idelphi
DelphiFunctionEndAccess
p2663
(dp2664
g251
(lp2665
(idelphi
DelphiAddOp
p2666
(dp2667
g388
S'+'
sg390
(idelphi
DelphiStringAccess
p2668
(dp2669
g243
(lp2670
sg91
(idelphi
DelphiStringValue
p2671
(dp2672
g91
S' K'
p2673
sbsbsg408
(idelphi
DelphiAddOp
p2674
(dp2675
g388
S'+'
sg390
(i__main__
DelphiIdentAccess
p2676
(dp2677
g241
S'intToStr'
p2678
sg243
(lp2679
(idelphi
DelphiFunctionEndAccess
p2680
(dp2681
g251
(lp2682
(idelphi
DelphiMulOp
p2683
(dp2684
g331
(idelphi
DelphiIntegerValue
p2685
(dp2686
g91
S'1024'
p2687
sbsg335
g2587
sg337
(i__main__
DelphiIdentAccess
p2688
(dp2689
g241
S'memoryStatus'
p2690
sg243
(lp2691
(idelphi
DelphiFieldEndAccess
p2692
(dp2693
g247
S'dwTotalPageFile'
p2694
sbasbsbasbasbsg408
(idelphi
DelphiStringAccess
p2695
(dp2696
g243
(lp2697
sg91
(idelphi
DelphiStringValue
p2698
(dp2699
g91
S'Total paging file: '
p2700
sbsbsbsbasbasbsba(i__main__
DelphiAssignStatement
p2701
(dp2702
g237
Nsg238
(i__main__
DelphiIdentAccess
p2703
(dp2704
g241
S'infoList'
p2705
sg243
(lp2706
(idelphi
DelphiFieldEndAccess
p2707
(dp2708
g247
S'lines'
p2709
sba(idelphi
DelphiFieldEndAccess
p2710
(dp2711
g247
S'add'
p2712
sba(idelphi
DelphiFunctionEndAccess
p2713
(dp2714
g251
(lp2715
(idelphi
DelphiAddOp
p2716
(dp2717
g388
S'+'
sg390
(idelphi
DelphiStringAccess
p2718
(dp2719
g243
(lp2720
sg91
(idelphi
DelphiStringValue
p2721
(dp2722
g91
S' K'
p2723
sbsbsg408
(idelphi
DelphiAddOp
p2724
(dp2725
g388
S'+'
sg390
(i__main__
DelphiIdentAccess
p2726
(dp2727
g241
S'intToStr'
p2728
sg243
(lp2729
(idelphi
DelphiFunctionEndAccess
p2730
(dp2731
g251
(lp2732
(idelphi
DelphiMulOp
p2733
(dp2734
g331
(idelphi
DelphiIntegerValue
p2735
(dp2736
g91
S'1024'
p2737
sbsg335
g2587
sg337
(i__main__
DelphiIdentAccess
p2738
(dp2739
g241
S'memoryStatus'
p2740
sg243
(lp2741
(idelphi
DelphiFieldEndAccess
p2742
(dp2743
g247
S'dwAvailPageFile'
p2744
sbasbsbasbasbsg408
(idelphi
DelphiStringAccess
p2745
(dp2746
g243
(lp2747
sg91
(idelphi
DelphiStringValue
p2748
(dp2749
g91
S'Available paging file: '
p2750
sbsbsbsbasbasbsba(i__main__
DelphiAssignStatement
p2751
(dp2752
g237
Nsg238
(i__main__
DelphiIdentAccess
p2753
(dp2754
g241
S'infoList'
p2755
sg243
(lp2756
(idelphi
DelphiFieldEndAccess
p2757
(dp2758
g247
S'lines'
p2759
sba(idelphi
DelphiFieldEndAccess
p2760
(dp2761
g247
S'add'
p2762
sba(idelphi
DelphiFunctionEndAccess
p2763
(dp2764
g251
(lp2765
(idelphi
DelphiAddOp
p2766
(dp2767
g388
S'+'
sg390
(idelphi
DelphiStringAccess
p2768
(dp2769
g243
(lp2770
sg91
(idelphi
DelphiStringValue
p2771
(dp2772
g91
S' K'
p2773
sbsbsg408
(idelphi
DelphiAddOp
p2774
(dp2775
g388
S'+'
sg390
(i__main__
DelphiIdentAccess
p2776
(dp2777
g241
S'intToStr'
p2778
sg243
(lp2779
(idelphi
DelphiFunctionEndAccess
p2780
(dp2781
g251
(lp2782
(idelphi
DelphiMulOp
p2783
(dp2784
g331
(idelphi
DelphiIntegerValue
p2785
(dp2786
g91
S'1024'
p2787
sbsg335
g2587
sg337
(i__main__
DelphiIdentAccess
p2788
(dp2789
g241
S'memoryStatus'
p2790
sg243
(lp2791
(idelphi
DelphiFieldEndAccess
p2792
(dp2793
g247
S'dwTotalVirtual'
p2794
sbasbsbasbasbsg408
(idelphi
DelphiStringAccess
p2795
(dp2796
g243
(lp2797
sg91
(idelphi
DelphiStringValue
p2798
(dp2799
g91
S'Total user memory: '
p2800
sbsbsbsbasbasbsba(i__main__
DelphiAssignStatement
p2801
(dp2802
g237
Nsg238
(i__main__
DelphiIdentAccess
p2803
(dp2804
g241
S'infoList'
p2805
sg243
(lp2806
(idelphi
DelphiFieldEndAccess
p2807
(dp2808
g247
S'lines'
p2809
sba(idelphi
DelphiFieldEndAccess
p2810
(dp2811
g247
S'add'
p2812
sba(idelphi
DelphiFunctionEndAccess
p2813
(dp2814
g251
(lp2815
(idelphi
DelphiAddOp
p2816
(dp2817
g388
S'+'
sg390
(idelphi
DelphiStringAccess
p2818
(dp2819
g243
(lp2820
sg91
(idelphi
DelphiStringValue
p2821
(dp2822
g91
S' K'
p2823
sbsbsg408
(idelphi
DelphiAddOp
p2824
(dp2825
g388
S'+'
sg390
(i__main__
DelphiIdentAccess
p2826
(dp2827
g241
S'intToStr'
p2828
sg243
(lp2829
(idelphi
DelphiFunctionEndAccess
p2830
(dp2831
g251
(lp2832
(idelphi
DelphiMulOp
p2833
(dp2834
g331
(idelphi
DelphiIntegerValue
p2835
(dp2836
g91
S'1024'
p2837
sbsg335
g2587
sg337
(i__main__
DelphiIdentAccess
p2838
(dp2839
g241
S'memoryStatus'
p2840
sg243
(lp2841
(idelphi
DelphiFieldEndAccess
p2842
(dp2843
g247
S'dwAvailVirtual'
p2844
sbasbsbasbasbsg408
(idelphi
DelphiStringAccess
p2845
(dp2846
g243
(lp2847
sg91
(idelphi
DelphiStringValue
p2848
(dp2849
g91
S'Available user memory: '
p2850
sbsbsbsbasbasbsba(i__main__
DelphiAssignStatement
p2851
(dp2852
g237
Nsg238
(i__main__
DelphiIdentAccess
p2853
(dp2854
g241
S'infoList'
p2855
sg243
(lp2856
(idelphi
DelphiFieldEndAccess
p2857
(dp2858
g247
S'lines'
p2859
sba(idelphi
DelphiFieldEndAccess
p2860
(dp2861
g247
S'add'
p2862
sba(idelphi
DelphiFunctionEndAccess
p2863
(dp2864
g251
(lp2865
(idelphi
DelphiStringAccess
p2866
(dp2867
g243
(lp2868
sg91
(idelphi
DelphiStringValue
p2869
(dp2870
g91
S''
sbsbasbasbsg134
(lp2871
S' disk info\r'
p2872
asba(i__main__
DelphiAssignStatement
p2873
(dp2874
g237
Nsg238
(i__main__
DelphiIdentAccess
p2875
(dp2876
g241
S'infoList'
p2877
sg243
(lp2878
(idelphi
DelphiFieldEndAccess
p2879
(dp2880
g247
S'lines'
p2881
sba(idelphi
DelphiFieldEndAccess
p2882
(dp2883
g247
S'add'
p2884
sba(idelphi
DelphiFunctionEndAccess
p2885
(dp2886
g251
(lp2887
(idelphi
DelphiStringAccess
p2888
(dp2889
g243
(lp2890
sg91
(idelphi
DelphiStringValue
p2891
(dp2892
g91
S'Hard disk'
p2893
sbsbasbasbsba(i__main__
DelphiAssignStatement
p2894
(dp2895
g237
Nsg238
(i__main__
DelphiIdentAccess
p2896
(dp2897
g241
S'infoList'
p2898
sg243
(lp2899
(idelphi
DelphiFieldEndAccess
p2900
(dp2901
g247
S'lines'
p2902
sba(idelphi
DelphiFieldEndAccess
p2903
(dp2904
g247
S'add'
p2905
sba(idelphi
DelphiFunctionEndAccess
p2906
(dp2907
g251
(lp2908
(idelphi
DelphiStringAccess
p2909
(dp2910
g243
(lp2911
sg91
(idelphi
DelphiStringValue
p2912
(dp2913
g91
S'-------------------------------------------'
p2914
sbsbasbasbsba(i__main__
DelphiAssignStatement
p2915
(dp2916
g237
(i__main__
DelphiIdentAccess
p2917
(dp2918
g241
S'DiskFree'
p2919
sg243
(lp2920
(idelphi
DelphiFunctionEndAccess
p2921
(dp2922
g251
(lp2923
(idelphi
DelphiIntegerValue
p2924
(dp2925
g91
S'0'
sbasbasbsg238
(i__main__
DelphiIdentAccess
p2926
(dp2927
g241
S'diskSpace'
p2928
sg243
(lp2929
sbsba(i__main__
DelphiAssignStatement
p2930
(dp2931
g237
Nsg238
(i__main__
DelphiIdentAccess
p2932
(dp2933
g241
S'infoList'
p2934
sg243
(lp2935
(idelphi
DelphiFieldEndAccess
p2936
(dp2937
g247
S'lines'
p2938
sba(idelphi
DelphiFieldEndAccess
p2939
(dp2940
g247
S'add'
p2941
sba(idelphi
DelphiFunctionEndAccess
p2942
(dp2943
g251
(lp2944
(idelphi
DelphiAddOp
p2945
(dp2946
g388
S'+'
sg390
(idelphi
DelphiStringAccess
p2947
(dp2948
g243
(lp2949
sg91
(idelphi
DelphiStringValue
p2950
(dp2951
g91
S' MB'
p2952
sbsbsg408
(idelphi
DelphiAddOp
p2953
(dp2954
g388
S'+'
sg390
(i__main__
DelphiIdentAccess
p2955
(dp2956
g241
S'intToStr'
p2957
sg243
(lp2958
(idelphi
DelphiFunctionEndAccess
p2959
(dp2960
g251
(lp2961
(idelphi
DelphiMulOp
p2962
(dp2963
g331
(idelphi
DelphiNestedExpressionListAccess
p2964
(dp2965
g243
(lp2966
sg251
(lp2967
(idelphi
DelphiMulOp
p2968
(dp2969
g331
(idelphi
DelphiIntegerValue
p2970
(dp2971
g91
S'1024'
p2972
sbsg335
S'*'
sg337
(idelphi
DelphiIntegerValue
p2973
(dp2974
g91
S'1024'
p2975
sbsbasbsg335
g2587
sg337
(i__main__
DelphiIdentAccess
p2976
(dp2977
g241
S'diskSpace'
p2978
sg243
(lp2979
sbsbasbasbsg408
(idelphi
DelphiStringAccess
p2980
(dp2981
g243
(lp2982
sg91
(idelphi
DelphiStringValue
p2983
(dp2984
g91
S'Disk space on current drive: '
p2985
sbsbsbsbasbasbsba(i__main__
DelphiAssignStatement
p2986
(dp2987
g237
Nsg238
(i__main__
DelphiIdentAccess
p2988
(dp2989
g241
S'infoList'
p2990
sg243
(lp2991
(idelphi
DelphiFieldEndAccess
p2992
(dp2993
g247
S'lines'
p2994
sba(idelphi
DelphiFieldEndAccess
p2995
(dp2996
g247
S'add'
p2997
sba(idelphi
DelphiFunctionEndAccess
p2998
(dp2999
g251
(lp3000
(idelphi
DelphiStringAccess
p3001
(dp3002
g243
(lp3003
sg91
(idelphi
DelphiStringValue
p3004
(dp3005
g91
S''
sbsbasbasbsg134
(lp3006
S' screen info\r'
p3007
asba(i__main__
DelphiAssignStatement
p3008
(dp3009
g237
Nsg238
(i__main__
DelphiIdentAccess
p3010
(dp3011
g241
S'infoList'
p3012
sg243
(lp3013
(idelphi
DelphiFieldEndAccess
p3014
(dp3015
g247
S'lines'
p3016
sba(idelphi
DelphiFieldEndAccess
p3017
(dp3018
g247
S'add'
p3019
sba(idelphi
DelphiFunctionEndAccess
p3020
(dp3021
g251
(lp3022
(idelphi
DelphiStringAccess
p3023
(dp3024
g243
(lp3025
sg91
(idelphi
DelphiStringValue
p3026
(dp3027
g91
S'Screen'
p3028
sbsbasbasbsba(i__main__
DelphiAssignStatement
p3029
(dp3030
g237
Nsg238
(i__main__
DelphiIdentAccess
p3031
(dp3032
g241
S'infoList'
p3033
sg243
(lp3034
(idelphi
DelphiFieldEndAccess
p3035
(dp3036
g247
S'lines'
p3037
sba(idelphi
DelphiFieldEndAccess
p3038
(dp3039
g247
S'add'
p3040
sba(idelphi
DelphiFunctionEndAccess
p3041
(dp3042
g251
(lp3043
(idelphi
DelphiStringAccess
p3044
(dp3045
g243
(lp3046
sg91
(idelphi
DelphiStringValue
p3047
(dp3048
g91
S'-------------------------------------------'
p3049
sbsbasbasbsba(i__main__
DelphiAssignStatement
p3050
(dp3051
g237
(i__main__
DelphiIdentAccess
p3052
(dp3053
g241
S'GetDC'
p3054
sg243
(lp3055
(idelphi
DelphiFunctionEndAccess
p3056
(dp3057
g251
(lp3058
(idelphi
DelphiIntegerValue
p3059
(dp3060
g91
S'0'
sbasbasbsg238
(i__main__
DelphiIdentAccess
p3061
(dp3062
g241
S'screenDC'
p3063
sg243
(lp3064
sbsba(idelphi
DelphiTryFinallyStatement
p3065
(dp3066
g2080
(lp3067
(i__main__
DelphiAssignStatement
p3068
(dp3069
g237
(idelphi
DelphiNestedExpressionListAccess
p3070
(dp3071
g243
(lp3072
sg251
(lp3073
(idelphi
DelphiMulOp
p3074
(dp3075
g331
(i__main__
DelphiIdentAccess
p3076
(dp3077
g241
S'GetDeviceCaps'
p3078
sg243
(lp3079
(idelphi
DelphiFunctionEndAccess
p3080
(dp3081
g251
(lp3082
(i__main__
DelphiIdentAccess
p3083
(dp3084
g241
S'screenDC'
p3085
sg243
(lp3086
sba(i__main__
DelphiIdentAccess
p3087
(dp3088
g241
S'PLANES'
p3089
sg243
(lp3090
sbasbasbsg335
S'*'
sg337
(i__main__
DelphiIdentAccess
p3091
(dp3092
g241
S'GetDeviceCaps'
p3093
sg243
(lp3094
(idelphi
DelphiFunctionEndAccess
p3095
(dp3096
g251
(lp3097
(i__main__
DelphiIdentAccess
p3098
(dp3099
g241
S'screenDC'
p3100
sg243
(lp3101
sba(i__main__
DelphiIdentAccess
p3102
(dp3103
g241
S'BITSPIXEL'
p3104
sg243
(lp3105
sbasbasbsbasbsg238
(i__main__
DelphiIdentAccess
p3106
(dp3107
g241
S'screenColorBits'
p3108
sg243
(lp3109
sbsbasg2114
(lp3110
(i__main__
DelphiAssignStatement
p3111
(dp3112
g237
Nsg238
(i__main__
DelphiIdentAccess
p3113
(dp3114
g241
S'ReleaseDC'
p3115
sg243
(lp3116
(idelphi
DelphiFunctionEndAccess
p3117
(dp3118
g251
(lp3119
(idelphi
DelphiIntegerValue
p3120
(dp3121
g91
S'0'
sba(i__main__
DelphiIdentAccess
p3122
(dp3123
g241
S'screenDC'
p3124
sg243
(lp3125
sbasbasbsbasba(idelphi
DelphiIfStatement
p3126
(dp3127
g302
(idelphi
DelphiRelOp
p3128
(dp3129
g397
(i__main__
DelphiIdentAccess
p3130
(dp3131
g241
S'screenColorBits'
p3132
sg243
(lp3133
sbsg402
(idelphi
DelphiIntegerValue
p3134
(dp3135
g91
S'32'
p3136
sbsg407
g1092
sbsg423
(idelphi
DelphiCompoundStatement
p3137
(dp3138
g233
(lp3139
(i__main__
DelphiAssignStatement
p3140
(dp3141
g237
Nsg238
(i__main__
DelphiIdentAccess
p3142
(dp3143
g241
S'infoList'
p3144
sg243
(lp3145
(idelphi
DelphiFieldEndAccess
p3146
(dp3147
g247
S'lines'
p3148
sba(idelphi
DelphiFieldEndAccess
p3149
(dp3150
g247
S'add'
p3151
sba(idelphi
DelphiFunctionEndAccess
p3152
(dp3153
g251
(lp3154
(idelphi
DelphiAddOp
p3155
(dp3156
g388
S'+'
sg390
(idelphi
DelphiStringAccess
p3157
(dp3158
g243
(lp3159
sg91
(idelphi
DelphiStringValue
p3160
(dp3161
g91
S' bits)'
p3162
sbsbsg408
(idelphi
DelphiAddOp
p3163
(dp3164
g388
S'+'
sg390
(i__main__
DelphiIdentAccess
p3165
(dp3166
g241
S'intToStr'
p3167
sg243
(lp3168
(idelphi
DelphiFunctionEndAccess
p3169
(dp3170
g251
(lp3171
(i__main__
DelphiIdentAccess
p3172
(dp3173
g241
S'screenColorBits'
p3174
sg243
(lp3175
sbasbasbsg408
(idelphi
DelphiStringAccess
p3176
(dp3177
g243
(lp3178
sg91
(idelphi
DelphiStringValue
p3179
(dp3180
g91
S'Colors: true color ('
p3181
sbsbsbsbasbasbsbasbsg468
(idelphi
DelphiCompoundStatement
p3182
(dp3183
g233
(lp3184
(i__main__
DelphiAssignStatement
p3185
(dp3186
g237
(idelphi
DelphiMulOp
p3187
(dp3188
g331
(i__main__
DelphiIdentAccess
p3189
(dp3190
g241
S'screenColorBits'
p3191
sg243
(lp3192
sbsg335
S'shl'
p3193
sg337
(idelphi
DelphiIntegerValue
p3194
(dp3195
g91
S'1'
sbsbsg238
(i__main__
DelphiIdentAccess
p3196
(dp3197
g241
S'screenColors'
p3198
sg243
(lp3199
sbsba(i__main__
DelphiAssignStatement
p3200
(dp3201
g237
Nsg238
(i__main__
DelphiIdentAccess
p3202
(dp3203
g241
S'infoList'
p3204
sg243
(lp3205
(idelphi
DelphiFieldEndAccess
p3206
(dp3207
g247
S'lines'
p3208
sba(idelphi
DelphiFieldEndAccess
p3209
(dp3210
g247
S'add'
p3211
sba(idelphi
DelphiFunctionEndAccess
p3212
(dp3213
g251
(lp3214
(idelphi
DelphiAddOp
p3215
(dp3216
g388
S'+'
sg390
(idelphi
DelphiStringAccess
p3217
(dp3218
g243
(lp3219
sg91
(idelphi
DelphiStringValue
p3220
(dp3221
g91
S' bits)'
p3222
sbsbsg408
(idelphi
DelphiAddOp
p3223
(dp3224
g388
S'+'
sg390
(i__main__
DelphiIdentAccess
p3225
(dp3226
g241
S'intToStr'
p3227
sg243
(lp3228
(idelphi
DelphiFunctionEndAccess
p3229
(dp3230
g251
(lp3231
(i__main__
DelphiIdentAccess
p3232
(dp3233
g241
S'screenColorBits'
p3234
sg243
(lp3235
sbasbasbsg408
(idelphi
DelphiAddOp
p3236
(dp3237
g388
S'+'
sg390
(idelphi
DelphiStringAccess
p3238
(dp3239
g243
(lp3240
sg91
(idelphi
DelphiStringValue
p3241
(dp3242
g91
S' ('
p3243
sbsbsg408
(idelphi
DelphiAddOp
p3244
(dp3245
g388
S'+'
sg390
(i__main__
DelphiIdentAccess
p3246
(dp3247
g241
S'intToStr'
p3248
sg243
(lp3249
(idelphi
DelphiFunctionEndAccess
p3250
(dp3251
g251
(lp3252
(i__main__
DelphiIdentAccess
p3253
(dp3254
g241
S'screenColors'
p3255
sg243
(lp3256
sbasbasbsg408
(idelphi
DelphiStringAccess
p3257
(dp3258
g243
(lp3259
sg91
(idelphi
DelphiStringValue
p3260
(dp3261
g91
S'Colors: '
p3262
sbsbsbsbsbsbasbasbsbasbsba(i__main__
DelphiAssignStatement
p3263
(dp3264
g237
Nsg238
(i__main__
DelphiIdentAccess
p3265
(dp3266
g241
S'infoList'
p3267
sg243
(lp3268
(idelphi
DelphiFieldEndAccess
p3269
(dp3270
g247
S'lines'
p3271
sba(idelphi
DelphiFieldEndAccess
p3272
(dp3273
g247
S'add'
p3274
sba(idelphi
DelphiFunctionEndAccess
p3275
(dp3276
g251
(lp3277
(idelphi
DelphiAddOp
p3278
(dp3279
g388
S'+'
sg390
(i__main__
DelphiIdentAccess
p3280
(dp3281
g241
S'intToStr'
p3282
sg243
(lp3283
(idelphi
DelphiFunctionEndAccess
p3284
(dp3285
g251
(lp3286
(i__main__
DelphiIdentAccess
p3287
(dp3288
g241
S'Screen'
p3289
sg243
(lp3290
(idelphi
DelphiFieldEndAccess
p3291
(dp3292
g247
S'height'
p3293
sbasbasbasbsg408
(idelphi
DelphiAddOp
p3294
(dp3295
g388
S'+'
sg390
(idelphi
DelphiStringAccess
p3296
(dp3297
g243
(lp3298
sg91
(idelphi
DelphiStringValue
p3299
(dp3300
g91
S' x '
p3301
sbsbsg408
(idelphi
DelphiAddOp
p3302
(dp3303
g388
S'+'
sg390
(i__main__
DelphiIdentAccess
p3304
(dp3305
g241
S'intToStr'
p3306
sg243
(lp3307
(idelphi
DelphiFunctionEndAccess
p3308
(dp3309
g251
(lp3310
(i__main__
DelphiIdentAccess
p3311
(dp3312
g241
S'Screen'
p3313
sg243
(lp3314
(idelphi
DelphiFieldEndAccess
p3315
(dp3316
g247
S'width'
p3317
sbasbasbasbsg408
(idelphi
DelphiStringAccess
p3318
(dp3319
g243
(lp3320
sg91
(idelphi
DelphiStringValue
p3321
(dp3322
g91
S'Size: '
p3323
sbsbsbsbsbasbasbsba(i__main__
DelphiAssignStatement
p3324
(dp3325
g237
Nsg238
(i__main__
DelphiIdentAccess
p3326
(dp3327
g241
S'infoList'
p3328
sg243
(lp3329
(idelphi
DelphiFieldEndAccess
p3330
(dp3331
g247
S'lines'
p3332
sba(idelphi
DelphiFieldEndAccess
p3333
(dp3334
g247
S'add'
p3335
sba(idelphi
DelphiFunctionEndAccess
p3336
(dp3337
g251
(lp3338
(idelphi
DelphiAddOp
p3339
(dp3340
g388
S'+'
sg390
(idelphi
DelphiStringAccess
p3341
(dp3342
g243
(lp3343
sg91
(idelphi
DelphiStringValue
p3344
(dp3345
g91
S' pixels/inch'
p3346
sbsbsg408
(idelphi
DelphiAddOp
p3347
(dp3348
g388
S'+'
sg390
(i__main__
DelphiIdentAccess
p3349
(dp3350
g241
S'intToStr'
p3351
sg243
(lp3352
(idelphi
DelphiFunctionEndAccess
p3353
(dp3354
g251
(lp3355
(i__main__
DelphiIdentAccess
p3356
(dp3357
g241
S'Screen'
p3358
sg243
(lp3359
(idelphi
DelphiFieldEndAccess
p3360
(dp3361
g247
S'pixelsPerInch'
p3362
sbasbasbasbsg408
(idelphi
DelphiStringAccess
p3363
(dp3364
g243
(lp3365
sg91
(idelphi
DelphiStringValue
p3366
(dp3367
g91
S'Resolution: '
p3368
sbsbsbsbasbasbsba(i__main__
DelphiAssignStatement
p3369
(dp3370
g237
Nsg238
(i__main__
DelphiIdentAccess
p3371
(dp3372
g241
S'infoList'
p3373
sg243
(lp3374
(idelphi
DelphiFieldEndAccess
p3375
(dp3376
g247
S'lines'
p3377
sba(idelphi
DelphiFieldEndAccess
p3378
(dp3379
g247
S'add'
p3380
sba(idelphi
DelphiFunctionEndAccess
p3381
(dp3382
g251
(lp3383
(idelphi
DelphiStringAccess
p3384
(dp3385
g243
(lp3386
sg91
(idelphi
DelphiStringValue
p3387
(dp3388
g91
S''
sbsbasbasbsg134
(lp3389
S' domain info\r'
p3390
asba(i__main__
DelphiAssignStatement
p3391
(dp3392
g237
Nsg238
(i__main__
DelphiIdentAccess
p3393
(dp3394
g241
S'infoList'
p3395
sg243
(lp3396
(idelphi
DelphiFieldEndAccess
p3397
(dp3398
g247
S'lines'
p3399
sba(idelphi
DelphiFieldEndAccess
p3400
(dp3401
g247
S'add'
p3402
sba(idelphi
DelphiFunctionEndAccess
p3403
(dp3404
g251
(lp3405
(idelphi
DelphiStringAccess
p3406
(dp3407
g243
(lp3408
sg91
(idelphi
DelphiStringValue
p3409
(dp3410
g91
S'Global settings'
p3411
sbsbasbasbsba(i__main__
DelphiAssignStatement
p3412
(dp3413
g237
Nsg238
(i__main__
DelphiIdentAccess
p3414
(dp3415
g241
S'infoList'
p3416
sg243
(lp3417
(idelphi
DelphiFieldEndAccess
p3418
(dp3419
g247
S'lines'
p3420
sba(idelphi
DelphiFieldEndAccess
p3421
(dp3422
g247
S'add'
p3423
sba(idelphi
DelphiFunctionEndAccess
p3424
(dp3425
g251
(lp3426
(idelphi
DelphiStringAccess
p3427
(dp3428
g243
(lp3429
sg91
(idelphi
DelphiStringValue
p3430
(dp3431
g91
S'-------------------------------------------'
p3432
sbsbasbasbsba(i__main__
DelphiAssignStatement
p3433
(dp3434
g237
Nsg238
(i__main__
DelphiIdentAccess
p3435
(dp3436
g241
S'infoList'
p3437
sg243
(lp3438
(idelphi
DelphiFieldEndAccess
p3439
(dp3440
g247
S'lines'
p3441
sba(idelphi
DelphiFieldEndAccess
p3442
(dp3443
g247
S'add'
p3444
sba(idelphi
DelphiFunctionEndAccess
p3445
(dp3446
g251
(lp3447
(idelphi
DelphiAddOp
p3448
(dp3449
g388
S'+'
sg390
(i__main__
DelphiIdentAccess
p3450
(dp3451
g241
S'intToStr'
p3452
sg243
(lp3453
(idelphi
DelphiFunctionEndAccess
p3454
(dp3455
g251
(lp3456
(i__main__
DelphiIdentAccess
p3457
(dp3458
g241
S'domain'
p3459
sg243
(lp3460
(idelphi
DelphiFieldEndAccess
p3461
(dp3462
g247
S'sectionManager'
p3463
sba(idelphi
DelphiFieldEndAccess
p3464
(dp3465
g247
S'sections'
p3466
sba(idelphi
DelphiFieldEndAccess
p3467
(dp3468
g247
S'count'
p3469
sbasbasbasbsg408
(idelphi
DelphiStringAccess
p3470
(dp3471
g243
(lp3472
sg91
(idelphi
DelphiStringValue
p3473
(dp3474
g91
S'Sections: '
p3475
sbsbsbasbasbsba(i__main__
DelphiAssignStatement
p3476
(dp3477
g237
Nsg238
(i__main__
DelphiIdentAccess
p3478
(dp3479
g241
S'infoList'
p3480
sg243
(lp3481
(idelphi
DelphiFieldEndAccess
p3482
(dp3483
g247
S'lines'
p3484
sba(idelphi
DelphiFieldEndAccess
p3485
(dp3486
g247
S'add'
p3487
sba(idelphi
DelphiFunctionEndAccess
p3488
(dp3489
g251
(lp3490
(idelphi
DelphiAddOp
p3491
(dp3492
g388
S'+'
sg390
(i__main__
DelphiIdentAccess
p3493
(dp3494
g241
S'intToStr'
p3495
sg243
(lp3496
(idelphi
DelphiFunctionEndAccess
p3497
(dp3498
g251
(lp3499
(i__main__
DelphiIdentAccess
p3500
(dp3501
g241
S'domain'
p3502
sg243
(lp3503
(idelphi
DelphiFieldEndAccess
p3504
(dp3505
g247
S'parameterManager'
p3506
sba(idelphi
DelphiFieldEndAccess
p3507
(dp3508
g247
S'parameters'
p3509
sba(idelphi
DelphiFieldEndAccess
p3510
(dp3511
g247
S'count'
p3512
sbasbasbasbsg408
(idelphi
DelphiStringAccess
p3513
(dp3514
g243
(lp3515
sg91
(idelphi
DelphiStringValue
p3516
(dp3517
g91
S'Parameters: '
p3518
sbsbsbasbasbsba(i__main__
DelphiAssignStatement
p3519
(dp3520
g237
Nsg238
(i__main__
DelphiIdentAccess
p3521
(dp3522
g241
S'infoList'
p3523
sg243
(lp3524
(idelphi
DelphiFieldEndAccess
p3525
(dp3526
g247
S'lines'
p3527
sba(idelphi
DelphiFieldEndAccess
p3528
(dp3529
g247
S'add'
p3530
sba(idelphi
DelphiFunctionEndAccess
p3531
(dp3532
g251
(lp3533
(idelphi
DelphiAddOp
p3534
(dp3535
g388
S'+'
sg390
(i__main__
DelphiIdentAccess
p3536
(dp3537
g241
S'intToStr'
p3538
sg243
(lp3539
(idelphi
DelphiFunctionEndAccess
p3540
(dp3541
g251
(lp3542
(i__main__
DelphiIdentAccess
p3543
(dp3544
g241
S'domain'
p3545
sg243
(lp3546
(idelphi
DelphiFieldEndAccess
p3547
(dp3548
g247
S'hintManager'
p3549
sba(idelphi
DelphiFieldEndAccess
p3550
(dp3551
g247
S'hints'
p3552
sba(idelphi
DelphiFieldEndAccess
p3553
(dp3554
g247
S'count'
p3555
sbasbasbasbsg408
(idelphi
DelphiStringAccess
p3556
(dp3557
g243
(lp3558
sg91
(idelphi
DelphiStringValue
p3559
(dp3560
g91
S'Hints: '
p3561
sbsbsbasbasbsba(i__main__
DelphiAssignStatement
p3562
(dp3563
g237
Nsg238
(i__main__
DelphiIdentAccess
p3564
(dp3565
g241
S'infoList'
p3566
sg243
(lp3567
(idelphi
DelphiFieldEndAccess
p3568
(dp3569
g247
S'lines'
p3570
sba(idelphi
DelphiFieldEndAccess
p3571
(dp3572
g247
S'add'
p3573
sba(idelphi
DelphiFunctionEndAccess
p3574
(dp3575
g251
(lp3576
(idelphi
DelphiAddOp
p3577
(dp3578
g388
S'+'
sg390
(i__main__
DelphiIdentAccess
p3579
(dp3580
g241
S'digitValueString'
p3581
sg243
(lp3582
(idelphi
DelphiFunctionEndAccess
p3583
(dp3584
g251
(lp3585
(i__main__
DelphiIdentAccess
p3586
(dp3587
g241
S'domain'
p3588
sg243
(lp3589
(idelphi
DelphiFieldEndAccess
p3590
(dp3591
g247
S'plantManager'
p3592
sba(idelphi
DelphiFieldEndAccess
p3593
(dp3594
g247
S'plantDrawScale_PixelsPerMm'
p3595
sbasbasbasbsg408
(idelphi
DelphiStringAccess
p3596
(dp3597
g243
(lp3598
sg91
(idelphi
DelphiStringValue
p3599
(dp3600
g91
S'Drawing scale: '
p3601
sbsbsbasbasbsba(i__main__
DelphiAssignStatement
p3602
(dp3603
g237
Nsg238
(i__main__
DelphiIdentAccess
p3604
(dp3605
g241
S'infoList'
p3606
sg243
(lp3607
(idelphi
DelphiFieldEndAccess
p3608
(dp3609
g247
S'lines'
p3610
sba(idelphi
DelphiFieldEndAccess
p3611
(dp3612
g247
S'add'
p3613
sba(idelphi
DelphiFunctionEndAccess
p3614
(dp3615
g251
(lp3616
(idelphi
DelphiAddOp
p3617
(dp3618
g388
S'+'
sg390
(i__main__
DelphiIdentAccess
p3619
(dp3620
g241
S'digitValueString'
p3621
sg243
(lp3622
(idelphi
DelphiFunctionEndAccess
p3623
(dp3624
g251
(lp3625
(i__main__
DelphiIdentAccess
p3626
(dp3627
g241
S'domain'
p3628
sg243
(lp3629
(idelphi
DelphiFieldEndAccess
p3630
(dp3631
g247
S'plantManager'
p3632
sba(idelphi
DelphiFieldEndAccess
p3633
(dp3634
g247
S'plantDrawOffset_mm'
p3635
sba(idelphi
DelphiFieldEndAccess
p3636
(dp3637
g247
S'y'
sbasbasbasbsg408
(idelphi
DelphiAddOp
p3638
(dp3639
g388
S'+'
sg390
(idelphi
DelphiStringAccess
p3640
(dp3641
g243
(lp3642
sg91
(idelphi
DelphiStringValue
p3643
(dp3644
g91
S' x '
p3645
sbsbsg408
(idelphi
DelphiAddOp
p3646
(dp3647
g388
S'+'
sg390
(i__main__
DelphiIdentAccess
p3648
(dp3649
g241
S'digitValueString'
p3650
sg243
(lp3651
(idelphi
DelphiFunctionEndAccess
p3652
(dp3653
g251
(lp3654
(i__main__
DelphiIdentAccess
p3655
(dp3656
g241
S'domain'
p3657
sg243
(lp3658
(idelphi
DelphiFieldEndAccess
p3659
(dp3660
g247
S'plantManager'
p3661
sba(idelphi
DelphiFieldEndAccess
p3662
(dp3663
g247
S'plantDrawOffset_mm'
p3664
sba(idelphi
DelphiFieldEndAccess
p3665
(dp3666
g247
S'x'
sbasbasbasbsg408
(idelphi
DelphiStringAccess
p3667
(dp3668
g243
(lp3669
sg91
(idelphi
DelphiStringValue
p3670
(dp3671
g91
S'Drawing offset: '
p3672
sbsbsbsbsbasbasbsba(i__main__
DelphiAssignStatement
p3673
(dp3674
g237
Nsg238
(i__main__
DelphiIdentAccess
p3675
(dp3676
g241
S'infoList'
p3677
sg243
(lp3678
(idelphi
DelphiFieldEndAccess
p3679
(dp3680
g247
S'lines'
p3681
sba(idelphi
DelphiFieldEndAccess
p3682
(dp3683
g247
S'add'
p3684
sba(idelphi
DelphiFunctionEndAccess
p3685
(dp3686
g251
(lp3687
(idelphi
DelphiStringAccess
p3688
(dp3689
g243
(lp3690
sg91
(idelphi
DelphiStringValue
p3691
(dp3692
g91
S''
sbsbasbasbsba(i__main__
DelphiAssignStatement
p3693
(dp3694
g237
Nsg238
(i__main__
DelphiIdentAccess
p3695
(dp3696
g241
S'infoList'
p3697
sg243
(lp3698
(idelphi
DelphiFieldEndAccess
p3699
(dp3700
g247
S'lines'
p3701
sba(idelphi
DelphiFieldEndAccess
p3702
(dp3703
g247
S'add'
p3704
sba(idelphi
DelphiFunctionEndAccess
p3705
(dp3706
g251
(lp3707
(idelphi
DelphiStringAccess
p3708
(dp3709
g243
(lp3710
sg91
(idelphi
DelphiStringValue
p3711
(dp3712
g91
S'Plants in file'
p3713
sbsbasbasbsba(i__main__
DelphiAssignStatement
p3714
(dp3715
g237
Nsg238
(i__main__
DelphiIdentAccess
p3716
(dp3717
g241
S'infoList'
p3718
sg243
(lp3719
(idelphi
DelphiFieldEndAccess
p3720
(dp3721
g247
S'lines'
p3722
sba(idelphi
DelphiFieldEndAccess
p3723
(dp3724
g247
S'add'
p3725
sba(idelphi
DelphiFunctionEndAccess
p3726
(dp3727
g251
(lp3728
(idelphi
DelphiStringAccess
p3729
(dp3730
g243
(lp3731
sg91
(idelphi
DelphiStringValue
p3732
(dp3733
g91
S'-------------------------------------------'
p3734
sbsbasbasbsba(i__main__
DelphiAssignStatement
p3735
(dp3736
g237
Nsg238
(i__main__
DelphiIdentAccess
p3737
(dp3738
g241
S'infoList'
p3739
sg243
(lp3740
(idelphi
DelphiFieldEndAccess
p3741
(dp3742
g247
S'lines'
p3743
sba(idelphi
DelphiFieldEndAccess
p3744
(dp3745
g247
S'add'
p3746
sba(idelphi
DelphiFunctionEndAccess
p3747
(dp3748
g251
(lp3749
(idelphi
DelphiAddOp
p3750
(dp3751
g388
S'+'
sg390
(i__main__
DelphiIdentAccess
p3752
(dp3753
g241
S'intToStr'
p3754
sg243
(lp3755
(idelphi
DelphiFunctionEndAccess
p3756
(dp3757
g251
(lp3758
(i__main__
DelphiIdentAccess
p3759
(dp3760
g241
S'domain'
p3761
sg243
(lp3762
(idelphi
DelphiFieldEndAccess
p3763
(dp3764
g247
S'plantManager'
p3765
sba(idelphi
DelphiFieldEndAccess
p3766
(dp3767
g247
S'plants'
p3768
sba(idelphi
DelphiFieldEndAccess
p3769
(dp3770
g247
S'count'
p3771
sbasbasbasbsg408
(idelphi
DelphiStringAccess
p3772
(dp3773
g243
(lp3774
sg91
(idelphi
DelphiStringValue
p3775
(dp3776
g91
S'Plants in file: '
p3777
sbsbsbasbasbsg134
(lp3778
S' plant info\r'
p3779
asba(i__main__
DelphiAssignStatement
p3780
(dp3781
g237
Nsg238
(i__main__
DelphiIdentAccess
p3782
(dp3783
g241
S'infoList'
p3784
sg243
(lp3785
(idelphi
DelphiFieldEndAccess
p3786
(dp3787
g247
S'lines'
p3788
sba(idelphi
DelphiFieldEndAccess
p3789
(dp3790
g247
S'add'
p3791
sba(idelphi
DelphiFunctionEndAccess
p3792
(dp3793
g251
(lp3794
(idelphi
DelphiAddOp
p3795
(dp3796
g388
S'+'
sg390
(i__main__
DelphiIdentAccess
p3797
(dp3798
g241
S'intToStr'
p3799
sg243
(lp3800
(idelphi
DelphiFunctionEndAccess
p3801
(dp3802
g251
(lp3803
(i__main__
DelphiIdentAccess
p3804
(dp3805
g241
S'domain'
p3806
sg243
(lp3807
(idelphi
DelphiFieldEndAccess
p3808
(dp3809
g247
S'plantManager'
p3810
sba(idelphi
DelphiFieldEndAccess
p3811
(dp3812
g247
S'privatePlantClipboard'
p3813
sba(idelphi
DelphiFieldEndAccess
p3814
(dp3815
g247
S'count'
p3816
sbasbasbasbsg408
(idelphi
DelphiStringAccess
p3817
(dp3818
g243
(lp3819
sg91
(idelphi
DelphiStringValue
p3820
(dp3821
g91
S'Plants in private clipboard: '
p3822
sbsbsbasbasbsba(idelphi
DelphiIfStatement
p3823
(dp3824
g302
(idelphi
DelphiRelOp
p3825
(dp3826
g397
(i__main__
DelphiIdentAccess
p3827
(dp3828
g241
S'domain'
p3829
sg243
(lp3830
(idelphi
DelphiFieldEndAccess
p3831
(dp3832
g247
S'plantManager'
p3833
sba(idelphi
DelphiFieldEndAccess
p3834
(dp3835
g247
S'plants'
p3836
sba(idelphi
DelphiFieldEndAccess
p3837
(dp3838
g247
S'count'
p3839
sbasbsg402
(idelphi
DelphiIntegerValue
p3840
(dp3841
g91
S'0'
sbsg407
S'>'
sbsg423
Nsg468
(idelphi
DelphiCompoundStatement
p3842
(dp3843
g233
(lp3844
(i__main__
DelphiAssignStatement
p3845
(dp3846
g237
(idelphi
DelphiIntegerValue
p3847
(dp3848
g91
S'0'
sbsg238
(i__main__
DelphiIdentAccess
p3849
(dp3850
g241
S'totalMemory_K'
p3851
sg243
(lp3852
sbsba(i__main__
DelphiAssignStatement
p3853
(dp3854
g237
Nsg238
(i__main__
DelphiIdentAccess
p3855
(dp3856
g241
S'infoList'
p3857
sg243
(lp3858
(idelphi
DelphiFieldEndAccess
p3859
(dp3860
g247
S'lines'
p3861
sba(idelphi
DelphiFieldEndAccess
p3862
(dp3863
g247
S'add'
p3864
sba(idelphi
DelphiFunctionEndAccess
p3865
(dp3866
g251
(lp3867
(idelphi
DelphiStringAccess
p3868
(dp3869
g243
(lp3870
sg91
(idelphi
DelphiStringValue
p3871
(dp3872
g91
S''
sbsbasbasbsba(idelphi
DelphiForStatement
p3873
(dp3874
g2220
S'i'
sg2221
(idelphi
DelphiAddOp
p3875
(dp3876
g388
S'-'
sg390
(idelphi
DelphiIntegerValue
p3877
(dp3878
g91
S'1'
sbsg408
(i__main__
DelphiIdentAccess
p3879
(dp3880
g241
S'domain'
p3881
sg243
(lp3882
(idelphi
DelphiFieldEndAccess
p3883
(dp3884
g247
S'plantManager'
p3885
sba(idelphi
DelphiFieldEndAccess
p3886
(dp3887
g247
S'plants'
p3888
sba(idelphi
DelphiFieldEndAccess
p3889
(dp3890
g247
S'count'
p3891
sbasbsbsg2236
g2237
sg31
(idelphi
DelphiIntegerValue
p3892
(dp3893
g91
S'0'
sbsg311
(idelphi
DelphiCompoundStatement
p3894
(dp3895
g233
(lp3896
(i__main__
DelphiAssignStatement
p3897
(dp3898
g237
(i__main__
DelphiIdentAccess
p3899
(dp3900
g241
S'PdPlant'
p3901
sg243
(lp3902
(idelphi
DelphiFunctionEndAccess
p3903
(dp3904
g251
(lp3905
(i__main__
DelphiIdentAccess
p3906
(dp3907
g241
S'domain'
p3908
sg243
(lp3909
(idelphi
DelphiFieldEndAccess
p3910
(dp3911
g247
S'plantManager'
p3912
sba(idelphi
DelphiFieldEndAccess
p3913
(dp3914
g247
S'plants'
p3915
sba(idelphi
DelphiFieldEndAccess
p3916
(dp3917
g247
S'items'
p3918
sba(idelphi
DelphiArrayEndAccess
p3919
(dp3920
g251
(lp3921
(i__main__
DelphiIdentAccess
p3922
(dp3923
g241
S'i'
sg243
(lp3924
sbasbasbasbasbsg238
(i__main__
DelphiIdentAccess
p3925
(dp3926
g241
S'plant'
p3927
sg243
(lp3928
sbsba(idelphi
DelphiIfStatement
p3929
(dp3930
g302
(idelphi
DelphiRelOp
p3931
(dp3932
g397
(i__main__
DelphiIdentAccess
p3933
(dp3934
g241
S'plant'
p3935
sg243
(lp3936
sbsg402
(idelphi
DelphiNilValue
p3937
(dp3938
bsg407
S'='
sbsg423
Nsg468
(idelphi
DelphiContinueStatement
p3939
(dp3940
bsba(i__main__
DelphiAssignStatement
p3941
(dp3942
g237
Nsg238
(i__main__
DelphiIdentAccess
p3943
(dp3944
g241
S'self'
p3945
sg243
(lp3946
(idelphi
DelphiFieldEndAccess
p3947
(dp3948
g247
S'describePlant'
p3949
sba(idelphi
DelphiFunctionEndAccess
p3950
(dp3951
g251
(lp3952
(idelphi
DelphiStringAccess
p3953
(dp3954
g243
(lp3955
sg91
(idelphi
DelphiStringValue
p3956
(dp3957
g91
S'Main window'
p3958
sbsba(i__main__
DelphiIdentAccess
p3959
(dp3960
g241
S'plant'
p3961
sg243
(lp3962
sbasbasbsba(i__main__
DelphiAssignStatement
p3963
(dp3964
g237
(idelphi
DelphiAddOp
p3965
(dp3966
g388
S'+'
sg390
(i__main__
DelphiIdentAccess
p3967
(dp3968
g241
S'plant'
p3969
sg243
(lp3970
(idelphi
DelphiFieldEndAccess
p3971
(dp3972
g247
S'totalMemoryUsed_K'
p3973
sbasbsg408
(i__main__
DelphiIdentAccess
p3974
(dp3975
g241
S'totalMemory_K'
p3976
sg243
(lp3977
sbsbsg238
(i__main__
DelphiIdentAccess
p3978
(dp3979
g241
S'totalMemory_K'
p3980
sg243
(lp3981
sbsbasbsba(idelphi
DelphiIfStatement
p3982
(dp3983
g302
(idelphi
DelphiRelOp
p3984
(dp3985
g397
(i__main__
DelphiIdentAccess
p3986
(dp3987
g241
S'totalMemory_K'
p3988
sg243
(lp3989
sbsg402
(idelphi
DelphiIntegerValue
p3990
(dp3991
g91
S'0'
sbsg407
S'>'
sbsg423
Nsg468
(i__main__
DelphiAssignStatement
p3992
(dp3993
g237
Nsg238
(i__main__
DelphiIdentAccess
p3994
(dp3995
g241
S'infoList'
p3996
sg243
(lp3997
(idelphi
DelphiFieldEndAccess
p3998
(dp3999
g247
S'lines'
p4000
sba(idelphi
DelphiFieldEndAccess
p4001
(dp4002
g247
S'add'
p4003
sba(idelphi
DelphiFunctionEndAccess
p4004
(dp4005
g251
(lp4006
(idelphi
DelphiAddOp
p4007
(dp4008
g388
S'+'
sg390
(i__main__
DelphiIdentAccess
p4009
(dp4010
g241
S'self'
p4011
sg243
(lp4012
(idelphi
DelphiFieldEndAccess
p4013
(dp4014
g247
S'stringForMemoryInK'
p4015
sba(idelphi
DelphiFunctionEndAccess
p4016
(dp4017
g251
(lp4018
(i__main__
DelphiIdentAccess
p4019
(dp4020
g241
S'totalMemory_K'
p4021
sg243
(lp4022
sbasbasbsg408
(idelphi
DelphiStringAccess
p4023
(dp4024
g243
(lp4025
sg91
(idelphi
DelphiStringValue
p4026
(dp4027
g91
S'Total memory used by plants in main window: '
p4028
sbsbsbasbasbsbsbasbsba(idelphi
DelphiIfStatement
p4029
(dp4030
g302
(idelphi
DelphiMulOp
p4031
(dp4032
g331
(idelphi
DelphiNestedExpressionListAccess
p4033
(dp4034
g243
(lp4035
sg251
(lp4036
(idelphi
DelphiRelOp
p4037
(dp4038
g397
(i__main__
DelphiIdentAccess
p4039
(dp4040
g241
S'BreederForm'
p4041
sg243
(lp4042
(idelphi
DelphiFieldEndAccess
p4043
(dp4044
g247
S'generations'
p4045
sba(idelphi
DelphiFieldEndAccess
p4046
(dp4047
g247
S'count'
p4048
sbasbsg402
(idelphi
DelphiIntegerValue
p4049
(dp4050
g91
S'0'
sbsg407
S'>'
sbasbsg335
g336
sg337
(idelphi
DelphiNestedExpressionListAccess
p4051
(dp4052
g243
(lp4053
sg251
(lp4054
(idelphi
DelphiRelOp
p4055
(dp4056
g397
(i__main__
DelphiIdentAccess
p4057
(dp4058
g241
S'BreederForm'
p4059
sg243
(lp4060
sbsg402
(idelphi
DelphiNilValue
p4061
(dp4062
bsg407
g1092
sbasbsbsg423
Nsg468
(idelphi
DelphiCompoundStatement
p4063
(dp4064
g233
(lp4065
(i__main__
DelphiAssignStatement
p4066
(dp4067
g237
Nsg238
(i__main__
DelphiIdentAccess
p4068
(dp4069
g241
S'infoList'
p4070
sg243
(lp4071
(idelphi
DelphiFieldEndAccess
p4072
(dp4073
g247
S'lines'
p4074
sba(idelphi
DelphiFieldEndAccess
p4075
(dp4076
g247
S'add'
p4077
sba(idelphi
DelphiFunctionEndAccess
p4078
(dp4079
g251
(lp4080
(idelphi
DelphiStringAccess
p4081
(dp4082
g243
(lp4083
sg91
(idelphi
DelphiStringValue
p4084
(dp4085
g91
S''
sbsbasbasbsg134
(lp4086
S' breeder info\r'
p4087
asba(i__main__
DelphiAssignStatement
p4088
(dp4089
g237
Nsg238
(i__main__
DelphiIdentAccess
p4090
(dp4091
g241
S'infoList'
p4092
sg243
(lp4093
(idelphi
DelphiFieldEndAccess
p4094
(dp4095
g247
S'lines'
p4096
sba(idelphi
DelphiFieldEndAccess
p4097
(dp4098
g247
S'add'
p4099
sba(idelphi
DelphiFunctionEndAccess
p4100
(dp4101
g251
(lp4102
(idelphi
DelphiStringAccess
p4103
(dp4104
g243
(lp4105
sg91
(idelphi
DelphiStringValue
p4106
(dp4107
g91
S'Breeder plants'
p4108
sbsbasbasbsba(i__main__
DelphiAssignStatement
p4109
(dp4110
g237
Nsg238
(i__main__
DelphiIdentAccess
p4111
(dp4112
g241
S'infoList'
p4113
sg243
(lp4114
(idelphi
DelphiFieldEndAccess
p4115
(dp4116
g247
S'lines'
p4117
sba(idelphi
DelphiFieldEndAccess
p4118
(dp4119
g247
S'add'
p4120
sba(idelphi
DelphiFunctionEndAccess
p4121
(dp4122
g251
(lp4123
(idelphi
DelphiStringAccess
p4124
(dp4125
g243
(lp4126
sg91
(idelphi
DelphiStringValue
p4127
(dp4128
g91
S'-------------------------------------------'
p4129
sbsbasbasbsba(i__main__
DelphiAssignStatement
p4130
(dp4131
g237
(idelphi
DelphiIntegerValue
p4132
(dp4133
g91
S'0'
sbsg238
(i__main__
DelphiIdentAccess
p4134
(dp4135
g241
S'totalMemory_K'
p4136
sg243
(lp4137
sbsba(idelphi
DelphiForStatement
p4138
(dp4139
g2220
S'genCount'
p4140
sg2221
(idelphi
DelphiAddOp
p4141
(dp4142
g388
S'-'
sg390
(idelphi
DelphiIntegerValue
p4143
(dp4144
g91
S'1'
sbsg408
(i__main__
DelphiIdentAccess
p4145
(dp4146
g241
S'BreederForm'
p4147
sg243
(lp4148
(idelphi
DelphiFieldEndAccess
p4149
(dp4150
g247
S'generations'
p4151
sba(idelphi
DelphiFieldEndAccess
p4152
(dp4153
g247
S'count'
p4154
sbasbsbsg2236
g2237
sg31
(idelphi
DelphiIntegerValue
p4155
(dp4156
g91
S'0'
sbsg311
(idelphi
DelphiCompoundStatement
p4157
(dp4158
g233
(lp4159
(i__main__
DelphiAssignStatement
p4160
(dp4161
g237
(i__main__
DelphiIdentAccess
p4162
(dp4163
g241
S'PdGeneration'
p4164
sg243
(lp4165
(idelphi
DelphiFunctionEndAccess
p4166
(dp4167
g251
(lp4168
(i__main__
DelphiIdentAccess
p4169
(dp4170
g241
S'BreederForm'
p4171
sg243
(lp4172
(idelphi
DelphiFieldEndAccess
p4173
(dp4174
g247
S'generations'
p4175
sba(idelphi
DelphiFieldEndAccess
p4176
(dp4177
g247
S'items'
p4178
sba(idelphi
DelphiArrayEndAccess
p4179
(dp4180
g251
(lp4181
(i__main__
DelphiIdentAccess
p4182
(dp4183
g241
S'genCount'
p4184
sg243
(lp4185
sbasbasbasbasbsg238
(i__main__
DelphiIdentAccess
p4186
(dp4187
g241
S'generation'
p4188
sg243
(lp4189
sbsba(idelphi
DelphiIfStatement
p4190
(dp4191
g302
(idelphi
DelphiRelOp
p4192
(dp4193
g397
(i__main__
DelphiIdentAccess
p4194
(dp4195
g241
S'generation'
p4196
sg243
(lp4197
(idelphi
DelphiFieldEndAccess
p4198
(dp4199
g247
S'plants'
p4200
sba(idelphi
DelphiFieldEndAccess
p4201
(dp4202
g247
S'count'
p4203
sbasbsg402
(idelphi
DelphiIntegerValue
p4204
(dp4205
g91
S'0'
sbsg407
S'>'
sbsg423
Nsg468
(idelphi
DelphiForStatement
p4206
(dp4207
g2220
S'plCount'
p4208
sg2221
(idelphi
DelphiAddOp
p4209
(dp4210
g388
S'-'
sg390
(idelphi
DelphiIntegerValue
p4211
(dp4212
g91
S'1'
sbsg408
(i__main__
DelphiIdentAccess
p4213
(dp4214
g241
S'generation'
p4215
sg243
(lp4216
(idelphi
DelphiFieldEndAccess
p4217
(dp4218
g247
S'plants'
p4219
sba(idelphi
DelphiFieldEndAccess
p4220
(dp4221
g247
S'count'
p4222
sbasbsbsg2236
g2237
sg31
(idelphi
DelphiIntegerValue
p4223
(dp4224
g91
S'0'
sbsg311
(idelphi
DelphiCompoundStatement
p4225
(dp4226
g233
(lp4227
(i__main__
DelphiAssignStatement
p4228
(dp4229
g237
(i__main__
DelphiIdentAccess
p4230
(dp4231
g241
S'PdPlant'
p4232
sg243
(lp4233
(idelphi
DelphiFunctionEndAccess
p4234
(dp4235
g251
(lp4236
(i__main__
DelphiIdentAccess
p4237
(dp4238
g241
S'generation'
p4239
sg243
(lp4240
(idelphi
DelphiFieldEndAccess
p4241
(dp4242
g247
S'plants'
p4243
sba(idelphi
DelphiFieldEndAccess
p4244
(dp4245
g247
S'items'
p4246
sba(idelphi
DelphiArrayEndAccess
p4247
(dp4248
g251
(lp4249
(i__main__
DelphiIdentAccess
p4250
(dp4251
g241
S'plCount'
p4252
sg243
(lp4253
sbasbasbasbasbsg238
(i__main__
DelphiIdentAccess
p4254
(dp4255
g241
S'plant'
p4256
sg243
(lp4257
sbsba(idelphi
DelphiIfStatement
p4258
(dp4259
g302
(idelphi
DelphiRelOp
p4260
(dp4261
g397
(i__main__
DelphiIdentAccess
p4262
(dp4263
g241
S'plant'
p4264
sg243
(lp4265
sbsg402
(idelphi
DelphiNilValue
p4266
(dp4267
bsg407
S'='
sbsg423
Nsg468
(idelphi
DelphiContinueStatement
p4268
(dp4269
bsba(i__main__
DelphiAssignStatement
p4270
(dp4271
g237
Nsg238
(i__main__
DelphiIdentAccess
p4272
(dp4273
g241
S'self'
p4274
sg243
(lp4275
(idelphi
DelphiFieldEndAccess
p4276
(dp4277
g247
S'describePlant'
p4278
sba(idelphi
DelphiFunctionEndAccess
p4279
(dp4280
g251
(lp4281
(idelphi
DelphiStringAccess
p4282
(dp4283
g243
(lp4284
sg91
(idelphi
DelphiStringValue
p4285
(dp4286
g91
S'Breeder'
p4287
sbsba(i__main__
DelphiIdentAccess
p4288
(dp4289
g241
S'plant'
p4290
sg243
(lp4291
sbasbasbsba(i__main__
DelphiAssignStatement
p4292
(dp4293
g237
(idelphi
DelphiAddOp
p4294
(dp4295
g388
S'+'
sg390
(i__main__
DelphiIdentAccess
p4296
(dp4297
g241
S'plant'
p4298
sg243
(lp4299
(idelphi
DelphiFieldEndAccess
p4300
(dp4301
g247
S'totalMemoryUsed_K'
p4302
sbasbsg408
(i__main__
DelphiIdentAccess
p4303
(dp4304
g241
S'totalMemory_K'
p4305
sg243
(lp4306
sbsbsg238
(i__main__
DelphiIdentAccess
p4307
(dp4308
g241
S'totalMemory_K'
p4309
sg243
(lp4310
sbsbasbsbsbasbsba(idelphi
DelphiIfStatement
p4311
(dp4312
g302
(idelphi
DelphiRelOp
p4313
(dp4314
g397
(i__main__
DelphiIdentAccess
p4315
(dp4316
g241
S'totalMemory_K'
p4317
sg243
(lp4318
sbsg402
(idelphi
DelphiIntegerValue
p4319
(dp4320
g91
S'0'
sbsg407
S'>'
sbsg423
Nsg468
(i__main__
DelphiAssignStatement
p4321
(dp4322
g237
Nsg238
(i__main__
DelphiIdentAccess
p4323
(dp4324
g241
S'infoList'
p4325
sg243
(lp4326
(idelphi
DelphiFieldEndAccess
p4327
(dp4328
g247
S'lines'
p4329
sba(idelphi
DelphiFieldEndAccess
p4330
(dp4331
g247
S'add'
p4332
sba(idelphi
DelphiFunctionEndAccess
p4333
(dp4334
g251
(lp4335
(idelphi
DelphiAddOp
p4336
(dp4337
g388
S'+'
sg390
(i__main__
DelphiIdentAccess
p4338
(dp4339
g241
S'self'
p4340
sg243
(lp4341
(idelphi
DelphiFieldEndAccess
p4342
(dp4343
g247
S'stringForMemoryInK'
p4344
sba(idelphi
DelphiFunctionEndAccess
p4345
(dp4346
g251
(lp4347
(i__main__
DelphiIdentAccess
p4348
(dp4349
g241
S'totalMemory_K'
p4350
sg243
(lp4351
sbasbasbsg408
(idelphi
DelphiStringAccess
p4352
(dp4353
g243
(lp4354
sg91
(idelphi
DelphiStringValue
p4355
(dp4356
g91
S'Total memory used by plants in breeder: '
p4357
sbsbsbasbasbsbsbasbsba(idelphi
DelphiIfStatement
p4358
(dp4359
g302
(idelphi
DelphiMulOp
p4360
(dp4361
g331
(idelphi
DelphiNestedExpressionListAccess
p4362
(dp4363
g243
(lp4364
sg251
(lp4365
(idelphi
DelphiRelOp
p4366
(dp4367
g397
(i__main__
DelphiIdentAccess
p4368
(dp4369
g241
S'TimeSeriesForm'
p4370
sg243
(lp4371
(idelphi
DelphiFieldEndAccess
p4372
(dp4373
g247
S'plants'
p4374
sba(idelphi
DelphiFieldEndAccess
p4375
(dp4376
g247
S'count'
p4377
sbasbsg402
(idelphi
DelphiIntegerValue
p4378
(dp4379
g91
S'0'
sbsg407
S'>'
sbasbsg335
g336
sg337
(idelphi
DelphiNestedExpressionListAccess
p4380
(dp4381
g243
(lp4382
sg251
(lp4383
(idelphi
DelphiRelOp
p4384
(dp4385
g397
(i__main__
DelphiIdentAccess
p4386
(dp4387
g241
S'TimeSeriesForm'
p4388
sg243
(lp4389
sbsg402
(idelphi
DelphiNilValue
p4390
(dp4391
bsg407
g1092
sbasbsbsg423
Nsg468
(idelphi
DelphiCompoundStatement
p4392
(dp4393
g233
(lp4394
(i__main__
DelphiAssignStatement
p4395
(dp4396
g237
Nsg238
(i__main__
DelphiIdentAccess
p4397
(dp4398
g241
S'infoList'
p4399
sg243
(lp4400
(idelphi
DelphiFieldEndAccess
p4401
(dp4402
g247
S'lines'
p4403
sba(idelphi
DelphiFieldEndAccess
p4404
(dp4405
g247
S'add'
p4406
sba(idelphi
DelphiFunctionEndAccess
p4407
(dp4408
g251
(lp4409
(idelphi
DelphiStringAccess
p4410
(dp4411
g243
(lp4412
sg91
(idelphi
DelphiStringValue
p4413
(dp4414
g91
S''
sbsbasbasbsg134
(lp4415
S' time series info\r'
p4416
asba(i__main__
DelphiAssignStatement
p4417
(dp4418
g237
Nsg238
(i__main__
DelphiIdentAccess
p4419
(dp4420
g241
S'infoList'
p4421
sg243
(lp4422
(idelphi
DelphiFieldEndAccess
p4423
(dp4424
g247
S'lines'
p4425
sba(idelphi
DelphiFieldEndAccess
p4426
(dp4427
g247
S'add'
p4428
sba(idelphi
DelphiFunctionEndAccess
p4429
(dp4430
g251
(lp4431
(idelphi
DelphiStringAccess
p4432
(dp4433
g243
(lp4434
sg91
(idelphi
DelphiStringValue
p4435
(dp4436
g91
S'Time series plants'
p4437
sbsbasbasbsba(i__main__
DelphiAssignStatement
p4438
(dp4439
g237
Nsg238
(i__main__
DelphiIdentAccess
p4440
(dp4441
g241
S'infoList'
p4442
sg243
(lp4443
(idelphi
DelphiFieldEndAccess
p4444
(dp4445
g247
S'lines'
p4446
sba(idelphi
DelphiFieldEndAccess
p4447
(dp4448
g247
S'add'
p4449
sba(idelphi
DelphiFunctionEndAccess
p4450
(dp4451
g251
(lp4452
(idelphi
DelphiStringAccess
p4453
(dp4454
g243
(lp4455
sg91
(idelphi
DelphiStringValue
p4456
(dp4457
g91
S'-------------------------------------------'
p4458
sbsbasbasbsba(i__main__
DelphiAssignStatement
p4459
(dp4460
g237
(idelphi
DelphiIntegerValue
p4461
(dp4462
g91
S'0'
sbsg238
(i__main__
DelphiIdentAccess
p4463
(dp4464
g241
S'totalMemory_K'
p4465
sg243
(lp4466
sbsba(idelphi
DelphiForStatement
p4467
(dp4468
g2220
S'i'
sg2221
(idelphi
DelphiAddOp
p4469
(dp4470
g388
S'-'
sg390
(idelphi
DelphiIntegerValue
p4471
(dp4472
g91
S'1'
sbsg408
(i__main__
DelphiIdentAccess
p4473
(dp4474
g241
S'TimeSeriesForm'
p4475
sg243
(lp4476
(idelphi
DelphiFieldEndAccess
p4477
(dp4478
g247
S'plants'
p4479
sba(idelphi
DelphiFieldEndAccess
p4480
(dp4481
g247
S'count'
p4482
sbasbsbsg2236
g2237
sg31
(idelphi
DelphiIntegerValue
p4483
(dp4484
g91
S'0'
sbsg311
(idelphi
DelphiCompoundStatement
p4485
(dp4486
g233
(lp4487
(i__main__
DelphiAssignStatement
p4488
(dp4489
g237
(i__main__
DelphiIdentAccess
p4490
(dp4491
g241
S'PdPlant'
p4492
sg243
(lp4493
(idelphi
DelphiFunctionEndAccess
p4494
(dp4495
g251
(lp4496
(i__main__
DelphiIdentAccess
p4497
(dp4498
g241
S'TimeSeriesForm'
p4499
sg243
(lp4500
(idelphi
DelphiFieldEndAccess
p4501
(dp4502
g247
S'plants'
p4503
sba(idelphi
DelphiFieldEndAccess
p4504
(dp4505
g247
S'items'
p4506
sba(idelphi
DelphiArrayEndAccess
p4507
(dp4508
g251
(lp4509
(i__main__
DelphiIdentAccess
p4510
(dp4511
g241
S'i'
sg243
(lp4512
sbasbasbasbasbsg238
(i__main__
DelphiIdentAccess
p4513
(dp4514
g241
S'plant'
p4515
sg243
(lp4516
sbsba(idelphi
DelphiIfStatement
p4517
(dp4518
g302
(idelphi
DelphiRelOp
p4519
(dp4520
g397
(i__main__
DelphiIdentAccess
p4521
(dp4522
g241
S'plant'
p4523
sg243
(lp4524
sbsg402
(idelphi
DelphiNilValue
p4525
(dp4526
bsg407
S'='
sbsg423
Nsg468
(idelphi
DelphiContinueStatement
p4527
(dp4528
bsba(i__main__
DelphiAssignStatement
p4529
(dp4530
g237
Nsg238
(i__main__
DelphiIdentAccess
p4531
(dp4532
g241
S'self'
p4533
sg243
(lp4534
(idelphi
DelphiFieldEndAccess
p4535
(dp4536
g247
S'describePlant'
p4537
sba(idelphi
DelphiFunctionEndAccess
p4538
(dp4539
g251
(lp4540
(idelphi
DelphiStringAccess
p4541
(dp4542
g243
(lp4543
sg91
(idelphi
DelphiStringValue
p4544
(dp4545
g91
S'Time Series'
p4546
sbsba(i__main__
DelphiIdentAccess
p4547
(dp4548
g241
S'plant'
p4549
sg243
(lp4550
sbasbasbsba(i__main__
DelphiAssignStatement
p4551
(dp4552
g237
(idelphi
DelphiAddOp
p4553
(dp4554
g388
S'+'
sg390
(i__main__
DelphiIdentAccess
p4555
(dp4556
g241
S'plant'
p4557
sg243
(lp4558
(idelphi
DelphiFieldEndAccess
p4559
(dp4560
g247
S'totalMemoryUsed_K'
p4561
sbasbsg408
(i__main__
DelphiIdentAccess
p4562
(dp4563
g241
S'totalMemory_K'
p4564
sg243
(lp4565
sbsbsg238
(i__main__
DelphiIdentAccess
p4566
(dp4567
g241
S'totalMemory_K'
p4568
sg243
(lp4569
sbsbasbsba(idelphi
DelphiIfStatement
p4570
(dp4571
g302
(idelphi
DelphiRelOp
p4572
(dp4573
g397
(i__main__
DelphiIdentAccess
p4574
(dp4575
g241
S'totalMemory_K'
p4576
sg243
(lp4577
sbsg402
(idelphi
DelphiIntegerValue
p4578
(dp4579
g91
S'0'
sbsg407
S'>'
sbsg423
Nsg468
(i__main__
DelphiAssignStatement
p4580
(dp4581
g237
Nsg238
(i__main__
DelphiIdentAccess
p4582
(dp4583
g241
S'infoList'
p4584
sg243
(lp4585
(idelphi
DelphiFieldEndAccess
p4586
(dp4587
g247
S'lines'
p4588
sba(idelphi
DelphiFieldEndAccess
p4589
(dp4590
g247
S'add'
p4591
sba(idelphi
DelphiFunctionEndAccess
p4592
(dp4593
g251
(lp4594
(idelphi
DelphiAddOp
p4595
(dp4596
g388
S'+'
sg390
(i__main__
DelphiIdentAccess
p4597
(dp4598
g241
S'self'
p4599
sg243
(lp4600
(idelphi
DelphiFieldEndAccess
p4601
(dp4602
g247
S'stringForMemoryInK'
p4603
sba(idelphi
DelphiFunctionEndAccess
p4604
(dp4605
g251
(lp4606
(i__main__
DelphiIdentAccess
p4607
(dp4608
g241
S'totalMemory_K'
p4609
sg243
(lp4610
sbasbasbsg408
(idelphi
DelphiStringAccess
p4611
(dp4612
g243
(lp4613
sg91
(idelphi
DelphiStringValue
p4614
(dp4615
g91
S'Total memory used by plants in time series window: '
p4616
sbsbsbasbasbsbsbasbsbasbsg259
(lp4617
(i__main__
DelphiVarSection
p4618
(dp4619
g586
I0
sg587
(lp4620
(idelphi
DelphiVarDecl
p4621
(dp4622
g591
Nsg592
(lp4623
S'numParams'
p4624
aS'numSections'
p4625
aS'numHints'
p4626
aS'numPlants'
p4627
aS'numPlantsInPrivateClipboard'
p4628
asg35
(i__main__
DelphiPrimitiveType
p4629
(dp4630
g38
g603
sbsba(idelphi
DelphiVarDecl
p4631
(dp4632
g591
Nsg592
(lp4633
S'scale'
p4634
aS'offsetX'
p4635
aS'offsetY'
p4636
asg35
(i__main__
DelphiPrimitiveType
p4637
(dp4638
g38
S'single'
p4639
sbsba(idelphi
DelphiVarDecl
p4640
(dp4641
g591
Nsg592
(lp4642
S'memoryStatus'
p4643
asg35
(i__main__
DelphiNamedType
p4644
(dp4645
g38
S'TMemoryStatus'
p4646
sg40
g1
sg41
Nsbsba(idelphi
DelphiVarDecl
p4647
(dp4648
g591
Nsg592
(lp4649
S'diskSpace'
p4650
asg35
(i__main__
DelphiPrimitiveType
p4651
(dp4652
g38
g2289
sbsba(idelphi
DelphiVarDecl
p4653
(dp4654
g591
Nsg592
(lp4655
S'screenColorBits'
p4656
asg35
(i__main__
DelphiPrimitiveType
p4657
(dp4658
g38
g603
sbsba(idelphi
DelphiVarDecl
p4659
(dp4660
g591
Nsg592
(lp4661
S'screenColors'
p4662
asg35
(i__main__
DelphiPrimitiveType
p4663
(dp4664
g38
g2289
sbsba(idelphi
DelphiVarDecl
p4665
(dp4666
g591
Nsg592
(lp4667
S'screenDC'
p4668
asg35
(i__main__
DelphiNamedType
p4669
(dp4670
g38
S'HDC'
p4671
sg40
g1
sg41
Nsbsba(idelphi
DelphiVarDecl
p4672
(dp4673
g591
Nsg592
(lp4674
S'i'
aS'genCount'
p4675
aS'plCount'
p4676
asg35
(i__main__
DelphiPrimitiveType
p4677
(dp4678
g38
g603
sbsba(idelphi
DelphiVarDecl
p4679
(dp4680
g591
Nsg592
(lp4681
S'plant'
p4682
asg35
(i__main__
DelphiNamedType
p4683
(dp4684
g38
S'PdPlant'
p4685
sg40
g1
sg41
Nsbsba(idelphi
DelphiVarDecl
p4686
(dp4687
g591
Nsg592
(lp4688
S'generation'
p4689
asg35
(i__main__
DelphiNamedType
p4690
(dp4691
g38
S'PdGeneration'
p4692
sg40
g1
sg41
Nsbsba(idelphi
DelphiVarDecl
p4693
(dp4694
g591
Nsg592
(lp4695
S'totalMemory_K'
p4696
asg35
(i__main__
DelphiPrimitiveType
p4697
(dp4698
g38
S'double'
p4699
sbsbasbasbsg134
(lp4700
S'$R *.DFM'
p4701
asbsS'closeclick'
p4702
(i__main__
DelphiMethodImplementation
p4703
(dp4704
g206
g151
sg19
g153
sg27
(lp4705
(i__main__
DelphiFormalParameter
p4706
(dp4707
g31
Nsg32
(lp4708
S'Sender'
p4709
asg35
(i__main__
DelphiNamedType
p4710
(dp4711
g38
S'TObject'
p4712
sg40
g1
sg41
Nsbsg42
Nsbasg215
(lp4713
sg217
(lp4714
sg219
(lp4715
g221
ag4709
asg222
(dp4716
g4709
g4710
ssg43
S'TProgramInfoForm'
p4717
sg44
Nsg225
(lp4718
sg45
I0
sg46
g47
sg227
(i__main__
DelphiBlock
p4719
(dp4720
g230
(idelphi
DelphiCompoundStatement
p4721
(dp4722
g233
(lp4723
(i__main__
DelphiAssignStatement
p4724
(dp4725
g237
(i__main__
DelphiIdentAccess
p4726
(dp4727
g241
S'mrCancel'
p4728
sg243
(lp4729
sbsg238
(i__main__
DelphiIdentAccess
p4730
(dp4731
g241
S'modalResult'
p4732
sg243
(lp4733
sbsbasbsg259
(lp4734
sbsbssS'propertyDeclarations'
p4735
(dp4736
sS'variableNamesInDeclaredOrder'
p4737
(lp4738
g10
ag18
ag16
ag14
ag12
asba(i__main__
DelphiConstSection
p4739
(dp4740
S'constDeclList'
p4741
(lp4742
(idelphi
DelphiConstDeclaration
p4743
(dp4744
g591
(idelphi
DelphiIntegerValue
p4745
(dp4746
g91
S'4'
sbsg241
S'kBetweenGap'
p4747
sg35
(idelphi
DelphiPrimitiveType
p4748
(dp4749
g38
S'UNDEFINED_NEEDS_CALCULATION'
p4750
sbsbasg586
I1
sbasS'includedUnits'
p4751
NsS'implementationUses'
p4752
(lp4753
S'Ubreedr'
p4754
aS'uplant'
p4755
aS'ugener'
p4756
aS'udomain'
p4757
aS'utimeser'
p4758
aS'usupport'
p4759
aS'umath'
p4760
aS'ubitmap'
p4761
asg19
S'uprginfo'
p4762
sS'constSections'
p4763
(lp4764
g4739
asS'globalsInProperCase'
p4765
NsS'interfaceUses'
p4766
(lp4767
S'delphi_compatability'
p4768
aS'Windows'
p4769
aS'Messages'
p4770
aS'SysUtils'
p4771
aS'Classes'
p4772
aS'Graphics'
p4773
aS'Controls'
p4774
aS'Forms'
p4775
aS'Dialogs'
p4776
aS'StdCtrls'
p4777
aS'Buttons'
p4778
aS'updform'
p4779
asS'finalCommentToken'
p4780
(i__main__
PassStatement
p4781
(dp4782
g259
(lp4783
sbsS'varSections'
p4784
(lp4785
sS'globals'
p4786
NsS'originalFileName'
p4787
S'../../PlantStudioInPython/converted_source/uprginfo.pas'
p4788
sS'proceduralImplementations'
p4789
(dp4790
sS'fileName'
p4791
S'/Users/pdf/Documents/workspace/PlantStudioInPython/converted_source/uprginfo.pas'
p4792
sS'proceduralDeclarations'
p4793
(dp4794
sS'types'
p4795
(dp4796
S'tprograminfoform'
p4797
g5
ssb.