(i__main__
DelphiUnit
p1
(dp2
S'sectionsInOrderDefined'
p3
(lp4
(i__main__
DelphiClass
p5
(dp6
S'variableNamesInProperCase'
p7
(dp8
S'readlicense'
p9
S'readLicense'
p10
sS'registrationcodeedit'
p11
S'registrationCodeEdit'
p12
sS'close'
p13
S'close'
p14
sS'openbrowser'
p15
S'openBrowser'
p16
sS'label11'
p17
S'Label11'
p18
sS'opened'
p19
S'opened'
p20
sS'printbutton'
p21
S'PrintButton'
p22
sS'panel1'
p23
S'Panel1'
p24
sS'orderpageedit'
p25
S'orderPageEdit'
p26
sS'label1'
p27
S'Label1'
p28
sS'label2'
p29
S'Label2'
p30
sS'label3'
p31
S'Label3'
p32
sS'label4'
p33
S'Label4'
p34
sS'label5'
p35
S'Label5'
p36
sS'label6'
p37
S'Label6'
p38
sS'thankyou'
p39
S'thankYou'
p40
sS'moreinfo'
p41
S'moreInfo'
p42
sS'registerme'
p43
S'registerMe'
p44
sS'unsuccessfulregistrationtries'
p45
S'unsuccessfulRegistrationTries'
p46
sS'printeddetails'
p47
S'printedDetails'
p48
sS'registrationnameedit'
p49
S'registrationNameEdit'
p50
sS'printdialog'
p51
S'PrintDialog'
p52
ssS'name'
p53
S'TRegistrationForm'
p54
sS'methodDeclarations'
p55
(dp56
S'registermeclick'
p57
(i__main__
DelphiMethodDeclaration
p58
(dp59
g53
S'registerMeClick'
p60
sS'formalParameters'
p61
(lp62
(i__main__
DelphiFormalParameter
p63
(dp64
S'initialValue'
p65
NsS'names'
p66
(lp67
S'Sender'
p68
asS'theType'
p69
(i__main__
DelphiNamedType
p70
(dp71
S'typeName'
p72
S'TObject'
p73
sS'unitDefinedIn'
p74
g1
sS'unitName'
p75
NsbsS'parameterVariety'
p76
NsbasS'className'
p77
g54
sS'resultType'
p78
NsS'isClassMethod'
p79
I0
sS'methodType'
p80
S'procedure'
p81
sbsS'formactivate'
p82
(i__main__
DelphiMethodDeclaration
p83
(dp84
g53
S'FormActivate'
p85
sg61
(lp86
(i__main__
DelphiFormalParameter
p87
(dp88
g65
Nsg66
(lp89
S'Sender'
p90
asg69
(i__main__
DelphiNamedType
p91
(dp92
g72
S'TObject'
p93
sg74
g1
sg75
Nsbsg76
Nsbasg77
g54
sg78
Nsg79
I0
sg80
g81
sbsS'printbuttonclick'
p94
(i__main__
DelphiMethodDeclaration
p95
(dp96
g53
S'PrintButtonClick'
p97
sg61
(lp98
(i__main__
DelphiFormalParameter
p99
(dp100
g65
Nsg66
(lp101
S'Sender'
p102
asg69
(i__main__
DelphiNamedType
p103
(dp104
g72
S'TObject'
p105
sg74
g1
sg75
Nsbsg76
Nsbasg77
g54
sg78
Nsg79
I0
sg80
g81
sbsS'formkeypress'
p106
(i__main__
DelphiMethodDeclaration
p107
(dp108
g53
S'FormKeyPress'
p109
sg61
(lp110
(i__main__
DelphiFormalParameter
p111
(dp112
g65
Nsg66
(lp113
S'Sender'
p114
asg69
(i__main__
DelphiNamedType
p115
(dp116
g72
S'TObject'
p117
sg74
g1
sg75
Nsbsg76
Nsba(i__main__
DelphiFormalParameter
p118
(dp119
g65
Nsg66
(lp120
S'Key'
p121
asg69
(i__main__
DelphiPrimitiveType
p122
(dp123
g72
S'char'
p124
sbsg76
S'var'
p125
sbasg77
g54
sg78
Nsg79
I0
sg80
g81
sbsS'readlicenseclick'
p126
(i__main__
DelphiMethodDeclaration
p127
(dp128
g53
S'readLicenseClick'
p129
sg61
(lp130
(i__main__
DelphiFormalParameter
p131
(dp132
g65
Nsg66
(lp133
S'Sender'
p134
asg69
(i__main__
DelphiNamedType
p135
(dp136
g72
S'TObject'
p137
sg74
g1
sg75
Nsbsg76
Nsbasg77
g54
sg78
Nsg79
I0
sg80
g81
sbsS'moreinfoclick'
p138
(i__main__
DelphiMethodDeclaration
p139
(dp140
g53
S'moreInfoClick'
p141
sg61
(lp142
(i__main__
DelphiFormalParameter
p143
(dp144
g65
Nsg66
(lp145
S'Sender'
p146
asg69
(i__main__
DelphiNamedType
p147
(dp148
g72
S'TObject'
p149
sg74
g1
sg75
Nsbsg76
Nsbasg77
g54
sg78
Nsg79
I0
sg80
g81
sbsS'formclosequery'
p150
(i__main__
DelphiMethodDeclaration
p151
(dp152
g53
S'FormCloseQuery'
p153
sg61
(lp154
(i__main__
DelphiFormalParameter
p155
(dp156
g65
Nsg66
(lp157
S'Sender'
p158
asg69
(i__main__
DelphiNamedType
p159
(dp160
g72
S'TObject'
p161
sg74
g1
sg75
Nsbsg76
Nsba(i__main__
DelphiFormalParameter
p162
(dp163
g65
Nsg66
(lp164
S'CanClose'
p165
asg69
(i__main__
DelphiPrimitiveType
p166
(dp167
g72
S'boolean'
p168
sbsg76
g125
sbasg77
g54
sg78
Nsg79
I0
sg80
g81
sbsS'openbrowserclick'
p169
(i__main__
DelphiMethodDeclaration
p170
(dp171
g53
S'openBrowserClick'
p172
sg61
(lp173
(i__main__
DelphiFormalParameter
p174
(dp175
g65
Nsg66
(lp176
S'Sender'
p177
asg69
(i__main__
DelphiNamedType
p178
(dp179
g72
S'TObject'
p180
sg74
g1
sg75
Nsbsg76
Nsbasg77
g54
sg78
Nsg79
I0
sg80
g81
sbsS'formcreate'
p181
(i__main__
DelphiMethodDeclaration
p182
(dp183
g53
S'FormCreate'
p184
sg61
(lp185
(i__main__
DelphiFormalParameter
p186
(dp187
g65
Nsg66
(lp188
S'Sender'
p189
asg69
(i__main__
DelphiNamedType
p190
(dp191
g72
S'TObject'
p192
sg74
g1
sg75
Nsbsg76
Nsbasg77
g54
sg78
Nsg79
I0
sg80
g81
sbsS'closeclick'
p193
(i__main__
DelphiMethodDeclaration
p194
(dp195
g53
S'closeClick'
p196
sg61
(lp197
(i__main__
DelphiFormalParameter
p198
(dp199
g65
Nsg66
(lp200
S'Sender'
p201
asg69
(i__main__
DelphiNamedType
p202
(dp203
g72
S'TObject'
p204
sg74
g1
sg75
Nsbsg76
Nsbasg77
g54
sg78
Nsg79
I0
sg80
g81
sbssS'superclassNamedTypes'
p205
(lp206
(i__main__
DelphiNamedType
p207
(dp208
g72
S'PdForm'
p209
sg74
g1
sg75
NsbasS'variableNames'
p210
(dp211
S'readlicense'
p212
(i__main__
DelphiNamedType
p213
(dp214
g72
S'TButton'
p215
sg74
g1
sg75
NsbsS'registrationcodeedit'
p216
(i__main__
DelphiNamedType
p217
(dp218
g72
S'TEdit'
p219
sg74
g1
sg75
NsbsS'close'
p220
(i__main__
DelphiNamedType
p221
(dp222
g72
S'TButton'
p223
sg74
g1
sg75
NsbsS'openbrowser'
p224
(i__main__
DelphiNamedType
p225
(dp226
g72
S'TButton'
p227
sg74
g1
sg75
NsbsS'label11'
p228
(i__main__
DelphiNamedType
p229
(dp230
g72
S'TLabel'
p231
sg74
g1
sg75
NsbsS'opened'
p232
(i__main__
DelphiPrimitiveType
p233
(dp234
g72
g168
sbsS'printbutton'
p235
(i__main__
DelphiNamedType
p236
(dp237
g72
S'TButton'
p238
sg74
g1
sg75
NsbsS'panel1'
p239
(i__main__
DelphiNamedType
p240
(dp241
g72
S'TPanel'
p242
sg74
g1
sg75
NsbsS'orderpageedit'
p243
(i__main__
DelphiNamedType
p244
(dp245
g72
S'TEdit'
p246
sg74
g1
sg75
NsbsS'label1'
p247
(i__main__
DelphiNamedType
p248
(dp249
g72
S'TLabel'
p250
sg74
g1
sg75
NsbsS'label2'
p251
(i__main__
DelphiNamedType
p252
(dp253
g72
S'TLabel'
p254
sg74
g1
sg75
NsbsS'label3'
p255
(i__main__
DelphiNamedType
p256
(dp257
g72
S'TLabel'
p258
sg74
g1
sg75
NsbsS'label4'
p259
(i__main__
DelphiNamedType
p260
(dp261
g72
S'TLabel'
p262
sg74
g1
sg75
NsbsS'label5'
p263
(i__main__
DelphiNamedType
p264
(dp265
g72
S'TLabel'
p266
sg74
g1
sg75
NsbsS'label6'
p267
(i__main__
DelphiNamedType
p268
(dp269
g72
S'TLabel'
p270
sg74
g1
sg75
NsbsS'thankyou'
p271
(i__main__
DelphiNamedType
p272
(dp273
g72
S'TRichEdit'
p274
sg74
g1
sg75
NsbsS'moreinfo'
p275
(i__main__
DelphiNamedType
p276
(dp277
g72
S'TButton'
p278
sg74
g1
sg75
NsbsS'registerme'
p279
(i__main__
DelphiNamedType
p280
(dp281
g72
S'TButton'
p282
sg74
g1
sg75
NsbsS'unsuccessfulregistrationtries'
p283
(i__main__
DelphiPrimitiveType
p284
(dp285
g72
S'smallint'
p286
sbsS'printeddetails'
p287
(i__main__
DelphiPrimitiveType
p288
(dp289
g72
g168
sbsS'registrationnameedit'
p290
(i__main__
DelphiNamedType
p291
(dp292
g72
S'TEdit'
p293
sg74
g1
sg75
NsbsS'printdialog'
p294
(i__main__
DelphiNamedType
p295
(dp296
g72
S'TPrintDialog'
p297
sg74
g1
sg75
NsbssS'methodNamesInDefinedOrder'
p298
(lp299
S'formcreate'
p300
aS'formactivate'
p301
aS'openbrowserclick'
p302
aS'registermeclick'
p303
aS'formclosequery'
p304
aS'closeclick'
p305
aS'printbuttonclick'
p306
aS'moreinfoclick'
p307
aS'readlicenseclick'
p308
aS'formkeypress'
p309
asS'methodImplementations'
p310
(dp311
S'registermeclick'
p312
(i__main__
DelphiMethodImplementation
p313
(dp314
S'originalDeclaration'
p315
g58
sg53
g60
sg61
(lp316
(i__main__
DelphiFormalParameter
p317
(dp318
g65
Nsg66
(lp319
S'Sender'
p320
asg69
(i__main__
DelphiNamedType
p321
(dp322
g72
S'TObject'
p323
sg74
g1
sg75
Nsbsg76
NsbasS'varParamIndexes'
p324
(lp325
sS'varParamsSkipped'
p326
(lp327
sS'argNames'
p328
(lp329
S'self'
p330
ag320
asS'argTypes'
p331
(dp332
g320
g321
ssg77
S'TRegistrationForm'
p333
sg78
NsS'varParamNames'
p334
(lp335
sg79
I0
sg80
g81
sS'block'
p336
(i__main__
DelphiBlock
p337
(dp338
S'compoundStatement'
p339
(idelphi
DelphiCompoundStatement
p340
(dp341
S'statements'
p342
(lp343
(i__main__
DelphiAssignStatement
p344
(dp345
S'newValueExpression'
p346
(i__main__
DelphiIdentAccess
p347
(dp348
S'ident'
p349
S'RegistrationMatch'
p350
sS'endAccessList'
p351
(lp352
(idelphi
DelphiFunctionEndAccess
p353
(dp354
S'expressionList'
p355
(lp356
(i__main__
DelphiIdentAccess
p357
(dp358
g349
S'registrationNameEdit'
p359
sg351
(lp360
(idelphi
DelphiFieldEndAccess
p361
(dp362
S'field'
p363
S'text'
p364
sbasba(i__main__
DelphiIdentAccess
p365
(dp366
g349
S'registrationCodeEdit'
p367
sg351
(lp368
(idelphi
DelphiFieldEndAccess
p369
(dp370
g363
S'text'
p371
sbasbasbasbsS'destinationExpression'
p372
(i__main__
DelphiIdentAccess
p373
(dp374
g349
S'correct'
p375
sg351
(lp376
sbsba(idelphi
DelphiIfStatement
p377
(dp378
S'expression'
p379
(i__main__
DelphiIdentAccess
p380
(dp381
g349
S'correct'
p382
sg351
(lp383
sbsS'ifFalseStatement'
p384
(idelphi
DelphiCompoundStatement
p385
(dp386
g342
(lp387
(idelphi
DelphiIfStatement
p388
(dp389
g379
(idelphi
DelphiRelOp
p390
(dp391
S'simpleExpression1'
p392
(i__main__
DelphiIdentAccess
p393
(dp394
g349
S'unsuccessfulRegistrationTries'
p395
sg351
(lp396
sbsS'simpleExpression2'
p397
(i__main__
DelphiIdentAccess
p398
(dp399
g349
S'kMaxUnsuccessfulTries'
p400
sg351
(lp401
sbsS'relOp'
p402
S'>='
p403
sbsg384
(i__main__
DelphiAssignStatement
p404
(dp405
g346
Nsg372
(i__main__
DelphiIdentAccess
p406
(dp407
g349
S'MessageDlg'
p408
sg351
(lp409
(idelphi
DelphiFunctionEndAccess
p410
(dp411
g355
(lp412
(idelphi
DelphiAddOp
p413
(dp414
S'addOp'
p415
S'+'
sS'term2'
p416
(idelphi
DelphiStringAccess
p417
(dp418
g351
(lp419
sS'string'
p420
(idelphi
DelphiStringValue
p421
(dp422
g420
S'and you still get this message, contact us.'
p423
sbsbsS'term1'
p424
(idelphi
DelphiAddOp
p425
(dp426
g415
S'+'
sg416
(i__main__
DelphiIdentAccess
p427
(dp428
g349
S'chr'
p429
sg351
(lp430
(idelphi
DelphiFunctionEndAccess
p431
(dp432
g355
(lp433
(idelphi
DelphiIntegerValue
p434
(dp435
g420
S'13'
p436
sbasbasbsg424
(idelphi
DelphiAddOp
p437
(dp438
g415
S'+'
sg416
(idelphi
DelphiStringAccess
p439
(dp440
g351
(lp441
sg420
(idelphi
DelphiStringValue
p442
(dp443
g420
S'If you are sure they are correct'
p444
sbsbsg424
(idelphi
DelphiAddOp
p445
(dp446
g415
S'+'
sg416
(i__main__
DelphiIdentAccess
p447
(dp448
g349
S'chr'
p449
sg351
(lp450
(idelphi
DelphiFunctionEndAccess
p451
(dp452
g355
(lp453
(idelphi
DelphiIntegerValue
p454
(dp455
g420
S'13'
p456
sbasbasbsg424
(idelphi
DelphiAddOp
p457
(dp458
g415
S'+'
sg416
(i__main__
DelphiIdentAccess
p459
(dp460
g349
S'chr'
p461
sg351
(lp462
(idelphi
DelphiFunctionEndAccess
p463
(dp464
g355
(lp465
(idelphi
DelphiIntegerValue
p466
(dp467
g420
S'13'
p468
sbasbasbsg424
(idelphi
DelphiAddOp
p469
(dp470
g415
S'+'
sg416
(idelphi
DelphiStringAccess
p471
(dp472
g351
(lp473
sg420
(idelphi
DelphiStringValue
p474
(dp475
g420
S'Please retype them and try again.'
p476
sbsbsg424
(idelphi
DelphiAddOp
p477
(dp478
g415
S'+'
sg416
(i__main__
DelphiIdentAccess
p479
(dp480
g349
S'chr'
p481
sg351
(lp482
(idelphi
DelphiFunctionEndAccess
p483
(dp484
g355
(lp485
(idelphi
DelphiIntegerValue
p486
(dp487
g420
S'13'
p488
sbasbasbsg424
(idelphi
DelphiStringAccess
p489
(dp490
g351
(lp491
sg420
(idelphi
DelphiStringValue
p492
(dp493
g420
S'The registration name and code you entered are incorrect.'
p494
sbsbsbsbsbsbsbsbsba(i__main__
DelphiIdentAccess
p495
(dp496
g349
S'mtError'
p497
sg351
(lp498
sba(idelphi
DelphiSetConstructor
p499
(dp500
S'setElementList'
p501
(lp502
(i__main__
DelphiIdentAccess
p503
(dp504
g349
S'mbOK'
p505
sg351
(lp506
sbasba(idelphi
DelphiIntegerValue
p507
(dp508
g420
S'0'
sbasbasbsbsS'ifTrueStatement'
p509
(idelphi
DelphiCompoundStatement
p510
(dp511
g342
(lp512
(i__main__
DelphiAssignStatement
p513
(dp514
g346
Nsg372
(i__main__
DelphiIdentAccess
p515
(dp516
g349
S'MessageDlg'
p517
sg351
(lp518
(idelphi
DelphiFunctionEndAccess
p519
(dp520
g355
(lp521
(idelphi
DelphiAddOp
p522
(dp523
g415
S'+'
sg416
(idelphi
DelphiStringAccess
p524
(dp525
g351
(lp526
sg420
(idelphi
DelphiStringValue
p527
(dp528
g420
S'If you are sure your information is correct, contact us for help.'
p529
sbsbsg424
(idelphi
DelphiAddOp
p530
(dp531
g415
S'+'
sg416
(i__main__
DelphiIdentAccess
p532
(dp533
g349
S'chr'
p534
sg351
(lp535
(idelphi
DelphiFunctionEndAccess
p536
(dp537
g355
(lp538
(idelphi
DelphiIntegerValue
p539
(dp540
g420
S'13'
p541
sbasbasbsg424
(idelphi
DelphiAddOp
p542
(dp543
g415
S'+'
sg416
(i__main__
DelphiIdentAccess
p544
(dp545
g349
S'chr'
p546
sg351
(lp547
(idelphi
DelphiFunctionEndAccess
p548
(dp549
g355
(lp550
(idelphi
DelphiIntegerValue
p551
(dp552
g420
S'13'
p553
sbasbasbsg424
(idelphi
DelphiAddOp
p554
(dp555
g415
S'+'
sg416
(idelphi
DelphiStringAccess
p556
(dp557
g351
(lp558
sg420
(idelphi
DelphiStringValue
p559
(dp560
g420
S'Please restart the program and try again.'
p561
sbsbsg424
(idelphi
DelphiAddOp
p562
(dp563
g415
S'+'
sg416
(i__main__
DelphiIdentAccess
p564
(dp565
g349
S'chr'
p566
sg351
(lp567
(idelphi
DelphiFunctionEndAccess
p568
(dp569
g355
(lp570
(idelphi
DelphiIntegerValue
p571
(dp572
g420
S'13'
p573
sbasbasbsg424
(idelphi
DelphiAddOp
p574
(dp575
g415
S'+'
sg416
(idelphi
DelphiStringAccess
p576
(dp577
g351
(lp578
sg420
(idelphi
DelphiStringValue
p579
(dp580
g420
S'The program will now close.'
p581
sbsbsg424
(idelphi
DelphiAddOp
p582
(dp583
g415
S'+'
sg416
(i__main__
DelphiIdentAccess
p584
(dp585
g349
S'chr'
p586
sg351
(lp587
(idelphi
DelphiFunctionEndAccess
p588
(dp589
g355
(lp590
(idelphi
DelphiIntegerValue
p591
(dp592
g420
S'13'
p593
sbasbasbsg424
(idelphi
DelphiAddOp
p594
(dp595
g415
S'+'
sg416
(i__main__
DelphiIdentAccess
p596
(dp597
g349
S'chr'
p598
sg351
(lp599
(idelphi
DelphiFunctionEndAccess
p600
(dp601
g355
(lp602
(idelphi
DelphiIntegerValue
p603
(dp604
g420
S'13'
p605
sbasbasbsg424
(idelphi
DelphiAddOp
p606
(dp607
g415
S'+'
sg416
(idelphi
DelphiStringAccess
p608
(dp609
g351
(lp610
sg420
(idelphi
DelphiStringValue
p611
(dp612
g420
S' times during this session.'
p613
sbsbsg424
(idelphi
DelphiAddOp
p614
(dp615
g415
S'+'
sg416
(i__main__
DelphiIdentAccess
p616
(dp617
g349
S'intToStr'
p618
sg351
(lp619
(idelphi
DelphiFunctionEndAccess
p620
(dp621
g355
(lp622
(i__main__
DelphiIdentAccess
p623
(dp624
g349
S'kMaxUnsuccessfulTries'
p625
sg351
(lp626
sbasbasbsg424
(idelphi
DelphiAddOp
p627
(dp628
g415
S'+'
sg416
(idelphi
DelphiStringAccess
p629
(dp630
g351
(lp631
sg420
(idelphi
DelphiStringValue
p632
(dp633
g420
S'You have attempted to register '
p634
sbsbsg424
(idelphi
DelphiAddOp
p635
(dp636
g415
S'+'
sg416
(i__main__
DelphiIdentAccess
p637
(dp638
g349
S'chr'
p639
sg351
(lp640
(idelphi
DelphiFunctionEndAccess
p641
(dp642
g355
(lp643
(idelphi
DelphiIntegerValue
p644
(dp645
g420
S'13'
p646
sbasbasbsg424
(idelphi
DelphiStringAccess
p647
(dp648
g351
(lp649
sg420
(idelphi
DelphiStringValue
p650
(dp651
g420
S'The registration name and code you entered are incorrect.'
p652
sbsbsbsbsbsbsbsbsbsbsbsbsbsba(i__main__
DelphiIdentAccess
p653
(dp654
g349
S'mtError'
p655
sg351
(lp656
sba(idelphi
DelphiSetConstructor
p657
(dp658
g501
(lp659
(i__main__
DelphiIdentAccess
p660
(dp661
g349
S'mbOK'
p662
sg351
(lp663
sbasba(idelphi
DelphiIntegerValue
p664
(dp665
g420
S'0'
sbasbasbsba(i__main__
DelphiAssignStatement
p666
(dp667
g346
Nsg372
(i__main__
DelphiIdentAccess
p668
(dp669
g349
S'Application'
p670
sg351
(lp671
(idelphi
DelphiFieldEndAccess
p672
(dp673
g363
S'Terminate'
p674
sbasbsbasbsba(i__main__
DelphiIncOrDecStatement
p675
(dp676
S'incOrDecString'
p677
S'inc'
p678
sS'incrementExpression'
p679
Nsg372
(i__main__
DelphiIdentAccess
p680
(dp681
g349
S'unsuccessfulRegistrationTries'
p682
sg351
(lp683
sbsbasbsg509
(idelphi
DelphiCompoundStatement
p684
(dp685
g342
(lp686
(i__main__
DelphiAssignStatement
p687
(dp688
g346
Nsg372
(i__main__
DelphiIdentAccess
p689
(dp690
g349
S'registerMe'
p691
sg351
(lp692
(idelphi
DelphiFieldEndAccess
p693
(dp694
g363
S'hide'
p695
sbasbsba(i__main__
DelphiAssignStatement
p696
(dp697
g346
Nsg372
(i__main__
DelphiIdentAccess
p698
(dp699
g349
S'thankYou'
p700
sg351
(lp701
(idelphi
DelphiFieldEndAccess
p702
(dp703
g363
S'clear'
p704
sbasbsba(i__main__
DelphiAssignStatement
p705
(dp706
g346
(idelphi
DelphiAddOp
p707
(dp708
g415
S'+'
sg416
(i__main__
DelphiIdentAccess
p709
(dp710
g349
S'chr'
p711
sg351
(lp712
(idelphi
DelphiFunctionEndAccess
p713
(dp714
g355
(lp715
(idelphi
DelphiIntegerValue
p716
(dp717
g420
S'10'
p718
sbasbasbsg424
(i__main__
DelphiIdentAccess
p719
(dp720
g349
S'chr'
p721
sg351
(lp722
(idelphi
DelphiFunctionEndAccess
p723
(dp724
g355
(lp725
(idelphi
DelphiIntegerValue
p726
(dp727
g420
S'13'
p728
sbasbasbsbsg372
(i__main__
DelphiIdentAccess
p729
(dp730
g349
S'cr'
p731
sg351
(lp732
sbsba(i__main__
DelphiAssignStatement
p733
(dp734
g346
(idelphi
DelphiAddOp
p735
(dp736
g415
S'+'
sg416
(idelphi
DelphiStringAccess
p737
(dp738
g351
(lp739
sg420
(idelphi
DelphiStringValue
p740
(dp741
g420
S'-------------------------------------------'
p742
sbsbsg424
(idelphi
DelphiAddOp
p743
(dp744
g415
S'+'
sg416
(i__main__
DelphiIdentAccess
p745
(dp746
g349
S'cr'
p747
sg351
(lp748
sbsg424
(idelphi
DelphiAddOp
p749
(dp750
g415
S'+'
sg416
(idelphi
DelphiStringAccess
p751
(dp752
g351
(lp753
sg420
(idelphi
DelphiStringValue
p754
(dp755
g420
S'http://www.kurtz-fernhout.com'
p756
sbsbsg424
(idelphi
DelphiAddOp
p757
(dp758
g415
S'+'
sg416
(i__main__
DelphiIdentAccess
p759
(dp760
g349
S'cr'
p761
sg351
(lp762
sbsg424
(idelphi
DelphiAddOp
p763
(dp764
g415
S'+'
sg416
(idelphi
DelphiStringAccess
p765
(dp766
g351
(lp767
sg420
(idelphi
DelphiStringValue
p768
(dp769
g420
S'Kurtz-Fernhout Software'
p770
sbsbsg424
(idelphi
DelphiAddOp
p771
(dp772
g415
S'+'
sg416
(i__main__
DelphiIdentAccess
p773
(dp774
g349
S'cr'
p775
sg351
(lp776
sbsg424
(idelphi
DelphiAddOp
p777
(dp778
g415
S'+'
sg416
(idelphi
DelphiStringAccess
p779
(dp780
g351
(lp781
sg420
(idelphi
DelphiStringValue
p782
(dp783
g420
S'--- Cynthia Kurtz and Paul Fernhout'
p784
sbsbsg424
(idelphi
DelphiAddOp
p785
(dp786
g415
S'+'
sg416
(i__main__
DelphiIdentAccess
p787
(dp788
g349
S'cr'
p789
sg351
(lp790
sbsg424
(idelphi
DelphiAddOp
p791
(dp792
g415
S'+'
sg416
(i__main__
DelphiIdentAccess
p793
(dp794
g349
S'cr'
p795
sg351
(lp796
sbsg424
(idelphi
DelphiAddOp
p797
(dp798
g415
S'+'
sg416
(idelphi
DelphiStringAccess
p799
(dp800
g351
(lp801
sg420
(idelphi
DelphiStringValue
p802
(dp803
g420
S'Be sure to visit our web site to read the latest news about PlantStudio and to see the PlantStudio plant exchange and gallery. Thank you for your business!'
p804
sbsbsg424
(idelphi
DelphiAddOp
p805
(dp806
g415
S'+'
sg416
(i__main__
DelphiIdentAccess
p807
(dp808
g349
S'cr'
p809
sg351
(lp810
sbsg424
(idelphi
DelphiAddOp
p811
(dp812
g415
S'+'
sg416
(i__main__
DelphiIdentAccess
p813
(dp814
g349
S'cr'
p815
sg351
(lp816
sbsg424
(idelphi
DelphiAddOp
p817
(dp818
g415
S'+'
sg416
(idelphi
DelphiStringAccess
p819
(dp820
g351
(lp821
sg420
(idelphi
DelphiStringValue
p822
(dp823
g420
S'(You should click Print now to print this message.)'
p824
sbsbsg424
(idelphi
DelphiAddOp
p825
(dp826
g415
S'+'
sg416
(i__main__
DelphiIdentAccess
p827
(dp828
g349
S'cr'
p829
sg351
(lp830
sbsg424
(idelphi
DelphiAddOp
p831
(dp832
g415
S'+'
sg416
(i__main__
DelphiIdentAccess
p833
(dp834
g349
S'cr'
p835
sg351
(lp836
sbsg424
(idelphi
DelphiAddOp
p837
(dp838
g415
S'+'
sg416
(idelphi
DelphiStringAccess
p839
(dp840
g351
(lp841
sg420
(idelphi
DelphiStringValue
p842
(dp843
g420
S'We will save encoded registration information in your settings file in your Windows directory. You should keep a copy of your name and code in a safe place in case you need to reinstall PlantStudio.'
p844
sbsbsg424
(idelphi
DelphiAddOp
p845
(dp846
g415
S'+'
sg416
(i__main__
DelphiIdentAccess
p847
(dp848
g349
S'cr'
p849
sg351
(lp850
sbsg424
(idelphi
DelphiAddOp
p851
(dp852
g415
S'+'
sg416
(i__main__
DelphiIdentAccess
p853
(dp854
g349
S'cr'
p855
sg351
(lp856
sbsg424
(idelphi
DelphiAddOp
p857
(dp858
g415
S'+'
sg416
(idelphi
DelphiStringAccess
p859
(dp860
g351
(lp861
sg420
(idelphi
DelphiStringValue
p862
(dp863
g420
S'You now own a fully registered copy of PlantStudio version 2.x.'
p864
sbsbsg424
(idelphi
DelphiAddOp
p865
(dp866
g415
S'+'
sg416
(i__main__
DelphiIdentAccess
p867
(dp868
g349
S'cr'
p869
sg351
(lp870
sbsg424
(idelphi
DelphiAddOp
p871
(dp872
g415
S'+'
sg416
(idelphi
DelphiStringAccess
p873
(dp874
g351
(lp875
sg420
(idelphi
DelphiStringValue
p876
(dp877
g420
S'Welcome to the PlantStudio community!'
p878
sbsbsg424
(idelphi
DelphiAddOp
p879
(dp880
g415
S'+'
sg416
(i__main__
DelphiIdentAccess
p881
(dp882
g349
S'cr'
p883
sg351
(lp884
sbsg424
(idelphi
DelphiAddOp
p885
(dp886
g415
S'+'
sg416
(i__main__
DelphiIdentAccess
p887
(dp888
g349
S'cr'
p889
sg351
(lp890
sbsg424
(idelphi
DelphiAddOp
p891
(dp892
g415
S'+'
sg416
(i__main__
DelphiIdentAccess
p893
(dp894
g349
S'registrationCodeEdit'
p895
sg351
(lp896
(idelphi
DelphiFieldEndAccess
p897
(dp898
g363
S'text'
p899
sbasbsg424
(idelphi
DelphiAddOp
p900
(dp901
g415
S'+'
sg416
(idelphi
DelphiStringAccess
p902
(dp903
g351
(lp904
sg420
(idelphi
DelphiStringValue
p905
(dp906
g420
S'Registration code:  '
p907
sbsbsg424
(idelphi
DelphiAddOp
p908
(dp909
g415
S'+'
sg416
(i__main__
DelphiIdentAccess
p910
(dp911
g349
S'cr'
p912
sg351
(lp913
sbsg424
(idelphi
DelphiAddOp
p914
(dp915
g415
S'+'
sg416
(i__main__
DelphiIdentAccess
p916
(dp917
g349
S'registrationNameEdit'
p918
sg351
(lp919
(idelphi
DelphiFieldEndAccess
p920
(dp921
g363
S'text'
p922
sbasbsg424
(idelphi
DelphiAddOp
p923
(dp924
g415
S'+'
sg416
(idelphi
DelphiStringAccess
p925
(dp926
g351
(lp927
sg420
(idelphi
DelphiStringValue
p928
(dp929
g420
S'Registration name:  '
p930
sbsbsg424
(idelphi
DelphiAddOp
p931
(dp932
g415
S'+'
sg416
(i__main__
DelphiIdentAccess
p933
(dp934
g349
S'cr'
p935
sg351
(lp936
sbsg424
(idelphi
DelphiAddOp
p937
(dp938
g415
S'+'
sg416
(idelphi
DelphiStringAccess
p939
(dp940
g351
(lp941
sg420
(idelphi
DelphiStringValue
p942
(dp943
g420
S'-------------------------------------------'
p944
sbsbsg424
(idelphi
DelphiAddOp
p945
(dp946
g415
S'+'
sg416
(i__main__
DelphiIdentAccess
p947
(dp948
g349
S'cr'
p949
sg351
(lp950
sbsg424
(idelphi
DelphiStringAccess
p951
(dp952
g351
(lp953
sg420
(idelphi
DelphiStringValue
p954
(dp955
g420
S'PlantStudio version 2.x Registration Details'
p956
sbsbsbsbsbsbsbsbsbsbsbsbsbsbsbsbsbsbsbsbsbsbsbsbsbsbsbsbsbsbsbsbsbsg372
(i__main__
DelphiIdentAccess
p957
(dp958
g349
S'thankYou'
p959
sg351
(lp960
(idelphi
DelphiFieldEndAccess
p961
(dp962
g363
S'text'
p963
sbasbsba(i__main__
DelphiAssignStatement
p964
(dp965
g346
(idelphi
DelphiIntegerValue
p966
(dp967
g420
S'4'
sbsg372
(i__main__
DelphiIdentAccess
p968
(dp969
g349
S'thankYou'
p970
sg351
(lp971
(idelphi
DelphiFieldEndAccess
p972
(dp973
g363
S'left'
p974
sbasbsba(i__main__
DelphiAssignStatement
p975
(dp976
g346
(idelphi
DelphiIntegerValue
p977
(dp978
g420
S'4'
sbsg372
(i__main__
DelphiIdentAccess
p979
(dp980
g349
S'thankYou'
p981
sg351
(lp982
(idelphi
DelphiFieldEndAccess
p983
(dp984
g363
S'top'
p985
sbasbsba(i__main__
DelphiAssignStatement
p986
(dp987
g346
Nsg372
(i__main__
DelphiIdentAccess
p988
(dp989
g349
S'thankYou'
p990
sg351
(lp991
(idelphi
DelphiFieldEndAccess
p992
(dp993
g363
S'show'
p994
sbasbsba(i__main__
DelphiAssignStatement
p995
(dp996
g346
Nsg372
(i__main__
DelphiIdentAccess
p997
(dp998
g349
S'thankYou'
p999
sg351
(lp1000
(idelphi
DelphiFieldEndAccess
p1001
(dp1002
g363
S'bringToFront'
p1003
sbasbsba(i__main__
DelphiAssignStatement
p1004
(dp1005
g346
(i__main__
DelphiIdentAccess
p1006
(dp1007
g349
S'registrationNameEdit'
p1008
sg351
(lp1009
(idelphi
DelphiFieldEndAccess
p1010
(dp1011
g363
S'text'
p1012
sbasbsg372
(i__main__
DelphiIdentAccess
p1013
(dp1014
g349
S'domain'
p1015
sg351
(lp1016
(idelphi
DelphiFieldEndAccess
p1017
(dp1018
g363
S'registrationName'
p1019
sbasbsba(i__main__
DelphiAssignStatement
p1020
(dp1021
g346
(i__main__
DelphiIdentAccess
p1022
(dp1023
g349
S'registrationCodeEdit'
p1024
sg351
(lp1025
(idelphi
DelphiFieldEndAccess
p1026
(dp1027
g363
S'text'
p1028
sbasbsg372
(i__main__
DelphiIdentAccess
p1029
(dp1030
g349
S'domain'
p1031
sg351
(lp1032
(idelphi
DelphiFieldEndAccess
p1033
(dp1034
g363
S'registrationCode'
p1035
sbasbsba(i__main__
DelphiAssignStatement
p1036
(dp1037
g346
(i__main__
DelphiIdentAccess
p1038
(dp1039
g349
S'true'
p1040
sg351
(lp1041
sbsg372
(i__main__
DelphiIdentAccess
p1042
(dp1043
g349
S'domain'
p1044
sg351
(lp1045
(idelphi
DelphiFieldEndAccess
p1046
(dp1047
g363
S'registered'
p1048
sbasbsba(i__main__
DelphiAssignStatement
p1049
(dp1050
g346
(i__main__
DelphiIdentAccess
p1051
(dp1052
g349
S'true'
p1053
sg351
(lp1054
sbsg372
(i__main__
DelphiIdentAccess
p1055
(dp1056
g349
S'domain'
p1057
sg351
(lp1058
(idelphi
DelphiFieldEndAccess
p1059
(dp1060
g363
S'justRegistered'
p1061
sbasbsba(i__main__
DelphiAssignStatement
p1062
(dp1063
g346
(i__main__
DelphiIdentAccess
p1064
(dp1065
g349
S'true'
p1066
sg351
(lp1067
sbsg372
(i__main__
DelphiIdentAccess
p1068
(dp1069
g349
S'PrintButton'
p1070
sg351
(lp1071
(idelphi
DelphiFieldEndAccess
p1072
(dp1073
g363
S'visible'
p1074
sbasbsbasbsbasbsS'limitedDeclSectionList'
p1075
(lp1076
(i__main__
DelphiVarSection
p1077
(dp1078
S'atTopLevel'
p1079
I0
sS'varDeclList'
p1080
(lp1081
(idelphi
DelphiVarDecl
p1082
(dp1083
S'constExpression'
p1084
NsS'identList'
p1085
(lp1086
S'cr'
p1087
asg69
(i__main__
DelphiPrimitiveType
p1088
(dp1089
g72
g420
sbsba(idelphi
DelphiVarDecl
p1090
(dp1091
g1084
Nsg1085
(lp1092
S'correct'
p1093
asg69
(i__main__
DelphiPrimitiveType
p1094
(dp1095
g72
g168
sbsbasbasbsbsS'formactivate'
p1096
(i__main__
DelphiMethodImplementation
p1097
(dp1098
g315
g83
sg53
g85
sg61
(lp1099
(i__main__
DelphiFormalParameter
p1100
(dp1101
g65
Nsg66
(lp1102
S'Sender'
p1103
asg69
(i__main__
DelphiNamedType
p1104
(dp1105
g72
S'TObject'
p1106
sg74
g1
sg75
Nsbsg76
Nsbasg324
(lp1107
sg326
(lp1108
sg328
(lp1109
g330
ag1103
asg331
(dp1110
g1103
g1104
ssg77
S'TRegistrationForm'
p1111
sg78
Nsg334
(lp1112
sg79
I0
sg80
g81
sg336
(i__main__
DelphiBlock
p1113
(dp1114
g339
(idelphi
DelphiCompoundStatement
p1115
(dp1116
g342
(lp1117
(i__main__
DelphiAssignStatement
p1118
(dp1119
g346
(i__main__
DelphiIdentAccess
p1120
(dp1121
g349
S'true'
p1122
sg351
(lp1123
sbsg372
(i__main__
DelphiIdentAccess
p1124
(dp1125
g349
S'opened'
p1126
sg351
(lp1127
sbsbasbsg1075
(lp1128
sbsbsS'printbuttonclick'
p1129
(i__main__
DelphiMethodImplementation
p1130
(dp1131
g315
g95
sg53
g97
sg61
(lp1132
(i__main__
DelphiFormalParameter
p1133
(dp1134
g65
Nsg66
(lp1135
S'Sender'
p1136
asg69
(i__main__
DelphiNamedType
p1137
(dp1138
g72
S'TObject'
p1139
sg74
g1
sg75
Nsbsg76
Nsbasg324
(lp1140
sg326
(lp1141
sg328
(lp1142
g330
ag1136
asg331
(dp1143
g1136
g1137
ssg77
S'TRegistrationForm'
p1144
sg78
Nsg334
(lp1145
sg79
I0
sg80
g81
sg336
(i__main__
DelphiBlock
p1146
(dp1147
g339
(idelphi
DelphiCompoundStatement
p1148
(dp1149
g342
(lp1150
(idelphi
DelphiIfStatement
p1151
(dp1152
g379
(i__main__
DelphiIdentAccess
p1153
(dp1154
g349
S'printDialog'
p1155
sg351
(lp1156
(idelphi
DelphiFieldEndAccess
p1157
(dp1158
g363
S'execute'
p1159
sbasbsg384
Nsg509
(idelphi
DelphiCompoundStatement
p1160
(dp1161
g342
(lp1162
(i__main__
DelphiAssignStatement
p1163
(dp1164
g346
Nsg372
(i__main__
DelphiIdentAccess
p1165
(dp1166
g349
S'thankYou'
p1167
sg351
(lp1168
(idelphi
DelphiFieldEndAccess
p1169
(dp1170
g363
S'print'
p1171
sba(idelphi
DelphiFunctionEndAccess
p1172
(dp1173
g355
(lp1174
(idelphi
DelphiStringAccess
p1175
(dp1176
g351
(lp1177
sg420
(idelphi
DelphiStringValue
p1178
(dp1179
g420
S'PlantStudio version 1.x Registration Details'
p1180
sbsbasbasbsba(i__main__
DelphiAssignStatement
p1181
(dp1182
g346
(i__main__
DelphiIdentAccess
p1183
(dp1184
g349
S'true'
p1185
sg351
(lp1186
sbsg372
(i__main__
DelphiIdentAccess
p1187
(dp1188
g349
S'printedDetails'
p1189
sg351
(lp1190
sbsbasbsbasbsg1075
(lp1191
sbsbsS'formkeypress'
p1192
(i__main__
DelphiMethodImplementation
p1193
(dp1194
g315
g107
sg53
g109
sg61
(lp1195
(i__main__
DelphiFormalParameter
p1196
(dp1197
g65
Nsg66
(lp1198
S'Sender'
p1199
asg69
(i__main__
DelphiNamedType
p1200
(dp1201
g72
S'TObject'
p1202
sg74
g1
sg75
Nsbsg76
Nsba(i__main__
DelphiFormalParameter
p1203
(dp1204
g65
Nsg66
(lp1205
S'Key'
p1206
asg69
(i__main__
DelphiPrimitiveType
p1207
(dp1208
g72
g124
sbsg76
g125
sbasg324
(lp1209
I1
asg326
(lp1210
sg328
(lp1211
g330
ag1199
ag1206
asg331
(dp1212
g1199
g1200
sg1206
g1207
ssg77
S'TRegistrationForm'
p1213
sg78
Nsg334
(lp1214
g1206
asg79
I0
sg80
g81
sg336
(i__main__
DelphiBlock
p1215
(dp1216
g339
(idelphi
DelphiCompoundStatement
p1217
(dp1218
g342
(lp1219
(i__main__
DelphiAssignStatement
p1220
(dp1221
g346
Nsg372
(i__main__
DelphiIdentAccess
p1222
(dp1223
g349
S'makeEnterWorkAsTab'
p1224
sg351
(lp1225
(idelphi
DelphiFunctionEndAccess
p1226
(dp1227
g355
(lp1228
(i__main__
DelphiIdentAccess
p1229
(dp1230
g349
S'self'
p1231
sg351
(lp1232
sba(i__main__
DelphiIdentAccess
p1233
(dp1234
g349
S'activeControl'
p1235
sg351
(lp1236
sba(i__main__
DelphiIdentAccess
p1237
(dp1238
g349
S'key'
p1239
sg351
(lp1240
sbasbasbsbasbsg1075
(lp1241
sbsbsS'readlicenseclick'
p1242
(i__main__
DelphiMethodImplementation
p1243
(dp1244
g315
g127
sg53
g129
sg61
(lp1245
(i__main__
DelphiFormalParameter
p1246
(dp1247
g65
Nsg66
(lp1248
S'Sender'
p1249
asg69
(i__main__
DelphiNamedType
p1250
(dp1251
g72
S'TObject'
p1252
sg74
g1
sg75
Nsbsg76
Nsbasg324
(lp1253
sg326
(lp1254
sg328
(lp1255
g330
ag1249
asg331
(dp1256
g1249
g1250
ssg77
S'TRegistrationForm'
p1257
sg78
Nsg334
(lp1258
sg79
I0
sg80
g81
sg336
(i__main__
DelphiBlock
p1259
(dp1260
g339
(idelphi
DelphiCompoundStatement
p1261
(dp1262
g342
(lp1263
(i__main__
DelphiAssignStatement
p1264
(dp1265
g346
Nsg372
(i__main__
DelphiIdentAccess
p1266
(dp1267
g349
S'application'
p1268
sg351
(lp1269
(idelphi
DelphiFieldEndAccess
p1270
(dp1271
g363
S'helpJump'
p1272
sba(idelphi
DelphiFunctionEndAccess
p1273
(dp1274
g355
(lp1275
(idelphi
DelphiStringAccess
p1276
(dp1277
g351
(lp1278
sg420
(idelphi
DelphiStringValue
p1279
(dp1280
g420
S'License'
p1281
sbsbasbasbsbasbsg1075
(lp1282
sbsbsS'moreinfoclick'
p1283
(i__main__
DelphiMethodImplementation
p1284
(dp1285
g315
g139
sg53
g141
sg61
(lp1286
(i__main__
DelphiFormalParameter
p1287
(dp1288
g65
Nsg66
(lp1289
S'Sender'
p1290
asg69
(i__main__
DelphiNamedType
p1291
(dp1292
g72
S'TObject'
p1293
sg74
g1
sg75
Nsbsg76
Nsbasg324
(lp1294
sg326
(lp1295
sg328
(lp1296
g330
ag1290
asg331
(dp1297
g1290
g1291
ssg77
S'TRegistrationForm'
p1298
sg78
Nsg334
(lp1299
sg79
I0
sg80
g81
sg336
(i__main__
DelphiBlock
p1300
(dp1301
g339
(idelphi
DelphiCompoundStatement
p1302
(dp1303
g342
(lp1304
(i__main__
DelphiAssignStatement
p1305
(dp1306
g346
Nsg372
(i__main__
DelphiIdentAccess
p1307
(dp1308
g349
S'application'
p1309
sg351
(lp1310
(idelphi
DelphiFieldEndAccess
p1311
(dp1312
g363
S'helpJump'
p1313
sba(idelphi
DelphiFunctionEndAccess
p1314
(dp1315
g355
(lp1316
(idelphi
DelphiStringAccess
p1317
(dp1318
g351
(lp1319
sg420
(idelphi
DelphiStringValue
p1320
(dp1321
g420
S'Why_register?'
p1322
sbsbasbasbsbasbsg1075
(lp1323
sbsbsS'formclosequery'
p1324
(i__main__
DelphiMethodImplementation
p1325
(dp1326
g315
g151
sg53
g153
sg61
(lp1327
(i__main__
DelphiFormalParameter
p1328
(dp1329
g65
Nsg66
(lp1330
S'Sender'
p1331
asg69
(i__main__
DelphiNamedType
p1332
(dp1333
g72
S'TObject'
p1334
sg74
g1
sg75
Nsbsg76
Nsba(i__main__
DelphiFormalParameter
p1335
(dp1336
g65
Nsg66
(lp1337
S'CanClose'
p1338
asg69
(i__main__
DelphiPrimitiveType
p1339
(dp1340
g72
g168
sbsg76
g125
sbasg324
(lp1341
I1
asg326
(lp1342
sg328
(lp1343
g330
ag1331
ag1338
asg331
(dp1344
g1338
g1339
sg1331
g1332
ssg77
S'TRegistrationForm'
p1345
sg78
Nsg334
(lp1346
g1338
asg79
I0
sg80
g81
sg336
(i__main__
DelphiBlock
p1347
(dp1348
g339
(idelphi
DelphiCompoundStatement
p1349
(dp1350
g342
(lp1351
(idelphi
DelphiIfStatement
p1352
(dp1353
g379
(idelphi
DelphiNot
p1354
(dp1355
S'factor'
p1356
(i__main__
DelphiIdentAccess
p1357
(dp1358
g349
S'opened'
p1359
sg351
(lp1360
sbsbsg384
Nsg509
(i__main__
DelphiExitStatement
p1361
(dp1362
S'proceduralOrMethodImplementation'
p1363
g1325
sbsba(i__main__
DelphiAssignStatement
p1364
(dp1365
g346
(i__main__
DelphiIdentAccess
p1366
(dp1367
g349
S'false'
p1368
sg351
(lp1369
sbsg372
(i__main__
DelphiIdentAccess
p1370
(dp1371
g349
S'CanClose'
p1372
sg351
(lp1373
sbsba(idelphi
DelphiIfStatement
p1374
(dp1375
g379
(idelphi
DelphiMulOp
p1376
(dp1377
S'signedFactor2'
p1378
(idelphi
DelphiNestedExpressionListAccess
p1379
(dp1380
g351
(lp1381
sg355
(lp1382
(idelphi
DelphiAddOp
p1383
(dp1384
g415
S'or'
p1385
sg416
(idelphi
DelphiNestedExpressionListAccess
p1386
(dp1387
g351
(lp1388
sg355
(lp1389
(idelphi
DelphiRelOp
p1390
(dp1391
g392
(i__main__
DelphiIdentAccess
p1392
(dp1393
g349
S'trim'
p1394
sg351
(lp1395
(idelphi
DelphiFunctionEndAccess
p1396
(dp1397
g355
(lp1398
(i__main__
DelphiIdentAccess
p1399
(dp1400
g349
S'registrationCodeEdit'
p1401
sg351
(lp1402
(idelphi
DelphiFieldEndAccess
p1403
(dp1404
g363
S'text'
p1405
sbasbasbasbsg397
(idelphi
DelphiStringAccess
p1406
(dp1407
g351
(lp1408
sg420
(idelphi
DelphiStringValue
p1409
(dp1410
g420
S''
sbsbsg402
S'<>'
p1411
sbasbsg424
(idelphi
DelphiNestedExpressionListAccess
p1412
(dp1413
g351
(lp1414
sg355
(lp1415
(idelphi
DelphiRelOp
p1416
(dp1417
g392
(i__main__
DelphiIdentAccess
p1418
(dp1419
g349
S'trim'
p1420
sg351
(lp1421
(idelphi
DelphiFunctionEndAccess
p1422
(dp1423
g355
(lp1424
(i__main__
DelphiIdentAccess
p1425
(dp1426
g349
S'registrationNameEdit'
p1427
sg351
(lp1428
(idelphi
DelphiFieldEndAccess
p1429
(dp1430
g363
S'text'
p1431
sbasbasbasbsg397
(idelphi
DelphiStringAccess
p1432
(dp1433
g351
(lp1434
sg420
(idelphi
DelphiStringValue
p1435
(dp1436
g420
S''
sbsbsg402
g1411
sbasbsbasbsS'mulOp'
p1437
S'and'
p1438
sS'signedFactor1'
p1439
(idelphi
DelphiNestedExpressionListAccess
p1440
(dp1441
g351
(lp1442
sg355
(lp1443
(idelphi
DelphiNot
p1444
(dp1445
g1356
(i__main__
DelphiIdentAccess
p1446
(dp1447
g349
S'domain'
p1448
sg351
(lp1449
(idelphi
DelphiFieldEndAccess
p1450
(dp1451
g363
S'registered'
p1452
sbasbsbasbsbsg384
Nsg509
(idelphi
DelphiCompoundStatement
p1453
(dp1454
g342
(lp1455
(i__main__
DelphiAssignStatement
p1456
(dp1457
g346
Nsg372
(i__main__
DelphiIdentAccess
p1458
(dp1459
g349
S'ShowMessage'
p1460
sg351
(lp1461
(idelphi
DelphiFunctionEndAccess
p1462
(dp1463
g355
(lp1464
(idelphi
DelphiAddOp
p1465
(dp1466
g415
S'+'
sg416
(idelphi
DelphiStringAccess
p1467
(dp1468
g351
(lp1469
sg420
(idelphi
DelphiStringValue
p1470
(dp1471
g420
S'You should click "Register Me!" or clear out the registration information.'
p1472
sbsbsg424
(idelphi
DelphiAddOp
p1473
(dp1474
g415
S'+'
sg416
(i__main__
DelphiIdentAccess
p1475
(dp1476
g349
S'chr'
p1477
sg351
(lp1478
(idelphi
DelphiFunctionEndAccess
p1479
(dp1480
g355
(lp1481
(idelphi
DelphiIntegerValue
p1482
(dp1483
g420
S'13'
p1484
sbasbasbsg424
(idelphi
DelphiStringAccess
p1485
(dp1486
g351
(lp1487
sg420
(idelphi
DelphiStringValue
p1488
(dp1489
g420
S"You entered registration information but didn''t finish registering."
p1490
sbsbsbsbasbasbsS'commentLinesBefore'
p1491
(lp1492
S' why do this? because people might put in the info, then click OK without clicking Register Me\r'
p1493
aS' and think they have registered when they have not\r'
p1494
asba(i__main__
DelphiExitStatement
p1495
(dp1496
g1363
g1325
sbasbsba(idelphi
DelphiIfStatement
p1497
(dp1498
g379
(idelphi
DelphiMulOp
p1499
(dp1500
g1378
(idelphi
DelphiNestedExpressionListAccess
p1501
(dp1502
g351
(lp1503
sg355
(lp1504
(idelphi
DelphiNot
p1505
(dp1506
g1356
(i__main__
DelphiIdentAccess
p1507
(dp1508
g349
S'printedDetails'
p1509
sg351
(lp1510
sbsbasbsg1437
g1438
sg1439
(idelphi
DelphiNestedExpressionListAccess
p1511
(dp1512
g351
(lp1513
sg355
(lp1514
(i__main__
DelphiIdentAccess
p1515
(dp1516
g349
S'domain'
p1517
sg351
(lp1518
(idelphi
DelphiFieldEndAccess
p1519
(dp1520
g363
S'registered'
p1521
sbasbasbsbsg384
Nsg509
(idelphi
DelphiCompoundStatement
p1522
(dp1523
g342
(lp1524
(idelphi
DelphiIfStatement
p1525
(dp1526
g379
(idelphi
DelphiRelOp
p1527
(dp1528
g392
(i__main__
DelphiIdentAccess
p1529
(dp1530
g349
S'MessageDlg'
p1531
sg351
(lp1532
(idelphi
DelphiFunctionEndAccess
p1533
(dp1534
g355
(lp1535
(idelphi
DelphiAddOp
p1536
(dp1537
g415
S'+'
sg416
(idelphi
DelphiStringAccess
p1538
(dp1539
g351
(lp1540
sg420
(idelphi
DelphiStringValue
p1541
(dp1542
g420
S'Do you want to leave WITHOUT printing your registration information?'
p1543
sbsbsg424
(idelphi
DelphiAddOp
p1544
(dp1545
g415
S'+'
sg416
(i__main__
DelphiIdentAccess
p1546
(dp1547
g349
S'chr'
p1548
sg351
(lp1549
(idelphi
DelphiFunctionEndAccess
p1550
(dp1551
g355
(lp1552
(idelphi
DelphiIntegerValue
p1553
(dp1554
g420
S'13'
p1555
sbasbasbsg424
(idelphi
DelphiStringAccess
p1556
(dp1557
g351
(lp1558
sg420
(idelphi
DelphiStringValue
p1559
(dp1560
g420
S"You registered but didn''t print the information."
p1561
sbsbsbsba(i__main__
DelphiIdentAccess
p1562
(dp1563
g349
S'mtConfirmation'
p1564
sg351
(lp1565
sba(i__main__
DelphiIdentAccess
p1566
(dp1567
g349
S'mbYesNoCancel'
p1568
sg351
(lp1569
sba(idelphi
DelphiIntegerValue
p1570
(dp1571
g420
S'0'
sbasbasbsg397
(i__main__
DelphiIdentAccess
p1572
(dp1573
g349
S'IDYES'
p1574
sg351
(lp1575
sbsg402
g1411
sbsg384
Nsg509
(i__main__
DelphiExitStatement
p1576
(dp1577
g1363
g1325
sbsbasbsba(i__main__
DelphiAssignStatement
p1578
(dp1579
g346
(i__main__
DelphiIdentAccess
p1580
(dp1581
g349
S'true'
p1582
sg351
(lp1583
sbsg372
(i__main__
DelphiIdentAccess
p1584
(dp1585
g349
S'CanClose'
p1586
sg351
(lp1587
sbsbasbsg1075
(lp1588
sbsbsS'openbrowserclick'
p1589
(i__main__
DelphiMethodImplementation
p1590
(dp1591
g315
g170
sg53
g172
sg61
(lp1592
(i__main__
DelphiFormalParameter
p1593
(dp1594
g65
Nsg66
(lp1595
S'Sender'
p1596
asg69
(i__main__
DelphiNamedType
p1597
(dp1598
g72
S'TObject'
p1599
sg74
g1
sg75
Nsbsg76
Nsbasg324
(lp1600
sg326
(lp1601
sg328
(lp1602
g330
ag1596
asg331
(dp1603
g1596
g1597
ssg77
S'TRegistrationForm'
p1604
sg78
Nsg334
(lp1605
sg79
I0
sg80
g81
sg336
(i__main__
DelphiBlock
p1606
(dp1607
g339
(idelphi
DelphiCompoundStatement
p1608
(dp1609
g342
(lp1610
(i__main__
DelphiAssignStatement
p1611
(dp1612
g346
Nsg372
(i__main__
DelphiIdentAccess
p1613
(dp1614
g349
S'ShellExecute'
p1615
sg351
(lp1616
(idelphi
DelphiFunctionEndAccess
p1617
(dp1618
g355
(lp1619
(i__main__
DelphiIdentAccess
p1620
(dp1621
g349
S'Handle'
p1622
sg351
(lp1623
sba(i__main__
DelphiValueTypecastAccess
p1624
(dp1625
S'valueTypecast'
p1626
(i__main__
DelphiValueTypecast
p1627
(dp1628
g379
(idelphi
DelphiStringAccess
p1629
(dp1630
g351
(lp1631
sg420
(idelphi
DelphiStringValue
p1632
(dp1633
g420
S'open'
p1634
sbsbsS'typeIdentPredefined'
p1635
(i__main__
DelphiPrimitiveType
p1636
(dp1637
g72
S'pchar'
p1638
sbsbsg351
(lp1639
sba(i__main__
DelphiValueTypecastAccess
p1640
(dp1641
g1626
(i__main__
DelphiValueTypecast
p1642
(dp1643
g379
(idelphi
DelphiStringAccess
p1644
(dp1645
g351
(lp1646
sg420
(idelphi
DelphiStringValue
p1647
(dp1648
g420
S'http://www.kurtz-fernhout.com/order.htm'
p1649
sbsbsg1635
(i__main__
DelphiPrimitiveType
p1650
(dp1651
g72
g1638
sbsbsg351
(lp1652
sba(idelphi
DelphiNilValue
p1653
(dp1654
ba(idelphi
DelphiNilValue
p1655
(dp1656
ba(i__main__
DelphiIdentAccess
p1657
(dp1658
g349
S'SW_SHOWNORMAL'
p1659
sg351
(lp1660
sbasbasbsbasbsg1075
(lp1661
sbsbsS'formcreate'
p1662
(i__main__
DelphiMethodImplementation
p1663
(dp1664
g315
g182
sg53
g184
sg61
(lp1665
(i__main__
DelphiFormalParameter
p1666
(dp1667
g65
Nsg66
(lp1668
S'Sender'
p1669
asg69
(i__main__
DelphiNamedType
p1670
(dp1671
g72
S'TObject'
p1672
sg74
g1
sg75
Nsbsg76
Nsbasg324
(lp1673
sg326
(lp1674
sg328
(lp1675
g330
ag1669
asg331
(dp1676
g1669
g1670
ssg77
S'TRegistrationForm'
p1677
sg78
Nsg334
(lp1678
sg79
I0
sg80
g81
sg336
(i__main__
DelphiBlock
p1679
(dp1680
g339
(idelphi
DelphiCompoundStatement
p1681
(dp1682
g342
(lp1683
(i__main__
DelphiAssignStatement
p1684
(dp1685
g346
(i__main__
DelphiIdentAccess
p1686
(dp1687
g349
S'true'
p1688
sg351
(lp1689
sbsg372
(i__main__
DelphiIdentAccess
p1690
(dp1691
g349
S'thankYou'
p1692
sg351
(lp1693
(idelphi
DelphiFieldEndAccess
p1694
(dp1695
g363
S'visible'
p1696
sbasbsba(i__main__
DelphiAssignStatement
p1697
(dp1698
g346
(i__main__
DelphiIdentAccess
p1699
(dp1700
g349
S'false'
p1701
sg351
(lp1702
sbsg372
(i__main__
DelphiIdentAccess
p1703
(dp1704
g349
S'thankYou'
p1705
sg351
(lp1706
(idelphi
DelphiFieldEndAccess
p1707
(dp1708
g363
S'visible'
p1709
sbasbsba(i__main__
DelphiAssignStatement
p1710
(dp1711
g346
(idelphi
DelphiIntegerValue
p1712
(dp1713
g420
S'0'
sbsg372
(i__main__
DelphiIdentAccess
p1714
(dp1715
g349
S'unsuccessfulRegistrationTries'
p1716
sg351
(lp1717
sbsbasbsg1075
(lp1718
sbsg1491
(lp1719
S' Private declarations '
p1720
aS' Public declarations '
p1721
aS'$R *.DFM'
p1722
asbsS'closeclick'
p1723
(i__main__
DelphiMethodImplementation
p1724
(dp1725
g315
g194
sg53
g196
sg61
(lp1726
(i__main__
DelphiFormalParameter
p1727
(dp1728
g65
Nsg66
(lp1729
S'Sender'
p1730
asg69
(i__main__
DelphiNamedType
p1731
(dp1732
g72
S'TObject'
p1733
sg74
g1
sg75
Nsbsg76
Nsbasg324
(lp1734
sg326
(lp1735
sg328
(lp1736
g330
ag1730
asg331
(dp1737
g1730
g1731
ssg77
S'TRegistrationForm'
p1738
sg78
Nsg334
(lp1739
sg79
I0
sg80
g81
sg336
(i__main__
DelphiBlock
p1740
(dp1741
g339
(idelphi
DelphiCompoundStatement
p1742
(dp1743
g342
(lp1744
(idelphi
DelphiIfStatement
p1745
(dp1746
g379
(i__main__
DelphiIdentAccess
p1747
(dp1748
g349
S'domain'
p1749
sg351
(lp1750
(idelphi
DelphiFieldEndAccess
p1751
(dp1752
g363
S'registered'
p1753
sbasbsg384
(i__main__
DelphiAssignStatement
p1754
(dp1755
g346
(i__main__
DelphiIdentAccess
p1756
(dp1757
g349
S'mrCancel'
p1758
sg351
(lp1759
sbsg372
(i__main__
DelphiIdentAccess
p1760
(dp1761
g349
S'modalResult'
p1762
sg351
(lp1763
sbsbsg509
(i__main__
DelphiAssignStatement
p1764
(dp1765
g346
(i__main__
DelphiIdentAccess
p1766
(dp1767
g349
S'mrOK'
p1768
sg351
(lp1769
sbsg372
(i__main__
DelphiIdentAccess
p1770
(dp1771
g349
S'modalResult'
p1772
sg351
(lp1773
sbsbsbasbsg1075
(lp1774
sbsbssS'propertyDeclarations'
p1775
(dp1776
sS'variableNamesInDeclaredOrder'
p1777
(lp1778
g18
ag24
ag32
ag34
ag50
ag12
ag28
ag26
ag30
ag36
ag16
ag14
ag10
ag42
ag44
ag38
ag22
ag52
ag40
ag48
ag20
ag46
asba(i__main__
DelphiVarSection
p1779
(dp1780
g1079
I1
sg1080
(lp1781
(idelphi
DelphiVarDecl
p1782
(dp1783
g1084
Nsg1085
(lp1784
S'RegistrationForm'
p1785
asg69
(i__main__
DelphiNamedType
p1786
(dp1787
g72
S'TRegistrationForm'
p1788
sg74
g1
sg75
Nsbsbasba(i__main__
DelphiConstSection
p1789
(dp1790
S'constDeclList'
p1791
(lp1792
(idelphi
DelphiConstDeclaration
p1793
(dp1794
g1084
(idelphi
DelphiIntegerValue
p1795
(dp1796
g420
S'10'
p1797
sbsg349
S'kMaxUnsuccessfulTries'
p1798
sg69
(idelphi
DelphiPrimitiveType
p1799
(dp1800
g72
S'UNDEFINED_NEEDS_CALCULATION'
p1801
sbsbasg1079
I1
sbasS'includedUnits'
p1802
NsS'implementationUses'
p1803
(lp1804
S'ShellAPI'
p1805
aS'udomain'
p1806
aS'usupport'
p1807
aS'uregistersupport'
p1808
aS'udebug'
p1809
asg53
S'uregister'
p1810
sS'constSections'
p1811
(lp1812
g1789
asS'globalsInProperCase'
p1813
NsS'interfaceUses'
p1814
(lp1815
S'delphi_compatability'
p1816
aS'Windows'
p1817
aS'Messages'
p1818
aS'SysUtils'
p1819
aS'Classes'
p1820
aS'Graphics'
p1821
aS'Controls'
p1822
aS'Forms'
p1823
aS'Dialogs'
p1824
aS'StdCtrls'
p1825
aS'Buttons'
p1826
aS'ExtCtrls'
p1827
aS'Grids'
p1828
aS'ComCtrls'
p1829
aS'updform'
p1830
asS'finalCommentToken'
p1831
(i__main__
PassStatement
p1832
(dp1833
g1075
(lp1834
sbsS'varSections'
p1835
(lp1836
g1779
asS'globals'
p1837
NsS'originalFileName'
p1838
S'../../PlantStudioInPython/converted_source/uregister.pas'
p1839
sS'proceduralImplementations'
p1840
(dp1841
sS'fileName'
p1842
S'/Users/pdf/Documents/workspace/PlantStudioInPython/converted_source/uregister.pas'
p1843
sS'proceduralDeclarations'
p1844
(dp1845
sS'types'
p1846
(dp1847
S'tregistrationform'
p1848
g5
ssb.