(i__main__
DelphiUnit
p1
(dp2
S'sectionsInOrderDefined'
p3
(lp4
(i__main__
DelphiRecord
p5
(dp6
S'variableNamesInDeclaredOrder'
p7
(lp8
S's1'
p9
aS's2'
p10
aS's3'
p11
aS's4'
p12
asS'variableNamesInProperCase'
p13
(dp14
S's3'
p15
g11
sS's2'
p16
g10
sS's1'
p17
g9
sS's4'
p18
g12
ssS'name'
p19
S'RegisterStruct'
p20
sS'variableNames'
p21
(dp22
S's3'
p23
(i__main__
DelphiPrimitiveType
p24
(dp25
S'typeName'
p26
S'integer'
p27
sbsS's2'
p28
g24
sS's1'
p29
g24
sS's4'
p30
g24
ssba(i__main__
DelphiConstSection
p31
(dp32
S'constDeclList'
p33
(lp34
(idelphi
DelphiConstDeclaration
p35
(dp36
S'constExpression'
p37
(idelphi
DelphiIntegerValue
p38
(dp39
S'string'
p40
S'9'
sbsS'ident'
p41
S'codeArraySize'
p42
sS'theType'
p43
(idelphi
DelphiPrimitiveType
p44
(dp45
g26
S'UNDEFINED_NEEDS_CALCULATION'
p46
sbsbasS'atTopLevel'
p47
I1
sba(i__main__
DelphiProceduralImplementation
p48
(dp49
S'originalDeclaration'
p50
g48
sg19
S'WriteCodeFile'
p51
sS'resultType'
p52
NsS'varParamIndexes'
p53
(lp54
sS'varParamsSkipped'
p55
(lp56
sS'argNames'
p57
(lp58
S'userName'
p59
aS'code'
p60
aS'fileNameMaybeLeadingPipe'
p61
asS'argTypes'
p62
(dp63
g59
(i__main__
DelphiPrimitiveType
p64
(dp65
g26
g40
sbsg60
(i__main__
DelphiPrimitiveType
p66
(dp67
g26
g40
sbsg61
(i__main__
DelphiPrimitiveType
p68
(dp69
g26
g40
sbssS'formalParameters'
p70
(lp71
(i__main__
DelphiFormalParameter
p72
(dp73
S'initialValue'
p74
NsS'names'
p75
(lp76
g59
asg43
g64
sS'parameterVariety'
p77
S'const'
p78
sba(i__main__
DelphiFormalParameter
p79
(dp80
g74
Nsg75
(lp81
g60
asg43
g66
sg77
g78
sba(i__main__
DelphiFormalParameter
p82
(dp83
g74
Nsg75
(lp84
g61
asg43
g68
sg77
g78
sbasS'varParamNames'
p85
(lp86
sS'block'
p87
(i__main__
DelphiBlock
p88
(dp89
S'compoundStatement'
p90
(idelphi
DelphiCompoundStatement
p91
(dp92
S'statements'
p93
(lp94
(i__main__
DelphiAssignStatement
p95
(dp96
S'newValueExpression'
p97
(i__main__
DelphiIdentAccess
p98
(dp99
g41
S'true'
p100
sS'endAccessList'
p101
(lp102
sbsS'destinationExpression'
p103
(i__main__
DelphiIdentAccess
p104
(dp105
g41
S'warningIfExists'
p106
sg101
(lp107
sbsba(idelphi
DelphiIfStatement
p108
(dp109
S'expression'
p110
(idelphi
DelphiRelOp
p111
(dp112
S'simpleExpression1'
p113
(i__main__
DelphiIdentAccess
p114
(dp115
g41
S'fileNameMaybeLeadingPipe'
p116
sg101
(lp117
(idelphi
DelphiArrayEndAccess
p118
(dp119
S'expressionList'
p120
(lp121
(idelphi
DelphiIntegerValue
p122
(dp123
g40
S'1'
sbasbasbsS'simpleExpression2'
p124
(idelphi
DelphiStringAccess
p125
(dp126
g101
(lp127
sg40
(idelphi
DelphiStringValue
p128
(dp129
g40
S'|'
sbsbsS'relOp'
p130
S'='
sbsS'ifFalseStatement'
p131
(i__main__
DelphiAssignStatement
p132
(dp133
g97
(i__main__
DelphiIdentAccess
p134
(dp135
g41
S'fileNameMaybeLeadingPipe'
p136
sg101
(lp137
sbsg103
(i__main__
DelphiIdentAccess
p138
(dp139
g41
S'fileName'
p140
sg101
(lp141
sbsbsS'ifTrueStatement'
p142
(idelphi
DelphiCompoundStatement
p143
(dp144
g93
(lp145
(i__main__
DelphiAssignStatement
p146
(dp147
g97
(i__main__
DelphiIdentAccess
p148
(dp149
g41
S'copy'
p150
sg101
(lp151
(idelphi
DelphiFunctionEndAccess
p152
(dp153
g120
(lp154
(i__main__
DelphiIdentAccess
p155
(dp156
g41
S'fileNameMaybeLeadingPipe'
p157
sg101
(lp158
sba(idelphi
DelphiIntegerValue
p159
(dp160
g40
S'2'
sba(i__main__
DelphiIdentAccess
p161
(dp162
g41
S'length'
p163
sg101
(lp164
(idelphi
DelphiFunctionEndAccess
p165
(dp166
g120
(lp167
(i__main__
DelphiIdentAccess
p168
(dp169
g41
S'fileNameMaybeLeadingPipe'
p170
sg101
(lp171
sbasbasbasbasbsg103
(i__main__
DelphiIdentAccess
p172
(dp173
g41
S'fileName'
p174
sg101
(lp175
sbsba(i__main__
DelphiAssignStatement
p176
(dp177
g97
(i__main__
DelphiIdentAccess
p178
(dp179
g41
S'false'
p180
sg101
(lp181
sbsg103
(i__main__
DelphiIdentAccess
p182
(dp183
g41
S'warningIfExists'
p184
sg101
(lp185
sbsbasbsba(i__main__
DelphiAssignStatement
p186
(dp187
g97
(i__main__
DelphiIdentAccess
p188
(dp189
g41
S'ExtractFilePath'
p190
sg101
(lp191
(idelphi
DelphiFunctionEndAccess
p192
(dp193
g120
(lp194
(i__main__
DelphiIdentAccess
p195
(dp196
g41
S'fileName'
p197
sg101
(lp198
sbasbasbsg103
(i__main__
DelphiIdentAccess
p199
(dp200
g41
S'tempFilePath'
p201
sg101
(lp202
sbsba(idelphi
DelphiIfStatement
p203
(dp204
g110
(idelphi
DelphiRelOp
p205
(dp206
g113
(i__main__
DelphiIdentAccess
p207
(dp208
g41
S'tempFilePath'
p209
sg101
(lp210
sbsg124
(idelphi
DelphiStringAccess
p211
(dp212
g101
(lp213
sg40
(idelphi
DelphiStringValue
p214
(dp215
g40
S''
sbsbsg130
S'='
sbsg131
Nsg142
(idelphi
DelphiCompoundStatement
p216
(dp217
g93
(lp218
(i__main__
DelphiAssignStatement
p219
(dp220
g97
Nsg103
(i__main__
DelphiIdentAccess
p221
(dp222
g41
S'SetLength'
p223
sg101
(lp224
(idelphi
DelphiFunctionEndAccess
p225
(dp226
g120
(lp227
(i__main__
DelphiIdentAccess
p228
(dp229
g41
S'tempFilePath'
p230
sg101
(lp231
sba(idelphi
DelphiAddOp
p232
(dp233
S'addOp'
p234
S'+'
sS'term2'
p235
(idelphi
DelphiIntegerValue
p236
(dp237
g40
S'2'
sbsS'term1'
p238
(i__main__
DelphiIdentAccess
p239
(dp240
g41
S'MAX_PATH'
p241
sg101
(lp242
sbsbasbasbsba(i__main__
DelphiAssignStatement
p243
(dp244
g97
Nsg103
(i__main__
DelphiIdentAccess
p245
(dp246
g41
S'GetTempPath'
p247
sg101
(lp248
(idelphi
DelphiFunctionEndAccess
p249
(dp250
g120
(lp251
(i__main__
DelphiIdentAccess
p252
(dp253
g41
S'MAX_PATH'
p254
sg101
(lp255
sba(i__main__
DelphiValueTypecastAccess
p256
(dp257
S'valueTypecast'
p258
(i__main__
DelphiValueTypecast
p259
(dp260
g110
(i__main__
DelphiIdentAccess
p261
(dp262
g41
S'tempFilePath'
p263
sg101
(lp264
sbsS'typeIdentPredefined'
p265
(i__main__
DelphiPrimitiveType
p266
(dp267
g26
S'pchar'
p268
sbsbsg101
(lp269
sbasbasbsba(i__main__
DelphiAssignStatement
p270
(dp271
g97
Nsg103
(i__main__
DelphiIdentAccess
p272
(dp273
g41
S'SetLength'
p274
sg101
(lp275
(idelphi
DelphiFunctionEndAccess
p276
(dp277
g120
(lp278
(i__main__
DelphiIdentAccess
p279
(dp280
g41
S'tempFilePath'
p281
sg101
(lp282
sba(i__main__
DelphiIdentAccess
p283
(dp284
g41
S'strlen'
p285
sg101
(lp286
(idelphi
DelphiFunctionEndAccess
p287
(dp288
g120
(lp289
(i__main__
DelphiValueTypecastAccess
p290
(dp291
g258
(i__main__
DelphiValueTypecast
p292
(dp293
g110
(i__main__
DelphiIdentAccess
p294
(dp295
g41
S'tempFilePath'
p296
sg101
(lp297
sbsg265
(i__main__
DelphiPrimitiveType
p298
(dp299
g26
g268
sbsbsg101
(lp300
sbasbasbasbasbsS'commentLinesBefore'
p301
(lp302
S' maybe plus one??\r'
p303
asbasbsba(i__main__
DelphiAssignStatement
p304
(dp305
g97
Nsg103
(i__main__
DelphiIdentAccess
p306
(dp307
g41
S'SetLength'
p308
sg101
(lp309
(idelphi
DelphiFunctionEndAccess
p310
(dp311
g120
(lp312
(i__main__
DelphiIdentAccess
p313
(dp314
g41
S'tempFileName'
p315
sg101
(lp316
sba(idelphi
DelphiAddOp
p317
(dp318
g234
S'+'
sg235
(idelphi
DelphiIntegerValue
p319
(dp320
g40
S'2'
sbsg238
(i__main__
DelphiIdentAccess
p321
(dp322
g41
S'MAX_PATH'
p323
sg101
(lp324
sbsbasbasbsba(i__main__
DelphiAssignStatement
p325
(dp326
g97
(i__main__
DelphiIdentAccess
p327
(dp328
g41
S'GetTempFileName'
p329
sg101
(lp330
(idelphi
DelphiFunctionEndAccess
p331
(dp332
g120
(lp333
(i__main__
DelphiValueTypecastAccess
p334
(dp335
g258
(i__main__
DelphiValueTypecast
p336
(dp337
g110
(i__main__
DelphiIdentAccess
p338
(dp339
g41
S'tempFilePath'
p340
sg101
(lp341
sbsg265
(i__main__
DelphiPrimitiveType
p342
(dp343
g26
g268
sbsbsg101
(lp344
sba(idelphi
DelphiStringAccess
p345
(dp346
g101
(lp347
sg40
(idelphi
DelphiStringValue
p348
(dp349
g40
S'shr'
p350
sbsba(idelphi
DelphiIntegerValue
p351
(dp352
g40
S'0'
sba(i__main__
DelphiValueTypecastAccess
p353
(dp354
g258
(i__main__
DelphiValueTypecast
p355
(dp356
g110
(i__main__
DelphiIdentAccess
p357
(dp358
g41
S'tempFileName'
p359
sg101
(lp360
sbsg265
(i__main__
DelphiPrimitiveType
p361
(dp362
g26
g268
sbsbsg101
(lp363
sbasbasbsg103
(i__main__
DelphiIdentAccess
p364
(dp365
g41
S'success'
p366
sg101
(lp367
sbsg301
(lp368
S' address of directory name for temporary file\r'
p369
aS' address of filename prefix\r'
p370
aS' number used to create temporary filename\r'
p371
aS' address of buffer that receives the new filename\r'
p372
asba(idelphi
DelphiIfStatement
p373
(dp374
g110
(idelphi
DelphiRelOp
p375
(dp376
g113
(i__main__
DelphiIdentAccess
p377
(dp378
g41
S'success'
p379
sg101
(lp380
sbsg124
(idelphi
DelphiIntegerValue
p381
(dp382
g40
S'0'
sbsg130
S'='
sbsg131
Nsg142
(idelphi
DelphiCompoundStatement
p383
(dp384
g93
(lp385
(i__main__
DelphiAssignStatement
p386
(dp387
g97
Nsg103
(i__main__
DelphiIdentAccess
p388
(dp389
g41
S'ShowMessage'
p390
sg101
(lp391
(idelphi
DelphiFunctionEndAccess
p392
(dp393
g120
(lp394
(idelphi
DelphiAddOp
p395
(dp396
g234
S'+'
sg235
(idelphi
DelphiStringAccess
p397
(dp398
g101
(lp399
sg40
(idelphi
DelphiStringValue
p400
(dp401
g40
S' Unable to generate temporary file name for StoryHarp registration'
p402
sbsbsg238
(i__main__
DelphiIdentAccess
p403
(dp404
g41
S'ExtractFileName'
p405
sg101
(lp406
(idelphi
DelphiFunctionEndAccess
p407
(dp408
g120
(lp409
(i__main__
DelphiIdentAccess
p410
(dp411
g41
S'Application'
p412
sg101
(lp413
(idelphi
DelphiFieldEndAccess
p414
(dp415
S'field'
p416
S'ExeName'
p417
sbasbasbasbsbasbasbsba(i__main__
DelphiExitStatement
p418
(dp419
S'proceduralOrMethodImplementation'
p420
g48
sbasbsba(i__main__
DelphiAssignStatement
p421
(dp422
g97
Nsg103
(i__main__
DelphiIdentAccess
p423
(dp424
g41
S'SetLength'
p425
sg101
(lp426
(idelphi
DelphiFunctionEndAccess
p427
(dp428
g120
(lp429
(i__main__
DelphiIdentAccess
p430
(dp431
g41
S'tempFileName'
p432
sg101
(lp433
sba(i__main__
DelphiIdentAccess
p434
(dp435
g41
S'strlen'
p436
sg101
(lp437
(idelphi
DelphiFunctionEndAccess
p438
(dp439
g120
(lp440
(i__main__
DelphiValueTypecastAccess
p441
(dp442
g258
(i__main__
DelphiValueTypecast
p443
(dp444
g110
(i__main__
DelphiIdentAccess
p445
(dp446
g41
S'tempFileName'
p447
sg101
(lp448
sbsg265
(i__main__
DelphiPrimitiveType
p449
(dp450
g26
g268
sbsbsg101
(lp451
sbasbasbasbasbsg301
(lp452
S' maybe plus one??\r'
p453
asba(i__main__
DelphiAssignStatement
p454
(dp455
g97
Nsg103
(i__main__
DelphiIdentAccess
p456
(dp457
g41
S'AssignFile'
p458
sg101
(lp459
(idelphi
DelphiFunctionEndAccess
p460
(dp461
g120
(lp462
(i__main__
DelphiIdentAccess
p463
(dp464
g41
S'CodeFile'
p465
sg101
(lp466
sba(i__main__
DelphiIdentAccess
p467
(dp468
g41
S'tempFileName'
p469
sg101
(lp470
sbasbasbsba(i__main__
DelphiAssignStatement
p471
(dp472
g97
Nsg103
(i__main__
DelphiIdentAccess
p473
(dp474
g41
S'Rewrite'
p475
sg101
(lp476
(idelphi
DelphiFunctionEndAccess
p477
(dp478
g120
(lp479
(i__main__
DelphiIdentAccess
p480
(dp481
g41
S'CodeFile'
p482
sg101
(lp483
sbasbasbsba(idelphi
DelphiTryFinallyStatement
p484
(dp485
S'tryStatements'
p486
(lp487
(i__main__
DelphiAssignStatement
p488
(dp489
g97
Nsg103
(i__main__
DelphiIdentAccess
p490
(dp491
g41
S'writeln'
p492
sg101
(lp493
(idelphi
DelphiFunctionEndAccess
p494
(dp495
g120
(lp496
(i__main__
DelphiIdentAccess
p497
(dp498
g41
S'CodeFile'
p499
sg101
(lp500
sba(idelphi
DelphiStringAccess
p501
(dp502
g101
(lp503
sg40
(idelphi
DelphiStringValue
p504
(dp505
g40
S'StoryHarp 1.x registration information'
p506
sbsbasbasbsba(i__main__
DelphiAssignStatement
p507
(dp508
g97
Nsg103
(i__main__
DelphiIdentAccess
p509
(dp510
g41
S'writeln'
p511
sg101
(lp512
(idelphi
DelphiFunctionEndAccess
p513
(dp514
g120
(lp515
(i__main__
DelphiIdentAccess
p516
(dp517
g41
S'CodeFile'
p518
sg101
(lp519
sba(idelphi
DelphiStringAccess
p520
(dp521
g101
(lp522
sg40
(idelphi
DelphiStringValue
p523
(dp524
g40
S'Registration Name: '
p525
sbsba(i__main__
DelphiIdentAccess
p526
(dp527
g41
S'userName'
p528
sg101
(lp529
sbasbasbsba(i__main__
DelphiAssignStatement
p530
(dp531
g97
Nsg103
(i__main__
DelphiIdentAccess
p532
(dp533
g41
S'writeln'
p534
sg101
(lp535
(idelphi
DelphiFunctionEndAccess
p536
(dp537
g120
(lp538
(i__main__
DelphiIdentAccess
p539
(dp540
g41
S'CodeFile'
p541
sg101
(lp542
sba(idelphi
DelphiStringAccess
p543
(dp544
g101
(lp545
sg40
(idelphi
DelphiStringValue
p546
(dp547
g40
S'Registration Code: '
p548
sbsba(i__main__
DelphiIdentAccess
p549
(dp550
g41
S'code'
p551
sg101
(lp552
sbasbasbsba(i__main__
DelphiAssignStatement
p553
(dp554
g97
Nsg103
(i__main__
DelphiIdentAccess
p555
(dp556
g41
S'Flush'
p557
sg101
(lp558
(idelphi
DelphiFunctionEndAccess
p559
(dp560
g120
(lp561
(i__main__
DelphiIdentAccess
p562
(dp563
g41
S'CodeFile'
p564
sg101
(lp565
sbasbasbsbasS'finallyStatements'
p566
(lp567
(i__main__
DelphiAssignStatement
p568
(dp569
g97
Nsg103
(i__main__
DelphiIdentAccess
p570
(dp571
g41
S'CloseFile'
p572
sg101
(lp573
(idelphi
DelphiFunctionEndAccess
p574
(dp575
g120
(lp576
(i__main__
DelphiIdentAccess
p577
(dp578
g41
S'CodeFile'
p579
sg101
(lp580
sbasbasbsbasba(idelphi
DelphiIfStatement
p581
(dp582
g110
(i__main__
DelphiIdentAccess
p583
(dp584
g41
S'FileExists'
p585
sg101
(lp586
(idelphi
DelphiFunctionEndAccess
p587
(dp588
g120
(lp589
(i__main__
DelphiIdentAccess
p590
(dp591
g41
S'fileName'
p592
sg101
(lp593
sbasbasbsg131
Nsg142
(idelphi
DelphiCompoundStatement
p594
(dp595
g93
(lp596
(idelphi
DelphiIfStatement
p597
(dp598
g110
(i__main__
DelphiIdentAccess
p599
(dp600
g41
S'warningIfExists'
p601
sg101
(lp602
sbsg131
Nsg142
(idelphi
DelphiCompoundStatement
p603
(dp604
g93
(lp605
(idelphi
DelphiIfStatement
p606
(dp607
g110
(idelphi
DelphiRelOp
p608
(dp609
g113
(i__main__
DelphiIdentAccess
p610
(dp611
g41
S'MessageDlg'
p612
sg101
(lp613
(idelphi
DelphiFunctionEndAccess
p614
(dp615
g120
(lp616
(idelphi
DelphiAddOp
p617
(dp618
g234
S'+'
sg235
(idelphi
DelphiStringAccess
p619
(dp620
g101
(lp621
sg40
(idelphi
DelphiStringValue
p622
(dp623
g40
S'Contact Paul or Cynthia at http://www.kurtz-fernhout.com for details.'
p624
sbsbsg238
(idelphi
DelphiAddOp
p625
(dp626
g234
S'+'
sg235
(i__main__
DelphiIdentAccess
p627
(dp628
g41
S'chr'
p629
sg101
(lp630
(idelphi
DelphiFunctionEndAccess
p631
(dp632
g120
(lp633
(idelphi
DelphiIntegerValue
p634
(dp635
g40
S'13'
p636
sbasbasbsg238
(idelphi
DelphiAddOp
p637
(dp638
g234
S'+'
sg235
(idelphi
DelphiStringAccess
p639
(dp640
g101
(lp641
sg40
(idelphi
DelphiStringValue
p642
(dp643
g40
S'you can bypass it by putting a "|" at the start of the file path in the second argument.'
p644
sbsbsg238
(idelphi
DelphiAddOp
p645
(dp646
g234
S'+'
sg235
(i__main__
DelphiIdentAccess
p647
(dp648
g41
S'chr'
p649
sg101
(lp650
(idelphi
DelphiFunctionEndAccess
p651
(dp652
g120
(lp653
(idelphi
DelphiIntegerValue
p654
(dp655
g40
S'13'
p656
sbasbasbsg238
(idelphi
DelphiAddOp
p657
(dp658
g234
S'+'
sg235
(idelphi
DelphiStringAccess
p659
(dp660
g101
(lp661
sg40
(idelphi
DelphiStringValue
p662
(dp663
g40
S'If you wish to never see this error again (not recommended), '
p664
sbsbsg238
(idelphi
DelphiAddOp
p665
(dp666
g234
S'+'
sg235
(i__main__
DelphiIdentAccess
p667
(dp668
g41
S'chr'
p669
sg101
(lp670
(idelphi
DelphiFunctionEndAccess
p671
(dp672
g120
(lp673
(idelphi
DelphiIntegerValue
p674
(dp675
g40
S'13'
p676
sbasbasbsg238
(idelphi
DelphiAddOp
p677
(dp678
g234
S'+'
sg235
(i__main__
DelphiIdentAccess
p679
(dp680
g41
S'chr'
p681
sg101
(lp682
(idelphi
DelphiFunctionEndAccess
p683
(dp684
g120
(lp685
(idelphi
DelphiIntegerValue
p686
(dp687
g40
S'13'
p688
sbasbasbsg238
(idelphi
DelphiAddOp
p689
(dp690
g234
S'+'
sg235
(idelphi
DelphiStringAccess
p691
(dp692
g101
(lp693
sg40
(idelphi
DelphiStringValue
p694
(dp695
g40
S'This is a serious error in the way PsL uses this program and should be reported and corrected.'
p696
sbsbsg238
(idelphi
DelphiAddOp
p697
(dp698
g234
S'+'
sg235
(i__main__
DelphiIdentAccess
p699
(dp700
g41
S'chr'
p701
sg101
(lp702
(idelphi
DelphiFunctionEndAccess
p703
(dp704
g120
(lp705
(idelphi
DelphiIntegerValue
p706
(dp707
g40
S'13'
p708
sbasbasbsg238
(idelphi
DelphiAddOp
p709
(dp710
g234
S'+'
sg235
(i__main__
DelphiIdentAccess
p711
(dp712
g41
S'chr'
p713
sg101
(lp714
(idelphi
DelphiFunctionEndAccess
p715
(dp716
g120
(lp717
(idelphi
DelphiIntegerValue
p718
(dp719
g40
S'13'
p720
sbasbasbsg238
(idelphi
DelphiAddOp
p721
(dp722
g234
S'+'
sg235
(idelphi
DelphiStringAccess
p723
(dp724
g101
(lp725
sg40
(idelphi
DelphiStringValue
p726
(dp727
g40
S'".'
p728
sbsbsg238
(idelphi
DelphiAddOp
p729
(dp730
g234
S'+'
sg235
(i__main__
DelphiIdentAccess
p731
(dp732
g41
S'userName'
p733
sg101
(lp734
sbsg238
(idelphi
DelphiAddOp
p735
(dp736
g234
S'+'
sg235
(idelphi
DelphiStringAccess
p737
(dp738
g101
(lp739
sg40
(idelphi
DelphiStringValue
p740
(dp741
g40
S'has already been given to the customer "'
p742
sbsbsg238
(idelphi
DelphiAddOp
p743
(dp744
g234
S'+'
sg235
(i__main__
DelphiIdentAccess
p745
(dp746
g41
S'chr'
p747
sg101
(lp748
(idelphi
DelphiFunctionEndAccess
p749
(dp750
g120
(lp751
(idelphi
DelphiIntegerValue
p752
(dp753
g40
S'13'
p754
sbasbasbsg238
(idelphi
DelphiAddOp
p755
(dp756
g234
S'+'
sg235
(idelphi
DelphiStringAccess
p757
(dp758
g101
(lp759
sg40
(idelphi
DelphiStringValue
p760
(dp761
g40
S'If you see this error, it is possible a registration code for someone else '
p762
sbsbsg238
(idelphi
DelphiAddOp
p763
(dp764
g234
S'+'
sg235
(i__main__
DelphiIdentAccess
p765
(dp766
g41
S'chr'
p767
sg101
(lp768
(idelphi
DelphiFunctionEndAccess
p769
(dp770
g120
(lp771
(idelphi
DelphiIntegerValue
p772
(dp773
g40
S'13'
p774
sbasbasbsg238
(idelphi
DelphiAddOp
p775
(dp776
g234
S'+'
sg235
(idelphi
DelphiStringAccess
p777
(dp778
g101
(lp779
sg40
(idelphi
DelphiStringValue
p780
(dp781
g40
S'for a file with this name to appear, something improper is happening'
p782
sbsbsg238
(idelphi
DelphiAddOp
p783
(dp784
g234
S'+'
sg235
(i__main__
DelphiIdentAccess
p785
(dp786
g41
S'chr'
p787
sg101
(lp788
(idelphi
DelphiFunctionEndAccess
p789
(dp790
g120
(lp791
(idelphi
DelphiIntegerValue
p792
(dp793
g40
S'13'
p794
sbasbasbsg238
(idelphi
DelphiAddOp
p795
(dp796
g234
S'+'
sg235
(idelphi
DelphiStringAccess
p797
(dp798
g101
(lp799
sg40
(idelphi
DelphiStringValue
p800
(dp801
g40
S'However, because the PsL order-entry system is supposed to be waiting right now'
p802
sbsbsg238
(idelphi
DelphiAddOp
p803
(dp804
g234
S'+'
sg235
(i__main__
DelphiIdentAccess
p805
(dp806
g41
S'chr'
p807
sg101
(lp808
(idelphi
DelphiFunctionEndAccess
p809
(dp810
g120
(lp811
(idelphi
DelphiIntegerValue
p812
(dp813
g40
S'13'
p814
sbasbasbsg238
(idelphi
DelphiAddOp
p815
(dp816
g234
S'+'
sg235
(i__main__
DelphiIdentAccess
p817
(dp818
g41
S'chr'
p819
sg101
(lp820
(idelphi
DelphiFunctionEndAccess
p821
(dp822
g120
(lp823
(idelphi
DelphiIntegerValue
p824
(dp825
g40
S'13'
p826
sbasbasbsg238
(idelphi
DelphiAddOp
p827
(dp828
g234
S'+'
sg235
(idelphi
DelphiStringAccess
p829
(dp830
g101
(lp831
sg40
(idelphi
DelphiStringValue
p832
(dp833
g40
S'(If you press Cancel the file will be left as is.)'
p834
sbsbsg238
(idelphi
DelphiAddOp
p835
(dp836
g234
S'+'
sg235
(i__main__
DelphiIdentAccess
p837
(dp838
g41
S'chr'
p839
sg101
(lp840
(idelphi
DelphiFunctionEndAccess
p841
(dp842
g120
(lp843
(idelphi
DelphiIntegerValue
p844
(dp845
g40
S'13'
p846
sbasbasbsg238
(idelphi
DelphiAddOp
p847
(dp848
g234
S'+'
sg235
(idelphi
DelphiStringAccess
p849
(dp850
g101
(lp851
sg40
(idelphi
DelphiStringValue
p852
(dp853
g40
S'The existing file will be deleted and then created again if you press OK.'
p854
sbsbsg238
(idelphi
DelphiAddOp
p855
(dp856
g234
S'+'
sg235
(i__main__
DelphiIdentAccess
p857
(dp858
g41
S'chr'
p859
sg101
(lp860
(idelphi
DelphiFunctionEndAccess
p861
(dp862
g120
(lp863
(idelphi
DelphiIntegerValue
p864
(dp865
g40
S'13'
p866
sbasbasbsg238
(idelphi
DelphiAddOp
p867
(dp868
g234
S'+'
sg235
(idelphi
DelphiStringAccess
p869
(dp870
g101
(lp871
sg40
(idelphi
DelphiStringValue
p872
(dp873
g40
S'" already exists, and it should not exist.'
p874
sbsbsg238
(idelphi
DelphiAddOp
p875
(dp876
g234
S'+'
sg235
(i__main__
DelphiIdentAccess
p877
(dp878
g41
S'fileName'
p879
sg101
(lp880
sbsg238
(idelphi
DelphiAddOp
p881
(dp882
g234
S'+'
sg235
(idelphi
DelphiStringAccess
p883
(dp884
g101
(lp885
sg40
(idelphi
DelphiStringValue
p886
(dp887
g40
S'The requested output file "'
p888
sbsbsg238
(idelphi
DelphiAddOp
p889
(dp890
g234
S'+'
sg235
(i__main__
DelphiIdentAccess
p891
(dp892
g41
S'chr'
p893
sg101
(lp894
(idelphi
DelphiFunctionEndAccess
p895
(dp896
g120
(lp897
(idelphi
DelphiIntegerValue
p898
(dp899
g40
S'13'
p900
sbasbasbsg238
(idelphi
DelphiAddOp
p901
(dp902
g234
S'+'
sg235
(i__main__
DelphiIdentAccess
p903
(dp904
g41
S'chr'
p905
sg101
(lp906
(idelphi
DelphiFunctionEndAccess
p907
(dp908
g120
(lp909
(idelphi
DelphiIntegerValue
p910
(dp911
g40
S'13'
p912
sbasbasbsg238
(idelphi
DelphiAddOp
p913
(dp914
g234
S'+'
sg235
(idelphi
DelphiStringAccess
p915
(dp916
g101
(lp917
sg40
(idelphi
DelphiStringValue
p918
(dp919
g40
S'the program which generates the StoryHarp registration code output file. '
p920
sbsbsg238
(idelphi
DelphiAddOp
p921
(dp922
g234
S'+'
sg235
(i__main__
DelphiIdentAccess
p923
(dp924
g41
S'chr'
p925
sg101
(lp926
(idelphi
DelphiFunctionEndAccess
p927
(dp928
g120
(lp929
(idelphi
DelphiIntegerValue
p930
(dp931
g40
S'13'
p932
sbasbasbsg238
(idelphi
DelphiAddOp
p933
(dp934
g234
S'+'
sg235
(idelphi
DelphiStringAccess
p935
(dp936
g101
(lp937
sg40
(idelphi
DelphiStringValue
p938
(dp939
g40
S'A problem has occured in the coordination of the PsL order-entry system and'
p940
sbsbsg238
(idelphi
DelphiAddOp
p941
(dp942
g234
S'+'
sg235
(i__main__
DelphiIdentAccess
p943
(dp944
g41
S'chr'
p945
sg101
(lp946
(idelphi
DelphiFunctionEndAccess
p947
(dp948
g120
(lp949
(idelphi
DelphiIntegerValue
p950
(dp951
g40
S'13'
p952
sbasbasbsg238
(idelphi
DelphiAddOp
p953
(dp954
g234
S'+'
sg235
(idelphi
DelphiStringAccess
p955
(dp956
g101
(lp957
sg40
(idelphi
DelphiStringValue
p958
(dp959
g40
S': '
p960
sbsbsg238
(i__main__
DelphiIdentAccess
p961
(dp962
g41
S'ExtractFileName'
p963
sg101
(lp964
(idelphi
DelphiFunctionEndAccess
p965
(dp966
g120
(lp967
(i__main__
DelphiIdentAccess
p968
(dp969
g41
S'Application'
p970
sg101
(lp971
(idelphi
DelphiFieldEndAccess
p972
(dp973
g416
S'ExeName'
p974
sbasbasbasbsbsbsbsbsbsbsbsbsbsbsbsbsbsbsbsbsbsbsbsbsbsbsbsbsbsbsbsbsbsbsbsbsbsbsba(i__main__
DelphiIdentAccess
p975
(dp976
g41
S'mtError'
p977
sg101
(lp978
sba(idelphi
DelphiSetConstructor
p979
(dp980
S'setElementList'
p981
(lp982
(i__main__
DelphiIdentAccess
p983
(dp984
g41
S'mbOK'
p985
sg101
(lp986
sba(i__main__
DelphiIdentAccess
p987
(dp988
g41
S'mbCancel'
p989
sg101
(lp990
sbasba(idelphi
DelphiIntegerValue
p991
(dp992
g40
S'0'
sbasbasbsg124
(i__main__
DelphiIdentAccess
p993
(dp994
g41
S'idOK'
p995
sg101
(lp996
sbsg130
S'<>'
p997
sbsg131
Nsg142
(i__main__
DelphiExitStatement
p998
(dp999
g420
g48
sg301
(lp1000
S' questionable?\r'
p1001
asbsbasbsba(i__main__
DelphiAssignStatement
p1002
(dp1003
g97
Nsg103
(i__main__
DelphiIdentAccess
p1004
(dp1005
g41
S'DeleteFile'
p1006
sg101
(lp1007
(idelphi
DelphiFunctionEndAccess
p1008
(dp1009
g120
(lp1010
(i__main__
DelphiIdentAccess
p1011
(dp1012
g41
S'fileName'
p1013
sg101
(lp1014
sbasbasbsbasbsba(i__main__
DelphiAssignStatement
p1015
(dp1016
g97
Nsg103
(i__main__
DelphiIdentAccess
p1017
(dp1018
g41
S'AssignFile'
p1019
sg101
(lp1020
(idelphi
DelphiFunctionEndAccess
p1021
(dp1022
g120
(lp1023
(i__main__
DelphiIdentAccess
p1024
(dp1025
g41
S'CodeFile'
p1026
sg101
(lp1027
sba(i__main__
DelphiIdentAccess
p1028
(dp1029
g41
S'tempFileName'
p1030
sg101
(lp1031
sbasbasbsba(i__main__
DelphiAssignStatement
p1032
(dp1033
g97
Nsg103
(i__main__
DelphiIdentAccess
p1034
(dp1035
g41
S'Rename'
p1036
sg101
(lp1037
(idelphi
DelphiFunctionEndAccess
p1038
(dp1039
g120
(lp1040
(i__main__
DelphiIdentAccess
p1041
(dp1042
g41
S'CodeFile'
p1043
sg101
(lp1044
sba(i__main__
DelphiIdentAccess
p1045
(dp1046
g41
S'fileName'
p1047
sg101
(lp1048
sbasbasbsbasbsS'limitedDeclSectionList'
p1049
(lp1050
(i__main__
DelphiVarSection
p1051
(dp1052
g47
I0
sS'varDeclList'
p1053
(lp1054
(idelphi
DelphiVarDecl
p1055
(dp1056
g37
NsS'identList'
p1057
(lp1058
S'success'
p1059
asg43
(i__main__
DelphiPrimitiveType
p1060
(dp1061
g26
g27
sbsba(idelphi
DelphiVarDecl
p1062
(dp1063
g37
Nsg1057
(lp1064
S'CodeFile'
p1065
asg43
(i__main__
DelphiNamedType
p1066
(dp1067
g26
S'TextFile'
p1068
sS'unitDefinedIn'
p1069
g1
sS'unitName'
p1070
Nsbsba(idelphi
DelphiVarDecl
p1071
(dp1072
g37
Nsg1057
(lp1073
S'tempFileName'
p1074
asg43
(i__main__
DelphiPrimitiveType
p1075
(dp1076
g26
g40
sbsba(idelphi
DelphiVarDecl
p1077
(dp1078
g37
Nsg1057
(lp1079
S'tempFilePath'
p1080
asg43
(i__main__
DelphiPrimitiveType
p1081
(dp1082
g26
g40
sbsba(idelphi
DelphiVarDecl
p1083
(dp1084
g37
Nsg1057
(lp1085
S'fileName'
p1086
asg43
(i__main__
DelphiPrimitiveType
p1087
(dp1088
g26
g40
sbsba(idelphi
DelphiVarDecl
p1089
(dp1090
g37
Nsg1057
(lp1091
S'warningIfExists'
p1092
asg43
(i__main__
DelphiPrimitiveType
p1093
(dp1094
g26
S'boolean'
p1095
sbsbasbasbsba(i__main__
DelphiProceduralImplementation
p1096
(dp1097
g50
g1096
sg19
S'nextRandom'
p1098
sg52
(i__main__
DelphiPrimitiveType
p1099
(dp1100
g26
g27
sbsg53
(lp1101
sg55
(lp1102
S'generator'
p1103
asg57
(lp1104
g1103
asg62
(dp1105
g1103
(i__main__
DelphiNamedType
p1106
(dp1107
g26
S'RegisterStruct'
p1108
sg1069
g1
sg1070
Nsbssg70
(lp1109
(i__main__
DelphiFormalParameter
p1110
(dp1111
g74
Nsg75
(lp1112
g1103
asg43
g1106
sg77
S'var'
p1113
sbasg85
(lp1114
sg87
(i__main__
DelphiBlock
p1115
(dp1116
g90
(idelphi
DelphiCompoundStatement
p1117
(dp1118
g93
(lp1119
(idelphi
DelphiWithStatement
p1120
(dp1121
S'statement'
p1122
(idelphi
DelphiCompoundStatement
p1123
(dp1124
g93
(lp1125
(i__main__
DelphiAssignStatement
p1126
(dp1127
g97
(idelphi
DelphiAddOp
p1128
(dp1129
g234
S'+'
sg235
(idelphi
DelphiIntegerValue
p1130
(dp1131
g40
S'1'
sbsg238
(idelphi
DelphiAddOp
p1132
(dp1133
g234
S'+'
sg235
(i__main__
DelphiIdentAccess
p1134
(dp1135
g41
S's2'
p1136
sg101
(lp1137
sbsg238
(i__main__
DelphiIdentAccess
p1138
(dp1139
g41
S's1'
p1140
sg101
(lp1141
sbsbsbsg103
(i__main__
DelphiIdentAccess
p1142
(dp1143
g41
S'newValue'
p1144
sg101
(lp1145
sbsg301
(lp1146
S' one added to defeat case of all zeroing out seeds\r'
p1147
asba(i__main__
DelphiAssignStatement
p1148
(dp1149
g97
(i__main__
DelphiIdentAccess
p1150
(dp1151
g41
S's2'
p1152
sg101
(lp1153
sbsg103
(i__main__
DelphiIdentAccess
p1154
(dp1155
g41
S's1'
p1156
sg101
(lp1157
sbsba(i__main__
DelphiAssignStatement
p1158
(dp1159
g97
(i__main__
DelphiIdentAccess
p1160
(dp1161
g41
S's3'
p1162
sg101
(lp1163
sbsg103
(i__main__
DelphiIdentAccess
p1164
(dp1165
g41
S's2'
p1166
sg101
(lp1167
sbsba(i__main__
DelphiAssignStatement
p1168
(dp1169
g97
(i__main__
DelphiIdentAccess
p1170
(dp1171
g41
S's4'
p1172
sg101
(lp1173
sbsg103
(i__main__
DelphiIdentAccess
p1174
(dp1175
g41
S's3'
p1176
sg101
(lp1177
sbsba(i__main__
DelphiAssignStatement
p1178
(dp1179
g97
(idelphi
DelphiMulOp
p1180
(dp1181
S'signedFactor2'
p1182
(idelphi
DelphiIntegerValue
p1183
(dp1184
g40
S'65536'
p1185
sbsS'mulOp'
p1186
S'mod'
p1187
sS'signedFactor1'
p1188
(i__main__
DelphiIdentAccess
p1189
(dp1190
g41
S'newValue'
p1191
sg101
(lp1192
sbsbsg103
(i__main__
DelphiIdentAccess
p1193
(dp1194
g41
S's4'
p1195
sg101
(lp1196
sbsba(i__main__
DelphiAssignStatement
p1197
(dp1198
g97
(idelphi
DelphiMulOp
p1199
(dp1200
g1182
(idelphi
DelphiIntegerValue
p1201
(dp1202
g40
S'256'
p1203
sbsg1186
g1187
sg1188
(i__main__
DelphiIdentAccess
p1204
(dp1205
g41
S's1'
p1206
sg101
(lp1207
sbsbsg103
(i__main__
DelphiIdentAccess
p1208
(dp1209
g41
S'result'
p1210
sg101
(lp1211
sbsbasbsS'variableReferenceList'
p1212
(lp1213
(i__main__
DelphiIdentAccess
p1214
(dp1215
g41
S'generator'
p1216
sg101
(lp1217
sbasbasbsg1049
(lp1218
(i__main__
DelphiVarSection
p1219
(dp1220
g47
I0
sg1053
(lp1221
(idelphi
DelphiVarDecl
p1222
(dp1223
g37
Nsg1057
(lp1224
S'newValue'
p1225
asg43
(i__main__
DelphiPrimitiveType
p1226
(dp1227
g26
g27
sbsbasbasbsba(i__main__
DelphiProceduralImplementation
p1228
(dp1229
g50
g1228
sg19
S'WarmUp'
p1230
sg52
Nsg53
(lp1231
sg55
(lp1232
S'generator'
p1233
asg57
(lp1234
g1233
asg62
(dp1235
g1233
(i__main__
DelphiNamedType
p1236
(dp1237
g26
S'RegisterStruct'
p1238
sg1069
g1
sg1070
Nsbssg70
(lp1239
(i__main__
DelphiFormalParameter
p1240
(dp1241
g74
Nsg75
(lp1242
g1233
asg43
g1236
sg77
g1113
sbasg85
(lp1243
sg87
(i__main__
DelphiBlock
p1244
(dp1245
g90
(idelphi
DelphiCompoundStatement
p1246
(dp1247
g93
(lp1248
(idelphi
DelphiWithStatement
p1249
(dp1250
g1122
(idelphi
DelphiCompoundStatement
p1251
(dp1252
g93
(lp1253
(idelphi
DelphiForStatement
p1254
(dp1255
S'variable'
p1256
S'i'
sS'finalValue'
p1257
(idelphi
DelphiIntegerValue
p1258
(dp1259
g40
S'897'
p1260
sbsS'direction'
p1261
S'to'
p1262
sg74
(idelphi
DelphiIntegerValue
p1263
(dp1264
g40
S'0'
sbsg1122
(i__main__
DelphiAssignStatement
p1265
(dp1266
g97
Nsg103
(i__main__
DelphiIdentAccess
p1267
(dp1268
g41
S'nextRandom'
p1269
sg101
(lp1270
(idelphi
DelphiFunctionEndAccess
p1271
(dp1272
g120
(lp1273
(i__main__
DelphiIdentAccess
p1274
(dp1275
g41
S'generator'
p1276
sg101
(lp1277
sbasbasbsg301
(lp1278
S' SH 897\r'
p1279
asbsbasbsg1212
(lp1280
(i__main__
DelphiIdentAccess
p1281
(dp1282
g41
S'generator'
p1283
sg101
(lp1284
sbasbasbsg1049
(lp1285
(i__main__
DelphiVarSection
p1286
(dp1287
g47
I0
sg1053
(lp1288
(idelphi
DelphiVarDecl
p1289
(dp1290
g37
Nsg1057
(lp1291
S'i'
asg43
(i__main__
DelphiPrimitiveType
p1292
(dp1293
g26
g27
sbsbasbasbsg301
(lp1294
S' only used to calculate initial seeds\r'
p1295
asba(i__main__
DelphiProceduralImplementation
p1296
(dp1297
g50
g1296
sg19
S'ResetGenerator'
p1298
sg52
Nsg53
(lp1299
sg55
(lp1300
S'generator'
p1301
asg57
(lp1302
g1301
asg62
(dp1303
g1301
(i__main__
DelphiNamedType
p1304
(dp1305
g26
S'RegisterStruct'
p1306
sg1069
g1
sg1070
Nsbssg70
(lp1307
(i__main__
DelphiFormalParameter
p1308
(dp1309
g74
Nsg75
(lp1310
g1301
asg43
g1304
sg77
g1113
sbasg85
(lp1311
sg87
(i__main__
DelphiBlock
p1312
(dp1313
g90
(idelphi
DelphiCompoundStatement
p1314
(dp1315
g93
(lp1316
(idelphi
DelphiWithStatement
p1317
(dp1318
g1122
(idelphi
DelphiCompoundStatement
p1319
(dp1320
g93
(lp1321
(i__main__
DelphiAssignStatement
p1322
(dp1323
g97
(idelphi
DelphiIntegerValue
p1324
(dp1325
g40
S'37903'
p1326
sbsg103
(i__main__
DelphiIdentAccess
p1327
(dp1328
g41
S's1'
p1329
sg101
(lp1330
sbsg301
(lp1331
S' SH   37903 61164  59082  16777\r'
p1332
asba(i__main__
DelphiAssignStatement
p1333
(dp1334
g97
(idelphi
DelphiIntegerValue
p1335
(dp1336
g40
S'61164'
p1337
sbsg103
(i__main__
DelphiIdentAccess
p1338
(dp1339
g41
S's2'
p1340
sg101
(lp1341
sbsba(i__main__
DelphiAssignStatement
p1342
(dp1343
g97
(idelphi
DelphiIntegerValue
p1344
(dp1345
g40
S'59082'
p1346
sbsg103
(i__main__
DelphiIdentAccess
p1347
(dp1348
g41
S's3'
p1349
sg101
(lp1350
sbsba(i__main__
DelphiAssignStatement
p1351
(dp1352
g97
(idelphi
DelphiIntegerValue
p1353
(dp1354
g40
S'16777'
p1355
sbsg103
(i__main__
DelphiIdentAccess
p1356
(dp1357
g41
S's4'
p1358
sg101
(lp1359
sbsbasbsg1212
(lp1360
(i__main__
DelphiIdentAccess
p1361
(dp1362
g41
S'generator'
p1363
sg101
(lp1364
sbasbasbsg1049
(lp1365
sbsba(i__main__
DelphiProceduralImplementation
p1366
(dp1367
g50
g1366
sg19
S'generate'
p1368
sg52
(i__main__
DelphiPrimitiveType
p1369
(dp1370
g26
g40
sbsg53
(lp1371
sg55
(lp1372
sg57
(lp1373
S'name'
p1374
asg62
(dp1375
g1374
(i__main__
DelphiPrimitiveType
p1376
(dp1377
g26
g40
sbssg70
(lp1378
(i__main__
DelphiFormalParameter
p1379
(dp1380
g74
Nsg75
(lp1381
g1374
asg43
g1376
sg77
g78
sbasg85
(lp1382
sg87
(i__main__
DelphiBlock
p1383
(dp1384
g90
(idelphi
DelphiCompoundStatement
p1385
(dp1386
g93
(lp1387
(i__main__
DelphiAssignStatement
p1388
(dp1389
g97
Nsg103
(i__main__
DelphiIdentAccess
p1390
(dp1391
g41
S'ResetGenerator'
p1392
sg101
(lp1393
(idelphi
DelphiFunctionEndAccess
p1394
(dp1395
g120
(lp1396
(i__main__
DelphiIdentAccess
p1397
(dp1398
g41
S'generator'
p1399
sg101
(lp1400
sbasbasbsba(idelphi
DelphiWithStatement
p1401
(dp1402
g1122
(idelphi
DelphiCompoundStatement
p1403
(dp1404
g93
(lp1405
(i__main__
DelphiAssignStatement
p1406
(dp1407
g97
(idelphi
DelphiStringAccess
p1408
(dp1409
g101
(lp1410
sg40
(idelphi
DelphiStringValue
p1411
(dp1412
g40
S''
sbsbsg103
(i__main__
DelphiIdentAccess
p1413
(dp1414
g41
S'result'
p1415
sg101
(lp1416
sbsba(i__main__
DelphiAssignStatement
p1417
(dp1418
g97
(idelphi
DelphiStringAccess
p1419
(dp1420
g101
(lp1421
sg40
(idelphi
DelphiStringValue
p1422
(dp1423
g40
S''
sbsbsg103
(i__main__
DelphiIdentAccess
p1424
(dp1425
g41
S'nameWithOnlyChars'
p1426
sg101
(lp1427
sbsba(i__main__
DelphiAssignStatement
p1428
(dp1429
g97
(i__main__
DelphiIdentAccess
p1430
(dp1431
g41
S'trim'
p1432
sg101
(lp1433
(idelphi
DelphiFunctionEndAccess
p1434
(dp1435
g120
(lp1436
(i__main__
DelphiIdentAccess
p1437
(dp1438
g41
S'lowercase'
p1439
sg101
(lp1440
(idelphi
DelphiFunctionEndAccess
p1441
(dp1442
g120
(lp1443
(i__main__
DelphiIdentAccess
p1444
(dp1445
g41
S'name'
p1446
sg101
(lp1447
sbasbasbasbasbsg103
(i__main__
DelphiIdentAccess
p1448
(dp1449
g41
S'lowerCaseName'
p1450
sg101
(lp1451
sbsba(idelphi
DelphiForStatement
p1452
(dp1453
g1256
S'i'
sg1257
(i__main__
DelphiIdentAccess
p1454
(dp1455
g41
S'length'
p1456
sg101
(lp1457
(idelphi
DelphiFunctionEndAccess
p1458
(dp1459
g120
(lp1460
(i__main__
DelphiIdentAccess
p1461
(dp1462
g41
S'lowerCaseName'
p1463
sg101
(lp1464
sbasbasbsg1261
g1262
sg74
(idelphi
DelphiIntegerValue
p1465
(dp1466
g40
S'1'
sbsg1122
(idelphi
DelphiCompoundStatement
p1467
(dp1468
g93
(lp1469
(idelphi
DelphiIfStatement
p1470
(dp1471
g110
(idelphi
DelphiAddOp
p1472
(dp1473
g234
S'or'
p1474
sg235
(idelphi
DelphiMulOp
p1475
(dp1476
g1182
(idelphi
DelphiNestedExpressionListAccess
p1477
(dp1478
g101
(lp1479
sg120
(lp1480
(idelphi
DelphiRelOp
p1481
(dp1482
g113
(i__main__
DelphiIdentAccess
p1483
(dp1484
g41
S'ord'
p1485
sg101
(lp1486
(idelphi
DelphiFunctionEndAccess
p1487
(dp1488
g120
(lp1489
(i__main__
DelphiIdentAccess
p1490
(dp1491
g41
S'lowerCaseName'
p1492
sg101
(lp1493
(idelphi
DelphiArrayEndAccess
p1494
(dp1495
g120
(lp1496
(i__main__
DelphiIdentAccess
p1497
(dp1498
g41
S'i'
sg101
(lp1499
sbasbasbasbasbsg124
(i__main__
DelphiIdentAccess
p1500
(dp1501
g41
S'ord'
p1502
sg101
(lp1503
(idelphi
DelphiFunctionEndAccess
p1504
(dp1505
g120
(lp1506
(idelphi
DelphiStringAccess
p1507
(dp1508
g101
(lp1509
sg40
(idelphi
DelphiStringValue
p1510
(dp1511
g40
S'9'
sbsbasbasbsg130
S'<='
p1512
sbasbsg1186
S'and'
p1513
sg1188
(idelphi
DelphiNestedExpressionListAccess
p1514
(dp1515
g101
(lp1516
sg120
(lp1517
(idelphi
DelphiRelOp
p1518
(dp1519
g113
(i__main__
DelphiIdentAccess
p1520
(dp1521
g41
S'ord'
p1522
sg101
(lp1523
(idelphi
DelphiFunctionEndAccess
p1524
(dp1525
g120
(lp1526
(i__main__
DelphiIdentAccess
p1527
(dp1528
g41
S'lowerCaseName'
p1529
sg101
(lp1530
(idelphi
DelphiArrayEndAccess
p1531
(dp1532
g120
(lp1533
(i__main__
DelphiIdentAccess
p1534
(dp1535
g41
S'i'
sg101
(lp1536
sbasbasbasbasbsg124
(i__main__
DelphiIdentAccess
p1537
(dp1538
g41
S'ord'
p1539
sg101
(lp1540
(idelphi
DelphiFunctionEndAccess
p1541
(dp1542
g120
(lp1543
(idelphi
DelphiStringAccess
p1544
(dp1545
g101
(lp1546
sg40
(idelphi
DelphiStringValue
p1547
(dp1548
g40
S'0'
sbsbasbasbsg130
S'>='
p1549
sbasbsbsg238
(idelphi
DelphiMulOp
p1550
(dp1551
g1182
(idelphi
DelphiNestedExpressionListAccess
p1552
(dp1553
g101
(lp1554
sg120
(lp1555
(idelphi
DelphiRelOp
p1556
(dp1557
g113
(i__main__
DelphiIdentAccess
p1558
(dp1559
g41
S'ord'
p1560
sg101
(lp1561
(idelphi
DelphiFunctionEndAccess
p1562
(dp1563
g120
(lp1564
(i__main__
DelphiIdentAccess
p1565
(dp1566
g41
S'lowerCaseName'
p1567
sg101
(lp1568
(idelphi
DelphiArrayEndAccess
p1569
(dp1570
g120
(lp1571
(i__main__
DelphiIdentAccess
p1572
(dp1573
g41
S'i'
sg101
(lp1574
sbasbasbasbasbsg124
(i__main__
DelphiIdentAccess
p1575
(dp1576
g41
S'ord'
p1577
sg101
(lp1578
(idelphi
DelphiFunctionEndAccess
p1579
(dp1580
g120
(lp1581
(idelphi
DelphiStringAccess
p1582
(dp1583
g101
(lp1584
sg40
(idelphi
DelphiStringValue
p1585
(dp1586
g40
S'z'
sbsbasbasbsg130
g1512
sbasbsg1186
g1513
sg1188
(idelphi
DelphiNestedExpressionListAccess
p1587
(dp1588
g101
(lp1589
sg120
(lp1590
(idelphi
DelphiRelOp
p1591
(dp1592
g113
(i__main__
DelphiIdentAccess
p1593
(dp1594
g41
S'ord'
p1595
sg101
(lp1596
(idelphi
DelphiFunctionEndAccess
p1597
(dp1598
g120
(lp1599
(i__main__
DelphiIdentAccess
p1600
(dp1601
g41
S'lowerCaseName'
p1602
sg101
(lp1603
(idelphi
DelphiArrayEndAccess
p1604
(dp1605
g120
(lp1606
(i__main__
DelphiIdentAccess
p1607
(dp1608
g41
S'i'
sg101
(lp1609
sbasbasbasbasbsg124
(i__main__
DelphiIdentAccess
p1610
(dp1611
g41
S'ord'
p1612
sg101
(lp1613
(idelphi
DelphiFunctionEndAccess
p1614
(dp1615
g120
(lp1616
(idelphi
DelphiStringAccess
p1617
(dp1618
g101
(lp1619
sg40
(idelphi
DelphiStringValue
p1620
(dp1621
g40
S'a'
sbsbasbasbsg130
g1549
sbasbsbsbsg131
Nsg142
(i__main__
DelphiAssignStatement
p1622
(dp1623
g97
(idelphi
DelphiAddOp
p1624
(dp1625
g234
S'+'
sg235
(i__main__
DelphiIdentAccess
p1626
(dp1627
g41
S'lowerCaseName'
p1628
sg101
(lp1629
(idelphi
DelphiArrayEndAccess
p1630
(dp1631
g120
(lp1632
(i__main__
DelphiIdentAccess
p1633
(dp1634
g41
S'i'
sg101
(lp1635
sbasbasbsg238
(i__main__
DelphiIdentAccess
p1636
(dp1637
g41
S'nameWithOnlyChars'
p1638
sg101
(lp1639
sbsbsg103
(i__main__
DelphiIdentAccess
p1640
(dp1641
g41
S'nameWithOnlyChars'
p1642
sg101
(lp1643
sbsbsbasbsba(i__main__
DelphiAssignStatement
p1644
(dp1645
g97
(i__main__
DelphiIdentAccess
p1646
(dp1647
g41
S'nameWithOnlyChars'
p1648
sg101
(lp1649
sbsg103
(i__main__
DelphiIdentAccess
p1650
(dp1651
g41
S'remainingLetters'
p1652
sg101
(lp1653
sbsba(i__main__
DelphiAssignStatement
p1654
(dp1655
g97
(idelphi
DelphiStringAccess
p1656
(dp1657
g101
(lp1658
sg40
(idelphi
DelphiStringValue
p1659
(dp1660
g40
S''
sbsbsg103
(i__main__
DelphiIdentAccess
p1661
(dp1662
g41
S'reorganizedName'
p1663
sg101
(lp1664
sbsba(idelphi
DelphiForStatement
p1665
(dp1666
g1256
S'i'
sg1257
(i__main__
DelphiIdentAccess
p1667
(dp1668
g41
S'length'
p1669
sg101
(lp1670
(idelphi
DelphiFunctionEndAccess
p1671
(dp1672
g120
(lp1673
(i__main__
DelphiIdentAccess
p1674
(dp1675
g41
S'nameWithOnlyChars'
p1676
sg101
(lp1677
sbasbasbsg1261
g1262
sg74
(idelphi
DelphiIntegerValue
p1678
(dp1679
g40
S'1'
sbsg1122
(idelphi
DelphiCompoundStatement
p1680
(dp1681
g93
(lp1682
(i__main__
DelphiAssignStatement
p1683
(dp1684
g97
(i__main__
DelphiIdentAccess
p1685
(dp1686
g41
S'nameWithOnlyChars'
p1687
sg101
(lp1688
(idelphi
DelphiArrayEndAccess
p1689
(dp1690
g120
(lp1691
(idelphi
DelphiAddOp
p1692
(dp1693
g234
S'-'
sg235
(i__main__
DelphiIdentAccess
p1694
(dp1695
g41
S'i'
sg101
(lp1696
sbsg238
(idelphi
DelphiAddOp
p1697
(dp1698
g234
S'+'
sg235
(idelphi
DelphiIntegerValue
p1699
(dp1700
g40
S'1'
sbsg238
(i__main__
DelphiIdentAccess
p1701
(dp1702
g41
S'length'
p1703
sg101
(lp1704
(idelphi
DelphiFunctionEndAccess
p1705
(dp1706
g120
(lp1707
(i__main__
DelphiIdentAccess
p1708
(dp1709
g41
S'nameWithOnlyChars'
p1710
sg101
(lp1711
sbasbasbsbsbasbasbsg103
(i__main__
DelphiIdentAccess
p1712
(dp1713
g41
S'letter'
p1714
sg101
(lp1715
sbsba(idelphi
DelphiForStatement
p1716
(dp1717
g1256
S'j'
sg1257
(idelphi
DelphiNestedExpressionListAccess
p1718
(dp1719
g101
(lp1720
sg120
(lp1721
(i__main__
DelphiIdentAccess
p1722
(dp1723
g41
S'ord'
p1724
sg101
(lp1725
(idelphi
DelphiFunctionEndAccess
p1726
(dp1727
g120
(lp1728
(i__main__
DelphiIdentAccess
p1729
(dp1730
g41
S'letter'
p1731
sg101
(lp1732
sbasbasbasbsg1261
g1262
sg74
(idelphi
DelphiIntegerValue
p1733
(dp1734
g40
S'0'
sbsg1122
(i__main__
DelphiAssignStatement
p1735
(dp1736
g97
Nsg103
(i__main__
DelphiIdentAccess
p1737
(dp1738
g41
S'nextRandom'
p1739
sg101
(lp1740
(idelphi
DelphiFunctionEndAccess
p1741
(dp1742
g120
(lp1743
(i__main__
DelphiIdentAccess
p1744
(dp1745
g41
S'generator'
p1746
sg101
(lp1747
sbasbasbsg301
(lp1748
S'  + i * 7\r'
p1749
asbsba(i__main__
DelphiAssignStatement
p1750
(dp1751
g97
(i__main__
DelphiIdentAccess
p1752
(dp1753
g41
S'nextRandom'
p1754
sg101
(lp1755
(idelphi
DelphiFunctionEndAccess
p1756
(dp1757
g120
(lp1758
(i__main__
DelphiIdentAccess
p1759
(dp1760
g41
S'generator'
p1761
sg101
(lp1762
sbasbasbsg103
(i__main__
DelphiIdentAccess
p1763
(dp1764
g41
S'n'
sg101
(lp1765
sbsba(i__main__
DelphiAssignStatement
p1766
(dp1767
g97
(idelphi
DelphiMulOp
p1768
(dp1769
g1182
(i__main__
DelphiIdentAccess
p1770
(dp1771
g41
S'length'
p1772
sg101
(lp1773
(idelphi
DelphiFunctionEndAccess
p1774
(dp1775
g120
(lp1776
(i__main__
DelphiIdentAccess
p1777
(dp1778
g41
S'remainingLetters'
p1779
sg101
(lp1780
sbasbasbsg1186
g1187
sg1188
(i__main__
DelphiIdentAccess
p1781
(dp1782
g41
S'n'
sg101
(lp1783
sbsbsg103
(i__main__
DelphiIdentAccess
p1784
(dp1785
g41
S'nmod'
p1786
sg101
(lp1787
sbsba(i__main__
DelphiAssignStatement
p1788
(dp1789
g97
(idelphi
DelphiAddOp
p1790
(dp1791
g234
S'+'
sg235
(i__main__
DelphiIdentAccess
p1792
(dp1793
g41
S'remainingLetters'
p1794
sg101
(lp1795
(idelphi
DelphiArrayEndAccess
p1796
(dp1797
g120
(lp1798
(idelphi
DelphiAddOp
p1799
(dp1800
g234
S'+'
sg235
(idelphi
DelphiIntegerValue
p1801
(dp1802
g40
S'1'
sbsg238
(i__main__
DelphiIdentAccess
p1803
(dp1804
g41
S'nmod'
p1805
sg101
(lp1806
sbsbasbasbsg238
(i__main__
DelphiIdentAccess
p1807
(dp1808
g41
S'reorganizedName'
p1809
sg101
(lp1810
sbsbsg103
(i__main__
DelphiIdentAccess
p1811
(dp1812
g41
S'reorganizedName'
p1813
sg101
(lp1814
sbsba(i__main__
DelphiAssignStatement
p1815
(dp1816
g97
Nsg103
(i__main__
DelphiIdentAccess
p1817
(dp1818
g41
S'Delete'
p1819
sg101
(lp1820
(idelphi
DelphiFunctionEndAccess
p1821
(dp1822
g120
(lp1823
(i__main__
DelphiIdentAccess
p1824
(dp1825
g41
S'remainingLetters'
p1826
sg101
(lp1827
sba(idelphi
DelphiAddOp
p1828
(dp1829
g234
S'+'
sg235
(idelphi
DelphiIntegerValue
p1830
(dp1831
g40
S'1'
sbsg238
(i__main__
DelphiIdentAccess
p1832
(dp1833
g41
S'nmod'
p1834
sg101
(lp1835
sbsba(idelphi
DelphiIntegerValue
p1836
(dp1837
g40
S'1'
sbasbasbsbasbsba(idelphi
DelphiForStatement
p1838
(dp1839
g1256
S'i'
sg1257
(idelphi
DelphiAddOp
p1840
(dp1841
g234
S'-'
sg235
(idelphi
DelphiIntegerValue
p1842
(dp1843
g40
S'1'
sbsg238
(i__main__
DelphiIdentAccess
p1844
(dp1845
g41
S'codeArraySize'
p1846
sg101
(lp1847
sbsbsg1261
g1262
sg74
(idelphi
DelphiIntegerValue
p1848
(dp1849
g40
S'0'
sbsg1122
(i__main__
DelphiAssignStatement
p1850
(dp1851
g97
(i__main__
DelphiIdentAccess
p1852
(dp1853
g41
S'nextRandom'
p1854
sg101
(lp1855
(idelphi
DelphiFunctionEndAccess
p1856
(dp1857
g120
(lp1858
(i__main__
DelphiIdentAccess
p1859
(dp1860
g41
S'generator'
p1861
sg101
(lp1862
sbasbasbsg103
(i__main__
DelphiIdentAccess
p1863
(dp1864
g41
S'codeArray'
p1865
sg101
(lp1866
(idelphi
DelphiArrayEndAccess
p1867
(dp1868
g120
(lp1869
(i__main__
DelphiIdentAccess
p1870
(dp1871
g41
S'i'
sg101
(lp1872
sbasbasbsbsba(idelphi
DelphiForStatement
p1873
(dp1874
g1256
S'i'
sg1257
(i__main__
DelphiIdentAccess
p1875
(dp1876
g41
S'length'
p1877
sg101
(lp1878
(idelphi
DelphiFunctionEndAccess
p1879
(dp1880
g120
(lp1881
(i__main__
DelphiIdentAccess
p1882
(dp1883
g41
S'reorganizedName'
p1884
sg101
(lp1885
sbasbasbsg1261
g1262
sg74
(idelphi
DelphiIntegerValue
p1886
(dp1887
g40
S'1'
sbsg1122
(idelphi
DelphiCompoundStatement
p1888
(dp1889
g93
(lp1890
(i__main__
DelphiAssignStatement
p1891
(dp1892
g97
(i__main__
DelphiIdentAccess
p1893
(dp1894
g41
S'reorganizedName'
p1895
sg101
(lp1896
(idelphi
DelphiArrayEndAccess
p1897
(dp1898
g120
(lp1899
(idelphi
DelphiAddOp
p1900
(dp1901
g234
S'-'
sg235
(i__main__
DelphiIdentAccess
p1902
(dp1903
g41
S'i'
sg101
(lp1904
sbsg238
(idelphi
DelphiAddOp
p1905
(dp1906
g234
S'+'
sg235
(idelphi
DelphiIntegerValue
p1907
(dp1908
g40
S'1'
sbsg238
(i__main__
DelphiIdentAccess
p1909
(dp1910
g41
S'length'
p1911
sg101
(lp1912
(idelphi
DelphiFunctionEndAccess
p1913
(dp1914
g120
(lp1915
(i__main__
DelphiIdentAccess
p1916
(dp1917
g41
S'reorganizedName'
p1918
sg101
(lp1919
sbasbasbsbsbasbasbsg103
(i__main__
DelphiIdentAccess
p1920
(dp1921
g41
S'letter'
p1922
sg101
(lp1923
sbsba(idelphi
DelphiIfStatement
p1924
(dp1925
g110
(idelphi
DelphiRelOp
p1926
(dp1927
g113
(i__main__
DelphiIdentAccess
p1928
(dp1929
g41
S'letter'
p1930
sg101
(lp1931
sbsg124
(idelphi
DelphiStringAccess
p1932
(dp1933
g101
(lp1934
sg40
(idelphi
DelphiStringValue
p1935
(dp1936
g40
S' '
sbsbsg130
S'='
sbsg131
Nsg142
(idelphi
DelphiContinueStatement
p1937
(dp1938
bsba(idelphi
DelphiForStatement
p1939
(dp1940
g1256
S'j'
sg1257
(idelphi
DelphiNestedExpressionListAccess
p1941
(dp1942
g101
(lp1943
sg120
(lp1944
(i__main__
DelphiIdentAccess
p1945
(dp1946
g41
S'ord'
p1947
sg101
(lp1948
(idelphi
DelphiFunctionEndAccess
p1949
(dp1950
g120
(lp1951
(i__main__
DelphiIdentAccess
p1952
(dp1953
g41
S'letter'
p1954
sg101
(lp1955
sbasbasbasbsg1261
g1262
sg74
(idelphi
DelphiIntegerValue
p1956
(dp1957
g40
S'0'
sbsg1122
(i__main__
DelphiAssignStatement
p1958
(dp1959
g97
Nsg103
(i__main__
DelphiIdentAccess
p1960
(dp1961
g41
S'nextRandom'
p1962
sg101
(lp1963
(idelphi
DelphiFunctionEndAccess
p1964
(dp1965
g120
(lp1966
(i__main__
DelphiIdentAccess
p1967
(dp1968
g41
S'generator'
p1969
sg101
(lp1970
sbasbasbsg301
(lp1971
S'  + i * 7\r'
p1972
asbsba(i__main__
DelphiAssignStatement
p1973
(dp1974
g97
(i__main__
DelphiIdentAccess
p1975
(dp1976
g41
S'nextRandom'
p1977
sg101
(lp1978
(idelphi
DelphiFunctionEndAccess
p1979
(dp1980
g120
(lp1981
(i__main__
DelphiIdentAccess
p1982
(dp1983
g41
S'generator'
p1984
sg101
(lp1985
sbasbasbsg103
(i__main__
DelphiIdentAccess
p1986
(dp1987
g41
S'n'
sg101
(lp1988
sbsba(i__main__
DelphiAssignStatement
p1989
(dp1990
g97
(idelphi
DelphiMulOp
p1991
(dp1992
g1182
(idelphi
DelphiIntegerValue
p1993
(dp1994
g40
S'10'
p1995
sbsg1186
g1187
sg1188
(i__main__
DelphiIdentAccess
p1996
(dp1997
g41
S'n'
sg101
(lp1998
sbsbsg103
(i__main__
DelphiIdentAccess
p1999
(dp2000
g41
S'nmod'
p2001
sg101
(lp2002
sbsba(i__main__
DelphiAssignStatement
p2003
(dp2004
g97
(idelphi
DelphiAddOp
p2005
(dp2006
g234
S'+'
sg235
(i__main__
DelphiIdentAccess
p2007
(dp2008
g41
S'nmod'
p2009
sg101
(lp2010
sbsg238
(i__main__
DelphiIdentAccess
p2011
(dp2012
g41
S'codeArray'
p2013
sg101
(lp2014
(idelphi
DelphiArrayEndAccess
p2015
(dp2016
g120
(lp2017
(idelphi
DelphiMulOp
p2018
(dp2019
g1182
(i__main__
DelphiIdentAccess
p2020
(dp2021
g41
S'codeArraySize'
p2022
sg101
(lp2023
sbsg1186
g1187
sg1188
(i__main__
DelphiIdentAccess
p2024
(dp2025
g41
S'i'
sg101
(lp2026
sbsbasbasbsbsg103
(i__main__
DelphiIdentAccess
p2027
(dp2028
g41
S'codeArray'
p2029
sg101
(lp2030
(idelphi
DelphiArrayEndAccess
p2031
(dp2032
g120
(lp2033
(idelphi
DelphiMulOp
p2034
(dp2035
g1182
(i__main__
DelphiIdentAccess
p2036
(dp2037
g41
S'codeArraySize'
p2038
sg101
(lp2039
sbsg1186
g1187
sg1188
(i__main__
DelphiIdentAccess
p2040
(dp2041
g41
S'i'
sg101
(lp2042
sbsbasbasbsbasbsba(i__main__
DelphiAssignStatement
p2043
(dp2044
g97
(idelphi
DelphiStringAccess
p2045
(dp2046
g101
(lp2047
sg40
(idelphi
DelphiStringValue
p2048
(dp2049
g40
S'3'
sbsbsg103
(i__main__
DelphiIdentAccess
p2050
(dp2051
g41
S'result'
p2052
sg101
(lp2053
sbsba(idelphi
DelphiForStatement
p2054
(dp2055
g1256
S'i'
sg1257
(idelphi
DelphiAddOp
p2056
(dp2057
g234
S'-'
sg235
(idelphi
DelphiIntegerValue
p2058
(dp2059
g40
S'1'
sbsg238
(i__main__
DelphiIdentAccess
p2060
(dp2061
g41
S'codeArraySize'
p2062
sg101
(lp2063
sbsbsg1261
g1262
sg74
(idelphi
DelphiIntegerValue
p2064
(dp2065
g40
S'0'
sbsg1122
(i__main__
DelphiAssignStatement
p2066
(dp2067
g97
(idelphi
DelphiAddOp
p2068
(dp2069
g234
S'+'
sg235
(i__main__
DelphiIdentAccess
p2070
(dp2071
g41
S'chr'
p2072
sg101
(lp2073
(idelphi
DelphiFunctionEndAccess
p2074
(dp2075
g120
(lp2076
(idelphi
DelphiAddOp
p2077
(dp2078
g234
S'+'
sg235
(idelphi
DelphiNestedExpressionListAccess
p2079
(dp2080
g101
(lp2081
sg120
(lp2082
(idelphi
DelphiMulOp
p2083
(dp2084
g1182
(idelphi
DelphiIntegerValue
p2085
(dp2086
g40
S'10'
p2087
sbsg1186
g1187
sg1188
(i__main__
DelphiIdentAccess
p2088
(dp2089
g41
S'codeArray'
p2090
sg101
(lp2091
(idelphi
DelphiArrayEndAccess
p2092
(dp2093
g120
(lp2094
(i__main__
DelphiIdentAccess
p2095
(dp2096
g41
S'i'
sg101
(lp2097
sbasbasbsbasbsg238
(i__main__
DelphiIdentAccess
p2098
(dp2099
g41
S'ord'
p2100
sg101
(lp2101
(idelphi
DelphiFunctionEndAccess
p2102
(dp2103
g120
(lp2104
(idelphi
DelphiStringAccess
p2105
(dp2106
g101
(lp2107
sg40
(idelphi
DelphiStringValue
p2108
(dp2109
g40
S'0'
sbsbasbasbsbasbasbsg238
(i__main__
DelphiIdentAccess
p2110
(dp2111
g41
S'result'
p2112
sg101
(lp2113
sbsbsg103
(i__main__
DelphiIdentAccess
p2114
(dp2115
g41
S'result'
p2116
sg101
(lp2117
sbsbsbasbsg1212
(lp2118
(i__main__
DelphiIdentAccess
p2119
(dp2120
g41
S'generator'
p2121
sg101
(lp2122
sbasbasbsg1049
(lp2123
(i__main__
DelphiVarSection
p2124
(dp2125
g47
I0
sg1053
(lp2126
(idelphi
DelphiVarDecl
p2127
(dp2128
g37
Nsg1057
(lp2129
S'i'
aS'j'
asg43
(i__main__
DelphiPrimitiveType
p2130
(dp2131
g26
g27
sbsba(idelphi
DelphiVarDecl
p2132
(dp2133
g37
Nsg1057
(lp2134
S'n'
aS'nmod'
p2135
asg43
(i__main__
DelphiPrimitiveType
p2136
(dp2137
g26
g27
sbsba(idelphi
DelphiVarDecl
p2138
(dp2139
g37
Nsg1057
(lp2140
S'letter'
p2141
asg43
(i__main__
DelphiPrimitiveType
p2142
(dp2143
g26
S'char'
p2144
sbsba(idelphi
DelphiVarDecl
p2145
(dp2146
g37
Nsg1057
(lp2147
S'reorganizedName'
p2148
asg43
(i__main__
DelphiPrimitiveType
p2149
(dp2150
g26
g40
sbsba(idelphi
DelphiVarDecl
p2151
(dp2152
g37
Nsg1057
(lp2153
S'remainingLetters'
p2154
asg43
(i__main__
DelphiPrimitiveType
p2155
(dp2156
g26
g40
sbsba(idelphi
DelphiVarDecl
p2157
(dp2158
g37
Nsg1057
(lp2159
S'nameWithOnlyChars'
p2160
asg43
(i__main__
DelphiPrimitiveType
p2161
(dp2162
g26
g40
sbsba(idelphi
DelphiVarDecl
p2163
(dp2164
g37
Nsg1057
(lp2165
S'lowerCaseName'
p2166
asg43
(i__main__
DelphiPrimitiveType
p2167
(dp2168
g26
g40
sbsba(idelphi
DelphiVarDecl
p2169
(dp2170
g37
Nsg1057
(lp2171
S'codeArray'
p2172
asg43
(i__main__
DelphiArrayType
p2173
(dp2174
g43
(i__main__
DelphiPrimitiveType
p2175
(dp2176
g26
g27
sbsS'sizes'
p2177
(lp2178
(idelphi
DelphiSubrange
p2179
(dp2180
S'high'
p2181
(idelphi
DelphiConstExpressionList
p2182
(dp2183
g120
(lp2184
(idelphi
DelphiAddOp
p2185
(dp2186
g234
S'-'
sg235
(idelphi
DelphiIntegerValue
p2187
(dp2188
g40
S'1'
sbsg238
(i__main__
DelphiIdentAccess
p2189
(dp2190
g41
S'codeArraySize'
p2191
sg101
(lp2192
sbsbasbsS'low'
p2193
(idelphi
DelphiIntegerValue
p2194
(dp2195
g40
S'0'
sbsg19
S''
sbasbsba(idelphi
DelphiVarDecl
p2196
(dp2197
g37
Nsg1057
(lp2198
S'generator'
p2199
asg43
(i__main__
DelphiNamedType
p2200
(dp2201
g26
S'RegisterStruct'
p2202
sg1069
g1
sg1070
Nsbsbasbasbsg301
(lp2203
S' Maybe PS ??? 234    34432    4356   7\r'
p2204
asba(i__main__
DelphiProceduralImplementation
p2205
(dp2206
g50
(i__main__
DelphiProceduralDeclaration
p2207
(dp2208
g70
(lp2209
sg19
S'GenerateFromCommandLine'
p2210
sg52
Nsbsg19
g2210
sg52
Nsg53
(lp2211
sg55
(lp2212
sg57
(lp2213
sg62
(dp2214
sg70
(lp2215
sg85
(lp2216
sg87
(i__main__
DelphiBlock
p2217
(dp2218
g90
(idelphi
DelphiCompoundStatement
p2219
(dp2220
g93
(lp2221
(idelphi
DelphiIfStatement
p2222
(dp2223
g110
(idelphi
DelphiRelOp
p2224
(dp2225
g113
(i__main__
DelphiIdentAccess
p2226
(dp2227
g41
S'ParamCount'
p2228
sg101
(lp2229
sbsg124
(idelphi
DelphiIntegerValue
p2230
(dp2231
g40
S'2'
sbsg130
g997
sbsg131
Nsg142
(idelphi
DelphiCompoundStatement
p2232
(dp2233
g93
(lp2234
(i__main__
DelphiAssignStatement
p2235
(dp2236
g97
Nsg103
(i__main__
DelphiIdentAccess
p2237
(dp2238
g41
S'ShowMessage'
p2239
sg101
(lp2240
(idelphi
DelphiFunctionEndAccess
p2241
(dp2242
g120
(lp2243
(idelphi
DelphiAddOp
p2244
(dp2245
g234
S'+'
sg235
(idelphi
DelphiStringAccess
p2246
(dp2247
g101
(lp2248
sg40
(idelphi
DelphiStringValue
p2249
(dp2250
g40
S'for StoryHarp users who have paid a registration fee.'
p2251
sbsbsg238
(idelphi
DelphiAddOp
p2252
(dp2253
g234
S'+'
sg235
(i__main__
DelphiIdentAccess
p2254
(dp2255
g41
S'chr'
p2256
sg101
(lp2257
(idelphi
DelphiFunctionEndAccess
p2258
(dp2259
g120
(lp2260
(idelphi
DelphiIntegerValue
p2261
(dp2262
g40
S'13'
p2263
sbasbasbsg238
(idelphi
DelphiAddOp
p2264
(dp2265
g234
S'+'
sg235
(idelphi
DelphiStringAccess
p2266
(dp2267
g101
(lp2268
sg40
(idelphi
DelphiStringValue
p2269
(dp2270
g40
S'at the Public Software Library (PsL) for generation of keys '
p2271
sbsbsg238
(idelphi
DelphiAddOp
p2272
(dp2273
g234
S'+'
sg235
(i__main__
DelphiIdentAccess
p2274
(dp2275
g41
S'chr'
p2276
sg101
(lp2277
(idelphi
DelphiFunctionEndAccess
p2278
(dp2279
g120
(lp2280
(idelphi
DelphiIntegerValue
p2281
(dp2282
g40
S'13'
p2283
sbasbasbsg238
(idelphi
DelphiAddOp
p2284
(dp2285
g234
S'+'
sg235
(idelphi
DelphiStringAccess
p2286
(dp2287
g101
(lp2288
sg40
(idelphi
DelphiStringValue
p2289
(dp2290
g40
S'and is intended only for use only by the Nelson Ford and his staff'
p2291
sbsbsg238
(idelphi
DelphiAddOp
p2292
(dp2293
g234
S'+'
sg235
(i__main__
DelphiIdentAccess
p2294
(dp2295
g41
S'chr'
p2296
sg101
(lp2297
(idelphi
DelphiFunctionEndAccess
p2298
(dp2299
g120
(lp2300
(idelphi
DelphiIntegerValue
p2301
(dp2302
g40
S'13'
p2303
sbasbasbsg238
(idelphi
DelphiAddOp
p2304
(dp2305
g234
S'+'
sg235
(idelphi
DelphiStringAccess
p2306
(dp2307
g101
(lp2308
sg40
(idelphi
DelphiStringValue
p2309
(dp2310
g40
S'This key generator is confidential intellectual property of the authors'
p2311
sbsbsg238
(idelphi
DelphiAddOp
p2312
(dp2313
g234
S'+'
sg235
(i__main__
DelphiIdentAccess
p2314
(dp2315
g41
S'chr'
p2316
sg101
(lp2317
(idelphi
DelphiFunctionEndAccess
p2318
(dp2319
g120
(lp2320
(idelphi
DelphiIntegerValue
p2321
(dp2322
g40
S'13'
p2323
sbasbasbsg238
(idelphi
DelphiAddOp
p2324
(dp2325
g234
S'+'
sg235
(idelphi
DelphiStringAccess
p2326
(dp2327
g101
(lp2328
sg40
(idelphi
DelphiStringValue
p2329
(dp2330
g40
S'This program is Copyright 1998 Paul D. Fernhout and Cynthia F. Kurtz'
p2331
sbsbsg238
(idelphi
DelphiAddOp
p2332
(dp2333
g234
S'+'
sg235
(i__main__
DelphiIdentAccess
p2334
(dp2335
g41
S'chr'
p2336
sg101
(lp2337
(idelphi
DelphiFunctionEndAccess
p2338
(dp2339
g120
(lp2340
(idelphi
DelphiIntegerValue
p2341
(dp2342
g40
S'13'
p2343
sbasbasbsg238
(idelphi
DelphiAddOp
p2344
(dp2345
g234
S'+'
sg235
(i__main__
DelphiIdentAccess
p2346
(dp2347
g41
S'chr'
p2348
sg101
(lp2349
(idelphi
DelphiFunctionEndAccess
p2350
(dp2351
g120
(lp2352
(idelphi
DelphiIntegerValue
p2353
(dp2354
g40
S'13'
p2355
sbasbasbsg238
(idelphi
DelphiAddOp
p2356
(dp2357
g234
S'+'
sg235
(idelphi
DelphiStringAccess
p2358
(dp2359
g101
(lp2360
sg40
(idelphi
DelphiStringValue
p2361
(dp2362
g40
S'(unless you have disabled that warning as explained on that dialog).'
p2363
sbsbsg238
(idelphi
DelphiAddOp
p2364
(dp2365
g234
S'+'
sg235
(i__main__
DelphiIdentAccess
p2366
(dp2367
g41
S'chr'
p2368
sg101
(lp2369
(idelphi
DelphiFunctionEndAccess
p2370
(dp2371
g120
(lp2372
(idelphi
DelphiIntegerValue
p2373
(dp2374
g40
S'13'
p2375
sbasbasbsg238
(idelphi
DelphiAddOp
p2376
(dp2377
g234
S'+'
sg235
(idelphi
DelphiStringAccess
p2378
(dp2379
g101
(lp2380
sg40
(idelphi
DelphiStringValue
p2381
(dp2382
g40
S'a warning dialog will pop-up requiring OK or Cancel to be pressed.'
p2383
sbsbsg238
(idelphi
DelphiAddOp
p2384
(dp2385
g234
S'+'
sg235
(i__main__
DelphiIdentAccess
p2386
(dp2387
g41
S'chr'
p2388
sg101
(lp2389
(idelphi
DelphiFunctionEndAccess
p2390
(dp2391
g120
(lp2392
(idelphi
DelphiIntegerValue
p2393
(dp2394
g40
S'13'
p2395
sbasbasbsg238
(idelphi
DelphiAddOp
p2396
(dp2397
g234
S'+'
sg235
(idelphi
DelphiStringAccess
p2398
(dp2399
g101
(lp2400
sg40
(idelphi
DelphiStringValue
p2401
(dp2402
g40
S'If for some reason the output file exists when the program is started'
p2403
sbsbsg238
(idelphi
DelphiAddOp
p2404
(dp2405
g234
S'+'
sg235
(i__main__
DelphiIdentAccess
p2406
(dp2407
g41
S'chr'
p2408
sg101
(lp2409
(idelphi
DelphiFunctionEndAccess
p2410
(dp2411
g120
(lp2412
(idelphi
DelphiIntegerValue
p2413
(dp2414
g40
S'13'
p2415
sbasbasbsg238
(idelphi
DelphiAddOp
p2416
(dp2417
g234
S'+'
sg235
(idelphi
DelphiStringAccess
p2418
(dp2419
g101
(lp2420
sg40
(idelphi
DelphiStringValue
p2421
(dp2422
g40
S'This program operates under the expectation the output file does not exist.'
p2423
sbsbsg238
(idelphi
DelphiAddOp
p2424
(dp2425
g234
S'+'
sg235
(i__main__
DelphiIdentAccess
p2426
(dp2427
g41
S'chr'
p2428
sg101
(lp2429
(idelphi
DelphiFunctionEndAccess
p2430
(dp2431
g120
(lp2432
(idelphi
DelphiIntegerValue
p2433
(dp2434
g40
S'13'
p2435
sbasbasbsg238
(idelphi
DelphiAddOp
p2436
(dp2437
g234
S'+'
sg235
(i__main__
DelphiIdentAccess
p2438
(dp2439
g41
S'chr'
p2440
sg101
(lp2441
(idelphi
DelphiFunctionEndAccess
p2442
(dp2443
g120
(lp2444
(idelphi
DelphiIntegerValue
p2445
(dp2446
g40
S'13'
p2447
sbasbasbsg238
(idelphi
DelphiAddOp
p2448
(dp2449
g234
S'+'
sg235
(idelphi
DelphiStringAccess
p2450
(dp2451
g101
(lp2452
sg40
(idelphi
DelphiStringValue
p2453
(dp2454
g40
S'Contact us at http://www.kurtz-fernhout.com for details'
p2455
sbsbsg238
(idelphi
DelphiAddOp
p2456
(dp2457
g234
S'+'
sg235
(i__main__
DelphiIdentAccess
p2458
(dp2459
g41
S'chr'
p2460
sg101
(lp2461
(idelphi
DelphiFunctionEndAccess
p2462
(dp2463
g120
(lp2464
(idelphi
DelphiIntegerValue
p2465
(dp2466
g40
S'13'
p2467
sbasbasbsg238
(idelphi
DelphiAddOp
p2468
(dp2469
g234
S'+'
sg235
(i__main__
DelphiIdentAccess
p2470
(dp2471
g41
S'chr'
p2472
sg101
(lp2473
(idelphi
DelphiFunctionEndAccess
p2474
(dp2475
g120
(lp2476
(idelphi
DelphiIntegerValue
p2477
(dp2478
g40
S'13'
p2479
sbasbasbsg238
(idelphi
DelphiAddOp
p2480
(dp2481
g234
S'+'
sg235
(idelphi
DelphiStringAccess
p2482
(dp2483
g101
(lp2484
sg40
(idelphi
DelphiStringValue
p2485
(dp2486
g40
S' "Joe User"  "C:\\temp\\dir with spaces\\regfile.txt"'
p2487
sbsbsg238
(idelphi
DelphiAddOp
p2488
(dp2489
g234
S'+'
sg235
(i__main__
DelphiIdentAccess
p2490
(dp2491
g41
S'ExtractFileName'
p2492
sg101
(lp2493
(idelphi
DelphiFunctionEndAccess
p2494
(dp2495
g120
(lp2496
(i__main__
DelphiIdentAccess
p2497
(dp2498
g41
S'Application'
p2499
sg101
(lp2500
(idelphi
DelphiFieldEndAccess
p2501
(dp2502
g416
S'ExeName'
p2503
sbasbasbasbsg238
(idelphi
DelphiAddOp
p2504
(dp2505
g234
S'+'
sg235
(idelphi
DelphiStringAccess
p2506
(dp2507
g101
(lp2508
sg40
(idelphi
DelphiStringValue
p2509
(dp2510
g40
S'Example: '
p2511
sbsbsg238
(idelphi
DelphiAddOp
p2512
(dp2513
g234
S'+'
sg235
(i__main__
DelphiIdentAccess
p2514
(dp2515
g41
S'chr'
p2516
sg101
(lp2517
(idelphi
DelphiFunctionEndAccess
p2518
(dp2519
g120
(lp2520
(idelphi
DelphiIntegerValue
p2521
(dp2522
g40
S'13'
p2523
sbasbasbsg238
(idelphi
DelphiAddOp
p2524
(dp2525
g234
S'+'
sg235
(i__main__
DelphiIdentAccess
p2526
(dp2527
g41
S'chr'
p2528
sg101
(lp2529
(idelphi
DelphiFunctionEndAccess
p2530
(dp2531
g120
(lp2532
(idelphi
DelphiIntegerValue
p2533
(dp2534
g40
S'13'
p2535
sbasbasbsg238
(idelphi
DelphiAddOp
p2536
(dp2537
g234
S'+'
sg235
(idelphi
DelphiStringAccess
p2538
(dp2539
g101
(lp2540
sg40
(idelphi
DelphiStringValue
p2541
(dp2542
g40
S'must be surrounded by double quotes.'
p2543
sbsbsg238
(idelphi
DelphiAddOp
p2544
(dp2545
g234
S'+'
sg235
(i__main__
DelphiIdentAccess
p2546
(dp2547
g41
S'chr'
p2548
sg101
(lp2549
(idelphi
DelphiFunctionEndAccess
p2550
(dp2551
g120
(lp2552
(idelphi
DelphiIntegerValue
p2553
(dp2554
g40
S'13'
p2555
sbasbasbsg238
(idelphi
DelphiAddOp
p2556
(dp2557
g234
S'+'
sg235
(idelphi
DelphiStringAccess
p2558
(dp2559
g101
(lp2560
sg40
(idelphi
DelphiStringValue
p2561
(dp2562
g40
S'Arguments that can have embedded spaces like the user name'
p2563
sbsbsg238
(idelphi
DelphiAddOp
p2564
(dp2565
g234
S'+'
sg235
(i__main__
DelphiIdentAccess
p2566
(dp2567
g41
S'chr'
p2568
sg101
(lp2569
(idelphi
DelphiFunctionEndAccess
p2570
(dp2571
g120
(lp2572
(idelphi
DelphiIntegerValue
p2573
(dp2574
g40
S'13'
p2575
sbasbasbsg238
(idelphi
DelphiAddOp
p2576
(dp2577
g234
S'+'
sg235
(idelphi
DelphiStringAccess
p2578
(dp2579
g101
(lp2580
sg40
(idelphi
DelphiStringValue
p2581
(dp2582
g40
S'The first is the user name, and the second is the name of a text file to store the code in.'
p2583
sbsbsg238
(idelphi
DelphiAddOp
p2584
(dp2585
g234
S'+'
sg235
(i__main__
DelphiIdentAccess
p2586
(dp2587
g41
S'chr'
p2588
sg101
(lp2589
(idelphi
DelphiFunctionEndAccess
p2590
(dp2591
g120
(lp2592
(idelphi
DelphiIntegerValue
p2593
(dp2594
g40
S'13'
p2595
sbasbasbsg238
(idelphi
DelphiAddOp
p2596
(dp2597
g234
S'+'
sg235
(idelphi
DelphiStringAccess
p2598
(dp2599
g101
(lp2600
sg40
(idelphi
DelphiStringValue
p2601
(dp2602
g40
S' expects two arguments.'
p2603
sbsbsg238
(idelphi
DelphiAddOp
p2604
(dp2605
g234
S'+'
sg235
(i__main__
DelphiIdentAccess
p2606
(dp2607
g41
S'ExtractFileName'
p2608
sg101
(lp2609
(idelphi
DelphiFunctionEndAccess
p2610
(dp2611
g120
(lp2612
(i__main__
DelphiIdentAccess
p2613
(dp2614
g41
S'Application'
p2615
sg101
(lp2616
(idelphi
DelphiFieldEndAccess
p2617
(dp2618
g416
S'ExeName'
p2619
sbasbasbasbsg238
(idelphi
DelphiAddOp
p2620
(dp2621
g234
S'+'
sg235
(idelphi
DelphiStringAccess
p2622
(dp2623
g101
(lp2624
sg40
(idelphi
DelphiStringValue
p2625
(dp2626
g40
S'The key code generator '
p2627
sbsbsg238
(idelphi
DelphiAddOp
p2628
(dp2629
g234
S'+'
sg235
(i__main__
DelphiIdentAccess
p2630
(dp2631
g41
S'chr'
p2632
sg101
(lp2633
(idelphi
DelphiFunctionEndAccess
p2634
(dp2635
g120
(lp2636
(idelphi
DelphiIntegerValue
p2637
(dp2638
g40
S'13'
p2639
sbasbasbsg238
(idelphi
DelphiAddOp
p2640
(dp2641
g234
S'+'
sg235
(i__main__
DelphiIdentAccess
p2642
(dp2643
g41
S'chr'
p2644
sg101
(lp2645
(idelphi
DelphiFunctionEndAccess
p2646
(dp2647
g120
(lp2648
(idelphi
DelphiIntegerValue
p2649
(dp2650
g40
S'13'
p2651
sbasbasbsg238
(idelphi
DelphiAddOp
p2652
(dp2653
g234
S'+'
sg235
(idelphi
DelphiStringAccess
p2654
(dp2655
g101
(lp2656
sg40
(idelphi
DelphiStringValue
p2657
(dp2658
g40
S' "user name"  "file name"'
p2659
sbsbsg238
(idelphi
DelphiAddOp
p2660
(dp2661
g234
S'+'
sg235
(i__main__
DelphiIdentAccess
p2662
(dp2663
g41
S'ExtractFileName'
p2664
sg101
(lp2665
(idelphi
DelphiFunctionEndAccess
p2666
(dp2667
g120
(lp2668
(i__main__
DelphiIdentAccess
p2669
(dp2670
g41
S'Application'
p2671
sg101
(lp2672
(idelphi
DelphiFieldEndAccess
p2673
(dp2674
g416
S'ExeName'
p2675
sbasbasbasbsg238
(idelphi
DelphiStringAccess
p2676
(dp2677
g101
(lp2678
sg40
(idelphi
DelphiStringValue
p2679
(dp2680
g40
S'Useage: '
p2681
sbsbsbsbsbsbsbsbsbsbsbsbsbsbsbsbsbsbsbsbsbsbsbsbsbsbsbsbsbsbsbsbsbsbsbsbsbsbsbsbsbsbsbasbasbsba(i__main__
DelphiExitStatement
p2682
(dp2683
g420
g2205
sbasbsba(i__main__
DelphiAssignStatement
p2684
(dp2685
g97
(i__main__
DelphiIdentAccess
p2686
(dp2687
g41
S'ParamStr'
p2688
sg101
(lp2689
(idelphi
DelphiFunctionEndAccess
p2690
(dp2691
g120
(lp2692
(idelphi
DelphiIntegerValue
p2693
(dp2694
g40
S'1'
sbasbasbsg103
(i__main__
DelphiIdentAccess
p2695
(dp2696
g41
S'userName'
p2697
sg101
(lp2698
sbsba(i__main__
DelphiAssignStatement
p2699
(dp2700
g97
(i__main__
DelphiIdentAccess
p2701
(dp2702
g41
S'ParamStr'
p2703
sg101
(lp2704
(idelphi
DelphiFunctionEndAccess
p2705
(dp2706
g120
(lp2707
(idelphi
DelphiIntegerValue
p2708
(dp2709
g40
S'2'
sbasbasbsg103
(i__main__
DelphiIdentAccess
p2710
(dp2711
g41
S'fileName'
p2712
sg101
(lp2713
sbsba(i__main__
DelphiAssignStatement
p2714
(dp2715
g97
(i__main__
DelphiIdentAccess
p2716
(dp2717
g41
S'generate'
p2718
sg101
(lp2719
(idelphi
DelphiFunctionEndAccess
p2720
(dp2721
g120
(lp2722
(i__main__
DelphiIdentAccess
p2723
(dp2724
g41
S'userName'
p2725
sg101
(lp2726
sbasbasbsg103
(i__main__
DelphiIdentAccess
p2727
(dp2728
g41
S'code'
p2729
sg101
(lp2730
sbsba(i__main__
DelphiAssignStatement
p2731
(dp2732
g97
Nsg103
(i__main__
DelphiIdentAccess
p2733
(dp2734
g41
S'WriteCodeFile'
p2735
sg101
(lp2736
(idelphi
DelphiFunctionEndAccess
p2737
(dp2738
g120
(lp2739
(i__main__
DelphiIdentAccess
p2740
(dp2741
g41
S'userName'
p2742
sg101
(lp2743
sba(i__main__
DelphiIdentAccess
p2744
(dp2745
g41
S'code'
p2746
sg101
(lp2747
sba(i__main__
DelphiIdentAccess
p2748
(dp2749
g41
S'fileName'
p2750
sg101
(lp2751
sbasbasbsbasbsg1049
(lp2752
(i__main__
DelphiVarSection
p2753
(dp2754
g47
I0
sg1053
(lp2755
(idelphi
DelphiVarDecl
p2756
(dp2757
g37
Nsg1057
(lp2758
S'userName'
p2759
aS'fileName'
p2760
aS'code'
p2761
asg43
(i__main__
DelphiPrimitiveType
p2762
(dp2763
g26
g40
sbsbasbasbsba(i__main__
DelphiProceduralImplementation
p2764
(dp2765
g50
(i__main__
DelphiProceduralDeclaration
p2766
(dp2767
g70
(lp2768
(i__main__
DelphiFormalParameter
p2769
(dp2770
g74
Nsg75
(lp2771
S'name'
p2772
asg43
(i__main__
DelphiPrimitiveType
p2773
(dp2774
g26
g40
sbsg77
g78
sba(i__main__
DelphiFormalParameter
p2775
(dp2776
g74
Nsg75
(lp2777
S'code'
p2778
asg43
(i__main__
DelphiPrimitiveType
p2779
(dp2780
g26
g40
sbsg77
g78
sbasg19
S'RegistrationMatch'
p2781
sg52
(i__main__
DelphiPrimitiveType
p2782
(dp2783
g26
g1095
sbsbsg19
g2781
sg52
(i__main__
DelphiPrimitiveType
p2784
(dp2785
g26
g1095
sbsg53
(lp2786
sg55
(lp2787
sg57
(lp2788
S'name'
p2789
aS'code'
p2790
asg62
(dp2791
g2790
(i__main__
DelphiPrimitiveType
p2792
(dp2793
g26
g40
sbsg2789
(i__main__
DelphiPrimitiveType
p2794
(dp2795
g26
g40
sbssg70
(lp2796
(i__main__
DelphiFormalParameter
p2797
(dp2798
g74
Nsg75
(lp2799
g2789
asg43
g2794
sg77
g78
sba(i__main__
DelphiFormalParameter
p2800
(dp2801
g74
Nsg75
(lp2802
g2790
asg43
g2792
sg77
g78
sbasg85
(lp2803
sg87
(i__main__
DelphiBlock
p2804
(dp2805
g90
(idelphi
DelphiCompoundStatement
p2806
(dp2807
g93
(lp2808
(i__main__
DelphiAssignStatement
p2809
(dp2810
g97
(idelphi
DelphiStringAccess
p2811
(dp2812
g101
(lp2813
sg40
(idelphi
DelphiStringValue
p2814
(dp2815
g40
S''
sbsbsg103
(i__main__
DelphiIdentAccess
p2816
(dp2817
g41
S'collapsedCode'
p2818
sg101
(lp2819
sbsba(idelphi
DelphiForStatement
p2820
(dp2821
g1256
S'i'
sg1257
(i__main__
DelphiIdentAccess
p2822
(dp2823
g41
S'length'
p2824
sg101
(lp2825
(idelphi
DelphiFunctionEndAccess
p2826
(dp2827
g120
(lp2828
(i__main__
DelphiIdentAccess
p2829
(dp2830
g41
S'code'
p2831
sg101
(lp2832
sbasbasbsg1261
g1262
sg74
(idelphi
DelphiIntegerValue
p2833
(dp2834
g40
S'1'
sbsg1122
(idelphi
DelphiCompoundStatement
p2835
(dp2836
g93
(lp2837
(idelphi
DelphiIfStatement
p2838
(dp2839
g110
(idelphi
DelphiMulOp
p2840
(dp2841
g1182
(idelphi
DelphiNestedExpressionListAccess
p2842
(dp2843
g101
(lp2844
sg120
(lp2845
(idelphi
DelphiRelOp
p2846
(dp2847
g113
(i__main__
DelphiIdentAccess
p2848
(dp2849
g41
S'ord'
p2850
sg101
(lp2851
(idelphi
DelphiFunctionEndAccess
p2852
(dp2853
g120
(lp2854
(i__main__
DelphiIdentAccess
p2855
(dp2856
g41
S'code'
p2857
sg101
(lp2858
(idelphi
DelphiArrayEndAccess
p2859
(dp2860
g120
(lp2861
(i__main__
DelphiIdentAccess
p2862
(dp2863
g41
S'i'
sg101
(lp2864
sbasbasbasbasbsg124
(i__main__
DelphiIdentAccess
p2865
(dp2866
g41
S'ord'
p2867
sg101
(lp2868
(idelphi
DelphiFunctionEndAccess
p2869
(dp2870
g120
(lp2871
(idelphi
DelphiStringAccess
p2872
(dp2873
g101
(lp2874
sg40
(idelphi
DelphiStringValue
p2875
(dp2876
g40
S'9'
sbsbasbasbsg130
g1512
sbasbsg1186
g1513
sg1188
(idelphi
DelphiNestedExpressionListAccess
p2877
(dp2878
g101
(lp2879
sg120
(lp2880
(idelphi
DelphiRelOp
p2881
(dp2882
g113
(i__main__
DelphiIdentAccess
p2883
(dp2884
g41
S'ord'
p2885
sg101
(lp2886
(idelphi
DelphiFunctionEndAccess
p2887
(dp2888
g120
(lp2889
(i__main__
DelphiIdentAccess
p2890
(dp2891
g41
S'code'
p2892
sg101
(lp2893
(idelphi
DelphiArrayEndAccess
p2894
(dp2895
g120
(lp2896
(i__main__
DelphiIdentAccess
p2897
(dp2898
g41
S'i'
sg101
(lp2899
sbasbasbasbasbsg124
(i__main__
DelphiIdentAccess
p2900
(dp2901
g41
S'ord'
p2902
sg101
(lp2903
(idelphi
DelphiFunctionEndAccess
p2904
(dp2905
g120
(lp2906
(idelphi
DelphiStringAccess
p2907
(dp2908
g101
(lp2909
sg40
(idelphi
DelphiStringValue
p2910
(dp2911
g40
S'0'
sbsbasbasbsg130
g1549
sbasbsbsg131
Nsg142
(i__main__
DelphiAssignStatement
p2912
(dp2913
g97
(idelphi
DelphiAddOp
p2914
(dp2915
g234
S'+'
sg235
(i__main__
DelphiIdentAccess
p2916
(dp2917
g41
S'code'
p2918
sg101
(lp2919
(idelphi
DelphiArrayEndAccess
p2920
(dp2921
g120
(lp2922
(i__main__
DelphiIdentAccess
p2923
(dp2924
g41
S'i'
sg101
(lp2925
sbasbasbsg238
(i__main__
DelphiIdentAccess
p2926
(dp2927
g41
S'collapsedCode'
p2928
sg101
(lp2929
sbsbsg103
(i__main__
DelphiIdentAccess
p2930
(dp2931
g41
S'collapsedCode'
p2932
sg101
(lp2933
sbsbsbasbsba(i__main__
DelphiAssignStatement
p2934
(dp2935
g97
(idelphi
DelphiRelOp
p2936
(dp2937
g113
(i__main__
DelphiIdentAccess
p2938
(dp2939
g41
S'collapsedCode'
p2940
sg101
(lp2941
sbsg124
(i__main__
DelphiIdentAccess
p2942
(dp2943
g41
S'generate'
p2944
sg101
(lp2945
(idelphi
DelphiFunctionEndAccess
p2946
(dp2947
g120
(lp2948
(i__main__
DelphiIdentAccess
p2949
(dp2950
g41
S'name'
p2951
sg101
(lp2952
sbasbasbsg130
S'='
sbsg103
(i__main__
DelphiIdentAccess
p2953
(dp2954
g41
S'result'
p2955
sg101
(lp2956
sbsbasbsg1049
(lp2957
(i__main__
DelphiVarSection
p2958
(dp2959
g47
I0
sg1053
(lp2960
(idelphi
DelphiVarDecl
p2961
(dp2962
g37
Nsg1057
(lp2963
S'collapsedCode'
p2964
asg43
(i__main__
DelphiPrimitiveType
p2965
(dp2966
g26
g40
sbsba(idelphi
DelphiVarDecl
p2967
(dp2968
g37
Nsg1057
(lp2969
S'i'
asg43
(i__main__
DelphiPrimitiveType
p2970
(dp2971
g26
g27
sbsbasbasbsbasS'includedUnits'
p2972
NsS'implementationUses'
p2973
(lp2974
S'Windows'
p2975
aS'SysUtils'
p2976
aS'Forms'
p2977
aS'Dialogs'
p2978
asg19
S'URegisterSupport'
p2979
sS'constSections'
p2980
(lp2981
g31
asS'globalsInProperCase'
p2982
NsS'interfaceUses'
p2983
(lp2984
S'delphi_compatability'
p2985
asS'finalCommentToken'
p2986
(i__main__
PassStatement
p2987
(dp2988
g1049
(lp2989
sbsS'varSections'
p2990
(lp2991
sS'globals'
p2992
NsS'originalFileName'
p2993
S'../../PlantStudioInPython/converted_source/URegisterSupport.pas'
p2994
sS'proceduralImplementations'
p2995
(dp2996
S'nextrandom'
p2997
g1096
sS'warmup'
p2998
g1228
sS'writecodefile'
p2999
g48
sS'generatefromcommandline'
p3000
g2205
sS'resetgenerator'
p3001
g1296
sS'generate'
p3002
g1366
sS'registrationmatch'
p3003
g2764
ssS'fileName'
p3004
S'/Users/pdf/Documents/workspace/PlantStudioInPython/converted_source/URegisterSupport.pas'
p3005
sS'proceduralDeclarations'
p3006
(dp3007
S'generatefromcommandline'
p3008
g2207
sS'registrationmatch'
p3009
g2766
ssS'types'
p3010
(dp3011
S'registerstruct'
p3012
g5
ssb.