(i__main__
DelphiUnit
p1
(dp2
S'sectionsInOrderDefined'
p3
(lp4
(i__main__
DelphiClass
p5
(dp6
S'variableNamesInProperCase'
p7
(dp8
S'currentvalue'
p9
S'currentValue'
p10
sS'fonkeydown'
p11
S'FOnKeyDown'
p12
sS'fonmousemove'
p13
S'FOnMouseMove'
p14
sS'hasunofficialfocus'
p15
S'hasUnofficialFocus'
p16
sS'fonmouseup'
p17
S'FOnMouseUp'
p18
sS'maxvalue'
p19
S'maxValue'
p20
sS'fonmousedown'
p21
S'FOnMouseDown'
p22
sS'minvalue'
p23
S'minValue'
p24
sS'draggerheight'
p25
S'draggerHeight'
p26
sS'originalvalue'
p27
S'originalValue'
p28
sS'readonly'
p29
S'readOnly'
p30
sS'dragstart'
p31
S'dragStart'
p32
sS'dragging'
p33
S'dragging'
p34
sS'draggerwidth'
p35
S'draggerWidth'
p36
sS'draggerrect'
p37
S'draggerRect'
p38
ssS'name'
p39
S'KfSlider'
p40
sS'methodDeclarations'
p41
(dp42
S'xdistancefromcurrentvalue'
p43
(i__main__
DelphiMethodDeclaration
p44
(dp45
g39
S'xDistanceFromCurrentValue'
p46
sS'formalParameters'
p47
(lp48
(i__main__
DelphiFormalParameter
p49
(dp50
S'initialValue'
p51
NsS'names'
p52
(lp53
S'distanceInPixels'
p54
asS'theType'
p55
(i__main__
DelphiPrimitiveType
p56
(dp57
S'typeName'
p58
S'longint'
p59
sbsS'parameterVariety'
p60
NsbasS'className'
p61
g40
sS'resultType'
p62
(i__main__
DelphiPrimitiveType
p63
(dp64
g58
g59
sbsS'isClassMethod'
p65
I0
sS'methodType'
p66
S'function'
p67
sbsS'setvalue'
p68
(i__main__
DelphiMethodDeclaration
p69
(dp70
g39
S'setValue'
p71
sg47
(lp72
(i__main__
DelphiFormalParameter
p73
(dp74
g51
Nsg52
(lp75
S'newValue'
p76
asg55
(i__main__
DelphiPrimitiveType
p77
(dp78
g58
g59
sbsg60
Nsbasg61
g40
sg62
(i__main__
DelphiPrimitiveType
p79
(dp80
g58
S'boolean'
p81
sbsg65
I0
sg66
g67
sbsS'mouseup'
p82
(i__main__
DelphiMethodDeclaration
p83
(dp84
g39
S'mouseUp'
p85
sg47
(lp86
(i__main__
DelphiFormalParameter
p87
(dp88
g51
Nsg52
(lp89
S'Button'
p90
asg55
(i__main__
DelphiNamedType
p91
(dp92
g58
S'TMouseButton'
p93
sS'unitDefinedIn'
p94
g1
sS'unitName'
p95
Nsbsg60
Nsba(i__main__
DelphiFormalParameter
p96
(dp97
g51
Nsg52
(lp98
S'Shift'
p99
asg55
(i__main__
DelphiNamedType
p100
(dp101
g58
S'TShiftState'
p102
sg94
g1
sg95
Nsbsg60
Nsba(i__main__
DelphiFormalParameter
p103
(dp104
g51
Nsg52
(lp105
S'X'
aS'Y'
asg55
(i__main__
DelphiPrimitiveType
p106
(dp107
g58
S'integer'
p108
sbsg60
Nsbasg61
g40
sg62
Nsg65
I0
sg66
S'procedure'
p109
sbsS'create'
p110
(i__main__
DelphiMethodDeclaration
p111
(dp112
g39
S'create'
p113
sg47
(lp114
(i__main__
DelphiFormalParameter
p115
(dp116
g51
Nsg52
(lp117
S'AnOwner'
p118
asg55
(i__main__
DelphiNamedType
p119
(dp120
g58
S'TComponent'
p121
sg94
g1
sg95
Nsbsg60
Nsbasg61
g40
sg62
Nsg65
I0
sg66
S'constructor'
p122
sbsS'dokeydown'
p123
(i__main__
DelphiMethodDeclaration
p124
(dp125
g39
S'doKeyDown'
p126
sg47
(lp127
(i__main__
DelphiFormalParameter
p128
(dp129
g51
Nsg52
(lp130
S'sender'
p131
asg55
(i__main__
DelphiNamedType
p132
(dp133
g58
S'TObject'
p134
sg94
g1
sg95
Nsbsg60
Nsba(i__main__
DelphiFormalParameter
p135
(dp136
g51
Nsg52
(lp137
S'Key'
p138
asg55
(i__main__
DelphiPrimitiveType
p139
(dp140
g58
S'word'
p141
sbsg60
S'var'
p142
sba(i__main__
DelphiFormalParameter
p143
(dp144
g51
Nsg52
(lp145
S'shift'
p146
asg55
(i__main__
DelphiNamedType
p147
(dp148
g58
S'TShiftState'
p149
sg94
g1
sg95
Nsbsg60
Nsbasg61
g40
sg62
Nsg65
I0
sg66
g109
sbsS'mousemove'
p150
(i__main__
DelphiMethodDeclaration
p151
(dp152
g39
S'mouseMove'
p153
sg47
(lp154
(i__main__
DelphiFormalParameter
p155
(dp156
g51
Nsg52
(lp157
S'Shift'
p158
asg55
(i__main__
DelphiNamedType
p159
(dp160
g58
S'TShiftState'
p161
sg94
g1
sg95
Nsbsg60
Nsba(i__main__
DelphiFormalParameter
p162
(dp163
g51
Nsg52
(lp164
S'X'
aS'Y'
asg55
(i__main__
DelphiPrimitiveType
p165
(dp166
g58
g108
sbsg60
Nsbasg61
g40
sg62
Nsg65
I0
sg66
g109
sbsS'paint'
p167
(i__main__
DelphiMethodDeclaration
p168
(dp169
g39
S'paint'
p170
sg47
(lp171
sg61
g40
sg62
Nsg65
I0
sg66
g109
sbsS'mousedown'
p172
(i__main__
DelphiMethodDeclaration
p173
(dp174
g39
S'mouseDown'
p175
sg47
(lp176
(i__main__
DelphiFormalParameter
p177
(dp178
g51
Nsg52
(lp179
S'Button'
p180
asg55
(i__main__
DelphiNamedType
p181
(dp182
g58
S'TMouseButton'
p183
sg94
g1
sg95
Nsbsg60
Nsba(i__main__
DelphiFormalParameter
p184
(dp185
g51
Nsg52
(lp186
S'Shift'
p187
asg55
(i__main__
DelphiNamedType
p188
(dp189
g58
S'TShiftState'
p190
sg94
g1
sg95
Nsbsg60
Nsba(i__main__
DelphiFormalParameter
p191
(dp192
g51
Nsg52
(lp193
S'X'
aS'Y'
asg55
(i__main__
DelphiPrimitiveType
p194
(dp195
g58
g108
sbsg60
Nsbasg61
g40
sg62
Nsg65
I0
sg66
g109
sbsS'usedefaultsizeanddraggersize'
p196
(i__main__
DelphiMethodDeclaration
p197
(dp198
g39
S'useDefaultSizeAndDraggerSize'
p199
sg47
(lp200
sg61
g40
sg62
Nsg65
I0
sg66
g109
sbsS'wmgetdlgcode'
p201
(i__main__
DelphiMethodDeclaration
p202
(dp203
g39
S'WMGetDlgCode'
p204
sg47
(lp205
(i__main__
DelphiFormalParameter
p206
(dp207
g51
Nsg52
(lp208
S'message'
p209
asg55
(i__main__
DelphiNamedType
p210
(dp211
g58
S'TWMGetDlgCode'
p212
sg94
g1
sg95
Nsbsg60
g142
sbasg61
g40
sg62
Nsg65
I0
sg66
g109
sbsS'pointondragger'
p213
(i__main__
DelphiMethodDeclaration
p214
(dp215
g39
S'pointOnDragger'
p216
sg47
(lp217
(i__main__
DelphiFormalParameter
p218
(dp219
g51
Nsg52
(lp220
S'x'
aS'y'
asg55
(i__main__
DelphiPrimitiveType
p221
(dp222
g58
g59
sbsg60
Nsbasg61
g40
sg62
(i__main__
DelphiPrimitiveType
p223
(dp224
g58
g81
sbsg65
I0
sg66
g67
sbsS'cmfocuschanged'
p225
(i__main__
DelphiMethodDeclaration
p226
(dp227
g39
S'CMFocusChanged'
p228
sg47
(lp229
(i__main__
DelphiFormalParameter
p230
(dp231
g51
Nsg52
(lp232
g209
asg55
(i__main__
DelphiNamedType
p233
(dp234
g58
S'TCMFocusChanged'
p235
sg94
g1
sg95
Nsbsg60
g142
sbasg61
g40
sg62
Nsg65
I0
sg66
g109
sbssS'superclassNamedTypes'
p236
(lp237
(i__main__
DelphiNamedType
p238
(dp239
g58
S'TGraphicControl'
p240
sg94
g1
sg95
NsbasS'variableNames'
p241
(dp242
S'currentvalue'
p243
(i__main__
DelphiPrimitiveType
p244
(dp245
g58
g59
sbsS'fonkeydown'
p246
(i__main__
DelphiNamedType
p247
(dp248
g58
S'TNotifyEvent'
p249
sg94
g1
sg95
NsbsS'fonmousemove'
p250
(i__main__
DelphiNamedType
p251
(dp252
g58
S'TNotifyEvent'
p253
sg94
g1
sg95
NsbsS'hasunofficialfocus'
p254
(i__main__
DelphiPrimitiveType
p255
(dp256
g58
g81
sbsS'fonmouseup'
p257
(i__main__
DelphiNamedType
p258
(dp259
g58
S'TNotifyEvent'
p260
sg94
g1
sg95
NsbsS'maxvalue'
p261
(i__main__
DelphiPrimitiveType
p262
(dp263
g58
g59
sbsS'fonmousedown'
p264
(i__main__
DelphiNamedType
p265
(dp266
g58
S'TNotifyEvent'
p267
sg94
g1
sg95
NsbsS'minvalue'
p268
g262
sS'draggerheight'
p269
(i__main__
DelphiPrimitiveType
p270
(dp271
g58
g59
sbsS'originalvalue'
p272
(i__main__
DelphiPrimitiveType
p273
(dp274
g58
g59
sbsS'readonly'
p275
(i__main__
DelphiPrimitiveType
p276
(dp277
g58
g81
sbsS'dragstart'
p278
(i__main__
DelphiPrimitiveType
p279
(dp280
g58
g59
sbsS'dragging'
p281
(i__main__
DelphiPrimitiveType
p282
(dp283
g58
g81
sbsS'draggerwidth'
p284
g270
sS'draggerrect'
p285
(i__main__
DelphiNamedType
p286
(dp287
g58
S'TRect'
p288
sg94
g1
sg95
NsbssS'methodNamesInDefinedOrder'
p289
(lp290
S'create'
p291
aS'usedefaultsizeanddraggersize'
p292
aS'cmfocuschanged'
p293
aS'wmgetdlgcode'
p294
aS'setvalue'
p295
aS'dokeydown'
p296
aS'pointondragger'
p297
aS'mousedown'
p298
aS'mousemove'
p299
aS'mouseup'
p300
aS'xdistancefromcurrentvalue'
p301
aS'paint'
p302
asS'methodImplementations'
p303
(dp304
S'xdistancefromcurrentvalue'
p305
(i__main__
DelphiMethodImplementation
p306
(dp307
S'originalDeclaration'
p308
g44
sg39
g46
sg47
(lp309
(i__main__
DelphiFormalParameter
p310
(dp311
g51
Nsg52
(lp312
S'distanceInPixels'
p313
asg55
(i__main__
DelphiPrimitiveType
p314
(dp315
g58
g59
sbsg60
NsbasS'varParamIndexes'
p316
(lp317
sS'varParamsSkipped'
p318
(lp319
sS'argNames'
p320
(lp321
S'self'
p322
ag313
asS'argTypes'
p323
(dp324
g313
g314
ssg61
S'KfSlider'
p325
sg62
(i__main__
DelphiPrimitiveType
p326
(dp327
g58
g59
sbsS'varParamNames'
p328
(lp329
sg65
I0
sg66
g67
sS'block'
p330
(i__main__
DelphiBlock
p331
(dp332
S'compoundStatement'
p333
(idelphi
DelphiCompoundStatement
p334
(dp335
S'statements'
p336
(lp337
(i__main__
DelphiAssignStatement
p338
(dp339
S'newValueExpression'
p340
(idelphi
DelphiMulOp
p341
(dp342
S'signedFactor2'
p343
(idelphi
DelphiNestedExpressionListAccess
p344
(dp345
S'endAccessList'
p346
(lp347
sS'expressionList'
p348
(lp349
(idelphi
DelphiAddOp
p350
(dp351
S'addOp'
p352
S'-'
sS'term2'
p353
(i__main__
DelphiIdentAccess
p354
(dp355
S'ident'
p356
S'minValue'
p357
sg346
(lp358
sbsS'term1'
p359
(i__main__
DelphiIdentAccess
p360
(dp361
g356
S'maxValue'
p362
sg346
(lp363
sbsbasbsS'mulOp'
p364
S'/'
sS'signedFactor1'
p365
(idelphi
DelphiNestedExpressionListAccess
p366
(dp367
g346
(lp368
sg348
(lp369
(idelphi
DelphiAddOp
p370
(dp371
g352
S'-'
sg353
(i__main__
DelphiIdentAccess
p372
(dp373
g356
S'minValue'
p374
sg346
(lp375
sbsg359
(i__main__
DelphiIdentAccess
p376
(dp377
g356
S'currentValue'
p378
sg346
(lp379
sbsbasbsbsS'destinationExpression'
p380
(i__main__
DelphiIdentAccess
p381
(dp382
g356
S'proportion'
p383
sg346
(lp384
sbsba(idelphi
DelphiTryExceptStatement
p385
(dp386
S'tryStatements'
p387
(lp388
(i__main__
DelphiAssignStatement
p389
(dp390
g340
(i__main__
DelphiIdentAccess
p391
(dp392
g356
S'round'
p393
sg346
(lp394
(idelphi
DelphiFunctionEndAccess
p395
(dp396
g348
(lp397
(idelphi
DelphiMulOp
p398
(dp399
g343
(i__main__
DelphiIdentAccess
p400
(dp401
g356
S'distanceInPixels'
p402
sg346
(lp403
sbsg364
S'*'
sg365
(i__main__
DelphiIdentAccess
p404
(dp405
g356
S'proportion'
p406
sg346
(lp407
sbsbasbasbsg380
(i__main__
DelphiIdentAccess
p408
(dp409
g356
S'result'
p410
sg346
(lp411
sbsbasS'exceptionHandlers'
p412
(idelphi
DelphiExceptionHandlers
p413
(dp414
S'exceptionHandlerList'
p415
NsS'statementList'
p416
(lp417
(i__main__
DelphiAssignStatement
p418
(dp419
g340
(idelphi
DelphiIntegerValue
p420
(dp421
S'string'
p422
S'0'
sbsg380
(i__main__
DelphiIdentAccess
p423
(dp424
g356
S'result'
p425
sg346
(lp426
sbsbasbsbasbsS'limitedDeclSectionList'
p427
(lp428
(i__main__
DelphiVarSection
p429
(dp430
S'atTopLevel'
p431
I0
sS'varDeclList'
p432
(lp433
(idelphi
DelphiVarDecl
p434
(dp435
S'constExpression'
p436
NsS'identList'
p437
(lp438
S'proportion'
p439
asg55
(i__main__
DelphiPrimitiveType
p440
(dp441
g58
S'single'
p442
sbsbasbasbsbsS'setvalue'
p443
(i__main__
DelphiMethodImplementation
p444
(dp445
g308
g69
sg39
g71
sg47
(lp446
(i__main__
DelphiFormalParameter
p447
(dp448
g51
Nsg52
(lp449
S'newValue'
p450
asg55
(i__main__
DelphiPrimitiveType
p451
(dp452
g58
g59
sbsg60
Nsbasg316
(lp453
sg318
(lp454
sg320
(lp455
g322
ag450
asg323
(dp456
g450
g451
ssg61
S'KfSlider'
p457
sg62
(i__main__
DelphiPrimitiveType
p458
(dp459
g58
g81
sbsg328
(lp460
sg65
I0
sg66
g67
sg330
(i__main__
DelphiBlock
p461
(dp462
g333
(idelphi
DelphiCompoundStatement
p463
(dp464
g336
(lp465
(i__main__
DelphiAssignStatement
p466
(dp467
g340
(i__main__
DelphiIdentAccess
p468
(dp469
g356
S'false'
p470
sg346
(lp471
sbsg380
(i__main__
DelphiIdentAccess
p472
(dp473
g356
S'result'
p474
sg346
(lp475
sbsba(idelphi
DelphiIfStatement
p476
(dp477
S'expression'
p478
(idelphi
DelphiRelOp
p479
(dp480
S'simpleExpression1'
p481
(i__main__
DelphiIdentAccess
p482
(dp483
g356
S'newValue'
p484
sg346
(lp485
sbsS'simpleExpression2'
p486
(i__main__
DelphiIdentAccess
p487
(dp488
g356
S'maxValue'
p489
sg346
(lp490
sbsS'relOp'
p491
S'>'
sbsS'ifFalseStatement'
p492
NsS'ifTrueStatement'
p493
(i__main__
DelphiAssignStatement
p494
(dp495
g340
(i__main__
DelphiIdentAccess
p496
(dp497
g356
S'maxValue'
p498
sg346
(lp499
sbsg380
(i__main__
DelphiIdentAccess
p500
(dp501
g356
S'newValue'
p502
sg346
(lp503
sbsbsba(idelphi
DelphiIfStatement
p504
(dp505
g478
(idelphi
DelphiRelOp
p506
(dp507
g481
(i__main__
DelphiIdentAccess
p508
(dp509
g356
S'newValue'
p510
sg346
(lp511
sbsg486
(i__main__
DelphiIdentAccess
p512
(dp513
g356
S'minValue'
p514
sg346
(lp515
sbsg491
S'<'
sbsg492
Nsg493
(i__main__
DelphiAssignStatement
p516
(dp517
g340
(i__main__
DelphiIdentAccess
p518
(dp519
g356
S'minValue'
p520
sg346
(lp521
sbsg380
(i__main__
DelphiIdentAccess
p522
(dp523
g356
S'newValue'
p524
sg346
(lp525
sbsbsba(idelphi
DelphiIfStatement
p526
(dp527
g478
(idelphi
DelphiRelOp
p528
(dp529
g481
(i__main__
DelphiIdentAccess
p530
(dp531
g356
S'newValue'
p532
sg346
(lp533
sbsg486
(i__main__
DelphiIdentAccess
p534
(dp535
g356
S'currentValue'
p536
sg346
(lp537
sbsg491
S'='
sbsg492
Nsg493
(i__main__
DelphiExitStatement
p538
(dp539
S'proceduralOrMethodImplementation'
p540
g444
sbsba(i__main__
DelphiAssignStatement
p541
(dp542
g340
(i__main__
DelphiIdentAccess
p543
(dp544
g356
S'newValue'
p545
sg346
(lp546
sbsg380
(i__main__
DelphiIdentAccess
p547
(dp548
g356
S'currentValue'
p549
sg346
(lp550
sbsba(i__main__
DelphiAssignStatement
p551
(dp552
g340
(i__main__
DelphiIdentAccess
p553
(dp554
g356
S'true'
p555
sg346
(lp556
sbsg380
(i__main__
DelphiIdentAccess
p557
(dp558
g356
S'result'
p559
sg346
(lp560
sbsS'commentLinesBefore'
p561
(lp562
S'repaint;   '
p563
asbasbsg427
(lp564
sbsg561
(lp565
S'returns true if current value changed'
p566
asbsS'mouseup'
p567
(i__main__
DelphiMethodImplementation
p568
(dp569
g308
g83
sg39
g85
sg47
(lp570
(i__main__
DelphiFormalParameter
p571
(dp572
g51
Nsg52
(lp573
S'Button'
p574
asg55
(i__main__
DelphiNamedType
p575
(dp576
g58
S'TMouseButton'
p577
sg94
g1
sg95
Nsbsg60
Nsba(i__main__
DelphiFormalParameter
p578
(dp579
g51
Nsg52
(lp580
S'Shift'
p581
asg55
(i__main__
DelphiNamedType
p582
(dp583
g58
S'TShiftState'
p584
sg94
g1
sg95
Nsbsg60
Nsba(i__main__
DelphiFormalParameter
p585
(dp586
g51
Nsg52
(lp587
S'X'
aS'Y'
asg55
(i__main__
DelphiPrimitiveType
p588
(dp589
g58
g108
sbsg60
Nsbasg316
(lp590
sg318
(lp591
sg320
(lp592
g322
ag574
ag581
aS'X'
aS'Y'
asg323
(dp593
S'Y'
g588
sg581
g582
sg574
g575
sS'X'
g588
ssg61
S'KfSlider'
p594
sg62
Nsg328
(lp595
sg65
I0
sg66
g109
sg330
(i__main__
DelphiBlock
p596
(dp597
g333
(idelphi
DelphiCompoundStatement
p598
(dp599
g336
(lp600
(i__main__
DelphiAssignStatement
p601
(dp602
g340
Nsg380
(idelphi
DelphiInheritedCall
p603
(dp604
g356
S'MouseUp'
p605
sg348
(lp606
(i__main__
DelphiIdentAccess
p607
(dp608
g356
S'Button'
p609
sg346
(lp610
sba(i__main__
DelphiIdentAccess
p611
(dp612
g356
S'Shift'
p613
sg346
(lp614
sba(i__main__
DelphiIdentAccess
p615
(dp616
g356
S'X'
sg346
(lp617
sba(i__main__
DelphiIdentAccess
p618
(dp619
g356
S'Y'
sg346
(lp620
sbasbsba(idelphi
DelphiIfStatement
p621
(dp622
g478
(i__main__
DelphiIdentAccess
p623
(dp624
g356
S'self'
p625
sg346
(lp626
(idelphi
DelphiFieldEndAccess
p627
(dp628
S'field'
p629
S'readOnly'
p630
sbasbsg492
Nsg493
(i__main__
DelphiExitStatement
p631
(dp632
g540
g568
sbsba(idelphi
DelphiIfStatement
p633
(dp634
g478
(idelphi
DelphiMulOp
p635
(dp636
g343
(i__main__
DelphiIdentAccess
p637
(dp638
g356
S'dragging'
p639
sg346
(lp640
sbsg364
S'and'
p641
sg365
(idelphi
DelphiNestedExpressionListAccess
p642
(dp643
g346
(lp644
sg348
(lp645
(idelphi
DelphiRelOp
p646
(dp647
g481
(i__main__
DelphiIdentAccess
p648
(dp649
g356
S'Button'
p650
sg346
(lp651
sbsg486
(i__main__
DelphiIdentAccess
p652
(dp653
g356
S'mbLeft'
p654
sg346
(lp655
sbsg491
S'='
sbasbsbsg492
Nsg493
(i__main__
DelphiAssignStatement
p656
(dp657
g340
(i__main__
DelphiIdentAccess
p658
(dp659
g356
S'false'
p660
sg346
(lp661
sbsg380
(i__main__
DelphiIdentAccess
p662
(dp663
g356
S'dragging'
p664
sg346
(lp665
sbsbsba(idelphi
DelphiIfStatement
p666
(dp667
g478
(idelphi
DelphiRelOp
p668
(dp669
g481
(i__main__
DelphiIdentAccess
p670
(dp671
g356
S'abs'
p672
sg346
(lp673
(idelphi
DelphiFunctionEndAccess
p674
(dp675
g348
(lp676
(idelphi
DelphiAddOp
p677
(dp678
g352
S'-'
sg353
(i__main__
DelphiIdentAccess
p679
(dp680
g356
S'dragStart'
p681
sg346
(lp682
sbsg359
(i__main__
DelphiIdentAccess
p683
(dp684
g356
S'x'
sg346
(lp685
sbsbasbasbsg486
(i__main__
DelphiIdentAccess
p686
(dp687
g356
S'kMinDragDistance'
p688
sg346
(lp689
sbsg491
S'<'
sbsg492
Nsg493
(i__main__
DelphiExitStatement
p690
(dp691
g540
g568
sbsba(i__main__
DelphiAssignStatement
p692
(dp693
g340
(idelphi
DelphiIntegerValue
p694
(dp695
g422
S'0'
sbsg380
(i__main__
DelphiIdentAccess
p696
(dp697
g356
S'dragStart'
p698
sg346
(lp699
sbsba(idelphi
DelphiIfStatement
p700
(dp701
g478
(i__main__
DelphiIdentAccess
p702
(dp703
g356
S'Assigned'
p704
sg346
(lp705
(idelphi
DelphiFunctionEndAccess
p706
(dp707
g348
(lp708
(i__main__
DelphiIdentAccess
p709
(dp710
g356
S'FOnMouseUp'
p711
sg346
(lp712
sbasbasbsg492
Nsg493
(i__main__
DelphiAssignStatement
p713
(dp714
g340
Nsg380
(i__main__
DelphiIdentAccess
p715
(dp716
g356
S'FOnMouseUp'
p717
sg346
(lp718
(idelphi
DelphiFunctionEndAccess
p719
(dp720
g348
(lp721
(i__main__
DelphiIdentAccess
p722
(dp723
g356
S'Self'
p724
sg346
(lp725
sbasbasbsbsbasbsg427
(lp726
sbsbsS'create'
p727
(i__main__
DelphiMethodImplementation
p728
(dp729
g308
g111
sg39
g113
sg47
(lp730
(i__main__
DelphiFormalParameter
p731
(dp732
g51
Nsg52
(lp733
S'AnOwner'
p734
asg55
(i__main__
DelphiNamedType
p735
(dp736
g58
S'TComponent'
p737
sg94
g1
sg95
Nsbsg60
Nsbasg316
(lp738
sg318
(lp739
sg320
(lp740
g322
ag734
asg323
(dp741
g734
g735
ssg61
S'KfSlider'
p742
sg62
Nsg328
(lp743
sg65
I0
sg66
g122
sg330
(i__main__
DelphiBlock
p744
(dp745
g333
(idelphi
DelphiCompoundStatement
p746
(dp747
g336
(lp748
(i__main__
DelphiAssignStatement
p749
(dp750
g340
Nsg380
(idelphi
DelphiInheritedCall
p751
(dp752
g356
S'Create'
p753
sg348
(lp754
(i__main__
DelphiIdentAccess
p755
(dp756
g356
S'AnOwner'
p757
sg346
(lp758
sbasbsba(i__main__
DelphiAssignStatement
p759
(dp760
g340
(idelphi
DelphiIntegerValue
p761
(dp762
g422
S'140'
p763
sbsg380
(i__main__
DelphiIdentAccess
p764
(dp765
g356
S'width'
p766
sg346
(lp767
sbsba(i__main__
DelphiAssignStatement
p768
(dp769
g340
(idelphi
DelphiIntegerValue
p770
(dp771
g422
S'35'
p772
sbsg380
(i__main__
DelphiIdentAccess
p773
(dp774
g356
S'height'
p775
sg346
(lp776
sbsba(i__main__
DelphiAssignStatement
p777
(dp778
g340
(idelphi
DelphiIntegerValue
p779
(dp780
g422
S'0'
sbsg380
(i__main__
DelphiIdentAccess
p781
(dp782
g356
S'minValue'
p783
sg346
(lp784
sbsba(i__main__
DelphiAssignStatement
p785
(dp786
g340
(idelphi
DelphiIntegerValue
p787
(dp788
g422
S'100'
p789
sbsg380
(i__main__
DelphiIdentAccess
p790
(dp791
g356
S'maxValue'
p792
sg346
(lp793
sbsba(i__main__
DelphiAssignStatement
p794
(dp795
g340
(i__main__
DelphiIdentAccess
p796
(dp797
g356
S'kSliderDraggerHeight'
p798
sg346
(lp799
sbsg380
(i__main__
DelphiIdentAccess
p800
(dp801
g356
S'draggerHeight'
p802
sg346
(lp803
sbsba(i__main__
DelphiAssignStatement
p804
(dp805
g340
(i__main__
DelphiIdentAccess
p806
(dp807
g356
S'kSliderDraggerWidth'
p808
sg346
(lp809
sbsg380
(i__main__
DelphiIdentAccess
p810
(dp811
g356
S'draggerWidth'
p812
sg346
(lp813
sbsba(i__main__
DelphiAssignStatement
p814
(dp815
g340
(i__main__
DelphiIdentAccess
p816
(dp817
g356
S'false'
p818
sg346
(lp819
sbsg380
(i__main__
DelphiIdentAccess
p820
(dp821
g356
S'readOnly'
p822
sg346
(lp823
sbsba(i__main__
DelphiAssignStatement
p824
(dp825
g340
(idelphi
DelphiIntegerValue
p826
(dp827
g422
S'0'
sbsg380
(i__main__
DelphiIdentAccess
p828
(dp829
g356
S'currentValue'
p830
sg346
(lp831
sbsba(i__main__
DelphiAssignStatement
p832
(dp833
g340
(i__main__
DelphiIdentAccess
p834
(dp835
g356
S'false'
p836
sg346
(lp837
sbsg380
(i__main__
DelphiIdentAccess
p838
(dp839
g356
S'dragging'
p840
sg346
(lp841
sbsba(i__main__
DelphiAssignStatement
p842
(dp843
g340
Nsg380
(i__main__
DelphiIdentAccess
p844
(dp845
g356
S'useDefaultSizeAndDraggerSize'
p846
sg346
(lp847
sbsbasbsg427
(lp848
sbsg561
(lp849
S'function valueForPosition(x: longint): longint;  '
p850
aS' must be at least 4 more than dragger height '
p851
aS' should be odd number '
p852
asbsS'dokeydown'
p853
(i__main__
DelphiMethodImplementation
p854
(dp855
g308
g124
sg39
g126
sg47
(lp856
(i__main__
DelphiFormalParameter
p857
(dp858
g51
Nsg52
(lp859
S'sender'
p860
asg55
(i__main__
DelphiNamedType
p861
(dp862
g58
S'TObject'
p863
sg94
g1
sg95
Nsbsg60
Nsba(i__main__
DelphiFormalParameter
p864
(dp865
g51
Nsg52
(lp866
S'Key'
p867
asg55
(i__main__
DelphiPrimitiveType
p868
(dp869
g58
g141
sbsg60
g142
sba(i__main__
DelphiFormalParameter
p870
(dp871
g51
Nsg52
(lp872
S'shift'
p873
asg55
(i__main__
DelphiNamedType
p874
(dp875
g58
S'TShiftState'
p876
sg94
g1
sg95
Nsbsg60
Nsbasg316
(lp877
I1
asg318
(lp878
sg320
(lp879
g322
ag860
ag867
ag873
asg323
(dp880
g873
g874
sg860
g861
sg867
g868
ssg61
S'KfSlider'
p881
sg62
Nsg328
(lp882
g867
asg65
I0
sg66
g109
sg330
(i__main__
DelphiBlock
p883
(dp884
g333
(idelphi
DelphiCompoundStatement
p885
(dp886
g336
(lp887
(idelphi
DelphiIfStatement
p888
(dp889
g478
(i__main__
DelphiIdentAccess
p890
(dp891
g356
S'self'
p892
sg346
(lp893
(idelphi
DelphiFieldEndAccess
p894
(dp895
g629
S'readOnly'
p896
sbasbsg492
Nsg493
(i__main__
DelphiExitStatement
p897
(dp898
g540
g854
sbsba(idelphi
DelphiCaseStatement
p899
(dp900
S'elseStatement'
p901
(i__main__
DelphiAssignStatement
p902
(dp903
g340
(i__main__
DelphiIdentAccess
p904
(dp905
g356
S'currentValue'
p906
sg346
(lp907
sbsg380
(i__main__
DelphiIdentAccess
p908
(dp909
g356
S'newValue'
p910
sg346
(lp911
sbsbsg478
(i__main__
DelphiIdentAccess
p912
(dp913
g356
S'key'
p914
sg346
(lp915
sbsS'caseSelectorList'
p916
(lp917
(idelphi
DelphiCaseSelector
p918
(dp919
S'statement'
p920
(i__main__
DelphiAssignStatement
p921
(dp922
g340
(idelphi
DelphiAddOp
p923
(dp924
g352
S'-'
sg353
(idelphi
DelphiIntegerValue
p925
(dp926
g422
S'1'
sbsg359
(i__main__
DelphiIdentAccess
p927
(dp928
g356
S'currentValue'
p929
sg346
(lp930
sbsbsg380
(i__main__
DelphiIdentAccess
p931
(dp932
g356
S'newValue'
p933
sg346
(lp934
sbsbsS'caseLabelList'
p935
(lp936
(i__main__
DelphiIdentAccess
p937
(dp938
g356
S'VK_LEFT'
p939
sg346
(lp940
sbasba(idelphi
DelphiCaseSelector
p941
(dp942
g920
(i__main__
DelphiAssignStatement
p943
(dp944
g340
(idelphi
DelphiAddOp
p945
(dp946
g352
S'+'
sg353
(idelphi
DelphiIntegerValue
p947
(dp948
g422
S'1'
sbsg359
(i__main__
DelphiIdentAccess
p949
(dp950
g356
S'currentValue'
p951
sg346
(lp952
sbsbsg380
(i__main__
DelphiIdentAccess
p953
(dp954
g356
S'newValue'
p955
sg346
(lp956
sbsbsg935
(lp957
(i__main__
DelphiIdentAccess
p958
(dp959
g356
S'VK_RIGHT'
p960
sg346
(lp961
sbasbasba(i__main__
DelphiAssignStatement
p962
(dp963
g340
Nsg380
(i__main__
DelphiIdentAccess
p964
(dp965
g356
S'self'
p966
sg346
(lp967
(idelphi
DelphiFieldEndAccess
p968
(dp969
g629
S'invalidate'
p970
sbasbsba(i__main__
DelphiAssignStatement
p971
(dp972
g340
Nsg380
(i__main__
DelphiIdentAccess
p973
(dp974
g356
S'self'
p975
sg346
(lp976
(idelphi
DelphiFieldEndAccess
p977
(dp978
g629
S'refresh'
p979
sbasbsba(idelphi
DelphiIfStatement
p980
(dp981
g478
(idelphi
DelphiMulOp
p982
(dp983
g343
(i__main__
DelphiIdentAccess
p984
(dp985
g356
S'Assigned'
p986
sg346
(lp987
(idelphi
DelphiFunctionEndAccess
p988
(dp989
g348
(lp990
(i__main__
DelphiIdentAccess
p991
(dp992
g356
S'FOnKeyDown'
p993
sg346
(lp994
sbasbasbsg364
g641
sg365
(i__main__
DelphiIdentAccess
p995
(dp996
g356
S'self'
p997
sg346
(lp998
(idelphi
DelphiFieldEndAccess
p999
(dp1000
g629
S'setValue'
p1001
sba(idelphi
DelphiFunctionEndAccess
p1002
(dp1003
g348
(lp1004
(i__main__
DelphiIdentAccess
p1005
(dp1006
g356
S'newValue'
p1007
sg346
(lp1008
sbasbasbsbsg492
Nsg493
(i__main__
DelphiAssignStatement
p1009
(dp1010
g340
Nsg380
(i__main__
DelphiIdentAccess
p1011
(dp1012
g356
S'FOnKeyDown'
p1013
sg346
(lp1014
(idelphi
DelphiFunctionEndAccess
p1015
(dp1016
g348
(lp1017
(i__main__
DelphiIdentAccess
p1018
(dp1019
g356
S'self'
p1020
sg346
(lp1021
sbasbasbsbsbasbsg427
(lp1022
(i__main__
DelphiVarSection
p1023
(dp1024
g431
I0
sg432
(lp1025
(idelphi
DelphiVarDecl
p1026
(dp1027
g436
Nsg437
(lp1028
S'newValue'
p1029
asg55
(i__main__
DelphiPrimitiveType
p1030
(dp1031
g58
g59
sbsbasbasbsbsS'mousemove'
p1032
(i__main__
DelphiMethodImplementation
p1033
(dp1034
g308
g151
sg39
g153
sg47
(lp1035
(i__main__
DelphiFormalParameter
p1036
(dp1037
g51
Nsg52
(lp1038
S'Shift'
p1039
asg55
(i__main__
DelphiNamedType
p1040
(dp1041
g58
S'TShiftState'
p1042
sg94
g1
sg95
Nsbsg60
Nsba(i__main__
DelphiFormalParameter
p1043
(dp1044
g51
Nsg52
(lp1045
S'X'
aS'Y'
asg55
(i__main__
DelphiPrimitiveType
p1046
(dp1047
g58
g108
sbsg60
Nsbasg316
(lp1048
sg318
(lp1049
sg320
(lp1050
g322
ag1039
aS'X'
aS'Y'
asg323
(dp1051
S'Y'
g1046
sg1039
g1040
sS'X'
g1046
ssg61
S'KfSlider'
p1052
sg62
Nsg328
(lp1053
sg65
I0
sg66
g109
sg330
(i__main__
DelphiBlock
p1054
(dp1055
g333
(idelphi
DelphiCompoundStatement
p1056
(dp1057
g336
(lp1058
(i__main__
DelphiAssignStatement
p1059
(dp1060
g340
Nsg380
(idelphi
DelphiInheritedCall
p1061
(dp1062
g356
S'MouseMove'
p1063
sg348
(lp1064
(i__main__
DelphiIdentAccess
p1065
(dp1066
g356
S'Shift'
p1067
sg346
(lp1068
sba(i__main__
DelphiIdentAccess
p1069
(dp1070
g356
S'X'
sg346
(lp1071
sba(i__main__
DelphiIdentAccess
p1072
(dp1073
g356
S'Y'
sg346
(lp1074
sbasbsba(idelphi
DelphiIfStatement
p1075
(dp1076
g478
(i__main__
DelphiIdentAccess
p1077
(dp1078
g356
S'self'
p1079
sg346
(lp1080
(idelphi
DelphiFieldEndAccess
p1081
(dp1082
g629
S'readOnly'
p1083
sbasbsg492
Nsg493
(i__main__
DelphiExitStatement
p1084
(dp1085
g540
g1033
sbsba(idelphi
DelphiIfStatement
p1086
(dp1087
g478
(i__main__
DelphiIdentAccess
p1088
(dp1089
g356
S'dragging'
p1090
sg346
(lp1091
sbsg492
Nsg493
(idelphi
DelphiCompoundStatement
p1092
(dp1093
g336
(lp1094
(i__main__
DelphiAssignStatement
p1095
(dp1096
g340
(idelphi
DelphiAddOp
p1097
(dp1098
g352
S'-'
sg353
(i__main__
DelphiIdentAccess
p1099
(dp1100
g356
S'dragStart'
p1101
sg346
(lp1102
sbsg359
(i__main__
DelphiIdentAccess
p1103
(dp1104
g356
S'x'
sg346
(lp1105
sbsbsg380
(i__main__
DelphiIdentAccess
p1106
(dp1107
g356
S'delta'
p1108
sg346
(lp1109
sbsba(i__main__
DelphiAssignStatement
p1110
(dp1111
g340
(idelphi
DelphiAddOp
p1112
(dp1113
g352
S'-'
sg353
(idelphi
DelphiMulOp
p1114
(dp1115
g343
(idelphi
DelphiNestedExpressionListAccess
p1116
(dp1117
g346
(lp1118
sg348
(lp1119
(idelphi
DelphiMulOp
p1120
(dp1121
g343
(idelphi
DelphiIntegerValue
p1122
(dp1123
g422
S'2'
sbsg364
S'div'
p1124
sg365
(i__main__
DelphiIdentAccess
p1125
(dp1126
g356
S'draggerWidth'
p1127
sg346
(lp1128
sbsbasbsg364
S'*'
sg365
(idelphi
DelphiIntegerValue
p1129
(dp1130
g422
S'2'
sbsbsg359
(i__main__
DelphiIdentAccess
p1131
(dp1132
g356
S'self'
p1133
sg346
(lp1134
(idelphi
DelphiFieldEndAccess
p1135
(dp1136
g629
S'width'
p1137
sbasbsbsg380
(i__main__
DelphiIdentAccess
p1138
(dp1139
g356
S'lineLength'
p1140
sg346
(lp1141
sbsg561
(lp1142
S"pdf fix - won't snap to grid - will just change relative..."
p1143
asba(i__main__
DelphiAssignStatement
p1144
(dp1145
g340
(idelphi
DelphiAddOp
p1146
(dp1147
g352
S'+'
sg353
(i__main__
DelphiIdentAccess
p1148
(dp1149
g356
S'round'
p1150
sg346
(lp1151
(idelphi
DelphiFunctionEndAccess
p1152
(dp1153
g348
(lp1154
(idelphi
DelphiMulOp
p1155
(dp1156
g343
(i__main__
DelphiIdentAccess
p1157
(dp1158
g356
S'lineLength'
p1159
sg346
(lp1160
sbsg364
S'/'
sg365
(idelphi
DelphiMulOp
p1161
(dp1162
g343
(idelphi
DelphiNestedExpressionListAccess
p1163
(dp1164
g346
(lp1165
sg348
(lp1166
(idelphi
DelphiAddOp
p1167
(dp1168
g352
S'-'
sg353
(i__main__
DelphiIdentAccess
p1169
(dp1170
g356
S'minValue'
p1171
sg346
(lp1172
sbsg359
(i__main__
DelphiIdentAccess
p1173
(dp1174
g356
S'maxValue'
p1175
sg346
(lp1176
sbsbasbsg364
S'*'
sg365
(idelphi
DelphiMulOp
p1177
(dp1178
g343
(i__main__
DelphiIdentAccess
p1179
(dp1180
g356
S'delta'
p1181
sg346
(lp1182
sbsg364
S'*'
sg365
(idelphi
DelphiRealValue
p1183
(dp1184
g422
S'1.0'
p1185
sbsbsbsbasbasbsg359
(i__main__
DelphiIdentAccess
p1186
(dp1187
g356
S'originalValue'
p1188
sg346
(lp1189
sbsbsg380
(i__main__
DelphiIdentAccess
p1190
(dp1191
g356
S'newValue'
p1192
sg346
(lp1193
sbsba(i__main__
DelphiAssignStatement
p1194
(dp1195
g340
Nsg380
(i__main__
DelphiIdentAccess
p1196
(dp1197
g356
S'self'
p1198
sg346
(lp1199
(idelphi
DelphiFieldEndAccess
p1200
(dp1201
g629
S'invalidate'
p1202
sbasbsba(i__main__
DelphiAssignStatement
p1203
(dp1204
g340
Nsg380
(i__main__
DelphiIdentAccess
p1205
(dp1206
g356
S'self'
p1207
sg346
(lp1208
(idelphi
DelphiFieldEndAccess
p1209
(dp1210
g629
S'refresh'
p1211
sbasbsba(idelphi
DelphiIfStatement
p1212
(dp1213
g478
(idelphi
DelphiMulOp
p1214
(dp1215
g343
(i__main__
DelphiIdentAccess
p1216
(dp1217
g356
S'assigned'
p1218
sg346
(lp1219
(idelphi
DelphiFunctionEndAccess
p1220
(dp1221
g348
(lp1222
(i__main__
DelphiIdentAccess
p1223
(dp1224
g356
S'FOnMouseMove'
p1225
sg346
(lp1226
sbasbasbsg364
g641
sg365
(i__main__
DelphiIdentAccess
p1227
(dp1228
g356
S'self'
p1229
sg346
(lp1230
(idelphi
DelphiFieldEndAccess
p1231
(dp1232
g629
S'setValue'
p1233
sba(idelphi
DelphiFunctionEndAccess
p1234
(dp1235
g348
(lp1236
(i__main__
DelphiIdentAccess
p1237
(dp1238
g356
S'newValue'
p1239
sg346
(lp1240
sbasbasbsbsg492
Nsg493
(i__main__
DelphiAssignStatement
p1241
(dp1242
g340
Nsg380
(i__main__
DelphiIdentAccess
p1243
(dp1244
g356
S'FOnMouseMove'
p1245
sg346
(lp1246
(idelphi
DelphiFunctionEndAccess
p1247
(dp1248
g348
(lp1249
(i__main__
DelphiIdentAccess
p1250
(dp1251
g356
S'self'
p1252
sg346
(lp1253
sbasbasbsbsbasbsbasbsg427
(lp1254
(i__main__
DelphiVarSection
p1255
(dp1256
g431
I0
sg432
(lp1257
(idelphi
DelphiVarDecl
p1258
(dp1259
g436
Nsg437
(lp1260
S'delta'
p1261
aS'newValue'
p1262
aS'lineLength'
p1263
asg55
(i__main__
DelphiPrimitiveType
p1264
(dp1265
g58
g59
sbsbasbasbsbsS'paint'
p1266
(i__main__
DelphiMethodImplementation
p1267
(dp1268
g308
g168
sg39
g170
sg47
(lp1269
sg316
(lp1270
sg318
(lp1271
sg320
(lp1272
g322
asg323
(dp1273
sg61
S'KfSlider'
p1274
sg62
Nsg328
(lp1275
sg65
I0
sg66
g109
sg330
(i__main__
DelphiBlock
p1276
(dp1277
g333
(idelphi
DelphiCompoundStatement
p1278
(dp1279
g336
(lp1280
(idelphi
DelphiWithStatement
p1281
(dp1282
g920
(idelphi
DelphiCompoundStatement
p1283
(dp1284
g336
(lp1285
(i__main__
DelphiAssignStatement
p1286
(dp1287
g340
(i__main__
DelphiIdentAccess
p1288
(dp1289
g356
S'self'
p1290
sg346
(lp1291
(idelphi
DelphiFieldEndAccess
p1292
(dp1293
g629
S'getClientRect'
p1294
sbasbsg380
(i__main__
DelphiIdentAccess
p1295
(dp1296
g356
S'fullRect'
p1297
sg346
(lp1298
sbsba(i__main__
DelphiAssignStatement
p1299
(dp1300
g340
(i__main__
DelphiIdentAccess
p1301
(dp1302
g356
S'clBtnFace'
p1303
sg346
(lp1304
sbsg380
(i__main__
DelphiIdentAccess
p1305
(dp1306
g356
S'brush'
p1307
sg346
(lp1308
(idelphi
DelphiFieldEndAccess
p1309
(dp1310
g629
S'color'
p1311
sbasbsg561
(lp1312
S' start with total fill '
p1313
asba(i__main__
DelphiAssignStatement
p1314
(dp1315
g340
(i__main__
DelphiIdentAccess
p1316
(dp1317
g356
S'bsSolid'
p1318
sg346
(lp1319
sbsg380
(i__main__
DelphiIdentAccess
p1320
(dp1321
g356
S'brush'
p1322
sg346
(lp1323
(idelphi
DelphiFieldEndAccess
p1324
(dp1325
g629
S'style'
p1326
sbasbsba(i__main__
DelphiAssignStatement
p1327
(dp1328
g340
Nsg380
(i__main__
DelphiIdentAccess
p1329
(dp1330
g356
S'fillRect'
p1331
sg346
(lp1332
(idelphi
DelphiFunctionEndAccess
p1333
(dp1334
g348
(lp1335
(i__main__
DelphiIdentAccess
p1336
(dp1337
g356
S'fullRect'
p1338
sg346
(lp1339
sbasbasbsba(i__main__
DelphiAssignStatement
p1340
(dp1341
g340
(i__main__
DelphiIdentAccess
p1342
(dp1343
g356
S'fullRect'
p1344
sg346
(lp1345
sbsg380
(i__main__
DelphiIdentAccess
p1346
(dp1347
g356
S'lineRect'
p1348
sg346
(lp1349
sbsg561
(lp1350
S' rect for line '
p1351
asba(idelphi
DelphiWithStatement
p1352
(dp1353
g920
(idelphi
DelphiCompoundStatement
p1354
(dp1355
g336
(lp1356
(i__main__
DelphiAssignStatement
p1357
(dp1358
g340
(idelphi
DelphiAddOp
p1359
(dp1360
g352
S'+'
sg353
(idelphi
DelphiIntegerValue
p1361
(dp1362
g422
S'2'
sbsg359
(idelphi
DelphiAddOp
p1363
(dp1364
g352
S'+'
sg353
(idelphi
DelphiMulOp
p1365
(dp1366
g343
(idelphi
DelphiIntegerValue
p1367
(dp1368
g422
S'2'
sbsg364
g1124
sg365
(i__main__
DelphiIdentAccess
p1369
(dp1370
g356
S'draggerWidth'
p1371
sg346
(lp1372
sbsbsg359
(i__main__
DelphiIdentAccess
p1373
(dp1374
g356
S'left'
p1375
sg346
(lp1376
sbsbsbsg380
(i__main__
DelphiIdentAccess
p1377
(dp1378
g356
S'left'
p1379
sg346
(lp1380
sbsba(i__main__
DelphiAssignStatement
p1381
(dp1382
g340
(idelphi
DelphiAddOp
p1383
(dp1384
g352
S'-'
sg353
(idelphi
DelphiIntegerValue
p1385
(dp1386
g422
S'1'
sbsg359
(idelphi
DelphiAddOp
p1387
(dp1388
g352
S'-'
sg353
(idelphi
DelphiMulOp
p1389
(dp1390
g343
(idelphi
DelphiIntegerValue
p1391
(dp1392
g422
S'2'
sbsg364
g1124
sg365
(i__main__
DelphiIdentAccess
p1393
(dp1394
g356
S'draggerWidth'
p1395
sg346
(lp1396
sbsbsg359
(i__main__
DelphiIdentAccess
p1397
(dp1398
g356
S'right'
p1399
sg346
(lp1400
sbsbsbsg380
(i__main__
DelphiIdentAccess
p1401
(dp1402
g356
S'right'
p1403
sg346
(lp1404
sbsba(i__main__
DelphiAssignStatement
p1405
(dp1406
g340
(idelphi
DelphiAddOp
p1407
(dp1408
g352
S'-'
sg353
(idelphi
DelphiMulOp
p1409
(dp1410
g343
(idelphi
DelphiIntegerValue
p1411
(dp1412
g422
S'2'
sbsg364
g1124
sg365
(i__main__
DelphiIdentAccess
p1413
(dp1414
g356
S'kSliderBlueLineThickness'
p1415
sg346
(lp1416
sbsbsg359
(idelphi
DelphiAddOp
p1417
(dp1418
g352
S'+'
sg353
(idelphi
DelphiMulOp
p1419
(dp1420
g343
(idelphi
DelphiIntegerValue
p1421
(dp1422
g422
S'2'
sbsg364
g1124
sg365
(idelphi
DelphiNestedExpressionListAccess
p1423
(dp1424
g346
(lp1425
sg348
(lp1426
(idelphi
DelphiAddOp
p1427
(dp1428
g352
S'-'
sg353
(i__main__
DelphiIdentAccess
p1429
(dp1430
g356
S'top'
p1431
sg346
(lp1432
sbsg359
(i__main__
DelphiIdentAccess
p1433
(dp1434
g356
S'bottom'
p1435
sg346
(lp1436
sbsbasbsbsg359
(i__main__
DelphiIdentAccess
p1437
(dp1438
g356
S'top'
p1439
sg346
(lp1440
sbsbsbsg380
(i__main__
DelphiIdentAccess
p1441
(dp1442
g356
S'top'
p1443
sg346
(lp1444
sbsba(i__main__
DelphiAssignStatement
p1445
(dp1446
g340
(idelphi
DelphiAddOp
p1447
(dp1448
g352
S'+'
sg353
(i__main__
DelphiIdentAccess
p1449
(dp1450
g356
S'kSliderBlueLineThickness'
p1451
sg346
(lp1452
sbsg359
(i__main__
DelphiIdentAccess
p1453
(dp1454
g356
S'top'
p1455
sg346
(lp1456
sbsbsg380
(i__main__
DelphiIdentAccess
p1457
(dp1458
g356
S'bottom'
p1459
sg346
(lp1460
sbsbasbsS'variableReferenceList'
p1461
(lp1462
(i__main__
DelphiIdentAccess
p1463
(dp1464
g356
S'lineRect'
p1465
sg346
(lp1466
sbasba(i__main__
DelphiAssignStatement
p1467
(dp1468
g340
(i__main__
DelphiIdentAccess
p1469
(dp1470
g356
S'self'
p1471
sg346
(lp1472
(idelphi
DelphiFieldEndAccess
p1473
(dp1474
g629
S'xDistanceFromCurrentValue'
p1475
sba(idelphi
DelphiFunctionEndAccess
p1476
(dp1477
g348
(lp1478
(idelphi
DelphiAddOp
p1479
(dp1480
g352
S'-'
sg353
(i__main__
DelphiIdentAccess
p1481
(dp1482
g356
S'lineRect'
p1483
sg346
(lp1484
(idelphi
DelphiFieldEndAccess
p1485
(dp1486
g629
S'left'
p1487
sbasbsg359
(i__main__
DelphiIdentAccess
p1488
(dp1489
g356
S'lineRect'
p1490
sg346
(lp1491
(idelphi
DelphiFieldEndAccess
p1492
(dp1493
g629
S'right'
p1494
sbasbsbasbasbsg380
(i__main__
DelphiIdentAccess
p1495
(dp1496
g356
S'distance'
p1497
sg346
(lp1498
sbsg561
(lp1499
S' rect for dragger '
p1500
asba(idelphi
DelphiWithStatement
p1501
(dp1502
g920
(idelphi
DelphiCompoundStatement
p1503
(dp1504
g336
(lp1505
(i__main__
DelphiAssignStatement
p1506
(dp1507
g340
(idelphi
DelphiAddOp
p1508
(dp1509
g352
S'-'
sg353
(idelphi
DelphiMulOp
p1510
(dp1511
g343
(idelphi
DelphiIntegerValue
p1512
(dp1513
g422
S'2'
sbsg364
S'mod'
p1514
sg365
(i__main__
DelphiIdentAccess
p1515
(dp1516
g356
S'draggerWidth'
p1517
sg346
(lp1518
sbsbsg359
(idelphi
DelphiAddOp
p1519
(dp1520
g352
S'-'
sg353
(idelphi
DelphiMulOp
p1521
(dp1522
g343
(idelphi
DelphiIntegerValue
p1523
(dp1524
g422
S'2'
sbsg364
g1124
sg365
(i__main__
DelphiIdentAccess
p1525
(dp1526
g356
S'draggerWidth'
p1527
sg346
(lp1528
sbsbsg359
(idelphi
DelphiAddOp
p1529
(dp1530
g352
S'+'
sg353
(i__main__
DelphiIdentAccess
p1531
(dp1532
g356
S'distance'
p1533
sg346
(lp1534
sbsg359
(i__main__
DelphiIdentAccess
p1535
(dp1536
g356
S'lineRect'
p1537
sg346
(lp1538
(idelphi
DelphiFieldEndAccess
p1539
(dp1540
g629
S'left'
p1541
sbasbsbsbsbsg380
(i__main__
DelphiIdentAccess
p1542
(dp1543
g356
S'left'
p1544
sg346
(lp1545
sbsba(i__main__
DelphiAssignStatement
p1546
(dp1547
g340
(idelphi
DelphiAddOp
p1548
(dp1549
g352
S'+'
sg353
(i__main__
DelphiIdentAccess
p1550
(dp1551
g356
S'draggerWidth'
p1552
sg346
(lp1553
sbsg359
(i__main__
DelphiIdentAccess
p1554
(dp1555
g356
S'left'
p1556
sg346
(lp1557
sbsbsg380
(i__main__
DelphiIdentAccess
p1558
(dp1559
g356
S'right'
p1560
sg346
(lp1561
sbsba(i__main__
DelphiAssignStatement
p1562
(dp1563
g340
(idelphi
DelphiAddOp
p1564
(dp1565
g352
S'+'
sg353
(idelphi
DelphiMulOp
p1566
(dp1567
g343
(idelphi
DelphiIntegerValue
p1568
(dp1569
g422
S'2'
sbsg364
g1124
sg365
(i__main__
DelphiIdentAccess
p1570
(dp1571
g356
S'kSliderBlueLineThickness'
p1572
sg346
(lp1573
sbsbsg359
(idelphi
DelphiAddOp
p1574
(dp1575
g352
S'-'
sg353
(idelphi
DelphiMulOp
p1576
(dp1577
g343
(idelphi
DelphiIntegerValue
p1578
(dp1579
g422
S'2'
sbsg364
g1124
sg365
(i__main__
DelphiIdentAccess
p1580
(dp1581
g356
S'draggerHeight'
p1582
sg346
(lp1583
sbsbsg359
(i__main__
DelphiIdentAccess
p1584
(dp1585
g356
S'lineRect'
p1586
sg346
(lp1587
(idelphi
DelphiFieldEndAccess
p1588
(dp1589
g629
S'top'
p1590
sbasbsbsbsg380
(i__main__
DelphiIdentAccess
p1591
(dp1592
g356
S'top'
p1593
sg346
(lp1594
sbsba(i__main__
DelphiAssignStatement
p1595
(dp1596
g340
(idelphi
DelphiAddOp
p1597
(dp1598
g352
S'+'
sg353
(i__main__
DelphiIdentAccess
p1599
(dp1600
g356
S'draggerHeight'
p1601
sg346
(lp1602
sbsg359
(i__main__
DelphiIdentAccess
p1603
(dp1604
g356
S'top'
p1605
sg346
(lp1606
sbsbsg380
(i__main__
DelphiIdentAccess
p1607
(dp1608
g356
S'bottom'
p1609
sg346
(lp1610
sbsbasbsg1461
(lp1611
(i__main__
DelphiIdentAccess
p1612
(dp1613
g356
S'draggerRect'
p1614
sg346
(lp1615
sbasba(i__main__
DelphiAssignStatement
p1616
(dp1617
g340
(i__main__
DelphiIdentAccess
p1618
(dp1619
g356
S'lineRect'
p1620
sg346
(lp1621
sbsg380
(i__main__
DelphiIdentAccess
p1622
(dp1623
g356
S'blueRect'
p1624
sg346
(lp1625
sbsg561
(lp1626
S' blue rect '
p1627
asba(i__main__
DelphiAssignStatement
p1628
(dp1629
g340
(idelphi
DelphiAddOp
p1630
(dp1631
g352
S'+'
sg353
(i__main__
DelphiIdentAccess
p1632
(dp1633
g356
S'distance'
p1634
sg346
(lp1635
sbsg359
(i__main__
DelphiIdentAccess
p1636
(dp1637
g356
S'blueRect'
p1638
sg346
(lp1639
(idelphi
DelphiFieldEndAccess
p1640
(dp1641
g629
S'left'
p1642
sbasbsbsg380
(i__main__
DelphiIdentAccess
p1643
(dp1644
g356
S'blueRect'
p1645
sg346
(lp1646
(idelphi
DelphiFieldEndAccess
p1647
(dp1648
g629
S'right'
p1649
sbasbsba(i__main__
DelphiAssignStatement
p1650
(dp1651
g340
(i__main__
DelphiIdentAccess
p1652
(dp1653
g356
S'lineRect'
p1654
sg346
(lp1655
sbsg380
(i__main__
DelphiIdentAccess
p1656
(dp1657
g356
S'grayRect'
p1658
sg346
(lp1659
sbsg561
(lp1660
S' gray rect '
p1661
asba(i__main__
DelphiAssignStatement
p1662
(dp1663
g340
(idelphi
DelphiAddOp
p1664
(dp1665
g352
S'+'
sg353
(idelphi
DelphiMulOp
p1666
(dp1667
g343
(idelphi
DelphiIntegerValue
p1668
(dp1669
g422
S'2'
sbsg364
g1124
sg365
(idelphi
DelphiNestedExpressionListAccess
p1670
(dp1671
g346
(lp1672
sg348
(lp1673
(idelphi
DelphiAddOp
p1674
(dp1675
g352
S'-'
sg353
(i__main__
DelphiIdentAccess
p1676
(dp1677
g356
S'grayRect'
p1678
sg346
(lp1679
(idelphi
DelphiFieldEndAccess
p1680
(dp1681
g629
S'top'
p1682
sbasbsg359
(i__main__
DelphiIdentAccess
p1683
(dp1684
g356
S'grayRect'
p1685
sg346
(lp1686
(idelphi
DelphiFieldEndAccess
p1687
(dp1688
g629
S'bottom'
p1689
sbasbsbasbsbsg359
(i__main__
DelphiIdentAccess
p1690
(dp1691
g356
S'grayRect'
p1692
sg346
(lp1693
(idelphi
DelphiFieldEndAccess
p1694
(dp1695
g629
S'top'
p1696
sbasbsbsg380
(i__main__
DelphiIdentAccess
p1697
(dp1698
g356
S'grayRect'
p1699
sg346
(lp1700
(idelphi
DelphiFieldEndAccess
p1701
(dp1702
g629
S'top'
p1703
sbasbsba(i__main__
DelphiAssignStatement
p1704
(dp1705
g340
(idelphi
DelphiAddOp
p1706
(dp1707
g352
S'+'
sg353
(i__main__
DelphiIdentAccess
p1708
(dp1709
g356
S'kSliderGrayLineThickness'
p1710
sg346
(lp1711
sbsg359
(i__main__
DelphiIdentAccess
p1712
(dp1713
g356
S'grayRect'
p1714
sg346
(lp1715
(idelphi
DelphiFieldEndAccess
p1716
(dp1717
g629
S'top'
p1718
sbasbsbsg380
(i__main__
DelphiIdentAccess
p1719
(dp1720
g356
S'grayRect'
p1721
sg346
(lp1722
(idelphi
DelphiFieldEndAccess
p1723
(dp1724
g629
S'bottom'
p1725
sbasbsba(idelphi
DelphiIfStatement
p1726
(dp1727
g478
(i__main__
DelphiIdentAccess
p1728
(dp1729
g356
S'self'
p1730
sg346
(lp1731
(idelphi
DelphiFieldEndAccess
p1732
(dp1733
g629
S'enabled'
p1734
sbasbsg492
Nsg493
(i__main__
DelphiAssignStatement
p1735
(dp1736
g340
(idelphi
DelphiAddOp
p1737
(dp1738
g352
S'+'
sg353
(idelphi
DelphiIntegerValue
p1739
(dp1740
g422
S'1'
sbsg359
(i__main__
DelphiIdentAccess
p1741
(dp1742
g356
S'blueRect'
p1743
sg346
(lp1744
(idelphi
DelphiFieldEndAccess
p1745
(dp1746
g629
S'right'
p1747
sbasbsbsg380
(i__main__
DelphiIdentAccess
p1748
(dp1749
g356
S'grayRect'
p1750
sg346
(lp1751
(idelphi
DelphiFieldEndAccess
p1752
(dp1753
g629
S'left'
p1754
sbasbsbsba(i__main__
DelphiAssignStatement
p1755
(dp1756
g340
(i__main__
DelphiIdentAccess
p1757
(dp1758
g356
S'clBtnShadow'
p1759
sg346
(lp1760
sbsg380
(i__main__
DelphiIdentAccess
p1761
(dp1762
g356
S'brush'
p1763
sg346
(lp1764
(idelphi
DelphiFieldEndAccess
p1765
(dp1766
g629
S'color'
p1767
sbasbsg561
(lp1768
S'draw gray line'
p1769
asba(i__main__
DelphiAssignStatement
p1770
(dp1771
g340
Nsg380
(i__main__
DelphiIdentAccess
p1772
(dp1773
g356
S'fillRect'
p1774
sg346
(lp1775
(idelphi
DelphiFunctionEndAccess
p1776
(dp1777
g348
(lp1778
(i__main__
DelphiIdentAccess
p1779
(dp1780
g356
S'grayRect'
p1781
sg346
(lp1782
sbasbasbsba(idelphi
DelphiIfStatement
p1783
(dp1784
g478
(i__main__
DelphiIdentAccess
p1785
(dp1786
g356
S'self'
p1787
sg346
(lp1788
(idelphi
DelphiFieldEndAccess
p1789
(dp1790
g629
S'enabled'
p1791
sbasbsg492
Nsg493
(idelphi
DelphiCompoundStatement
p1792
(dp1793
g336
(lp1794
(i__main__
DelphiAssignStatement
p1795
(dp1796
g340
(i__main__
DelphiIdentAccess
p1797
(dp1798
g356
S'clBlue'
p1799
sg346
(lp1800
sbsg380
(i__main__
DelphiIdentAccess
p1801
(dp1802
g356
S'brush'
p1803
sg346
(lp1804
(idelphi
DelphiFieldEndAccess
p1805
(dp1806
g629
S'color'
p1807
sbasbsg561
(lp1808
S'draw blue line'
p1809
asba(i__main__
DelphiAssignStatement
p1810
(dp1811
g340
Nsg380
(i__main__
DelphiIdentAccess
p1812
(dp1813
g356
S'fillRect'
p1814
sg346
(lp1815
(idelphi
DelphiFunctionEndAccess
p1816
(dp1817
g348
(lp1818
(i__main__
DelphiIdentAccess
p1819
(dp1820
g356
S'blueRect'
p1821
sg346
(lp1822
sbasbasbsbasbsba(idelphi
DelphiIfStatement
p1823
(dp1824
g478
(idelphi
DelphiNot
p1825
(dp1826
S'factor'
p1827
(i__main__
DelphiIdentAccess
p1828
(dp1829
g356
S'self'
p1830
sg346
(lp1831
(idelphi
DelphiFieldEndAccess
p1832
(dp1833
g629
S'readOnly'
p1834
sbasbsbsg492
Nsg493
(i__main__
DelphiAssignStatement
p1835
(dp1836
g340
Nsg380
(i__main__
DelphiIdentAccess
p1837
(dp1838
g356
S'KfDrawButton'
p1839
sg346
(lp1840
(idelphi
DelphiFunctionEndAccess
p1841
(dp1842
g348
(lp1843
(i__main__
DelphiIdentAccess
p1844
(dp1845
g356
S'Canvas'
p1846
sg346
(lp1847
sba(i__main__
DelphiIdentAccess
p1848
(dp1849
g356
S'draggerRect'
p1850
sg346
(lp1851
sba(i__main__
DelphiIdentAccess
p1852
(dp1853
g356
S'self'
p1854
sg346
(lp1855
(idelphi
DelphiFieldEndAccess
p1856
(dp1857
g629
S'hasUnofficialFocus'
p1858
sbasba(i__main__
DelphiIdentAccess
p1859
(dp1860
g356
S'self'
p1861
sg346
(lp1862
(idelphi
DelphiFieldEndAccess
p1863
(dp1864
g629
S'enabled'
p1865
sbasbasbasbsg561
(lp1866
S'draw dragger if not read only '
p1867
asbsba(idelphi
DelphiIfStatement
p1868
(dp1869
g478
(idelphi
DelphiNestedExpressionListAccess
p1870
(dp1871
g346
(lp1872
sg348
(lp1873
(i__main__
DelphiIdentAccess
p1874
(dp1875
g356
S'self'
p1876
sg346
(lp1877
(idelphi
DelphiFieldEndAccess
p1878
(dp1879
g629
S'hasUnofficialFocus'
p1880
sbasbasbsg492
Nsg493
(idelphi
DelphiCompoundStatement
p1881
(dp1882
g336
(lp1883
(i__main__
DelphiAssignStatement
p1884
(dp1885
g340
(i__main__
DelphiIdentAccess
p1886
(dp1887
g356
S'clBtnShadow'
p1888
sg346
(lp1889
sbsg380
(i__main__
DelphiIdentAccess
p1890
(dp1891
g356
S'pen'
p1892
sg346
(lp1893
(idelphi
DelphiFieldEndAccess
p1894
(dp1895
g629
S'color'
p1896
sbasbsba(idelphi
DelphiWithStatement
p1897
(dp1898
g920
(idelphi
DelphiCompoundStatement
p1899
(dp1900
g336
(lp1901
(i__main__
DelphiAssignStatement
p1902
(dp1903
g340
Nsg380
(i__main__
DelphiIdentAccess
p1904
(dp1905
g356
S'moveTo'
p1906
sg346
(lp1907
(idelphi
DelphiFunctionEndAccess
p1908
(dp1909
g348
(lp1910
(idelphi
DelphiAddOp
p1911
(dp1912
g352
S'-'
sg353
(idelphi
DelphiIntegerValue
p1913
(dp1914
g422
S'1'
sbsg359
(i__main__
DelphiIdentAccess
p1915
(dp1916
g356
S'right'
p1917
sg346
(lp1918
sbsba(i__main__
DelphiIdentAccess
p1919
(dp1920
g356
S'top'
p1921
sg346
(lp1922
sbasbasbsba(i__main__
DelphiAssignStatement
p1923
(dp1924
g340
Nsg380
(i__main__
DelphiIdentAccess
p1925
(dp1926
g356
S'lineTo'
p1927
sg346
(lp1928
(idelphi
DelphiFunctionEndAccess
p1929
(dp1930
g348
(lp1931
(i__main__
DelphiIdentAccess
p1932
(dp1933
g356
S'left'
p1934
sg346
(lp1935
sba(i__main__
DelphiIdentAccess
p1936
(dp1937
g356
S'top'
p1938
sg346
(lp1939
sbasbasbsba(i__main__
DelphiAssignStatement
p1940
(dp1941
g340
Nsg380
(i__main__
DelphiIdentAccess
p1942
(dp1943
g356
S'lineTo'
p1944
sg346
(lp1945
(idelphi
DelphiFunctionEndAccess
p1946
(dp1947
g348
(lp1948
(i__main__
DelphiIdentAccess
p1949
(dp1950
g356
S'left'
p1951
sg346
(lp1952
sba(idelphi
DelphiAddOp
p1953
(dp1954
g352
S'-'
sg353
(idelphi
DelphiIntegerValue
p1955
(dp1956
g422
S'1'
sbsg359
(i__main__
DelphiIdentAccess
p1957
(dp1958
g356
S'bottom'
p1959
sg346
(lp1960
sbsbasbasbsba(i__main__
DelphiAssignStatement
p1961
(dp1962
g340
Nsg380
(i__main__
DelphiIdentAccess
p1963
(dp1964
g356
S'lineTo'
p1965
sg346
(lp1966
(idelphi
DelphiFunctionEndAccess
p1967
(dp1968
g348
(lp1969
(idelphi
DelphiAddOp
p1970
(dp1971
g352
S'-'
sg353
(idelphi
DelphiIntegerValue
p1972
(dp1973
g422
S'1'
sbsg359
(i__main__
DelphiIdentAccess
p1974
(dp1975
g356
S'right'
p1976
sg346
(lp1977
sbsba(idelphi
DelphiAddOp
p1978
(dp1979
g352
S'-'
sg353
(idelphi
DelphiIntegerValue
p1980
(dp1981
g422
S'1'
sbsg359
(i__main__
DelphiIdentAccess
p1982
(dp1983
g356
S'bottom'
p1984
sg346
(lp1985
sbsbasbasbsba(i__main__
DelphiAssignStatement
p1986
(dp1987
g340
Nsg380
(i__main__
DelphiIdentAccess
p1988
(dp1989
g356
S'lineTo'
p1990
sg346
(lp1991
(idelphi
DelphiFunctionEndAccess
p1992
(dp1993
g348
(lp1994
(idelphi
DelphiAddOp
p1995
(dp1996
g352
S'-'
sg353
(idelphi
DelphiIntegerValue
p1997
(dp1998
g422
S'1'
sbsg359
(i__main__
DelphiIdentAccess
p1999
(dp2000
g356
S'right'
p2001
sg346
(lp2002
sbsba(i__main__
DelphiIdentAccess
p2003
(dp2004
g356
S'top'
p2005
sg346
(lp2006
sbasbasbsbasbsg1461
(lp2007
(i__main__
DelphiIdentAccess
p2008
(dp2009
g356
S'fullRect'
p2010
sg346
(lp2011
sbasbasbsbasbsg1461
(lp2012
(i__main__
DelphiIdentAccess
p2013
(dp2014
g356
S'Canvas'
p2015
sg346
(lp2016
sbasbasbsg427
(lp2017
(i__main__
DelphiVarSection
p2018
(dp2019
g431
I0
sg432
(lp2020
(idelphi
DelphiVarDecl
p2021
(dp2022
g436
Nsg437
(lp2023
S'grayRect'
p2024
aS'blueRect'
p2025
aS'fullRect'
p2026
aS'lineRect'
p2027
asg55
(i__main__
DelphiNamedType
p2028
(dp2029
g58
S'TRect'
p2030
sg94
g1
sg95
Nsbsba(idelphi
DelphiVarDecl
p2031
(dp2032
g436
Nsg437
(lp2033
S'distance'
p2034
asg55
(i__main__
DelphiPrimitiveType
p2035
(dp2036
g58
g59
sbsbasbasbsbsS'mousedown'
p2037
(i__main__
DelphiMethodImplementation
p2038
(dp2039
g308
g173
sg39
g175
sg47
(lp2040
(i__main__
DelphiFormalParameter
p2041
(dp2042
g51
Nsg52
(lp2043
S'Button'
p2044
asg55
(i__main__
DelphiNamedType
p2045
(dp2046
g58
S'TMouseButton'
p2047
sg94
g1
sg95
Nsbsg60
Nsba(i__main__
DelphiFormalParameter
p2048
(dp2049
g51
Nsg52
(lp2050
S'Shift'
p2051
asg55
(i__main__
DelphiNamedType
p2052
(dp2053
g58
S'TShiftState'
p2054
sg94
g1
sg95
Nsbsg60
Nsba(i__main__
DelphiFormalParameter
p2055
(dp2056
g51
Nsg52
(lp2057
S'X'
aS'Y'
asg55
(i__main__
DelphiPrimitiveType
p2058
(dp2059
g58
g108
sbsg60
Nsbasg316
(lp2060
sg318
(lp2061
sg320
(lp2062
g322
ag2044
ag2051
aS'X'
aS'Y'
asg323
(dp2063
S'Y'
g2058
sg2051
g2052
sg2044
g2045
sS'X'
g2058
ssg61
S'KfSlider'
p2064
sg62
Nsg328
(lp2065
sg65
I0
sg66
g109
sg330
(i__main__
DelphiBlock
p2066
(dp2067
g333
(idelphi
DelphiCompoundStatement
p2068
(dp2069
g336
(lp2070
(i__main__
DelphiAssignStatement
p2071
(dp2072
g340
Nsg380
(idelphi
DelphiInheritedCall
p2073
(dp2074
g356
S'MouseDown'
p2075
sg348
(lp2076
(i__main__
DelphiIdentAccess
p2077
(dp2078
g356
S'Button'
p2079
sg346
(lp2080
sba(i__main__
DelphiIdentAccess
p2081
(dp2082
g356
S'Shift'
p2083
sg346
(lp2084
sba(i__main__
DelphiIdentAccess
p2085
(dp2086
g356
S'X'
sg346
(lp2087
sba(i__main__
DelphiIdentAccess
p2088
(dp2089
g356
S'Y'
sg346
(lp2090
sbasbsba(idelphi
DelphiIfStatement
p2091
(dp2092
g478
(i__main__
DelphiIdentAccess
p2093
(dp2094
g356
S'self'
p2095
sg346
(lp2096
(idelphi
DelphiFieldEndAccess
p2097
(dp2098
g629
S'readOnly'
p2099
sbasbsg492
Nsg493
(idelphi
DelphiCompoundStatement
p2100
(dp2101
g336
(lp2102
(idelphi
DelphiIfStatement
p2103
(dp2104
g478
(i__main__
DelphiIdentAccess
p2105
(dp2106
g356
S'assigned'
p2107
sg346
(lp2108
(idelphi
DelphiFunctionEndAccess
p2109
(dp2110
g348
(lp2111
(i__main__
DelphiIdentAccess
p2112
(dp2113
g356
S'FOnMouseDown'
p2114
sg346
(lp2115
sbasbasbsg492
Nsg493
(i__main__
DelphiAssignStatement
p2116
(dp2117
g340
Nsg380
(i__main__
DelphiIdentAccess
p2118
(dp2119
g356
S'FOnMouseDown'
p2120
sg346
(lp2121
(idelphi
DelphiFunctionEndAccess
p2122
(dp2123
g348
(lp2124
(i__main__
DelphiIdentAccess
p2125
(dp2126
g356
S'self'
p2127
sg346
(lp2128
sbasbasbsbsba(i__main__
DelphiExitStatement
p2129
(dp2130
g540
g2038
sbasbsba(idelphi
DelphiIfStatement
p2131
(dp2132
g478
(idelphi
DelphiNestedExpressionListAccess
p2133
(dp2134
g346
(lp2135
sg348
(lp2136
(idelphi
DelphiRelOp
p2137
(dp2138
g481
(i__main__
DelphiIdentAccess
p2139
(dp2140
g356
S'Button'
p2141
sg346
(lp2142
sbsg486
(i__main__
DelphiIdentAccess
p2143
(dp2144
g356
S'mbLeft'
p2145
sg346
(lp2146
sbsg491
S'='
sbasbsg492
Nsg493
(idelphi
DelphiCompoundStatement
p2147
(dp2148
g336
(lp2149
(i__main__
DelphiAssignStatement
p2150
(dp2151
g340
(i__main__
DelphiIdentAccess
p2152
(dp2153
g356
S'true'
p2154
sg346
(lp2155
sbsg380
(i__main__
DelphiIdentAccess
p2156
(dp2157
g356
S'dragging'
p2158
sg346
(lp2159
sbsg561
(lp2160
S'and (pointOnDragger(x, y))'
p2161
asba(i__main__
DelphiAssignStatement
p2162
(dp2163
g340
(i__main__
DelphiIdentAccess
p2164
(dp2165
g356
S'x'
sg346
(lp2166
sbsg380
(i__main__
DelphiIdentAccess
p2167
(dp2168
g356
S'dragStart'
p2169
sg346
(lp2170
sbsba(i__main__
DelphiAssignStatement
p2171
(dp2172
g340
(i__main__
DelphiIdentAccess
p2173
(dp2174
g356
S'currentValue'
p2175
sg346
(lp2176
sbsg380
(i__main__
DelphiIdentAccess
p2177
(dp2178
g356
S'originalValue'
p2179
sg346
(lp2180
sbsba(i__main__
DelphiAssignStatement
p2181
(dp2182
g340
(i__main__
DelphiIdentAccess
p2183
(dp2184
g356
S'true'
p2185
sg346
(lp2186
sbsg380
(i__main__
DelphiIdentAccess
p2187
(dp2188
g356
S'self'
p2189
sg346
(lp2190
(idelphi
DelphiFieldEndAccess
p2191
(dp2192
g629
S'hasUnofficialFocus'
p2193
sbasbsg561
(lp2194
S'pdf fix - may want to do more here'
p2195
asbasbsba(i__main__
DelphiAssignStatement
p2196
(dp2197
g340
Nsg380
(i__main__
DelphiIdentAccess
p2198
(dp2199
g356
S'self'
p2200
sg346
(lp2201
(idelphi
DelphiFieldEndAccess
p2202
(dp2203
g629
S'invalidate'
p2204
sbasbsba(i__main__
DelphiAssignStatement
p2205
(dp2206
g340
Nsg380
(i__main__
DelphiIdentAccess
p2207
(dp2208
g356
S'self'
p2209
sg346
(lp2210
(idelphi
DelphiFieldEndAccess
p2211
(dp2212
g629
S'refresh'
p2213
sbasbsba(idelphi
DelphiIfStatement
p2214
(dp2215
g478
(i__main__
DelphiIdentAccess
p2216
(dp2217
g356
S'assigned'
p2218
sg346
(lp2219
(idelphi
DelphiFunctionEndAccess
p2220
(dp2221
g348
(lp2222
(i__main__
DelphiIdentAccess
p2223
(dp2224
g356
S'FOnMouseDown'
p2225
sg346
(lp2226
sbasbasbsg492
Nsg493
(i__main__
DelphiAssignStatement
p2227
(dp2228
g340
Nsg380
(i__main__
DelphiIdentAccess
p2229
(dp2230
g356
S'FOnMouseDown'
p2231
sg346
(lp2232
(idelphi
DelphiFunctionEndAccess
p2233
(dp2234
g348
(lp2235
(i__main__
DelphiIdentAccess
p2236
(dp2237
g356
S'self'
p2238
sg346
(lp2239
sbasbasbsbsbasbsg427
(lp2240
sbsbsS'usedefaultsizeanddraggersize'
p2241
(i__main__
DelphiMethodImplementation
p2242
(dp2243
g308
g197
sg39
g199
sg47
(lp2244
sg316
(lp2245
sg318
(lp2246
sg320
(lp2247
g322
asg323
(dp2248
sg61
S'KfSlider'
p2249
sg62
Nsg328
(lp2250
sg65
I0
sg66
g109
sg330
(i__main__
DelphiBlock
p2251
(dp2252
g333
(idelphi
DelphiCompoundStatement
p2253
(dp2254
g336
(lp2255
(idelphi
DelphiIfStatement
p2256
(dp2257
g478
(i__main__
DelphiIdentAccess
p2258
(dp2259
g356
S'readOnly'
p2260
sg346
(lp2261
sbsg492
(idelphi
DelphiCompoundStatement
p2262
(dp2263
g336
(lp2264
(i__main__
DelphiAssignStatement
p2265
(dp2266
g340
(i__main__
DelphiIdentAccess
p2267
(dp2268
g356
S'kSliderHeightNotReadOnly'
p2269
sg346
(lp2270
sbsg380
(i__main__
DelphiIdentAccess
p2271
(dp2272
g356
S'height'
p2273
sg346
(lp2274
sbsba(i__main__
DelphiAssignStatement
p2275
(dp2276
g340
(i__main__
DelphiIdentAccess
p2277
(dp2278
g356
S'kSliderDefaultWidth'
p2279
sg346
(lp2280
sbsg380
(i__main__
DelphiIdentAccess
p2281
(dp2282
g356
S'width'
p2283
sg346
(lp2284
sbsba(i__main__
DelphiAssignStatement
p2285
(dp2286
g340
(i__main__
DelphiIdentAccess
p2287
(dp2288
g356
S'kSliderDraggerHeight'
p2289
sg346
(lp2290
sbsg380
(i__main__
DelphiIdentAccess
p2291
(dp2292
g356
S'draggerHeight'
p2293
sg346
(lp2294
sbsba(i__main__
DelphiAssignStatement
p2295
(dp2296
g340
(i__main__
DelphiIdentAccess
p2297
(dp2298
g356
S'kSliderDraggerWidth'
p2299
sg346
(lp2300
sbsg380
(i__main__
DelphiIdentAccess
p2301
(dp2302
g356
S'draggerWidth'
p2303
sg346
(lp2304
sbsbasbsg493
(idelphi
DelphiCompoundStatement
p2305
(dp2306
g336
(lp2307
(i__main__
DelphiAssignStatement
p2308
(dp2309
g340
(i__main__
DelphiIdentAccess
p2310
(dp2311
g356
S'kSliderHeightReadOnly'
p2312
sg346
(lp2313
sbsg380
(i__main__
DelphiIdentAccess
p2314
(dp2315
g356
S'height'
p2316
sg346
(lp2317
sbsg561
(lp2318
S' assumes that readOnly is already set, and assumes that value of readOnly will not be changed\r'
p2319
aS'    unless this is called again afterward '
p2320
asba(i__main__
DelphiAssignStatement
p2321
(dp2322
g340
(i__main__
DelphiIdentAccess
p2323
(dp2324
g356
S'kSliderDefaultWidth'
p2325
sg346
(lp2326
sbsg380
(i__main__
DelphiIdentAccess
p2327
(dp2328
g356
S'width'
p2329
sg346
(lp2330
sbsba(i__main__
DelphiAssignStatement
p2331
(dp2332
g340
(idelphi
DelphiIntegerValue
p2333
(dp2334
g422
S'0'
sbsg380
(i__main__
DelphiIdentAccess
p2335
(dp2336
g356
S'draggerHeight'
p2337
sg346
(lp2338
sbsba(i__main__
DelphiAssignStatement
p2339
(dp2340
g340
(idelphi
DelphiIntegerValue
p2341
(dp2342
g422
S'0'
sbsg380
(i__main__
DelphiIdentAccess
p2343
(dp2344
g356
S'draggerWidth'
p2345
sg346
(lp2346
sbsbasbsbasbsg427
(lp2347
sbsbsS'wmgetdlgcode'
p2348
(i__main__
DelphiMethodImplementation
p2349
(dp2350
g308
g202
sg39
g204
sg47
(lp2351
(i__main__
DelphiFormalParameter
p2352
(dp2353
g51
Nsg52
(lp2354
g209
asg55
(i__main__
DelphiNamedType
p2355
(dp2356
g58
S'TWMGetDlgCode'
p2357
sg94
g1
sg95
Nsbsg60
g142
sbasg316
(lp2358
sg318
(lp2359
g209
asg320
(lp2360
g322
ag209
asg323
(dp2361
g209
g2355
ssg61
S'KfSlider'
p2362
sg62
Nsg328
(lp2363
sg65
I0
sg66
g109
sg330
(i__main__
DelphiBlock
p2364
(dp2365
g333
(idelphi
DelphiCompoundStatement
p2366
(dp2367
g336
(lp2368
(i__main__
DelphiAssignStatement
p2369
(dp2370
g340
(i__main__
DelphiIdentAccess
p2371
(dp2372
g356
S'DLGC_WANTARROWS'
p2373
sg346
(lp2374
sbsg380
(i__main__
DelphiIdentAccess
p2375
(dp2376
g356
g209
sg346
(lp2377
(idelphi
DelphiFieldEndAccess
p2378
(dp2379
g629
S'result'
p2380
sbasbsbasbsg427
(lp2381
sbsbsS'pointondragger'
p2382
(i__main__
DelphiMethodImplementation
p2383
(dp2384
g308
g214
sg39
g216
sg47
(lp2385
(i__main__
DelphiFormalParameter
p2386
(dp2387
g51
Nsg52
(lp2388
S'x'
aS'y'
asg55
(i__main__
DelphiPrimitiveType
p2389
(dp2390
g58
g59
sbsg60
Nsbasg316
(lp2391
sg318
(lp2392
sg320
(lp2393
g322
aS'x'
aS'y'
asg323
(dp2394
S'y'
g2389
sS'x'
g2389
ssg61
S'KfSlider'
p2395
sg62
(i__main__
DelphiPrimitiveType
p2396
(dp2397
g58
g81
sbsg328
(lp2398
sg65
I0
sg66
g67
sg330
(i__main__
DelphiBlock
p2399
(dp2400
g333
(idelphi
DelphiCompoundStatement
p2401
(dp2402
g336
(lp2403
(i__main__
DelphiAssignStatement
p2404
(dp2405
g340
(i__main__
DelphiIdentAccess
p2406
(dp2407
g356
S'ptInRect'
p2408
sg346
(lp2409
(idelphi
DelphiFunctionEndAccess
p2410
(dp2411
g348
(lp2412
(i__main__
DelphiIdentAccess
p2413
(dp2414
g356
S'draggerRect'
p2415
sg346
(lp2416
sba(i__main__
DelphiIdentAccess
p2417
(dp2418
g356
S'Point'
p2419
sg346
(lp2420
(idelphi
DelphiFunctionEndAccess
p2421
(dp2422
g348
(lp2423
(i__main__
DelphiIdentAccess
p2424
(dp2425
g356
S'x'
sg346
(lp2426
sba(i__main__
DelphiIdentAccess
p2427
(dp2428
g356
S'y'
sg346
(lp2429
sbasbasbasbasbsg380
(i__main__
DelphiIdentAccess
p2430
(dp2431
g356
S'result'
p2432
sg346
(lp2433
sbsbasbsg427
(lp2434
sbsbsS'cmfocuschanged'
p2435
(i__main__
DelphiMethodImplementation
p2436
(dp2437
g308
g226
sg39
g228
sg47
(lp2438
(i__main__
DelphiFormalParameter
p2439
(dp2440
g51
Nsg52
(lp2441
g209
asg55
(i__main__
DelphiNamedType
p2442
(dp2443
g58
S'TCMFocusChanged'
p2444
sg94
g1
sg95
Nsbsg60
g142
sbasg316
(lp2445
sg318
(lp2446
g209
asg320
(lp2447
g322
ag209
asg323
(dp2448
g209
g2442
ssg61
S'KfSlider'
p2449
sg62
Nsg328
(lp2450
sg65
I0
sg66
g109
sg330
(i__main__
DelphiBlock
p2451
(dp2452
g333
(idelphi
DelphiCompoundStatement
p2453
(dp2454
g336
(lp2455
(i__main__
DelphiAssignStatement
p2456
(dp2457
g340
Nsg380
(idelphi
DelphiInheritedCall
p2458
(dp2459
g356
Nsg348
Nsbsbasg561
(lp2460
S'repaint;  '
p2461
asbsg427
(lp2462
sbsbssS'propertyDeclarations'
p2463
(dp2464
sS'variableNamesInDeclaredOrder'
p2465
(lp2466
g12
ag22
ag14
ag18
ag26
ag36
ag24
ag20
ag16
ag30
ag10
ag34
ag32
ag28
ag38
asba(i__main__
DelphiConstSection
p2467
(dp2468
S'constDeclList'
p2469
(lp2470
(idelphi
DelphiConstDeclaration
p2471
(dp2472
g436
(idelphi
DelphiIntegerValue
p2473
(dp2474
g422
S'5'
sbsg356
S'kSliderHeightReadOnly'
p2475
sg55
(idelphi
DelphiPrimitiveType
p2476
(dp2477
g58
S'UNDEFINED_NEEDS_CALCULATION'
p2478
sbsba(idelphi
DelphiConstDeclaration
p2479
(dp2480
g436
(idelphi
DelphiIntegerValue
p2481
(dp2482
g422
S'11'
p2483
sbsg356
S'kSliderHeightNotReadOnly'
p2484
sg55
(idelphi
DelphiPrimitiveType
p2485
(dp2486
g58
g2478
sbsba(idelphi
DelphiConstDeclaration
p2487
(dp2488
g436
(idelphi
DelphiIntegerValue
p2489
(dp2490
g422
S'7'
sbsg356
S'kSliderDraggerHeight'
p2491
sg55
(idelphi
DelphiPrimitiveType
p2492
(dp2493
g58
g2478
sbsba(idelphi
DelphiConstDeclaration
p2494
(dp2495
g436
(idelphi
DelphiIntegerValue
p2496
(dp2497
g422
S'5'
sbsg356
S'kSliderDraggerWidth'
p2498
sg55
(idelphi
DelphiPrimitiveType
p2499
(dp2500
g58
g2478
sbsba(idelphi
DelphiConstDeclaration
p2501
(dp2502
g436
(idelphi
DelphiIntegerValue
p2503
(dp2504
g422
S'1'
sbsg356
S'kSliderGrayLineThickness'
p2505
sg55
(idelphi
DelphiPrimitiveType
p2506
(dp2507
g58
g2478
sbsba(idelphi
DelphiConstDeclaration
p2508
(dp2509
g436
(idelphi
DelphiIntegerValue
p2510
(dp2511
g422
S'3'
sbsg356
S'kSliderBlueLineThickness'
p2512
sg55
(idelphi
DelphiPrimitiveType
p2513
(dp2514
g58
g2478
sbsba(idelphi
DelphiConstDeclaration
p2515
(dp2516
g436
(idelphi
DelphiIntegerValue
p2517
(dp2518
g422
S'20'
p2519
sbsg356
S'kSliderDefaultWidth'
p2520
sg55
(idelphi
DelphiPrimitiveType
p2521
(dp2522
g58
g2478
sbsba(idelphi
DelphiConstDeclaration
p2523
(dp2524
g436
(idelphi
DelphiIntegerValue
p2525
(dp2526
g422
S'1'
sbsg356
S'kMinDragDistance'
p2527
sg55
(idelphi
DelphiPrimitiveType
p2528
(dp2529
g58
g2478
sbsbasg431
I1
sba(i__main__
DelphiProceduralImplementation
p2530
(dp2531
g308
(i__main__
DelphiProceduralDeclaration
p2532
(dp2533
g47
(lp2534
(i__main__
DelphiFormalParameter
p2535
(dp2536
g51
Nsg52
(lp2537
S'aCanvas'
p2538
asg55
(i__main__
DelphiNamedType
p2539
(dp2540
g58
S'TCanvas'
p2541
sg94
g1
sg95
Nsbsg60
Nsba(i__main__
DelphiFormalParameter
p2542
(dp2543
g51
Nsg52
(lp2544
S'aRect'
p2545
asg55
(i__main__
DelphiNamedType
p2546
(dp2547
g58
S'TRect'
p2548
sg94
g1
sg95
Nsbsg60
Nsba(i__main__
DelphiFormalParameter
p2549
(dp2550
g51
Nsg52
(lp2551
S'selected'
p2552
asg55
(i__main__
DelphiPrimitiveType
p2553
(dp2554
g58
g81
sbsg60
Nsba(i__main__
DelphiFormalParameter
p2555
(dp2556
g51
Nsg52
(lp2557
S'enabled'
p2558
asg55
(i__main__
DelphiPrimitiveType
p2559
(dp2560
g58
g81
sbsg60
Nsbasg39
S'KfDrawButton'
p2561
sg62
Nsbsg39
g2561
sg62
Nsg316
(lp2562
sg318
(lp2563
sg320
(lp2564
S'aCanvas'
p2565
aS'aRect'
p2566
aS'selected'
p2567
aS'enabled'
p2568
asg323
(dp2569
g2565
(i__main__
DelphiNamedType
p2570
(dp2571
g58
S'TCanvas'
p2572
sg94
g1
sg95
Nsbsg2567
(i__main__
DelphiPrimitiveType
p2573
(dp2574
g58
g81
sbsg2568
(i__main__
DelphiPrimitiveType
p2575
(dp2576
g58
g81
sbsg2566
(i__main__
DelphiNamedType
p2577
(dp2578
g58
S'TRect'
p2579
sg94
g1
sg95
Nsbssg47
(lp2580
(i__main__
DelphiFormalParameter
p2581
(dp2582
g51
Nsg52
(lp2583
g2565
asg55
g2570
sg60
Nsba(i__main__
DelphiFormalParameter
p2584
(dp2585
g51
Nsg52
(lp2586
g2566
asg55
g2577
sg60
Nsba(i__main__
DelphiFormalParameter
p2587
(dp2588
g51
Nsg52
(lp2589
g2567
asg55
g2573
sg60
Nsba(i__main__
DelphiFormalParameter
p2590
(dp2591
g51
Nsg52
(lp2592
g2568
asg55
g2575
sg60
Nsbasg328
(lp2593
sg330
(i__main__
DelphiBlock
p2594
(dp2595
g333
(idelphi
DelphiCompoundStatement
p2596
(dp2597
g336
(lp2598
(idelphi
DelphiWithStatement
p2599
(dp2600
g920
(idelphi
DelphiCompoundStatement
p2601
(dp2602
g336
(lp2603
(i__main__
DelphiAssignStatement
p2604
(dp2605
g340
(i__main__
DelphiIdentAccess
p2606
(dp2607
g356
S'bsSolid'
p2608
sg346
(lp2609
sbsg380
(i__main__
DelphiIdentAccess
p2610
(dp2611
g356
S'brush'
p2612
sg346
(lp2613
(idelphi
DelphiFieldEndAccess
p2614
(dp2615
g629
S'style'
p2616
sbasbsba(idelphi
DelphiIfStatement
p2617
(dp2618
g478
(i__main__
DelphiIdentAccess
p2619
(dp2620
g356
S'enabled'
p2621
sg346
(lp2622
sbsg492
(idelphi
DelphiCompoundStatement
p2623
(dp2624
g336
(lp2625
(i__main__
DelphiAssignStatement
p2626
(dp2627
g340
(i__main__
DelphiIdentAccess
p2628
(dp2629
g356
S'clBtnShadow'
p2630
sg346
(lp2631
sbsg380
(i__main__
DelphiIdentAccess
p2632
(dp2633
g356
S'brush'
p2634
sg346
(lp2635
(idelphi
DelphiFieldEndAccess
p2636
(dp2637
g629
S'color'
p2638
sbasbsba(i__main__
DelphiAssignStatement
p2639
(dp2640
g340
(i__main__
DelphiIdentAccess
p2641
(dp2642
g356
S'clBtnShadow'
p2643
sg346
(lp2644
sbsg380
(i__main__
DelphiIdentAccess
p2645
(dp2646
g356
S'pen'
p2647
sg346
(lp2648
(idelphi
DelphiFieldEndAccess
p2649
(dp2650
g629
S'color'
p2651
sbasbsbasbsg493
(idelphi
DelphiCompoundStatement
p2652
(dp2653
g336
(lp2654
(i__main__
DelphiAssignStatement
p2655
(dp2656
g340
(i__main__
DelphiIdentAccess
p2657
(dp2658
g356
S'clBlack'
p2659
sg346
(lp2660
sbsg380
(i__main__
DelphiIdentAccess
p2661
(dp2662
g356
S'pen'
p2663
sg346
(lp2664
(idelphi
DelphiFieldEndAccess
p2665
(dp2666
g629
S'color'
p2667
sbasbsba(i__main__
DelphiAssignStatement
p2668
(dp2669
g340
(i__main__
DelphiIdentAccess
p2670
(dp2671
g356
S'clWhite'
p2672
sg346
(lp2673
sbsg380
(i__main__
DelphiIdentAccess
p2674
(dp2675
g356
S'brush'
p2676
sg346
(lp2677
(idelphi
DelphiFieldEndAccess
p2678
(dp2679
g629
S'color'
p2680
sbasbsbasbsba(idelphi
DelphiWithStatement
p2681
(dp2682
g920
(i__main__
DelphiAssignStatement
p2683
(dp2684
g340
Nsg380
(i__main__
DelphiIdentAccess
p2685
(dp2686
g356
S'rectangle'
p2687
sg346
(lp2688
(idelphi
DelphiFunctionEndAccess
p2689
(dp2690
g348
(lp2691
(i__main__
DelphiIdentAccess
p2692
(dp2693
g356
S'left'
p2694
sg346
(lp2695
sba(i__main__
DelphiIdentAccess
p2696
(dp2697
g356
S'top'
p2698
sg346
(lp2699
sba(i__main__
DelphiIdentAccess
p2700
(dp2701
g356
S'right'
p2702
sg346
(lp2703
sba(i__main__
DelphiIdentAccess
p2704
(dp2705
g356
S'bottom'
p2706
sg346
(lp2707
sbasbasbsbsg1461
(lp2708
(i__main__
DelphiIdentAccess
p2709
(dp2710
g356
S'aRect'
p2711
sg346
(lp2712
sbasba(idelphi
DelphiIfStatement
p2713
(dp2714
g478
(i__main__
DelphiIdentAccess
p2715
(dp2716
g356
S'selected'
p2717
sg346
(lp2718
sbsg492
Nsg493
(idelphi
DelphiCompoundStatement
p2719
(dp2720
g336
(lp2721
(i__main__
DelphiAssignStatement
p2722
(dp2723
g340
(i__main__
DelphiIdentAccess
p2724
(dp2725
g356
S'aRect'
p2726
sg346
(lp2727
sbsg380
(i__main__
DelphiIdentAccess
p2728
(dp2729
g356
S'internalRect'
p2730
sg346
(lp2731
sbsba(i__main__
DelphiAssignStatement
p2732
(dp2733
g340
Nsg380
(i__main__
DelphiIdentAccess
p2734
(dp2735
g356
S'inflateRect'
p2736
sg346
(lp2737
(idelphi
DelphiFunctionEndAccess
p2738
(dp2739
g348
(lp2740
(i__main__
DelphiIdentAccess
p2741
(dp2742
g356
S'internalRect'
p2743
sg346
(lp2744
sba(idelphi
DelphiSign
p2745
(dp2746
g1827
(idelphi
DelphiIntegerValue
p2747
(dp2748
g422
S'1'
sbsS'sign'
p2749
S'-'
sba(idelphi
DelphiSign
p2750
(dp2751
g1827
(idelphi
DelphiIntegerValue
p2752
(dp2753
g422
S'1'
sbsg2749
S'-'
sbasbasbsba(i__main__
DelphiAssignStatement
p2754
(dp2755
g340
(i__main__
DelphiIdentAccess
p2756
(dp2757
g356
S'clAqua'
p2758
sg346
(lp2759
sbsg380
(i__main__
DelphiIdentAccess
p2760
(dp2761
g356
S'brush'
p2762
sg346
(lp2763
(idelphi
DelphiFieldEndAccess
p2764
(dp2765
g629
S'color'
p2766
sbasbsba(i__main__
DelphiAssignStatement
p2767
(dp2768
g340
Nsg380
(i__main__
DelphiIdentAccess
p2769
(dp2770
g356
S'fillRect'
p2771
sg346
(lp2772
(idelphi
DelphiFunctionEndAccess
p2773
(dp2774
g348
(lp2775
(i__main__
DelphiIdentAccess
p2776
(dp2777
g356
S'internalRect'
p2778
sg346
(lp2779
sbasbasbsbasbsbasbsg1461
(lp2780
(i__main__
DelphiIdentAccess
p2781
(dp2782
g356
S'aCanvas'
p2783
sg346
(lp2784
sbasbasbsg427
(lp2785
(i__main__
DelphiVarSection
p2786
(dp2787
g431
I0
sg432
(lp2788
(idelphi
DelphiVarDecl
p2789
(dp2790
g436
Nsg437
(lp2791
S'internalRect'
p2792
asg55
(i__main__
DelphiNamedType
p2793
(dp2794
g58
S'TRect'
p2795
sg94
g1
sg95
NsbsbasbasbsbasS'includedUnits'
p2796
NsS'implementationUses'
p2797
Nsg39
S'Usliders'
p2798
sS'constSections'
p2799
(lp2800
g2467
asS'globalsInProperCase'
p2801
NsS'interfaceUses'
p2802
(lp2803
S'delphi_compatability'
p2804
aS'Wintypes'
p2805
aS'WinProcs'
p2806
aS'Messages'
p2807
aS'Classes'
p2808
aS'Forms'
p2809
aS'StdCtrls'
p2810
aS'ExtCtrls'
p2811
aS'Controls'
p2812
aS'Graphics'
p2813
aS'SysUtils'
p2814
aS'Dialogs'
p2815
aS'Menus'
p2816
asS'finalCommentToken'
p2817
(i__main__
PassStatement
p2818
(dp2819
g427
(lp2820
sbsS'varSections'
p2821
(lp2822
sS'globals'
p2823
NsS'originalFileName'
p2824
S'../../PlantStudioInPython/converted_source/usliders.pas'
p2825
sS'proceduralImplementations'
p2826
(dp2827
S'kfdrawbutton'
p2828
g2530
ssS'fileName'
p2829
S'/Users/pdf/Documents/workspace/PlantStudioInPython/converted_source/usliders.pas'
p2830
sS'proceduralDeclarations'
p2831
(dp2832
S'kfdrawbutton'
p2833
g2532
ssS'types'
p2834
(dp2835
S'kfslider'
p2836
g5
ssb.