(i__main__
DelphiUnit
p1
(dp2
S'sectionsInOrderDefined'
p3
(lp4
(i__main__
DelphiClass
p5
(dp6
S'variableNamesInProperCase'
p7
(dp8
S'supportbutton'
p9
S'supportButton'
p10
sS'versionlabel'
p11
S'versionLabel'
p12
sS'splashimagetruecolor'
p13
S'splashImageTrueColor'
p14
sS'loadinglabel'
p15
S'loadingLabel'
p16
sS'codelabel'
p17
S'codeLabel'
p18
sS'close'
p19
S'close'
p20
sS'splashimage256colors'
p21
S'splashImage256Colors'
p22
ssS'name'
p23
S'TSplashForm'
p24
sS'methodDeclarations'
p25
(dp26
S'formactivate'
p27
(i__main__
DelphiMethodDeclaration
p28
(dp29
g23
S'FormActivate'
p30
sS'formalParameters'
p31
(lp32
(i__main__
DelphiFormalParameter
p33
(dp34
S'initialValue'
p35
NsS'names'
p36
(lp37
S'Sender'
p38
asS'theType'
p39
(i__main__
DelphiNamedType
p40
(dp41
S'typeName'
p42
S'TObject'
p43
sS'unitDefinedIn'
p44
g1
sS'unitName'
p45
NsbsS'parameterVariety'
p46
NsbasS'className'
p47
g24
sS'resultType'
p48
NsS'isClassMethod'
p49
I0
sS'methodType'
p50
S'procedure'
p51
sbsS'formmousedown'
p52
(i__main__
DelphiMethodDeclaration
p53
(dp54
g23
S'FormMouseDown'
p55
sg31
(lp56
(i__main__
DelphiFormalParameter
p57
(dp58
g35
Nsg36
(lp59
S'Sender'
p60
asg39
(i__main__
DelphiNamedType
p61
(dp62
g42
S'TObject'
p63
sg44
g1
sg45
Nsbsg46
Nsba(i__main__
DelphiFormalParameter
p64
(dp65
g35
Nsg36
(lp66
S'Button'
p67
asg39
(i__main__
DelphiNamedType
p68
(dp69
g42
S'TMouseButton'
p70
sg44
g1
sg45
Nsbsg46
Nsba(i__main__
DelphiFormalParameter
p71
(dp72
g35
Nsg36
(lp73
S'Shift'
p74
asg39
(i__main__
DelphiNamedType
p75
(dp76
g42
S'TShiftState'
p77
sg44
g1
sg45
Nsbsg46
Nsba(i__main__
DelphiFormalParameter
p78
(dp79
g35
Nsg36
(lp80
S'X'
aS'Y'
asg39
(i__main__
DelphiPrimitiveType
p81
(dp82
g42
S'integer'
p83
sbsg46
Nsbasg47
g24
sg48
Nsg49
I0
sg50
g51
sbsS'splashimage256colorsclick'
p84
(i__main__
DelphiMethodDeclaration
p85
(dp86
g23
S'splashImage256ColorsClick'
p87
sg31
(lp88
(i__main__
DelphiFormalParameter
p89
(dp90
g35
Nsg36
(lp91
S'Sender'
p92
asg39
(i__main__
DelphiNamedType
p93
(dp94
g42
S'TObject'
p95
sg44
g1
sg45
Nsbsg46
Nsbasg47
g24
sg48
Nsg49
I0
sg50
g51
sbsS'supportbuttonclick'
p96
(i__main__
DelphiMethodDeclaration
p97
(dp98
g23
S'supportButtonClick'
p99
sg31
(lp100
(i__main__
DelphiFormalParameter
p101
(dp102
g35
Nsg36
(lp103
S'Sender'
p104
asg39
(i__main__
DelphiNamedType
p105
(dp106
g42
S'TObject'
p107
sg44
g1
sg45
Nsbsg46
Nsbasg47
g24
sg48
Nsg49
I0
sg50
g51
sbsS'formkeypress'
p108
(i__main__
DelphiMethodDeclaration
p109
(dp110
g23
S'FormKeyPress'
p111
sg31
(lp112
(i__main__
DelphiFormalParameter
p113
(dp114
g35
Nsg36
(lp115
S'Sender'
p116
asg39
(i__main__
DelphiNamedType
p117
(dp118
g42
S'TObject'
p119
sg44
g1
sg45
Nsbsg46
Nsba(i__main__
DelphiFormalParameter
p120
(dp121
g35
Nsg36
(lp122
S'Key'
p123
asg39
(i__main__
DelphiPrimitiveType
p124
(dp125
g42
S'char'
p126
sbsg46
S'var'
p127
sbasg47
g24
sg48
Nsg49
I0
sg50
g51
sbsS'createparams'
p128
(i__main__
DelphiMethodDeclaration
p129
(dp130
g23
S'CreateParams'
p131
sg31
(lp132
(i__main__
DelphiFormalParameter
p133
(dp134
g35
Nsg36
(lp135
S'Params'
p136
asg39
(i__main__
DelphiNamedType
p137
(dp138
g42
S'TCreateParams'
p139
sg44
g1
sg45
Nsbsg46
g127
sbasg47
g24
sg48
Nsg49
I0
sg50
g51
sS'commentLinesBefore'
p140
(lp141
S' Private declarations '
p142
aS' Public declarations '
p143
aS'$R *.DFM'
p144
asbsS'formclick'
p145
(i__main__
DelphiMethodDeclaration
p146
(dp147
g23
S'FormClick'
p148
sg31
(lp149
(i__main__
DelphiFormalParameter
p150
(dp151
g35
Nsg36
(lp152
S'Sender'
p153
asg39
(i__main__
DelphiNamedType
p154
(dp155
g42
S'TObject'
p156
sg44
g1
sg45
Nsbsg46
Nsbasg47
g24
sg48
Nsg49
I0
sg50
g51
sbsS'showcodestring'
p157
(i__main__
DelphiMethodDeclaration
p158
(dp159
g23
S'showCodeString'
p160
sg31
(lp161
(i__main__
DelphiFormalParameter
p162
(dp163
g35
Nsg36
(lp164
S'aString'
p165
asg39
(i__main__
DelphiPrimitiveType
p166
(dp167
g42
S'string'
p168
sbsg46
Nsbasg47
g24
sg48
Nsg49
I0
sg50
g51
sbsS'okclick'
p169
(i__main__
DelphiMethodDeclaration
p170
(dp171
g23
S'OKClick'
p172
sg31
(lp173
(i__main__
DelphiFormalParameter
p174
(dp175
g35
Nsg36
(lp176
S'Sender'
p177
asg39
(i__main__
DelphiNamedType
p178
(dp179
g42
S'TObject'
p180
sg44
g1
sg45
Nsbsg46
Nsbasg47
g24
sg48
Nsg49
I0
sg50
g51
sbsS'goaway'
p181
(i__main__
DelphiMethodDeclaration
p182
(dp183
g23
S'goAway'
p184
sg31
(lp185
sg47
g24
sg48
Nsg49
I0
sg50
g51
sbsS'formkeydown'
p186
(i__main__
DelphiMethodDeclaration
p187
(dp188
g23
S'FormKeyDown'
p189
sg31
(lp190
(i__main__
DelphiFormalParameter
p191
(dp192
g35
Nsg36
(lp193
S'Sender'
p194
asg39
(i__main__
DelphiNamedType
p195
(dp196
g42
S'TObject'
p197
sg44
g1
sg45
Nsbsg46
Nsba(i__main__
DelphiFormalParameter
p198
(dp199
g35
Nsg36
(lp200
S'Key'
p201
asg39
(i__main__
DelphiPrimitiveType
p202
(dp203
g42
S'word'
p204
sbsg46
g127
sba(i__main__
DelphiFormalParameter
p205
(dp206
g35
Nsg36
(lp207
S'Shift'
p208
asg39
(i__main__
DelphiNamedType
p209
(dp210
g42
S'TShiftState'
p211
sg44
g1
sg45
Nsbsg46
Nsbasg47
g24
sg48
Nsg49
I0
sg50
g51
sbsS'closeclick'
p212
(i__main__
DelphiMethodDeclaration
p213
(dp214
g23
S'closeClick'
p215
sg31
(lp216
(i__main__
DelphiFormalParameter
p217
(dp218
g35
Nsg36
(lp219
S'Sender'
p220
asg39
(i__main__
DelphiNamedType
p221
(dp222
g42
S'TObject'
p223
sg44
g1
sg45
Nsbsg46
Nsbasg47
g24
sg48
Nsg49
I0
sg50
g51
sbsS'controlclick'
p224
(i__main__
DelphiMethodDeclaration
p225
(dp226
g23
S'controlClick'
p227
sg31
(lp228
(i__main__
DelphiFormalParameter
p229
(dp230
g35
Nsg36
(lp231
S'Sender'
p232
asg39
(i__main__
DelphiNamedType
p233
(dp234
g42
S'TObject'
p235
sg44
g1
sg45
Nsbsg46
Nsbasg47
g24
sg48
Nsg49
I0
sg50
g51
sbsS'showloadingstring'
p236
(i__main__
DelphiMethodDeclaration
p237
(dp238
g23
S'showLoadingString'
p239
sg31
(lp240
(i__main__
DelphiFormalParameter
p241
(dp242
g35
Nsg36
(lp243
S'aString'
p244
asg39
(i__main__
DelphiPrimitiveType
p245
(dp246
g42
g168
sbsg46
Nsbasg47
g24
sg48
Nsg49
I0
sg50
g51
sbsS'formcreate'
p247
(i__main__
DelphiMethodDeclaration
p248
(dp249
g23
S'FormCreate'
p250
sg31
(lp251
(i__main__
DelphiFormalParameter
p252
(dp253
g35
Nsg36
(lp254
S'Sender'
p255
asg39
(i__main__
DelphiNamedType
p256
(dp257
g42
S'TObject'
p258
sg44
g1
sg45
Nsbsg46
Nsbasg47
g24
sg48
Nsg49
I0
sg50
g51
sbsS'programnamelabelclick'
p259
(i__main__
DelphiMethodDeclaration
p260
(dp261
g23
S'programNameLabelClick'
p262
sg31
(lp263
(i__main__
DelphiFormalParameter
p264
(dp265
g35
Nsg36
(lp266
S'Sender'
p267
asg39
(i__main__
DelphiNamedType
p268
(dp269
g42
S'TObject'
p270
sg44
g1
sg45
Nsbsg46
Nsbasg47
g24
sg48
Nsg49
I0
sg50
g51
sbssS'superclassNamedTypes'
p271
(lp272
(i__main__
DelphiNamedType
p273
(dp274
g42
S'TForm'
p275
sg44
g1
sg45
NsbasS'variableNames'
p276
(dp277
S'supportbutton'
p278
(i__main__
DelphiNamedType
p279
(dp280
g42
S'TSpeedButton'
p281
sg44
g1
sg45
NsbsS'versionlabel'
p282
(i__main__
DelphiNamedType
p283
(dp284
g42
S'TLabel'
p285
sg44
g1
sg45
NsbsS'splashimagetruecolor'
p286
(i__main__
DelphiNamedType
p287
(dp288
g42
S'TImage'
p289
sg44
g1
sg45
NsbsS'loadinglabel'
p290
(i__main__
DelphiNamedType
p291
(dp292
g42
S'TLabel'
p293
sg44
g1
sg45
NsbsS'codelabel'
p294
(i__main__
DelphiNamedType
p295
(dp296
g42
S'TLabel'
p297
sg44
g1
sg45
NsbsS'close'
p298
(i__main__
DelphiNamedType
p299
(dp300
g42
S'TSpeedButton'
p301
sg44
g1
sg45
NsbsS'splashimage256colors'
p302
(i__main__
DelphiNamedType
p303
(dp304
g42
S'TImage'
p305
sg44
g1
sg45
NsbssS'methodNamesInDefinedOrder'
p306
(lp307
S'createparams'
p308
aS'formcreate'
p309
aS'showloadingstring'
p310
aS'showcodestring'
p311
aS'goaway'
p312
aS'formclick'
p313
aS'programnamelabelclick'
p314
aS'controlclick'
p315
aS'formkeypress'
p316
aS'formkeydown'
p317
aS'formmousedown'
p318
aS'splashimage256colorsclick'
p319
aS'okclick'
p320
aS'formactivate'
p321
aS'closeclick'
p322
aS'supportbuttonclick'
p323
asS'methodImplementations'
p324
(dp325
S'formactivate'
p326
(i__main__
DelphiMethodImplementation
p327
(dp328
S'originalDeclaration'
p329
g28
sg23
g30
sg31
(lp330
(i__main__
DelphiFormalParameter
p331
(dp332
g35
Nsg36
(lp333
S'Sender'
p334
asg39
(i__main__
DelphiNamedType
p335
(dp336
g42
S'TObject'
p337
sg44
g1
sg45
Nsbsg46
NsbasS'varParamIndexes'
p338
(lp339
sS'varParamsSkipped'
p340
(lp341
sS'argNames'
p342
(lp343
S'self'
p344
ag334
asS'argTypes'
p345
(dp346
g334
g335
ssg47
S'TSplashForm'
p347
sg48
NsS'varParamNames'
p348
(lp349
sg49
I0
sg50
g51
sS'block'
p350
(i__main__
DelphiBlock
p351
(dp352
S'compoundStatement'
p353
(idelphi
DelphiCompoundStatement
p354
(dp355
S'statements'
p356
(lp357
(i__main__
DelphiAssignStatement
p358
(dp359
S'newValueExpression'
p360
(i__main__
DelphiIdentAccess
p361
(dp362
S'ident'
p363
S'GetDC'
p364
sS'endAccessList'
p365
(lp366
(idelphi
DelphiFunctionEndAccess
p367
(dp368
S'expressionList'
p369
(lp370
(idelphi
DelphiIntegerValue
p371
(dp372
g168
S'0'
sbasbasbsS'destinationExpression'
p373
(i__main__
DelphiIdentAccess
p374
(dp375
g363
S'screenDC'
p376
sg365
(lp377
sbsba(idelphi
DelphiTryFinallyStatement
p378
(dp379
S'tryStatements'
p380
(lp381
(i__main__
DelphiAssignStatement
p382
(dp383
g360
(idelphi
DelphiNestedExpressionListAccess
p384
(dp385
g365
(lp386
sg369
(lp387
(idelphi
DelphiMulOp
p388
(dp389
S'signedFactor2'
p390
(i__main__
DelphiIdentAccess
p391
(dp392
g363
S'GetDeviceCaps'
p393
sg365
(lp394
(idelphi
DelphiFunctionEndAccess
p395
(dp396
g369
(lp397
(i__main__
DelphiIdentAccess
p398
(dp399
g363
S'screenDC'
p400
sg365
(lp401
sba(i__main__
DelphiIdentAccess
p402
(dp403
g363
S'PLANES'
p404
sg365
(lp405
sbasbasbsS'mulOp'
p406
S'*'
sS'signedFactor1'
p407
(i__main__
DelphiIdentAccess
p408
(dp409
g363
S'GetDeviceCaps'
p410
sg365
(lp411
(idelphi
DelphiFunctionEndAccess
p412
(dp413
g369
(lp414
(i__main__
DelphiIdentAccess
p415
(dp416
g363
S'screenDC'
p417
sg365
(lp418
sba(i__main__
DelphiIdentAccess
p419
(dp420
g363
S'BITSPIXEL'
p421
sg365
(lp422
sbasbasbsbasbsg373
(i__main__
DelphiIdentAccess
p423
(dp424
g363
S'screenColorBits'
p425
sg365
(lp426
sbsbasS'finallyStatements'
p427
(lp428
(i__main__
DelphiAssignStatement
p429
(dp430
g360
Nsg373
(i__main__
DelphiIdentAccess
p431
(dp432
g363
S'ReleaseDC'
p433
sg365
(lp434
(idelphi
DelphiFunctionEndAccess
p435
(dp436
g369
(lp437
(idelphi
DelphiIntegerValue
p438
(dp439
g168
S'0'
sba(i__main__
DelphiIdentAccess
p440
(dp441
g363
S'screenDC'
p442
sg365
(lp443
sbasbasbsbasba(idelphi
DelphiIfStatement
p444
(dp445
S'expression'
p446
(idelphi
DelphiRelOp
p447
(dp448
S'simpleExpression1'
p449
(i__main__
DelphiIdentAccess
p450
(dp451
g363
S'screenColorBits'
p452
sg365
(lp453
sbsS'simpleExpression2'
p454
(idelphi
DelphiIntegerValue
p455
(dp456
g168
S'8'
sbsS'relOp'
p457
S'>'
sbsS'ifFalseStatement'
p458
(idelphi
DelphiCompoundStatement
p459
(dp460
g356
(lp461
(i__main__
DelphiAssignStatement
p462
(dp463
g360
(i__main__
DelphiIdentAccess
p464
(dp465
g363
S'true'
p466
sg365
(lp467
sbsg373
(i__main__
DelphiIdentAccess
p468
(dp469
g363
S'splashImage256Colors'
p470
sg365
(lp471
(idelphi
DelphiFieldEndAccess
p472
(dp473
S'field'
p474
S'visible'
p475
sbasbsba(i__main__
DelphiAssignStatement
p476
(dp477
g360
(i__main__
DelphiIdentAccess
p478
(dp479
g363
S'false'
p480
sg365
(lp481
sbsg373
(i__main__
DelphiIdentAccess
p482
(dp483
g363
S'splashImageTrueColor'
p484
sg365
(lp485
(idelphi
DelphiFieldEndAccess
p486
(dp487
g474
S'visible'
p488
sbasbsba(i__main__
DelphiAssignStatement
p489
(dp490
g360
(idelphi
DelphiIntegerValue
p491
(dp492
g168
S'0'
sbsg373
(i__main__
DelphiIdentAccess
p493
(dp494
g363
S'splashImage256Colors'
p495
sg365
(lp496
(idelphi
DelphiFieldEndAccess
p497
(dp498
g474
S'left'
p499
sbasbsba(i__main__
DelphiAssignStatement
p500
(dp501
g360
(idelphi
DelphiIntegerValue
p502
(dp503
g168
S'0'
sbsg373
(i__main__
DelphiIdentAccess
p504
(dp505
g363
S'splashImage256Colors'
p506
sg365
(lp507
(idelphi
DelphiFieldEndAccess
p508
(dp509
g474
S'top'
p510
sbasbsba(i__main__
DelphiAssignStatement
p511
(dp512
g360
Nsg373
(i__main__
DelphiIdentAccess
p513
(dp514
g363
S'splashImage256Colors'
p515
sg365
(lp516
(idelphi
DelphiFieldEndAccess
p517
(dp518
g474
S'sendToBack'
p519
sbasbsbasbsS'ifTrueStatement'
p520
(idelphi
DelphiCompoundStatement
p521
(dp522
g356
(lp523
(i__main__
DelphiAssignStatement
p524
(dp525
g360
(i__main__
DelphiIdentAccess
p526
(dp527
g363
S'true'
p528
sg365
(lp529
sbsg373
(i__main__
DelphiIdentAccess
p530
(dp531
g363
S'splashImageTrueColor'
p532
sg365
(lp533
(idelphi
DelphiFieldEndAccess
p534
(dp535
g474
S'visible'
p536
sbasbsba(i__main__
DelphiAssignStatement
p537
(dp538
g360
(i__main__
DelphiIdentAccess
p539
(dp540
g363
S'false'
p541
sg365
(lp542
sbsg373
(i__main__
DelphiIdentAccess
p543
(dp544
g363
S'splashImage256Colors'
p545
sg365
(lp546
(idelphi
DelphiFieldEndAccess
p547
(dp548
g474
S'visible'
p549
sbasbsba(i__main__
DelphiAssignStatement
p550
(dp551
g360
(idelphi
DelphiIntegerValue
p552
(dp553
g168
S'0'
sbsg373
(i__main__
DelphiIdentAccess
p554
(dp555
g363
S'splashImageTrueColor'
p556
sg365
(lp557
(idelphi
DelphiFieldEndAccess
p558
(dp559
g474
S'left'
p560
sbasbsba(i__main__
DelphiAssignStatement
p561
(dp562
g360
(idelphi
DelphiIntegerValue
p563
(dp564
g168
S'0'
sbsg373
(i__main__
DelphiIdentAccess
p565
(dp566
g363
S'splashImageTrueColor'
p567
sg365
(lp568
(idelphi
DelphiFieldEndAccess
p569
(dp570
g474
S'top'
p571
sbasbsba(i__main__
DelphiAssignStatement
p572
(dp573
g360
Nsg373
(i__main__
DelphiIdentAccess
p574
(dp575
g363
S'splashImageTrueColor'
p576
sg365
(lp577
(idelphi
DelphiFieldEndAccess
p578
(dp579
g474
S'sendToBack'
p580
sbasbsbasbsbasbsS'limitedDeclSectionList'
p581
(lp582
(i__main__
DelphiVarSection
p583
(dp584
S'atTopLevel'
p585
I0
sS'varDeclList'
p586
(lp587
(idelphi
DelphiVarDecl
p588
(dp589
S'constExpression'
p590
NsS'identList'
p591
(lp592
S'screenColorBits'
p593
asg39
(i__main__
DelphiPrimitiveType
p594
(dp595
g42
g83
sbsba(idelphi
DelphiVarDecl
p596
(dp597
g590
Nsg591
(lp598
S'screenDC'
p599
asg39
(i__main__
DelphiNamedType
p600
(dp601
g42
S'HDC'
p602
sg44
g1
sg45
NsbsbasbasbsbsS'formmousedown'
p603
(i__main__
DelphiMethodImplementation
p604
(dp605
g329
g53
sg23
g55
sg31
(lp606
(i__main__
DelphiFormalParameter
p607
(dp608
g35
Nsg36
(lp609
S'Sender'
p610
asg39
(i__main__
DelphiNamedType
p611
(dp612
g42
S'TObject'
p613
sg44
g1
sg45
Nsbsg46
Nsba(i__main__
DelphiFormalParameter
p614
(dp615
g35
Nsg36
(lp616
S'Button'
p617
asg39
(i__main__
DelphiNamedType
p618
(dp619
g42
S'TMouseButton'
p620
sg44
g1
sg45
Nsbsg46
Nsba(i__main__
DelphiFormalParameter
p621
(dp622
g35
Nsg36
(lp623
S'Shift'
p624
asg39
(i__main__
DelphiNamedType
p625
(dp626
g42
S'TShiftState'
p627
sg44
g1
sg45
Nsbsg46
Nsba(i__main__
DelphiFormalParameter
p628
(dp629
g35
Nsg36
(lp630
S'X'
aS'Y'
asg39
(i__main__
DelphiPrimitiveType
p631
(dp632
g42
g83
sbsg46
Nsbasg338
(lp633
sg340
(lp634
sg342
(lp635
g344
ag610
ag617
ag624
aS'X'
aS'Y'
asg345
(dp636
S'Y'
g631
sg624
g625
sg617
g618
sg610
g611
sS'X'
g631
ssg47
S'TSplashForm'
p637
sg48
Nsg348
(lp638
sg49
I0
sg50
g51
sg350
(i__main__
DelphiBlock
p639
(dp640
g353
(idelphi
DelphiCompoundStatement
p641
(dp642
g356
(lp643
(i__main__
DelphiAssignStatement
p644
(dp645
g360
Nsg373
(i__main__
DelphiIdentAccess
p646
(dp647
g363
S'self'
p648
sg365
(lp649
(idelphi
DelphiFieldEndAccess
p650
(dp651
g474
S'goAway'
p652
sbasbsbasbsg581
(lp653
sbsbsS'splashimage256colorsclick'
p654
(i__main__
DelphiMethodImplementation
p655
(dp656
g329
g85
sg23
g87
sg31
(lp657
(i__main__
DelphiFormalParameter
p658
(dp659
g35
Nsg36
(lp660
S'Sender'
p661
asg39
(i__main__
DelphiNamedType
p662
(dp663
g42
S'TObject'
p664
sg44
g1
sg45
Nsbsg46
Nsbasg338
(lp665
sg340
(lp666
sg342
(lp667
g344
ag661
asg345
(dp668
g661
g662
ssg47
S'TSplashForm'
p669
sg48
Nsg348
(lp670
sg49
I0
sg50
g51
sg350
(i__main__
DelphiBlock
p671
(dp672
g353
(idelphi
DelphiCompoundStatement
p673
(dp674
g356
(lp675
(i__main__
DelphiAssignStatement
p676
(dp677
g360
Nsg373
(i__main__
DelphiIdentAccess
p678
(dp679
g363
S'self'
p680
sg365
(lp681
(idelphi
DelphiFieldEndAccess
p682
(dp683
g474
S'goAway'
p684
sbasbsbasbsg581
(lp685
sbsbsS'supportbuttonclick'
p686
(i__main__
DelphiMethodImplementation
p687
(dp688
g329
g97
sg23
g99
sg31
(lp689
(i__main__
DelphiFormalParameter
p690
(dp691
g35
Nsg36
(lp692
S'Sender'
p693
asg39
(i__main__
DelphiNamedType
p694
(dp695
g42
S'TObject'
p696
sg44
g1
sg45
Nsbsg46
Nsbasg338
(lp697
sg340
(lp698
sg342
(lp699
g344
ag693
asg345
(dp700
g693
g694
ssg47
S'TSplashForm'
p701
sg48
Nsg348
(lp702
sg49
I0
sg50
g51
sg350
(i__main__
DelphiBlock
p703
(dp704
g353
(idelphi
DelphiCompoundStatement
p705
(dp706
g356
(lp707
(i__main__
DelphiAssignStatement
p708
(dp709
g360
(i__main__
DelphiIdentAccess
p710
(dp711
g363
S'TProgramInfoForm'
p712
sg365
(lp713
(idelphi
DelphiFieldEndAccess
p714
(dp715
g474
S'create'
p716
sba(idelphi
DelphiFunctionEndAccess
p717
(dp718
g369
(lp719
(i__main__
DelphiIdentAccess
p720
(dp721
g363
S'Application'
p722
sg365
(lp723
sbasbasbsg373
(i__main__
DelphiIdentAccess
p724
(dp725
g363
S'infoForm'
p726
sg365
(lp727
sbsba(idelphi
DelphiTryFinallyStatement
p728
(dp729
g380
(lp730
(i__main__
DelphiAssignStatement
p731
(dp732
g360
Nsg373
(i__main__
DelphiIdentAccess
p733
(dp734
g363
S'infoForm'
p735
sg365
(lp736
(idelphi
DelphiFieldEndAccess
p737
(dp738
g474
S'showModal'
p739
sbasbsbasg427
(lp740
(i__main__
DelphiAssignStatement
p741
(dp742
g360
Nsg373
(i__main__
DelphiIdentAccess
p743
(dp744
g363
S'infoForm'
p745
sg365
(lp746
(idelphi
DelphiFieldEndAccess
p747
(dp748
g474
S'free'
p749
sbasbsba(i__main__
DelphiAssignStatement
p750
(dp751
g360
(idelphi
DelphiNilValue
p752
(dp753
bsg373
(i__main__
DelphiIdentAccess
p754
(dp755
g363
S'infoForm'
p756
sg365
(lp757
sbsbasbasbsg581
(lp758
(i__main__
DelphiVarSection
p759
(dp760
g585
I0
sg586
(lp761
(idelphi
DelphiVarDecl
p762
(dp763
g590
Nsg591
(lp764
S'infoForm'
p765
asg39
(i__main__
DelphiNamedType
p766
(dp767
g42
S'TProgramInfoForm'
p768
sg44
g1
sg45
NsbsbasbasbsbsS'formkeypress'
p769
(i__main__
DelphiMethodImplementation
p770
(dp771
g329
g109
sg23
g111
sg31
(lp772
(i__main__
DelphiFormalParameter
p773
(dp774
g35
Nsg36
(lp775
S'Sender'
p776
asg39
(i__main__
DelphiNamedType
p777
(dp778
g42
S'TObject'
p779
sg44
g1
sg45
Nsbsg46
Nsba(i__main__
DelphiFormalParameter
p780
(dp781
g35
Nsg36
(lp782
S'Key'
p783
asg39
(i__main__
DelphiPrimitiveType
p784
(dp785
g42
g126
sbsg46
g127
sbasg338
(lp786
I1
asg340
(lp787
sg342
(lp788
g344
ag776
ag783
asg345
(dp789
g776
g777
sg783
g784
ssg47
S'TSplashForm'
p790
sg48
Nsg348
(lp791
g783
asg49
I0
sg50
g51
sg350
(i__main__
DelphiBlock
p792
(dp793
g353
(idelphi
DelphiCompoundStatement
p794
(dp795
g356
(lp796
(i__main__
DelphiAssignStatement
p797
(dp798
g360
Nsg373
(i__main__
DelphiIdentAccess
p799
(dp800
g363
S'self'
p801
sg365
(lp802
(idelphi
DelphiFieldEndAccess
p803
(dp804
g474
S'goAway'
p805
sbasbsbasbsg581
(lp806
sbsbsS'createparams'
p807
(i__main__
DelphiMethodImplementation
p808
(dp809
g329
g129
sg23
g131
sg31
(lp810
(i__main__
DelphiFormalParameter
p811
(dp812
g35
Nsg36
(lp813
S'Params'
p814
asg39
(i__main__
DelphiNamedType
p815
(dp816
g42
S'TCreateParams'
p817
sg44
g1
sg45
Nsbsg46
g127
sbasg338
(lp818
sg340
(lp819
g814
asg342
(lp820
g344
ag814
asg345
(dp821
g814
g815
ssg47
S'TSplashForm'
p822
sg48
Nsg348
(lp823
sg49
I0
sg50
g51
sg350
(i__main__
DelphiBlock
p824
(dp825
g353
(idelphi
DelphiCompoundStatement
p826
(dp827
g356
(lp828
(i__main__
DelphiAssignStatement
p829
(dp830
g360
Nsg373
(idelphi
DelphiInheritedCall
p831
(dp832
g363
S'CreateParams'
p833
sg369
(lp834
(i__main__
DelphiIdentAccess
p835
(dp836
g363
S'Params'
p837
sg365
(lp838
sbasbsba(idelphi
DelphiWithStatement
p839
(dp840
S'statement'
p841
(i__main__
DelphiAssignStatement
p842
(dp843
g360
(idelphi
DelphiAddOp
p844
(dp845
S'addOp'
p846
S'or'
p847
sS'term2'
p848
(i__main__
DelphiIdentAccess
p849
(dp850
g363
S'WS_EX_DLGMODALFRAME'
p851
sg365
(lp852
sbsS'term1'
p853
(idelphi
DelphiAddOp
p854
(dp855
g846
g847
sg848
(i__main__
DelphiIdentAccess
p856
(dp857
g363
S'WS_BORDER'
p858
sg365
(lp859
sbsg853
(i__main__
DelphiIdentAccess
p860
(dp861
g363
S'Style'
p862
sg365
(lp863
sbsbsbsg373
(i__main__
DelphiIdentAccess
p864
(dp865
g363
S'Style'
p866
sg365
(lp867
sbsbsS'variableReferenceList'
p868
(lp869
(i__main__
DelphiIdentAccess
p870
(dp871
g363
S'Params'
p872
sg365
(lp873
sbasbasbsg581
(lp874
sbsg140
g141
sbsS'formclick'
p875
(i__main__
DelphiMethodImplementation
p876
(dp877
g329
g146
sg23
g148
sg31
(lp878
(i__main__
DelphiFormalParameter
p879
(dp880
g35
Nsg36
(lp881
S'Sender'
p882
asg39
(i__main__
DelphiNamedType
p883
(dp884
g42
S'TObject'
p885
sg44
g1
sg45
Nsbsg46
Nsbasg338
(lp886
sg340
(lp887
sg342
(lp888
g344
ag882
asg345
(dp889
g882
g883
ssg47
S'TSplashForm'
p890
sg48
Nsg348
(lp891
sg49
I0
sg50
g51
sg350
(i__main__
DelphiBlock
p892
(dp893
g353
(idelphi
DelphiCompoundStatement
p894
(dp895
g356
(lp896
(i__main__
DelphiAssignStatement
p897
(dp898
g360
Nsg373
(i__main__
DelphiIdentAccess
p899
(dp900
g363
S'self'
p901
sg365
(lp902
(idelphi
DelphiFieldEndAccess
p903
(dp904
g474
S'goAway'
p905
sbasbsbasbsg581
(lp906
sbsbsS'showcodestring'
p907
(i__main__
DelphiMethodImplementation
p908
(dp909
g329
g158
sg23
g160
sg31
(lp910
(i__main__
DelphiFormalParameter
p911
(dp912
g35
Nsg36
(lp913
S'aString'
p914
asg39
(i__main__
DelphiPrimitiveType
p915
(dp916
g42
g168
sbsg46
Nsbasg338
(lp917
sg340
(lp918
sg342
(lp919
g344
ag914
asg345
(dp920
g914
g915
ssg47
S'TSplashForm'
p921
sg48
Nsg348
(lp922
sg49
I0
sg50
g51
sg350
(i__main__
DelphiBlock
p923
(dp924
g353
(idelphi
DelphiCompoundStatement
p925
(dp926
g356
(lp927
(i__main__
DelphiAssignStatement
p928
(dp929
g360
(i__main__
DelphiIdentAccess
p930
(dp931
g363
S'aString'
p932
sg365
(lp933
sbsg373
(i__main__
DelphiIdentAccess
p934
(dp935
g363
S'codeLabel'
p936
sg365
(lp937
(idelphi
DelphiFieldEndAccess
p938
(dp939
g474
S'caption'
p940
sbasbsba(i__main__
DelphiAssignStatement
p941
(dp942
g360
Nsg373
(i__main__
DelphiIdentAccess
p943
(dp944
g363
S'codeLabel'
p945
sg365
(lp946
(idelphi
DelphiFieldEndAccess
p947
(dp948
g474
S'show'
p949
sbasbsba(i__main__
DelphiAssignStatement
p950
(dp951
g360
Nsg373
(i__main__
DelphiIdentAccess
p952
(dp953
g363
S'self'
p954
sg365
(lp955
(idelphi
DelphiFieldEndAccess
p956
(dp957
g474
S'update'
p958
sbasbsbasbsg581
(lp959
sbsbsS'okclick'
p960
(i__main__
DelphiMethodImplementation
p961
(dp962
g329
g170
sg23
g172
sg31
(lp963
(i__main__
DelphiFormalParameter
p964
(dp965
g35
Nsg36
(lp966
S'Sender'
p967
asg39
(i__main__
DelphiNamedType
p968
(dp969
g42
S'TObject'
p970
sg44
g1
sg45
Nsbsg46
Nsbasg338
(lp971
sg340
(lp972
sg342
(lp973
g344
ag967
asg345
(dp974
g967
g968
ssg47
S'TSplashForm'
p975
sg48
Nsg348
(lp976
sg49
I0
sg50
g51
sg350
(i__main__
DelphiBlock
p977
(dp978
g353
(idelphi
DelphiCompoundStatement
p979
(dp980
g356
(lp981
(i__main__
DelphiAssignStatement
p982
(dp983
g360
Nsg373
(i__main__
DelphiIdentAccess
p984
(dp985
g363
S'self'
p986
sg365
(lp987
(idelphi
DelphiFieldEndAccess
p988
(dp989
g474
S'goAway'
p990
sbasbsbasbsg581
(lp991
sbsbsS'goaway'
p992
(i__main__
DelphiMethodImplementation
p993
(dp994
g329
g182
sg23
g184
sg31
(lp995
sg338
(lp996
sg340
(lp997
sg342
(lp998
g344
asg345
(dp999
sg47
S'TSplashForm'
p1000
sg48
Nsg348
(lp1001
sg49
I0
sg50
g51
sg350
(i__main__
DelphiBlock
p1002
(dp1003
g353
(idelphi
DelphiCompoundStatement
p1004
(dp1005
g356
(lp1006
(i__main__
DelphiAssignStatement
p1007
(dp1008
g360
(i__main__
DelphiIdentAccess
p1009
(dp1010
g363
S'mrOk'
p1011
sg365
(lp1012
sbsg373
(i__main__
DelphiIdentAccess
p1013
(dp1014
g363
S'modalResult'
p1015
sg365
(lp1016
sbsbasbsg581
(lp1017
sbsbsS'formkeydown'
p1018
(i__main__
DelphiMethodImplementation
p1019
(dp1020
g329
g187
sg23
g189
sg31
(lp1021
(i__main__
DelphiFormalParameter
p1022
(dp1023
g35
Nsg36
(lp1024
S'Sender'
p1025
asg39
(i__main__
DelphiNamedType
p1026
(dp1027
g42
S'TObject'
p1028
sg44
g1
sg45
Nsbsg46
Nsba(i__main__
DelphiFormalParameter
p1029
(dp1030
g35
Nsg36
(lp1031
S'Key'
p1032
asg39
(i__main__
DelphiPrimitiveType
p1033
(dp1034
g42
g204
sbsg46
g127
sba(i__main__
DelphiFormalParameter
p1035
(dp1036
g35
Nsg36
(lp1037
S'Shift'
p1038
asg39
(i__main__
DelphiNamedType
p1039
(dp1040
g42
S'TShiftState'
p1041
sg44
g1
sg45
Nsbsg46
Nsbasg338
(lp1042
I1
asg340
(lp1043
sg342
(lp1044
g344
ag1025
ag1032
ag1038
asg345
(dp1045
g1038
g1039
sg1025
g1026
sg1032
g1033
ssg47
S'TSplashForm'
p1046
sg48
Nsg348
(lp1047
g1032
asg49
I0
sg50
g51
sg350
(i__main__
DelphiBlock
p1048
(dp1049
g353
(idelphi
DelphiCompoundStatement
p1050
(dp1051
g356
(lp1052
(i__main__
DelphiAssignStatement
p1053
(dp1054
g360
Nsg373
(i__main__
DelphiIdentAccess
p1055
(dp1056
g363
S'self'
p1057
sg365
(lp1058
(idelphi
DelphiFieldEndAccess
p1059
(dp1060
g474
S'goAway'
p1061
sbasbsbasbsg581
(lp1062
sbsbsS'closeclick'
p1063
(i__main__
DelphiMethodImplementation
p1064
(dp1065
g329
g213
sg23
g215
sg31
(lp1066
(i__main__
DelphiFormalParameter
p1067
(dp1068
g35
Nsg36
(lp1069
S'Sender'
p1070
asg39
(i__main__
DelphiNamedType
p1071
(dp1072
g42
S'TObject'
p1073
sg44
g1
sg45
Nsbsg46
Nsbasg338
(lp1074
sg340
(lp1075
sg342
(lp1076
g344
ag1070
asg345
(dp1077
g1070
g1071
ssg47
S'TSplashForm'
p1078
sg48
Nsg348
(lp1079
sg49
I0
sg50
g51
sg350
(i__main__
DelphiBlock
p1080
(dp1081
g353
(idelphi
DelphiCompoundStatement
p1082
(dp1083
g356
(lp1084
(i__main__
DelphiAssignStatement
p1085
(dp1086
g360
(i__main__
DelphiIdentAccess
p1087
(dp1088
g363
S'mrOK'
p1089
sg365
(lp1090
sbsg373
(i__main__
DelphiIdentAccess
p1091
(dp1092
g363
S'modalResult'
p1093
sg365
(lp1094
sbsbasbsg581
(lp1095
sbsbsS'controlclick'
p1096
(i__main__
DelphiMethodImplementation
p1097
(dp1098
g329
g225
sg23
g227
sg31
(lp1099
(i__main__
DelphiFormalParameter
p1100
(dp1101
g35
Nsg36
(lp1102
S'Sender'
p1103
asg39
(i__main__
DelphiNamedType
p1104
(dp1105
g42
S'TObject'
p1106
sg44
g1
sg45
Nsbsg46
Nsbasg338
(lp1107
sg340
(lp1108
sg342
(lp1109
g344
ag1103
asg345
(dp1110
g1103
g1104
ssg47
S'TSplashForm'
p1111
sg48
Nsg348
(lp1112
sg49
I0
sg50
g51
sg350
(i__main__
DelphiBlock
p1113
(dp1114
g353
(idelphi
DelphiCompoundStatement
p1115
(dp1116
g356
(lp1117
(i__main__
DelphiAssignStatement
p1118
(dp1119
g360
Nsg373
(i__main__
DelphiIdentAccess
p1120
(dp1121
g363
S'self'
p1122
sg365
(lp1123
(idelphi
DelphiFieldEndAccess
p1124
(dp1125
g474
S'goAway'
p1126
sbasbsbasbsg581
(lp1127
sbsbsS'showloadingstring'
p1128
(i__main__
DelphiMethodImplementation
p1129
(dp1130
g329
g237
sg23
g239
sg31
(lp1131
(i__main__
DelphiFormalParameter
p1132
(dp1133
g35
Nsg36
(lp1134
S'aString'
p1135
asg39
(i__main__
DelphiPrimitiveType
p1136
(dp1137
g42
g168
sbsg46
Nsbasg338
(lp1138
sg340
(lp1139
sg342
(lp1140
g344
ag1135
asg345
(dp1141
g1135
g1136
ssg47
S'TSplashForm'
p1142
sg48
Nsg348
(lp1143
sg49
I0
sg50
g51
sg350
(i__main__
DelphiBlock
p1144
(dp1145
g353
(idelphi
DelphiCompoundStatement
p1146
(dp1147
g356
(lp1148
(idelphi
DelphiIfStatement
p1149
(dp1150
g446
(idelphi
DelphiMulOp
p1151
(dp1152
g390
(idelphi
DelphiNestedExpressionListAccess
p1153
(dp1154
g365
(lp1155
sg369
(lp1156
(idelphi
DelphiRelOp
p1157
(dp1158
g449
(i__main__
DelphiIdentAccess
p1159
(dp1160
g363
S'aString'
p1161
sg365
(lp1162
(idelphi
DelphiArrayEndAccess
p1163
(dp1164
g369
(lp1165
(i__main__
DelphiIdentAccess
p1166
(dp1167
g363
S'length'
p1168
sg365
(lp1169
(idelphi
DelphiFunctionEndAccess
p1170
(dp1171
g369
(lp1172
(i__main__
DelphiIdentAccess
p1173
(dp1174
g363
S'aString'
p1175
sg365
(lp1176
sbasbasbasbasbsg454
(idelphi
DelphiStringAccess
p1177
(dp1178
g365
(lp1179
sg168
(idelphi
DelphiStringValue
p1180
(dp1181
g168
S','
sbsbsg457
S'='
sbasbsg406
S'and'
p1182
sg407
(idelphi
DelphiNestedExpressionListAccess
p1183
(dp1184
g365
(lp1185
sg369
(lp1186
(idelphi
DelphiRelOp
p1187
(dp1188
g449
(i__main__
DelphiIdentAccess
p1189
(dp1190
g363
S'length'
p1191
sg365
(lp1192
(idelphi
DelphiFunctionEndAccess
p1193
(dp1194
g369
(lp1195
(i__main__
DelphiIdentAccess
p1196
(dp1197
g363
S'aString'
p1198
sg365
(lp1199
sbasbasbsg454
(idelphi
DelphiIntegerValue
p1200
(dp1201
g168
S'1'
sbsg457
S'>'
sbasbsbsg458
Nsg520
(i__main__
DelphiAssignStatement
p1202
(dp1203
g360
(i__main__
DelphiIdentAccess
p1204
(dp1205
g363
S'copy'
p1206
sg365
(lp1207
(idelphi
DelphiFunctionEndAccess
p1208
(dp1209
g369
(lp1210
(i__main__
DelphiIdentAccess
p1211
(dp1212
g363
S'aString'
p1213
sg365
(lp1214
sba(idelphi
DelphiIntegerValue
p1215
(dp1216
g168
S'1'
sba(idelphi
DelphiAddOp
p1217
(dp1218
g846
S'-'
sg848
(idelphi
DelphiIntegerValue
p1219
(dp1220
g168
S'1'
sbsg853
(i__main__
DelphiIdentAccess
p1221
(dp1222
g363
S'length'
p1223
sg365
(lp1224
(idelphi
DelphiFunctionEndAccess
p1225
(dp1226
g369
(lp1227
(i__main__
DelphiIdentAccess
p1228
(dp1229
g363
S'aString'
p1230
sg365
(lp1231
sbasbasbsbasbasbsg373
(i__main__
DelphiIdentAccess
p1232
(dp1233
g363
S'aString'
p1234
sg365
(lp1235
sbsg140
(lp1236
S' remove possible comma at end from registration program\r'
p1237
asbsba(i__main__
DelphiAssignStatement
p1238
(dp1239
g360
(i__main__
DelphiIdentAccess
p1240
(dp1241
g363
S'aString'
p1242
sg365
(lp1243
sbsg373
(i__main__
DelphiIdentAccess
p1244
(dp1245
g363
S'loadingLabel'
p1246
sg365
(lp1247
(idelphi
DelphiFieldEndAccess
p1248
(dp1249
g474
S'caption'
p1250
sbasbsba(i__main__
DelphiAssignStatement
p1251
(dp1252
g360
Nsg373
(i__main__
DelphiIdentAccess
p1253
(dp1254
g363
S'self'
p1255
sg365
(lp1256
(idelphi
DelphiFieldEndAccess
p1257
(dp1258
g474
S'update'
p1259
sbasbsbasbsg581
(lp1260
sbsbsS'formcreate'
p1261
(i__main__
DelphiMethodImplementation
p1262
(dp1263
g329
g248
sg23
g250
sg31
(lp1264
(i__main__
DelphiFormalParameter
p1265
(dp1266
g35
Nsg36
(lp1267
S'Sender'
p1268
asg39
(i__main__
DelphiNamedType
p1269
(dp1270
g42
S'TObject'
p1271
sg44
g1
sg45
Nsbsg46
Nsbasg338
(lp1272
sg340
(lp1273
sg342
(lp1274
g344
ag1268
asg345
(dp1275
g1268
g1269
ssg47
S'TSplashForm'
p1276
sg48
Nsg348
(lp1277
sg49
I0
sg50
g51
sg350
(i__main__
DelphiBlock
p1278
(dp1279
g353
(idelphi
DelphiCompoundStatement
p1280
(dp1281
g356
(lp1282
(i__main__
DelphiAssignStatement
p1283
(dp1284
g360
(i__main__
DelphiIdentAccess
p1285
(dp1286
g363
S'gVersionName'
p1287
sg365
(lp1288
sbsg373
(i__main__
DelphiIdentAccess
p1289
(dp1290
g363
S'versionLabel'
p1291
sg365
(lp1292
(idelphi
DelphiFieldEndAccess
p1293
(dp1294
g474
S'caption'
p1295
sbasbsbasbsg581
(lp1296
sbsbsS'programnamelabelclick'
p1297
(i__main__
DelphiMethodImplementation
p1298
(dp1299
g329
g260
sg23
g262
sg31
(lp1300
(i__main__
DelphiFormalParameter
p1301
(dp1302
g35
Nsg36
(lp1303
S'Sender'
p1304
asg39
(i__main__
DelphiNamedType
p1305
(dp1306
g42
S'TObject'
p1307
sg44
g1
sg45
Nsbsg46
Nsbasg338
(lp1308
sg340
(lp1309
sg342
(lp1310
g344
ag1304
asg345
(dp1311
g1304
g1305
ssg47
S'TSplashForm'
p1312
sg48
Nsg348
(lp1313
sg49
I0
sg50
g51
sg350
(i__main__
DelphiBlock
p1314
(dp1315
g353
(idelphi
DelphiCompoundStatement
p1316
(dp1317
g356
(lp1318
(i__main__
DelphiAssignStatement
p1319
(dp1320
g360
Nsg373
(i__main__
DelphiIdentAccess
p1321
(dp1322
g363
S'self'
p1323
sg365
(lp1324
(idelphi
DelphiFieldEndAccess
p1325
(dp1326
g474
S'goAway'
p1327
sbasbsbasbsg581
(lp1328
sbsbssS'propertyDeclarations'
p1329
(dp1330
sS'variableNamesInDeclaredOrder'
p1331
(lp1332
g12
ag16
ag18
ag22
ag14
ag20
ag10
asba(i__main__
DelphiVarSection
p1333
(dp1334
g585
I1
sg586
(lp1335
(idelphi
DelphiVarDecl
p1336
(dp1337
g590
Nsg591
(lp1338
S'splashForm'
p1339
asg39
(i__main__
DelphiNamedType
p1340
(dp1341
g42
S'TSplashForm'
p1342
sg44
g1
sg45
NsbsbasbasS'includedUnits'
p1343
NsS'implementationUses'
p1344
(lp1345
S'usupport'
p1346
aS'uprginfo'
p1347
asg23
S'Usplash'
p1348
sS'constSections'
p1349
(lp1350
sS'globalsInProperCase'
p1351
NsS'interfaceUses'
p1352
(lp1353
S'delphi_compatability'
p1354
aS'SysUtils'
p1355
aS'WinTypes'
p1356
aS'WinProcs'
p1357
aS'Messages'
p1358
aS'Classes'
p1359
aS'Graphics'
p1360
aS'Controls'
p1361
aS'Forms'
p1362
aS'Dialogs'
p1363
aS'StdCtrls'
p1364
aS'ExtCtrls'
p1365
aS'Buttons'
p1366
asS'finalCommentToken'
p1367
(i__main__
PassStatement
p1368
(dp1369
g581
(lp1370
sbsS'varSections'
p1371
(lp1372
g1333
asS'globals'
p1373
NsS'originalFileName'
p1374
S'../../PlantStudioInPython/converted_source/usplash.pas'
p1375
sS'proceduralImplementations'
p1376
(dp1377
sS'fileName'
p1378
S'/Users/pdf/Documents/workspace/PlantStudioInPython/converted_source/usplash.pas'
p1379
sS'proceduralDeclarations'
p1380
(dp1381
sS'types'
p1382
(dp1383
S'tsplashform'
p1384
g5
ssb.