(i__main__
DelphiUnit
p1
(dp2
S'sectionsInOrderDefined'
p3
(lp4
(i__main__
DelphiClass
p5
(dp6
S'variableNamesInProperCase'
p7
(dp8
S'statistics'
p9
S'statistics'
p10
sS'labelrects'
p11
S'labelRects'
p12
sS'drawbitmap'
p13
S'drawBitmap'
p14
sS'maxlabelwidth'
p15
S'maxLabelWidth'
p16
sS'percentrect'
p17
S'percentRect'
p18
sS'graphrect'
p19
S'graphRect'
p20
ssS'name'
p21
S'PdStatsPanel'
p22
sS'methodDeclarations'
p23
(dp24
S'maxselecteditemindex'
p25
(i__main__
DelphiMethodDeclaration
p26
(dp27
g21
S'maxSelectedItemIndex'
p28
sS'formalParameters'
p29
(lp30
sS'className'
p31
g22
sS'resultType'
p32
(i__main__
DelphiPrimitiveType
p33
(dp34
S'typeName'
p35
S'integer'
p36
sbsS'isClassMethod'
p37
I0
sS'methodType'
p38
S'function'
p39
sbsS'nameforparttype'
p40
(i__main__
DelphiMethodDeclaration
p41
(dp42
g21
S'nameForPartType'
p43
sg29
(lp44
(i__main__
DelphiFormalParameter
p45
(dp46
S'initialValue'
p47
NsS'names'
p48
(lp49
S'partType'
p50
asS'theType'
p51
(i__main__
DelphiPrimitiveType
p52
(dp53
g35
S'smallint'
p54
sbsS'parameterVariety'
p55
Nsba(i__main__
DelphiFormalParameter
p56
(dp57
g47
Nsg48
(lp58
S'isSingular'
p59
asg51
(i__main__
DelphiPrimitiveType
p60
(dp61
g35
S'boolean'
p62
sbsg55
Nsbasg31
g22
sg32
(i__main__
DelphiPrimitiveType
p63
(dp64
g35
S'string'
p65
sbsg37
I0
sg38
g39
sbsS'numnonzeroplantparts'
p66
(i__main__
DelphiMethodDeclaration
p67
(dp68
g21
S'numNonZeroPlantParts'
p69
sg29
(lp70
sg31
g22
sg32
(i__main__
DelphiPrimitiveType
p71
(dp72
g35
g54
sbsg37
I0
sg38
g39
sbsS'drawbar'
p73
(i__main__
DelphiMethodDeclaration
p74
(dp75
g21
S'drawBar'
p76
sg29
(lp77
(i__main__
DelphiFormalParameter
p78
(dp79
g47
Nsg48
(lp80
S'index'
p81
asg51
(i__main__
DelphiPrimitiveType
p82
(dp83
g35
g36
sbsg55
Nsba(i__main__
DelphiFormalParameter
p84
(dp85
g47
Nsg48
(lp86
S'amount_pctMPB'
p87
asg51
(i__main__
DelphiPrimitiveType
p88
(dp89
g35
S'single'
p90
sbsg55
Nsbasg31
g22
sg32
Nsg37
I0
sg38
S'procedure'
p91
sbsS'paint'
p92
(i__main__
DelphiMethodDeclaration
p93
(dp94
g21
S'paint'
p95
sg29
(lp96
sg31
g22
sg32
Nsg37
I0
sg38
g91
sbsS'updatecurrentvalue'
p97
(i__main__
DelphiMethodDeclaration
p98
(dp99
g21
S'updateCurrentValue'
p100
sg29
(lp101
(i__main__
DelphiFormalParameter
p102
(dp103
g47
Nsg48
(lp104
S'aFieldIndex'
p105
asg51
(i__main__
DelphiPrimitiveType
p106
(dp107
g35
g36
sbsg55
Nsbasg31
g22
sg32
Nsg37
I0
sg38
g91
sbsS'create'
p108
(i__main__
DelphiMethodDeclaration
p109
(dp110
g21
S'create'
p111
sg29
(lp112
(i__main__
DelphiFormalParameter
p113
(dp114
g47
Nsg48
(lp115
S'anOwner'
p116
asg51
(i__main__
DelphiNamedType
p117
(dp118
g35
S'TComponent'
p119
sS'unitDefinedIn'
p120
g1
sS'unitName'
p121
Nsbsg55
Nsbasg31
g22
sg32
Nsg37
I0
sg38
S'constructor'
p122
sbsS'drawgraph'
p123
(i__main__
DelphiMethodDeclaration
p124
(dp125
g21
S'drawGraph'
p126
sg29
(lp127
sg31
g22
sg32
Nsg37
I0
sg38
g91
sbsS'parttypeforindex'
p128
(i__main__
DelphiMethodDeclaration
p129
(dp130
g21
S'partTypeForIndex'
p131
sg29
(lp132
(i__main__
DelphiFormalParameter
p133
(dp134
g47
Nsg48
(lp135
S'partType'
p136
asg51
(i__main__
DelphiPrimitiveType
p137
(dp138
g35
g54
sbsg55
Nsbasg31
g22
sg32
(i__main__
DelphiPrimitiveType
p139
(dp140
g35
g54
sbsg37
I0
sg38
g39
sbsS'updatedisplay'
p141
(i__main__
DelphiMethodDeclaration
p142
(dp143
g21
S'updateDisplay'
p144
sg29
(lp145
sg31
g22
sg32
Nsg37
I0
sg38
g91
sbsS'resizeelements'
p146
(i__main__
DelphiMethodDeclaration
p147
(dp148
g21
S'resizeElements'
p149
sg29
(lp150
sg31
g22
sg32
Nsg37
I0
sg38
g91
sbsS'displaypercentforparttype'
p151
(i__main__
DelphiMethodDeclaration
p152
(dp153
g21
S'displayPercentForPartType'
p154
sg29
(lp155
(i__main__
DelphiFormalParameter
p156
(dp157
g47
Nsg48
(lp158
S'partType'
p159
asg51
(i__main__
DelphiPrimitiveType
p160
(dp161
g35
g54
sbsg55
Nsba(i__main__
DelphiFormalParameter
p162
(dp163
g47
Nsg48
(lp164
S'livingDeadOrBoth'
p165
asg51
(i__main__
DelphiPrimitiveType
p166
(dp167
g35
g54
sbsg55
Nsbasg31
g22
sg32
(i__main__
DelphiPrimitiveType
p168
(dp169
g35
g90
sbsg37
I0
sg38
g39
sbsS'updateplant'
p170
(i__main__
DelphiMethodDeclaration
p171
(dp172
g21
S'updatePlant'
p173
sg29
(lp174
(i__main__
DelphiFormalParameter
p175
(dp176
g47
Nsg48
(lp177
S'newPlant'
p178
asg51
(i__main__
DelphiNamedType
p179
(dp180
g35
S'PdPlant'
p181
sg120
g1
sg121
Nsbsg55
Nsbasg31
g22
sg32
Nsg37
I0
sg38
g91
sbsS'updatehint'
p182
(i__main__
DelphiMethodDeclaration
p183
(dp184
g21
S'updateHint'
p185
sg29
(lp186
sg31
g22
sg32
Nsg37
I0
sg38
g91
sbsS'labelstringforparttype'
p187
(i__main__
DelphiMethodDeclaration
p188
(dp189
g21
S'labelStringForPartType'
p190
sg29
(lp191
(i__main__
DelphiFormalParameter
p192
(dp193
g47
Nsg48
(lp194
g81
asg51
(i__main__
DelphiPrimitiveType
p195
(dp196
g35
g54
sbsg55
Nsbasg31
g22
sg32
(i__main__
DelphiPrimitiveType
p197
(dp198
g35
g65
sbsg37
I0
sg38
g39
sbsS'drawtextlabel'
p199
(i__main__
DelphiMethodDeclaration
p200
(dp201
g21
S'drawTextLabel'
p202
sg29
(lp203
(i__main__
DelphiFormalParameter
p204
(dp205
g47
Nsg48
(lp206
S'text'
p207
asg51
(i__main__
DelphiPrimitiveType
p208
(dp209
g35
g65
sbsg55
Nsba(i__main__
DelphiFormalParameter
p210
(dp211
g47
Nsg48
(lp212
S'drawRect'
p213
asg51
(i__main__
DelphiNamedType
p214
(dp215
g35
S'TRect'
p216
sg120
g1
sg121
Nsbsg55
Nsba(i__main__
DelphiFormalParameter
p217
(dp218
g47
Nsg48
(lp219
S'active'
p220
aS'drawLine'
p221
aS'drawBox'
p222
asg51
(i__main__
DelphiPrimitiveType
p223
(dp224
g35
g62
sbsg55
Nsbasg31
g22
sg32
Nsg37
I0
sg38
g91
sbsS'destroy'
p225
(i__main__
DelphiMethodDeclaration
p226
(dp227
g21
S'destroy'
p228
sg29
(lp229
sg31
g22
sg32
Nsg37
I0
sg38
S'destructor'
p230
sbsS'updateplantvalues'
p231
(i__main__
DelphiMethodDeclaration
p232
(dp233
g21
S'updatePlantValues'
p234
sg29
(lp235
sg31
g22
sg32
Nsg37
I0
sg38
g91
sbsS'collapseorexpand'
p236
(i__main__
DelphiMethodDeclaration
p237
(dp238
g21
S'collapseOrExpand'
p239
sg29
(lp240
(i__main__
DelphiFormalParameter
p241
(dp242
g47
Nsg48
(lp243
S'y'
asg51
(i__main__
DelphiPrimitiveType
p244
(dp245
g35
g36
sbsg55
Nsbasg31
g22
sg32
Nsg37
I0
sg38
g91
sbsS'collapsedheight'
p246
(i__main__
DelphiMethodDeclaration
p247
(dp248
g21
S'collapsedHeight'
p249
sg29
(lp250
sg31
g22
sg32
(i__main__
DelphiPrimitiveType
p251
(dp252
g35
g36
sbsg37
I0
sg38
g39
sbssS'superclassNamedTypes'
p253
(lp254
(i__main__
DelphiNamedType
p255
(dp256
g35
S'PdParameterPanel'
p257
sg120
g1
sg121
NsbasS'variableNames'
p258
(dp259
S'statistics'
p260
(i__main__
DelphiNamedType
p261
(dp262
g35
S'PdPlantStatistics'
p263
sg120
g1
sg121
NsbsS'labelrects'
p264
(i__main__
DelphiArrayType
p265
(dp266
g51
(i__main__
DelphiNamedType
p267
(dp268
g35
S'TRect'
p269
sg120
g1
sg121
NsbsS'sizes'
p270
(lp271
(idelphi
DelphiSubrange
p272
(dp273
S'high'
p274
(i__main__
DelphiIdentAccess
p275
(dp276
S'ident'
p277
S'kStatisticsPartTypeLast'
p278
sS'endAccessList'
p279
(lp280
sbsS'low'
p281
(idelphi
DelphiIntegerValue
p282
(dp283
g65
S'0'
sbsg21
S''
sbasbsS'drawbitmap'
p284
(i__main__
DelphiNamedType
p285
(dp286
g35
S'TBitmap'
p287
sg120
g1
sg121
NsbsS'maxlabelwidth'
p288
(i__main__
DelphiPrimitiveType
p289
(dp290
g35
g54
sbsS'percentrect'
p291
(i__main__
DelphiNamedType
p292
(dp293
g35
S'TRect'
p294
sg120
g1
sg121
NsbsS'graphrect'
p295
g292
ssS'methodNamesInDefinedOrder'
p296
(lp297
S'create'
p298
aS'updatehint'
p299
aS'destroy'
p300
aS'maxselecteditemindex'
p301
aS'collapsedheight'
p302
aS'collapseorexpand'
p303
aS'updateplant'
p304
aS'updateplantvalues'
p305
aS'updatecurrentvalue'
p306
aS'updatedisplay'
p307
aS'resizeelements'
p308
aS'labelstringforparttype'
p309
aS'displaypercentforparttype'
p310
aS'numnonzeroplantparts'
p311
aS'paint'
p312
aS'drawtextlabel'
p313
aS'drawgraph'
p314
aS'drawbar'
p315
aS'nameforparttype'
p316
aS'parttypeforindex'
p317
asS'methodImplementations'
p318
(dp319
S'maxselecteditemindex'
p320
(i__main__
DelphiMethodImplementation
p321
(dp322
S'originalDeclaration'
p323
g26
sg21
g28
sg29
(lp324
sS'varParamIndexes'
p325
(lp326
sS'varParamsSkipped'
p327
(lp328
sS'argNames'
p329
(lp330
S'self'
p331
asS'argTypes'
p332
(dp333
sg31
S'PdStatsPanel'
p334
sg32
(i__main__
DelphiPrimitiveType
p335
(dp336
g35
g36
sbsS'varParamNames'
p337
(lp338
sg37
I0
sg38
g39
sS'block'
p339
(i__main__
DelphiBlock
p340
(dp341
S'compoundStatement'
p342
(idelphi
DelphiCompoundStatement
p343
(dp344
S'statements'
p345
(lp346
(i__main__
DelphiAssignStatement
p347
(dp348
S'newValueExpression'
p349
(i__main__
DelphiIdentAccess
p350
(dp351
g277
S'kItemNone'
p352
sg279
(lp353
sbsS'destinationExpression'
p354
(i__main__
DelphiIdentAccess
p355
(dp356
g277
S'result'
p357
sg279
(lp358
sbsbasbsS'limitedDeclSectionList'
p359
(lp360
sbsbsS'nameforparttype'
p361
(i__main__
DelphiMethodImplementation
p362
(dp363
g323
g41
sg21
g43
sg29
(lp364
(i__main__
DelphiFormalParameter
p365
(dp366
g47
Nsg48
(lp367
S'partType'
p368
asg51
(i__main__
DelphiPrimitiveType
p369
(dp370
g35
g54
sbsg55
Nsba(i__main__
DelphiFormalParameter
p371
(dp372
g47
Nsg48
(lp373
S'isSingular'
p374
asg51
(i__main__
DelphiPrimitiveType
p375
(dp376
g35
g62
sbsg55
Nsbasg325
(lp377
sg327
(lp378
sg329
(lp379
g331
ag368
ag374
asg332
(dp380
g374
g375
sg368
g369
ssg31
S'PdStatsPanel'
p381
sg32
(i__main__
DelphiPrimitiveType
p382
(dp383
g35
g65
sbsg337
(lp384
sg37
I0
sg38
g39
sg339
(i__main__
DelphiBlock
p385
(dp386
g342
(idelphi
DelphiCompoundStatement
p387
(dp388
g345
(lp389
(i__main__
DelphiAssignStatement
p390
(dp391
g349
(idelphi
DelphiStringAccess
p392
(dp393
g279
(lp394
sg65
(idelphi
DelphiStringValue
p395
(dp396
g65
S''
sbsbsg354
(i__main__
DelphiIdentAccess
p397
(dp398
g277
S'result'
p399
sg279
(lp400
sbsba(idelphi
DelphiCaseStatement
p401
(dp402
S'elseStatement'
p403
(i__main__
DelphiAssignStatement
p404
(dp405
g349
(idelphi
DelphiStringAccess
p406
(dp407
g279
(lp408
sg65
(idelphi
DelphiStringValue
p409
(dp410
g65
S''
sbsbsg354
(i__main__
DelphiIdentAccess
p411
(dp412
g277
S'result'
p413
sg279
(lp414
sbsbsS'expression'
p415
(i__main__
DelphiIdentAccess
p416
(dp417
g277
S'partType'
p418
sg279
(lp419
sbsS'caseSelectorList'
p420
(lp421
(idelphi
DelphiCaseSelector
p422
(dp423
S'statement'
p424
(idelphi
DelphiIfStatement
p425
(dp426
g415
(i__main__
DelphiIdentAccess
p427
(dp428
g277
S'isSingular'
p429
sg279
(lp430
sbsS'ifFalseStatement'
p431
(i__main__
DelphiAssignStatement
p432
(dp433
g349
(idelphi
DelphiStringAccess
p434
(dp435
g279
(lp436
sg65
(idelphi
DelphiStringValue
p437
(dp438
g65
S'seedling leaves'
p439
sbsbsg354
(i__main__
DelphiIdentAccess
p440
(dp441
g277
S'result'
p442
sg279
(lp443
sbsbsS'ifTrueStatement'
p444
(i__main__
DelphiAssignStatement
p445
(dp446
g349
(idelphi
DelphiStringAccess
p447
(dp448
g279
(lp449
sg65
(idelphi
DelphiStringValue
p450
(dp451
g65
S'seedling leaf'
p452
sbsbsg354
(i__main__
DelphiIdentAccess
p453
(dp454
g277
S'result'
p455
sg279
(lp456
sbsbsbsS'caseLabelList'
p457
(lp458
(i__main__
DelphiIdentAccess
p459
(dp460
g277
S'kStatisticsPartTypeSeedlingLeaf'
p461
sg279
(lp462
sbasba(idelphi
DelphiCaseSelector
p463
(dp464
g424
(idelphi
DelphiIfStatement
p465
(dp466
g415
(i__main__
DelphiIdentAccess
p467
(dp468
g277
S'isSingular'
p469
sg279
(lp470
sbsg431
(i__main__
DelphiAssignStatement
p471
(dp472
g349
(idelphi
DelphiStringAccess
p473
(dp474
g279
(lp475
sg65
(idelphi
DelphiStringValue
p476
(dp477
g65
S'leaves'
p478
sbsbsg354
(i__main__
DelphiIdentAccess
p479
(dp480
g277
S'result'
p481
sg279
(lp482
sbsbsg444
(i__main__
DelphiAssignStatement
p483
(dp484
g349
(idelphi
DelphiStringAccess
p485
(dp486
g279
(lp487
sg65
(idelphi
DelphiStringValue
p488
(dp489
g65
S'leaf'
p490
sbsbsg354
(i__main__
DelphiIdentAccess
p491
(dp492
g277
S'result'
p493
sg279
(lp494
sbsbsbsg457
(lp495
(i__main__
DelphiIdentAccess
p496
(dp497
g277
S'kStatisticsPartTypeLeaf'
p498
sg279
(lp499
sbasba(idelphi
DelphiCaseSelector
p500
(dp501
g424
(idelphi
DelphiIfStatement
p502
(dp503
g415
(i__main__
DelphiIdentAccess
p504
(dp505
g277
S'isSingular'
p506
sg279
(lp507
sbsg431
(i__main__
DelphiAssignStatement
p508
(dp509
g349
(idelphi
DelphiStringAccess
p510
(dp511
g279
(lp512
sg65
(idelphi
DelphiStringValue
p513
(dp514
g65
S'primary inflorescences'
p515
sbsbsg354
(i__main__
DelphiIdentAccess
p516
(dp517
g277
S'result'
p518
sg279
(lp519
sbsbsg444
(i__main__
DelphiAssignStatement
p520
(dp521
g349
(idelphi
DelphiStringAccess
p522
(dp523
g279
(lp524
sg65
(idelphi
DelphiStringValue
p525
(dp526
g65
S'primary inflorescence'
p527
sbsbsg354
(i__main__
DelphiIdentAccess
p528
(dp529
g277
S'result'
p530
sg279
(lp531
sbsbsbsg457
(lp532
(i__main__
DelphiIdentAccess
p533
(dp534
g277
S'kStatisticsPartTypeFemaleInflorescence'
p535
sg279
(lp536
sbasba(idelphi
DelphiCaseSelector
p537
(dp538
g424
(idelphi
DelphiIfStatement
p539
(dp540
g415
(i__main__
DelphiIdentAccess
p541
(dp542
g277
S'isSingular'
p543
sg279
(lp544
sbsg431
(i__main__
DelphiAssignStatement
p545
(dp546
g349
(idelphi
DelphiStringAccess
p547
(dp548
g279
(lp549
sg65
(idelphi
DelphiStringValue
p550
(dp551
g65
S'secondary inflorescences'
p552
sbsbsg354
(i__main__
DelphiIdentAccess
p553
(dp554
g277
S'result'
p555
sg279
(lp556
sbsbsg444
(i__main__
DelphiAssignStatement
p557
(dp558
g349
(idelphi
DelphiStringAccess
p559
(dp560
g279
(lp561
sg65
(idelphi
DelphiStringValue
p562
(dp563
g65
S'secondary inflorescence'
p564
sbsbsg354
(i__main__
DelphiIdentAccess
p565
(dp566
g277
S'result'
p567
sg279
(lp568
sbsbsbsg457
(lp569
(i__main__
DelphiIdentAccess
p570
(dp571
g277
S'kStatisticsPartTypeMaleInflorescence'
p572
sg279
(lp573
sbasba(idelphi
DelphiCaseSelector
p574
(dp575
g424
(idelphi
DelphiIfStatement
p576
(dp577
g415
(i__main__
DelphiIdentAccess
p578
(dp579
g277
S'isSingular'
p580
sg279
(lp581
sbsg431
(i__main__
DelphiAssignStatement
p582
(dp583
g349
(idelphi
DelphiStringAccess
p584
(dp585
g279
(lp586
sg65
(idelphi
DelphiStringValue
p587
(dp588
g65
S'primary flowers'
p589
sbsbsg354
(i__main__
DelphiIdentAccess
p590
(dp591
g277
S'result'
p592
sg279
(lp593
sbsbsg444
(i__main__
DelphiAssignStatement
p594
(dp595
g349
(idelphi
DelphiStringAccess
p596
(dp597
g279
(lp598
sg65
(idelphi
DelphiStringValue
p599
(dp600
g65
S'primary flower'
p601
sbsbsg354
(i__main__
DelphiIdentAccess
p602
(dp603
g277
S'result'
p604
sg279
(lp605
sbsbsbsg457
(lp606
(i__main__
DelphiIdentAccess
p607
(dp608
g277
S'kStatisticsPartTypeFemaleFlower'
p609
sg279
(lp610
sbasba(idelphi
DelphiCaseSelector
p611
(dp612
g424
(idelphi
DelphiIfStatement
p613
(dp614
g415
(i__main__
DelphiIdentAccess
p615
(dp616
g277
S'isSingular'
p617
sg279
(lp618
sbsg431
(i__main__
DelphiAssignStatement
p619
(dp620
g349
(idelphi
DelphiStringAccess
p621
(dp622
g279
(lp623
sg65
(idelphi
DelphiStringValue
p624
(dp625
g65
S'primary flower buds'
p626
sbsbsg354
(i__main__
DelphiIdentAccess
p627
(dp628
g277
S'result'
p629
sg279
(lp630
sbsbsg444
(i__main__
DelphiAssignStatement
p631
(dp632
g349
(idelphi
DelphiStringAccess
p633
(dp634
g279
(lp635
sg65
(idelphi
DelphiStringValue
p636
(dp637
g65
S'primary flower bud'
p638
sbsbsg354
(i__main__
DelphiIdentAccess
p639
(dp640
g277
S'result'
p641
sg279
(lp642
sbsbsbsg457
(lp643
(i__main__
DelphiIdentAccess
p644
(dp645
g277
S'kStatisticsPartTypeFemaleFlowerBud'
p646
sg279
(lp647
sbasba(idelphi
DelphiCaseSelector
p648
(dp649
g424
(idelphi
DelphiIfStatement
p650
(dp651
g415
(i__main__
DelphiIdentAccess
p652
(dp653
g277
S'isSingular'
p654
sg279
(lp655
sbsg431
(i__main__
DelphiAssignStatement
p656
(dp657
g349
(idelphi
DelphiStringAccess
p658
(dp659
g279
(lp660
sg65
(idelphi
DelphiStringValue
p661
(dp662
g65
S'secondary flowers'
p663
sbsbsg354
(i__main__
DelphiIdentAccess
p664
(dp665
g277
S'result'
p666
sg279
(lp667
sbsbsg444
(i__main__
DelphiAssignStatement
p668
(dp669
g349
(idelphi
DelphiStringAccess
p670
(dp671
g279
(lp672
sg65
(idelphi
DelphiStringValue
p673
(dp674
g65
S'secondary flower'
p675
sbsbsg354
(i__main__
DelphiIdentAccess
p676
(dp677
g277
S'result'
p678
sg279
(lp679
sbsbsbsg457
(lp680
(i__main__
DelphiIdentAccess
p681
(dp682
g277
S'kStatisticsPartTypeMaleFlower'
p683
sg279
(lp684
sbasba(idelphi
DelphiCaseSelector
p685
(dp686
g424
(idelphi
DelphiIfStatement
p687
(dp688
g415
(i__main__
DelphiIdentAccess
p689
(dp690
g277
S'isSingular'
p691
sg279
(lp692
sbsg431
(i__main__
DelphiAssignStatement
p693
(dp694
g349
(idelphi
DelphiStringAccess
p695
(dp696
g279
(lp697
sg65
(idelphi
DelphiStringValue
p698
(dp699
g65
S'secondary flower buds'
p700
sbsbsg354
(i__main__
DelphiIdentAccess
p701
(dp702
g277
S'result'
p703
sg279
(lp704
sbsbsg444
(i__main__
DelphiAssignStatement
p705
(dp706
g349
(idelphi
DelphiStringAccess
p707
(dp708
g279
(lp709
sg65
(idelphi
DelphiStringValue
p710
(dp711
g65
S'secondary flower bud'
p712
sbsbsg354
(i__main__
DelphiIdentAccess
p713
(dp714
g277
S'result'
p715
sg279
(lp716
sbsbsbsg457
(lp717
(i__main__
DelphiIdentAccess
p718
(dp719
g277
S'kStatisticsPartTypeMaleFlowerBud'
p720
sg279
(lp721
sbasba(idelphi
DelphiCaseSelector
p722
(dp723
g424
(idelphi
DelphiIfStatement
p724
(dp725
g415
(i__main__
DelphiIdentAccess
p726
(dp727
g277
S'isSingular'
p728
sg279
(lp729
sbsg431
(i__main__
DelphiAssignStatement
p730
(dp731
g349
(idelphi
DelphiStringAccess
p732
(dp733
g279
(lp734
sg65
(idelphi
DelphiStringValue
p735
(dp736
g65
S'meristems'
p737
sbsbsg354
(i__main__
DelphiIdentAccess
p738
(dp739
g277
S'result'
p740
sg279
(lp741
sbsbsg444
(i__main__
DelphiAssignStatement
p742
(dp743
g349
(idelphi
DelphiStringAccess
p744
(dp745
g279
(lp746
sg65
(idelphi
DelphiStringValue
p747
(dp748
g65
S'meristem'
p749
sbsbsg354
(i__main__
DelphiIdentAccess
p750
(dp751
g277
S'result'
p752
sg279
(lp753
sbsbsbsg457
(lp754
(i__main__
DelphiIdentAccess
p755
(dp756
g277
S'kStatisticsPartTypeAxillaryBud'
p757
sg279
(lp758
sbasba(idelphi
DelphiCaseSelector
p759
(dp760
g424
(idelphi
DelphiIfStatement
p761
(dp762
g415
(i__main__
DelphiIdentAccess
p763
(dp764
g277
S'isSingular'
p765
sg279
(lp766
sbsg431
(i__main__
DelphiAssignStatement
p767
(dp768
g349
(idelphi
DelphiStringAccess
p769
(dp770
g279
(lp771
sg65
(idelphi
DelphiStringValue
p772
(dp773
g65
S'ripe fruits'
p774
sbsbsg354
(i__main__
DelphiIdentAccess
p775
(dp776
g277
S'result'
p777
sg279
(lp778
sbsbsg444
(i__main__
DelphiAssignStatement
p779
(dp780
g349
(idelphi
DelphiStringAccess
p781
(dp782
g279
(lp783
sg65
(idelphi
DelphiStringValue
p784
(dp785
g65
S'ripe fruit'
p786
sbsbsg354
(i__main__
DelphiIdentAccess
p787
(dp788
g277
S'result'
p789
sg279
(lp790
sbsbsbsg457
(lp791
(i__main__
DelphiIdentAccess
p792
(dp793
g277
S'kStatisticsPartTypeFruit'
p794
sg279
(lp795
sbasba(idelphi
DelphiCaseSelector
p796
(dp797
g424
(idelphi
DelphiIfStatement
p798
(dp799
g415
(i__main__
DelphiIdentAccess
p800
(dp801
g277
S'isSingular'
p802
sg279
(lp803
sbsg431
(i__main__
DelphiAssignStatement
p804
(dp805
g349
(idelphi
DelphiStringAccess
p806
(dp807
g279
(lp808
sg65
(idelphi
DelphiStringValue
p809
(dp810
g65
S'stem internodes'
p811
sbsbsg354
(i__main__
DelphiIdentAccess
p812
(dp813
g277
S'result'
p814
sg279
(lp815
sbsbsg444
(i__main__
DelphiAssignStatement
p816
(dp817
g349
(idelphi
DelphiStringAccess
p818
(dp819
g279
(lp820
sg65
(idelphi
DelphiStringValue
p821
(dp822
g65
S'stem internode'
p823
sbsbsg354
(i__main__
DelphiIdentAccess
p824
(dp825
g277
S'result'
p826
sg279
(lp827
sbsbsbsg457
(lp828
(i__main__
DelphiIdentAccess
p829
(dp830
g277
S'kStatisticsPartTypeStem'
p831
sg279
(lp832
sbasba(idelphi
DelphiCaseSelector
p833
(dp834
g424
(idelphi
DelphiIfStatement
p835
(dp836
g415
(i__main__
DelphiIdentAccess
p837
(dp838
g277
S'isSingular'
p839
sg279
(lp840
sbsg431
(i__main__
DelphiAssignStatement
p841
(dp842
g349
(idelphi
DelphiStringAccess
p843
(dp844
g279
(lp845
sg65
(idelphi
DelphiStringValue
p846
(dp847
g65
S'unripe fruits'
p848
sbsbsg354
(i__main__
DelphiIdentAccess
p849
(dp850
g277
S'result'
p851
sg279
(lp852
sbsbsg444
(i__main__
DelphiAssignStatement
p853
(dp854
g349
(idelphi
DelphiStringAccess
p855
(dp856
g279
(lp857
sg65
(idelphi
DelphiStringValue
p858
(dp859
g65
S'unripe fruit'
p860
sbsbsg354
(i__main__
DelphiIdentAccess
p861
(dp862
g277
S'result'
p863
sg279
(lp864
sbsbsbsg457
(lp865
(i__main__
DelphiIdentAccess
p866
(dp867
g277
S'kStatisticsPartTypeUnripeFruit'
p868
sg279
(lp869
sbasba(idelphi
DelphiCaseSelector
p870
(dp871
g424
(idelphi
DelphiIfStatement
p872
(dp873
g415
(i__main__
DelphiIdentAccess
p874
(dp875
g277
S'isSingular'
p876
sg279
(lp877
sbsg431
(i__main__
DelphiAssignStatement
p878
(dp879
g349
(idelphi
DelphiStringAccess
p880
(dp881
g279
(lp882
sg65
(idelphi
DelphiStringValue
p883
(dp884
g65
S'fallen fruits'
p885
sbsbsg354
(i__main__
DelphiIdentAccess
p886
(dp887
g277
S'result'
p888
sg279
(lp889
sbsbsg444
(i__main__
DelphiAssignStatement
p890
(dp891
g349
(idelphi
DelphiStringAccess
p892
(dp893
g279
(lp894
sg65
(idelphi
DelphiStringValue
p895
(dp896
g65
S'fallen fruit'
p897
sbsbsg354
(i__main__
DelphiIdentAccess
p898
(dp899
g277
S'result'
p900
sg279
(lp901
sbsbsbsg457
(lp902
(i__main__
DelphiIdentAccess
p903
(dp904
g277
S'kStatisticsPartTypeFallenFruit'
p905
sg279
(lp906
sbasba(idelphi
DelphiCaseSelector
p907
(dp908
g424
(i__main__
DelphiAssignStatement
p909
(dp910
g349
(idelphi
DelphiStringAccess
p911
(dp912
g279
(lp913
sg65
(idelphi
DelphiStringValue
p914
(dp915
g65
S'unallocated vegetative'
p916
sbsbsg354
(i__main__
DelphiIdentAccess
p917
(dp918
g277
S'result'
p919
sg279
(lp920
sbsbsg457
(lp921
(i__main__
DelphiIdentAccess
p922
(dp923
g277
S'kStatisticsPartTypeUnallocatedNewVegetativeBiomass'
p924
sg279
(lp925
sbasba(idelphi
DelphiCaseSelector
p926
(dp927
g424
(i__main__
DelphiAssignStatement
p928
(dp929
g349
(idelphi
DelphiStringAccess
p930
(dp931
g279
(lp932
sg65
(idelphi
DelphiStringValue
p933
(dp934
g65
S'unremoved vegetative'
p935
sbsbsg354
(i__main__
DelphiIdentAccess
p936
(dp937
g277
S'result'
p938
sg279
(lp939
sbsbsg457
(lp940
(i__main__
DelphiIdentAccess
p941
(dp942
g277
S'kStatisticsPartTypeUnremovedDeadVegetativeBiomass'
p943
sg279
(lp944
sbasba(idelphi
DelphiCaseSelector
p945
(dp946
g424
(i__main__
DelphiAssignStatement
p947
(dp948
g349
(idelphi
DelphiStringAccess
p949
(dp950
g279
(lp951
sg65
(idelphi
DelphiStringValue
p952
(dp953
g65
S'unallocated reproductive'
p954
sbsbsg354
(i__main__
DelphiIdentAccess
p955
(dp956
g277
S'result'
p957
sg279
(lp958
sbsbsg457
(lp959
(i__main__
DelphiIdentAccess
p960
(dp961
g277
S'kStatisticsPartTypeUnallocatedNewReproductiveBiomass'
p962
sg279
(lp963
sbasba(idelphi
DelphiCaseSelector
p964
(dp965
g424
(i__main__
DelphiAssignStatement
p966
(dp967
g349
(idelphi
DelphiStringAccess
p968
(dp969
g279
(lp970
sg65
(idelphi
DelphiStringValue
p971
(dp972
g65
S'unremoved reproductive'
p973
sbsbsg354
(i__main__
DelphiIdentAccess
p974
(dp975
g277
S'result'
p976
sg279
(lp977
sbsbsg457
(lp978
(i__main__
DelphiIdentAccess
p979
(dp980
g277
S'kStatisticsPartTypeUnremovedDeadReproductiveBiomass'
p981
sg279
(lp982
sbasba(idelphi
DelphiCaseSelector
p983
(dp984
g424
(idelphi
DelphiIfStatement
p985
(dp986
g415
(i__main__
DelphiIdentAccess
p987
(dp988
g277
S'isSingular'
p989
sg279
(lp990
sbsg431
(i__main__
DelphiAssignStatement
p991
(dp992
g349
(idelphi
DelphiStringAccess
p993
(dp994
g279
(lp995
sg65
(idelphi
DelphiStringValue
p996
(dp997
g65
S'fallen flowers'
p998
sbsbsg354
(i__main__
DelphiIdentAccess
p999
(dp1000
g277
S'result'
p1001
sg279
(lp1002
sbsbsg444
(i__main__
DelphiAssignStatement
p1003
(dp1004
g349
(idelphi
DelphiStringAccess
p1005
(dp1006
g279
(lp1007
sg65
(idelphi
DelphiStringValue
p1008
(dp1009
g65
S'fallen flower'
p1010
sbsbsg354
(i__main__
DelphiIdentAccess
p1011
(dp1012
g277
S'result'
p1013
sg279
(lp1014
sbsbsbsg457
(lp1015
(i__main__
DelphiIdentAccess
p1016
(dp1017
g277
S'kStatisticsPartTypeFallenFlower'
p1018
sg279
(lp1019
sbasba(idelphi
DelphiCaseSelector
p1020
(dp1021
g424
(i__main__
DelphiAssignStatement
p1022
(dp1023
g349
(idelphi
DelphiStringAccess
p1024
(dp1025
g279
(lp1026
sg65
(idelphi
DelphiStringValue
p1027
(dp1028
g65
S'vegetative parts'
p1029
sbsbsg354
(i__main__
DelphiIdentAccess
p1030
(dp1031
g277
S'result'
p1032
sg279
(lp1033
sbsbsg457
(lp1034
(i__main__
DelphiIdentAccess
p1035
(dp1036
g277
S'kStatisticsPartTypeAllVegetative'
p1037
sg279
(lp1038
sbasba(idelphi
DelphiCaseSelector
p1039
(dp1040
g424
(i__main__
DelphiAssignStatement
p1041
(dp1042
g349
(idelphi
DelphiStringAccess
p1043
(dp1044
g279
(lp1045
sg65
(idelphi
DelphiStringValue
p1046
(dp1047
g65
S'reproductive parts'
p1048
sbsbsg354
(i__main__
DelphiIdentAccess
p1049
(dp1050
g277
S'result'
p1051
sg279
(lp1052
sbsbsg457
(lp1053
(i__main__
DelphiIdentAccess
p1054
(dp1055
g277
S'kStatisticsPartTypeAllReproductive'
p1056
sg279
(lp1057
sbasbasbasbsg359
(lp1058
sbsbsS'numnonzeroplantparts'
p1059
(i__main__
DelphiMethodImplementation
p1060
(dp1061
g323
g67
sg21
g69
sg29
(lp1062
sg325
(lp1063
sg327
(lp1064
sg329
(lp1065
g331
asg332
(dp1066
sg31
S'PdStatsPanel'
p1067
sg32
(i__main__
DelphiPrimitiveType
p1068
(dp1069
g35
g54
sbsg337
(lp1070
sg37
I0
sg38
g39
sg339
(i__main__
DelphiBlock
p1071
(dp1072
g342
(idelphi
DelphiCompoundStatement
p1073
(dp1074
g345
(lp1075
(i__main__
DelphiAssignStatement
p1076
(dp1077
g349
(idelphi
DelphiIntegerValue
p1078
(dp1079
g65
S'0'
sbsg354
(i__main__
DelphiIdentAccess
p1080
(dp1081
g277
S'result'
p1082
sg279
(lp1083
sbsba(idelphi
DelphiForStatement
p1084
(dp1085
S'variable'
p1086
S'i'
sS'finalValue'
p1087
(i__main__
DelphiIdentAccess
p1088
(dp1089
g277
S'kStatisticsPartTypeLast'
p1090
sg279
(lp1091
sbsS'direction'
p1092
S'to'
p1093
sg47
(idelphi
DelphiIntegerValue
p1094
(dp1095
g65
S'0'
sbsg424
(idelphi
DelphiCompoundStatement
p1096
(dp1097
g345
(lp1098
(i__main__
DelphiAssignStatement
p1099
(dp1100
g349
(i__main__
DelphiIdentAccess
p1101
(dp1102
g277
S'self'
p1103
sg279
(lp1104
(idelphi
DelphiFieldEndAccess
p1105
(dp1106
S'field'
p1107
S'partTypeForIndex'
p1108
sba(idelphi
DelphiFunctionEndAccess
p1109
(dp1110
S'expressionList'
p1111
(lp1112
(i__main__
DelphiIdentAccess
p1113
(dp1114
g277
S'i'
sg279
(lp1115
sbasbasbsg354
(i__main__
DelphiIdentAccess
p1116
(dp1117
g277
S'partType'
p1118
sg279
(lp1119
sbsba(idelphi
DelphiWithStatement
p1120
(dp1121
g424
(i__main__
DelphiAssignStatement
p1122
(dp1123
g349
(idelphi
DelphiAddOp
p1124
(dp1125
S'addOp'
p1126
S'or'
p1127
sS'term2'
p1128
(idelphi
DelphiNestedExpressionListAccess
p1129
(dp1130
g279
(lp1131
sg1111
(lp1132
(idelphi
DelphiRelOp
p1133
(dp1134
S'simpleExpression1'
p1135
(i__main__
DelphiIdentAccess
p1136
(dp1137
g277
S'count'
p1138
sg279
(lp1139
(idelphi
DelphiArrayEndAccess
p1140
(dp1141
g1111
(lp1142
(i__main__
DelphiIdentAccess
p1143
(dp1144
g277
S'partType'
p1145
sg279
(lp1146
sbasbasbsS'simpleExpression2'
p1147
(idelphi
DelphiIntegerValue
p1148
(dp1149
g65
S'0'
sbsS'relOp'
p1150
S'>'
sbasbsS'term1'
p1151
(idelphi
DelphiNestedExpressionListAccess
p1152
(dp1153
g279
(lp1154
sg1111
(lp1155
(idelphi
DelphiRelOp
p1156
(dp1157
g1135
(idelphi
DelphiAddOp
p1158
(dp1159
g1126
S'+'
sg1128
(i__main__
DelphiIdentAccess
p1160
(dp1161
g277
S'deadBiomass_pctMPB'
p1162
sg279
(lp1163
(idelphi
DelphiArrayEndAccess
p1164
(dp1165
g1111
(lp1166
(i__main__
DelphiIdentAccess
p1167
(dp1168
g277
S'partType'
p1169
sg279
(lp1170
sbasbasbsg1151
(i__main__
DelphiIdentAccess
p1171
(dp1172
g277
S'liveBiomass_pctMPB'
p1173
sg279
(lp1174
(idelphi
DelphiArrayEndAccess
p1175
(dp1176
g1111
(lp1177
(i__main__
DelphiIdentAccess
p1178
(dp1179
g277
S'partType'
p1180
sg279
(lp1181
sbasbasbsbsg1147
(idelphi
DelphiIntegerValue
p1182
(dp1183
g65
S'0'
sbsg1150
S'>'
sbasbsbsg354
(i__main__
DelphiIdentAccess
p1184
(dp1185
g277
S'hasStuff'
p1186
sg279
(lp1187
sbsbsS'variableReferenceList'
p1188
(lp1189
(i__main__
DelphiIdentAccess
p1190
(dp1191
g277
S'statistics'
p1192
sg279
(lp1193
sbasba(idelphi
DelphiIfStatement
p1194
(dp1195
g415
(i__main__
DelphiIdentAccess
p1196
(dp1197
g277
S'hasStuff'
p1198
sg279
(lp1199
sbsg431
Nsg444
(i__main__
DelphiIncOrDecStatement
p1200
(dp1201
S'incOrDecString'
p1202
S'inc'
p1203
sS'incrementExpression'
p1204
Nsg354
(i__main__
DelphiIdentAccess
p1205
(dp1206
g277
S'result'
p1207
sg279
(lp1208
sbsbsbasbsbasbsg359
(lp1209
(i__main__
DelphiVarSection
p1210
(dp1211
S'atTopLevel'
p1212
I0
sS'varDeclList'
p1213
(lp1214
(idelphi
DelphiVarDecl
p1215
(dp1216
S'constExpression'
p1217
NsS'identList'
p1218
(lp1219
S'i'
aS'partType'
p1220
asg51
(i__main__
DelphiPrimitiveType
p1221
(dp1222
g35
g54
sbsba(idelphi
DelphiVarDecl
p1223
(dp1224
g1217
Nsg1218
(lp1225
S'hasStuff'
p1226
asg51
(i__main__
DelphiPrimitiveType
p1227
(dp1228
g35
g62
sbsbasbasbsbsS'collapsedheight'
p1229
(i__main__
DelphiMethodImplementation
p1230
(dp1231
g323
g247
sg21
g249
sg29
(lp1232
sg325
(lp1233
sg327
(lp1234
sg329
(lp1235
g331
asg332
(dp1236
sg31
S'PdStatsPanel'
p1237
sg32
(i__main__
DelphiPrimitiveType
p1238
(dp1239
g35
g36
sbsg337
(lp1240
sg37
I0
sg38
g39
sg339
(i__main__
DelphiBlock
p1241
(dp1242
g342
(idelphi
DelphiCompoundStatement
p1243
(dp1244
g345
(lp1245
(i__main__
DelphiAssignStatement
p1246
(dp1247
g349
(idelphi
DelphiAddOp
p1248
(dp1249
g1126
S'+'
sg1128
(i__main__
DelphiIdentAccess
p1250
(dp1251
g277
S'kTopBottomGap'
p1252
sg279
(lp1253
sbsg1151
(i__main__
DelphiIdentAccess
p1254
(dp1255
g277
S'self'
p1256
sg279
(lp1257
(idelphi
DelphiFieldEndAccess
p1258
(dp1259
g1107
S'textHeight'
p1260
sbasbsbsg354
(i__main__
DelphiIdentAccess
p1261
(dp1262
g277
S'result'
p1263
sg279
(lp1264
sbsbasbsg359
(lp1265
sbsbsS'paint'
p1266
(i__main__
DelphiMethodImplementation
p1267
(dp1268
g323
g93
sg21
g95
sg29
(lp1269
sg325
(lp1270
sg327
(lp1271
sg329
(lp1272
g331
asg332
(dp1273
sg31
S'PdStatsPanel'
p1274
sg32
Nsg337
(lp1275
sg37
I0
sg38
g91
sg339
(i__main__
DelphiBlock
p1276
(dp1277
g342
(idelphi
DelphiCompoundStatement
p1278
(dp1279
g345
(lp1280
(i__main__
DelphiAssignStatement
p1281
(dp1282
g349
(i__main__
DelphiIdentAccess
p1283
(dp1284
g277
S'getClientRect'
p1285
sg279
(lp1286
sbsg354
(i__main__
DelphiIdentAccess
p1287
(dp1288
g277
S'fullRect'
p1289
sg279
(lp1290
sbsba(i__main__
DelphiAssignStatement
p1291
(dp1292
g349
(i__main__
DelphiIdentAccess
p1293
(dp1294
g277
S'self'
p1295
sg279
(lp1296
(idelphi
DelphiFieldEndAccess
p1297
(dp1298
g1107
S'font'
p1299
sbasbsg354
(i__main__
DelphiIdentAccess
p1300
(dp1301
g277
S'self'
p1302
sg279
(lp1303
(idelphi
DelphiFieldEndAccess
p1304
(dp1305
g1107
S'canvas'
p1306
sba(idelphi
DelphiFieldEndAccess
p1307
(dp1308
g1107
S'font'
p1309
sbasbsba(idelphi
DelphiIfStatement
p1310
(dp1311
g415
(idelphi
DelphiRelOp
p1312
(dp1313
g1135
(i__main__
DelphiIdentAccess
p1314
(dp1315
g277
S'self'
p1316
sg279
(lp1317
(idelphi
DelphiFieldEndAccess
p1318
(dp1319
g1107
S'textHeight'
p1320
sbasbsg1147
(idelphi
DelphiIntegerValue
p1321
(dp1322
g65
S'0'
sbsg1150
S'='
sbsg431
Nsg444
(i__main__
DelphiAssignStatement
p1323
(dp1324
g349
Nsg354
(i__main__
DelphiIdentAccess
p1325
(dp1326
g277
S'self'
p1327
sg279
(lp1328
(idelphi
DelphiFieldEndAccess
p1329
(dp1330
g1107
S'calculateTextDimensions'
p1331
sbasbsbsba(idelphi
DelphiIfStatement
p1332
(dp1333
g415
(idelphi
DelphiRelOp
p1334
(dp1335
g1135
(i__main__
DelphiIdentAccess
p1336
(dp1337
g277
S'plant'
p1338
sg279
(lp1339
sbsg1147
(idelphi
DelphiNilValue
p1340
(dp1341
bsg1150
S'<>'
p1342
sbsg431
(i__main__
DelphiAssignStatement
p1343
(dp1344
g349
(idelphi
DelphiStringAccess
p1345
(dp1346
g279
(lp1347
sg65
(idelphi
DelphiStringValue
p1348
(dp1349
g65
S'(no plants selected)'
p1350
sbsbsg354
(i__main__
DelphiIdentAccess
p1351
(dp1352
g277
S'percentText'
p1353
sg279
(lp1354
sbsS'commentLinesBefore'
p1355
(lp1356
S' v2.0\r'
p1357
asbsg444
(i__main__
DelphiAssignStatement
p1358
(dp1359
g349
(idelphi
DelphiAddOp
p1360
(dp1361
g1126
S'+'
sg1128
(i__main__
DelphiIdentAccess
p1362
(dp1363
g277
S'plant'
p1364
sg279
(lp1365
(idelphi
DelphiFieldEndAccess
p1366
(dp1367
g1107
S'getName'
p1368
sbasbsg1151
(idelphi
DelphiStringAccess
p1369
(dp1370
g279
(lp1371
sg65
(idelphi
DelphiStringValue
p1372
(dp1373
g65
S'Statistics for '
p1374
sbsbsbsg354
(i__main__
DelphiIdentAccess
p1375
(dp1376
g277
S'percentText'
p1377
sg279
(lp1378
sbsg1355
(lp1379
S" v2.0 + ' (% of total)'\r"
p1380
asbsba(idelphi
DelphiWithStatement
p1381
(dp1382
g424
(idelphi
DelphiCompoundStatement
p1383
(dp1384
g345
(lp1385
(i__main__
DelphiAssignStatement
p1386
(dp1387
g349
(idelphi
DelphiAddOp
p1388
(dp1389
g1126
S'+'
sg1128
(i__main__
DelphiIdentAccess
p1390
(dp1391
g277
S'kTopBottomGap'
p1392
sg279
(lp1393
sbsg1151
(i__main__
DelphiIdentAccess
p1394
(dp1395
g277
S'fullRect'
p1396
sg279
(lp1397
(idelphi
DelphiFieldEndAccess
p1398
(dp1399
g1107
S'top'
p1400
sbasbsbsg354
(i__main__
DelphiIdentAccess
p1401
(dp1402
g277
S'top'
p1403
sg279
(lp1404
sbsba(i__main__
DelphiAssignStatement
p1405
(dp1406
g349
(idelphi
DelphiAddOp
p1407
(dp1408
g1126
S'+'
sg1128
(i__main__
DelphiIdentAccess
p1409
(dp1410
g277
S'self'
p1411
sg279
(lp1412
(idelphi
DelphiFieldEndAccess
p1413
(dp1414
g1107
S'textHeight'
p1415
sbasbsg1151
(i__main__
DelphiIdentAccess
p1416
(dp1417
g277
S'top'
p1418
sg279
(lp1419
sbsbsg354
(i__main__
DelphiIdentAccess
p1420
(dp1421
g277
S'bottom'
p1422
sg279
(lp1423
sbsba(i__main__
DelphiAssignStatement
p1424
(dp1425
g349
(idelphi
DelphiAddOp
p1426
(dp1427
g1126
S'+'
sg1128
(i__main__
DelphiIdentAccess
p1428
(dp1429
g277
S'kLeftRightGap'
p1430
sg279
(lp1431
sbsg1151
(i__main__
DelphiIdentAccess
p1432
(dp1433
g277
S'fullRect'
p1434
sg279
(lp1435
(idelphi
DelphiFieldEndAccess
p1436
(dp1437
g1107
S'left'
p1438
sbasbsbsg354
(i__main__
DelphiIdentAccess
p1439
(dp1440
g277
S'left'
p1441
sg279
(lp1442
sbsba(i__main__
DelphiAssignStatement
p1443
(dp1444
g349
(idelphi
DelphiSetConstructor
p1445
(dp1446
S'setElementList'
p1447
(lp1448
(i__main__
DelphiIdentAccess
p1449
(dp1450
g277
S'fsBold'
p1451
sg279
(lp1452
sbasbsg354
(i__main__
DelphiIdentAccess
p1453
(dp1454
g277
S'self'
p1455
sg279
(lp1456
(idelphi
DelphiFieldEndAccess
p1457
(dp1458
g1107
S'canvas'
p1459
sba(idelphi
DelphiFieldEndAccess
p1460
(dp1461
g1107
S'font'
p1462
sba(idelphi
DelphiFieldEndAccess
p1463
(dp1464
g1107
S'style'
p1465
sbasbsg1355
(lp1466
S' v2.0 bold font\r'
p1467
asba(i__main__
DelphiAssignStatement
p1468
(dp1469
g349
(idelphi
DelphiAddOp
p1470
(dp1471
g1126
S'+'
sg1128
(i__main__
DelphiIdentAccess
p1472
(dp1473
g277
S'self'
p1474
sg279
(lp1475
(idelphi
DelphiFieldEndAccess
p1476
(dp1477
g1107
S'canvas'
p1478
sba(idelphi
DelphiFieldEndAccess
p1479
(dp1480
g1107
S'textWidth'
p1481
sba(idelphi
DelphiFunctionEndAccess
p1482
(dp1483
g1111
(lp1484
(i__main__
DelphiIdentAccess
p1485
(dp1486
g277
S'percentText'
p1487
sg279
(lp1488
sbasbasbsg1151
(i__main__
DelphiIdentAccess
p1489
(dp1490
g277
S'left'
p1491
sg279
(lp1492
sbsbsg354
(i__main__
DelphiIdentAccess
p1493
(dp1494
g277
S'right'
p1495
sg279
(lp1496
sbsba(i__main__
DelphiAssignStatement
p1497
(dp1498
g349
(idelphi
DelphiSetConstructor
p1499
(dp1500
g1447
(lp1501
sbsg354
(i__main__
DelphiIdentAccess
p1502
(dp1503
g277
S'self'
p1504
sg279
(lp1505
(idelphi
DelphiFieldEndAccess
p1506
(dp1507
g1107
S'canvas'
p1508
sba(idelphi
DelphiFieldEndAccess
p1509
(dp1510
g1107
S'font'
p1511
sba(idelphi
DelphiFieldEndAccess
p1512
(dp1513
g1107
S'style'
p1514
sbasbsbasbsg1188
(lp1515
(i__main__
DelphiIdentAccess
p1516
(dp1517
g277
S'percentRect'
p1518
sg279
(lp1519
sbasba(idelphi
DelphiForStatement
p1520
(dp1521
g1086
S'i'
sg1087
(i__main__
DelphiIdentAccess
p1522
(dp1523
g277
S'kStatisticsPartTypeLast'
p1524
sg279
(lp1525
sbsg1092
g1093
sg47
(idelphi
DelphiIntegerValue
p1526
(dp1527
g65
S'0'
sbsg424
(i__main__
DelphiAssignStatement
p1528
(dp1529
g349
(i__main__
DelphiIdentAccess
p1530
(dp1531
g277
S'self'
p1532
sg279
(lp1533
(idelphi
DelphiFieldEndAccess
p1534
(dp1535
g1107
S'labelStringForPartType'
p1536
sba(idelphi
DelphiFunctionEndAccess
p1537
(dp1538
g1111
(lp1539
(i__main__
DelphiIdentAccess
p1540
(dp1541
g277
S'i'
sg279
(lp1542
sbasbasbsg354
(i__main__
DelphiIdentAccess
p1543
(dp1544
g277
S'labelTexts'
p1545
sg279
(lp1546
(idelphi
DelphiArrayEndAccess
p1547
(dp1548
g1111
(lp1549
(i__main__
DelphiIdentAccess
p1550
(dp1551
g277
S'i'
sg279
(lp1552
sbasbasbsbsba(i__main__
DelphiAssignStatement
p1553
(dp1554
g349
(idelphi
DelphiAddOp
p1555
(dp1556
g1126
S'+'
sg1128
(i__main__
DelphiIdentAccess
p1557
(dp1558
g277
S'kBetweenGap'
p1559
sg279
(lp1560
sbsg1151
(i__main__
DelphiIdentAccess
p1561
(dp1562
g277
S'percentRect'
p1563
sg279
(lp1564
(idelphi
DelphiFieldEndAccess
p1565
(dp1566
g1107
S'bottom'
p1567
sbasbsbsg354
(i__main__
DelphiIdentAccess
p1568
(dp1569
g277
S'topPos'
p1570
sg279
(lp1571
sbsba(i__main__
DelphiAssignStatement
p1572
(dp1573
g349
(idelphi
DelphiIntegerValue
p1574
(dp1575
g65
S'0'
sbsg354
(i__main__
DelphiIdentAccess
p1576
(dp1577
g277
S'maxLabelWidth'
p1578
sg279
(lp1579
sbsba(idelphi
DelphiForStatement
p1580
(dp1581
g1086
S'i'
sg1087
(i__main__
DelphiIdentAccess
p1582
(dp1583
g277
S'kStatisticsPartTypeLast'
p1584
sg279
(lp1585
sbsg1092
g1093
sg47
(idelphi
DelphiIntegerValue
p1586
(dp1587
g65
S'0'
sbsg424
(i__main__
DelphiAssignStatement
p1588
(dp1589
g349
(i__main__
DelphiIdentAccess
p1590
(dp1591
g277
S'rect'
p1592
sg279
(lp1593
(idelphi
DelphiFunctionEndAccess
p1594
(dp1595
g1111
(lp1596
(idelphi
DelphiIntegerValue
p1597
(dp1598
g65
S'0'
sba(idelphi
DelphiIntegerValue
p1599
(dp1600
g65
S'0'
sba(idelphi
DelphiIntegerValue
p1601
(dp1602
g65
S'0'
sba(idelphi
DelphiIntegerValue
p1603
(dp1604
g65
S'0'
sbasbasbsg354
(i__main__
DelphiIdentAccess
p1605
(dp1606
g277
S'labelRects'
p1607
sg279
(lp1608
(idelphi
DelphiArrayEndAccess
p1609
(dp1610
g1111
(lp1611
(i__main__
DelphiIdentAccess
p1612
(dp1613
g277
S'i'
sg279
(lp1614
sbasbasbsbsba(idelphi
DelphiForStatement
p1615
(dp1616
g1086
S'i'
sg1087
(i__main__
DelphiIdentAccess
p1617
(dp1618
g277
S'kStatisticsPartTypeLast'
p1619
sg279
(lp1620
sbsg1092
g1093
sg47
(idelphi
DelphiIntegerValue
p1621
(dp1622
g65
S'0'
sbsg424
(idelphi
DelphiWithStatement
p1623
(dp1624
g424
(idelphi
DelphiCompoundStatement
p1625
(dp1626
g345
(lp1627
(i__main__
DelphiAssignStatement
p1628
(dp1629
g349
(i__main__
DelphiIdentAccess
p1630
(dp1631
g277
S'kLeftRightGap'
p1632
sg279
(lp1633
sbsg354
(i__main__
DelphiIdentAccess
p1634
(dp1635
g277
S'left'
p1636
sg279
(lp1637
sbsba(i__main__
DelphiAssignStatement
p1638
(dp1639
g349
(idelphi
DelphiAddOp
p1640
(dp1641
g1126
S'+'
sg1128
(i__main__
DelphiIdentAccess
p1642
(dp1643
g277
S'self'
p1644
sg279
(lp1645
(idelphi
DelphiFieldEndAccess
p1646
(dp1647
g1107
S'canvas'
p1648
sba(idelphi
DelphiFieldEndAccess
p1649
(dp1650
g1107
S'textWidth'
p1651
sba(idelphi
DelphiFunctionEndAccess
p1652
(dp1653
g1111
(lp1654
(i__main__
DelphiIdentAccess
p1655
(dp1656
g277
S'labelTexts'
p1657
sg279
(lp1658
(idelphi
DelphiArrayEndAccess
p1659
(dp1660
g1111
(lp1661
(i__main__
DelphiIdentAccess
p1662
(dp1663
g277
S'i'
sg279
(lp1664
sbasbasbasbasbsg1151
(i__main__
DelphiIdentAccess
p1665
(dp1666
g277
S'left'
p1667
sg279
(lp1668
sbsbsg354
(i__main__
DelphiIdentAccess
p1669
(dp1670
g277
S'right'
p1671
sg279
(lp1672
sbsba(idelphi
DelphiIfStatement
p1673
(dp1674
g415
(idelphi
DelphiRelOp
p1675
(dp1676
g1135
(idelphi
DelphiAddOp
p1677
(dp1678
g1126
S'-'
sg1128
(i__main__
DelphiIdentAccess
p1679
(dp1680
g277
S'left'
p1681
sg279
(lp1682
sbsg1151
(i__main__
DelphiIdentAccess
p1683
(dp1684
g277
S'right'
p1685
sg279
(lp1686
sbsbsg1147
(i__main__
DelphiIdentAccess
p1687
(dp1688
g277
S'maxLabelWidth'
p1689
sg279
(lp1690
sbsg1150
S'>'
sbsg431
Nsg444
(i__main__
DelphiAssignStatement
p1691
(dp1692
g349
(idelphi
DelphiAddOp
p1693
(dp1694
g1126
S'-'
sg1128
(i__main__
DelphiIdentAccess
p1695
(dp1696
g277
S'left'
p1697
sg279
(lp1698
sbsg1151
(i__main__
DelphiIdentAccess
p1699
(dp1700
g277
S'right'
p1701
sg279
(lp1702
sbsbsg354
(i__main__
DelphiIdentAccess
p1703
(dp1704
g277
S'maxLabelWidth'
p1705
sg279
(lp1706
sbsbsba(i__main__
DelphiAssignStatement
p1707
(dp1708
g349
(i__main__
DelphiIdentAccess
p1709
(dp1710
g277
S'topPos'
p1711
sg279
(lp1712
sbsg354
(i__main__
DelphiIdentAccess
p1713
(dp1714
g277
S'top'
p1715
sg279
(lp1716
sbsba(idelphi
DelphiIfStatement
p1717
(dp1718
g415
(idelphi
DelphiRelOp
p1719
(dp1720
g1135
(i__main__
DelphiIdentAccess
p1721
(dp1722
g277
S'labelTexts'
p1723
sg279
(lp1724
(idelphi
DelphiArrayEndAccess
p1725
(dp1726
g1111
(lp1727
(i__main__
DelphiIdentAccess
p1728
(dp1729
g277
S'i'
sg279
(lp1730
sbasbasbsg1147
(idelphi
DelphiStringAccess
p1731
(dp1732
g279
(lp1733
sg65
(idelphi
DelphiStringValue
p1734
(dp1735
g65
S''
sbsbsg1150
S'='
sbsg431
(i__main__
DelphiAssignStatement
p1736
(dp1737
g349
(idelphi
DelphiAddOp
p1738
(dp1739
g1126
S'+'
sg1128
(i__main__
DelphiIdentAccess
p1740
(dp1741
g277
S'self'
p1742
sg279
(lp1743
(idelphi
DelphiFieldEndAccess
p1744
(dp1745
g1107
S'textHeight'
p1746
sbasbsg1151
(i__main__
DelphiIdentAccess
p1747
(dp1748
g277
S'top'
p1749
sg279
(lp1750
sbsbsg354
(i__main__
DelphiIdentAccess
p1751
(dp1752
g277
S'bottom'
p1753
sg279
(lp1754
sbsbsg444
(i__main__
DelphiAssignStatement
p1755
(dp1756
g349
(i__main__
DelphiIdentAccess
p1757
(dp1758
g277
S'top'
p1759
sg279
(lp1760
sbsg354
(i__main__
DelphiIdentAccess
p1761
(dp1762
g277
S'bottom'
p1763
sg279
(lp1764
sbsbsba(i__main__
DelphiAssignStatement
p1765
(dp1766
g349
(idelphi
DelphiAddOp
p1767
(dp1768
g1126
S'+'
sg1128
(idelphi
DelphiNestedExpressionListAccess
p1769
(dp1770
g279
(lp1771
sg1111
(lp1772
(idelphi
DelphiAddOp
p1773
(dp1774
g1126
S'-'
sg1128
(i__main__
DelphiIdentAccess
p1775
(dp1776
g277
S'top'
p1777
sg279
(lp1778
sbsg1151
(i__main__
DelphiIdentAccess
p1779
(dp1780
g277
S'bottom'
p1781
sg279
(lp1782
sbsbasbsg1151
(i__main__
DelphiIdentAccess
p1783
(dp1784
g277
S'topPos'
p1785
sg279
(lp1786
sbsbsg354
(i__main__
DelphiIdentAccess
p1787
(dp1788
g277
S'topPos'
p1789
sg279
(lp1790
sbsba(idelphi
DelphiIfStatement
p1791
(dp1792
g415
(idelphi
DelphiRelOp
p1793
(dp1794
g1135
(idelphi
DelphiAddOp
p1795
(dp1796
g1126
S'-'
sg1128
(i__main__
DelphiIdentAccess
p1797
(dp1798
g277
S'left'
p1799
sg279
(lp1800
sbsg1151
(i__main__
DelphiIdentAccess
p1801
(dp1802
g277
S'right'
p1803
sg279
(lp1804
sbsbsg1147
(i__main__
DelphiIdentAccess
p1805
(dp1806
g277
S'maxLabelWidth'
p1807
sg279
(lp1808
sbsg1150
S'>'
sbsg431
Nsg444
(i__main__
DelphiAssignStatement
p1809
(dp1810
g349
(idelphi
DelphiAddOp
p1811
(dp1812
g1126
S'-'
sg1128
(i__main__
DelphiIdentAccess
p1813
(dp1814
g277
S'left'
p1815
sg279
(lp1816
sbsg1151
(i__main__
DelphiIdentAccess
p1817
(dp1818
g277
S'right'
p1819
sg279
(lp1820
sbsbsg354
(i__main__
DelphiIdentAccess
p1821
(dp1822
g277
S'maxLabelWidth'
p1823
sg279
(lp1824
sbsbsbasbsg1188
(lp1825
(i__main__
DelphiIdentAccess
p1826
(dp1827
g277
S'labelRects'
p1828
sg279
(lp1829
(idelphi
DelphiArrayEndAccess
p1830
(dp1831
g1111
(lp1832
(i__main__
DelphiIdentAccess
p1833
(dp1834
g277
S'i'
sg279
(lp1835
sbasbasbasbsba(idelphi
DelphiForStatement
p1836
(dp1837
g1086
S'i'
sg1087
(i__main__
DelphiIdentAccess
p1838
(dp1839
g277
S'kStatisticsPartTypeLast'
p1840
sg279
(lp1841
sbsg1092
g1093
sg47
(idelphi
DelphiIntegerValue
p1842
(dp1843
g65
S'0'
sbsg424
(i__main__
DelphiAssignStatement
p1844
(dp1845
g349
(idelphi
DelphiAddOp
p1846
(dp1847
g1126
S'+'
sg1128
(i__main__
DelphiIdentAccess
p1848
(dp1849
g277
S'maxLabelWidth'
p1850
sg279
(lp1851
sbsg1151
(i__main__
DelphiIdentAccess
p1852
(dp1853
g277
S'labelRects'
p1854
sg279
(lp1855
(idelphi
DelphiArrayEndAccess
p1856
(dp1857
g1111
(lp1858
(i__main__
DelphiIdentAccess
p1859
(dp1860
g277
S'i'
sg279
(lp1861
sbasba(idelphi
DelphiFieldEndAccess
p1862
(dp1863
g1107
S'left'
p1864
sbasbsbsg354
(i__main__
DelphiIdentAccess
p1865
(dp1866
g277
S'labelRects'
p1867
sg279
(lp1868
(idelphi
DelphiArrayEndAccess
p1869
(dp1870
g1111
(lp1871
(i__main__
DelphiIdentAccess
p1872
(dp1873
g277
S'i'
sg279
(lp1874
sbasba(idelphi
DelphiFieldEndAccess
p1875
(dp1876
g1107
S'right'
p1877
sbasbsg1355
(lp1878
S' set all label widths equal to largest, so can right-justify them '
p1879
asbsba(idelphi
DelphiWithStatement
p1880
(dp1881
g424
(idelphi
DelphiCompoundStatement
p1882
(dp1883
g345
(lp1884
(i__main__
DelphiAssignStatement
p1885
(dp1886
g349
(idelphi
DelphiAddOp
p1887
(dp1888
g1126
S'+'
sg1128
(i__main__
DelphiIdentAccess
p1889
(dp1890
g277
S'kBetweenGap'
p1891
sg279
(lp1892
sbsg1151
(idelphi
DelphiAddOp
p1893
(dp1894
g1126
S'+'
sg1128
(i__main__
DelphiIdentAccess
p1895
(dp1896
g277
S'maxLabelWidth'
p1897
sg279
(lp1898
sbsg1151
(i__main__
DelphiIdentAccess
p1899
(dp1900
g277
S'kLeftRightGap'
p1901
sg279
(lp1902
sbsbsbsg354
(i__main__
DelphiIdentAccess
p1903
(dp1904
g277
S'left'
p1905
sg279
(lp1906
sbsba(i__main__
DelphiAssignStatement
p1907
(dp1908
g349
(idelphi
DelphiAddOp
p1909
(dp1910
g1126
S'-'
sg1128
(i__main__
DelphiIdentAccess
p1911
(dp1912
g277
S'kLeftRightGap'
p1913
sg279
(lp1914
sbsg1151
(i__main__
DelphiIdentAccess
p1915
(dp1916
g277
S'fullRect'
p1917
sg279
(lp1918
(idelphi
DelphiFieldEndAccess
p1919
(dp1920
g1107
S'right'
p1921
sbasbsbsg354
(i__main__
DelphiIdentAccess
p1922
(dp1923
g277
S'right'
p1924
sg279
(lp1925
sbsba(i__main__
DelphiAssignStatement
p1926
(dp1927
g349
(idelphi
DelphiAddOp
p1928
(dp1929
g1126
S'+'
sg1128
(i__main__
DelphiIdentAccess
p1930
(dp1931
g277
S'kBetweenGap'
p1932
sg279
(lp1933
sbsg1151
(i__main__
DelphiIdentAccess
p1934
(dp1935
g277
S'percentRect'
p1936
sg279
(lp1937
(idelphi
DelphiFieldEndAccess
p1938
(dp1939
g1107
S'bottom'
p1940
sbasbsbsg354
(i__main__
DelphiIdentAccess
p1941
(dp1942
g277
S'top'
p1943
sg279
(lp1944
sbsba(i__main__
DelphiAssignStatement
p1945
(dp1946
g349
(idelphi
DelphiAddOp
p1947
(dp1948
g1126
S'-'
sg1128
(i__main__
DelphiIdentAccess
p1949
(dp1950
g277
S'kBetweenGap'
p1951
sg279
(lp1952
sbsg1151
(idelphi
DelphiAddOp
p1953
(dp1954
g1126
S'-'
sg1128
(i__main__
DelphiIdentAccess
p1955
(dp1956
g277
S'self'
p1957
sg279
(lp1958
(idelphi
DelphiFieldEndAccess
p1959
(dp1960
g1107
S'textHeight'
p1961
sbasbsg1151
(idelphi
DelphiAddOp
p1962
(dp1963
g1126
S'-'
sg1128
(i__main__
DelphiIdentAccess
p1964
(dp1965
g277
S'kTopBottomGap'
p1966
sg279
(lp1967
sbsg1151
(i__main__
DelphiIdentAccess
p1968
(dp1969
g277
S'fullRect'
p1970
sg279
(lp1971
(idelphi
DelphiFieldEndAccess
p1972
(dp1973
g1107
S'bottom'
p1974
sbasbsbsbsbsg354
(i__main__
DelphiIdentAccess
p1975
(dp1976
g277
S'bottom'
p1977
sg279
(lp1978
sbsbasbsg1188
(lp1979
(i__main__
DelphiIdentAccess
p1980
(dp1981
g277
S'graphRect'
p1982
sg279
(lp1983
sbasba(i__main__
DelphiAssignStatement
p1984
(dp1985
g349
(idelphi
DelphiStringAccess
p1986
(dp1987
g279
(lp1988
sg65
(idelphi
DelphiStringValue
p1989
(dp1990
g65
S'0'
sbsbsg354
(i__main__
DelphiIdentAccess
p1991
(dp1992
g277
S'minText'
p1993
sg279
(lp1994
sbsba(idelphi
DelphiWithStatement
p1995
(dp1996
g424
(idelphi
DelphiCompoundStatement
p1997
(dp1998
g345
(lp1999
(i__main__
DelphiAssignStatement
p2000
(dp2001
g349
(i__main__
DelphiIdentAccess
p2002
(dp2003
g277
S'graphRect'
p2004
sg279
(lp2005
(idelphi
DelphiFieldEndAccess
p2006
(dp2007
g1107
S'left'
p2008
sbasbsg354
(i__main__
DelphiIdentAccess
p2009
(dp2010
g277
S'left'
p2011
sg279
(lp2012
sbsba(i__main__
DelphiAssignStatement
p2013
(dp2014
g349
(idelphi
DelphiAddOp
p2015
(dp2016
g1126
S'+'
sg1128
(i__main__
DelphiIdentAccess
p2017
(dp2018
g277
S'self'
p2019
sg279
(lp2020
(idelphi
DelphiFieldEndAccess
p2021
(dp2022
g1107
S'canvas'
p2023
sba(idelphi
DelphiFieldEndAccess
p2024
(dp2025
g1107
S'textWidth'
p2026
sba(idelphi
DelphiFunctionEndAccess
p2027
(dp2028
g1111
(lp2029
(i__main__
DelphiIdentAccess
p2030
(dp2031
g277
S'minText'
p2032
sg279
(lp2033
sbasbasbsg1151
(i__main__
DelphiIdentAccess
p2034
(dp2035
g277
S'left'
p2036
sg279
(lp2037
sbsbsg354
(i__main__
DelphiIdentAccess
p2038
(dp2039
g277
S'right'
p2040
sg279
(lp2041
sbsba(i__main__
DelphiAssignStatement
p2042
(dp2043
g349
(i__main__
DelphiIdentAccess
p2044
(dp2045
g277
S'graphRect'
p2046
sg279
(lp2047
(idelphi
DelphiFieldEndAccess
p2048
(dp2049
g1107
S'bottom'
p2050
sbasbsg354
(i__main__
DelphiIdentAccess
p2051
(dp2052
g277
S'top'
p2053
sg279
(lp2054
sbsba(i__main__
DelphiAssignStatement
p2055
(dp2056
g349
(idelphi
DelphiAddOp
p2057
(dp2058
g1126
S'+'
sg1128
(i__main__
DelphiIdentAccess
p2059
(dp2060
g277
S'self'
p2061
sg279
(lp2062
(idelphi
DelphiFieldEndAccess
p2063
(dp2064
g1107
S'textHeight'
p2065
sbasbsg1151
(i__main__
DelphiIdentAccess
p2066
(dp2067
g277
S'top'
p2068
sg279
(lp2069
sbsbsg354
(i__main__
DelphiIdentAccess
p2070
(dp2071
g277
S'bottom'
p2072
sg279
(lp2073
sbsbasbsg1188
(lp2074
(i__main__
DelphiIdentAccess
p2075
(dp2076
g277
S'minRect'
p2077
sg279
(lp2078
sbasba(i__main__
DelphiAssignStatement
p2079
(dp2080
g349
(idelphi
DelphiStringAccess
p2081
(dp2082
g279
(lp2083
sg65
(idelphi
DelphiStringValue
p2084
(dp2085
g65
S'100 %'
p2086
sbsbsg354
(i__main__
DelphiIdentAccess
p2087
(dp2088
g277
S'maxText'
p2089
sg279
(lp2090
sbsba(i__main__
DelphiAssignStatement
p2091
(dp2092
g349
(i__main__
DelphiIdentAccess
p2093
(dp2094
g277
S'minRect'
p2095
sg279
(lp2096
sbsg354
(i__main__
DelphiIdentAccess
p2097
(dp2098
g277
S'maxRect'
p2099
sg279
(lp2100
sbsba(idelphi
DelphiWithStatement
p2101
(dp2102
g424
(idelphi
DelphiCompoundStatement
p2103
(dp2104
g345
(lp2105
(i__main__
DelphiAssignStatement
p2106
(dp2107
g349
(i__main__
DelphiIdentAccess
p2108
(dp2109
g277
S'graphRect'
p2110
sg279
(lp2111
(idelphi
DelphiFieldEndAccess
p2112
(dp2113
g1107
S'right'
p2114
sbasbsg354
(i__main__
DelphiIdentAccess
p2115
(dp2116
g277
S'right'
p2117
sg279
(lp2118
sbsba(i__main__
DelphiAssignStatement
p2119
(dp2120
g349
(idelphi
DelphiAddOp
p2121
(dp2122
g1126
S'-'
sg1128
(i__main__
DelphiIdentAccess
p2123
(dp2124
g277
S'self'
p2125
sg279
(lp2126
(idelphi
DelphiFieldEndAccess
p2127
(dp2128
g1107
S'canvas'
p2129
sba(idelphi
DelphiFieldEndAccess
p2130
(dp2131
g1107
S'textWidth'
p2132
sba(idelphi
DelphiFunctionEndAccess
p2133
(dp2134
g1111
(lp2135
(i__main__
DelphiIdentAccess
p2136
(dp2137
g277
S'maxText'
p2138
sg279
(lp2139
sbasbasbsg1151
(i__main__
DelphiIdentAccess
p2140
(dp2141
g277
S'right'
p2142
sg279
(lp2143
sbsbsg354
(i__main__
DelphiIdentAccess
p2144
(dp2145
g277
S'left'
p2146
sg279
(lp2147
sbsbasbsg1188
(lp2148
(i__main__
DelphiIdentAccess
p2149
(dp2150
g277
S'maxRect'
p2151
sg279
(lp2152
sbasba(idelphi
DelphiWithStatement
p2153
(dp2154
g424
(idelphi
DelphiCompoundStatement
p2155
(dp2156
g345
(lp2157
(i__main__
DelphiAssignStatement
p2158
(dp2159
g349
(i__main__
DelphiIdentAccess
p2160
(dp2161
g277
S'clBtnFace'
p2162
sg279
(lp2163
sbsg354
(i__main__
DelphiIdentAccess
p2164
(dp2165
g277
S'brush'
p2166
sg279
(lp2167
(idelphi
DelphiFieldEndAccess
p2168
(dp2169
g1107
S'color'
p2170
sbasbsba(i__main__
DelphiAssignStatement
p2171
(dp2172
g349
(i__main__
DelphiIdentAccess
p2173
(dp2174
g277
S'clBtnFace'
p2175
sg279
(lp2176
sbsg354
(i__main__
DelphiIdentAccess
p2177
(dp2178
g277
S'pen'
p2179
sg279
(lp2180
(idelphi
DelphiFieldEndAccess
p2181
(dp2182
g1107
S'color'
p2183
sbasbsg1355
(lp2184
S' v1.4\r'
p2185
asba(i__main__
DelphiAssignStatement
p2186
(dp2187
g349
Nsg354
(i__main__
DelphiIdentAccess
p2188
(dp2189
g277
S'rectangle'
p2190
sg279
(lp2191
(idelphi
DelphiFunctionEndAccess
p2192
(dp2193
g1111
(lp2194
(idelphi
DelphiIntegerValue
p2195
(dp2196
g65
S'0'
sba(idelphi
DelphiIntegerValue
p2197
(dp2198
g65
S'0'
sba(i__main__
DelphiIdentAccess
p2199
(dp2200
g277
S'drawBitmap'
p2201
sg279
(lp2202
(idelphi
DelphiFieldEndAccess
p2203
(dp2204
g1107
S'width'
p2205
sbasba(i__main__
DelphiIdentAccess
p2206
(dp2207
g277
S'drawBitmap'
p2208
sg279
(lp2209
(idelphi
DelphiFieldEndAccess
p2210
(dp2211
g1107
S'height'
p2212
sbasbasbasbsba(idelphi
DelphiForStatement
p2213
(dp2214
g1086
S'i'
sg1087
(i__main__
DelphiIdentAccess
p2215
(dp2216
g277
S'kStatisticsPartTypeLast'
p2217
sg279
(lp2218
sbsg1092
g1093
sg47
(idelphi
DelphiIntegerValue
p2219
(dp2220
g65
S'0'
sbsg424
(idelphi
DelphiIfStatement
p2221
(dp2222
g415
(idelphi
DelphiRelOp
p2223
(dp2224
g1135
(i__main__
DelphiIdentAccess
p2225
(dp2226
g277
S'labelRects'
p2227
sg279
(lp2228
(idelphi
DelphiArrayEndAccess
p2229
(dp2230
g1111
(lp2231
(i__main__
DelphiIdentAccess
p2232
(dp2233
g277
S'i'
sg279
(lp2234
sbasba(idelphi
DelphiFieldEndAccess
p2235
(dp2236
g1107
S'bottom'
p2237
sbasbsg1147
(i__main__
DelphiIdentAccess
p2238
(dp2239
g277
S'graphRect'
p2240
sg279
(lp2241
(idelphi
DelphiFieldEndAccess
p2242
(dp2243
g1107
S'bottom'
p2244
sbasbsg1150
S'<='
p2245
sbsg431
Nsg444
(idelphi
DelphiWithStatement
p2246
(dp2247
g424
(idelphi
DelphiCompoundStatement
p2248
(dp2249
g345
(lp2250
(i__main__
DelphiAssignStatement
p2251
(dp2252
g349
(i__main__
DelphiIdentAccess
p2253
(dp2254
g277
S'self'
p2255
sg279
(lp2256
(idelphi
DelphiFieldEndAccess
p2257
(dp2258
g1107
S'partTypeForIndex'
p2259
sba(idelphi
DelphiFunctionEndAccess
p2260
(dp2261
g1111
(lp2262
(i__main__
DelphiIdentAccess
p2263
(dp2264
g277
S'i'
sg279
(lp2265
sbasbasbsg354
(i__main__
DelphiIdentAccess
p2266
(dp2267
g277
S'partType'
p2268
sg279
(lp2269
sbsba(i__main__
DelphiAssignStatement
p2270
(dp2271
g349
(idelphi
DelphiAddOp
p2272
(dp2273
g1126
g1127
sg1128
(idelphi
DelphiNestedExpressionListAccess
p2274
(dp2275
g279
(lp2276
sg1111
(lp2277
(idelphi
DelphiRelOp
p2278
(dp2279
g1135
(i__main__
DelphiIdentAccess
p2280
(dp2281
g277
S'count'
p2282
sg279
(lp2283
(idelphi
DelphiArrayEndAccess
p2284
(dp2285
g1111
(lp2286
(i__main__
DelphiIdentAccess
p2287
(dp2288
g277
S'partType'
p2289
sg279
(lp2290
sbasbasbsg1147
(idelphi
DelphiIntegerValue
p2291
(dp2292
g65
S'0'
sbsg1150
S'>'
sbasbsg1151
(idelphi
DelphiNestedExpressionListAccess
p2293
(dp2294
g279
(lp2295
sg1111
(lp2296
(idelphi
DelphiRelOp
p2297
(dp2298
g1135
(idelphi
DelphiAddOp
p2299
(dp2300
g1126
S'+'
sg1128
(i__main__
DelphiIdentAccess
p2301
(dp2302
g277
S'deadBiomass_pctMPB'
p2303
sg279
(lp2304
(idelphi
DelphiArrayEndAccess
p2305
(dp2306
g1111
(lp2307
(i__main__
DelphiIdentAccess
p2308
(dp2309
g277
S'partType'
p2310
sg279
(lp2311
sbasbasbsg1151
(i__main__
DelphiIdentAccess
p2312
(dp2313
g277
S'liveBiomass_pctMPB'
p2314
sg279
(lp2315
(idelphi
DelphiArrayEndAccess
p2316
(dp2317
g1111
(lp2318
(i__main__
DelphiIdentAccess
p2319
(dp2320
g277
S'partType'
p2321
sg279
(lp2322
sbasbasbsbsg1147
(idelphi
DelphiIntegerValue
p2323
(dp2324
g65
S'0'
sbsg1150
S'>'
sbasbsbsg354
(i__main__
DelphiIdentAccess
p2325
(dp2326
g277
S'hasStuff'
p2327
sg279
(lp2328
sbsba(i__main__
DelphiAssignStatement
p2329
(dp2330
g349
Nsg354
(i__main__
DelphiIdentAccess
p2331
(dp2332
g277
S'self'
p2333
sg279
(lp2334
(idelphi
DelphiFieldEndAccess
p2335
(dp2336
g1107
S'drawTextLabel'
p2337
sba(idelphi
DelphiFunctionEndAccess
p2338
(dp2339
g1111
(lp2340
(i__main__
DelphiIdentAccess
p2341
(dp2342
g277
S'labelTexts'
p2343
sg279
(lp2344
(idelphi
DelphiArrayEndAccess
p2345
(dp2346
g1111
(lp2347
(i__main__
DelphiIdentAccess
p2348
(dp2349
g277
S'i'
sg279
(lp2350
sbasbasba(i__main__
DelphiIdentAccess
p2351
(dp2352
g277
S'labelRects'
p2353
sg279
(lp2354
(idelphi
DelphiArrayEndAccess
p2355
(dp2356
g1111
(lp2357
(i__main__
DelphiIdentAccess
p2358
(dp2359
g277
S'i'
sg279
(lp2360
sbasbasba(i__main__
DelphiIdentAccess
p2361
(dp2362
g277
S'hasStuff'
p2363
sg279
(lp2364
sba(i__main__
DelphiIdentAccess
p2365
(dp2366
g277
S'false'
p2367
sg279
(lp2368
sba(i__main__
DelphiIdentAccess
p2369
(dp2370
g277
S'false'
p2371
sg279
(lp2372
sbasbasbsbasbsg1188
(lp2373
(i__main__
DelphiIdentAccess
p2374
(dp2375
g277
S'statistics'
p2376
sg279
(lp2377
sbasbsbsba(idelphi
DelphiIfStatement
p2378
(dp2379
g415
(idelphi
DelphiRelOp
p2380
(dp2381
g1135
(i__main__
DelphiIdentAccess
p2382
(dp2383
g277
S'plant'
p2384
sg279
(lp2385
sbsg1147
(idelphi
DelphiNilValue
p2386
(dp2387
bsg1150
g1342
sbsg431
Nsg444
(i__main__
DelphiAssignStatement
p2388
(dp2389
g349
Nsg354
(i__main__
DelphiIdentAccess
p2390
(dp2391
g277
S'self'
p2392
sg279
(lp2393
(idelphi
DelphiFieldEndAccess
p2394
(dp2395
g1107
S'drawGraph'
p2396
sbasbsbsba(i__main__
DelphiAssignStatement
p2397
(dp2398
g349
(i__main__
DelphiIdentAccess
p2399
(dp2400
g277
S'bsClear'
p2401
sg279
(lp2402
sbsg354
(i__main__
DelphiIdentAccess
p2403
(dp2404
g277
S'brush'
p2405
sg279
(lp2406
(idelphi
DelphiFieldEndAccess
p2407
(dp2408
g1107
S'style'
p2409
sbasbsba(idelphi
DelphiIfStatement
p2410
(dp2411
g415
(idelphi
DelphiRelOp
p2412
(dp2413
g1135
(i__main__
DelphiIdentAccess
p2414
(dp2415
g277
S'plant'
p2416
sg279
(lp2417
sbsg1147
(idelphi
DelphiNilValue
p2418
(dp2419
bsg1150
g1342
sbsg431
(i__main__
DelphiAssignStatement
p2420
(dp2421
g349
(i__main__
DelphiIdentAccess
p2422
(dp2423
g277
S'clBtnFace'
p2424
sg279
(lp2425
sbsg354
(i__main__
DelphiIdentAccess
p2426
(dp2427
g277
S'pen'
p2428
sg279
(lp2429
(idelphi
DelphiFieldEndAccess
p2430
(dp2431
g1107
S'color'
p2432
sbasbsbsg444
(i__main__
DelphiAssignStatement
p2433
(dp2434
g349
(i__main__
DelphiIdentAccess
p2435
(dp2436
g277
S'clBtnText'
p2437
sg279
(lp2438
sbsg354
(i__main__
DelphiIdentAccess
p2439
(dp2440
g277
S'pen'
p2441
sg279
(lp2442
(idelphi
DelphiFieldEndAccess
p2443
(dp2444
g1107
S'color'
p2445
sbasbsbsba(i__main__
DelphiAssignStatement
p2446
(dp2447
g349
Nsg354
(i__main__
DelphiIdentAccess
p2448
(dp2449
g277
S'rectangle'
p2450
sg279
(lp2451
(idelphi
DelphiFunctionEndAccess
p2452
(dp2453
g1111
(lp2454
(i__main__
DelphiIdentAccess
p2455
(dp2456
g277
S'graphRect'
p2457
sg279
(lp2458
(idelphi
DelphiFieldEndAccess
p2459
(dp2460
g1107
S'left'
p2461
sbasba(i__main__
DelphiIdentAccess
p2462
(dp2463
g277
S'graphRect'
p2464
sg279
(lp2465
(idelphi
DelphiFieldEndAccess
p2466
(dp2467
g1107
S'top'
p2468
sbasba(i__main__
DelphiIdentAccess
p2469
(dp2470
g277
S'graphRect'
p2471
sg279
(lp2472
(idelphi
DelphiFieldEndAccess
p2473
(dp2474
g1107
S'right'
p2475
sbasba(i__main__
DelphiIdentAccess
p2476
(dp2477
g277
S'graphRect'
p2478
sg279
(lp2479
(idelphi
DelphiFieldEndAccess
p2480
(dp2481
g1107
S'bottom'
p2482
sbasbasbasbsba(i__main__
DelphiAssignStatement
p2483
(dp2484
g349
(idelphi
DelphiSetConstructor
p2485
(dp2486
g1447
(lp2487
(i__main__
DelphiIdentAccess
p2488
(dp2489
g277
S'fsBold'
p2490
sg279
(lp2491
sbasbsg354
(i__main__
DelphiIdentAccess
p2492
(dp2493
g277
S'self'
p2494
sg279
(lp2495
(idelphi
DelphiFieldEndAccess
p2496
(dp2497
g1107
S'canvas'
p2498
sba(idelphi
DelphiFieldEndAccess
p2499
(dp2500
g1107
S'font'
p2501
sba(idelphi
DelphiFieldEndAccess
p2502
(dp2503
g1107
S'style'
p2504
sbasbsg1355
(lp2505
S' v2.0 top label in bold\r'
p2506
asba(i__main__
DelphiAssignStatement
p2507
(dp2508
g349
Nsg354
(i__main__
DelphiIdentAccess
p2509
(dp2510
g277
S'self'
p2511
sg279
(lp2512
(idelphi
DelphiFieldEndAccess
p2513
(dp2514
g1107
S'drawTextLabel'
p2515
sba(idelphi
DelphiFunctionEndAccess
p2516
(dp2517
g1111
(lp2518
(i__main__
DelphiIdentAccess
p2519
(dp2520
g277
S'percentText'
p2521
sg279
(lp2522
sba(i__main__
DelphiIdentAccess
p2523
(dp2524
g277
S'percentRect'
p2525
sg279
(lp2526
sba(idelphi
DelphiNestedExpressionListAccess
p2527
(dp2528
g279
(lp2529
sg1111
(lp2530
(idelphi
DelphiRelOp
p2531
(dp2532
g1135
(i__main__
DelphiIdentAccess
p2533
(dp2534
g277
S'plant'
p2535
sg279
(lp2536
sbsg1147
(idelphi
DelphiNilValue
p2537
(dp2538
bsg1150
g1342
sbasba(i__main__
DelphiIdentAccess
p2539
(dp2540
g277
S'false'
p2541
sg279
(lp2542
sba(i__main__
DelphiIdentAccess
p2543
(dp2544
g277
S'false'
p2545
sg279
(lp2546
sbasbasbsba(i__main__
DelphiAssignStatement
p2547
(dp2548
g349
(idelphi
DelphiSetConstructor
p2549
(dp2550
g1447
(lp2551
sbsg354
(i__main__
DelphiIdentAccess
p2552
(dp2553
g277
S'self'
p2554
sg279
(lp2555
(idelphi
DelphiFieldEndAccess
p2556
(dp2557
g1107
S'canvas'
p2558
sba(idelphi
DelphiFieldEndAccess
p2559
(dp2560
g1107
S'font'
p2561
sba(idelphi
DelphiFieldEndAccess
p2562
(dp2563
g1107
S'style'
p2564
sbasbsba(idelphi
DelphiIfStatement
p2565
(dp2566
g415
(idelphi
DelphiRelOp
p2567
(dp2568
g1135
(i__main__
DelphiIdentAccess
p2569
(dp2570
g277
S'plant'
p2571
sg279
(lp2572
sbsg1147
(idelphi
DelphiNilValue
p2573
(dp2574
bsg1150
g1342
sbsg431
Nsg444
(idelphi
DelphiCompoundStatement
p2575
(dp2576
g345
(lp2577
(i__main__
DelphiAssignStatement
p2578
(dp2579
g349
Nsg354
(i__main__
DelphiIdentAccess
p2580
(dp2581
g277
S'self'
p2582
sg279
(lp2583
(idelphi
DelphiFieldEndAccess
p2584
(dp2585
g1107
S'drawTextLabel'
p2586
sba(idelphi
DelphiFunctionEndAccess
p2587
(dp2588
g1111
(lp2589
(i__main__
DelphiIdentAccess
p2590
(dp2591
g277
S'minText'
p2592
sg279
(lp2593
sba(i__main__
DelphiIdentAccess
p2594
(dp2595
g277
S'minRect'
p2596
sg279
(lp2597
sba(i__main__
DelphiIdentAccess
p2598
(dp2599
g277
S'true'
p2600
sg279
(lp2601
sba(i__main__
DelphiIdentAccess
p2602
(dp2603
g277
S'false'
p2604
sg279
(lp2605
sba(i__main__
DelphiIdentAccess
p2606
(dp2607
g277
S'false'
p2608
sg279
(lp2609
sbasbasbsba(i__main__
DelphiAssignStatement
p2610
(dp2611
g349
Nsg354
(i__main__
DelphiIdentAccess
p2612
(dp2613
g277
S'self'
p2614
sg279
(lp2615
(idelphi
DelphiFieldEndAccess
p2616
(dp2617
g1107
S'drawTextLabel'
p2618
sba(idelphi
DelphiFunctionEndAccess
p2619
(dp2620
g1111
(lp2621
(i__main__
DelphiIdentAccess
p2622
(dp2623
g277
S'maxText'
p2624
sg279
(lp2625
sba(i__main__
DelphiIdentAccess
p2626
(dp2627
g277
S'maxRect'
p2628
sg279
(lp2629
sba(i__main__
DelphiIdentAccess
p2630
(dp2631
g277
S'true'
p2632
sg279
(lp2633
sba(i__main__
DelphiIdentAccess
p2634
(dp2635
g277
S'false'
p2636
sg279
(lp2637
sba(i__main__
DelphiIdentAccess
p2638
(dp2639
g277
S'false'
p2640
sg279
(lp2641
sbasbasbsbasbsbasbsg1188
(lp2642
(i__main__
DelphiIdentAccess
p2643
(dp2644
g277
S'drawBitmap'
p2645
sg279
(lp2646
(idelphi
DelphiFieldEndAccess
p2647
(dp2648
g1107
S'canvas'
p2649
sbasbasba(idelphi
DelphiIfStatement
p2650
(dp2651
g415
(idelphi
DelphiRelOp
p2652
(dp2653
g1135
(i__main__
DelphiIdentAccess
p2654
(dp2655
g277
S'drawBitmap'
p2656
sg279
(lp2657
(idelphi
DelphiFieldEndAccess
p2658
(dp2659
g1107
S'width'
p2660
sbasbsg1147
(idelphi
DelphiIntegerValue
p2661
(dp2662
g65
S'0'
sbsg1150
S'>'
sbsg431
Nsg444
(i__main__
DelphiAssignStatement
p2663
(dp2664
g349
Nsg354
(i__main__
DelphiIdentAccess
p2665
(dp2666
g277
S'copyBitmapToCanvasWithGlobalPalette'
p2667
sg279
(lp2668
(idelphi
DelphiFunctionEndAccess
p2669
(dp2670
g1111
(lp2671
(i__main__
DelphiIdentAccess
p2672
(dp2673
g277
S'drawBitmap'
p2674
sg279
(lp2675
sba(i__main__
DelphiIdentAccess
p2676
(dp2677
g277
S'self'
p2678
sg279
(lp2679
(idelphi
DelphiFieldEndAccess
p2680
(dp2681
g1107
S'canvas'
p2682
sbasba(i__main__
DelphiIdentAccess
p2683
(dp2684
g277
S'rect'
p2685
sg279
(lp2686
(idelphi
DelphiFunctionEndAccess
p2687
(dp2688
g1111
(lp2689
(idelphi
DelphiIntegerValue
p2690
(dp2691
g65
S'0'
sba(idelphi
DelphiIntegerValue
p2692
(dp2693
g65
S'0'
sba(idelphi
DelphiIntegerValue
p2694
(dp2695
g65
S'0'
sba(idelphi
DelphiIntegerValue
p2696
(dp2697
g65
S'0'
sbasbasbasbasbsbsbasbsg359
(lp2698
(i__main__
DelphiVarSection
p2699
(dp2700
g1212
I0
sg1213
(lp2701
(idelphi
DelphiVarDecl
p2702
(dp2703
g1217
Nsg1218
(lp2704
S'fullRect'
p2705
aS'minRect'
p2706
aS'maxRect'
p2707
asg51
(i__main__
DelphiNamedType
p2708
(dp2709
g35
S'TRect'
p2710
sg120
g1
sg121
Nsbsba(idelphi
DelphiVarDecl
p2711
(dp2712
g1217
Nsg1218
(lp2713
S'minText'
p2714
aS'maxText'
p2715
asg51
(i__main__
DelphiPrimitiveType
p2716
(dp2717
g35
g65
sbsba(idelphi
DelphiVarDecl
p2718
(dp2719
g1217
Nsg1218
(lp2720
S'percentText'
p2721
asg51
(i__main__
DelphiPrimitiveType
p2722
(dp2723
g35
g65
sbsba(idelphi
DelphiVarDecl
p2724
(dp2725
g1217
Nsg1218
(lp2726
S'i'
aS'partType'
p2727
aS'topPos'
p2728
asg51
(i__main__
DelphiPrimitiveType
p2729
(dp2730
g35
g54
sbsba(idelphi
DelphiVarDecl
p2731
(dp2732
g1217
Nsg1218
(lp2733
S'labelTexts'
p2734
asg51
(i__main__
DelphiArrayType
p2735
(dp2736
g51
(i__main__
DelphiNamedType
p2737
(dp2738
g35
S'ansistring'
p2739
sg120
g1
sg121
Nsbsg270
(lp2740
(idelphi
DelphiSubrange
p2741
(dp2742
g274
(i__main__
DelphiIdentAccess
p2743
(dp2744
g277
S'kStatisticsPartTypeLast'
p2745
sg279
(lp2746
sbsg281
(idelphi
DelphiIntegerValue
p2747
(dp2748
g65
S'0'
sbsg21
S''
sbasbsba(idelphi
DelphiVarDecl
p2749
(dp2750
g1217
Nsg1218
(lp2751
S'hasStuff'
p2752
asg51
(i__main__
DelphiPrimitiveType
p2753
(dp2754
g35
g62
sbsbasbasbsbsS'updatecurrentvalue'
p2755
(i__main__
DelphiMethodImplementation
p2756
(dp2757
g323
g98
sg21
g100
sg29
(lp2758
sg325
(lp2759
sg327
(lp2760
sg329
(lp2761
g331
asg332
(dp2762
sg31
S'PdStatsPanel'
p2763
sg32
Nsg337
(lp2764
sg37
I0
sg38
g91
sg339
(i__main__
DelphiBlock
p2765
(dp2766
g342
(idelphi
DelphiCompoundStatement
p2767
(dp2768
g345
(lp2769
(i__main__
DelphiAssignStatement
p2770
(dp2771
g349
Nsg354
(i__main__
DelphiIdentAccess
p2772
(dp2773
g277
S'statistics'
p2774
sg279
(lp2775
(idelphi
DelphiFieldEndAccess
p2776
(dp2777
g1107
S'zeroAllFields'
p2778
sbasbsba(i__main__
DelphiAssignStatement
p2779
(dp2780
g349
(i__main__
DelphiIdentAccess
p2781
(dp2782
g277
S'false'
p2783
sg279
(lp2784
sbsg354
(i__main__
DelphiIdentAccess
p2785
(dp2786
g277
S'self'
p2787
sg279
(lp2788
(idelphi
DelphiFieldEndAccess
p2789
(dp2790
g1107
S'enabled'
p2791
sbasbsba(idelphi
DelphiIfStatement
p2792
(dp2793
g415
(idelphi
DelphiRelOp
p2794
(dp2795
g1135
(i__main__
DelphiIdentAccess
p2796
(dp2797
g277
S'plant'
p2798
sg279
(lp2799
sbsg1147
(idelphi
DelphiNilValue
p2800
(dp2801
bsg1150
S'='
sbsg431
Nsg444
(i__main__
DelphiExitStatement
p2802
(dp2803
S'proceduralOrMethodImplementation'
p2804
g2756
sbsba(i__main__
DelphiAssignStatement
p2805
(dp2806
g349
Nsg354
(i__main__
DelphiIdentAccess
p2807
(dp2808
g277
S'plant'
p2809
sg279
(lp2810
(idelphi
DelphiFieldEndAccess
p2811
(dp2812
g1107
S'getPlantStatistics'
p2813
sba(idelphi
DelphiFunctionEndAccess
p2814
(dp2815
g1111
(lp2816
(i__main__
DelphiIdentAccess
p2817
(dp2818
g277
S'statistics'
p2819
sg279
(lp2820
sbasbasbsba(i__main__
DelphiAssignStatement
p2821
(dp2822
g349
(i__main__
DelphiIdentAccess
p2823
(dp2824
g277
S'true'
p2825
sg279
(lp2826
sbsg354
(i__main__
DelphiIdentAccess
p2827
(dp2828
g277
S'self'
p2829
sg279
(lp2830
(idelphi
DelphiFieldEndAccess
p2831
(dp2832
g1107
S'enabled'
p2833
sbasbsba(i__main__
DelphiAssignStatement
p2834
(dp2835
g349
Nsg354
(i__main__
DelphiIdentAccess
p2836
(dp2837
g277
S'self'
p2838
sg279
(lp2839
(idelphi
DelphiFieldEndAccess
p2840
(dp2841
g1107
S'updateDisplay'
p2842
sbasbsbasbsg359
(lp2843
sbsbsS'drawbar'
p2844
(i__main__
DelphiMethodImplementation
p2845
(dp2846
g323
g74
sg21
g76
sg29
(lp2847
(i__main__
DelphiFormalParameter
p2848
(dp2849
g47
Nsg48
(lp2850
g81
asg51
(i__main__
DelphiPrimitiveType
p2851
(dp2852
g35
g36
sbsg55
Nsba(i__main__
DelphiFormalParameter
p2853
(dp2854
g47
Nsg48
(lp2855
S'amount_pctMPB'
p2856
asg51
(i__main__
DelphiPrimitiveType
p2857
(dp2858
g35
g90
sbsg55
Nsbasg325
(lp2859
sg327
(lp2860
sg329
(lp2861
g331
ag81
ag2856
asg332
(dp2862
g81
g2851
sg2856
g2857
ssg31
S'PdStatsPanel'
p2863
sg32
Nsg337
(lp2864
sg37
I0
sg38
g91
sg339
(i__main__
DelphiBlock
p2865
(dp2866
g342
(idelphi
DelphiCompoundStatement
p2867
(dp2868
g345
(lp2869
(i__main__
DelphiAssignStatement
p2870
(dp2871
g349
(idelphi
DelphiAddOp
p2872
(dp2873
g1126
S'+'
sg1128
(i__main__
DelphiIdentAccess
p2874
(dp2875
g277
S'round'
p2876
sg279
(lp2877
(idelphi
DelphiFunctionEndAccess
p2878
(dp2879
g1111
(lp2880
(idelphi
DelphiMulOp
p2881
(dp2882
S'signedFactor2'
p2883
(idelphi
DelphiNestedExpressionListAccess
p2884
(dp2885
g279
(lp2886
sg1111
(lp2887
(idelphi
DelphiAddOp
p2888
(dp2889
g1126
S'-'
sg1128
(i__main__
DelphiIdentAccess
p2890
(dp2891
g277
S'graphRect'
p2892
sg279
(lp2893
(idelphi
DelphiFieldEndAccess
p2894
(dp2895
g1107
S'left'
p2896
sbasbsg1151
(i__main__
DelphiIdentAccess
p2897
(dp2898
g277
S'graphRect'
p2899
sg279
(lp2900
(idelphi
DelphiFieldEndAccess
p2901
(dp2902
g1107
S'right'
p2903
sbasbsbasbsS'mulOp'
p2904
S'*'
sS'signedFactor1'
p2905
(idelphi
DelphiMulOp
p2906
(dp2907
g2883
(idelphi
DelphiRealValue
p2908
(dp2909
g65
S'100.0'
p2910
sbsg2904
S'/'
sg2905
(i__main__
DelphiIdentAccess
p2911
(dp2912
g277
S'amount_pctMPB'
p2913
sg279
(lp2914
sbsbsbasbasbsg1151
(i__main__
DelphiIdentAccess
p2915
(dp2916
g277
S'graphRect'
p2917
sg279
(lp2918
(idelphi
DelphiFieldEndAccess
p2919
(dp2920
g1107
S'left'
p2921
sbasbsbsg354
(i__main__
DelphiIdentAccess
p2922
(dp2923
g277
S'distance'
p2924
sg279
(lp2925
sbsba(i__main__
DelphiAssignStatement
p2926
(dp2927
g349
(i__main__
DelphiIdentAccess
p2928
(dp2929
g277
S'rect'
p2930
sg279
(lp2931
(idelphi
DelphiFunctionEndAccess
p2932
(dp2933
g1111
(lp2934
(i__main__
DelphiIdentAccess
p2935
(dp2936
g277
S'graphRect'
p2937
sg279
(lp2938
(idelphi
DelphiFieldEndAccess
p2939
(dp2940
g1107
S'left'
p2941
sbasba(i__main__
DelphiIdentAccess
p2942
(dp2943
g277
S'labelRects'
p2944
sg279
(lp2945
(idelphi
DelphiArrayEndAccess
p2946
(dp2947
g1111
(lp2948
(i__main__
DelphiIdentAccess
p2949
(dp2950
g277
g81
sg279
(lp2951
sbasba(idelphi
DelphiFieldEndAccess
p2952
(dp2953
g1107
S'top'
p2954
sbasba(i__main__
DelphiIdentAccess
p2955
(dp2956
g277
S'distance'
p2957
sg279
(lp2958
sba(i__main__
DelphiIdentAccess
p2959
(dp2960
g277
S'labelRects'
p2961
sg279
(lp2962
(idelphi
DelphiArrayEndAccess
p2963
(dp2964
g1111
(lp2965
(i__main__
DelphiIdentAccess
p2966
(dp2967
g277
g81
sg279
(lp2968
sbasba(idelphi
DelphiFieldEndAccess
p2969
(dp2970
g1107
S'bottom'
p2971
sbasbasbasbsg354
(i__main__
DelphiIdentAccess
p2972
(dp2973
g277
S'drawRect'
p2974
sg279
(lp2975
sbsba(idelphi
DelphiWithStatement
p2976
(dp2977
g424
(i__main__
DelphiAssignStatement
p2978
(dp2979
g349
Nsg354
(i__main__
DelphiIdentAccess
p2980
(dp2981
g277
S'drawBitmap'
p2982
sg279
(lp2983
(idelphi
DelphiFieldEndAccess
p2984
(dp2985
g1107
S'canvas'
p2986
sba(idelphi
DelphiFieldEndAccess
p2987
(dp2988
g1107
S'rectangle'
p2989
sba(idelphi
DelphiFunctionEndAccess
p2990
(dp2991
g1111
(lp2992
(i__main__
DelphiIdentAccess
p2993
(dp2994
g277
S'left'
p2995
sg279
(lp2996
sba(i__main__
DelphiIdentAccess
p2997
(dp2998
g277
S'top'
p2999
sg279
(lp3000
sba(i__main__
DelphiIdentAccess
p3001
(dp3002
g277
S'right'
p3003
sg279
(lp3004
sba(i__main__
DelphiIdentAccess
p3005
(dp3006
g277
S'bottom'
p3007
sg279
(lp3008
sbasbasbsbsg1188
(lp3009
(i__main__
DelphiIdentAccess
p3010
(dp3011
g277
S'drawRect'
p3012
sg279
(lp3013
sbasbasbsg359
(lp3014
(i__main__
DelphiVarSection
p3015
(dp3016
g1212
I0
sg1213
(lp3017
(idelphi
DelphiVarDecl
p3018
(dp3019
g1217
Nsg1218
(lp3020
S'distance'
p3021
asg51
(i__main__
DelphiPrimitiveType
p3022
(dp3023
g35
S'longint'
p3024
sbsba(idelphi
DelphiVarDecl
p3025
(dp3026
g1217
Nsg1218
(lp3027
S'drawRect'
p3028
asg51
(i__main__
DelphiNamedType
p3029
(dp3030
g35
S'TRect'
p3031
sg120
g1
sg121
NsbsbasbasbsbsS'create'
p3032
(i__main__
DelphiMethodImplementation
p3033
(dp3034
g323
g109
sg21
g111
sg29
(lp3035
(i__main__
DelphiFormalParameter
p3036
(dp3037
g47
Nsg48
(lp3038
S'anOwner'
p3039
asg51
(i__main__
DelphiNamedType
p3040
(dp3041
g35
S'TComponent'
p3042
sg120
g1
sg121
Nsbsg55
Nsbasg325
(lp3043
sg327
(lp3044
sg329
(lp3045
g331
ag3039
asg332
(dp3046
g3039
g3040
ssg31
S'PdStatsPanel'
p3047
sg32
Nsg337
(lp3048
sg37
I0
sg38
g122
sg339
(i__main__
DelphiBlock
p3049
(dp3050
g342
(idelphi
DelphiCompoundStatement
p3051
(dp3052
g345
(lp3053
(i__main__
DelphiAssignStatement
p3054
(dp3055
g349
Nsg354
(idelphi
DelphiInheritedCall
p3056
(dp3057
g277
S'create'
p3058
sg1111
(lp3059
(i__main__
DelphiIdentAccess
p3060
(dp3061
g277
S'anOwner'
p3062
sg279
(lp3063
sbasbsba(i__main__
DelphiAssignStatement
p3064
(dp3065
g349
(idelphi
DelphiNilValue
p3066
(dp3067
bsg354
(i__main__
DelphiIdentAccess
p3068
(dp3069
g277
S'self'
p3070
sg279
(lp3071
(idelphi
DelphiFieldEndAccess
p3072
(dp3073
g1107
S'plant'
p3074
sbasbsba(i__main__
DelphiAssignStatement
p3075
(dp3076
g349
(idelphi
DelphiNilValue
p3077
(dp3078
bsg354
(i__main__
DelphiIdentAccess
p3079
(dp3080
g277
S'self'
p3081
sg279
(lp3082
(idelphi
DelphiFieldEndAccess
p3083
(dp3084
g1107
S'popupMenu'
p3085
sbasbsba(i__main__
DelphiAssignStatement
p3086
(dp3087
g349
(i__main__
DelphiIdentAccess
p3088
(dp3089
g277
S'TBitmap'
p3090
sg279
(lp3091
(idelphi
DelphiFieldEndAccess
p3092
(dp3093
g1107
S'create'
p3094
sbasbsg354
(i__main__
DelphiIdentAccess
p3095
(dp3096
g277
S'drawBitmap'
p3097
sg279
(lp3098
sbsba(i__main__
DelphiAssignStatement
p3099
(dp3100
g349
(i__main__
DelphiIdentAccess
p3101
(dp3102
g277
S'PdPlantStatistics'
p3103
sg279
(lp3104
(idelphi
DelphiFieldEndAccess
p3105
(dp3106
g1107
S'create'
p3107
sbasbsg354
(i__main__
DelphiIdentAccess
p3108
(dp3109
g277
S'statistics'
p3110
sg279
(lp3111
sbsba(i__main__
DelphiAssignStatement
p3112
(dp3113
g349
(i__main__
DelphiIdentAccess
p3114
(dp3115
g277
S'true'
p3116
sg279
(lp3117
sbsg354
(i__main__
DelphiIdentAccess
p3118
(dp3119
g277
S'self'
p3120
sg279
(lp3121
(idelphi
DelphiFieldEndAccess
p3122
(dp3123
g1107
S'parentFont'
p3124
sbasbsba(i__main__
DelphiAssignStatement
p3125
(dp3126
g349
(i__main__
DelphiIdentAccess
p3127
(dp3128
g277
S'self'
p3129
sg279
(lp3130
(idelphi
DelphiFieldEndAccess
p3131
(dp3132
g1107
S'doMouseUp'
p3133
sbasbsg354
(i__main__
DelphiIdentAccess
p3134
(dp3135
g277
S'self'
p3136
sg279
(lp3137
(idelphi
DelphiFieldEndAccess
p3138
(dp3139
g1107
S'onMouseUp'
p3140
sbasbsba(i__main__
DelphiAssignStatement
p3141
(dp3142
g349
(i__main__
DelphiIdentAccess
p3143
(dp3144
g277
S'self'
p3145
sg279
(lp3146
(idelphi
DelphiFieldEndAccess
p3147
(dp3148
g1107
S'doKeyDown'
p3149
sbasbsg354
(i__main__
DelphiIdentAccess
p3150
(dp3151
g277
S'self'
p3152
sg279
(lp3153
(idelphi
DelphiFieldEndAccess
p3154
(dp3155
g1107
S'onKeyDown'
p3156
sbasbsba(i__main__
DelphiAssignStatement
p3157
(dp3158
g349
(i__main__
DelphiIdentAccess
p3159
(dp3160
g277
S'true'
p3161
sg279
(lp3162
sbsg354
(i__main__
DelphiIdentAccess
p3163
(dp3164
g277
S'self'
p3165
sg279
(lp3166
(idelphi
DelphiFieldEndAccess
p3167
(dp3168
g1107
S'tabStop'
p3169
sbasbsba(i__main__
DelphiAssignStatement
p3170
(dp3171
g349
(i__main__
DelphiIdentAccess
p3172
(dp3173
g277
S'true'
p3174
sg279
(lp3175
sbsg354
(i__main__
DelphiIdentAccess
p3176
(dp3177
g277
S'self'
p3178
sg279
(lp3179
(idelphi
DelphiFieldEndAccess
p3180
(dp3181
g1107
S'enabled'
p3182
sbasbsba(i__main__
DelphiAssignStatement
p3183
(dp3184
g349
(i__main__
DelphiIdentAccess
p3185
(dp3186
g277
S'kItemNone'
p3187
sg279
(lp3188
sbsg354
(i__main__
DelphiIdentAccess
p3189
(dp3190
g277
S'self'
p3191
sg279
(lp3192
(idelphi
DelphiFieldEndAccess
p3193
(dp3194
g1107
S'selectedItemIndex'
p3195
sbasbsba(i__main__
DelphiAssignStatement
p3196
(dp3197
g349
(i__main__
DelphiIdentAccess
p3198
(dp3199
g277
S'bvNone'
p3200
sg279
(lp3201
sbsg354
(i__main__
DelphiIdentAccess
p3202
(dp3203
g277
S'self'
p3204
sg279
(lp3205
(idelphi
DelphiFieldEndAccess
p3206
(dp3207
g1107
S'bevelInner'
p3208
sbasbsba(i__main__
DelphiAssignStatement
p3209
(dp3210
g349
(i__main__
DelphiIdentAccess
p3211
(dp3212
g277
S'bvNone'
p3213
sg279
(lp3214
sbsg354
(i__main__
DelphiIdentAccess
p3215
(dp3216
g277
S'self'
p3217
sg279
(lp3218
(idelphi
DelphiFieldEndAccess
p3219
(dp3220
g1107
S'bevelOuter'
p3221
sbasbsba(i__main__
DelphiAssignStatement
p3222
(dp3223
g349
Nsg354
(i__main__
DelphiIdentAccess
p3224
(dp3225
g277
S'self'
p3226
sg279
(lp3227
(idelphi
DelphiFieldEndAccess
p3228
(dp3229
g1107
S'updateHint'
p3230
sbasbsbasbsg359
(lp3231
sbsbsS'drawgraph'
p3232
(i__main__
DelphiMethodImplementation
p3233
(dp3234
g323
g124
sg21
g126
sg29
(lp3235
sg325
(lp3236
sg327
(lp3237
sg329
(lp3238
g331
asg332
(dp3239
sg31
S'PdStatsPanel'
p3240
sg32
Nsg337
(lp3241
sg37
I0
sg38
g91
sg339
(i__main__
DelphiBlock
p3242
(dp3243
g342
(idelphi
DelphiCompoundStatement
p3244
(dp3245
g345
(lp3246
(idelphi
DelphiWithStatement
p3247
(dp3248
g424
(idelphi
DelphiCompoundStatement
p3249
(dp3250
g345
(lp3251
(i__main__
DelphiAssignStatement
p3252
(dp3253
g349
(i__main__
DelphiIdentAccess
p3254
(dp3255
g277
S'bsSolid'
p3256
sg279
(lp3257
sbsg354
(i__main__
DelphiIdentAccess
p3258
(dp3259
g277
S'brush'
p3260
sg279
(lp3261
(idelphi
DelphiFieldEndAccess
p3262
(dp3263
g1107
S'style'
p3264
sbasbsba(i__main__
DelphiAssignStatement
p3265
(dp3266
g349
(i__main__
DelphiIdentAccess
p3267
(dp3268
g277
S'clBlack'
p3269
sg279
(lp3270
sbsg354
(i__main__
DelphiIdentAccess
p3271
(dp3272
g277
S'pen'
p3273
sg279
(lp3274
(idelphi
DelphiFieldEndAccess
p3275
(dp3276
g1107
S'color'
p3277
sbasbsba(i__main__
DelphiAssignStatement
p3278
(dp3279
g349
(idelphi
DelphiIntegerValue
p3280
(dp3281
g65
S'1'
sbsg354
(i__main__
DelphiIdentAccess
p3282
(dp3283
g277
S'pen'
p3284
sg279
(lp3285
(idelphi
DelphiFieldEndAccess
p3286
(dp3287
g1107
S'width'
p3288
sbasbsba(i__main__
DelphiAssignStatement
p3289
(dp3290
g349
(i__main__
DelphiIdentAccess
p3291
(dp3292
g277
S'psSolid'
p3293
sg279
(lp3294
sbsg354
(i__main__
DelphiIdentAccess
p3295
(dp3296
g277
S'pen'
p3297
sg279
(lp3298
(idelphi
DelphiFieldEndAccess
p3299
(dp3300
g1107
S'style'
p3301
sbasbsba(idelphi
DelphiForStatement
p3302
(dp3303
g1086
S'i'
sg1087
(i__main__
DelphiIdentAccess
p3304
(dp3305
g277
S'kStatisticsPartTypeLast'
p3306
sg279
(lp3307
sbsg1092
g1093
sg47
(idelphi
DelphiIntegerValue
p3308
(dp3309
g65
S'0'
sbsg424
(idelphi
DelphiIfStatement
p3310
(dp3311
g415
(idelphi
DelphiRelOp
p3312
(dp3313
g1135
(i__main__
DelphiIdentAccess
p3314
(dp3315
g277
S'labelRects'
p3316
sg279
(lp3317
(idelphi
DelphiArrayEndAccess
p3318
(dp3319
g1111
(lp3320
(i__main__
DelphiIdentAccess
p3321
(dp3322
g277
S'i'
sg279
(lp3323
sbasba(idelphi
DelphiFieldEndAccess
p3324
(dp3325
g1107
S'bottom'
p3326
sbasbsg1147
(i__main__
DelphiIdentAccess
p3327
(dp3328
g277
S'graphRect'
p3329
sg279
(lp3330
(idelphi
DelphiFieldEndAccess
p3331
(dp3332
g1107
S'bottom'
p3333
sbasbsg1150
g2245
sbsg431
Nsg444
(idelphi
DelphiCompoundStatement
p3334
(dp3335
g345
(lp3336
(i__main__
DelphiAssignStatement
p3337
(dp3338
g349
(i__main__
DelphiIdentAccess
p3339
(dp3340
g277
S'self'
p3341
sg279
(lp3342
(idelphi
DelphiFieldEndAccess
p3343
(dp3344
g1107
S'partTypeForIndex'
p3345
sba(idelphi
DelphiFunctionEndAccess
p3346
(dp3347
g1111
(lp3348
(i__main__
DelphiIdentAccess
p3349
(dp3350
g277
S'i'
sg279
(lp3351
sbasbasbsg354
(i__main__
DelphiIdentAccess
p3352
(dp3353
g277
S'partType'
p3354
sg279
(lp3355
sbsba(i__main__
DelphiAssignStatement
p3356
(dp3357
g349
(i__main__
DelphiIdentAccess
p3358
(dp3359
g277
S'clBlack'
p3360
sg279
(lp3361
sbsg354
(i__main__
DelphiIdentAccess
p3362
(dp3363
g277
S'brush'
p3364
sg279
(lp3365
(idelphi
DelphiFieldEndAccess
p3366
(dp3367
g1107
S'color'
p3368
sbasbsg1355
(lp3369
S' first draw all biomass '
p3370
asba(i__main__
DelphiAssignStatement
p3371
(dp3372
g349
Nsg354
(i__main__
DelphiIdentAccess
p3373
(dp3374
g277
S'self'
p3375
sg279
(lp3376
(idelphi
DelphiFieldEndAccess
p3377
(dp3378
g1107
S'drawBar'
p3379
sba(idelphi
DelphiFunctionEndAccess
p3380
(dp3381
g1111
(lp3382
(i__main__
DelphiIdentAccess
p3383
(dp3384
g277
S'i'
sg279
(lp3385
sba(i__main__
DelphiIdentAccess
p3386
(dp3387
g277
S'self'
p3388
sg279
(lp3389
(idelphi
DelphiFieldEndAccess
p3390
(dp3391
g1107
S'displayPercentForPartType'
p3392
sba(idelphi
DelphiFunctionEndAccess
p3393
(dp3394
g1111
(lp3395
(i__main__
DelphiIdentAccess
p3396
(dp3397
g277
S'partType'
p3398
sg279
(lp3399
sba(i__main__
DelphiIdentAccess
p3400
(dp3401
g277
S'kDead'
p3402
sg279
(lp3403
sbasbasbasbasbsba(i__main__
DelphiAssignStatement
p3404
(dp3405
g349
(i__main__
DelphiIdentAccess
p3406
(dp3407
g277
S'clLime'
p3408
sg279
(lp3409
sbsg354
(i__main__
DelphiIdentAccess
p3410
(dp3411
g277
S'brush'
p3412
sg279
(lp3413
(idelphi
DelphiFieldEndAccess
p3414
(dp3415
g1107
S'color'
p3416
sbasbsg1355
(lp3417
S' next draw only live biomass '
p3418
asba(i__main__
DelphiAssignStatement
p3419
(dp3420
g349
Nsg354
(i__main__
DelphiIdentAccess
p3421
(dp3422
g277
S'self'
p3423
sg279
(lp3424
(idelphi
DelphiFieldEndAccess
p3425
(dp3426
g1107
S'drawBar'
p3427
sba(idelphi
DelphiFunctionEndAccess
p3428
(dp3429
g1111
(lp3430
(i__main__
DelphiIdentAccess
p3431
(dp3432
g277
S'i'
sg279
(lp3433
sba(i__main__
DelphiIdentAccess
p3434
(dp3435
g277
S'displayPercentForPartType'
p3436
sg279
(lp3437
(idelphi
DelphiFunctionEndAccess
p3438
(dp3439
g1111
(lp3440
(i__main__
DelphiIdentAccess
p3441
(dp3442
g277
S'partType'
p3443
sg279
(lp3444
sba(i__main__
DelphiIdentAccess
p3445
(dp3446
g277
S'kLive'
p3447
sg279
(lp3448
sbasbasbasbasbsbasbsbsba(i__main__
DelphiAssignStatement
p3449
(dp3450
g349
(i__main__
DelphiIdentAccess
p3451
(dp3452
g277
S'bsClear'
p3453
sg279
(lp3454
sbsg354
(i__main__
DelphiIdentAccess
p3455
(dp3456
g277
S'brush'
p3457
sg279
(lp3458
(idelphi
DelphiFieldEndAccess
p3459
(dp3460
g1107
S'style'
p3461
sbasbsbasbsg1188
(lp3462
(i__main__
DelphiIdentAccess
p3463
(dp3464
g277
S'drawBitmap'
p3465
sg279
(lp3466
(idelphi
DelphiFieldEndAccess
p3467
(dp3468
g1107
S'canvas'
p3469
sbasbasbasbsg359
(lp3470
(i__main__
DelphiVarSection
p3471
(dp3472
g1212
I0
sg1213
(lp3473
(idelphi
DelphiVarDecl
p3474
(dp3475
g1217
Nsg1218
(lp3476
S'i'
aS'partType'
p3477
asg51
(i__main__
DelphiPrimitiveType
p3478
(dp3479
g35
g3024
sbsbasbasbsbsS'parttypeforindex'
p3480
(i__main__
DelphiMethodImplementation
p3481
(dp3482
g323
g129
sg21
g131
sg29
(lp3483
(i__main__
DelphiFormalParameter
p3484
(dp3485
g47
Nsg48
(lp3486
S'partType'
p3487
asg51
(i__main__
DelphiPrimitiveType
p3488
(dp3489
g35
g54
sbsg55
Nsbasg325
(lp3490
sg327
(lp3491
sg329
(lp3492
g331
ag3487
asg332
(dp3493
g3487
g3488
ssg31
S'PdStatsPanel'
p3494
sg32
(i__main__
DelphiPrimitiveType
p3495
(dp3496
g35
g54
sbsg337
(lp3497
sg37
I0
sg38
g39
sg339
(i__main__
DelphiBlock
p3498
(dp3499
g342
(idelphi
DelphiCompoundStatement
p3500
(dp3501
g345
(lp3502
(i__main__
DelphiAssignStatement
p3503
(dp3504
g349
(idelphi
DelphiSign
p3505
(dp3506
S'factor'
p3507
(idelphi
DelphiIntegerValue
p3508
(dp3509
g65
S'1'
sbsS'sign'
p3510
S'-'
sbsg354
(i__main__
DelphiIdentAccess
p3511
(dp3512
g277
S'result'
p3513
sg279
(lp3514
sbsba(idelphi
DelphiCaseStatement
p3515
(dp3516
g403
(i__main__
DelphiAssignStatement
p3517
(dp3518
g349
(idelphi
DelphiIntegerValue
p3519
(dp3520
g65
S'0'
sbsg354
(i__main__
DelphiIdentAccess
p3521
(dp3522
g277
S'result'
p3523
sg279
(lp3524
sbsg1355
(lp3525
S' called by paint method, so do not raise exception '
p3526
asbsg415
(i__main__
DelphiIdentAccess
p3527
(dp3528
g277
S'partType'
p3529
sg279
(lp3530
sbsg420
(lp3531
(idelphi
DelphiCaseSelector
p3532
(dp3533
g424
(i__main__
DelphiAssignStatement
p3534
(dp3535
g349
(i__main__
DelphiIdentAccess
p3536
(dp3537
g277
S'kStatisticsPartTypeAllVegetative'
p3538
sg279
(lp3539
sbsg354
(i__main__
DelphiIdentAccess
p3540
(dp3541
g277
S'result'
p3542
sg279
(lp3543
sbsbsg457
(lp3544
(idelphi
DelphiIntegerValue
p3545
(dp3546
g65
S'0'
sbasba(idelphi
DelphiCaseSelector
p3547
(dp3548
g424
(i__main__
DelphiAssignStatement
p3549
(dp3550
g349
(i__main__
DelphiIdentAccess
p3551
(dp3552
g277
S'kStatisticsPartTypeAllReproductive'
p3553
sg279
(lp3554
sbsg354
(i__main__
DelphiIdentAccess
p3555
(dp3556
g277
S'result'
p3557
sg279
(lp3558
sbsbsg457
(lp3559
(idelphi
DelphiIntegerValue
p3560
(dp3561
g65
S'1'
sbasba(idelphi
DelphiCaseSelector
p3562
(dp3563
g424
(i__main__
DelphiAssignStatement
p3564
(dp3565
g349
(i__main__
DelphiIdentAccess
p3566
(dp3567
g277
S'kStatisticsPartTypeAxillaryBud'
p3568
sg279
(lp3569
sbsg354
(i__main__
DelphiIdentAccess
p3570
(dp3571
g277
S'result'
p3572
sg279
(lp3573
sbsbsg457
(lp3574
(idelphi
DelphiIntegerValue
p3575
(dp3576
g65
S'2'
sbasba(idelphi
DelphiCaseSelector
p3577
(dp3578
g424
(i__main__
DelphiAssignStatement
p3579
(dp3580
g349
(i__main__
DelphiIdentAccess
p3581
(dp3582
g277
S'kStatisticsPartTypeStem'
p3583
sg279
(lp3584
sbsg354
(i__main__
DelphiIdentAccess
p3585
(dp3586
g277
S'result'
p3587
sg279
(lp3588
sbsbsg457
(lp3589
(idelphi
DelphiIntegerValue
p3590
(dp3591
g65
S'3'
sbasba(idelphi
DelphiCaseSelector
p3592
(dp3593
g424
(i__main__
DelphiAssignStatement
p3594
(dp3595
g349
(i__main__
DelphiIdentAccess
p3596
(dp3597
g277
S'kStatisticsPartTypeSeedlingLeaf'
p3598
sg279
(lp3599
sbsg354
(i__main__
DelphiIdentAccess
p3600
(dp3601
g277
S'result'
p3602
sg279
(lp3603
sbsbsg457
(lp3604
(idelphi
DelphiIntegerValue
p3605
(dp3606
g65
S'4'
sbasba(idelphi
DelphiCaseSelector
p3607
(dp3608
g424
(i__main__
DelphiAssignStatement
p3609
(dp3610
g349
(i__main__
DelphiIdentAccess
p3611
(dp3612
g277
S'kStatisticsPartTypeLeaf'
p3613
sg279
(lp3614
sbsg354
(i__main__
DelphiIdentAccess
p3615
(dp3616
g277
S'result'
p3617
sg279
(lp3618
sbsbsg457
(lp3619
(idelphi
DelphiIntegerValue
p3620
(dp3621
g65
S'5'
sbasba(idelphi
DelphiCaseSelector
p3622
(dp3623
g424
(i__main__
DelphiAssignStatement
p3624
(dp3625
g349
(i__main__
DelphiIdentAccess
p3626
(dp3627
g277
S'kStatisticsPartTypeFemaleInflorescence'
p3628
sg279
(lp3629
sbsg354
(i__main__
DelphiIdentAccess
p3630
(dp3631
g277
S'result'
p3632
sg279
(lp3633
sbsbsg457
(lp3634
(idelphi
DelphiIntegerValue
p3635
(dp3636
g65
S'6'
sbasba(idelphi
DelphiCaseSelector
p3637
(dp3638
g424
(i__main__
DelphiAssignStatement
p3639
(dp3640
g349
(i__main__
DelphiIdentAccess
p3641
(dp3642
g277
S'kStatisticsPartTypeFemaleFlowerBud'
p3643
sg279
(lp3644
sbsg354
(i__main__
DelphiIdentAccess
p3645
(dp3646
g277
S'result'
p3647
sg279
(lp3648
sbsbsg457
(lp3649
(idelphi
DelphiIntegerValue
p3650
(dp3651
g65
S'7'
sbasba(idelphi
DelphiCaseSelector
p3652
(dp3653
g424
(i__main__
DelphiAssignStatement
p3654
(dp3655
g349
(i__main__
DelphiIdentAccess
p3656
(dp3657
g277
S'kStatisticsPartTypeFemaleFlower'
p3658
sg279
(lp3659
sbsg354
(i__main__
DelphiIdentAccess
p3660
(dp3661
g277
S'result'
p3662
sg279
(lp3663
sbsbsg457
(lp3664
(idelphi
DelphiIntegerValue
p3665
(dp3666
g65
S'8'
sbasba(idelphi
DelphiCaseSelector
p3667
(dp3668
g424
(i__main__
DelphiAssignStatement
p3669
(dp3670
g349
(i__main__
DelphiIdentAccess
p3671
(dp3672
g277
S'kStatisticsPartTypeMaleInflorescence'
p3673
sg279
(lp3674
sbsg354
(i__main__
DelphiIdentAccess
p3675
(dp3676
g277
S'result'
p3677
sg279
(lp3678
sbsbsg457
(lp3679
(idelphi
DelphiIntegerValue
p3680
(dp3681
g65
S'9'
sbasba(idelphi
DelphiCaseSelector
p3682
(dp3683
g424
(i__main__
DelphiAssignStatement
p3684
(dp3685
g349
(i__main__
DelphiIdentAccess
p3686
(dp3687
g277
S'kStatisticsPartTypeMaleFlowerBud'
p3688
sg279
(lp3689
sbsg354
(i__main__
DelphiIdentAccess
p3690
(dp3691
g277
S'result'
p3692
sg279
(lp3693
sbsbsg457
(lp3694
(idelphi
DelphiIntegerValue
p3695
(dp3696
g65
S'10'
p3697
sbasba(idelphi
DelphiCaseSelector
p3698
(dp3699
g424
(i__main__
DelphiAssignStatement
p3700
(dp3701
g349
(i__main__
DelphiIdentAccess
p3702
(dp3703
g277
S'kStatisticsPartTypeMaleFlower'
p3704
sg279
(lp3705
sbsg354
(i__main__
DelphiIdentAccess
p3706
(dp3707
g277
S'result'
p3708
sg279
(lp3709
sbsbsg457
(lp3710
(idelphi
DelphiIntegerValue
p3711
(dp3712
g65
S'11'
p3713
sbasba(idelphi
DelphiCaseSelector
p3714
(dp3715
g424
(i__main__
DelphiAssignStatement
p3716
(dp3717
g349
(i__main__
DelphiIdentAccess
p3718
(dp3719
g277
S'kStatisticsPartTypeFallenFlower'
p3720
sg279
(lp3721
sbsg354
(i__main__
DelphiIdentAccess
p3722
(dp3723
g277
S'result'
p3724
sg279
(lp3725
sbsbsg457
(lp3726
(idelphi
DelphiIntegerValue
p3727
(dp3728
g65
S'12'
p3729
sbasba(idelphi
DelphiCaseSelector
p3730
(dp3731
g424
(i__main__
DelphiAssignStatement
p3732
(dp3733
g349
(i__main__
DelphiIdentAccess
p3734
(dp3735
g277
S'kStatisticsPartTypeUnripeFruit'
p3736
sg279
(lp3737
sbsg354
(i__main__
DelphiIdentAccess
p3738
(dp3739
g277
S'result'
p3740
sg279
(lp3741
sbsbsg457
(lp3742
(idelphi
DelphiIntegerValue
p3743
(dp3744
g65
S'13'
p3745
sbasba(idelphi
DelphiCaseSelector
p3746
(dp3747
g424
(i__main__
DelphiAssignStatement
p3748
(dp3749
g349
(i__main__
DelphiIdentAccess
p3750
(dp3751
g277
S'kStatisticsPartTypeFruit'
p3752
sg279
(lp3753
sbsg354
(i__main__
DelphiIdentAccess
p3754
(dp3755
g277
S'result'
p3756
sg279
(lp3757
sbsbsg457
(lp3758
(idelphi
DelphiIntegerValue
p3759
(dp3760
g65
S'14'
p3761
sbasba(idelphi
DelphiCaseSelector
p3762
(dp3763
g424
(i__main__
DelphiAssignStatement
p3764
(dp3765
g349
(i__main__
DelphiIdentAccess
p3766
(dp3767
g277
S'kStatisticsPartTypeFallenFruit'
p3768
sg279
(lp3769
sbsg354
(i__main__
DelphiIdentAccess
p3770
(dp3771
g277
S'result'
p3772
sg279
(lp3773
sbsbsg457
(lp3774
(idelphi
DelphiIntegerValue
p3775
(dp3776
g65
S'15'
p3777
sbasba(idelphi
DelphiCaseSelector
p3778
(dp3779
g424
(i__main__
DelphiAssignStatement
p3780
(dp3781
g349
(i__main__
DelphiIdentAccess
p3782
(dp3783
g277
S'kStatisticsPartTypeUnallocatedNewVegetativeBiomass'
p3784
sg279
(lp3785
sbsg354
(i__main__
DelphiIdentAccess
p3786
(dp3787
g277
S'result'
p3788
sg279
(lp3789
sbsbsg457
(lp3790
(idelphi
DelphiIntegerValue
p3791
(dp3792
g65
S'16'
p3793
sbasba(idelphi
DelphiCaseSelector
p3794
(dp3795
g424
(i__main__
DelphiAssignStatement
p3796
(dp3797
g349
(i__main__
DelphiIdentAccess
p3798
(dp3799
g277
S'kStatisticsPartTypeUnremovedDeadVegetativeBiomass'
p3800
sg279
(lp3801
sbsg354
(i__main__
DelphiIdentAccess
p3802
(dp3803
g277
S'result'
p3804
sg279
(lp3805
sbsbsg457
(lp3806
(idelphi
DelphiIntegerValue
p3807
(dp3808
g65
S'17'
p3809
sbasba(idelphi
DelphiCaseSelector
p3810
(dp3811
g424
(i__main__
DelphiAssignStatement
p3812
(dp3813
g349
(i__main__
DelphiIdentAccess
p3814
(dp3815
g277
S'kStatisticsPartTypeUnallocatedNewReproductiveBiomass'
p3816
sg279
(lp3817
sbsg354
(i__main__
DelphiIdentAccess
p3818
(dp3819
g277
S'result'
p3820
sg279
(lp3821
sbsbsg457
(lp3822
(idelphi
DelphiIntegerValue
p3823
(dp3824
g65
S'18'
p3825
sbasba(idelphi
DelphiCaseSelector
p3826
(dp3827
g424
(i__main__
DelphiAssignStatement
p3828
(dp3829
g349
(i__main__
DelphiIdentAccess
p3830
(dp3831
g277
S'kStatisticsPartTypeUnremovedDeadReproductiveBiomass'
p3832
sg279
(lp3833
sbsg354
(i__main__
DelphiIdentAccess
p3834
(dp3835
g277
S'result'
p3836
sg279
(lp3837
sbsbsg457
(lp3838
(idelphi
DelphiIntegerValue
p3839
(dp3840
g65
S'19'
p3841
sbasbasbasbsg359
(lp3842
sbsbsS'updatedisplay'
p3843
(i__main__
DelphiMethodImplementation
p3844
(dp3845
g323
g142
sg21
g144
sg29
(lp3846
sg325
(lp3847
sg327
(lp3848
sg329
(lp3849
g331
asg332
(dp3850
sg31
S'PdStatsPanel'
p3851
sg32
Nsg337
(lp3852
sg37
I0
sg38
g91
sg339
(i__main__
DelphiBlock
p3853
(dp3854
g342
(idelphi
DelphiCompoundStatement
p3855
(dp3856
g345
(lp3857
(idelphi
DelphiIfStatement
p3858
(dp3859
g415
(idelphi
DelphiRelOp
p3860
(dp3861
g1135
(i__main__
DelphiIdentAccess
p3862
(dp3863
g277
S'plant'
p3864
sg279
(lp3865
sbsg1147
(idelphi
DelphiNilValue
p3866
(dp3867
bsg1150
S'='
sbsg431
Nsg444
(i__main__
DelphiExitStatement
p3868
(dp3869
g2804
g3844
sbsba(i__main__
DelphiAssignStatement
p3870
(dp3871
g349
Nsg354
(i__main__
DelphiIdentAccess
p3872
(dp3873
g277
S'self'
p3874
sg279
(lp3875
(idelphi
DelphiFieldEndAccess
p3876
(dp3877
g1107
S'invalidate'
p3878
sbasbsbasbsg359
(lp3879
sbsbsS'resizeelements'
p3880
(i__main__
DelphiMethodImplementation
p3881
(dp3882
g323
g147
sg21
g149
sg29
(lp3883
sg325
(lp3884
sg327
(lp3885
sg329
(lp3886
g331
asg332
(dp3887
sg31
S'PdStatsPanel'
p3888
sg32
Nsg337
(lp3889
sg37
I0
sg38
g91
sg339
(i__main__
DelphiBlock
p3890
(dp3891
g342
(idelphi
DelphiCompoundStatement
p3892
(dp3893
g345
(lp3894
(idelphi
DelphiIfStatement
p3895
(dp3896
g415
(idelphi
DelphiRelOp
p3897
(dp3898
g1135
(i__main__
DelphiIdentAccess
p3899
(dp3900
g277
S'self'
p3901
sg279
(lp3902
(idelphi
DelphiFieldEndAccess
p3903
(dp3904
g1107
S'textHeight'
p3905
sbasbsg1147
(idelphi
DelphiIntegerValue
p3906
(dp3907
g65
S'0'
sbsg1150
S'='
sbsg431
Nsg444
(i__main__
DelphiAssignStatement
p3908
(dp3909
g349
Nsg354
(i__main__
DelphiIdentAccess
p3910
(dp3911
g277
S'self'
p3912
sg279
(lp3913
(idelphi
DelphiFieldEndAccess
p3914
(dp3915
g1107
S'calculateTextDimensions'
p3916
sbasbsbsba(idelphi
DelphiIfStatement
p3917
(dp3918
g415
(idelphi
DelphiRelOp
p3919
(dp3920
g1135
(i__main__
DelphiIdentAccess
p3921
(dp3922
g277
S'self'
p3923
sg279
(lp3924
(idelphi
DelphiFieldEndAccess
p3925
(dp3926
g1107
S'maxLabelWidth'
p3927
sbasbsg1147
(idelphi
DelphiIntegerValue
p3928
(dp3929
g65
S'0'
sbsg1150
S'='
sbsg431
Nsg444
(i__main__
DelphiAssignStatement
p3930
(dp3931
g349
Nsg354
(i__main__
DelphiIdentAccess
p3932
(dp3933
g277
S'self'
p3934
sg279
(lp3935
(idelphi
DelphiFieldEndAccess
p3936
(dp3937
g1107
S'paint'
p3938
sbasbsbsba(i__main__
DelphiAssignStatement
p3939
(dp3940
g349
(i__main__
DelphiIdentAccess
p3941
(dp3942
g277
S'rect'
p3943
sg279
(lp3944
(idelphi
DelphiFunctionEndAccess
p3945
(dp3946
g1111
(lp3947
(idelphi
DelphiIntegerValue
p3948
(dp3949
g65
S'0'
sba(idelphi
DelphiIntegerValue
p3950
(dp3951
g65
S'0'
sba(idelphi
DelphiAddOp
p3952
(dp3953
g1126
S'+'
sg1128
(i__main__
DelphiIdentAccess
p3954
(dp3955
g277
S'kBetweenGap'
p3956
sg279
(lp3957
sbsg1151
(idelphi
DelphiAddOp
p3958
(dp3959
g1126
S'+'
sg1128
(idelphi
DelphiMulOp
p3960
(dp3961
g2883
(idelphi
DelphiIntegerValue
p3962
(dp3963
g65
S'2'
sbsg2904
S'*'
sg2905
(i__main__
DelphiIdentAccess
p3964
(dp3965
g277
S'kLeftRightGap'
p3966
sg279
(lp3967
sbsbsg1151
(idelphi
DelphiAddOp
p3968
(dp3969
g1126
S'+'
sg1128
(i__main__
DelphiIdentAccess
p3970
(dp3971
g277
S'maxLabelWidth'
p3972
sg279
(lp3973
sbsg1151
(i__main__
DelphiIdentAccess
p3974
(dp3975
g277
S'kMinGraphWidth'
p3976
sg279
(lp3977
sbsbsbsba(idelphi
DelphiAddOp
p3978
(dp3979
g1126
S'+'
sg1128
(idelphi
DelphiMulOp
p3980
(dp3981
g2883
(idelphi
DelphiIntegerValue
p3982
(dp3983
g65
S'2'
sbsg2904
S'*'
sg2905
(i__main__
DelphiIdentAccess
p3984
(dp3985
g277
S'kBetweenGap'
p3986
sg279
(lp3987
sbsbsg1151
(idelphi
DelphiAddOp
p3988
(dp3989
g1126
S'+'
sg1128
(idelphi
DelphiMulOp
p3990
(dp3991
g2883
(idelphi
DelphiIntegerValue
p3992
(dp3993
g65
S'2'
sbsg2904
S'*'
sg2905
(i__main__
DelphiIdentAccess
p3994
(dp3995
g277
S'kTopBottomGap'
p3996
sg279
(lp3997
sbsbsg1151
(idelphi
DelphiMulOp
p3998
(dp3999
g2883
(i__main__
DelphiIdentAccess
p4000
(dp4001
g277
S'self'
p4002
sg279
(lp4003
(idelphi
DelphiFieldEndAccess
p4004
(dp4005
g1107
S'textHeight'
p4006
sbasbsg2904
S'*'
sg2905
(idelphi
DelphiNestedExpressionListAccess
p4007
(dp4008
g279
(lp4009
sg1111
(lp4010
(idelphi
DelphiAddOp
p4011
(dp4012
g1126
S'+'
sg1128
(idelphi
DelphiIntegerValue
p4013
(dp4014
g65
S'2'
sbsg1151
(i__main__
DelphiIdentAccess
p4015
(dp4016
g277
S'self'
p4017
sg279
(lp4018
(idelphi
DelphiFieldEndAccess
p4019
(dp4020
g1107
S'numNonZeroPlantParts'
p4021
sbasbsbasbsbsbsbasbasbsg354
(i__main__
DelphiIdentAccess
p4022
(dp4023
g277
S'fullRect'
p4024
sg279
(lp4025
sbsba(i__main__
DelphiAssignStatement
p4026
(dp4027
g349
(i__main__
DelphiIdentAccess
p4028
(dp4029
g277
S'intMax'
p4030
sg279
(lp4031
(idelphi
DelphiFunctionEndAccess
p4032
(dp4033
g1111
(lp4034
(idelphi
DelphiIntegerValue
p4035
(dp4036
g65
S'0'
sba(i__main__
DelphiIdentAccess
p4037
(dp4038
g277
S'intMax'
p4039
sg279
(lp4040
(idelphi
DelphiFunctionEndAccess
p4041
(dp4042
g1111
(lp4043
(i__main__
DelphiIdentAccess
p4044
(dp4045
g277
S'rHeight'
p4046
sg279
(lp4047
(idelphi
DelphiFunctionEndAccess
p4048
(dp4049
g1111
(lp4050
(i__main__
DelphiIdentAccess
p4051
(dp4052
g277
S'fullRect'
p4053
sg279
(lp4054
sbasbasba(i__main__
DelphiIdentAccess
p4055
(dp4056
g277
S'parent'
p4057
sg279
(lp4058
(idelphi
DelphiFieldEndAccess
p4059
(dp4060
g1107
S'clientHeight'
p4061
sbasbasbasbasbasbsg354
(i__main__
DelphiIdentAccess
p4062
(dp4063
g277
S'self'
p4064
sg279
(lp4065
(idelphi
DelphiFieldEndAccess
p4066
(dp4067
g1107
S'clientHeight'
p4068
sbasbsba(i__main__
DelphiAssignStatement
p4069
(dp4070
g349
(i__main__
DelphiIdentAccess
p4071
(dp4072
g277
S'intMax'
p4073
sg279
(lp4074
(idelphi
DelphiFunctionEndAccess
p4075
(dp4076
g1111
(lp4077
(idelphi
DelphiIntegerValue
p4078
(dp4079
g65
S'0'
sba(i__main__
DelphiIdentAccess
p4080
(dp4081
g277
S'intMax'
p4082
sg279
(lp4083
(idelphi
DelphiFunctionEndAccess
p4084
(dp4085
g1111
(lp4086
(i__main__
DelphiIdentAccess
p4087
(dp4088
g277
S'rWidth'
p4089
sg279
(lp4090
(idelphi
DelphiFunctionEndAccess
p4091
(dp4092
g1111
(lp4093
(i__main__
DelphiIdentAccess
p4094
(dp4095
g277
S'fullRect'
p4096
sg279
(lp4097
sbasbasba(i__main__
DelphiIdentAccess
p4098
(dp4099
g277
S'parent'
p4100
sg279
(lp4101
(idelphi
DelphiFieldEndAccess
p4102
(dp4103
g1107
S'clientWidth'
p4104
sbasbasbasbasbasbsg354
(i__main__
DelphiIdentAccess
p4105
(dp4106
g277
S'self'
p4107
sg279
(lp4108
(idelphi
DelphiFieldEndAccess
p4109
(dp4110
g1107
S'clientWidth'
p4111
sbasbsba(idelphi
DelphiTryExceptStatement
p4112
(dp4113
S'tryStatements'
p4114
(lp4115
(i__main__
DelphiAssignStatement
p4116
(dp4117
g349
(i__main__
DelphiIdentAccess
p4118
(dp4119
g277
S'self'
p4120
sg279
(lp4121
(idelphi
DelphiFieldEndAccess
p4122
(dp4123
g1107
S'clientWidth'
p4124
sbasbsg354
(i__main__
DelphiIdentAccess
p4125
(dp4126
g277
S'drawBitmap'
p4127
sg279
(lp4128
(idelphi
DelphiFieldEndAccess
p4129
(dp4130
g1107
S'width'
p4131
sbasbsba(i__main__
DelphiAssignStatement
p4132
(dp4133
g349
(i__main__
DelphiIdentAccess
p4134
(dp4135
g277
S'self'
p4136
sg279
(lp4137
(idelphi
DelphiFieldEndAccess
p4138
(dp4139
g1107
S'clientHeight'
p4140
sbasbsg354
(i__main__
DelphiIdentAccess
p4141
(dp4142
g277
S'drawBitmap'
p4143
sg279
(lp4144
(idelphi
DelphiFieldEndAccess
p4145
(dp4146
g1107
S'height'
p4147
sbasbsbasS'exceptionHandlers'
p4148
(idelphi
DelphiExceptionHandlers
p4149
(dp4150
S'exceptionHandlerList'
p4151
NsS'statementList'
p4152
(lp4153
(i__main__
DelphiAssignStatement
p4154
(dp4155
g349
(idelphi
DelphiIntegerValue
p4156
(dp4157
g65
S'1'
sbsg354
(i__main__
DelphiIdentAccess
p4158
(dp4159
g277
S'drawBitmap'
p4160
sg279
(lp4161
(idelphi
DelphiFieldEndAccess
p4162
(dp4163
g1107
S'width'
p4164
sbasbsba(i__main__
DelphiAssignStatement
p4165
(dp4166
g349
(idelphi
DelphiIntegerValue
p4167
(dp4168
g65
S'1'
sbsg354
(i__main__
DelphiIdentAccess
p4169
(dp4170
g277
S'drawBitmap'
p4171
sg279
(lp4172
(idelphi
DelphiFieldEndAccess
p4173
(dp4174
g1107
S'height'
p4175
sbasbsbasbsba(i__main__
DelphiAssignStatement
p4176
(dp4177
g349
Nsg354
(i__main__
DelphiIdentAccess
p4178
(dp4179
g277
S'self'
p4180
sg279
(lp4181
(idelphi
DelphiFieldEndAccess
p4182
(dp4183
g1107
S'updateDisplay'
p4184
sbasbsbasbsg359
(lp4185
(i__main__
DelphiVarSection
p4186
(dp4187
g1212
I0
sg1213
(lp4188
(idelphi
DelphiVarDecl
p4189
(dp4190
g1217
Nsg1218
(lp4191
S'fullRect'
p4192
asg51
(i__main__
DelphiNamedType
p4193
(dp4194
g35
S'TRect'
p4195
sg120
g1
sg121
NsbsbasbasbsbsS'displaypercentforparttype'
p4196
(i__main__
DelphiMethodImplementation
p4197
(dp4198
g323
g152
sg21
g154
sg29
(lp4199
(i__main__
DelphiFormalParameter
p4200
(dp4201
g47
Nsg48
(lp4202
S'partType'
p4203
asg51
(i__main__
DelphiPrimitiveType
p4204
(dp4205
g35
g54
sbsg55
Nsba(i__main__
DelphiFormalParameter
p4206
(dp4207
g47
Nsg48
(lp4208
S'livingDeadOrBoth'
p4209
asg51
(i__main__
DelphiPrimitiveType
p4210
(dp4211
g35
g54
sbsg55
Nsbasg325
(lp4212
sg327
(lp4213
sg329
(lp4214
g331
ag4203
ag4209
asg332
(dp4215
g4209
g4210
sg4203
g4204
ssg31
S'PdStatsPanel'
p4216
sg32
(i__main__
DelphiPrimitiveType
p4217
(dp4218
g35
g90
sbsg337
(lp4219
sg37
I0
sg38
g39
sg339
(i__main__
DelphiBlock
p4220
(dp4221
g342
(idelphi
DelphiCompoundStatement
p4222
(dp4223
g345
(lp4224
(i__main__
DelphiAssignStatement
p4225
(dp4226
g349
(idelphi
DelphiRealValue
p4227
(dp4228
g65
S'0.0'
p4229
sbsg354
(i__main__
DelphiIdentAccess
p4230
(dp4231
g277
S'result'
p4232
sg279
(lp4233
sbsba(i__main__
DelphiAssignStatement
p4234
(dp4235
g349
(idelphi
DelphiAddOp
p4236
(dp4237
g1126
S'+'
sg1128
(i__main__
DelphiIdentAccess
p4238
(dp4239
g277
S'statistics'
p4240
sg279
(lp4241
(idelphi
DelphiFieldEndAccess
p4242
(dp4243
g1107
S'deadBiomass_pctMPB'
p4244
sba(idelphi
DelphiArrayEndAccess
p4245
(dp4246
g1111
(lp4247
(i__main__
DelphiIdentAccess
p4248
(dp4249
g277
S'kStatisticsPartTypeAllReproductive'
p4250
sg279
(lp4251
sbasbasbsg1151
(idelphi
DelphiAddOp
p4252
(dp4253
g1126
S'+'
sg1128
(i__main__
DelphiIdentAccess
p4254
(dp4255
g277
S'statistics'
p4256
sg279
(lp4257
(idelphi
DelphiFieldEndAccess
p4258
(dp4259
g1107
S'liveBiomass_pctMPB'
p4260
sba(idelphi
DelphiArrayEndAccess
p4261
(dp4262
g1111
(lp4263
(i__main__
DelphiIdentAccess
p4264
(dp4265
g277
S'kStatisticsPartTypeAllReproductive'
p4266
sg279
(lp4267
sbasbasbsg1151
(idelphi
DelphiAddOp
p4268
(dp4269
g1126
S'+'
sg1128
(i__main__
DelphiIdentAccess
p4270
(dp4271
g277
S'statistics'
p4272
sg279
(lp4273
(idelphi
DelphiFieldEndAccess
p4274
(dp4275
g1107
S'deadBiomass_pctMPB'
p4276
sba(idelphi
DelphiArrayEndAccess
p4277
(dp4278
g1111
(lp4279
(i__main__
DelphiIdentAccess
p4280
(dp4281
g277
S'kStatisticsPartTypeAllVegetative'
p4282
sg279
(lp4283
sbasbasbsg1151
(i__main__
DelphiIdentAccess
p4284
(dp4285
g277
S'statistics'
p4286
sg279
(lp4287
(idelphi
DelphiFieldEndAccess
p4288
(dp4289
g1107
S'liveBiomass_pctMPB'
p4290
sba(idelphi
DelphiArrayEndAccess
p4291
(dp4292
g1111
(lp4293
(i__main__
DelphiIdentAccess
p4294
(dp4295
g277
S'kStatisticsPartTypeAllVegetative'
p4296
sg279
(lp4297
sbasbasbsbsbsbsg354
(i__main__
DelphiIdentAccess
p4298
(dp4299
g277
S'total_pctMPB'
p4300
sg279
(lp4301
sbsba(idelphi
DelphiIfStatement
p4302
(dp4303
g415
(idelphi
DelphiRelOp
p4304
(dp4305
g1135
(i__main__
DelphiIdentAccess
p4306
(dp4307
g277
S'total_pctMPB'
p4308
sg279
(lp4309
sbsg1147
(idelphi
DelphiRealValue
p4310
(dp4311
g65
S'0.0'
p4312
sbsg1150
S'='
sbsg431
Nsg444
(i__main__
DelphiExitStatement
p4313
(dp4314
g2804
g4197
sbsba(idelphi
DelphiCaseStatement
p4315
(dp4316
g403
Nsg415
(i__main__
DelphiIdentAccess
p4317
(dp4318
g277
S'livingDeadOrBoth'
p4319
sg279
(lp4320
sbsg420
(lp4321
(idelphi
DelphiCaseSelector
p4322
(dp4323
g424
(i__main__
DelphiAssignStatement
p4324
(dp4325
g349
(i__main__
DelphiIdentAccess
p4326
(dp4327
g277
S'statistics'
p4328
sg279
(lp4329
(idelphi
DelphiFieldEndAccess
p4330
(dp4331
g1107
S'liveBiomass_pctMPB'
p4332
sba(idelphi
DelphiArrayEndAccess
p4333
(dp4334
g1111
(lp4335
(i__main__
DelphiIdentAccess
p4336
(dp4337
g277
S'partType'
p4338
sg279
(lp4339
sbasbasbsg354
(i__main__
DelphiIdentAccess
p4340
(dp4341
g277
S'result'
p4342
sg279
(lp4343
sbsbsg457
(lp4344
(i__main__
DelphiIdentAccess
p4345
(dp4346
g277
S'kLive'
p4347
sg279
(lp4348
sbasba(idelphi
DelphiCaseSelector
p4349
(dp4350
g424
(i__main__
DelphiAssignStatement
p4351
(dp4352
g349
(i__main__
DelphiIdentAccess
p4353
(dp4354
g277
S'statistics'
p4355
sg279
(lp4356
(idelphi
DelphiFieldEndAccess
p4357
(dp4358
g1107
S'deadBiomass_pctMPB'
p4359
sba(idelphi
DelphiArrayEndAccess
p4360
(dp4361
g1111
(lp4362
(i__main__
DelphiIdentAccess
p4363
(dp4364
g277
S'partType'
p4365
sg279
(lp4366
sbasbasbsg354
(i__main__
DelphiIdentAccess
p4367
(dp4368
g277
S'result'
p4369
sg279
(lp4370
sbsbsg457
(lp4371
(i__main__
DelphiIdentAccess
p4372
(dp4373
g277
S'kDead'
p4374
sg279
(lp4375
sbasba(idelphi
DelphiCaseSelector
p4376
(dp4377
g424
(i__main__
DelphiAssignStatement
p4378
(dp4379
g349
(idelphi
DelphiAddOp
p4380
(dp4381
g1126
S'+'
sg1128
(i__main__
DelphiIdentAccess
p4382
(dp4383
g277
S'statistics'
p4384
sg279
(lp4385
(idelphi
DelphiFieldEndAccess
p4386
(dp4387
g1107
S'deadBiomass_pctMPB'
p4388
sba(idelphi
DelphiArrayEndAccess
p4389
(dp4390
g1111
(lp4391
(i__main__
DelphiIdentAccess
p4392
(dp4393
g277
S'partType'
p4394
sg279
(lp4395
sbasbasbsg1151
(i__main__
DelphiIdentAccess
p4396
(dp4397
g277
S'statistics'
p4398
sg279
(lp4399
(idelphi
DelphiFieldEndAccess
p4400
(dp4401
g1107
S'liveBiomass_pctMPB'
p4402
sba(idelphi
DelphiArrayEndAccess
p4403
(dp4404
g1111
(lp4405
(i__main__
DelphiIdentAccess
p4406
(dp4407
g277
S'partType'
p4408
sg279
(lp4409
sbasbasbsbsg354
(i__main__
DelphiIdentAccess
p4410
(dp4411
g277
S'result'
p4412
sg279
(lp4413
sbsbsg457
(lp4414
(i__main__
DelphiIdentAccess
p4415
(dp4416
g277
S'kBothLiveAndDead'
p4417
sg279
(lp4418
sbasbasba(i__main__
DelphiAssignStatement
p4419
(dp4420
g349
(i__main__
DelphiIdentAccess
p4421
(dp4422
g277
S'min'
p4423
sg279
(lp4424
(idelphi
DelphiFunctionEndAccess
p4425
(dp4426
g1111
(lp4427
(idelphi
DelphiRealValue
p4428
(dp4429
g65
S'100.0'
p4430
sba(i__main__
DelphiIdentAccess
p4431
(dp4432
g277
S'max'
p4433
sg279
(lp4434
(idelphi
DelphiFunctionEndAccess
p4435
(dp4436
g1111
(lp4437
(idelphi
DelphiRealValue
p4438
(dp4439
g65
S'0.0'
p4440
sba(idelphi
DelphiMulOp
p4441
(dp4442
g2883
(i__main__
DelphiIdentAccess
p4443
(dp4444
g277
S'total_pctMPB'
p4445
sg279
(lp4446
sbsg2904
S'/'
sg2905
(idelphi
DelphiMulOp
p4447
(dp4448
g2883
(i__main__
DelphiIdentAccess
p4449
(dp4450
g277
S'result'
p4451
sg279
(lp4452
sbsg2904
S'*'
sg2905
(idelphi
DelphiRealValue
p4453
(dp4454
g65
S'100.0'
p4455
sbsbsbasbasbasbasbsg354
(i__main__
DelphiIdentAccess
p4456
(dp4457
g277
S'result'
p4458
sg279
(lp4459
sbsbasbsg359
(lp4460
(i__main__
DelphiVarSection
p4461
(dp4462
g1212
I0
sg1213
(lp4463
(idelphi
DelphiVarDecl
p4464
(dp4465
g1217
Nsg1218
(lp4466
S'total_pctMPB'
p4467
asg51
(i__main__
DelphiPrimitiveType
p4468
(dp4469
g35
g90
sbsbasbasbsbsS'updateplant'
p4470
(i__main__
DelphiMethodImplementation
p4471
(dp4472
g323
g171
sg21
g173
sg29
(lp4473
(i__main__
DelphiFormalParameter
p4474
(dp4475
g47
Nsg48
(lp4476
S'newPlant'
p4477
asg51
(i__main__
DelphiNamedType
p4478
(dp4479
g35
S'PdPlant'
p4480
sg120
g1
sg121
Nsbsg55
Nsbasg325
(lp4481
sg327
(lp4482
sg329
(lp4483
g331
ag4477
asg332
(dp4484
g4477
g4478
ssg31
S'PdStatsPanel'
p4485
sg32
Nsg337
(lp4486
sg37
I0
sg38
g91
sg339
(i__main__
DelphiBlock
p4487
(dp4488
g342
(idelphi
DelphiCompoundStatement
p4489
(dp4490
g345
(lp4491
(idelphi
DelphiIfStatement
p4492
(dp4493
g415
(idelphi
DelphiRelOp
p4494
(dp4495
g1135
(i__main__
DelphiIdentAccess
p4496
(dp4497
g277
S'plant'
p4498
sg279
(lp4499
sbsg1147
(i__main__
DelphiIdentAccess
p4500
(dp4501
g277
S'newPlant'
p4502
sg279
(lp4503
sbsg1150
g1342
sbsg431
Nsg444
(idelphi
DelphiCompoundStatement
p4504
(dp4505
g345
(lp4506
(i__main__
DelphiAssignStatement
p4507
(dp4508
g349
(i__main__
DelphiIdentAccess
p4509
(dp4510
g277
S'newPlant'
p4511
sg279
(lp4512
sbsg354
(i__main__
DelphiIdentAccess
p4513
(dp4514
g277
S'plant'
p4515
sg279
(lp4516
sbsba(i__main__
DelphiAssignStatement
p4517
(dp4518
g349
Nsg354
(i__main__
DelphiIdentAccess
p4519
(dp4520
g277
S'updateCurrentValue'
p4521
sg279
(lp4522
(idelphi
DelphiFunctionEndAccess
p4523
(dp4524
g1111
(lp4525
(idelphi
DelphiIntegerValue
p4526
(dp4527
g65
S'0'
sbasbasbsbasbsbasbsg359
(lp4528
sbsbsS'updatehint'
p4529
(i__main__
DelphiMethodImplementation
p4530
(dp4531
g323
g183
sg21
g185
sg29
(lp4532
sg325
(lp4533
sg327
(lp4534
sg329
(lp4535
g331
asg332
(dp4536
sg31
S'PdStatsPanel'
p4537
sg32
Nsg337
(lp4538
sg37
I0
sg38
g91
sg339
(i__main__
DelphiBlock
p4539
(dp4540
g342
(idelphi
DelphiCompoundStatement
p4541
(dp4542
g345
(lp4543
(idelphi
DelphiIfStatement
p4544
(dp4545
g415
(i__main__
DelphiIdentAccess
p4546
(dp4547
g277
S'domain'
p4548
sg279
(lp4549
(idelphi
DelphiFieldEndAccess
p4550
(dp4551
g1107
S'options'
p4552
sba(idelphi
DelphiFieldEndAccess
p4553
(dp4554
g1107
S'showLongHintsForButtons'
p4555
sbasbsg431
(i__main__
DelphiAssignStatement
p4556
(dp4557
g349
(idelphi
DelphiStringAccess
p4558
(dp4559
g279
(lp4560
sg65
(idelphi
DelphiStringValue
p4561
(dp4562
g65
S''
sbsbsg354
(i__main__
DelphiIdentAccess
p4563
(dp4564
g277
S'self'
p4565
sg279
(lp4566
(idelphi
DelphiFieldEndAccess
p4567
(dp4568
g1107
S'hint'
p4569
sbasbsbsg444
(i__main__
DelphiAssignStatement
p4570
(dp4571
g349
(idelphi
DelphiAddOp
p4572
(dp4573
g1126
S'+'
sg1128
(idelphi
DelphiStringAccess
p4574
(dp4575
g279
(lp4576
sg65
(idelphi
DelphiStringValue
p4577
(dp4578
g65
S' See the help system for details.'
p4579
sbsbsg1151
(idelphi
DelphiAddOp
p4580
(dp4581
g1126
S'+'
sg1128
(idelphi
DelphiStringAccess
p4582
(dp4583
g279
(lp4584
sg65
(idelphi
DelphiStringValue
p4585
(dp4586
g65
S" each plant part. You can''t change anything here; it is for display only."
p4587
sbsbsg1151
(idelphi
DelphiStringAccess
p4588
(dp4589
g279
(lp4590
sg65
(idelphi
DelphiStringValue
p4591
(dp4592
g65
S'Parts of the plant showing counts and percent of total biomass taken up by'
p4593
sbsbsbsbsg354
(i__main__
DelphiIdentAccess
p4594
(dp4595
g277
S'self'
p4596
sg279
(lp4597
(idelphi
DelphiFieldEndAccess
p4598
(dp4599
g1107
S'hint'
p4600
sbasbsbsba(i__main__
DelphiAssignStatement
p4601
(dp4602
g349
(i__main__
DelphiIdentAccess
p4603
(dp4604
g277
S'true'
p4605
sg279
(lp4606
sbsg354
(i__main__
DelphiIdentAccess
p4607
(dp4608
g277
S'self'
p4609
sg279
(lp4610
(idelphi
DelphiFieldEndAccess
p4611
(dp4612
g1107
S'showHint'
p4613
sbasbsbasbsg359
(lp4614
sbsbsS'labelstringforparttype'
p4615
(i__main__
DelphiMethodImplementation
p4616
(dp4617
g323
g188
sg21
g190
sg29
(lp4618
(i__main__
DelphiFormalParameter
p4619
(dp4620
g47
Nsg48
(lp4621
g81
asg51
(i__main__
DelphiPrimitiveType
p4622
(dp4623
g35
g54
sbsg55
Nsbasg325
(lp4624
sg327
(lp4625
sg329
(lp4626
g331
ag81
asg332
(dp4627
g81
g4622
ssg31
S'PdStatsPanel'
p4628
sg32
(i__main__
DelphiPrimitiveType
p4629
(dp4630
g35
g65
sbsg337
(lp4631
sg37
I0
sg38
g39
sg339
(i__main__
DelphiBlock
p4632
(dp4633
g342
(idelphi
DelphiCompoundStatement
p4634
(dp4635
g345
(lp4636
(i__main__
DelphiAssignStatement
p4637
(dp4638
g349
(idelphi
DelphiStringAccess
p4639
(dp4640
g279
(lp4641
sg65
(idelphi
DelphiStringValue
p4642
(dp4643
g65
S''
sbsbsg354
(i__main__
DelphiIdentAccess
p4644
(dp4645
g277
S'result'
p4646
sg279
(lp4647
sbsba(idelphi
DelphiWithStatement
p4648
(dp4649
g424
(idelphi
DelphiCompoundStatement
p4650
(dp4651
g345
(lp4652
(i__main__
DelphiAssignStatement
p4653
(dp4654
g349
(i__main__
DelphiIdentAccess
p4655
(dp4656
g277
S'self'
p4657
sg279
(lp4658
(idelphi
DelphiFieldEndAccess
p4659
(dp4660
g1107
S'partTypeForIndex'
p4661
sba(idelphi
DelphiFunctionEndAccess
p4662
(dp4663
g1111
(lp4664
(i__main__
DelphiIdentAccess
p4665
(dp4666
g277
g81
sg279
(lp4667
sbasbasbsg354
(i__main__
DelphiIdentAccess
p4668
(dp4669
g277
S'partType'
p4670
sg279
(lp4671
sbsba(idelphi
DelphiWithStatement
p4672
(dp4673
g424
(i__main__
DelphiAssignStatement
p4674
(dp4675
g349
(idelphi
DelphiAddOp
p4676
(dp4677
g1126
g1127
sg1128
(idelphi
DelphiNestedExpressionListAccess
p4678
(dp4679
g279
(lp4680
sg1111
(lp4681
(idelphi
DelphiRelOp
p4682
(dp4683
g1135
(i__main__
DelphiIdentAccess
p4684
(dp4685
g277
S'count'
p4686
sg279
(lp4687
(idelphi
DelphiArrayEndAccess
p4688
(dp4689
g1111
(lp4690
(i__main__
DelphiIdentAccess
p4691
(dp4692
g277
S'partType'
p4693
sg279
(lp4694
sbasbasbsg1147
(idelphi
DelphiIntegerValue
p4695
(dp4696
g65
S'0'
sbsg1150
S'>'
sbasbsg1151
(idelphi
DelphiNestedExpressionListAccess
p4697
(dp4698
g279
(lp4699
sg1111
(lp4700
(idelphi
DelphiRelOp
p4701
(dp4702
g1135
(idelphi
DelphiAddOp
p4703
(dp4704
g1126
S'+'
sg1128
(i__main__
DelphiIdentAccess
p4705
(dp4706
g277
S'deadBiomass_pctMPB'
p4707
sg279
(lp4708
(idelphi
DelphiArrayEndAccess
p4709
(dp4710
g1111
(lp4711
(i__main__
DelphiIdentAccess
p4712
(dp4713
g277
S'partType'
p4714
sg279
(lp4715
sbasbasbsg1151
(i__main__
DelphiIdentAccess
p4716
(dp4717
g277
S'liveBiomass_pctMPB'
p4718
sg279
(lp4719
(idelphi
DelphiArrayEndAccess
p4720
(dp4721
g1111
(lp4722
(i__main__
DelphiIdentAccess
p4723
(dp4724
g277
S'partType'
p4725
sg279
(lp4726
sbasbasbsbsg1147
(idelphi
DelphiIntegerValue
p4727
(dp4728
g65
S'0'
sbsg1150
S'>'
sbasbsbsg354
(i__main__
DelphiIdentAccess
p4729
(dp4730
g277
S'hasStuff'
p4731
sg279
(lp4732
sbsbsg1188
(lp4733
(i__main__
DelphiIdentAccess
p4734
(dp4735
g277
S'statistics'
p4736
sg279
(lp4737
sbasba(idelphi
DelphiIfStatement
p4738
(dp4739
g415
(idelphi
DelphiNot
p4740
(dp4741
g3507
(i__main__
DelphiIdentAccess
p4742
(dp4743
g277
S'hasStuff'
p4744
sg279
(lp4745
sbsbsg431
Nsg444
(i__main__
DelphiExitStatement
p4746
(dp4747
g2804
g4616
sbsba(idelphi
DelphiIfStatement
p4748
(dp4749
g415
(idelphi
DelphiRelOp
p4750
(dp4751
g1135
(i__main__
DelphiIdentAccess
p4752
(dp4753
g277
S'count'
p4754
sg279
(lp4755
(idelphi
DelphiArrayEndAccess
p4756
(dp4757
g1111
(lp4758
(i__main__
DelphiIdentAccess
p4759
(dp4760
g277
S'partType'
p4761
sg279
(lp4762
sbasbasbsg1147
(idelphi
DelphiIntegerValue
p4763
(dp4764
g65
S'0'
sbsg1150
S'>'
sbsg431
Nsg444
(i__main__
DelphiAssignStatement
p4765
(dp4766
g349
(idelphi
DelphiAddOp
p4767
(dp4768
g1126
S'+'
sg1128
(idelphi
DelphiStringAccess
p4769
(dp4770
g279
(lp4771
sg65
(idelphi
DelphiStringValue
p4772
(dp4773
g65
S' '
sbsbsg1151
(i__main__
DelphiIdentAccess
p4774
(dp4775
g277
S'intToStr'
p4776
sg279
(lp4777
(idelphi
DelphiFunctionEndAccess
p4778
(dp4779
g1111
(lp4780
(i__main__
DelphiIdentAccess
p4781
(dp4782
g277
S'count'
p4783
sg279
(lp4784
(idelphi
DelphiArrayEndAccess
p4785
(dp4786
g1111
(lp4787
(i__main__
DelphiIdentAccess
p4788
(dp4789
g277
S'partType'
p4790
sg279
(lp4791
sbasbasbasbasbsbsg354
(i__main__
DelphiIdentAccess
p4792
(dp4793
g277
S'result'
p4794
sg279
(lp4795
sbsbsba(i__main__
DelphiAssignStatement
p4796
(dp4797
g349
(idelphi
DelphiAddOp
p4798
(dp4799
g1126
S'+'
sg1128
(i__main__
DelphiIdentAccess
p4800
(dp4801
g277
S'self'
p4802
sg279
(lp4803
(idelphi
DelphiFieldEndAccess
p4804
(dp4805
g1107
S'nameForPartType'
p4806
sba(idelphi
DelphiFunctionEndAccess
p4807
(dp4808
g1111
(lp4809
(i__main__
DelphiIdentAccess
p4810
(dp4811
g277
S'partType'
p4812
sg279
(lp4813
sba(idelphi
DelphiRelOp
p4814
(dp4815
g1135
(i__main__
DelphiIdentAccess
p4816
(dp4817
g277
S'count'
p4818
sg279
(lp4819
(idelphi
DelphiArrayEndAccess
p4820
(dp4821
g1111
(lp4822
(i__main__
DelphiIdentAccess
p4823
(dp4824
g277
S'partType'
p4825
sg279
(lp4826
sbasbasbsg1147
(idelphi
DelphiIntegerValue
p4827
(dp4828
g65
S'1'
sbsg1150
S'='
sbasbasbsg1151
(i__main__
DelphiIdentAccess
p4829
(dp4830
g277
S'result'
p4831
sg279
(lp4832
sbsbsg354
(i__main__
DelphiIdentAccess
p4833
(dp4834
g277
S'result'
p4835
sg279
(lp4836
sbsba(i__main__
DelphiAssignStatement
p4837
(dp4838
g349
(idelphi
DelphiAddOp
p4839
(dp4840
g1126
S'+'
sg1128
(idelphi
DelphiStringAccess
p4841
(dp4842
g279
(lp4843
sg65
(idelphi
DelphiStringValue
p4844
(dp4845
g65
S'%'
sbsbsg1151
(idelphi
DelphiAddOp
p4846
(dp4847
g1126
S'+'
sg1128
(i__main__
DelphiIdentAccess
p4848
(dp4849
g277
S'digitValueString'
p4850
sg279
(lp4851
(idelphi
DelphiFunctionEndAccess
p4852
(dp4853
g1111
(lp4854
(i__main__
DelphiIdentAccess
p4855
(dp4856
g277
S'self'
p4857
sg279
(lp4858
(idelphi
DelphiFieldEndAccess
p4859
(dp4860
g1107
S'displayPercentForPartType'
p4861
sba(idelphi
DelphiFunctionEndAccess
p4862
(dp4863
g1111
(lp4864
(i__main__
DelphiIdentAccess
p4865
(dp4866
g277
S'partType'
p4867
sg279
(lp4868
sba(i__main__
DelphiIdentAccess
p4869
(dp4870
g277
S'kBothLiveAndDead'
p4871
sg279
(lp4872
sbasbasbasbasbsg1151
(idelphi
DelphiAddOp
p4873
(dp4874
g1126
S'+'
sg1128
(idelphi
DelphiStringAccess
p4875
(dp4876
g279
(lp4877
sg65
(idelphi
DelphiStringValue
p4878
(dp4879
g65
S': '
p4880
sbsbsg1151
(i__main__
DelphiIdentAccess
p4881
(dp4882
g277
S'result'
p4883
sg279
(lp4884
sbsbsbsbsg354
(i__main__
DelphiIdentAccess
p4885
(dp4886
g277
S'result'
p4887
sg279
(lp4888
sbsbasbsg1188
(lp4889
(i__main__
DelphiIdentAccess
p4890
(dp4891
g277
S'statistics'
p4892
sg279
(lp4893
sbasbasbsg359
(lp4894
(i__main__
DelphiVarSection
p4895
(dp4896
g1212
I0
sg1213
(lp4897
(idelphi
DelphiVarDecl
p4898
(dp4899
g1217
Nsg1218
(lp4900
S'partType'
p4901
asg51
(i__main__
DelphiPrimitiveType
p4902
(dp4903
g35
g54
sbsba(idelphi
DelphiVarDecl
p4904
(dp4905
g1217
Nsg1218
(lp4906
S'hasStuff'
p4907
asg51
(i__main__
DelphiPrimitiveType
p4908
(dp4909
g35
g62
sbsbasbasbsbsS'drawtextlabel'
p4910
(i__main__
DelphiMethodImplementation
p4911
(dp4912
g323
g200
sg21
g202
sg29
(lp4913
(i__main__
DelphiFormalParameter
p4914
(dp4915
g47
Nsg48
(lp4916
S'text'
p4917
asg51
(i__main__
DelphiPrimitiveType
p4918
(dp4919
g35
g65
sbsg55
Nsba(i__main__
DelphiFormalParameter
p4920
(dp4921
g47
Nsg48
(lp4922
S'drawRect'
p4923
asg51
(i__main__
DelphiNamedType
p4924
(dp4925
g35
S'TRect'
p4926
sg120
g1
sg121
Nsbsg55
Nsba(i__main__
DelphiFormalParameter
p4927
(dp4928
g47
Nsg48
(lp4929
S'active'
p4930
aS'drawLine'
p4931
aS'drawBox'
p4932
asg51
(i__main__
DelphiPrimitiveType
p4933
(dp4934
g35
g62
sbsg55
Nsbasg325
(lp4935
sg327
(lp4936
sg329
(lp4937
g331
ag4917
ag4923
ag4930
ag4931
ag4932
asg332
(dp4938
g4923
g4924
sg4917
g4918
sg4932
g4933
sg4930
g4933
sg4931
g4933
ssg31
S'PdStatsPanel'
p4939
sg32
Nsg337
(lp4940
sg37
I0
sg38
g91
sg339
(i__main__
DelphiBlock
p4941
(dp4942
g342
(idelphi
DelphiCompoundStatement
p4943
(dp4944
g345
(lp4945
(idelphi
DelphiIfStatement
p4946
(dp4947
g415
(idelphi
DelphiRelOp
p4948
(dp4949
g1135
(i__main__
DelphiIdentAccess
p4950
(dp4951
g277
S'text'
p4952
sg279
(lp4953
sbsg1147
(idelphi
DelphiStringAccess
p4954
(dp4955
g279
(lp4956
sg65
(idelphi
DelphiStringValue
p4957
(dp4958
g65
S''
sbsbsg1150
g1342
sbsg431
Nsg444
(idelphi
DelphiWithStatement
p4959
(dp4960
g424
(idelphi
DelphiCompoundStatement
p4961
(dp4962
g345
(lp4963
(i__main__
DelphiAssignStatement
p4964
(dp4965
g349
(i__main__
DelphiIdentAccess
p4966
(dp4967
g277
S'self'
p4968
sg279
(lp4969
(idelphi
DelphiFieldEndAccess
p4970
(dp4971
g1107
S'font'
p4972
sbasbsg354
(i__main__
DelphiIdentAccess
p4973
(dp4974
g277
S'font'
p4975
sg279
(lp4976
sbsba(idelphi
DelphiIfStatement
p4977
(dp4978
g415
(i__main__
DelphiIdentAccess
p4979
(dp4980
g277
S'active'
p4981
sg279
(lp4982
sbsg431
(i__main__
DelphiAssignStatement
p4983
(dp4984
g349
(i__main__
DelphiIdentAccess
p4985
(dp4986
g277
S'clBtnShadow'
p4987
sg279
(lp4988
sbsg354
(i__main__
DelphiIdentAccess
p4989
(dp4990
g277
S'font'
p4991
sg279
(lp4992
(idelphi
DelphiFieldEndAccess
p4993
(dp4994
g1107
S'color'
p4995
sbasbsbsg444
(i__main__
DelphiAssignStatement
p4996
(dp4997
g349
(i__main__
DelphiIdentAccess
p4998
(dp4999
g277
S'clBtnText'
p5000
sg279
(lp5001
sbsg354
(i__main__
DelphiIdentAccess
p5002
(dp5003
g277
S'font'
p5004
sg279
(lp5005
(idelphi
DelphiFieldEndAccess
p5006
(dp5007
g1107
S'color'
p5008
sbasbsbsba(i__main__
DelphiAssignStatement
p5009
(dp5010
g349
Nsg354
(i__main__
DelphiIdentAccess
p5011
(dp5012
g277
S'strPCopy'
p5013
sg279
(lp5014
(idelphi
DelphiFunctionEndAccess
p5015
(dp5016
g1111
(lp5017
(i__main__
DelphiIdentAccess
p5018
(dp5019
g277
S'cText'
p5020
sg279
(lp5021
sba(i__main__
DelphiIdentAccess
p5022
(dp5023
g277
S'text'
p5024
sg279
(lp5025
sbasbasbsba(i__main__
DelphiAssignStatement
p5026
(dp5027
g349
Nsg354
(i__main__
DelphiIdentAccess
p5028
(dp5029
g277
S'winprocs'
p5030
sg279
(lp5031
(idelphi
DelphiFieldEndAccess
p5032
(dp5033
g1107
S'drawText'
p5034
sba(idelphi
DelphiFunctionEndAccess
p5035
(dp5036
g1111
(lp5037
(i__main__
DelphiIdentAccess
p5038
(dp5039
g277
S'handle'
p5040
sg279
(lp5041
sba(i__main__
DelphiIdentAccess
p5042
(dp5043
g277
S'cText'
p5044
sg279
(lp5045
sba(i__main__
DelphiIdentAccess
p5046
(dp5047
g277
S'strLen'
p5048
sg279
(lp5049
(idelphi
DelphiFunctionEndAccess
p5050
(dp5051
g1111
(lp5052
(i__main__
DelphiIdentAccess
p5053
(dp5054
g277
S'cText'
p5055
sg279
(lp5056
sbasbasba(i__main__
DelphiIdentAccess
p5057
(dp5058
g277
S'drawRect'
p5059
sg279
(lp5060
sba(i__main__
DelphiIdentAccess
p5061
(dp5062
g277
S'DT_RIGHT'
p5063
sg279
(lp5064
sbasbasbsg1355
(lp5065
S' changed DT_LEFT to DT_RIGHT to right-justify labels; ok because nothing else matters here '
p5066
asbasbsg1188
(lp5067
(i__main__
DelphiIdentAccess
p5068
(dp5069
g277
S'drawBitmap'
p5070
sg279
(lp5071
(idelphi
DelphiFieldEndAccess
p5072
(dp5073
g1107
S'canvas'
p5074
sbasbasbsba(idelphi
DelphiIfStatement
p5075
(dp5076
g415
(i__main__
DelphiIdentAccess
p5077
(dp5078
g277
S'drawLine'
p5079
sg279
(lp5080
sbsg431
Nsg444
(idelphi
DelphiWithStatement
p5081
(dp5082
g424
(idelphi
DelphiCompoundStatement
p5083
(dp5084
g345
(lp5085
(i__main__
DelphiAssignStatement
p5086
(dp5087
g349
(i__main__
DelphiIdentAccess
p5088
(dp5089
g277
S'clBtnShadow'
p5090
sg279
(lp5091
sbsg354
(i__main__
DelphiIdentAccess
p5092
(dp5093
g277
S'pen'
p5094
sg279
(lp5095
(idelphi
DelphiFieldEndAccess
p5096
(dp5097
g1107
S'color'
p5098
sbasbsba(i__main__
DelphiAssignStatement
p5099
(dp5100
g349
Nsg354
(i__main__
DelphiIdentAccess
p5101
(dp5102
g277
S'moveTo'
p5103
sg279
(lp5104
(idelphi
DelphiFunctionEndAccess
p5105
(dp5106
g1111
(lp5107
(i__main__
DelphiIdentAccess
p5108
(dp5109
g277
S'drawRect'
p5110
sg279
(lp5111
(idelphi
DelphiFieldEndAccess
p5112
(dp5113
g1107
S'left'
p5114
sbasba(idelphi
DelphiAddOp
p5115
(dp5116
g1126
S'-'
sg1128
(idelphi
DelphiIntegerValue
p5117
(dp5118
g65
S'2'
sbsg1151
(i__main__
DelphiIdentAccess
p5119
(dp5120
g277
S'drawRect'
p5121
sg279
(lp5122
(idelphi
DelphiFieldEndAccess
p5123
(dp5124
g1107
S'bottom'
p5125
sbasbsbasbasbsba(i__main__
DelphiAssignStatement
p5126
(dp5127
g349
Nsg354
(i__main__
DelphiIdentAccess
p5128
(dp5129
g277
S'lineTo'
p5130
sg279
(lp5131
(idelphi
DelphiFunctionEndAccess
p5132
(dp5133
g1111
(lp5134
(i__main__
DelphiIdentAccess
p5135
(dp5136
g277
S'drawRect'
p5137
sg279
(lp5138
(idelphi
DelphiFieldEndAccess
p5139
(dp5140
g1107
S'right'
p5141
sbasba(idelphi
DelphiAddOp
p5142
(dp5143
g1126
S'-'
sg1128
(idelphi
DelphiIntegerValue
p5144
(dp5145
g65
S'2'
sbsg1151
(i__main__
DelphiIdentAccess
p5146
(dp5147
g277
S'drawRect'
p5148
sg279
(lp5149
(idelphi
DelphiFieldEndAccess
p5150
(dp5151
g1107
S'bottom'
p5152
sbasbsbasbasbsbasbsg1188
(lp5153
(i__main__
DelphiIdentAccess
p5154
(dp5155
g277
S'drawBitmap'
p5156
sg279
(lp5157
(idelphi
DelphiFieldEndAccess
p5158
(dp5159
g1107
S'canvas'
p5160
sbasbasbsba(idelphi
DelphiIfStatement
p5161
(dp5162
g415
(i__main__
DelphiIdentAccess
p5163
(dp5164
g277
S'drawBox'
p5165
sg279
(lp5166
sbsg431
Nsg444
(idelphi
DelphiWithStatement
p5167
(dp5168
g424
(idelphi
DelphiCompoundStatement
p5169
(dp5170
g345
(lp5171
(i__main__
DelphiAssignStatement
p5172
(dp5173
g349
(i__main__
DelphiIdentAccess
p5174
(dp5175
g277
S'clBtnShadow'
p5176
sg279
(lp5177
sbsg354
(i__main__
DelphiIdentAccess
p5178
(dp5179
g277
S'pen'
p5180
sg279
(lp5181
(idelphi
DelphiFieldEndAccess
p5182
(dp5183
g1107
S'color'
p5184
sbasbsba(i__main__
DelphiAssignStatement
p5185
(dp5186
g349
Nsg354
(i__main__
DelphiIdentAccess
p5187
(dp5188
g277
S'moveTo'
p5189
sg279
(lp5190
(idelphi
DelphiFunctionEndAccess
p5191
(dp5192
g1111
(lp5193
(idelphi
DelphiAddOp
p5194
(dp5195
g1126
S'+'
sg1128
(idelphi
DelphiIntegerValue
p5196
(dp5197
g65
S'2'
sbsg1151
(i__main__
DelphiIdentAccess
p5198
(dp5199
g277
S'drawRect'
p5200
sg279
(lp5201
(idelphi
DelphiFieldEndAccess
p5202
(dp5203
g1107
S'right'
p5204
sbasbsba(i__main__
DelphiIdentAccess
p5205
(dp5206
g277
S'drawRect'
p5207
sg279
(lp5208
(idelphi
DelphiFieldEndAccess
p5209
(dp5210
g1107
S'top'
p5211
sbasbasbasbsba(i__main__
DelphiAssignStatement
p5212
(dp5213
g349
Nsg354
(i__main__
DelphiIdentAccess
p5214
(dp5215
g277
S'lineTo'
p5216
sg279
(lp5217
(idelphi
DelphiFunctionEndAccess
p5218
(dp5219
g1111
(lp5220
(idelphi
DelphiAddOp
p5221
(dp5222
g1126
S'-'
sg1128
(idelphi
DelphiIntegerValue
p5223
(dp5224
g65
S'2'
sbsg1151
(i__main__
DelphiIdentAccess
p5225
(dp5226
g277
S'drawRect'
p5227
sg279
(lp5228
(idelphi
DelphiFieldEndAccess
p5229
(dp5230
g1107
S'left'
p5231
sbasbsba(i__main__
DelphiIdentAccess
p5232
(dp5233
g277
S'drawRect'
p5234
sg279
(lp5235
(idelphi
DelphiFieldEndAccess
p5236
(dp5237
g1107
S'top'
p5238
sbasbasbasbsba(i__main__
DelphiAssignStatement
p5239
(dp5240
g349
Nsg354
(i__main__
DelphiIdentAccess
p5241
(dp5242
g277
S'lineTo'
p5243
sg279
(lp5244
(idelphi
DelphiFunctionEndAccess
p5245
(dp5246
g1111
(lp5247
(idelphi
DelphiAddOp
p5248
(dp5249
g1126
S'-'
sg1128
(idelphi
DelphiIntegerValue
p5250
(dp5251
g65
S'2'
sbsg1151
(i__main__
DelphiIdentAccess
p5252
(dp5253
g277
S'drawRect'
p5254
sg279
(lp5255
(idelphi
DelphiFieldEndAccess
p5256
(dp5257
g1107
S'left'
p5258
sbasbsba(idelphi
DelphiAddOp
p5259
(dp5260
g1126
S'-'
sg1128
(idelphi
DelphiIntegerValue
p5261
(dp5262
g65
S'2'
sbsg1151
(i__main__
DelphiIdentAccess
p5263
(dp5264
g277
S'drawRect'
p5265
sg279
(lp5266
(idelphi
DelphiFieldEndAccess
p5267
(dp5268
g1107
S'bottom'
p5269
sbasbsbasbasbsba(i__main__
DelphiAssignStatement
p5270
(dp5271
g349
Nsg354
(i__main__
DelphiIdentAccess
p5272
(dp5273
g277
S'lineTo'
p5274
sg279
(lp5275
(idelphi
DelphiFunctionEndAccess
p5276
(dp5277
g1111
(lp5278
(idelphi
DelphiAddOp
p5279
(dp5280
g1126
S'+'
sg1128
(idelphi
DelphiIntegerValue
p5281
(dp5282
g65
S'2'
sbsg1151
(i__main__
DelphiIdentAccess
p5283
(dp5284
g277
S'drawRect'
p5285
sg279
(lp5286
(idelphi
DelphiFieldEndAccess
p5287
(dp5288
g1107
S'right'
p5289
sbasbsba(idelphi
DelphiAddOp
p5290
(dp5291
g1126
S'-'
sg1128
(idelphi
DelphiIntegerValue
p5292
(dp5293
g65
S'2'
sbsg1151
(i__main__
DelphiIdentAccess
p5294
(dp5295
g277
S'drawRect'
p5296
sg279
(lp5297
(idelphi
DelphiFieldEndAccess
p5298
(dp5299
g1107
S'bottom'
p5300
sbasbsbasbasbsba(i__main__
DelphiAssignStatement
p5301
(dp5302
g349
Nsg354
(i__main__
DelphiIdentAccess
p5303
(dp5304
g277
S'lineTo'
p5305
sg279
(lp5306
(idelphi
DelphiFunctionEndAccess
p5307
(dp5308
g1111
(lp5309
(idelphi
DelphiAddOp
p5310
(dp5311
g1126
S'+'
sg1128
(idelphi
DelphiIntegerValue
p5312
(dp5313
g65
S'2'
sbsg1151
(i__main__
DelphiIdentAccess
p5314
(dp5315
g277
S'drawRect'
p5316
sg279
(lp5317
(idelphi
DelphiFieldEndAccess
p5318
(dp5319
g1107
S'right'
p5320
sbasbsba(i__main__
DelphiIdentAccess
p5321
(dp5322
g277
S'drawRect'
p5323
sg279
(lp5324
(idelphi
DelphiFieldEndAccess
p5325
(dp5326
g1107
S'top'
p5327
sbasbasbasbsbasbsg1188
(lp5328
(i__main__
DelphiIdentAccess
p5329
(dp5330
g277
S'drawBitmap'
p5331
sg279
(lp5332
(idelphi
DelphiFieldEndAccess
p5333
(dp5334
g1107
S'canvas'
p5335
sbasbasbsbasbsg359
(lp5336
(i__main__
DelphiVarSection
p5337
(dp5338
g1212
I0
sg1213
(lp5339
(idelphi
DelphiVarDecl
p5340
(dp5341
g1217
Nsg1218
(lp5342
S'cText'
p5343
asg51
(i__main__
DelphiArrayType
p5344
(dp5345
g51
(i__main__
DelphiPrimitiveType
p5346
(dp5347
g35
S'char'
p5348
sbsg270
(lp5349
(idelphi
DelphiSubrange
p5350
(dp5351
g274
(idelphi
DelphiIntegerValue
p5352
(dp5353
g65
S'255'
p5354
sbsg281
(idelphi
DelphiIntegerValue
p5355
(dp5356
g65
S'0'
sbsg21
S''
sbasbsbasbasbsbsS'destroy'
p5357
(i__main__
DelphiMethodImplementation
p5358
(dp5359
g323
g226
sg21
g228
sg29
(lp5360
sg325
(lp5361
sg327
(lp5362
sg329
(lp5363
g331
asg332
(dp5364
sg31
S'PdStatsPanel'
p5365
sg32
Nsg337
(lp5366
sg37
I0
sg38
g230
sg339
(i__main__
DelphiBlock
p5367
(dp5368
g342
(idelphi
DelphiCompoundStatement
p5369
(dp5370
g345
(lp5371
(i__main__
DelphiAssignStatement
p5372
(dp5373
g349
Nsg354
(i__main__
DelphiIdentAccess
p5374
(dp5375
g277
S'drawBitmap'
p5376
sg279
(lp5377
(idelphi
DelphiFieldEndAccess
p5378
(dp5379
g1107
S'free'
p5380
sbasbsba(i__main__
DelphiAssignStatement
p5381
(dp5382
g349
(idelphi
DelphiNilValue
p5383
(dp5384
bsg354
(i__main__
DelphiIdentAccess
p5385
(dp5386
g277
S'drawBitmap'
p5387
sg279
(lp5388
sbsba(i__main__
DelphiAssignStatement
p5389
(dp5390
g349
Nsg354
(i__main__
DelphiIdentAccess
p5391
(dp5392
g277
S'statistics'
p5393
sg279
(lp5394
(idelphi
DelphiFieldEndAccess
p5395
(dp5396
g1107
S'free'
p5397
sbasbsba(i__main__
DelphiAssignStatement
p5398
(dp5399
g349
(idelphi
DelphiNilValue
p5400
(dp5401
bsg354
(i__main__
DelphiIdentAccess
p5402
(dp5403
g277
S'statistics'
p5404
sg279
(lp5405
sbsba(i__main__
DelphiAssignStatement
p5406
(dp5407
g349
Nsg354
(idelphi
DelphiInheritedCall
p5408
(dp5409
g277
S'destroy'
p5410
sg1111
Nsbsbasbsg359
(lp5411
sbsbsS'updateplantvalues'
p5412
(i__main__
DelphiMethodImplementation
p5413
(dp5414
g323
g232
sg21
g234
sg29
(lp5415
sg325
(lp5416
sg327
(lp5417
sg329
(lp5418
g331
asg332
(dp5419
sg31
S'PdStatsPanel'
p5420
sg32
Nsg337
(lp5421
sg37
I0
sg38
g91
sg339
(i__main__
DelphiBlock
p5422
(dp5423
g342
(idelphi
DelphiCompoundStatement
p5424
(dp5425
g345
(lp5426
(i__main__
DelphiAssignStatement
p5427
(dp5428
g349
Nsg354
(i__main__
DelphiIdentAccess
p5429
(dp5430
g277
S'updateCurrentValue'
p5431
sg279
(lp5432
(idelphi
DelphiFunctionEndAccess
p5433
(dp5434
g1111
(lp5435
(idelphi
DelphiIntegerValue
p5436
(dp5437
g65
S'0'
sbasbasbsba(i__main__
DelphiAssignStatement
p5438
(dp5439
g349
Nsg354
(i__main__
DelphiIdentAccess
p5440
(dp5441
g277
S'repaint'
p5442
sg279
(lp5443
sbsg1355
(lp5444
S' NOT refresh '
p5445
asbasbsg359
(lp5446
sbsbsS'collapseorexpand'
p5447
(i__main__
DelphiMethodImplementation
p5448
(dp5449
g323
g237
sg21
g239
sg29
(lp5450
(i__main__
DelphiFormalParameter
p5451
(dp5452
g47
Nsg48
(lp5453
S'y'
asg51
(i__main__
DelphiPrimitiveType
p5454
(dp5455
g35
g36
sbsg55
Nsbasg325
(lp5456
sg327
(lp5457
sg329
(lp5458
g331
aS'y'
asg332
(dp5459
S'y'
g5454
ssg31
S'PdStatsPanel'
p5460
sg32
Nsg337
(lp5461
sg37
I0
sg38
g91
sg339
(i__main__
DelphiBlock
p5462
(dp5463
g342
(idelphi
DelphiCompoundStatement
p5464
(dp5465
g345
Nsg1355
(lp5466
S' do nothing '
p5467
asbsg359
(lp5468
sbsbssS'propertyDeclarations'
p5469
(dp5470
sS'variableNamesInDeclaredOrder'
p5471
(lp5472
g14
ag10
ag20
ag18
ag12
ag16
asba(i__main__
DelphiConstSection
p5473
(dp5474
S'constDeclList'
p5475
(lp5476
(idelphi
DelphiConstDeclaration
p5477
(dp5478
g1217
(idelphi
DelphiIntegerValue
p5479
(dp5480
g65
S'0'
sbsg277
S'kLive'
p5481
sg51
(idelphi
DelphiPrimitiveType
p5482
(dp5483
g35
S'UNDEFINED_NEEDS_CALCULATION'
p5484
sbsba(idelphi
DelphiConstDeclaration
p5485
(dp5486
g1217
(idelphi
DelphiIntegerValue
p5487
(dp5488
g65
S'1'
sbsg277
S'kDead'
p5489
sg51
(idelphi
DelphiPrimitiveType
p5490
(dp5491
g35
g5484
sbsba(idelphi
DelphiConstDeclaration
p5492
(dp5493
g1217
(idelphi
DelphiIntegerValue
p5494
(dp5495
g65
S'2'
sbsg277
S'kBothLiveAndDead'
p5496
sg51
(idelphi
DelphiPrimitiveType
p5497
(dp5498
g35
g5484
sbsbasg1212
I1
sba(i__main__
DelphiConstSection
p5499
(dp5500
g5475
(lp5501
(idelphi
DelphiConstDeclaration
p5502
(dp5503
g1217
(idelphi
DelphiIntegerValue
p5504
(dp5505
g65
S'50'
p5506
sbsg277
S'kMinGraphWidth'
p5507
sg51
(idelphi
DelphiPrimitiveType
p5508
(dp5509
g35
g5484
sbsbasg1212
I1
sbasS'includedUnits'
p5510
NsS'implementationUses'
p5511
(lp5512
S'SysUtils'
p5513
aS'Dialogs'
p5514
aS'usupport'
p5515
aS'umath'
p5516
aS'udomain'
p5517
aS'ubmpsupport'
p5518
asg21
S'Ustats'
p5519
sS'constSections'
p5520
(lp5521
g5473
ag5499
asS'globalsInProperCase'
p5522
NsS'interfaceUses'
p5523
(lp5524
S'delphi_compatability'
p5525
aS'WinTypes'
p5526
aS'WinProcs'
p5527
aS'Controls'
p5528
aS'ExtCtrls'
p5529
aS'Graphics'
p5530
aS'Forms'
p5531
aS'Classes'
p5532
aS'uplant'
p5533
aS'uppanel'
p5534
aS'utravers'
p5535
asS'finalCommentToken'
p5536
(i__main__
PassStatement
p5537
(dp5538
g359
(lp5539
sbsS'varSections'
p5540
(lp5541
sS'globals'
p5542
NsS'originalFileName'
p5543
S'../../PlantStudioInPython/converted_source/ustats.pas'
p5544
sS'proceduralImplementations'
p5545
(dp5546
sS'fileName'
p5547
S'/Users/pdf/Documents/workspace/PlantStudioInPython/converted_source/ustats.pas'
p5548
sS'proceduralDeclarations'
p5549
(dp5550
sS'types'
p5551
(dp5552
S'pdstatspanel'
p5553
g5
ssb.