(i__main__
DelphiUnit
p1
(dp2
S'sectionsInOrderDefined'
p3
(lp4
(i__main__
DelphiConstSection
p5
(dp6
S'constDeclList'
p7
(lp8
(idelphi
DelphiConstDeclaration
p9
(dp10
S'constExpression'
p11
(i__main__
DelphiIdentAccess
p12
(dp13
S'ident'
p14
S'true'
p15
sS'endAccessList'
p16
(lp17
sbsg14
S'kRecalculateScale'
p18
sS'theType'
p19
(idelphi
DelphiPrimitiveType
p20
(dp21
S'typeName'
p22
S'UNDEFINED_NEEDS_CALCULATION'
p23
sbsba(idelphi
DelphiConstDeclaration
p24
(dp25
g11
(i__main__
DelphiIdentAccess
p26
(dp27
g14
S'false'
p28
sg16
(lp29
sbsg14
S'kDontRecalculateScale'
p30
sg19
(idelphi
DelphiPrimitiveType
p31
(dp32
g22
g23
sbsba(idelphi
DelphiConstDeclaration
p33
(dp34
g11
(idelphi
DelphiIntegerValue
p35
(dp36
S'string'
p37
S'100'
p38
sbsg14
S'kMaxTimeSeriesStages'
p39
sg19
(idelphi
DelphiPrimitiveType
p40
(dp41
g22
g23
sbsbasS'atTopLevel'
p42
I1
sba(i__main__
DelphiClass
p43
(dp44
S'variableNamesInProperCase'
p45
(dp46
S'timeseriesmenusendcopy'
p47
S'TimeSeriesMenuSendCopy'
p48
sS'timeseriespopupmenu'
p49
S'TimeSeriesPopupMenu'
p50
sS'timeseriesmenubreed'
p51
S'TimeSeriesMenuBreed'
p52
sS'parentplant'
p53
S'parentPlant'
p54
sS'timeseriesmenuoptionsstages'
p55
S'TimeSeriesMenuOptionsStages'
p56
sS'timeseriesmenucopy'
p57
S'TimeSeriesMenuCopy'
p58
sS'timeseriesmenuhelp'
p59
S'TimeSeriesMenuHelp'
p60
sS'drawing'
p61
S'drawing'
p62
sS'timeseriesmenuoptionsdrawas'
p63
S'TimeSeriesMenuOptionsDrawAs'
p64
sS'internalchange'
p65
S'internalChange'
p66
sS'dragplantstartpoint'
p67
S'dragPlantStartPoint'
p68
sS'drawprogressmax'
p69
S'drawProgressMax'
p70
sS'timeseriespopupmenusendcopy'
p71
S'TimeSeriesPopupMenuSendCopy'
p72
sS'timeseriesmenuoptionsmediumdraw'
p73
S'TimeSeriesMenuOptionsMediumDraw'
p74
sS'ages'
p75
S'ages'
p76
sS'needtoredrawfromchangetodrawoptions'
p77
S'needToRedrawFromChangeToDrawOptions'
p78
sS'timeseriesmenudelete'
p79
S'TimeSeriesMenuDelete'
p80
sS'timeseriesmenuredo'
p81
S'TimeSeriesMenuRedo'
p82
sS'emptywarningpanel'
p83
S'emptyWarningPanel'
p84
sS'timeseriesmenuundoredolist'
p85
S'TimeSeriesMenuUndoRedoList'
p86
sS'timeseriesmenuoptionscustomdraw'
p87
S'TimeSeriesMenuOptionsCustomDraw'
p88
sS'numtimeseriesplantscopiedthissession'
p89
S'numTimeSeriesPlantsCopiedThisSession'
p90
sS'label1'
p91
S'Label1'
p92
sS'timeseriesmenuhelptopics'
p93
S'TimeSeriesMenuHelpTopics'
p94
sS'selectedplant'
p95
S'selectedPlant'
p96
sS'timeseriesmenuoptions'
p97
S'TimeSeriesMenuOptions'
p98
sS'grid'
p99
S'grid'
p100
sS'timeseriesmenuundo'
p101
S'TimeSeriesMenuUndo'
p102
sS'timeseriesmenuhelpontimeseries'
p103
S'TimeSeriesMenuHelpOnTimeSeries'
p104
sS'resizing'
p105
S'resizing'
p106
sS'plants'
p107
S'plants'
p108
sS'timeseriesmenupaste'
p109
S'TimeSeriesMenuPaste'
p110
sS'numstages'
p111
S'numStages'
p112
sS'timeseriespopupmenubreed'
p113
S'TimeSeriesPopupMenuBreed'
p114
sS'timeseriesmenuoptionsfastdraw'
p115
S'TimeSeriesMenuOptionsFastDraw'
p116
sS'timeseriespopupmenupaste'
p117
S'TimeSeriesPopupMenuPaste'
p118
sS'mainmenu1'
p119
S'MainMenu1'
p120
sS'timeseriesmenuedit'
p121
S'TimeSeriesMenuEdit'
p122
sS'timeseriesmenuoptionsbestdraw'
p123
S'TimeSeriesMenuOptionsBestDraw'
p124
sS'percentsofmaxage'
p125
S'percentsOfMaxAge'
p126
sS'n1'
p127
S'N1'
p128
sS'n2'
p129
S'N2'
p130
sS'n3'
p131
S'N3'
p132
sS'n4'
p133
S'N4'
p134
sS'n5'
p135
S'N5'
p136
sS'timeseriespopupmenucopy'
p137
S'TimeSeriesPopupMenuCopy'
p138
ssS'name'
p139
S'TTimeSeriesForm'
p140
sS'methodDeclarations'
p141
(dp142
S'timeseriesmenuoptionsstagesclick'
p143
(i__main__
DelphiMethodDeclaration
p144
(dp145
g139
S'TimeSeriesMenuOptionsStagesClick'
p146
sS'formalParameters'
p147
(lp148
(i__main__
DelphiFormalParameter
p149
(dp150
S'initialValue'
p151
NsS'names'
p152
(lp153
S'Sender'
p154
asg19
(i__main__
DelphiNamedType
p155
(dp156
g22
S'TObject'
p157
sS'unitDefinedIn'
p158
g1
sS'unitName'
p159
NsbsS'parameterVariety'
p160
NsbasS'className'
p161
g140
sS'resultType'
p162
NsS'isClassMethod'
p163
I0
sS'methodType'
p164
S'procedure'
p165
sbsS'timeseriesmenuoptionsbestdrawclick'
p166
(i__main__
DelphiMethodDeclaration
p167
(dp168
g139
S'TimeSeriesMenuOptionsBestDrawClick'
p169
sg147
(lp170
(i__main__
DelphiFormalParameter
p171
(dp172
g151
Nsg152
(lp173
S'Sender'
p174
asg19
(i__main__
DelphiNamedType
p175
(dp176
g22
S'TObject'
p177
sg158
g1
sg159
Nsbsg160
Nsbasg161
g140
sg162
Nsg163
I0
sg164
g165
sbsS'timeseriesmenuoptionsmediumdrawclick'
p178
(i__main__
DelphiMethodDeclaration
p179
(dp180
g139
S'TimeSeriesMenuOptionsMediumDrawClick'
p181
sg147
(lp182
(i__main__
DelphiFormalParameter
p183
(dp184
g151
Nsg152
(lp185
S'Sender'
p186
asg19
(i__main__
DelphiNamedType
p187
(dp188
g22
S'TObject'
p189
sg158
g1
sg159
Nsbsg160
Nsbasg161
g140
sg162
Nsg163
I0
sg164
g165
sbsS'initializewithplant'
p190
(i__main__
DelphiMethodDeclaration
p191
(dp192
g139
S'initializeWithPlant'
p193
sg147
(lp194
(i__main__
DelphiFormalParameter
p195
(dp196
g151
Nsg152
(lp197
S'aPlant'
p198
asg19
(i__main__
DelphiNamedType
p199
(dp200
g22
S'PdPlant'
p201
sg158
g1
sg159
Nsbsg160
Nsba(i__main__
DelphiFormalParameter
p202
(dp203
g151
Nsg152
(lp204
S'drawNow'
p205
asg19
(i__main__
DelphiPrimitiveType
p206
(dp207
g22
S'boolean'
p208
sbsg160
Nsbasg161
g140
sg162
Nsg163
I0
sg164
g165
sS'commentLinesBefore'
p209
(lp210
S' Public declarations '
p211
asbsS'timeseriesmenuhelptopicsclick'
p212
(i__main__
DelphiMethodDeclaration
p213
(dp214
g139
S'TimeSeriesMenuHelpTopicsClick'
p215
sg147
(lp216
(i__main__
DelphiFormalParameter
p217
(dp218
g151
Nsg152
(lp219
S'Sender'
p220
asg19
(i__main__
DelphiNamedType
p221
(dp222
g22
S'TObject'
p223
sg158
g1
sg159
Nsbsg160
Nsbasg161
g140
sg162
Nsg163
I0
sg164
g165
sbsS'getpalette'
p224
(i__main__
DelphiMethodDeclaration
p225
(dp226
g139
S'GetPalette'
p227
sg147
(lp228
sg161
g140
sg162
(i__main__
DelphiNamedType
p229
(dp230
g22
S'HPALETTE'
p231
sg158
g1
sg159
Nsbsg163
I0
sg164
S'function'
p232
sbsS'updateforchangetodomainoptions'
p233
(i__main__
DelphiMethodDeclaration
p234
(dp235
g139
S'updateForChangeToDomainOptions'
p236
sg147
(lp237
sg161
g140
sg162
Nsg163
I0
sg164
g165
sbsS'timeseriespopupmenucopyclick'
p238
(i__main__
DelphiMethodDeclaration
p239
(dp240
g139
S'TimeSeriesPopupMenuCopyClick'
p241
sg147
(lp242
(i__main__
DelphiFormalParameter
p243
(dp244
g151
Nsg152
(lp245
S'Sender'
p246
asg19
(i__main__
DelphiNamedType
p247
(dp248
g22
S'TObject'
p249
sg158
g1
sg159
Nsbsg160
Nsbasg161
g140
sg162
Nsg163
I0
sg164
g165
sbsS'gridenddrag'
p250
(i__main__
DelphiMethodDeclaration
p251
(dp252
g139
S'gridEndDrag'
p253
sg147
(lp254
(i__main__
DelphiFormalParameter
p255
(dp256
g151
Nsg152
(lp257
S'Sender'
p258
aS'Target'
p259
asg19
(i__main__
DelphiNamedType
p260
(dp261
g22
S'TObject'
p262
sg158
g1
sg159
Nsbsg160
Nsba(i__main__
DelphiFormalParameter
p263
(dp264
g151
Nsg152
(lp265
S'X'
aS'Y'
asg19
(i__main__
DelphiPrimitiveType
p266
(dp267
g22
S'integer'
p268
sbsg160
Nsbasg161
g140
sg162
Nsg163
I0
sg164
g165
sbsS'timeseriesmenuoptionscustomdrawclick'
p269
(i__main__
DelphiMethodDeclaration
p270
(dp271
g139
S'TimeSeriesMenuOptionsCustomDrawClick'
p272
sg147
(lp273
(i__main__
DelphiFormalParameter
p274
(dp275
g151
Nsg152
(lp276
S'Sender'
p277
asg19
(i__main__
DelphiNamedType
p278
(dp279
g22
S'TObject'
p280
sg158
g1
sg159
Nsbsg160
Nsbasg161
g140
sg162
Nsg163
I0
sg164
g165
sbsS'gridmousedown'
p281
(i__main__
DelphiMethodDeclaration
p282
(dp283
g139
S'gridMouseDown'
p284
sg147
(lp285
(i__main__
DelphiFormalParameter
p286
(dp287
g151
Nsg152
(lp288
S'Sender'
p289
asg19
(i__main__
DelphiNamedType
p290
(dp291
g22
S'TObject'
p292
sg158
g1
sg159
Nsbsg160
Nsba(i__main__
DelphiFormalParameter
p293
(dp294
g151
Nsg152
(lp295
S'Button'
p296
asg19
(i__main__
DelphiNamedType
p297
(dp298
g22
S'TMouseButton'
p299
sg158
g1
sg159
Nsbsg160
Nsba(i__main__
DelphiFormalParameter
p300
(dp301
g151
Nsg152
(lp302
S'Shift'
p303
asg19
(i__main__
DelphiNamedType
p304
(dp305
g22
S'TShiftState'
p306
sg158
g1
sg159
Nsbsg160
Nsba(i__main__
DelphiFormalParameter
p307
(dp308
g151
Nsg152
(lp309
S'X'
aS'Y'
asg19
(i__main__
DelphiPrimitiveType
p310
(dp311
g22
g268
sbsg160
Nsbasg161
g140
sg162
Nsg163
I0
sg164
g165
sbsS'timeseriespopupmenupasteclick'
p312
(i__main__
DelphiMethodDeclaration
p313
(dp314
g139
S'TimeSeriesPopupMenuPasteClick'
p315
sg147
(lp316
(i__main__
DelphiFormalParameter
p317
(dp318
g151
Nsg152
(lp319
S'Sender'
p320
asg19
(i__main__
DelphiNamedType
p321
(dp322
g22
S'TObject'
p323
sg158
g1
sg159
Nsbsg160
Nsbasg161
g140
sg162
Nsg163
I0
sg164
g165
sbsS'timeseriesmenubreedclick'
p324
(i__main__
DelphiMethodDeclaration
p325
(dp326
g139
S'TimeSeriesMenuBreedClick'
p327
sg147
(lp328
(i__main__
DelphiFormalParameter
p329
(dp330
g151
Nsg152
(lp331
S'Sender'
p332
asg19
(i__main__
DelphiNamedType
p333
(dp334
g22
S'TObject'
p335
sg158
g1
sg159
Nsbsg160
Nsbasg161
g140
sg162
Nsg163
I0
sg164
g165
sbsS'timeseriesmenudeleteclick'
p336
(i__main__
DelphiMethodDeclaration
p337
(dp338
g139
S'TimeSeriesMenuDeleteClick'
p339
sg147
(lp340
(i__main__
DelphiFormalParameter
p341
(dp342
g151
Nsg152
(lp343
S'Sender'
p344
asg19
(i__main__
DelphiNamedType
p345
(dp346
g22
S'TObject'
p347
sg158
g1
sg159
Nsbsg160
Nsbasg161
g140
sg162
Nsg163
I0
sg164
g165
sbsS'timeseriesmenuundoredolistclick'
p348
(i__main__
DelphiMethodDeclaration
p349
(dp350
g139
S'TimeSeriesMenuUndoRedoListClick'
p351
sg147
(lp352
(i__main__
DelphiFormalParameter
p353
(dp354
g151
Nsg152
(lp355
S'Sender'
p356
asg19
(i__main__
DelphiNamedType
p357
(dp358
g22
S'TObject'
p359
sg158
g1
sg159
Nsbsg160
Nsbasg161
g140
sg162
Nsg163
I0
sg164
g165
sbsS'timeseriesmenuredoclick'
p360
(i__main__
DelphiMethodDeclaration
p361
(dp362
g139
S'TimeSeriesMenuRedoClick'
p363
sg147
(lp364
(i__main__
DelphiFormalParameter
p365
(dp366
g151
Nsg152
(lp367
S'Sender'
p368
asg19
(i__main__
DelphiNamedType
p369
(dp370
g22
S'TObject'
p371
sg158
g1
sg159
Nsbsg160
Nsbasg161
g140
sg162
Nsg163
I0
sg164
g165
sbsS'updatemenusforchangetoselectedplant'
p372
(i__main__
DelphiMethodDeclaration
p373
(dp374
g139
S'updateMenusForChangeToSelectedPlant'
p375
sg147
(lp376
sg161
g140
sg162
Nsg163
I0
sg164
g165
sbsS'plantatmouse'
p377
(i__main__
DelphiMethodDeclaration
p378
(dp379
g139
S'plantAtMouse'
p380
sg147
(lp381
(i__main__
DelphiFormalParameter
p382
(dp383
g151
Nsg152
(lp384
S'x'
aS'y'
asg19
(i__main__
DelphiPrimitiveType
p385
(dp386
g22
S'smallint'
p387
sbsg160
Nsbasg161
g140
sg162
(i__main__
DelphiNamedType
p388
(dp389
g22
S'PdPlant'
p390
sg158
g1
sg159
Nsbsg163
I0
sg164
g232
sbsS'palettechanged'
p391
(i__main__
DelphiMethodDeclaration
p392
(dp393
g139
S'PaletteChanged'
p394
sg147
(lp395
(i__main__
DelphiFormalParameter
p396
(dp397
g151
Nsg152
(lp398
S'Foreground'
p399
asg19
(i__main__
DelphiPrimitiveType
p400
(dp401
g22
g208
sbsg160
Nsbasg161
g140
sg162
(i__main__
DelphiPrimitiveType
p402
(dp403
g22
g208
sbsg163
I0
sg164
g232
sbsS'plantforindex'
p404
(i__main__
DelphiMethodDeclaration
p405
(dp406
g139
S'plantForIndex'
p407
sg147
(lp408
(i__main__
DelphiFormalParameter
p409
(dp410
g151
Nsg152
(lp411
S'index'
p412
asg19
(i__main__
DelphiPrimitiveType
p413
(dp414
g22
g387
sbsg160
Nsbasg161
g140
sg162
(i__main__
DelphiNamedType
p415
(dp416
g22
S'PdPlant'
p417
sg158
g1
sg159
Nsbsg163
I0
sg164
g232
sbsS'timeseriesmenuundoclick'
p418
(i__main__
DelphiMethodDeclaration
p419
(dp420
g139
S'TimeSeriesMenuUndoClick'
p421
sg147
(lp422
(i__main__
DelphiFormalParameter
p423
(dp424
g151
Nsg152
(lp425
S'Sender'
p426
asg19
(i__main__
DelphiNamedType
p427
(dp428
g22
S'TObject'
p429
sg158
g1
sg159
Nsbsg160
Nsbasg161
g140
sg162
Nsg163
I0
sg164
g165
sbsS'timeseriesmenuoptionsfastdrawclick'
p430
(i__main__
DelphiMethodDeclaration
p431
(dp432
g139
S'TimeSeriesMenuOptionsFastDrawClick'
p433
sg147
(lp434
(i__main__
DelphiFormalParameter
p435
(dp436
g151
Nsg152
(lp437
S'Sender'
p438
asg19
(i__main__
DelphiNamedType
p439
(dp440
g22
S'TObject'
p441
sg158
g1
sg159
Nsbsg160
Nsbasg161
g140
sg162
Nsg163
I0
sg164
g165
sbsS'griddragover'
p442
(i__main__
DelphiMethodDeclaration
p443
(dp444
g139
S'gridDragOver'
p445
sg147
(lp446
(i__main__
DelphiFormalParameter
p447
(dp448
g151
Nsg152
(lp449
S'Sender'
p450
aS'Source'
p451
asg19
(i__main__
DelphiNamedType
p452
(dp453
g22
S'TObject'
p454
sg158
g1
sg159
Nsbsg160
Nsba(i__main__
DelphiFormalParameter
p455
(dp456
g151
Nsg152
(lp457
S'X'
aS'Y'
asg19
(i__main__
DelphiPrimitiveType
p458
(dp459
g22
g268
sbsg160
Nsba(i__main__
DelphiFormalParameter
p460
(dp461
g151
Nsg152
(lp462
S'State'
p463
asg19
(i__main__
DelphiNamedType
p464
(dp465
g22
S'TDragState'
p466
sg158
g1
sg159
Nsbsg160
Nsba(i__main__
DelphiFormalParameter
p467
(dp468
g151
Nsg152
(lp469
S'Accept'
p470
asg19
(i__main__
DelphiPrimitiveType
p471
(dp472
g22
g208
sbsg160
S'var'
p473
sbasg161
g140
sg162
Nsg163
I0
sg164
g165
sbsS'invalidategridcell'
p474
(i__main__
DelphiMethodDeclaration
p475
(dp476
g139
S'invalidateGridCell'
p477
sg147
(lp478
(i__main__
DelphiFormalParameter
p479
(dp480
g151
Nsg152
(lp481
S'column'
p482
asg19
(i__main__
DelphiPrimitiveType
p483
(dp484
g22
S'longint'
p485
sbsg160
Nsbasg161
g140
sg162
Nsg163
I0
sg164
g165
sbsS'wmgetminmaxinfo'
p486
(i__main__
DelphiMethodDeclaration
p487
(dp488
g139
S'WMGetMinMaxInfo'
p489
sg147
(lp490
(i__main__
DelphiFormalParameter
p491
(dp492
g151
Nsg152
(lp493
S'MSG'
p494
asg19
(i__main__
DelphiNamedType
p495
(dp496
g22
S'Tmessage'
p497
sg158
g1
sg159
Nsbsg160
g473
sbasg161
g140
sg162
Nsg163
I0
sg164
g165
sg209
(lp498
S' Private declarations '
p499
asbsS'redrawplants'
p500
(i__main__
DelphiMethodDeclaration
p501
(dp502
g139
S'redrawPlants'
p503
sg147
(lp504
sg161
g140
sg162
Nsg163
I0
sg164
g165
sbsS'updatepastemenuforclipboardcontents'
p505
(i__main__
DelphiMethodDeclaration
p506
(dp507
g139
S'updatePasteMenuForClipboardContents'
p508
sg147
(lp509
sg161
g140
sg162
Nsg163
I0
sg164
g165
sbsS'timeseriesmenuhelpontimeseriesclick'
p510
(i__main__
DelphiMethodDeclaration
p511
(dp512
g139
S'TimeSeriesMenuHelpOnTimeSeriesClick'
p513
sg147
(lp514
(i__main__
DelphiFormalParameter
p515
(dp516
g151
Nsg152
(lp517
S'Sender'
p518
asg19
(i__main__
DelphiNamedType
p519
(dp520
g22
S'TObject'
p521
sg158
g1
sg159
Nsbsg160
Nsbasg161
g140
sg162
Nsg163
I0
sg164
g165
sbsS'timeseriesmenusendcopyclick'
p522
(i__main__
DelphiMethodDeclaration
p523
(dp524
g139
S'TimeSeriesMenuSendCopyClick'
p525
sg147
(lp526
(i__main__
DelphiFormalParameter
p527
(dp528
g151
Nsg152
(lp529
S'Sender'
p530
asg19
(i__main__
DelphiNamedType
p531
(dp532
g22
S'TObject'
p533
sg158
g1
sg159
Nsbsg160
Nsbasg161
g140
sg162
Nsg163
I0
sg164
g165
sbsS'griddrawcell'
p534
(i__main__
DelphiMethodDeclaration
p535
(dp536
g139
S'gridDrawCell'
p537
sg147
(lp538
(i__main__
DelphiFormalParameter
p539
(dp540
g151
Nsg152
(lp541
S'Sender'
p542
asg19
(i__main__
DelphiNamedType
p543
(dp544
g22
S'TObject'
p545
sg158
g1
sg159
Nsbsg160
Nsba(i__main__
DelphiFormalParameter
p546
(dp547
g151
Nsg152
(lp548
S'Col'
p549
aS'Row'
p550
asg19
(i__main__
DelphiPrimitiveType
p551
(dp552
g22
g485
sbsg160
Nsba(i__main__
DelphiFormalParameter
p553
(dp554
g151
Nsg152
(lp555
S'Rect'
p556
asg19
(i__main__
DelphiNamedType
p557
(dp558
g22
S'TRect'
p559
sg158
g1
sg159
Nsbsg160
Nsba(i__main__
DelphiFormalParameter
p560
(dp561
g151
Nsg152
(lp562
S'State'
p563
asg19
(i__main__
DelphiNamedType
p564
(dp565
g22
S'TGridDrawState'
p566
sg158
g1
sg159
Nsbsg160
Nsbasg161
g140
sg162
Nsg163
I0
sg164
g165
sbsS'formactivate'
p567
(i__main__
DelphiMethodDeclaration
p568
(dp569
g139
S'FormActivate'
p570
sg147
(lp571
(i__main__
DelphiFormalParameter
p572
(dp573
g151
Nsg152
(lp574
S'Sender'
p575
asg19
(i__main__
DelphiNamedType
p576
(dp577
g22
S'TObject'
p578
sg158
g1
sg159
Nsbsg160
Nsbasg161
g140
sg162
Nsg163
I0
sg164
g165
sbsS'formcreate'
p579
(i__main__
DelphiMethodDeclaration
p580
(dp581
g139
S'FormCreate'
p582
sg147
(lp583
(i__main__
DelphiFormalParameter
p584
(dp585
g151
Nsg152
(lp586
S'Sender'
p587
asg19
(i__main__
DelphiNamedType
p588
(dp589
g22
S'TObject'
p590
sg158
g1
sg159
Nsbsg160
Nsbasg161
g140
sg162
Nsg163
I0
sg164
g165
sbsS'copyplanttopoint'
p591
(i__main__
DelphiMethodDeclaration
p592
(dp593
g139
S'copyPlantToPoint'
p594
sg147
(lp595
(i__main__
DelphiFormalParameter
p596
(dp597
g151
Nsg152
(lp598
S'aPlant'
p599
asg19
(i__main__
DelphiNamedType
p600
(dp601
g22
S'PdPlant'
p602
sg158
g1
sg159
Nsbsg160
Nsba(i__main__
DelphiFormalParameter
p603
(dp604
g151
Nsg152
(lp605
S'x'
aS'y'
asg19
(i__main__
DelphiPrimitiveType
p606
(dp607
g22
g268
sbsg160
Nsbasg161
g140
sg162
Nsg163
I0
sg164
g165
sbsS'timeseriesmenucopyclick'
p608
(i__main__
DelphiMethodDeclaration
p609
(dp610
g139
S'TimeSeriesMenuCopyClick'
p611
sg147
(lp612
(i__main__
DelphiFormalParameter
p613
(dp614
g151
Nsg152
(lp615
S'Sender'
p616
asg19
(i__main__
DelphiNamedType
p617
(dp618
g22
S'TObject'
p619
sg158
g1
sg159
Nsbsg160
Nsbasg161
g140
sg162
Nsg163
I0
sg164
g165
sbsS'formdestroy'
p620
(i__main__
DelphiMethodDeclaration
p621
(dp622
g139
S'FormDestroy'
p623
sg147
(lp624
(i__main__
DelphiFormalParameter
p625
(dp626
g151
Nsg152
(lp627
S'Sender'
p628
asg19
(i__main__
DelphiNamedType
p629
(dp630
g22
S'TObject'
p631
sg158
g1
sg159
Nsbsg160
Nsbasg161
g140
sg162
Nsg163
I0
sg164
g165
sbsS'formresize'
p632
(i__main__
DelphiMethodDeclaration
p633
(dp634
g139
S'FormResize'
p635
sg147
(lp636
(i__main__
DelphiFormalParameter
p637
(dp638
g151
Nsg152
(lp639
S'Sender'
p640
asg19
(i__main__
DelphiNamedType
p641
(dp642
g22
S'TObject'
p643
sg158
g1
sg159
Nsbsg160
Nsbasg161
g140
sg162
Nsg163
I0
sg164
g165
sbsS'recalculatecommondrawingscaleandposition'
p644
(i__main__
DelphiMethodDeclaration
p645
(dp646
g139
S'recalculateCommonDrawingScaleAndPosition'
p647
sg147
(lp648
sg161
g140
sg162
Nsg163
I0
sg164
g165
sbsS'updateplantsfromparent'
p649
(i__main__
DelphiMethodDeclaration
p650
(dp651
g139
S'updatePlantsFromParent'
p652
sg147
(lp653
(i__main__
DelphiFormalParameter
p654
(dp655
g151
Nsg152
(lp656
S'aPlant'
p657
asg19
(i__main__
DelphiNamedType
p658
(dp659
g22
S'PdPlant'
p660
sg158
g1
sg159
Nsbsg160
Nsbasg161
g140
sg162
Nsg163
I0
sg164
g165
sbsS'timeseriesmenupasteclick'
p661
(i__main__
DelphiMethodDeclaration
p662
(dp663
g139
S'TimeSeriesMenuPasteClick'
p664
sg147
(lp665
(i__main__
DelphiFormalParameter
p666
(dp667
g151
Nsg152
(lp668
S'Sender'
p669
asg19
(i__main__
DelphiNamedType
p670
(dp671
g22
S'TObject'
p672
sg158
g1
sg159
Nsbsg160
Nsbasg161
g140
sg162
Nsg163
I0
sg164
g165
sbsS'updateforchangetoplants'
p673
(i__main__
DelphiMethodDeclaration
p674
(dp675
g139
S'updateForChangeToPlants'
p676
sg147
(lp677
(i__main__
DelphiFormalParameter
p678
(dp679
g151
Nsg152
(lp680
S'recalcScale'
p681
asg19
(i__main__
DelphiPrimitiveType
p682
(dp683
g22
g208
sbsg160
Nsbasg161
g140
sg162
Nsg163
I0
sg164
g165
sbsS'timeseriespopupmenubreedclick'
p684
(i__main__
DelphiMethodDeclaration
p685
(dp686
g139
S'TimeSeriesPopupMenuBreedClick'
p687
sg147
(lp688
(i__main__
DelphiFormalParameter
p689
(dp690
g151
Nsg152
(lp691
S'Sender'
p692
asg19
(i__main__
DelphiNamedType
p693
(dp694
g22
S'TObject'
p695
sg158
g1
sg159
Nsbsg160
Nsbasg161
g140
sg162
Nsg163
I0
sg164
g165
sbsS'updatefornewnumberofstages'
p696
(i__main__
DelphiMethodDeclaration
p697
(dp698
g139
S'updateForNewNumberOfStages'
p699
sg147
(lp700
sg161
g140
sg162
Nsg163
I0
sg164
g165
sbssS'superclassNamedTypes'
p701
(lp702
(i__main__
DelphiNamedType
p703
(dp704
g22
S'PdForm'
p705
sg158
g1
sg159
NsbasS'variableNames'
p706
(dp707
S'timeseriesmenusendcopy'
p708
(i__main__
DelphiNamedType
p709
(dp710
g22
S'TMenuItem'
p711
sg158
g1
sg159
NsbsS'timeseriespopupmenu'
p712
(i__main__
DelphiNamedType
p713
(dp714
g22
S'TPopupMenu'
p715
sg158
g1
sg159
NsbsS'timeseriesmenubreed'
p716
(i__main__
DelphiNamedType
p717
(dp718
g22
S'TMenuItem'
p719
sg158
g1
sg159
NsbsS'parentplant'
p720
(i__main__
DelphiNamedType
p721
(dp722
g22
S'PdPlant'
p723
sg158
g1
sg159
NsbsS'timeseriesmenuoptionsstages'
p724
(i__main__
DelphiNamedType
p725
(dp726
g22
S'TMenuItem'
p727
sg158
g1
sg159
NsbsS'timeseriesmenucopy'
p728
(i__main__
DelphiNamedType
p729
(dp730
g22
S'TMenuItem'
p731
sg158
g1
sg159
NsbsS'timeseriesmenuhelp'
p732
(i__main__
DelphiNamedType
p733
(dp734
g22
S'TMenuItem'
p735
sg158
g1
sg159
NsbsS'drawing'
p736
(i__main__
DelphiPrimitiveType
p737
(dp738
g22
g208
sbsS'timeseriesmenuoptionsdrawas'
p739
(i__main__
DelphiNamedType
p740
(dp741
g22
S'TMenuItem'
p742
sg158
g1
sg159
NsbsS'internalchange'
p743
(i__main__
DelphiPrimitiveType
p744
(dp745
g22
g208
sbsS'dragplantstartpoint'
p746
(i__main__
DelphiNamedType
p747
(dp748
g22
S'TPoint'
p749
sg158
g1
sg159
NsbsS'drawprogressmax'
p750
(i__main__
DelphiPrimitiveType
p751
(dp752
g22
g485
sbsS'timeseriespopupmenusendcopy'
p753
(i__main__
DelphiNamedType
p754
(dp755
g22
S'TMenuItem'
p756
sg158
g1
sg159
NsbsS'timeseriesmenuoptionsmediumdraw'
p757
(i__main__
DelphiNamedType
p758
(dp759
g22
S'TMenuItem'
p760
sg158
g1
sg159
NsbsS'ages'
p761
(i__main__
DelphiArrayType
p762
(dp763
g19
(i__main__
DelphiPrimitiveType
p764
(dp765
g22
g387
sbsS'sizes'
p766
(lp767
(idelphi
DelphiSubrange
p768
(dp769
S'high'
p770
(i__main__
DelphiIdentAccess
p771
(dp772
g14
S'kMaxTimeSeriesStages'
p773
sg16
(lp774
sbsS'low'
p775
(idelphi
DelphiIntegerValue
p776
(dp777
g37
S'0'
sbsg139
S''
sbasbsS'needtoredrawfromchangetodrawoptions'
p778
(i__main__
DelphiPrimitiveType
p779
(dp780
g22
g208
sbsS'timeseriesmenudelete'
p781
(i__main__
DelphiNamedType
p782
(dp783
g22
S'TMenuItem'
p784
sg158
g1
sg159
NsbsS'timeseriesmenuredo'
p785
(i__main__
DelphiNamedType
p786
(dp787
g22
S'TMenuItem'
p788
sg158
g1
sg159
NsbsS'emptywarningpanel'
p789
(i__main__
DelphiNamedType
p790
(dp791
g22
S'TPanel'
p792
sg158
g1
sg159
NsbsS'timeseriesmenuundoredolist'
p793
(i__main__
DelphiNamedType
p794
(dp795
g22
S'TMenuItem'
p796
sg158
g1
sg159
NsbsS'timeseriesmenuoptionscustomdraw'
p797
(i__main__
DelphiNamedType
p798
(dp799
g22
S'TMenuItem'
p800
sg158
g1
sg159
NsbsS'numtimeseriesplantscopiedthissession'
p801
(i__main__
DelphiPrimitiveType
p802
(dp803
g22
g387
sbsS'label1'
p804
(i__main__
DelphiNamedType
p805
(dp806
g22
S'TLabel'
p807
sg158
g1
sg159
NsbsS'timeseriesmenuhelptopics'
p808
(i__main__
DelphiNamedType
p809
(dp810
g22
S'TMenuItem'
p811
sg158
g1
sg159
NsbsS'selectedplant'
p812
(i__main__
DelphiNamedType
p813
(dp814
g22
S'PdPlant'
p815
sg158
g1
sg159
NsbsS'timeseriesmenuoptions'
p816
(i__main__
DelphiNamedType
p817
(dp818
g22
S'TMenuItem'
p819
sg158
g1
sg159
NsbsS'grid'
p820
(i__main__
DelphiNamedType
p821
(dp822
g22
S'TDrawGrid'
p823
sg158
g1
sg159
NsbsS'timeseriesmenuundo'
p824
(i__main__
DelphiNamedType
p825
(dp826
g22
S'TMenuItem'
p827
sg158
g1
sg159
NsbsS'timeseriesmenuhelpontimeseries'
p828
(i__main__
DelphiNamedType
p829
(dp830
g22
S'TMenuItem'
p831
sg158
g1
sg159
NsbsS'resizing'
p832
(i__main__
DelphiPrimitiveType
p833
(dp834
g22
g208
sbsS'plants'
p835
(i__main__
DelphiNamedType
p836
(dp837
g22
S'TListCollection'
p838
sg158
g1
sg159
NsbsS'timeseriesmenupaste'
p839
(i__main__
DelphiNamedType
p840
(dp841
g22
S'TMenuItem'
p842
sg158
g1
sg159
NsbsS'numstages'
p843
(i__main__
DelphiPrimitiveType
p844
(dp845
g22
g387
sbsS'timeseriespopupmenubreed'
p846
(i__main__
DelphiNamedType
p847
(dp848
g22
S'TMenuItem'
p849
sg158
g1
sg159
NsbsS'timeseriesmenuoptionsfastdraw'
p850
(i__main__
DelphiNamedType
p851
(dp852
g22
S'TMenuItem'
p853
sg158
g1
sg159
NsbsS'timeseriespopupmenupaste'
p854
(i__main__
DelphiNamedType
p855
(dp856
g22
S'TMenuItem'
p857
sg158
g1
sg159
NsbsS'mainmenu1'
p858
(i__main__
DelphiNamedType
p859
(dp860
g22
S'TMainMenu'
p861
sg158
g1
sg159
NsbsS'timeseriesmenuedit'
p862
(i__main__
DelphiNamedType
p863
(dp864
g22
S'TMenuItem'
p865
sg158
g1
sg159
NsbsS'timeseriesmenuoptionsbestdraw'
p866
(i__main__
DelphiNamedType
p867
(dp868
g22
S'TMenuItem'
p869
sg158
g1
sg159
NsbsS'percentsofmaxage'
p870
(i__main__
DelphiArrayType
p871
(dp872
g19
(i__main__
DelphiPrimitiveType
p873
(dp874
g22
S'single'
p875
sbsg766
(lp876
(idelphi
DelphiSubrange
p877
(dp878
g770
(i__main__
DelphiIdentAccess
p879
(dp880
g14
S'kMaxTimeSeriesStages'
p881
sg16
(lp882
sbsg775
(idelphi
DelphiIntegerValue
p883
(dp884
g37
S'0'
sbsg139
S''
sbasbsS'n1'
p885
(i__main__
DelphiNamedType
p886
(dp887
g22
S'TMenuItem'
p888
sg158
g1
sg159
NsbsS'n2'
p889
(i__main__
DelphiNamedType
p890
(dp891
g22
S'TMenuItem'
p892
sg158
g1
sg159
NsbsS'n3'
p893
(i__main__
DelphiNamedType
p894
(dp895
g22
S'TMenuItem'
p896
sg158
g1
sg159
NsbsS'n4'
p897
(i__main__
DelphiNamedType
p898
(dp899
g22
S'TMenuItem'
p900
sg158
g1
sg159
NsbsS'n5'
p901
(i__main__
DelphiNamedType
p902
(dp903
g22
S'TMenuItem'
p904
sg158
g1
sg159
NsbsS'timeseriespopupmenucopy'
p905
(i__main__
DelphiNamedType
p906
(dp907
g22
S'TMenuItem'
p908
sg158
g1
sg159
NsbssS'methodNamesInDefinedOrder'
p909
(lp910
S'formcreate'
p911
aS'formdestroy'
p912
aS'formactivate'
p913
aS'initializewithplant'
p914
aS'updateforchangetodomainoptions'
p915
aS'updatefornewnumberofstages'
p916
aS'updateforchangetoplants'
p917
aS'updatemenusforchangetoselectedplant'
p918
aS'updatepastemenuforclipboardcontents'
p919
aS'updateplantsfromparent'
p920
aS'plantforindex'
p921
aS'plantatmouse'
p922
aS'redrawplants'
p923
aS'recalculatecommondrawingscaleandposition'
p924
aS'griddrawcell'
p925
aS'gridmousedown'
p926
aS'griddragover'
p927
aS'gridenddrag'
p928
aS'copyplanttopoint'
p929
aS'invalidategridcell'
p930
aS'timeseriesmenuundoclick'
p931
aS'timeseriesmenuredoclick'
p932
aS'timeseriesmenuundoredolistclick'
p933
aS'timeseriesmenucopyclick'
p934
aS'timeseriesmenupasteclick'
p935
aS'timeseriesmenusendcopyclick'
p936
aS'timeseriesmenubreedclick'
p937
aS'timeseriesmenudeleteclick'
p938
aS'timeseriespopupmenucopyclick'
p939
aS'timeseriespopupmenupasteclick'
p940
aS'timeseriespopupmenubreedclick'
p941
aS'formresize'
p942
aS'wmgetminmaxinfo'
p943
aS'getpalette'
p944
aS'palettechanged'
p945
aS'timeseriesmenuhelptopicsclick'
p946
aS'timeseriesmenuhelpontimeseriesclick'
p947
aS'timeseriesmenuoptionsstagesclick'
p948
aS'timeseriesmenuoptionsfastdrawclick'
p949
aS'timeseriesmenuoptionsmediumdrawclick'
p950
aS'timeseriesmenuoptionsbestdrawclick'
p951
aS'timeseriesmenuoptionscustomdrawclick'
p952
asS'methodImplementations'
p953
(dp954
S'timeseriesmenuoptionsstagesclick'
p955
(i__main__
DelphiMethodImplementation
p956
(dp957
S'originalDeclaration'
p958
g144
sg139
g146
sg147
(lp959
(i__main__
DelphiFormalParameter
p960
(dp961
g151
Nsg152
(lp962
S'Sender'
p963
asg19
(i__main__
DelphiNamedType
p964
(dp965
g22
S'TObject'
p966
sg158
g1
sg159
Nsbsg160
NsbasS'varParamIndexes'
p967
(lp968
sS'varParamsSkipped'
p969
(lp970
sS'argNames'
p971
(lp972
S'self'
p973
ag963
asS'argTypes'
p974
(dp975
g963
g964
ssg161
S'TTimeSeriesForm'
p976
sg162
NsS'varParamNames'
p977
(lp978
sg163
I0
sg164
g165
sS'block'
p979
(i__main__
DelphiBlock
p980
(dp981
S'compoundStatement'
p982
(idelphi
DelphiCompoundStatement
p983
(dp984
S'statements'
p985
(lp986
(i__main__
DelphiAssignStatement
p987
(dp988
S'newValueExpression'
p989
NsS'destinationExpression'
p990
(i__main__
DelphiIdentAccess
p991
(dp992
g14
S'BreederForm'
p993
sg16
(lp994
(idelphi
DelphiFieldEndAccess
p995
(dp996
S'field'
p997
S'changeBreederAndTimeSeriesOptions'
p998
sba(idelphi
DelphiFunctionEndAccess
p999
(dp1000
S'expressionList'
p1001
(lp1002
(idelphi
DelphiIntegerValue
p1003
(dp1004
g37
S'0'
sbasbasbsbasbsS'limitedDeclSectionList'
p1005
(lp1006
sbsbsS'timeseriesmenuoptionsmediumdrawclick'
p1007
(i__main__
DelphiMethodImplementation
p1008
(dp1009
g958
g179
sg139
g181
sg147
(lp1010
(i__main__
DelphiFormalParameter
p1011
(dp1012
g151
Nsg152
(lp1013
S'Sender'
p1014
asg19
(i__main__
DelphiNamedType
p1015
(dp1016
g22
S'TObject'
p1017
sg158
g1
sg159
Nsbsg160
Nsbasg967
(lp1018
sg969
(lp1019
sg971
(lp1020
g973
ag1014
asg974
(dp1021
g1014
g1015
ssg161
S'TTimeSeriesForm'
p1022
sg162
Nsg977
(lp1023
sg163
I0
sg164
g165
sg979
(i__main__
DelphiBlock
p1024
(dp1025
g982
(idelphi
DelphiCompoundStatement
p1026
(dp1027
g985
(lp1028
(i__main__
DelphiAssignStatement
p1029
(dp1030
g989
Nsg990
(i__main__
DelphiIdentAccess
p1031
(dp1032
g14
S'MainForm'
p1033
sg16
(lp1034
(idelphi
DelphiFieldEndAccess
p1035
(dp1036
g997
S'MenuOptionsMediumDrawClick'
p1037
sba(idelphi
DelphiFunctionEndAccess
p1038
(dp1039
g1001
(lp1040
(i__main__
DelphiIdentAccess
p1041
(dp1042
g14
S'MainForm'
p1043
sg16
(lp1044
sbasbasbsbasbsg1005
(lp1045
sbsbsS'timeseriesmenuoptionsbestdrawclick'
p1046
(i__main__
DelphiMethodImplementation
p1047
(dp1048
g958
g167
sg139
g169
sg147
(lp1049
(i__main__
DelphiFormalParameter
p1050
(dp1051
g151
Nsg152
(lp1052
S'Sender'
p1053
asg19
(i__main__
DelphiNamedType
p1054
(dp1055
g22
S'TObject'
p1056
sg158
g1
sg159
Nsbsg160
Nsbasg967
(lp1057
sg969
(lp1058
sg971
(lp1059
g973
ag1053
asg974
(dp1060
g1053
g1054
ssg161
S'TTimeSeriesForm'
p1061
sg162
Nsg977
(lp1062
sg163
I0
sg164
g165
sg979
(i__main__
DelphiBlock
p1063
(dp1064
g982
(idelphi
DelphiCompoundStatement
p1065
(dp1066
g985
(lp1067
(i__main__
DelphiAssignStatement
p1068
(dp1069
g989
Nsg990
(i__main__
DelphiIdentAccess
p1070
(dp1071
g14
S'MainForm'
p1072
sg16
(lp1073
(idelphi
DelphiFieldEndAccess
p1074
(dp1075
g997
S'MenuOptionsBestDrawClick'
p1076
sba(idelphi
DelphiFunctionEndAccess
p1077
(dp1078
g1001
(lp1079
(i__main__
DelphiIdentAccess
p1080
(dp1081
g14
S'MainForm'
p1082
sg16
(lp1083
sbasbasbsbasbsg1005
(lp1084
sbsbsS'wmgetminmaxinfo'
p1085
(i__main__
DelphiMethodImplementation
p1086
(dp1087
g958
g487
sg139
g489
sg147
(lp1088
(i__main__
DelphiFormalParameter
p1089
(dp1090
g151
Nsg152
(lp1091
S'MSG'
p1092
asg19
(i__main__
DelphiNamedType
p1093
(dp1094
g22
S'Tmessage'
p1095
sg158
g1
sg159
Nsbsg160
g473
sbasg967
(lp1096
sg969
(lp1097
g1092
asg971
(lp1098
g973
ag1092
asg974
(dp1099
g1092
g1093
ssg161
S'TTimeSeriesForm'
p1100
sg162
Nsg977
(lp1101
sg163
I0
sg164
g165
sg979
(i__main__
DelphiBlock
p1102
(dp1103
g982
(idelphi
DelphiCompoundStatement
p1104
(dp1105
g985
(lp1106
(i__main__
DelphiAssignStatement
p1107
(dp1108
g989
Nsg990
(idelphi
DelphiInheritedCall
p1109
(dp1110
g14
Nsg1001
Nsbsba(idelphi
DelphiWithStatement
p1111
(dp1112
S'statement'
p1113
(idelphi
DelphiCompoundStatement
p1114
(dp1115
g985
(lp1116
(i__main__
DelphiAssignStatement
p1117
(dp1118
g989
(idelphi
DelphiIntegerValue
p1119
(dp1120
g37
S'280'
p1121
sbsg990
(i__main__
DelphiIdentAccess
p1122
(dp1123
g14
S'ptMinTrackSize'
p1124
sg16
(lp1125
(idelphi
DelphiFieldEndAccess
p1126
(dp1127
g997
S'x'
sbasbsba(i__main__
DelphiAssignStatement
p1128
(dp1129
g989
(idelphi
DelphiIntegerValue
p1130
(dp1131
g37
S'120'
p1132
sbsg990
(i__main__
DelphiIdentAccess
p1133
(dp1134
g14
S'ptMinTrackSize'
p1135
sg16
(lp1136
(idelphi
DelphiFieldEndAccess
p1137
(dp1138
g997
S'y'
sbasbsbasbsS'variableReferenceList'
p1139
(lp1140
(i__main__
DelphiIdentAccess
p1141
(dp1142
g14
S'PMinMaxInfo'
p1143
sg16
(lp1144
(idelphi
DelphiFunctionEndAccess
p1145
(dp1146
g1001
(lp1147
(i__main__
DelphiIdentAccess
p1148
(dp1149
g14
S'MSG'
p1150
sg16
(lp1151
(idelphi
DelphiFieldEndAccess
p1152
(dp1153
g997
S'lparam'
p1154
sbasbasba(idelphi
DelphiPointerEndAccess
p1155
(dp1156
basbasbasbsg1005
(lp1157
sbsg209
g498
sbsS'initializewithplant'
p1158
(i__main__
DelphiMethodImplementation
p1159
(dp1160
g958
g191
sg139
g193
sg147
(lp1161
(i__main__
DelphiFormalParameter
p1162
(dp1163
g151
Nsg152
(lp1164
S'aPlant'
p1165
asg19
(i__main__
DelphiNamedType
p1166
(dp1167
g22
S'PdPlant'
p1168
sg158
g1
sg159
Nsbsg160
Nsba(i__main__
DelphiFormalParameter
p1169
(dp1170
g151
Nsg152
(lp1171
S'drawNow'
p1172
asg19
(i__main__
DelphiPrimitiveType
p1173
(dp1174
g22
g208
sbsg160
Nsbasg967
(lp1175
sg969
(lp1176
sg971
(lp1177
g973
ag1165
ag1172
asg974
(dp1178
g1172
g1173
sg1165
g1166
ssg161
S'TTimeSeriesForm'
p1179
sg162
Nsg977
(lp1180
sg163
I0
sg164
g165
sg979
(i__main__
DelphiBlock
p1181
(dp1182
g982
(idelphi
DelphiCompoundStatement
p1183
(dp1184
g985
(lp1185
(idelphi
DelphiIfStatement
p1186
(dp1187
S'expression'
p1188
(idelphi
DelphiRelOp
p1189
(dp1190
S'simpleExpression1'
p1191
(i__main__
DelphiIdentAccess
p1192
(dp1193
g14
S'aPlant'
p1194
sg16
(lp1195
sbsS'simpleExpression2'
p1196
(idelphi
DelphiNilValue
p1197
(dp1198
bsS'relOp'
p1199
S'='
sbsS'ifFalseStatement'
p1200
NsS'ifTrueStatement'
p1201
(i__main__
DelphiExitStatement
p1202
(dp1203
S'proceduralOrMethodImplementation'
p1204
g1159
sbsba(idelphi
DelphiIfStatement
p1205
(dp1206
g1188
(idelphi
DelphiNot
p1207
(dp1208
S'factor'
p1209
(i__main__
DelphiIdentAccess
p1210
(dp1211
g14
S'self'
p1212
sg16
(lp1213
(idelphi
DelphiFieldEndAccess
p1214
(dp1215
g997
S'visible'
p1216
sbasbsbsg1200
Nsg1201
(i__main__
DelphiAssignStatement
p1217
(dp1218
g989
Nsg990
(i__main__
DelphiIdentAccess
p1219
(dp1220
g14
S'self'
p1221
sg16
(lp1222
(idelphi
DelphiFieldEndAccess
p1223
(dp1224
g997
S'show'
p1225
sbasbsbsba(i__main__
DelphiAssignStatement
p1226
(dp1227
g989
Nsg990
(i__main__
DelphiIdentAccess
p1228
(dp1229
g14
S'self'
p1230
sg16
(lp1231
(idelphi
DelphiFieldEndAccess
p1232
(dp1233
g997
S'bringToFront'
p1234
sbasbsba(i__main__
DelphiAssignStatement
p1235
(dp1236
g989
Nsg990
(i__main__
DelphiIdentAccess
p1237
(dp1238
g14
S'plants'
p1239
sg16
(lp1240
(idelphi
DelphiFieldEndAccess
p1241
(dp1242
g997
S'clear'
p1243
sbasbsba(i__main__
DelphiAssignStatement
p1244
(dp1245
g989
(i__main__
DelphiIdentAccess
p1246
(dp1247
g14
S'aPlant'
p1248
sg16
(lp1249
sbsg990
(i__main__
DelphiIdentAccess
p1250
(dp1251
g14
S'parentPlant'
p1252
sg16
(lp1253
sbsba(i__main__
DelphiAssignStatement
p1254
(dp1255
g989
Nsg990
(i__main__
DelphiIdentAccess
p1256
(dp1257
g14
S'cursor_startWait'
p1258
sg16
(lp1259
sbsba(idelphi
DelphiTryFinallyStatement
p1260
(dp1261
S'tryStatements'
p1262
(lp1263
(idelphi
DelphiForStatement
p1264
(dp1265
S'variable'
p1266
S'i'
sS'finalValue'
p1267
(idelphi
DelphiAddOp
p1268
(dp1269
S'addOp'
p1270
S'-'
sS'term2'
p1271
(idelphi
DelphiIntegerValue
p1272
(dp1273
g37
S'1'
sbsS'term1'
p1274
(i__main__
DelphiIdentAccess
p1275
(dp1276
g14
S'numStages'
p1277
sg16
(lp1278
sbsbsS'direction'
p1279
S'to'
p1280
sg151
(idelphi
DelphiIntegerValue
p1281
(dp1282
g37
S'0'
sbsg1113
(idelphi
DelphiCompoundStatement
p1283
(dp1284
g985
(lp1285
(i__main__
DelphiAssignStatement
p1286
(dp1287
g989
(i__main__
DelphiIdentAccess
p1288
(dp1289
g14
S'PdPlant'
p1290
sg16
(lp1291
(idelphi
DelphiFieldEndAccess
p1292
(dp1293
g997
S'create'
p1294
sbasbsg990
(i__main__
DelphiIdentAccess
p1295
(dp1296
g14
S'newPlant'
p1297
sg16
(lp1298
sbsba(i__main__
DelphiAssignStatement
p1299
(dp1300
g989
Nsg990
(i__main__
DelphiIdentAccess
p1301
(dp1302
g14
S'parentPlant'
p1303
sg16
(lp1304
(idelphi
DelphiFieldEndAccess
p1305
(dp1306
g997
S'copyTo'
p1307
sba(idelphi
DelphiFunctionEndAccess
p1308
(dp1309
g1001
(lp1310
(i__main__
DelphiIdentAccess
p1311
(dp1312
g14
S'newPlant'
p1313
sg16
(lp1314
sbasbasbsba(i__main__
DelphiAssignStatement
p1315
(dp1316
g989
(i__main__
DelphiIdentAccess
p1317
(dp1318
g14
S'round'
p1319
sg16
(lp1320
(idelphi
DelphiFunctionEndAccess
p1321
(dp1322
g1001
(lp1323
(idelphi
DelphiMulOp
p1324
(dp1325
S'signedFactor2'
p1326
(i__main__
DelphiIdentAccess
p1327
(dp1328
g14
S'newPlant'
p1329
sg16
(lp1330
(idelphi
DelphiFieldEndAccess
p1331
(dp1332
g997
S'pGeneral'
p1333
sba(idelphi
DelphiFieldEndAccess
p1334
(dp1335
g997
S'ageAtMaturity'
p1336
sbasbsS'mulOp'
p1337
S'*'
sS'signedFactor1'
p1338
(i__main__
DelphiIdentAccess
p1339
(dp1340
g14
S'max'
p1341
sg16
(lp1342
(idelphi
DelphiFunctionEndAccess
p1343
(dp1344
g1001
(lp1345
(idelphi
DelphiRealValue
p1346
(dp1347
g37
S'0.0'
p1348
sba(i__main__
DelphiIdentAccess
p1349
(dp1350
g14
S'min'
p1351
sg16
(lp1352
(idelphi
DelphiFunctionEndAccess
p1353
(dp1354
g1001
(lp1355
(idelphi
DelphiRealValue
p1356
(dp1357
g37
S'1.0'
p1358
sba(idelphi
DelphiMulOp
p1359
(dp1360
g1326
(idelphi
DelphiRealValue
p1361
(dp1362
g37
S'100.0'
p1363
sbsg1337
S'/'
sg1338
(i__main__
DelphiIdentAccess
p1364
(dp1365
g14
S'percentsOfMaxAge'
p1366
sg16
(lp1367
(idelphi
DelphiArrayEndAccess
p1368
(dp1369
g1001
(lp1370
(i__main__
DelphiIdentAccess
p1371
(dp1372
g14
S'i'
sg16
(lp1373
sbasbasbsbasbasbasbasbsbasbasbsg990
(i__main__
DelphiIdentAccess
p1374
(dp1375
g14
S'ages'
p1376
sg16
(lp1377
(idelphi
DelphiArrayEndAccess
p1378
(dp1379
g1001
(lp1380
(i__main__
DelphiIdentAccess
p1381
(dp1382
g14
S'i'
sg16
(lp1383
sbasbasbsba(i__main__
DelphiAssignStatement
p1384
(dp1385
g989
Nsg990
(i__main__
DelphiIdentAccess
p1386
(dp1387
g14
S'newPlant'
p1388
sg16
(lp1389
(idelphi
DelphiFieldEndAccess
p1390
(dp1391
g997
S'setAge'
p1392
sba(idelphi
DelphiFunctionEndAccess
p1393
(dp1394
g1001
(lp1395
(i__main__
DelphiIdentAccess
p1396
(dp1397
g14
S'ages'
p1398
sg16
(lp1399
(idelphi
DelphiArrayEndAccess
p1400
(dp1401
g1001
(lp1402
(i__main__
DelphiIdentAccess
p1403
(dp1404
g14
S'i'
sg16
(lp1405
sbasbasbasbasbsba(i__main__
DelphiAssignStatement
p1406
(dp1407
g989
Nsg990
(i__main__
DelphiIdentAccess
p1408
(dp1409
g14
S'plants'
p1410
sg16
(lp1411
(idelphi
DelphiFieldEndAccess
p1412
(dp1413
g997
S'add'
p1414
sba(idelphi
DelphiFunctionEndAccess
p1415
(dp1416
g1001
(lp1417
(i__main__
DelphiIdentAccess
p1418
(dp1419
g14
S'newPlant'
p1420
sg16
(lp1421
sbasbasbsbasbsbasS'finallyStatements'
p1422
(lp1423
(i__main__
DelphiAssignStatement
p1424
(dp1425
g989
Nsg990
(i__main__
DelphiIdentAccess
p1426
(dp1427
g14
S'cursor_stopWait'
p1428
sg16
(lp1429
sbsbasba(idelphi
DelphiIfStatement
p1430
(dp1431
g1188
(i__main__
DelphiIdentAccess
p1432
(dp1433
g14
S'drawNow'
p1434
sg16
(lp1435
sbsg1200
Nsg1201
(i__main__
DelphiAssignStatement
p1436
(dp1437
g989
Nsg990
(i__main__
DelphiIdentAccess
p1438
(dp1439
g14
S'self'
p1440
sg16
(lp1441
(idelphi
DelphiFieldEndAccess
p1442
(dp1443
g997
S'redrawPlants'
p1444
sbasbsbsbasbsg1005
(lp1445
(i__main__
DelphiVarSection
p1446
(dp1447
g42
I0
sS'varDeclList'
p1448
(lp1449
(idelphi
DelphiVarDecl
p1450
(dp1451
g11
NsS'identList'
p1452
(lp1453
S'newPlant'
p1454
asg19
(i__main__
DelphiNamedType
p1455
(dp1456
g22
S'PdPlant'
p1457
sg158
g1
sg159
Nsbsba(idelphi
DelphiVarDecl
p1458
(dp1459
g11
Nsg1452
(lp1460
S'i'
asg19
(i__main__
DelphiPrimitiveType
p1461
(dp1462
g22
g387
sbsbasbasbsg209
g210
sbsS'palettechanged'
p1463
(i__main__
DelphiMethodImplementation
p1464
(dp1465
g958
g392
sg139
g394
sg147
(lp1466
(i__main__
DelphiFormalParameter
p1467
(dp1468
g151
Nsg152
(lp1469
S'Foreground'
p1470
asg19
(i__main__
DelphiPrimitiveType
p1471
(dp1472
g22
g208
sbsg160
Nsbasg967
(lp1473
sg969
(lp1474
sg971
(lp1475
g973
ag1470
asg974
(dp1476
g1470
g1471
ssg161
S'TTimeSeriesForm'
p1477
sg162
(i__main__
DelphiPrimitiveType
p1478
(dp1479
g22
g208
sbsg977
(lp1480
sg163
I0
sg164
g232
sg979
(i__main__
DelphiBlock
p1481
(dp1482
g982
(idelphi
DelphiCompoundStatement
p1483
(dp1484
g985
(lp1485
(i__main__
DelphiAssignStatement
p1486
(dp1487
g989
(i__main__
DelphiIdentAccess
p1488
(dp1489
g14
S'getPalette'
p1490
sg16
(lp1491
sbsg990
(i__main__
DelphiIdentAccess
p1492
(dp1493
g14
S'palette'
p1494
sg16
(lp1495
sbsba(idelphi
DelphiIfStatement
p1496
(dp1497
g1188
(idelphi
DelphiRelOp
p1498
(dp1499
g1191
(i__main__
DelphiIdentAccess
p1500
(dp1501
g14
S'palette'
p1502
sg16
(lp1503
sbsg1196
(idelphi
DelphiIntegerValue
p1504
(dp1505
g37
S'0'
sbsg1199
S'<>'
p1506
sbsg1200
Nsg1201
(idelphi
DelphiCompoundStatement
p1507
(dp1508
g985
(lp1509
(i__main__
DelphiAssignStatement
p1510
(dp1511
g989
(i__main__
DelphiIdentAccess
p1512
(dp1513
g14
S'getDeviceContext'
p1514
sg16
(lp1515
(idelphi
DelphiFunctionEndAccess
p1516
(dp1517
g1001
(lp1518
(i__main__
DelphiIdentAccess
p1519
(dp1520
g14
S'WindowHandle'
p1521
sg16
(lp1522
sbasbasbsg990
(i__main__
DelphiIdentAccess
p1523
(dp1524
g14
S'DC'
p1525
sg16
(lp1526
sbsba(i__main__
DelphiAssignStatement
p1527
(dp1528
g989
(i__main__
DelphiIdentAccess
p1529
(dp1530
g14
S'selectPalette'
p1531
sg16
(lp1532
(idelphi
DelphiFunctionEndAccess
p1533
(dp1534
g1001
(lp1535
(i__main__
DelphiIdentAccess
p1536
(dp1537
g14
S'DC'
p1538
sg16
(lp1539
sba(i__main__
DelphiIdentAccess
p1540
(dp1541
g14
S'palette'
p1542
sg16
(lp1543
sba(idelphi
DelphiNot
p1544
(dp1545
g1209
(i__main__
DelphiIdentAccess
p1546
(dp1547
g14
S'foreground'
p1548
sg16
(lp1549
sbsbasbasbsg990
(i__main__
DelphiIdentAccess
p1550
(dp1551
g14
S'oldPalette'
p1552
sg16
(lp1553
sbsba(idelphi
DelphiIfStatement
p1554
(dp1555
g1188
(idelphi
DelphiMulOp
p1556
(dp1557
g1326
(idelphi
DelphiNestedExpressionListAccess
p1558
(dp1559
g16
(lp1560
sg1001
(lp1561
(idelphi
DelphiRelOp
p1562
(dp1563
g1191
(i__main__
DelphiIdentAccess
p1564
(dp1565
g14
S'grid'
p1566
sg16
(lp1567
sbsg1196
(idelphi
DelphiNilValue
p1568
(dp1569
bsg1199
g1506
sbasbsg1337
S'and'
p1570
sg1338
(idelphi
DelphiMulOp
p1571
(dp1572
g1326
(idelphi
DelphiNestedExpressionListAccess
p1573
(dp1574
g16
(lp1575
sg1001
(lp1576
(idelphi
DelphiNot
p1577
(dp1578
g1209
(i__main__
DelphiIdentAccess
p1579
(dp1580
g14
S'Application'
p1581
sg16
(lp1582
(idelphi
DelphiFieldEndAccess
p1583
(dp1584
g997
S'terminated'
p1585
sbasbsbasbsg1337
g1570
sg1338
(idelphi
DelphiNestedExpressionListAccess
p1586
(dp1587
g16
(lp1588
sg1001
(lp1589
(idelphi
DelphiRelOp
p1590
(dp1591
g1191
(i__main__
DelphiIdentAccess
p1592
(dp1593
g14
S'realizePalette'
p1594
sg16
(lp1595
(idelphi
DelphiFunctionEndAccess
p1596
(dp1597
g1001
(lp1598
(i__main__
DelphiIdentAccess
p1599
(dp1600
g14
S'DC'
p1601
sg16
(lp1602
sbasbasbsg1196
(idelphi
DelphiIntegerValue
p1603
(dp1604
g37
S'0'
sbsg1199
g1506
sbasbsbsbsg1200
Nsg1201
(idelphi
DelphiCompoundStatement
p1605
(dp1606
g985
(lp1607
(i__main__
DelphiAssignStatement
p1608
(dp1609
g989
Nsg990
(i__main__
DelphiIdentAccess
p1610
(dp1611
g14
S'grid'
p1612
sg16
(lp1613
(idelphi
DelphiFieldEndAccess
p1614
(dp1615
g997
S'invalidate'
p1616
sbasbsg209
(lp1617
S' if palette changed, repaint drawing '
p1618
asbasbsba(i__main__
DelphiAssignStatement
p1619
(dp1620
g989
Nsg990
(i__main__
DelphiIdentAccess
p1621
(dp1622
g14
S'selectPalette'
p1623
sg16
(lp1624
(idelphi
DelphiFunctionEndAccess
p1625
(dp1626
g1001
(lp1627
(i__main__
DelphiIdentAccess
p1628
(dp1629
g14
S'DC'
p1630
sg16
(lp1631
sba(i__main__
DelphiIdentAccess
p1632
(dp1633
g14
S'oldPalette'
p1634
sg16
(lp1635
sba(i__main__
DelphiIdentAccess
p1636
(dp1637
g14
S'True'
p1638
sg16
(lp1639
sbasbasbsba(i__main__
DelphiAssignStatement
p1640
(dp1641
g989
Nsg990
(i__main__
DelphiIdentAccess
p1642
(dp1643
g14
S'realizePalette'
p1644
sg16
(lp1645
(idelphi
DelphiFunctionEndAccess
p1646
(dp1647
g1001
(lp1648
(i__main__
DelphiIdentAccess
p1649
(dp1650
g14
S'DC'
p1651
sg16
(lp1652
sbasbasbsba(i__main__
DelphiAssignStatement
p1653
(dp1654
g989
Nsg990
(i__main__
DelphiIdentAccess
p1655
(dp1656
g14
S'releaseDC'
p1657
sg16
(lp1658
(idelphi
DelphiFunctionEndAccess
p1659
(dp1660
g1001
(lp1661
(i__main__
DelphiIdentAccess
p1662
(dp1663
g14
S'windowHandle'
p1664
sg16
(lp1665
sba(i__main__
DelphiIdentAccess
p1666
(dp1667
g14
S'DC'
p1668
sg16
(lp1669
sbasbasbsbasbsba(i__main__
DelphiAssignStatement
p1670
(dp1671
g989
(idelphi
DelphiInheritedCall
p1672
(dp1673
g14
S'paletteChanged'
p1674
sg1001
(lp1675
(i__main__
DelphiIdentAccess
p1676
(dp1677
g14
S'foreground'
p1678
sg16
(lp1679
sbasbsg990
(i__main__
DelphiIdentAccess
p1680
(dp1681
g14
S'result'
p1682
sg16
(lp1683
sbsbasbsg1005
(lp1684
(i__main__
DelphiVarSection
p1685
(dp1686
g42
I0
sg1448
(lp1687
(idelphi
DelphiVarDecl
p1688
(dp1689
g11
Nsg1452
(lp1690
S'oldPalette'
p1691
aS'palette'
p1692
asg19
(i__main__
DelphiNamedType
p1693
(dp1694
g22
S'HPALETTE'
p1695
sg158
g1
sg159
Nsbsba(idelphi
DelphiVarDecl
p1696
(dp1697
g11
Nsg1452
(lp1698
S'windowHandle'
p1699
asg19
(i__main__
DelphiNamedType
p1700
(dp1701
g22
S'HWnd'
p1702
sg158
g1
sg159
Nsbsba(idelphi
DelphiVarDecl
p1703
(dp1704
g11
Nsg1452
(lp1705
S'DC'
p1706
asg19
(i__main__
DelphiNamedType
p1707
(dp1708
g22
S'HDC'
p1709
sg158
g1
sg159
NsbsbasbasbsbsS'getpalette'
p1710
(i__main__
DelphiMethodImplementation
p1711
(dp1712
g958
g225
sg139
g227
sg147
(lp1713
sg967
(lp1714
sg969
(lp1715
sg971
(lp1716
g973
asg974
(dp1717
sg161
S'TTimeSeriesForm'
p1718
sg162
(i__main__
DelphiNamedType
p1719
(dp1720
g22
S'HPALETTE'
p1721
sg158
g1
sg159
Nsbsg977
(lp1722
sg163
I0
sg164
g232
sg979
(i__main__
DelphiBlock
p1723
(dp1724
g982
(idelphi
DelphiCompoundStatement
p1725
(dp1726
g985
(lp1727
(i__main__
DelphiAssignStatement
p1728
(dp1729
g989
(i__main__
DelphiIdentAccess
p1730
(dp1731
g14
S'MainForm'
p1732
sg16
(lp1733
(idelphi
DelphiFieldEndAccess
p1734
(dp1735
g997
S'paletteImage'
p1736
sba(idelphi
DelphiFieldEndAccess
p1737
(dp1738
g997
S'picture'
p1739
sba(idelphi
DelphiFieldEndAccess
p1740
(dp1741
g997
S'bitmap'
p1742
sba(idelphi
DelphiFieldEndAccess
p1743
(dp1744
g997
S'palette'
p1745
sbasbsg990
(i__main__
DelphiIdentAccess
p1746
(dp1747
g14
S'result'
p1748
sg16
(lp1749
sbsbasbsg1005
(lp1750
sbsg209
(lp1751
S' ----------------------------------------------------------------------------- *palette stuff '
p1752
asbsS'updateforchangetodomainoptions'
p1753
(i__main__
DelphiMethodImplementation
p1754
(dp1755
g958
g234
sg139
g236
sg147
(lp1756
sg967
(lp1757
sg969
(lp1758
sg971
(lp1759
g973
asg974
(dp1760
sg161
S'TTimeSeriesForm'
p1761
sg162
Nsg977
(lp1762
sg163
I0
sg164
g165
sg979
(i__main__
DelphiBlock
p1763
(dp1764
g982
(idelphi
DelphiCompoundStatement
p1765
(dp1766
g985
(lp1767
(idelphi
DelphiIfStatement
p1768
(dp1769
g1188
(idelphi
DelphiRelOp
p1770
(dp1771
g1191
(i__main__
DelphiIdentAccess
p1772
(dp1773
g14
S'domain'
p1774
sg16
(lp1775
(idelphi
DelphiFieldEndAccess
p1776
(dp1777
g997
S'breedingAndTimeSeriesOptions'
p1778
sba(idelphi
DelphiFieldEndAccess
p1779
(dp1780
g997
S'numTimeSeriesStages'
p1781
sbasbsg1196
(i__main__
DelphiIdentAccess
p1782
(dp1783
g14
S'numStages'
p1784
sg16
(lp1785
sbsg1199
g1506
sbsg1200
Nsg1201
(idelphi
DelphiCompoundStatement
p1786
(dp1787
g985
(lp1788
(i__main__
DelphiAssignStatement
p1789
(dp1790
g989
(i__main__
DelphiIdentAccess
p1791
(dp1792
g14
S'domain'
p1793
sg16
(lp1794
(idelphi
DelphiFieldEndAccess
p1795
(dp1796
g997
S'breedingAndTimeSeriesOptions'
p1797
sba(idelphi
DelphiFieldEndAccess
p1798
(dp1799
g997
S'numTimeSeriesStages'
p1800
sbasbsg990
(i__main__
DelphiIdentAccess
p1801
(dp1802
g14
S'numStages'
p1803
sg16
(lp1804
sbsba(idelphi
DelphiForStatement
p1805
(dp1806
g1266
S'i'
sg1267
(idelphi
DelphiAddOp
p1807
(dp1808
g1270
S'-'
sg1271
(idelphi
DelphiIntegerValue
p1809
(dp1810
g37
S'1'
sbsg1274
(i__main__
DelphiIdentAccess
p1811
(dp1812
g14
S'numStages'
p1813
sg16
(lp1814
sbsbsg1279
g1280
sg151
(idelphi
DelphiIntegerValue
p1815
(dp1816
g37
S'0'
sbsg1113
(i__main__
DelphiAssignStatement
p1817
(dp1818
g989
(i__main__
DelphiIdentAccess
p1819
(dp1820
g14
S'intMin'
p1821
sg16
(lp1822
(idelphi
DelphiFunctionEndAccess
p1823
(dp1824
g1001
(lp1825
(idelphi
DelphiIntegerValue
p1826
(dp1827
g37
S'100'
p1828
sba(i__main__
DelphiIdentAccess
p1829
(dp1830
g14
S'intMax'
p1831
sg16
(lp1832
(idelphi
DelphiFunctionEndAccess
p1833
(dp1834
g1001
(lp1835
(idelphi
DelphiIntegerValue
p1836
(dp1837
g37
S'0'
sba(idelphi
DelphiMulOp
p1838
(dp1839
g1326
(i__main__
DelphiIdentAccess
p1840
(dp1841
g14
S'numStages'
p1842
sg16
(lp1843
sbsg1337
S'div'
p1844
sg1338
(idelphi
DelphiMulOp
p1845
(dp1846
g1326
(idelphi
DelphiIntegerValue
p1847
(dp1848
g37
S'100'
p1849
sbsg1337
S'*'
sg1338
(idelphi
DelphiNestedExpressionListAccess
p1850
(dp1851
g16
(lp1852
sg1001
(lp1853
(idelphi
DelphiAddOp
p1854
(dp1855
g1270
S'+'
sg1271
(idelphi
DelphiIntegerValue
p1856
(dp1857
g37
S'1'
sbsg1274
(i__main__
DelphiIdentAccess
p1858
(dp1859
g14
S'i'
sg16
(lp1860
sbsbasbsbsbasbasbasbasbsg990
(i__main__
DelphiIdentAccess
p1861
(dp1862
g14
S'percentsOfMaxAge'
p1863
sg16
(lp1864
(idelphi
DelphiArrayEndAccess
p1865
(dp1866
g1001
(lp1867
(i__main__
DelphiIdentAccess
p1868
(dp1869
g14
S'i'
sg16
(lp1870
sbasbasbsbsba(idelphi
DelphiIfStatement
p1871
(dp1872
g1188
(idelphi
DelphiRelOp
p1873
(dp1874
g1191
(i__main__
DelphiIdentAccess
p1875
(dp1876
g14
S'grid'
p1877
sg16
(lp1878
(idelphi
DelphiFieldEndAccess
p1879
(dp1880
g997
S'colCount'
p1881
sbasbsg1196
(i__main__
DelphiIdentAccess
p1882
(dp1883
g14
S'numStages'
p1884
sg16
(lp1885
sbsg1199
g1506
sbsg1200
Nsg1201
(i__main__
DelphiAssignStatement
p1886
(dp1887
g989
(i__main__
DelphiIdentAccess
p1888
(dp1889
g14
S'numStages'
p1890
sg16
(lp1891
sbsg990
(i__main__
DelphiIdentAccess
p1892
(dp1893
g14
S'grid'
p1894
sg16
(lp1895
(idelphi
DelphiFieldEndAccess
p1896
(dp1897
g997
S'colCount'
p1898
sbasbsbsba(i__main__
DelphiAssignStatement
p1899
(dp1900
g989
Nsg990
(i__main__
DelphiIdentAccess
p1901
(dp1902
g14
S'self'
p1903
sg16
(lp1904
(idelphi
DelphiFieldEndAccess
p1905
(dp1906
g997
S'updateForNewNumberOfStages'
p1907
sbasbsbasbsba(idelphi
DelphiIfStatement
p1908
(dp1909
g1188
(idelphi
DelphiRelOp
p1910
(dp1911
g1191
(i__main__
DelphiIdentAccess
p1912
(dp1913
g14
S'grid'
p1914
sg16
(lp1915
(idelphi
DelphiFieldEndAccess
p1916
(dp1917
g997
S'defaultColWidth'
p1918
sbasbsg1196
(i__main__
DelphiIdentAccess
p1919
(dp1920
g14
S'domain'
p1921
sg16
(lp1922
(idelphi
DelphiFieldEndAccess
p1923
(dp1924
g997
S'breedingAndTimeSeriesOptions'
p1925
sba(idelphi
DelphiFieldEndAccess
p1926
(dp1927
g997
S'thumbnailWidth'
p1928
sbasbsg1199
g1506
sbsg1200
Nsg1201
(i__main__
DelphiAssignStatement
p1929
(dp1930
g989
(i__main__
DelphiIdentAccess
p1931
(dp1932
g14
S'domain'
p1933
sg16
(lp1934
(idelphi
DelphiFieldEndAccess
p1935
(dp1936
g997
S'breedingAndTimeSeriesOptions'
p1937
sba(idelphi
DelphiFieldEndAccess
p1938
(dp1939
g997
S'thumbnailWidth'
p1940
sbasbsg990
(i__main__
DelphiIdentAccess
p1941
(dp1942
g14
S'grid'
p1943
sg16
(lp1944
(idelphi
DelphiFieldEndAccess
p1945
(dp1946
g997
S'defaultColWidth'
p1947
sbasbsbsba(idelphi
DelphiIfStatement
p1948
(dp1949
g1188
(idelphi
DelphiRelOp
p1950
(dp1951
g1191
(i__main__
DelphiIdentAccess
p1952
(dp1953
g14
S'grid'
p1954
sg16
(lp1955
(idelphi
DelphiFieldEndAccess
p1956
(dp1957
g997
S'defaultRowHeight'
p1958
sbasbsg1196
(i__main__
DelphiIdentAccess
p1959
(dp1960
g14
S'domain'
p1961
sg16
(lp1962
(idelphi
DelphiFieldEndAccess
p1963
(dp1964
g997
S'breedingAndTimeSeriesOptions'
p1965
sba(idelphi
DelphiFieldEndAccess
p1966
(dp1967
g997
S'thumbnailHeight'
p1968
sbasbsg1199
g1506
sbsg1200
Nsg1201
(idelphi
DelphiCompoundStatement
p1969
(dp1970
g985
(lp1971
(i__main__
DelphiAssignStatement
p1972
(dp1973
g989
(i__main__
DelphiIdentAccess
p1974
(dp1975
g14
S'domain'
p1976
sg16
(lp1977
(idelphi
DelphiFieldEndAccess
p1978
(dp1979
g997
S'breedingAndTimeSeriesOptions'
p1980
sba(idelphi
DelphiFieldEndAccess
p1981
(dp1982
g997
S'thumbnailHeight'
p1983
sbasbsg990
(i__main__
DelphiIdentAccess
p1984
(dp1985
g14
S'grid'
p1986
sg16
(lp1987
(idelphi
DelphiFieldEndAccess
p1988
(dp1989
g997
S'defaultRowHeight'
p1990
sbasbsba(i__main__
DelphiAssignStatement
p1991
(dp1992
g989
(i__main__
DelphiIdentAccess
p1993
(dp1994
g14
S'kStageNumberTextHeight'
p1995
sg16
(lp1996
sbsg990
(i__main__
DelphiIdentAccess
p1997
(dp1998
g14
S'grid'
p1999
sg16
(lp2000
(idelphi
DelphiFieldEndAccess
p2001
(dp2002
g997
S'rowHeights'
p2003
sba(idelphi
DelphiArrayEndAccess
p2004
(dp2005
g1001
(lp2006
(idelphi
DelphiIntegerValue
p2007
(dp2008
g37
S'1'
sbasbasbsbasbsba(i__main__
DelphiAssignStatement
p2009
(dp2010
g989
Nsg990
(i__main__
DelphiIdentAccess
p2011
(dp2012
g14
S'self'
p2013
sg16
(lp2014
(idelphi
DelphiFieldEndAccess
p2015
(dp2016
g997
S'redrawPlants'
p2017
sbasbsbasbsg1005
(lp2018
(i__main__
DelphiVarSection
p2019
(dp2020
g42
I0
sg1448
(lp2021
(idelphi
DelphiVarDecl
p2022
(dp2023
g11
Nsg1452
(lp2024
S'i'
asg19
(i__main__
DelphiPrimitiveType
p2025
(dp2026
g22
g387
sbsbasbasbsg209
(lp2027
S' ----------------------------------------------------------------------------------- updating '
p2028
asbsS'recalculatecommondrawingscaleandposition'
p2029
(i__main__
DelphiMethodImplementation
p2030
(dp2031
g958
g645
sg139
g647
sg147
(lp2032
sg967
(lp2033
sg969
(lp2034
sg971
(lp2035
g973
asg974
(dp2036
sg161
S'TTimeSeriesForm'
p2037
sg162
Nsg977
(lp2038
sg163
I0
sg164
g165
sg979
(i__main__
DelphiBlock
p2039
(dp2040
g982
(idelphi
DelphiCompoundStatement
p2041
(dp2042
g985
(lp2043
(idelphi
DelphiIfStatement
p2044
(dp2045
g1188
(idelphi
DelphiRelOp
p2046
(dp2047
g1191
(i__main__
DelphiIdentAccess
p2048
(dp2049
g14
S'plants'
p2050
sg16
(lp2051
sbsg1196
(idelphi
DelphiNilValue
p2052
(dp2053
bsg1199
S'='
sbsg1200
Nsg1201
(i__main__
DelphiExitStatement
p2054
(dp2055
g1204
g2030
sbsba(idelphi
DelphiIfStatement
p2056
(dp2057
g1188
(idelphi
DelphiRelOp
p2058
(dp2059
g1191
(i__main__
DelphiIdentAccess
p2060
(dp2061
g14
S'plants'
p2062
sg16
(lp2063
(idelphi
DelphiFieldEndAccess
p2064
(dp2065
g997
S'count'
p2066
sbasbsg1196
(idelphi
DelphiIntegerValue
p2067
(dp2068
g37
S'0'
sbsg1199
S'<='
p2069
sbsg1200
Nsg1201
(i__main__
DelphiExitStatement
p2070
(dp2071
g1204
g2030
sbsba(i__main__
DelphiAssignStatement
p2072
(dp2073
g989
(idelphi
DelphiRealValue
p2074
(dp2075
g37
S'0.0'
p2076
sbsg990
(i__main__
DelphiIdentAccess
p2077
(dp2078
g14
S'minScale'
p2079
sg16
(lp2080
sbsg209
(lp2081
S' find smallest scale\r'
p2082
asba(idelphi
DelphiForStatement
p2083
(dp2084
g1266
S'i'
sg1267
(idelphi
DelphiAddOp
p2085
(dp2086
g1270
S'-'
sg1271
(idelphi
DelphiIntegerValue
p2087
(dp2088
g37
S'1'
sbsg1274
(i__main__
DelphiIdentAccess
p2089
(dp2090
g14
S'plants'
p2091
sg16
(lp2092
(idelphi
DelphiFieldEndAccess
p2093
(dp2094
g997
S'count'
p2095
sbasbsbsg1279
g1280
sg151
(idelphi
DelphiIntegerValue
p2096
(dp2097
g37
S'0'
sbsg1113
(idelphi
DelphiCompoundStatement
p2098
(dp2099
g985
(lp2100
(i__main__
DelphiAssignStatement
p2101
(dp2102
g989
(i__main__
DelphiIdentAccess
p2103
(dp2104
g14
S'PdPlant'
p2105
sg16
(lp2106
(idelphi
DelphiFunctionEndAccess
p2107
(dp2108
g1001
(lp2109
(i__main__
DelphiIdentAccess
p2110
(dp2111
g14
S'plants'
p2112
sg16
(lp2113
(idelphi
DelphiFieldEndAccess
p2114
(dp2115
g997
S'items'
p2116
sba(idelphi
DelphiArrayEndAccess
p2117
(dp2118
g1001
(lp2119
(i__main__
DelphiIdentAccess
p2120
(dp2121
g14
S'i'
sg16
(lp2122
sbasbasbasbasbsg990
(i__main__
DelphiIdentAccess
p2123
(dp2124
g14
S'plant'
p2125
sg16
(lp2126
sbsba(i__main__
DelphiAssignStatement
p2127
(dp2128
g989
(i__main__
DelphiIdentAccess
p2129
(dp2130
g14
S'false'
p2131
sg16
(lp2132
sbsg990
(i__main__
DelphiIdentAccess
p2133
(dp2134
g14
S'plant'
p2135
sg16
(lp2136
(idelphi
DelphiFieldEndAccess
p2137
(dp2138
g997
S'fixedPreviewScale'
p2139
sbasbsba(i__main__
DelphiAssignStatement
p2140
(dp2141
g989
(i__main__
DelphiIdentAccess
p2142
(dp2143
g14
S'false'
p2144
sg16
(lp2145
sbsg990
(i__main__
DelphiIdentAccess
p2146
(dp2147
g14
S'plant'
p2148
sg16
(lp2149
(idelphi
DelphiFieldEndAccess
p2150
(dp2151
g997
S'fixedDrawPosition'
p2152
sbasbsba(i__main__
DelphiAssignStatement
p2153
(dp2154
g989
Nsg990
(i__main__
DelphiIdentAccess
p2155
(dp2156
g14
S'plant'
p2157
sg16
(lp2158
(idelphi
DelphiFieldEndAccess
p2159
(dp2160
g997
S'drawPreviewIntoCache'
p2161
sba(idelphi
DelphiFunctionEndAccess
p2162
(dp2163
g1001
(lp2164
(i__main__
DelphiIdentAccess
p2165
(dp2166
g14
S'Point'
p2167
sg16
(lp2168
(idelphi
DelphiFunctionEndAccess
p2169
(dp2170
g1001
(lp2171
(i__main__
DelphiIdentAccess
p2172
(dp2173
g14
S'grid'
p2174
sg16
(lp2175
(idelphi
DelphiFieldEndAccess
p2176
(dp2177
g997
S'defaultColWidth'
p2178
sbasba(i__main__
DelphiIdentAccess
p2179
(dp2180
g14
S'grid'
p2181
sg16
(lp2182
(idelphi
DelphiFieldEndAccess
p2183
(dp2184
g997
S'defaultRowHeight'
p2185
sbasbasbasba(i__main__
DelphiIdentAccess
p2186
(dp2187
g14
S'kDontConsiderDomainScale'
p2188
sg16
(lp2189
sba(i__main__
DelphiIdentAccess
p2190
(dp2191
g14
S'kDontDrawNow'
p2192
sg16
(lp2193
sbasbasbsba(idelphi
DelphiIfStatement
p2194
(dp2195
g1188
(idelphi
DelphiAddOp
p2196
(dp2197
g1270
S'or'
p2198
sg1271
(idelphi
DelphiNestedExpressionListAccess
p2199
(dp2200
g16
(lp2201
sg1001
(lp2202
(idelphi
DelphiRelOp
p2203
(dp2204
g1191
(i__main__
DelphiIdentAccess
p2205
(dp2206
g14
S'plant'
p2207
sg16
(lp2208
(idelphi
DelphiFieldEndAccess
p2209
(dp2210
g997
S'drawingScale_PixelsPerMm'
p2211
sbasbsg1196
(i__main__
DelphiIdentAccess
p2212
(dp2213
g14
S'minScale'
p2214
sg16
(lp2215
sbsg1199
S'<'
sbasbsg1274
(idelphi
DelphiNestedExpressionListAccess
p2216
(dp2217
g16
(lp2218
sg1001
(lp2219
(idelphi
DelphiRelOp
p2220
(dp2221
g1191
(i__main__
DelphiIdentAccess
p2222
(dp2223
g14
S'i'
sg16
(lp2224
sbsg1196
(idelphi
DelphiIntegerValue
p2225
(dp2226
g37
S'0'
sbsg1199
S'='
sbasbsbsg1200
Nsg1201
(i__main__
DelphiAssignStatement
p2227
(dp2228
g989
(i__main__
DelphiIdentAccess
p2229
(dp2230
g14
S'plant'
p2231
sg16
(lp2232
(idelphi
DelphiFieldEndAccess
p2233
(dp2234
g997
S'drawingScale_PixelsPerMm'
p2235
sbasbsg990
(i__main__
DelphiIdentAccess
p2236
(dp2237
g14
S'minScale'
p2238
sg16
(lp2239
sbsbsbasbsba(i__main__
DelphiAssignStatement
p2240
(dp2241
g989
(idelphi
DelphiIntegerValue
p2242
(dp2243
g37
S'0'
sbsg990
(i__main__
DelphiIdentAccess
p2244
(dp2245
g14
S'widestWidth'
p2246
sg16
(lp2247
sbsg209
(lp2248
S' find common draw position\r'
p2249
asba(i__main__
DelphiAssignStatement
p2250
(dp2251
g989
(idelphi
DelphiIntegerValue
p2252
(dp2253
g37
S'0'
sbsg990
(i__main__
DelphiIdentAccess
p2254
(dp2255
g14
S'tallestHeight'
p2256
sg16
(lp2257
sbsba(idelphi
DelphiForStatement
p2258
(dp2259
g1266
S'i'
sg1267
(idelphi
DelphiAddOp
p2260
(dp2261
g1270
S'-'
sg1271
(idelphi
DelphiIntegerValue
p2262
(dp2263
g37
S'1'
sbsg1274
(i__main__
DelphiIdentAccess
p2264
(dp2265
g14
S'plants'
p2266
sg16
(lp2267
(idelphi
DelphiFieldEndAccess
p2268
(dp2269
g997
S'count'
p2270
sbasbsbsg1279
g1280
sg151
(idelphi
DelphiIntegerValue
p2271
(dp2272
g37
S'0'
sbsg1113
(idelphi
DelphiCompoundStatement
p2273
(dp2274
g985
(lp2275
(i__main__
DelphiAssignStatement
p2276
(dp2277
g989
(i__main__
DelphiIdentAccess
p2278
(dp2279
g14
S'PdPlant'
p2280
sg16
(lp2281
(idelphi
DelphiFunctionEndAccess
p2282
(dp2283
g1001
(lp2284
(i__main__
DelphiIdentAccess
p2285
(dp2286
g14
S'plants'
p2287
sg16
(lp2288
(idelphi
DelphiFieldEndAccess
p2289
(dp2290
g997
S'items'
p2291
sba(idelphi
DelphiArrayEndAccess
p2292
(dp2293
g1001
(lp2294
(i__main__
DelphiIdentAccess
p2295
(dp2296
g14
S'i'
sg16
(lp2297
sbasbasbasbasbsg990
(i__main__
DelphiIdentAccess
p2298
(dp2299
g14
S'plant'
p2300
sg16
(lp2301
sbsba(i__main__
DelphiAssignStatement
p2302
(dp2303
g989
(i__main__
DelphiIdentAccess
p2304
(dp2305
g14
S'true'
p2306
sg16
(lp2307
sbsg990
(i__main__
DelphiIdentAccess
p2308
(dp2309
g14
S'plant'
p2310
sg16
(lp2311
(idelphi
DelphiFieldEndAccess
p2312
(dp2313
g997
S'fixedPreviewScale'
p2314
sbasbsba(i__main__
DelphiAssignStatement
p2315
(dp2316
g989
(i__main__
DelphiIdentAccess
p2317
(dp2318
g14
S'minScale'
p2319
sg16
(lp2320
sbsg990
(i__main__
DelphiIdentAccess
p2321
(dp2322
g14
S'plant'
p2323
sg16
(lp2324
(idelphi
DelphiFieldEndAccess
p2325
(dp2326
g997
S'drawingScale_PixelsPerMm'
p2327
sbasbsba(i__main__
DelphiAssignStatement
p2328
(dp2329
g989
(i__main__
DelphiIdentAccess
p2330
(dp2331
g14
S'false'
p2332
sg16
(lp2333
sbsg990
(i__main__
DelphiIdentAccess
p2334
(dp2335
g14
S'plant'
p2336
sg16
(lp2337
(idelphi
DelphiFieldEndAccess
p2338
(dp2339
g997
S'fixedDrawPosition'
p2340
sbasbsba(i__main__
DelphiAssignStatement
p2341
(dp2342
g989
Nsg990
(i__main__
DelphiIdentAccess
p2343
(dp2344
g14
S'plant'
p2345
sg16
(lp2346
(idelphi
DelphiFieldEndAccess
p2347
(dp2348
g997
S'drawPreviewIntoCache'
p2349
sba(idelphi
DelphiFunctionEndAccess
p2350
(dp2351
g1001
(lp2352
(i__main__
DelphiIdentAccess
p2353
(dp2354
g14
S'Point'
p2355
sg16
(lp2356
(idelphi
DelphiFunctionEndAccess
p2357
(dp2358
g1001
(lp2359
(i__main__
DelphiIdentAccess
p2360
(dp2361
g14
S'grid'
p2362
sg16
(lp2363
(idelphi
DelphiFieldEndAccess
p2364
(dp2365
g997
S'defaultColWidth'
p2366
sbasba(i__main__
DelphiIdentAccess
p2367
(dp2368
g14
S'grid'
p2369
sg16
(lp2370
(idelphi
DelphiFieldEndAccess
p2371
(dp2372
g997
S'defaultRowHeight'
p2373
sbasbasbasba(i__main__
DelphiIdentAccess
p2374
(dp2375
g14
S'kDontConsiderDomainScale'
p2376
sg16
(lp2377
sba(i__main__
DelphiIdentAccess
p2378
(dp2379
g14
S'kDontDrawNow'
p2380
sg16
(lp2381
sbasbasbsba(idelphi
DelphiIfStatement
p2382
(dp2383
g1188
(idelphi
DelphiAddOp
p2384
(dp2385
g1270
g2198
sg1271
(idelphi
DelphiNestedExpressionListAccess
p2386
(dp2387
g16
(lp2388
sg1001
(lp2389
(idelphi
DelphiRelOp
p2390
(dp2391
g1191
(i__main__
DelphiIdentAccess
p2392
(dp2393
g14
S'rWidth'
p2394
sg16
(lp2395
(idelphi
DelphiFunctionEndAccess
p2396
(dp2397
g1001
(lp2398
(i__main__
DelphiIdentAccess
p2399
(dp2400
g14
S'plant'
p2401
sg16
(lp2402
(idelphi
DelphiFieldEndAccess
p2403
(dp2404
g997
S'boundsRect_pixels'
p2405
sbasbasbasbsg1196
(i__main__
DelphiIdentAccess
p2406
(dp2407
g14
S'widestWidth'
p2408
sg16
(lp2409
sbsg1199
S'>'
sbasbsg1274
(idelphi
DelphiNestedExpressionListAccess
p2410
(dp2411
g16
(lp2412
sg1001
(lp2413
(idelphi
DelphiRelOp
p2414
(dp2415
g1191
(i__main__
DelphiIdentAccess
p2416
(dp2417
g14
S'i'
sg16
(lp2418
sbsg1196
(idelphi
DelphiIntegerValue
p2419
(dp2420
g37
S'0'
sbsg1199
S'='
sbasbsbsg1200
Nsg1201
(idelphi
DelphiCompoundStatement
p2421
(dp2422
g985
(lp2423
(i__main__
DelphiAssignStatement
p2424
(dp2425
g989
(i__main__
DelphiIdentAccess
p2426
(dp2427
g14
S'rWidth'
p2428
sg16
(lp2429
(idelphi
DelphiFunctionEndAccess
p2430
(dp2431
g1001
(lp2432
(i__main__
DelphiIdentAccess
p2433
(dp2434
g14
S'plant'
p2435
sg16
(lp2436
(idelphi
DelphiFieldEndAccess
p2437
(dp2438
g997
S'boundsRect_pixels'
p2439
sbasbasbasbsg990
(i__main__
DelphiIdentAccess
p2440
(dp2441
g14
S'widestWidth'
p2442
sg16
(lp2443
sbsba(i__main__
DelphiAssignStatement
p2444
(dp2445
g989
(i__main__
DelphiIdentAccess
p2446
(dp2447
g14
S'plant'
p2448
sg16
(lp2449
(idelphi
DelphiFieldEndAccess
p2450
(dp2451
g997
S'drawPositionIfFixed'
p2452
sba(idelphi
DelphiFieldEndAccess
p2453
(dp2454
g997
S'x'
sbasbsg990
(i__main__
DelphiIdentAccess
p2455
(dp2456
g14
S'bestPosition'
p2457
sg16
(lp2458
(idelphi
DelphiFieldEndAccess
p2459
(dp2460
g997
S'x'
sbasbsbasbsba(idelphi
DelphiIfStatement
p2461
(dp2462
g1188
(idelphi
DelphiAddOp
p2463
(dp2464
g1270
g2198
sg1271
(idelphi
DelphiNestedExpressionListAccess
p2465
(dp2466
g16
(lp2467
sg1001
(lp2468
(idelphi
DelphiRelOp
p2469
(dp2470
g1191
(i__main__
DelphiIdentAccess
p2471
(dp2472
g14
S'rHeight'
p2473
sg16
(lp2474
(idelphi
DelphiFunctionEndAccess
p2475
(dp2476
g1001
(lp2477
(i__main__
DelphiIdentAccess
p2478
(dp2479
g14
S'plant'
p2480
sg16
(lp2481
(idelphi
DelphiFieldEndAccess
p2482
(dp2483
g997
S'boundsRect_pixels'
p2484
sbasbasbasbsg1196
(i__main__
DelphiIdentAccess
p2485
(dp2486
g14
S'tallestHeight'
p2487
sg16
(lp2488
sbsg1199
S'>'
sbasbsg1274
(idelphi
DelphiNestedExpressionListAccess
p2489
(dp2490
g16
(lp2491
sg1001
(lp2492
(idelphi
DelphiRelOp
p2493
(dp2494
g1191
(i__main__
DelphiIdentAccess
p2495
(dp2496
g14
S'i'
sg16
(lp2497
sbsg1196
(idelphi
DelphiIntegerValue
p2498
(dp2499
g37
S'0'
sbsg1199
S'='
sbasbsbsg1200
Nsg1201
(idelphi
DelphiCompoundStatement
p2500
(dp2501
g985
(lp2502
(i__main__
DelphiAssignStatement
p2503
(dp2504
g989
(i__main__
DelphiIdentAccess
p2505
(dp2506
g14
S'rHeight'
p2507
sg16
(lp2508
(idelphi
DelphiFunctionEndAccess
p2509
(dp2510
g1001
(lp2511
(i__main__
DelphiIdentAccess
p2512
(dp2513
g14
S'plant'
p2514
sg16
(lp2515
(idelphi
DelphiFieldEndAccess
p2516
(dp2517
g997
S'boundsRect_pixels'
p2518
sbasbasbasbsg990
(i__main__
DelphiIdentAccess
p2519
(dp2520
g14
S'tallestHeight'
p2521
sg16
(lp2522
sbsba(i__main__
DelphiAssignStatement
p2523
(dp2524
g989
(i__main__
DelphiIdentAccess
p2525
(dp2526
g14
S'plant'
p2527
sg16
(lp2528
(idelphi
DelphiFieldEndAccess
p2529
(dp2530
g997
S'drawPositionIfFixed'
p2531
sba(idelphi
DelphiFieldEndAccess
p2532
(dp2533
g997
S'y'
sbasbsg990
(i__main__
DelphiIdentAccess
p2534
(dp2535
g14
S'bestPosition'
p2536
sg16
(lp2537
(idelphi
DelphiFieldEndAccess
p2538
(dp2539
g997
S'y'
sbasbsbasbsbasbsba(idelphi
DelphiForStatement
p2540
(dp2541
g1266
S'i'
sg1267
(idelphi
DelphiAddOp
p2542
(dp2543
g1270
S'-'
sg1271
(idelphi
DelphiIntegerValue
p2544
(dp2545
g37
S'1'
sbsg1274
(i__main__
DelphiIdentAccess
p2546
(dp2547
g14
S'plants'
p2548
sg16
(lp2549
(idelphi
DelphiFieldEndAccess
p2550
(dp2551
g997
S'count'
p2552
sbasbsbsg1279
g1280
sg151
(idelphi
DelphiIntegerValue
p2553
(dp2554
g37
S'0'
sbsg1113
(idelphi
DelphiCompoundStatement
p2555
(dp2556
g985
(lp2557
(i__main__
DelphiAssignStatement
p2558
(dp2559
g989
(i__main__
DelphiIdentAccess
p2560
(dp2561
g14
S'PdPlant'
p2562
sg16
(lp2563
(idelphi
DelphiFunctionEndAccess
p2564
(dp2565
g1001
(lp2566
(i__main__
DelphiIdentAccess
p2567
(dp2568
g14
S'plants'
p2569
sg16
(lp2570
(idelphi
DelphiFieldEndAccess
p2571
(dp2572
g997
S'items'
p2573
sba(idelphi
DelphiArrayEndAccess
p2574
(dp2575
g1001
(lp2576
(i__main__
DelphiIdentAccess
p2577
(dp2578
g14
S'i'
sg16
(lp2579
sbasbasbasbasbsg990
(i__main__
DelphiIdentAccess
p2580
(dp2581
g14
S'plant'
p2582
sg16
(lp2583
sbsg209
(lp2584
S" set draw position to use when repaint - don't draw now\r"
p2585
asba(i__main__
DelphiAssignStatement
p2586
(dp2587
g989
(i__main__
DelphiIdentAccess
p2588
(dp2589
g14
S'true'
p2590
sg16
(lp2591
sbsg990
(i__main__
DelphiIdentAccess
p2592
(dp2593
g14
S'plant'
p2594
sg16
(lp2595
(idelphi
DelphiFieldEndAccess
p2596
(dp2597
g997
S'fixedPreviewScale'
p2598
sbasbsba(i__main__
DelphiAssignStatement
p2599
(dp2600
g989
(i__main__
DelphiIdentAccess
p2601
(dp2602
g14
S'minScale'
p2603
sg16
(lp2604
sbsg990
(i__main__
DelphiIdentAccess
p2605
(dp2606
g14
S'plant'
p2607
sg16
(lp2608
(idelphi
DelphiFieldEndAccess
p2609
(dp2610
g997
S'drawingScale_PixelsPerMm'
p2611
sbasbsba(i__main__
DelphiAssignStatement
p2612
(dp2613
g989
(i__main__
DelphiIdentAccess
p2614
(dp2615
g14
S'true'
p2616
sg16
(lp2617
sbsg990
(i__main__
DelphiIdentAccess
p2618
(dp2619
g14
S'plant'
p2620
sg16
(lp2621
(idelphi
DelphiFieldEndAccess
p2622
(dp2623
g997
S'fixedDrawPosition'
p2624
sbasbsba(i__main__
DelphiAssignStatement
p2625
(dp2626
g989
(i__main__
DelphiIdentAccess
p2627
(dp2628
g14
S'bestPosition'
p2629
sg16
(lp2630
sbsg990
(i__main__
DelphiIdentAccess
p2631
(dp2632
g14
S'plant'
p2633
sg16
(lp2634
(idelphi
DelphiFieldEndAccess
p2635
(dp2636
g997
S'drawPositionIfFixed'
p2637
sbasbsba(i__main__
DelphiAssignStatement
p2638
(dp2639
g989
(i__main__
DelphiIdentAccess
p2640
(dp2641
g14
S'false'
p2642
sg16
(lp2643
sbsg990
(i__main__
DelphiIdentAccess
p2644
(dp2645
g14
S'plant'
p2646
sg16
(lp2647
(idelphi
DelphiFieldEndAccess
p2648
(dp2649
g997
S'previewCacheUpToDate'
p2650
sbasbsbasbsbasbsg1005
(lp2651
(i__main__
DelphiVarSection
p2652
(dp2653
g42
I0
sg1448
(lp2654
(idelphi
DelphiVarDecl
p2655
(dp2656
g11
Nsg1452
(lp2657
S'plant'
p2658
asg19
(i__main__
DelphiNamedType
p2659
(dp2660
g22
S'PdPlant'
p2661
sg158
g1
sg159
Nsbsba(idelphi
DelphiVarDecl
p2662
(dp2663
g11
Nsg1452
(lp2664
S'i'
asg19
(i__main__
DelphiPrimitiveType
p2665
(dp2666
g22
g387
sbsba(idelphi
DelphiVarDecl
p2667
(dp2668
g11
Nsg1452
(lp2669
S'minScale'
p2670
asg19
(i__main__
DelphiPrimitiveType
p2671
(dp2672
g22
g875
sbsba(idelphi
DelphiVarDecl
p2673
(dp2674
g11
Nsg1452
(lp2675
S'plantPartsToDraw'
p2676
aS'partsDrawn'
p2677
asg19
(i__main__
DelphiPrimitiveType
p2678
(dp2679
g22
g485
sbsba(idelphi
DelphiVarDecl
p2680
(dp2681
g11
Nsg1452
(lp2682
S'bestPosition'
p2683
asg19
(i__main__
DelphiNamedType
p2684
(dp2685
g22
S'TPoint'
p2686
sg158
g1
sg159
Nsbsba(idelphi
DelphiVarDecl
p2687
(dp2688
g11
Nsg1452
(lp2689
S'widestWidth'
p2690
aS'tallestHeight'
p2691
asg19
(i__main__
DelphiPrimitiveType
p2692
(dp2693
g22
g485
sbsbasbasbsbsS'plantatmouse'
p2694
(i__main__
DelphiMethodImplementation
p2695
(dp2696
g958
g378
sg139
g380
sg147
(lp2697
(i__main__
DelphiFormalParameter
p2698
(dp2699
g151
Nsg152
(lp2700
S'x'
aS'y'
asg19
(i__main__
DelphiPrimitiveType
p2701
(dp2702
g22
g387
sbsg160
Nsbasg967
(lp2703
sg969
(lp2704
sg971
(lp2705
g973
aS'x'
aS'y'
asg974
(dp2706
S'y'
g2701
sS'x'
g2701
ssg161
S'TTimeSeriesForm'
p2707
sg162
(i__main__
DelphiNamedType
p2708
(dp2709
g22
S'PdPlant'
p2710
sg158
g1
sg159
Nsbsg977
(lp2711
sg163
I0
sg164
g232
sg979
(i__main__
DelphiBlock
p2712
(dp2713
g982
(idelphi
DelphiCompoundStatement
p2714
(dp2715
g985
(lp2716
(i__main__
DelphiAssignStatement
p2717
(dp2718
g989
(idelphi
DelphiNilValue
p2719
(dp2720
bsg990
(i__main__
DelphiIdentAccess
p2721
(dp2722
g14
S'result'
p2723
sg16
(lp2724
sbsba(i__main__
DelphiAssignStatement
p2725
(dp2726
g989
Nsg990
(i__main__
DelphiIdentAccess
p2727
(dp2728
g14
S'grid'
p2729
sg16
(lp2730
(idelphi
DelphiFieldEndAccess
p2731
(dp2732
g997
S'mouseToCell'
p2733
sba(idelphi
DelphiFunctionEndAccess
p2734
(dp2735
g1001
(lp2736
(i__main__
DelphiIdentAccess
p2737
(dp2738
g14
S'x'
sg16
(lp2739
sba(i__main__
DelphiIdentAccess
p2740
(dp2741
g14
S'y'
sg16
(lp2742
sba(i__main__
DelphiIdentAccess
p2743
(dp2744
g14
S'col'
p2745
sg16
(lp2746
sba(i__main__
DelphiIdentAccess
p2747
(dp2748
g14
S'row'
p2749
sg16
(lp2750
sbasbasbsba(idelphi
DelphiIfStatement
p2751
(dp2752
g1188
(idelphi
DelphiAddOp
p2753
(dp2754
g1270
g2198
sg1271
(idelphi
DelphiNestedExpressionListAccess
p2755
(dp2756
g16
(lp2757
sg1001
(lp2758
(idelphi
DelphiRelOp
p2759
(dp2760
g1191
(i__main__
DelphiIdentAccess
p2761
(dp2762
g14
S'col'
p2763
sg16
(lp2764
sbsg1196
(idelphi
DelphiAddOp
p2765
(dp2766
g1270
S'-'
sg1271
(idelphi
DelphiIntegerValue
p2767
(dp2768
g37
S'1'
sbsg1274
(i__main__
DelphiIdentAccess
p2769
(dp2770
g14
S'plants'
p2771
sg16
(lp2772
(idelphi
DelphiFieldEndAccess
p2773
(dp2774
g997
S'count'
p2775
sbasbsbsg1199
S'>'
sbasbsg1274
(idelphi
DelphiNestedExpressionListAccess
p2776
(dp2777
g16
(lp2778
sg1001
(lp2779
(idelphi
DelphiRelOp
p2780
(dp2781
g1191
(i__main__
DelphiIdentAccess
p2782
(dp2783
g14
S'col'
p2784
sg16
(lp2785
sbsg1196
(idelphi
DelphiIntegerValue
p2786
(dp2787
g37
S'0'
sbsg1199
S'<'
sbasbsbsg1200
Nsg1201
(i__main__
DelphiExitStatement
p2788
(dp2789
g1204
g2695
sbsba(i__main__
DelphiAssignStatement
p2790
(dp2791
g989
(i__main__
DelphiIdentAccess
p2792
(dp2793
g14
S'self'
p2794
sg16
(lp2795
(idelphi
DelphiFieldEndAccess
p2796
(dp2797
g997
S'plantForIndex'
p2798
sba(idelphi
DelphiFunctionEndAccess
p2799
(dp2800
g1001
(lp2801
(i__main__
DelphiIdentAccess
p2802
(dp2803
g14
S'col'
p2804
sg16
(lp2805
sbasbasbsg990
(i__main__
DelphiIdentAccess
p2806
(dp2807
g14
S'result'
p2808
sg16
(lp2809
sbsbasbsg1005
(lp2810
(i__main__
DelphiVarSection
p2811
(dp2812
g42
I0
sg1448
(lp2813
(idelphi
DelphiVarDecl
p2814
(dp2815
g11
Nsg1452
(lp2816
S'col'
p2817
aS'row'
p2818
asg19
(i__main__
DelphiPrimitiveType
p2819
(dp2820
g22
g485
sbsbasbasbsbsS'timeseriesmenuoptionscustomdrawclick'
p2821
(i__main__
DelphiMethodImplementation
p2822
(dp2823
g958
g270
sg139
g272
sg147
(lp2824
(i__main__
DelphiFormalParameter
p2825
(dp2826
g151
Nsg152
(lp2827
S'Sender'
p2828
asg19
(i__main__
DelphiNamedType
p2829
(dp2830
g22
S'TObject'
p2831
sg158
g1
sg159
Nsbsg160
Nsbasg967
(lp2832
sg969
(lp2833
sg971
(lp2834
g973
ag2828
asg974
(dp2835
g2828
g2829
ssg161
S'TTimeSeriesForm'
p2836
sg162
Nsg977
(lp2837
sg163
I0
sg164
g165
sg979
(i__main__
DelphiBlock
p2838
(dp2839
g982
(idelphi
DelphiCompoundStatement
p2840
(dp2841
g985
(lp2842
(i__main__
DelphiAssignStatement
p2843
(dp2844
g989
Nsg990
(i__main__
DelphiIdentAccess
p2845
(dp2846
g14
S'MainForm'
p2847
sg16
(lp2848
(idelphi
DelphiFieldEndAccess
p2849
(dp2850
g997
S'MenuOptionsCustomDrawClick'
p2851
sba(idelphi
DelphiFunctionEndAccess
p2852
(dp2853
g1001
(lp2854
(i__main__
DelphiIdentAccess
p2855
(dp2856
g14
S'MainForm'
p2857
sg16
(lp2858
sbasbasbsbasbsg1005
(lp2859
sbsbsS'gridmousedown'
p2860
(i__main__
DelphiMethodImplementation
p2861
(dp2862
g958
g282
sg139
g284
sg147
(lp2863
(i__main__
DelphiFormalParameter
p2864
(dp2865
g151
Nsg152
(lp2866
S'Sender'
p2867
asg19
(i__main__
DelphiNamedType
p2868
(dp2869
g22
S'TObject'
p2870
sg158
g1
sg159
Nsbsg160
Nsba(i__main__
DelphiFormalParameter
p2871
(dp2872
g151
Nsg152
(lp2873
S'Button'
p2874
asg19
(i__main__
DelphiNamedType
p2875
(dp2876
g22
S'TMouseButton'
p2877
sg158
g1
sg159
Nsbsg160
Nsba(i__main__
DelphiFormalParameter
p2878
(dp2879
g151
Nsg152
(lp2880
S'Shift'
p2881
asg19
(i__main__
DelphiNamedType
p2882
(dp2883
g22
S'TShiftState'
p2884
sg158
g1
sg159
Nsbsg160
Nsba(i__main__
DelphiFormalParameter
p2885
(dp2886
g151
Nsg152
(lp2887
S'X'
aS'Y'
asg19
(i__main__
DelphiPrimitiveType
p2888
(dp2889
g22
g268
sbsg160
Nsbasg967
(lp2890
sg969
(lp2891
sg971
(lp2892
g973
ag2867
ag2874
ag2881
aS'X'
aS'Y'
asg974
(dp2893
S'Y'
g2888
sg2881
g2882
sg2874
g2875
sg2867
g2868
sS'X'
g2888
ssg161
S'TTimeSeriesForm'
p2894
sg162
Nsg977
(lp2895
sg163
I0
sg164
g165
sg979
(i__main__
DelphiBlock
p2896
(dp2897
g982
(idelphi
DelphiCompoundStatement
p2898
(dp2899
g985
(lp2900
(i__main__
DelphiAssignStatement
p2901
(dp2902
g989
(i__main__
DelphiIdentAccess
p2903
(dp2904
g14
S'self'
p2905
sg16
(lp2906
(idelphi
DelphiFieldEndAccess
p2907
(dp2908
g997
S'plantAtMouse'
p2909
sba(idelphi
DelphiFunctionEndAccess
p2910
(dp2911
g1001
(lp2912
(i__main__
DelphiIdentAccess
p2913
(dp2914
g14
S'x'
sg16
(lp2915
sba(i__main__
DelphiIdentAccess
p2916
(dp2917
g14
S'y'
sg16
(lp2918
sbasbasbsg990
(i__main__
DelphiIdentAccess
p2919
(dp2920
g14
S'selectedPlant'
p2921
sg16
(lp2922
sbsba(i__main__
DelphiAssignStatement
p2923
(dp2924
g989
Nsg990
(i__main__
DelphiIdentAccess
p2925
(dp2926
g14
S'self'
p2927
sg16
(lp2928
(idelphi
DelphiFieldEndAccess
p2929
(dp2930
g997
S'updateMenusForChangeToSelectedPlant'
p2931
sbasbsba(i__main__
DelphiAssignStatement
p2932
(dp2933
g989
Nsg990
(i__main__
DelphiIdentAccess
p2934
(dp2935
g14
S'grid'
p2936
sg16
(lp2937
(idelphi
DelphiFieldEndAccess
p2938
(dp2939
g997
S'invalidate'
p2940
sbasbsba(idelphi
DelphiIfStatement
p2941
(dp2942
g1188
(idelphi
DelphiAddOp
p2943
(dp2944
g1270
g2198
sg1271
(idelphi
DelphiNestedExpressionListAccess
p2945
(dp2946
g16
(lp2947
sg1001
(lp2948
(idelphi
DelphiRelOp
p2949
(dp2950
g1191
(i__main__
DelphiIdentAccess
p2951
(dp2952
g14
S'ssShift'
p2953
sg16
(lp2954
sbsg1196
(i__main__
DelphiIdentAccess
p2955
(dp2956
g14
S'shift'
p2957
sg16
(lp2958
sbsg1199
S'in'
p2959
sbasbsg1274
(idelphi
DelphiNestedExpressionListAccess
p2960
(dp2961
g16
(lp2962
sg1001
(lp2963
(idelphi
DelphiRelOp
p2964
(dp2965
g1191
(i__main__
DelphiIdentAccess
p2966
(dp2967
g14
S'button'
p2968
sg16
(lp2969
sbsg1196
(i__main__
DelphiIdentAccess
p2970
(dp2971
g14
S'mbRight'
p2972
sg16
(lp2973
sbsg1199
S'='
sbasbsbsg1200
Nsg1201
(i__main__
DelphiExitStatement
p2974
(dp2975
g1204
g2861
sg209
(lp2976
S' start drag of plant\r'
p2977
asbsba(idelphi
DelphiIfStatement
p2978
(dp2979
g1188
(idelphi
DelphiRelOp
p2980
(dp2981
g1191
(i__main__
DelphiIdentAccess
p2982
(dp2983
g14
S'selectedPlant'
p2984
sg16
(lp2985
sbsg1196
(idelphi
DelphiNilValue
p2986
(dp2987
bsg1199
S'='
sbsg1200
Nsg1201
(i__main__
DelphiExitStatement
p2988
(dp2989
g1204
g2861
sbsba(i__main__
DelphiAssignStatement
p2990
(dp2991
g989
(i__main__
DelphiIdentAccess
p2992
(dp2993
g14
S'Point'
p2994
sg16
(lp2995
(idelphi
DelphiFunctionEndAccess
p2996
(dp2997
g1001
(lp2998
(i__main__
DelphiIdentAccess
p2999
(dp3000
g14
S'x'
sg16
(lp3001
sba(i__main__
DelphiIdentAccess
p3002
(dp3003
g14
S'y'
sg16
(lp3004
sbasbasbsg990
(i__main__
DelphiIdentAccess
p3005
(dp3006
g14
S'dragPlantStartPoint'
p3007
sg16
(lp3008
sbsba(i__main__
DelphiAssignStatement
p3009
(dp3010
g989
Nsg990
(i__main__
DelphiIdentAccess
p3011
(dp3012
g14
S'grid'
p3013
sg16
(lp3014
(idelphi
DelphiFieldEndAccess
p3015
(dp3016
g997
S'beginDrag'
p3017
sba(idelphi
DelphiFunctionEndAccess
p3018
(dp3019
g1001
(lp3020
(i__main__
DelphiIdentAccess
p3021
(dp3022
g14
S'false'
p3023
sg16
(lp3024
sbasbasbsbasbsg1005
(lp3025
sbsbsS'timeseriespopupmenupasteclick'
p3026
(i__main__
DelphiMethodImplementation
p3027
(dp3028
g958
g313
sg139
g315
sg147
(lp3029
(i__main__
DelphiFormalParameter
p3030
(dp3031
g151
Nsg152
(lp3032
S'Sender'
p3033
asg19
(i__main__
DelphiNamedType
p3034
(dp3035
g22
S'TObject'
p3036
sg158
g1
sg159
Nsbsg160
Nsbasg967
(lp3037
sg969
(lp3038
sg971
(lp3039
g973
ag3033
asg974
(dp3040
g3033
g3034
ssg161
S'TTimeSeriesForm'
p3041
sg162
Nsg977
(lp3042
sg163
I0
sg164
g165
sg979
(i__main__
DelphiBlock
p3043
(dp3044
g982
(idelphi
DelphiCompoundStatement
p3045
(dp3046
g985
(lp3047
(i__main__
DelphiAssignStatement
p3048
(dp3049
g989
Nsg990
(i__main__
DelphiIdentAccess
p3050
(dp3051
g14
S'self'
p3052
sg16
(lp3053
(idelphi
DelphiFieldEndAccess
p3054
(dp3055
g997
S'TimeSeriesMenuPasteClick'
p3056
sba(idelphi
DelphiFunctionEndAccess
p3057
(dp3058
g1001
(lp3059
(i__main__
DelphiIdentAccess
p3060
(dp3061
g14
S'self'
p3062
sg16
(lp3063
sbasbasbsbasbsg1005
(lp3064
sbsbsS'timeseriesmenubreedclick'
p3065
(i__main__
DelphiMethodImplementation
p3066
(dp3067
g958
g325
sg139
g327
sg147
(lp3068
(i__main__
DelphiFormalParameter
p3069
(dp3070
g151
Nsg152
(lp3071
S'Sender'
p3072
asg19
(i__main__
DelphiNamedType
p3073
(dp3074
g22
S'TObject'
p3075
sg158
g1
sg159
Nsbsg160
Nsbasg967
(lp3076
sg969
(lp3077
sg971
(lp3078
g973
ag3072
asg974
(dp3079
g3072
g3073
ssg161
S'TTimeSeriesForm'
p3080
sg162
Nsg977
(lp3081
sg163
I0
sg164
g165
sg979
(i__main__
DelphiBlock
p3082
(dp3083
g982
(idelphi
DelphiCompoundStatement
p3084
(dp3085
g985
(lp3086
(idelphi
DelphiIfStatement
p3087
(dp3088
g1188
(idelphi
DelphiRelOp
p3089
(dp3090
g1191
(i__main__
DelphiIdentAccess
p3091
(dp3092
g14
S'self'
p3093
sg16
(lp3094
(idelphi
DelphiFieldEndAccess
p3095
(dp3096
g997
S'selectedPlant'
p3097
sbasbsg1196
(idelphi
DelphiNilValue
p3098
(dp3099
bsg1199
S'='
sbsg1200
Nsg1201
(i__main__
DelphiExitStatement
p3100
(dp3101
g1204
g3066
sbsba(idelphi
DelphiIfStatement
p3102
(dp3103
g1188
(idelphi
DelphiRelOp
p3104
(dp3105
g1191
(i__main__
DelphiIdentAccess
p3106
(dp3107
g14
S'BreederForm'
p3108
sg16
(lp3109
(idelphi
DelphiFieldEndAccess
p3110
(dp3111
g997
S'selectedRow'
p3112
sbasbsg1196
(idelphi
DelphiAddOp
p3113
(dp3114
g1270
S'-'
sg1271
(idelphi
DelphiIntegerValue
p3115
(dp3116
g37
S'2'
sbsg1274
(i__main__
DelphiIdentAccess
p3117
(dp3118
g14
S'domain'
p3119
sg16
(lp3120
(idelphi
DelphiFieldEndAccess
p3121
(dp3122
g997
S'breedingAndTimeSeriesOptions'
p3123
sba(idelphi
DelphiFieldEndAccess
p3124
(dp3125
g997
S'maxGenerations'
p3126
sbasbsbsg1199
S'>='
p3127
sbsg1200
(idelphi
DelphiCompoundStatement
p3128
(dp3129
g985
(lp3130
(i__main__
DelphiAssignStatement
p3131
(dp3132
g989
(i__main__
DelphiIdentAccess
p3133
(dp3134
g14
S'PdBreedFromParentsCommand'
p3135
sg16
(lp3136
(idelphi
DelphiFieldEndAccess
p3137
(dp3138
g997
S'createWithInfo'
p3139
sba(idelphi
DelphiFunctionEndAccess
p3140
(dp3141
g1001
(lp3142
(i__main__
DelphiIdentAccess
p3143
(dp3144
g14
S'BreederForm'
p3145
sg16
(lp3146
(idelphi
DelphiFieldEndAccess
p3147
(dp3148
g997
S'generations'
p3149
sbasba(i__main__
DelphiIdentAccess
p3150
(dp3151
g14
S'self'
p3152
sg16
(lp3153
(idelphi
DelphiFieldEndAccess
p3154
(dp3155
g997
S'selectedPlant'
p3156
sbasba(idelphi
DelphiNilValue
p3157
(dp3158
ba(idelphi
DelphiSign
p3159
(dp3160
g1209
(idelphi
DelphiIntegerValue
p3161
(dp3162
g37
S'1'
sbsS'sign'
p3163
S'-'
sba(idelphi
DelphiMulOp
p3164
(dp3165
g1326
(idelphi
DelphiRealValue
p3166
(dp3167
g37
S'100.0'
p3168
sbsg1337
S'/'
sg1338
(i__main__
DelphiIdentAccess
p3169
(dp3170
g14
S'domain'
p3171
sg16
(lp3172
(idelphi
DelphiFieldEndAccess
p3173
(dp3174
g997
S'breedingAndTimeSeriesOptions'
p3175
sba(idelphi
DelphiFieldEndAccess
p3176
(dp3177
g997
S'percentMaxAge'
p3178
sbasbsba(i__main__
DelphiIdentAccess
p3179
(dp3180
g14
S'kCreateFirstGeneration'
p3181
sg16
(lp3182
sbasbasbsg990
(i__main__
DelphiIdentAccess
p3183
(dp3184
g14
S'newCommand'
p3185
sg16
(lp3186
sbsba(i__main__
DelphiAssignStatement
p3187
(dp3188
g989
Nsg990
(i__main__
DelphiIdentAccess
p3189
(dp3190
g14
S'MainForm'
p3191
sg16
(lp3192
(idelphi
DelphiFieldEndAccess
p3193
(dp3194
g997
S'doCommand'
p3195
sba(idelphi
DelphiFunctionEndAccess
p3196
(dp3197
g1001
(lp3198
(i__main__
DelphiIdentAccess
p3199
(dp3200
g14
S'newCommand'
p3201
sg16
(lp3202
sbasbasbsbasbsg1201
(i__main__
DelphiAssignStatement
p3203
(dp3204
g989
Nsg990
(i__main__
DelphiIdentAccess
p3205
(dp3206
g14
S'BreederForm'
p3207
sg16
(lp3208
(idelphi
DelphiFieldEndAccess
p3209
(dp3210
g997
S'fullWarning'
p3211
sbasbsg209
(lp3212
S' check if there is room in the breeder - this command will make two new generations '
p3213
asbsbasbsg1005
(lp3214
(i__main__
DelphiVarSection
p3215
(dp3216
g42
I0
sg1448
(lp3217
(idelphi
DelphiVarDecl
p3218
(dp3219
g11
Nsg1452
(lp3220
S'newCommand'
p3221
asg19
(i__main__
DelphiNamedType
p3222
(dp3223
g22
S'PdCommand'
p3224
sg158
g1
sg159
NsbsbasbasbsbsS'timeseriesmenudeleteclick'
p3225
(i__main__
DelphiMethodImplementation
p3226
(dp3227
g958
g337
sg139
g339
sg147
(lp3228
(i__main__
DelphiFormalParameter
p3229
(dp3230
g151
Nsg152
(lp3231
S'Sender'
p3232
asg19
(i__main__
DelphiNamedType
p3233
(dp3234
g22
S'TObject'
p3235
sg158
g1
sg159
Nsbsg160
Nsbasg967
(lp3236
sg969
(lp3237
sg971
(lp3238
g973
ag3232
asg974
(dp3239
g3232
g3233
ssg161
S'TTimeSeriesForm'
p3240
sg162
Nsg977
(lp3241
sg163
I0
sg164
g165
sg979
(i__main__
DelphiBlock
p3242
(dp3243
g982
(idelphi
DelphiCompoundStatement
p3244
(dp3245
g985
(lp3246
(i__main__
DelphiAssignStatement
p3247
(dp3248
g989
(i__main__
DelphiIdentAccess
p3249
(dp3250
g14
S'PdDeleteTimeSeriesCommand'
p3251
sg16
(lp3252
(idelphi
DelphiFieldEndAccess
p3253
(dp3254
g997
S'create'
p3255
sbasbsg990
(i__main__
DelphiIdentAccess
p3256
(dp3257
g14
S'newCommand'
p3258
sg16
(lp3259
sbsba(i__main__
DelphiAssignStatement
p3260
(dp3261
g989
Nsg990
(i__main__
DelphiIdentAccess
p3262
(dp3263
g14
S'MainForm'
p3264
sg16
(lp3265
(idelphi
DelphiFieldEndAccess
p3266
(dp3267
g997
S'doCommand'
p3268
sba(idelphi
DelphiFunctionEndAccess
p3269
(dp3270
g1001
(lp3271
(i__main__
DelphiIdentAccess
p3272
(dp3273
g14
S'newCommand'
p3274
sg16
(lp3275
sbasbasbsbasbsg1005
(lp3276
(i__main__
DelphiVarSection
p3277
(dp3278
g42
I0
sg1448
(lp3279
(idelphi
DelphiVarDecl
p3280
(dp3281
g11
Nsg1452
(lp3282
S'newCommand'
p3283
asg19
(i__main__
DelphiNamedType
p3284
(dp3285
g22
S'PdCommand'
p3286
sg158
g1
sg159
NsbsbasbasbsbsS'timeseriesmenuundoredolistclick'
p3287
(i__main__
DelphiMethodImplementation
p3288
(dp3289
g958
g349
sg139
g351
sg147
(lp3290
(i__main__
DelphiFormalParameter
p3291
(dp3292
g151
Nsg152
(lp3293
S'Sender'
p3294
asg19
(i__main__
DelphiNamedType
p3295
(dp3296
g22
S'TObject'
p3297
sg158
g1
sg159
Nsbsg160
Nsbasg967
(lp3298
sg969
(lp3299
sg971
(lp3300
g973
ag3294
asg974
(dp3301
g3294
g3295
ssg161
S'TTimeSeriesForm'
p3302
sg162
Nsg977
(lp3303
sg163
I0
sg164
g165
sg979
(i__main__
DelphiBlock
p3304
(dp3305
g982
(idelphi
DelphiCompoundStatement
p3306
(dp3307
g985
(lp3308
(i__main__
DelphiAssignStatement
p3309
(dp3310
g989
Nsg990
(i__main__
DelphiIdentAccess
p3311
(dp3312
g14
S'MainForm'
p3313
sg16
(lp3314
(idelphi
DelphiFieldEndAccess
p3315
(dp3316
g997
S'UndoMenuEditUndoRedoListClick'
p3317
sba(idelphi
DelphiFunctionEndAccess
p3318
(dp3319
g1001
(lp3320
(i__main__
DelphiIdentAccess
p3321
(dp3322
g14
S'MainForm'
p3323
sg16
(lp3324
sbasbasbsbasbsg1005
(lp3325
sbsbsS'timeseriesmenuredoclick'
p3326
(i__main__
DelphiMethodImplementation
p3327
(dp3328
g958
g361
sg139
g363
sg147
(lp3329
(i__main__
DelphiFormalParameter
p3330
(dp3331
g151
Nsg152
(lp3332
S'Sender'
p3333
asg19
(i__main__
DelphiNamedType
p3334
(dp3335
g22
S'TObject'
p3336
sg158
g1
sg159
Nsbsg160
Nsbasg967
(lp3337
sg969
(lp3338
sg971
(lp3339
g973
ag3333
asg974
(dp3340
g3333
g3334
ssg161
S'TTimeSeriesForm'
p3341
sg162
Nsg977
(lp3342
sg163
I0
sg164
g165
sg979
(i__main__
DelphiBlock
p3343
(dp3344
g982
(idelphi
DelphiCompoundStatement
p3345
(dp3346
g985
(lp3347
(i__main__
DelphiAssignStatement
p3348
(dp3349
g989
Nsg990
(i__main__
DelphiIdentAccess
p3350
(dp3351
g14
S'MainForm'
p3352
sg16
(lp3353
(idelphi
DelphiFieldEndAccess
p3354
(dp3355
g997
S'menuEditRedoClick'
p3356
sba(idelphi
DelphiFunctionEndAccess
p3357
(dp3358
g1001
(lp3359
(i__main__
DelphiIdentAccess
p3360
(dp3361
g14
S'MainForm'
p3362
sg16
(lp3363
sbasbasbsbasbsg1005
(lp3364
sbsbsS'updatemenusforchangetoselectedplant'
p3365
(i__main__
DelphiMethodImplementation
p3366
(dp3367
g958
g373
sg139
g375
sg147
(lp3368
sg967
(lp3369
sg969
(lp3370
sg971
(lp3371
g973
asg974
(dp3372
sg161
S'TTimeSeriesForm'
p3373
sg162
Nsg977
(lp3374
sg163
I0
sg164
g165
sg979
(i__main__
DelphiBlock
p3375
(dp3376
g982
(idelphi
DelphiCompoundStatement
p3377
(dp3378
g985
(lp3379
(i__main__
DelphiAssignStatement
p3380
(dp3381
g989
(idelphi
DelphiNestedExpressionListAccess
p3382
(dp3383
g16
(lp3384
sg1001
(lp3385
(idelphi
DelphiRelOp
p3386
(dp3387
g1191
(i__main__
DelphiIdentAccess
p3388
(dp3389
g14
S'self'
p3390
sg16
(lp3391
(idelphi
DelphiFieldEndAccess
p3392
(dp3393
g997
S'selectedPlant'
p3394
sbasbsg1196
(idelphi
DelphiNilValue
p3395
(dp3396
bsg1199
g1506
sbasbsg990
(i__main__
DelphiIdentAccess
p3397
(dp3398
g14
S'TimeSeriesMenuCopy'
p3399
sg16
(lp3400
(idelphi
DelphiFieldEndAccess
p3401
(dp3402
g997
S'enabled'
p3403
sbasbsba(i__main__
DelphiAssignStatement
p3404
(dp3405
g989
(i__main__
DelphiIdentAccess
p3406
(dp3407
g14
S'TimeSeriesMenuCopy'
p3408
sg16
(lp3409
(idelphi
DelphiFieldEndAccess
p3410
(dp3411
g997
S'enabled'
p3412
sbasbsg990
(i__main__
DelphiIdentAccess
p3413
(dp3414
g14
S'TimeSeriesPopupMenuCopy'
p3415
sg16
(lp3416
(idelphi
DelphiFieldEndAccess
p3417
(dp3418
g997
S'enabled'
p3419
sbasbsba(i__main__
DelphiAssignStatement
p3420
(dp3421
g989
(idelphi
DelphiNestedExpressionListAccess
p3422
(dp3423
g16
(lp3424
sg1001
(lp3425
(idelphi
DelphiRelOp
p3426
(dp3427
g1191
(i__main__
DelphiIdentAccess
p3428
(dp3429
g14
S'self'
p3430
sg16
(lp3431
(idelphi
DelphiFieldEndAccess
p3432
(dp3433
g997
S'selectedPlant'
p3434
sbasbsg1196
(idelphi
DelphiNilValue
p3435
(dp3436
bsg1199
g1506
sbasbsg990
(i__main__
DelphiIdentAccess
p3437
(dp3438
g14
S'TimeSeriesMenuBreed'
p3439
sg16
(lp3440
(idelphi
DelphiFieldEndAccess
p3441
(dp3442
g997
S'enabled'
p3443
sbasbsba(i__main__
DelphiAssignStatement
p3444
(dp3445
g989
(i__main__
DelphiIdentAccess
p3446
(dp3447
g14
S'TimeSeriesMenuBreed'
p3448
sg16
(lp3449
(idelphi
DelphiFieldEndAccess
p3450
(dp3451
g997
S'enabled'
p3452
sbasbsg990
(i__main__
DelphiIdentAccess
p3453
(dp3454
g14
S'TimeSeriesPopupMenuBreed'
p3455
sg16
(lp3456
(idelphi
DelphiFieldEndAccess
p3457
(dp3458
g997
S'enabled'
p3459
sbasbsbasbsg1005
(lp3460
sbsbsS'timeseriesmenuhelptopicsclick'
p3461
(i__main__
DelphiMethodImplementation
p3462
(dp3463
g958
g213
sg139
g215
sg147
(lp3464
(i__main__
DelphiFormalParameter
p3465
(dp3466
g151
Nsg152
(lp3467
S'Sender'
p3468
asg19
(i__main__
DelphiNamedType
p3469
(dp3470
g22
S'TObject'
p3471
sg158
g1
sg159
Nsbsg160
Nsbasg967
(lp3472
sg969
(lp3473
sg971
(lp3474
g973
ag3468
asg974
(dp3475
g3468
g3469
ssg161
S'TTimeSeriesForm'
p3476
sg162
Nsg977
(lp3477
sg163
I0
sg164
g165
sg979
(i__main__
DelphiBlock
p3478
(dp3479
g982
(idelphi
DelphiCompoundStatement
p3480
(dp3481
g985
(lp3482
(i__main__
DelphiAssignStatement
p3483
(dp3484
g989
Nsg990
(i__main__
DelphiIdentAccess
p3485
(dp3486
g14
S'application'
p3487
sg16
(lp3488
(idelphi
DelphiFieldEndAccess
p3489
(dp3490
g997
S'helpCommand'
p3491
sba(idelphi
DelphiFunctionEndAccess
p3492
(dp3493
g1001
(lp3494
(i__main__
DelphiIdentAccess
p3495
(dp3496
g14
S'HELP_FINDER'
p3497
sg16
(lp3498
sba(idelphi
DelphiIntegerValue
p3499
(dp3500
g37
S'0'
sbasbasbsbasbsg1005
(lp3501
sbsbsS'plantforindex'
p3502
(i__main__
DelphiMethodImplementation
p3503
(dp3504
g958
g405
sg139
g407
sg147
(lp3505
(i__main__
DelphiFormalParameter
p3506
(dp3507
g151
Nsg152
(lp3508
g412
asg19
(i__main__
DelphiPrimitiveType
p3509
(dp3510
g22
g387
sbsg160
Nsbasg967
(lp3511
sg969
(lp3512
sg971
(lp3513
g973
ag412
asg974
(dp3514
g412
g3509
ssg161
S'TTimeSeriesForm'
p3515
sg162
(i__main__
DelphiNamedType
p3516
(dp3517
g22
S'PdPlant'
p3518
sg158
g1
sg159
Nsbsg977
(lp3519
sg163
I0
sg164
g232
sg979
(i__main__
DelphiBlock
p3520
(dp3521
g982
(idelphi
DelphiCompoundStatement
p3522
(dp3523
g985
(lp3524
(i__main__
DelphiAssignStatement
p3525
(dp3526
g989
(idelphi
DelphiNilValue
p3527
(dp3528
bsg990
(i__main__
DelphiIdentAccess
p3529
(dp3530
g14
S'result'
p3531
sg16
(lp3532
sbsba(idelphi
DelphiIfStatement
p3533
(dp3534
g1188
(idelphi
DelphiRelOp
p3535
(dp3536
g1191
(i__main__
DelphiIdentAccess
p3537
(dp3538
g14
g412
sg16
(lp3539
sbsg1196
(idelphi
DelphiIntegerValue
p3540
(dp3541
g37
S'0'
sbsg1199
S'<'
sbsg1200
Nsg1201
(i__main__
DelphiExitStatement
p3542
(dp3543
g1204
g3503
sbsba(idelphi
DelphiIfStatement
p3544
(dp3545
g1188
(idelphi
DelphiRelOp
p3546
(dp3547
g1191
(i__main__
DelphiIdentAccess
p3548
(dp3549
g14
g412
sg16
(lp3550
sbsg1196
(idelphi
DelphiAddOp
p3551
(dp3552
g1270
S'-'
sg1271
(idelphi
DelphiIntegerValue
p3553
(dp3554
g37
S'1'
sbsg1274
(i__main__
DelphiIdentAccess
p3555
(dp3556
g14
S'plants'
p3557
sg16
(lp3558
(idelphi
DelphiFieldEndAccess
p3559
(dp3560
g997
S'count'
p3561
sbasbsbsg1199
S'>'
sbsg1200
Nsg1201
(i__main__
DelphiExitStatement
p3562
(dp3563
g1204
g3503
sbsba(idelphi
DelphiIfStatement
p3564
(dp3565
g1188
(idelphi
DelphiRelOp
p3566
(dp3567
g1191
(i__main__
DelphiIdentAccess
p3568
(dp3569
g14
S'plants'
p3570
sg16
(lp3571
(idelphi
DelphiFieldEndAccess
p3572
(dp3573
g997
S'items'
p3574
sba(idelphi
DelphiArrayEndAccess
p3575
(dp3576
g1001
(lp3577
(i__main__
DelphiIdentAccess
p3578
(dp3579
g14
g412
sg16
(lp3580
sbasbasbsg1196
(idelphi
DelphiNilValue
p3581
(dp3582
bsg1199
S'='
sbsg1200
Nsg1201
(i__main__
DelphiExitStatement
p3583
(dp3584
g1204
g3503
sbsba(i__main__
DelphiAssignStatement
p3585
(dp3586
g989
(i__main__
DelphiIdentAccess
p3587
(dp3588
g14
S'PdPlant'
p3589
sg16
(lp3590
(idelphi
DelphiFunctionEndAccess
p3591
(dp3592
g1001
(lp3593
(i__main__
DelphiIdentAccess
p3594
(dp3595
g14
S'plants'
p3596
sg16
(lp3597
(idelphi
DelphiFieldEndAccess
p3598
(dp3599
g997
S'items'
p3600
sba(idelphi
DelphiArrayEndAccess
p3601
(dp3602
g1001
(lp3603
(i__main__
DelphiIdentAccess
p3604
(dp3605
g14
g412
sg16
(lp3606
sbasbasbasbasbsg990
(i__main__
DelphiIdentAccess
p3607
(dp3608
g14
S'result'
p3609
sg16
(lp3610
sbsbasbsg1005
(lp3611
sbsg209
(lp3612
S' ----------------------------------------------------------------------------------- plants '
p3613
asbsS'timeseriesmenuundoclick'
p3614
(i__main__
DelphiMethodImplementation
p3615
(dp3616
g958
g419
sg139
g421
sg147
(lp3617
(i__main__
DelphiFormalParameter
p3618
(dp3619
g151
Nsg152
(lp3620
S'Sender'
p3621
asg19
(i__main__
DelphiNamedType
p3622
(dp3623
g22
S'TObject'
p3624
sg158
g1
sg159
Nsbsg160
Nsbasg967
(lp3625
sg969
(lp3626
sg971
(lp3627
g973
ag3621
asg974
(dp3628
g3621
g3622
ssg161
S'TTimeSeriesForm'
p3629
sg162
Nsg977
(lp3630
sg163
I0
sg164
g165
sg979
(i__main__
DelphiBlock
p3631
(dp3632
g982
(idelphi
DelphiCompoundStatement
p3633
(dp3634
g985
(lp3635
(i__main__
DelphiAssignStatement
p3636
(dp3637
g989
Nsg990
(i__main__
DelphiIdentAccess
p3638
(dp3639
g14
S'MainForm'
p3640
sg16
(lp3641
(idelphi
DelphiFieldEndAccess
p3642
(dp3643
g997
S'menuEditUndoClick'
p3644
sba(idelphi
DelphiFunctionEndAccess
p3645
(dp3646
g1001
(lp3647
(i__main__
DelphiIdentAccess
p3648
(dp3649
g14
S'MainForm'
p3650
sg16
(lp3651
sbasbasbsbasbsg1005
(lp3652
sbsg209
(lp3653
S' ------------------------------------------------------------------------------- menu '
p3654
asbsS'timeseriesmenucopyclick'
p3655
(i__main__
DelphiMethodImplementation
p3656
(dp3657
g958
g609
sg139
g611
sg147
(lp3658
(i__main__
DelphiFormalParameter
p3659
(dp3660
g151
Nsg152
(lp3661
S'Sender'
p3662
asg19
(i__main__
DelphiNamedType
p3663
(dp3664
g22
S'TObject'
p3665
sg158
g1
sg159
Nsbsg160
Nsbasg967
(lp3666
sg969
(lp3667
sg971
(lp3668
g973
ag3662
asg974
(dp3669
g3662
g3663
ssg161
S'TTimeSeriesForm'
p3670
sg162
Nsg977
(lp3671
sg163
I0
sg164
g165
sg979
(i__main__
DelphiBlock
p3672
(dp3673
g982
(idelphi
DelphiCompoundStatement
p3674
(dp3675
g985
(lp3676
(i__main__
DelphiAssignStatement
p3677
(dp3678
g989
(i__main__
DelphiIdentAccess
p3679
(dp3680
g14
S'self'
p3681
sg16
(lp3682
(idelphi
DelphiFieldEndAccess
p3683
(dp3684
g997
S'selectedPlant'
p3685
sbasbsg990
(i__main__
DelphiIdentAccess
p3686
(dp3687
g14
S'plant'
p3688
sg16
(lp3689
sbsba(idelphi
DelphiIfStatement
p3690
(dp3691
g1188
(idelphi
DelphiRelOp
p3692
(dp3693
g1191
(i__main__
DelphiIdentAccess
p3694
(dp3695
g14
S'plant'
p3696
sg16
(lp3697
sbsg1196
(idelphi
DelphiNilValue
p3698
(dp3699
bsg1199
S'='
sbsg1200
Nsg1201
(i__main__
DelphiExitStatement
p3700
(dp3701
g1204
g3656
sbsba(i__main__
DelphiAssignStatement
p3702
(dp3703
g989
(i__main__
DelphiIdentAccess
p3704
(dp3705
g14
S'TList'
p3706
sg16
(lp3707
(idelphi
DelphiFieldEndAccess
p3708
(dp3709
g997
S'create'
p3710
sbasbsg990
(i__main__
DelphiIdentAccess
p3711
(dp3712
g14
S'copyList'
p3713
sg16
(lp3714
sbsba(i__main__
DelphiAssignStatement
p3715
(dp3716
g989
Nsg990
(i__main__
DelphiIdentAccess
p3717
(dp3718
g14
S'copyList'
p3719
sg16
(lp3720
(idelphi
DelphiFieldEndAccess
p3721
(dp3722
g997
S'add'
p3723
sba(idelphi
DelphiFunctionEndAccess
p3724
(dp3725
g1001
(lp3726
(i__main__
DelphiIdentAccess
p3727
(dp3728
g14
S'plant'
p3729
sg16
(lp3730
sbasbasbsba(i__main__
DelphiAssignStatement
p3731
(dp3732
g989
(i__main__
DelphiIdentAccess
p3733
(dp3734
g14
S'plant'
p3735
sg16
(lp3736
(idelphi
DelphiFieldEndAccess
p3737
(dp3738
g997
S'getName'
p3739
sbasbsg990
(i__main__
DelphiIdentAccess
p3740
(dp3741
g14
S'saveName'
p3742
sg16
(lp3743
sbsg209
(lp3744
S' temporarily change plant name, position, scale to make copy, then put back '
p3745
asba(i__main__
DelphiIncOrDecStatement
p3746
(dp3747
S'incOrDecString'
p3748
S'inc'
p3749
sS'incrementExpression'
p3750
Nsg990
(i__main__
DelphiIdentAccess
p3751
(dp3752
g14
S'numTimeSeriesPlantsCopiedThisSession'
p3753
sg16
(lp3754
sbsba(i__main__
DelphiAssignStatement
p3755
(dp3756
g989
Nsg990
(i__main__
DelphiIdentAccess
p3757
(dp3758
g14
S'plant'
p3759
sg16
(lp3760
(idelphi
DelphiFieldEndAccess
p3761
(dp3762
g997
S'setName'
p3763
sba(idelphi
DelphiFunctionEndAccess
p3764
(dp3765
g1001
(lp3766
(idelphi
DelphiAddOp
p3767
(dp3768
g1270
S'+'
sg1271
(i__main__
DelphiIdentAccess
p3769
(dp3770
g14
S'intToStr'
p3771
sg16
(lp3772
(idelphi
DelphiFunctionEndAccess
p3773
(dp3774
g1001
(lp3775
(i__main__
DelphiIdentAccess
p3776
(dp3777
g14
S'numTimeSeriesPlantsCopiedThisSession'
p3778
sg16
(lp3779
sbasbasbsg1274
(idelphi
DelphiStringAccess
p3780
(dp3781
g16
(lp3782
sg37
(idelphi
DelphiStringValue
p3783
(dp3784
g37
S'Time series plant '
p3785
sbsbsbasbasbsba(i__main__
DelphiAssignStatement
p3786
(dp3787
g989
Nsg990
(i__main__
DelphiIdentAccess
p3788
(dp3789
g14
S'domain'
p3790
sg16
(lp3791
(idelphi
DelphiFieldEndAccess
p3792
(dp3793
g997
S'plantManager'
p3794
sba(idelphi
DelphiFieldEndAccess
p3795
(dp3796
g997
S'copyPlantsInListToPrivatePlantClipboard'
p3797
sba(idelphi
DelphiFunctionEndAccess
p3798
(dp3799
g1001
(lp3800
(i__main__
DelphiIdentAccess
p3801
(dp3802
g14
S'copyList'
p3803
sg16
(lp3804
sbasbasbsba(i__main__
DelphiAssignStatement
p3805
(dp3806
g989
Nsg990
(i__main__
DelphiIdentAccess
p3807
(dp3808
g14
S'plant'
p3809
sg16
(lp3810
(idelphi
DelphiFieldEndAccess
p3811
(dp3812
g997
S'setName'
p3813
sba(idelphi
DelphiFunctionEndAccess
p3814
(dp3815
g1001
(lp3816
(i__main__
DelphiIdentAccess
p3817
(dp3818
g14
S'saveName'
p3819
sg16
(lp3820
sbasbasbsba(i__main__
DelphiAssignStatement
p3821
(dp3822
g989
Nsg990
(i__main__
DelphiIdentAccess
p3823
(dp3824
g14
S'MainForm'
p3825
sg16
(lp3826
(idelphi
DelphiFieldEndAccess
p3827
(dp3828
g997
S'updatePasteMenuForClipboardContents'
p3829
sbasbsg209
(lp3830
S'sets our paste menu also'
p3831
asbasbsg1005
(lp3832
(i__main__
DelphiVarSection
p3833
(dp3834
g42
I0
sg1448
(lp3835
(idelphi
DelphiVarDecl
p3836
(dp3837
g11
Nsg1452
(lp3838
S'plant'
p3839
asg19
(i__main__
DelphiNamedType
p3840
(dp3841
g22
S'PdPlant'
p3842
sg158
g1
sg159
Nsbsba(idelphi
DelphiVarDecl
p3843
(dp3844
g11
Nsg1452
(lp3845
S'copyList'
p3846
asg19
(i__main__
DelphiNamedType
p3847
(dp3848
g22
S'TList'
p3849
sg158
g1
sg159
Nsbsba(idelphi
DelphiVarDecl
p3850
(dp3851
g11
Nsg1452
(lp3852
S'saveName'
p3853
asg19
(i__main__
DelphiPrimitiveType
p3854
(dp3855
g22
g37
sbsbasbasbsbsS'griddragover'
p3856
(i__main__
DelphiMethodImplementation
p3857
(dp3858
g958
g443
sg139
g445
sg147
(lp3859
(i__main__
DelphiFormalParameter
p3860
(dp3861
g151
Nsg152
(lp3862
S'Sender'
p3863
aS'Source'
p3864
asg19
(i__main__
DelphiNamedType
p3865
(dp3866
g22
S'TObject'
p3867
sg158
g1
sg159
Nsbsg160
Nsba(i__main__
DelphiFormalParameter
p3868
(dp3869
g151
Nsg152
(lp3870
S'X'
aS'Y'
asg19
(i__main__
DelphiPrimitiveType
p3871
(dp3872
g22
g268
sbsg160
Nsba(i__main__
DelphiFormalParameter
p3873
(dp3874
g151
Nsg152
(lp3875
S'State'
p3876
asg19
(i__main__
DelphiNamedType
p3877
(dp3878
g22
S'TDragState'
p3879
sg158
g1
sg159
Nsbsg160
Nsba(i__main__
DelphiFormalParameter
p3880
(dp3881
g151
Nsg152
(lp3882
S'Accept'
p3883
asg19
(i__main__
DelphiPrimitiveType
p3884
(dp3885
g22
g208
sbsg160
g473
sbasg967
(lp3886
I5
asg969
(lp3887
sg971
(lp3888
g973
ag3863
ag3864
aS'X'
aS'Y'
ag3876
ag3883
asg974
(dp3889
g3863
g3865
sg3883
g3884
sg3864
g3865
sg3876
g3877
sS'Y'
g3871
sS'X'
g3871
ssg161
S'TTimeSeriesForm'
p3890
sg162
Nsg977
(lp3891
g3883
asg163
I0
sg164
g165
sg979
(i__main__
DelphiBlock
p3892
(dp3893
g982
(idelphi
DelphiCompoundStatement
p3894
(dp3895
g985
(lp3896
(i__main__
DelphiAssignStatement
p3897
(dp3898
g989
(idelphi
DelphiMulOp
p3899
(dp3900
g1326
(idelphi
DelphiNestedExpressionListAccess
p3901
(dp3902
g16
(lp3903
sg1001
(lp3904
(idelphi
DelphiAddOp
p3905
(dp3906
g1270
g2198
sg1271
(idelphi
DelphiNestedExpressionListAccess
p3907
(dp3908
g16
(lp3909
sg1001
(lp3910
(idelphi
DelphiRelOp
p3911
(dp3912
g1191
(i__main__
DelphiIdentAccess
p3913
(dp3914
g14
S'source'
p3915
sg16
(lp3916
sbsg1196
(i__main__
DelphiIdentAccess
p3917
(dp3918
g14
S'BreederForm'
p3919
sg16
(lp3920
(idelphi
DelphiFieldEndAccess
p3921
(dp3922
g997
S'plantsDrawGrid'
p3923
sbasbsg1199
S'='
sbasbsg1274
(idelphi
DelphiAddOp
p3924
(dp3925
g1270
g2198
sg1271
(idelphi
DelphiNestedExpressionListAccess
p3926
(dp3927
g16
(lp3928
sg1001
(lp3929
(idelphi
DelphiRelOp
p3930
(dp3931
g1191
(i__main__
DelphiIdentAccess
p3932
(dp3933
g14
S'source'
p3934
sg16
(lp3935
sbsg1196
(i__main__
DelphiIdentAccess
p3936
(dp3937
g14
S'MainForm'
p3938
sg16
(lp3939
(idelphi
DelphiFieldEndAccess
p3940
(dp3941
g997
S'plantListDrawGrid'
p3942
sbasbsg1199
S'='
sbasbsg1274
(idelphi
DelphiNestedExpressionListAccess
p3943
(dp3944
g16
(lp3945
sg1001
(lp3946
(idelphi
DelphiRelOp
p3947
(dp3948
g1191
(i__main__
DelphiIdentAccess
p3949
(dp3950
g14
S'source'
p3951
sg16
(lp3952
sbsg1196
(i__main__
DelphiIdentAccess
p3953
(dp3954
g14
S'MainForm'
p3955
sg16
(lp3956
(idelphi
DelphiFieldEndAccess
p3957
(dp3958
g997
S'drawingPaintBox'
p3959
sbasbsg1199
S'='
sbasbsbsbasbsg1337
g1570
sg1338
(idelphi
DelphiMulOp
p3960
(dp3961
g1326
(idelphi
DelphiNestedExpressionListAccess
p3962
(dp3963
g16
(lp3964
sg1001
(lp3965
(idelphi
DelphiRelOp
p3966
(dp3967
g1191
(i__main__
DelphiIdentAccess
p3968
(dp3969
g14
S'sender'
p3970
sg16
(lp3971
sbsg1196
(idelphi
DelphiNilValue
p3972
(dp3973
bsg1199
g1506
sbasbsg1337
g1570
sg1338
(idelphi
DelphiNestedExpressionListAccess
p3974
(dp3975
g16
(lp3976
sg1001
(lp3977
(idelphi
DelphiRelOp
p3978
(dp3979
g1191
(i__main__
DelphiIdentAccess
p3980
(dp3981
g14
S'source'
p3982
sg16
(lp3983
sbsg1196
(idelphi
DelphiNilValue
p3984
(dp3985
bsg1199
g1506
sbasbsbsbsg990
(i__main__
DelphiIdentAccess
p3986
(dp3987
g14
S'accept'
p3988
sg16
(lp3989
sbsbasbsg1005
(lp3990
sbsbsS'invalidategridcell'
p3991
(i__main__
DelphiMethodImplementation
p3992
(dp3993
g958
g475
sg139
g477
sg147
(lp3994
(i__main__
DelphiFormalParameter
p3995
(dp3996
g151
Nsg152
(lp3997
S'column'
p3998
asg19
(i__main__
DelphiPrimitiveType
p3999
(dp4000
g22
g485
sbsg160
Nsbasg967
(lp4001
sg969
(lp4002
sg971
(lp4003
g973
ag3998
asg974
(dp4004
g3998
g3999
ssg161
S'TTimeSeriesForm'
p4005
sg162
Nsg977
(lp4006
sg163
I0
sg164
g165
sg979
(i__main__
DelphiBlock
p4007
(dp4008
g982
(idelphi
DelphiCompoundStatement
p4009
(dp4010
g985
(lp4011
(idelphi
DelphiIfStatement
p4012
(dp4013
g1188
(idelphi
DelphiNestedExpressionListAccess
p4014
(dp4015
g16
(lp4016
sg1001
(lp4017
(idelphi
DelphiRelOp
p4018
(dp4019
g1191
(i__main__
DelphiIdentAccess
p4020
(dp4021
g14
S'column'
p4022
sg16
(lp4023
sbsg1196
(idelphi
DelphiIntegerValue
p4024
(dp4025
g37
S'0'
sbsg1199
S'<'
sbasbsg1200
Nsg1201
(i__main__
DelphiExitStatement
p4026
(dp4027
g1204
g3992
sbsba(i__main__
DelphiAssignStatement
p4028
(dp4029
g989
(i__main__
DelphiIdentAccess
p4030
(dp4031
g14
S'grid'
p4032
sg16
(lp4033
(idelphi
DelphiFieldEndAccess
p4034
(dp4035
g997
S'cellRect'
p4036
sba(idelphi
DelphiFunctionEndAccess
p4037
(dp4038
g1001
(lp4039
(i__main__
DelphiIdentAccess
p4040
(dp4041
g14
S'column'
p4042
sg16
(lp4043
sba(idelphi
DelphiIntegerValue
p4044
(dp4045
g37
S'0'
sbasbasbsg990
(i__main__
DelphiIdentAccess
p4046
(dp4047
g14
S'cellRectOver'
p4048
sg16
(lp4049
sbsba(i__main__
DelphiAssignStatement
p4050
(dp4051
g989
Nsg990
(i__main__
DelphiIdentAccess
p4052
(dp4053
g14
S'invalidateRect'
p4054
sg16
(lp4055
(idelphi
DelphiFunctionEndAccess
p4056
(dp4057
g1001
(lp4058
(i__main__
DelphiIdentAccess
p4059
(dp4060
g14
S'grid'
p4061
sg16
(lp4062
(idelphi
DelphiFieldEndAccess
p4063
(dp4064
g997
S'handle'
p4065
sbasba(idelphi
DelphiAt
p4066
(dp4067
g1209
(i__main__
DelphiIdentAccess
p4068
(dp4069
g14
S'cellRectOver'
p4070
sg16
(lp4071
sbsba(i__main__
DelphiIdentAccess
p4072
(dp4073
g14
S'true'
p4074
sg16
(lp4075
sbasbasbsbasbsg1005
(lp4076
(i__main__
DelphiVarSection
p4077
(dp4078
g42
I0
sg1448
(lp4079
(idelphi
DelphiVarDecl
p4080
(dp4081
g11
Nsg1452
(lp4082
S'cellRectOver'
p4083
asg19
(i__main__
DelphiNamedType
p4084
(dp4085
g22
S'TRect'
p4086
sg158
g1
sg159
NsbsbasbasbsbsS'redrawplants'
p4087
(i__main__
DelphiMethodImplementation
p4088
(dp4089
g958
g501
sg139
g503
sg147
(lp4090
sg967
(lp4091
sg969
(lp4092
sg971
(lp4093
g973
asg974
(dp4094
sg161
S'TTimeSeriesForm'
p4095
sg162
Nsg977
(lp4096
sg163
I0
sg164
g165
sg979
(i__main__
DelphiBlock
p4097
(dp4098
g982
(idelphi
DelphiCompoundStatement
p4099
(dp4100
g985
(lp4101
(idelphi
DelphiIfStatement
p4102
(dp4103
g1188
(idelphi
DelphiRelOp
p4104
(dp4105
g1191
(i__main__
DelphiIdentAccess
p4106
(dp4107
g14
S'plants'
p4108
sg16
(lp4109
(idelphi
DelphiFieldEndAccess
p4110
(dp4111
g997
S'count'
p4112
sbasbsg1196
(idelphi
DelphiIntegerValue
p4113
(dp4114
g37
S'0'
sbsg1199
g2069
sbsg1200
(idelphi
DelphiCompoundStatement
p4115
(dp4116
g985
(lp4117
(i__main__
DelphiAssignStatement
p4118
(dp4119
g989
Nsg990
(i__main__
DelphiIdentAccess
p4120
(dp4121
g14
S'emptyWarningPanel'
p4122
sg16
(lp4123
(idelphi
DelphiFieldEndAccess
p4124
(dp4125
g997
S'sendToBack'
p4126
sbasbsba(i__main__
DelphiAssignStatement
p4127
(dp4128
g989
Nsg990
(i__main__
DelphiIdentAccess
p4129
(dp4130
g14
S'emptyWarningPanel'
p4131
sg16
(lp4132
(idelphi
DelphiFieldEndAccess
p4133
(dp4134
g997
S'hide'
p4135
sbasbsbasbsg1201
(idelphi
DelphiCompoundStatement
p4136
(dp4137
g985
(lp4138
(i__main__
DelphiAssignStatement
p4139
(dp4140
g989
Nsg990
(i__main__
DelphiIdentAccess
p4141
(dp4142
g14
S'emptyWarningPanel'
p4143
sg16
(lp4144
(idelphi
DelphiFieldEndAccess
p4145
(dp4146
g997
S'bringToFront'
p4147
sbasbsba(i__main__
DelphiAssignStatement
p4148
(dp4149
g989
Nsg990
(i__main__
DelphiIdentAccess
p4150
(dp4151
g14
S'emptyWarningPanel'
p4152
sg16
(lp4153
(idelphi
DelphiFieldEndAccess
p4154
(dp4155
g997
S'show'
p4156
sbasbsbasbsba(i__main__
DelphiAssignStatement
p4157
(dp4158
g989
Nsg990
(i__main__
DelphiIdentAccess
p4159
(dp4160
g14
S'self'
p4161
sg16
(lp4162
(idelphi
DelphiFieldEndAccess
p4163
(dp4164
g997
S'recalculateCommonDrawingScaleAndPosition'
p4165
sbasbsba(i__main__
DelphiAssignStatement
p4166
(dp4167
g989
Nsg990
(i__main__
DelphiIdentAccess
p4168
(dp4169
g14
S'grid'
p4170
sg16
(lp4171
(idelphi
DelphiFieldEndAccess
p4172
(dp4173
g997
S'invalidate'
p4174
sbasbsbasbsg1005
(lp4175
sbsg209
(lp4176
S' -------------------------------------------------------------------------------------- drawing '
p4177
asbsS'updatepastemenuforclipboardcontents'
p4178
(i__main__
DelphiMethodImplementation
p4179
(dp4180
g958
g506
sg139
g508
sg147
(lp4181
sg967
(lp4182
sg969
(lp4183
sg971
(lp4184
g973
asg974
(dp4185
sg161
S'TTimeSeriesForm'
p4186
sg162
Nsg977
(lp4187
sg163
I0
sg164
g165
sg979
(i__main__
DelphiBlock
p4188
(dp4189
g982
(idelphi
DelphiCompoundStatement
p4190
(dp4191
g985
(lp4192
(i__main__
DelphiAssignStatement
p4193
(dp4194
g989
(idelphi
DelphiNestedExpressionListAccess
p4195
(dp4196
g16
(lp4197
sg1001
(lp4198
(idelphi
DelphiRelOp
p4199
(dp4200
g1191
(i__main__
DelphiIdentAccess
p4201
(dp4202
g14
S'domain'
p4203
sg16
(lp4204
(idelphi
DelphiFieldEndAccess
p4205
(dp4206
g997
S'plantManager'
p4207
sba(idelphi
DelphiFieldEndAccess
p4208
(dp4209
g997
S'privatePlantClipboard'
p4210
sba(idelphi
DelphiFieldEndAccess
p4211
(dp4212
g997
S'count'
p4213
sbasbsg1196
(idelphi
DelphiIntegerValue
p4214
(dp4215
g37
S'0'
sbsg1199
S'>'
sbasbsg990
(i__main__
DelphiIdentAccess
p4216
(dp4217
g14
S'TimeSeriesMenuPaste'
p4218
sg16
(lp4219
(idelphi
DelphiFieldEndAccess
p4220
(dp4221
g997
S'enabled'
p4222
sbasbsba(i__main__
DelphiAssignStatement
p4223
(dp4224
g989
(idelphi
DelphiNestedExpressionListAccess
p4225
(dp4226
g16
(lp4227
sg1001
(lp4228
(idelphi
DelphiRelOp
p4229
(dp4230
g1191
(i__main__
DelphiIdentAccess
p4231
(dp4232
g14
S'domain'
p4233
sg16
(lp4234
(idelphi
DelphiFieldEndAccess
p4235
(dp4236
g997
S'plantManager'
p4237
sba(idelphi
DelphiFieldEndAccess
p4238
(dp4239
g997
S'privatePlantClipboard'
p4240
sba(idelphi
DelphiFieldEndAccess
p4241
(dp4242
g997
S'count'
p4243
sbasbsg1196
(idelphi
DelphiIntegerValue
p4244
(dp4245
g37
S'0'
sbsg1199
S'>'
sbasbsg990
(i__main__
DelphiIdentAccess
p4246
(dp4247
g14
S'TimeSeriesPopupMenuPaste'
p4248
sg16
(lp4249
(idelphi
DelphiFieldEndAccess
p4250
(dp4251
g997
S'enabled'
p4252
sbasbsbasbsg1005
(lp4253
sbsbsS'timeseriesmenuhelpontimeseriesclick'
p4254
(i__main__
DelphiMethodImplementation
p4255
(dp4256
g958
g511
sg139
g513
sg147
(lp4257
(i__main__
DelphiFormalParameter
p4258
(dp4259
g151
Nsg152
(lp4260
S'Sender'
p4261
asg19
(i__main__
DelphiNamedType
p4262
(dp4263
g22
S'TObject'
p4264
sg158
g1
sg159
Nsbsg160
Nsbasg967
(lp4265
sg969
(lp4266
sg971
(lp4267
g973
ag4261
asg974
(dp4268
g4261
g4262
ssg161
S'TTimeSeriesForm'
p4269
sg162
Nsg977
(lp4270
sg163
I0
sg164
g165
sg979
(i__main__
DelphiBlock
p4271
(dp4272
g982
(idelphi
DelphiCompoundStatement
p4273
(dp4274
g985
(lp4275
(i__main__
DelphiAssignStatement
p4276
(dp4277
g989
Nsg990
(i__main__
DelphiIdentAccess
p4278
(dp4279
g14
S'application'
p4280
sg16
(lp4281
(idelphi
DelphiFieldEndAccess
p4282
(dp4283
g997
S'helpJump'
p4284
sba(idelphi
DelphiFunctionEndAccess
p4285
(dp4286
g1001
(lp4287
(idelphi
DelphiStringAccess
p4288
(dp4289
g16
(lp4290
sg37
(idelphi
DelphiStringValue
p4291
(dp4292
g37
S'Making_time_series'
p4293
sbsbasbasbsbasbsg1005
(lp4294
sbsbsS'timeseriesmenusendcopyclick'
p4295
(i__main__
DelphiMethodImplementation
p4296
(dp4297
g958
g523
sg139
g525
sg147
(lp4298
(i__main__
DelphiFormalParameter
p4299
(dp4300
g151
Nsg152
(lp4301
S'Sender'
p4302
asg19
(i__main__
DelphiNamedType
p4303
(dp4304
g22
S'TObject'
p4305
sg158
g1
sg159
Nsbsg160
Nsbasg967
(lp4306
sg969
(lp4307
sg971
(lp4308
g973
ag4302
asg974
(dp4309
g4302
g4303
ssg161
S'TTimeSeriesForm'
p4310
sg162
Nsg977
(lp4311
sg163
I0
sg164
g165
sg979
(i__main__
DelphiBlock
p4312
(dp4313
g982
(idelphi
DelphiCompoundStatement
p4314
(dp4315
g985
(lp4316
(i__main__
DelphiAssignStatement
p4317
(dp4318
g989
Nsg990
(i__main__
DelphiIdentAccess
p4319
(dp4320
g14
S'self'
p4321
sg16
(lp4322
(idelphi
DelphiFieldEndAccess
p4323
(dp4324
g997
S'TimeSeriesMenuCopyClick'
p4325
sba(idelphi
DelphiFunctionEndAccess
p4326
(dp4327
g1001
(lp4328
(i__main__
DelphiIdentAccess
p4329
(dp4330
g14
S'self'
p4331
sg16
(lp4332
sbasbasbsba(i__main__
DelphiAssignStatement
p4333
(dp4334
g989
Nsg990
(i__main__
DelphiIdentAccess
p4335
(dp4336
g14
S'MainForm'
p4337
sg16
(lp4338
(idelphi
DelphiFieldEndAccess
p4339
(dp4340
g997
S'MenuEditPasteClick'
p4341
sba(idelphi
DelphiFunctionEndAccess
p4342
(dp4343
g1001
(lp4344
(i__main__
DelphiIdentAccess
p4345
(dp4346
g14
S'MainForm'
p4347
sg16
(lp4348
sbasbasbsbasbsg1005
(lp4349
sbsbsS'griddrawcell'
p4350
(i__main__
DelphiMethodImplementation
p4351
(dp4352
g958
g535
sg139
g537
sg147
(lp4353
(i__main__
DelphiFormalParameter
p4354
(dp4355
g151
Nsg152
(lp4356
S'Sender'
p4357
asg19
(i__main__
DelphiNamedType
p4358
(dp4359
g22
S'TObject'
p4360
sg158
g1
sg159
Nsbsg160
Nsba(i__main__
DelphiFormalParameter
p4361
(dp4362
g151
Nsg152
(lp4363
S'Col'
p4364
aS'Row'
p4365
asg19
(i__main__
DelphiPrimitiveType
p4366
(dp4367
g22
g485
sbsg160
Nsba(i__main__
DelphiFormalParameter
p4368
(dp4369
g151
Nsg152
(lp4370
S'Rect'
p4371
asg19
(i__main__
DelphiNamedType
p4372
(dp4373
g22
S'TRect'
p4374
sg158
g1
sg159
Nsbsg160
Nsba(i__main__
DelphiFormalParameter
p4375
(dp4376
g151
Nsg152
(lp4377
S'State'
p4378
asg19
(i__main__
DelphiNamedType
p4379
(dp4380
g22
S'TGridDrawState'
p4381
sg158
g1
sg159
Nsbsg160
Nsbasg967
(lp4382
sg969
(lp4383
sg971
(lp4384
g973
ag4357
ag4364
ag4365
ag4371
ag4378
asg974
(dp4385
g4378
g4379
sg4365
g4366
sg4357
g4358
sg4371
g4372
sg4364
g4366
ssg161
S'TTimeSeriesForm'
p4386
sg162
Nsg977
(lp4387
sg163
I0
sg164
g165
sg979
(i__main__
DelphiBlock
p4388
(dp4389
g982
(idelphi
DelphiCompoundStatement
p4390
(dp4391
g985
(lp4392
(i__main__
DelphiAssignStatement
p4393
(dp4394
g989
(i__main__
DelphiIdentAccess
p4395
(dp4396
g14
S'clWhite'
p4397
sg16
(lp4398
sbsg990
(i__main__
DelphiIdentAccess
p4399
(dp4400
g14
S'grid'
p4401
sg16
(lp4402
(idelphi
DelphiFieldEndAccess
p4403
(dp4404
g997
S'canvas'
p4405
sba(idelphi
DelphiFieldEndAccess
p4406
(dp4407
g997
S'brush'
p4408
sba(idelphi
DelphiFieldEndAccess
p4409
(dp4410
g997
S'color'
p4411
sbasbsba(i__main__
DelphiAssignStatement
p4412
(dp4413
g989
(idelphi
DelphiIntegerValue
p4414
(dp4415
g37
S'1'
sbsg990
(i__main__
DelphiIdentAccess
p4416
(dp4417
g14
S'grid'
p4418
sg16
(lp4419
(idelphi
DelphiFieldEndAccess
p4420
(dp4421
g997
S'canvas'
p4422
sba(idelphi
DelphiFieldEndAccess
p4423
(dp4424
g997
S'pen'
p4425
sba(idelphi
DelphiFieldEndAccess
p4426
(dp4427
g997
S'width'
p4428
sbasbsba(idelphi
DelphiIfStatement
p4429
(dp4430
g1188
(idelphi
DelphiMulOp
p4431
(dp4432
g1326
(idelphi
DelphiNestedExpressionListAccess
p4433
(dp4434
g16
(lp4435
sg1001
(lp4436
(idelphi
DelphiRelOp
p4437
(dp4438
g1191
(i__main__
DelphiIdentAccess
p4439
(dp4440
g14
S'row'
p4441
sg16
(lp4442
sbsg1196
(idelphi
DelphiIntegerValue
p4443
(dp4444
g37
S'0'
sbsg1199
S'='
sbasbsg1337
g1570
sg1338
(idelphi
DelphiNestedExpressionListAccess
p4445
(dp4446
g16
(lp4447
sg1001
(lp4448
(idelphi
DelphiRelOp
p4449
(dp4450
g1191
(i__main__
DelphiIdentAccess
p4451
(dp4452
g14
S'plants'
p4453
sg16
(lp4454
(idelphi
DelphiFieldEndAccess
p4455
(dp4456
g997
S'count'
p4457
sbasbsg1196
(idelphi
DelphiIntegerValue
p4458
(dp4459
g37
S'0'
sbsg1199
S'>'
sbasbsbsg1200
(i__main__
DelphiAssignStatement
p4460
(dp4461
g989
(i__main__
DelphiIdentAccess
p4462
(dp4463
g14
S'clWhite'
p4464
sg16
(lp4465
sbsg990
(i__main__
DelphiIdentAccess
p4466
(dp4467
g14
S'grid'
p4468
sg16
(lp4469
(idelphi
DelphiFieldEndAccess
p4470
(dp4471
g997
S'canvas'
p4472
sba(idelphi
DelphiFieldEndAccess
p4473
(dp4474
g997
S'pen'
p4475
sba(idelphi
DelphiFieldEndAccess
p4476
(dp4477
g997
S'color'
p4478
sbasbsbsg1201
(i__main__
DelphiAssignStatement
p4479
(dp4480
g989
(i__main__
DelphiIdentAccess
p4481
(dp4482
g14
S'clSilver'
p4483
sg16
(lp4484
sbsg990
(i__main__
DelphiIdentAccess
p4485
(dp4486
g14
S'grid'
p4487
sg16
(lp4488
(idelphi
DelphiFieldEndAccess
p4489
(dp4490
g997
S'canvas'
p4491
sba(idelphi
DelphiFieldEndAccess
p4492
(dp4493
g997
S'pen'
p4494
sba(idelphi
DelphiFieldEndAccess
p4495
(dp4496
g997
S'color'
p4497
sbasbsbsba(i__main__
DelphiAssignStatement
p4498
(dp4499
g989
Nsg990
(i__main__
DelphiIdentAccess
p4500
(dp4501
g14
S'grid'
p4502
sg16
(lp4503
(idelphi
DelphiFieldEndAccess
p4504
(dp4505
g997
S'canvas'
p4506
sba(idelphi
DelphiFieldEndAccess
p4507
(dp4508
g997
S'rectangle'
p4509
sba(idelphi
DelphiFunctionEndAccess
p4510
(dp4511
g1001
(lp4512
(i__main__
DelphiIdentAccess
p4513
(dp4514
g14
S'rect'
p4515
sg16
(lp4516
(idelphi
DelphiFieldEndAccess
p4517
(dp4518
g997
S'left'
p4519
sbasba(i__main__
DelphiIdentAccess
p4520
(dp4521
g14
S'rect'
p4522
sg16
(lp4523
(idelphi
DelphiFieldEndAccess
p4524
(dp4525
g997
S'top'
p4526
sbasba(i__main__
DelphiIdentAccess
p4527
(dp4528
g14
S'rect'
p4529
sg16
(lp4530
(idelphi
DelphiFieldEndAccess
p4531
(dp4532
g997
S'right'
p4533
sbasba(i__main__
DelphiIdentAccess
p4534
(dp4535
g14
S'rect'
p4536
sg16
(lp4537
(idelphi
DelphiFieldEndAccess
p4538
(dp4539
g997
S'bottom'
p4540
sbasbasbasbsba(idelphi
DelphiIfStatement
p4541
(dp4542
g1188
(idelphi
DelphiRelOp
p4543
(dp4544
g1191
(i__main__
DelphiIdentAccess
p4545
(dp4546
g14
S'row'
p4547
sg16
(lp4548
sbsg1196
(idelphi
DelphiIntegerValue
p4549
(dp4550
g37
S'1'
sbsg1199
S'='
sbsg1200
Nsg1201
(idelphi
DelphiCompoundStatement
p4551
(dp4552
g985
(lp4553
(idelphi
DelphiIfStatement
p4554
(dp4555
g1188
(idelphi
DelphiRelOp
p4556
(dp4557
g1191
(i__main__
DelphiIdentAccess
p4558
(dp4559
g14
S'plants'
p4560
sg16
(lp4561
(idelphi
DelphiFieldEndAccess
p4562
(dp4563
g997
S'count'
p4564
sbasbsg1196
(idelphi
DelphiIntegerValue
p4565
(dp4566
g37
S'0'
sbsg1199
g2069
sbsg1200
Nsg1201
(i__main__
DelphiExitStatement
p4567
(dp4568
g1204
g4351
sbsba(i__main__
DelphiAssignStatement
p4569
(dp4570
g989
(i__main__
DelphiIdentAccess
p4571
(dp4572
g14
S'intToStr'
p4573
sg16
(lp4574
(idelphi
DelphiFunctionEndAccess
p4575
(dp4576
g1001
(lp4577
(i__main__
DelphiIdentAccess
p4578
(dp4579
g14
S'ages'
p4580
sg16
(lp4581
(idelphi
DelphiArrayEndAccess
p4582
(dp4583
g1001
(lp4584
(i__main__
DelphiIdentAccess
p4585
(dp4586
g14
S'col'
p4587
sg16
(lp4588
sbasbasbasbasbsg990
(i__main__
DelphiIdentAccess
p4589
(dp4590
g14
S'textToDraw'
p4591
sg16
(lp4592
sbsba(idelphi
DelphiIfStatement
p4593
(dp4594
g1188
(idelphi
DelphiRelOp
p4595
(dp4596
g1191
(i__main__
DelphiIdentAccess
p4597
(dp4598
g14
S'rWidth'
p4599
sg16
(lp4600
(idelphi
DelphiFunctionEndAccess
p4601
(dp4602
g1001
(lp4603
(i__main__
DelphiIdentAccess
p4604
(dp4605
g14
S'rect'
p4606
sg16
(lp4607
sbasbasbsg1196
(idelphi
DelphiIntegerValue
p4608
(dp4609
g37
S'50'
p4610
sbsg1199
S'>'
sbsg1200
Nsg1201
(i__main__
DelphiAssignStatement
p4611
(dp4612
g989
(idelphi
DelphiAddOp
p4613
(dp4614
g1270
S'+'
sg1271
(idelphi
DelphiStringAccess
p4615
(dp4616
g16
(lp4617
sg37
(idelphi
DelphiStringValue
p4618
(dp4619
g37
S' days'
p4620
sbsbsg1274
(i__main__
DelphiIdentAccess
p4621
(dp4622
g14
S'textToDraw'
p4623
sg16
(lp4624
sbsbsg990
(i__main__
DelphiIdentAccess
p4625
(dp4626
g14
S'textToDraw'
p4627
sg16
(lp4628
sbsg209
(lp4629
S' 50 is fixed size\r'
p4630
asbsba(i__main__
DelphiAssignStatement
p4631
(dp4632
g989
(idelphi
DelphiAddOp
p4633
(dp4634
g1270
S'-'
sg1271
(idelphi
DelphiMulOp
p4635
(dp4636
g1326
(idelphi
DelphiIntegerValue
p4637
(dp4638
g37
S'2'
sbsg1337
g1844
sg1338
(i__main__
DelphiIdentAccess
p4639
(dp4640
g14
S'grid'
p4641
sg16
(lp4642
(idelphi
DelphiFieldEndAccess
p4643
(dp4644
g997
S'canvas'
p4645
sba(idelphi
DelphiFieldEndAccess
p4646
(dp4647
g997
S'textWidth'
p4648
sba(idelphi
DelphiFunctionEndAccess
p4649
(dp4650
g1001
(lp4651
(i__main__
DelphiIdentAccess
p4652
(dp4653
g14
S'textToDraw'
p4654
sg16
(lp4655
sbasbasbsbsg1274
(idelphi
DelphiAddOp
p4656
(dp4657
g1270
S'+'
sg1271
(idelphi
DelphiMulOp
p4658
(dp4659
g1326
(idelphi
DelphiIntegerValue
p4660
(dp4661
g37
S'2'
sbsg1337
g1844
sg1338
(i__main__
DelphiIdentAccess
p4662
(dp4663
g14
S'rWidth'
p4664
sg16
(lp4665
(idelphi
DelphiFunctionEndAccess
p4666
(dp4667
g1001
(lp4668
(i__main__
DelphiIdentAccess
p4669
(dp4670
g14
S'rect'
p4671
sg16
(lp4672
sbasbasbsbsg1274
(i__main__
DelphiIdentAccess
p4673
(dp4674
g14
S'rect'
p4675
sg16
(lp4676
(idelphi
DelphiFieldEndAccess
p4677
(dp4678
g997
S'left'
p4679
sbasbsbsbsg990
(i__main__
DelphiIdentAccess
p4680
(dp4681
g14
S'textDrawRect'
p4682
sg16
(lp4683
(idelphi
DelphiFieldEndAccess
p4684
(dp4685
g997
S'left'
p4686
sbasbsba(i__main__
DelphiAssignStatement
p4687
(dp4688
g989
(idelphi
DelphiAddOp
p4689
(dp4690
g1270
S'-'
sg1271
(idelphi
DelphiMulOp
p4691
(dp4692
g1326
(idelphi
DelphiIntegerValue
p4693
(dp4694
g37
S'2'
sbsg1337
g1844
sg1338
(i__main__
DelphiIdentAccess
p4695
(dp4696
g14
S'grid'
p4697
sg16
(lp4698
(idelphi
DelphiFieldEndAccess
p4699
(dp4700
g997
S'canvas'
p4701
sba(idelphi
DelphiFieldEndAccess
p4702
(dp4703
g997
S'textHeight'
p4704
sba(idelphi
DelphiFunctionEndAccess
p4705
(dp4706
g1001
(lp4707
(idelphi
DelphiStringAccess
p4708
(dp4709
g16
(lp4710
sg37
(idelphi
DelphiStringValue
p4711
(dp4712
g37
S'0'
sbsbasbasbsbsg1274
(idelphi
DelphiAddOp
p4713
(dp4714
g1270
S'+'
sg1271
(idelphi
DelphiMulOp
p4715
(dp4716
g1326
(idelphi
DelphiIntegerValue
p4717
(dp4718
g37
S'2'
sbsg1337
g1844
sg1338
(i__main__
DelphiIdentAccess
p4719
(dp4720
g14
S'rHeight'
p4721
sg16
(lp4722
(idelphi
DelphiFunctionEndAccess
p4723
(dp4724
g1001
(lp4725
(i__main__
DelphiIdentAccess
p4726
(dp4727
g14
S'rect'
p4728
sg16
(lp4729
sbasbasbsbsg1274
(i__main__
DelphiIdentAccess
p4730
(dp4731
g14
S'rect'
p4732
sg16
(lp4733
(idelphi
DelphiFieldEndAccess
p4734
(dp4735
g997
S'top'
p4736
sbasbsbsbsg990
(i__main__
DelphiIdentAccess
p4737
(dp4738
g14
S'textDrawRect'
p4739
sg16
(lp4740
(idelphi
DelphiFieldEndAccess
p4741
(dp4742
g997
S'top'
p4743
sbasbsba(i__main__
DelphiAssignStatement
p4744
(dp4745
g989
Nsg990
(i__main__
DelphiIdentAccess
p4746
(dp4747
g14
S'grid'
p4748
sg16
(lp4749
(idelphi
DelphiFieldEndAccess
p4750
(dp4751
g997
S'canvas'
p4752
sba(idelphi
DelphiFieldEndAccess
p4753
(dp4754
g997
S'textOut'
p4755
sba(idelphi
DelphiFunctionEndAccess
p4756
(dp4757
g1001
(lp4758
(i__main__
DelphiIdentAccess
p4759
(dp4760
g14
S'textDrawRect'
p4761
sg16
(lp4762
(idelphi
DelphiFieldEndAccess
p4763
(dp4764
g997
S'left'
p4765
sbasba(i__main__
DelphiIdentAccess
p4766
(dp4767
g14
S'textDrawRect'
p4768
sg16
(lp4769
(idelphi
DelphiFieldEndAccess
p4770
(dp4771
g997
S'top'
p4772
sbasba(i__main__
DelphiIdentAccess
p4773
(dp4774
g14
S'textToDraw'
p4775
sg16
(lp4776
sbasbasbsba(i__main__
DelphiExitStatement
p4777
(dp4778
g1204
g4351
sbasbsba(i__main__
DelphiAssignStatement
p4779
(dp4780
g989
(idelphi
DelphiNilValue
p4781
(dp4782
bsg990
(i__main__
DelphiIdentAccess
p4783
(dp4784
g14
S'plant'
p4785
sg16
(lp4786
sbsba(i__main__
DelphiAssignStatement
p4787
(dp4788
g989
(i__main__
DelphiIdentAccess
p4789
(dp4790
g14
S'self'
p4791
sg16
(lp4792
(idelphi
DelphiFieldEndAccess
p4793
(dp4794
g997
S'plantForIndex'
p4795
sba(idelphi
DelphiFunctionEndAccess
p4796
(dp4797
g1001
(lp4798
(i__main__
DelphiIdentAccess
p4799
(dp4800
g14
S'col'
p4801
sg16
(lp4802
sbasbasbsg990
(i__main__
DelphiIdentAccess
p4803
(dp4804
g14
S'plant'
p4805
sg16
(lp4806
sbsba(idelphi
DelphiIfStatement
p4807
(dp4808
g1188
(idelphi
DelphiRelOp
p4809
(dp4810
g1191
(i__main__
DelphiIdentAccess
p4811
(dp4812
g14
S'plant'
p4813
sg16
(lp4814
sbsg1196
(idelphi
DelphiNilValue
p4815
(dp4816
bsg1199
S'='
sbsg1200
Nsg1201
(i__main__
DelphiExitStatement
p4817
(dp4818
g1204
g4351
sbsba(idelphi
DelphiIfStatement
p4819
(dp4820
g1188
(idelphi
DelphiNot
p4821
(dp4822
g1209
(i__main__
DelphiIdentAccess
p4823
(dp4824
g14
S'plant'
p4825
sg16
(lp4826
(idelphi
DelphiFieldEndAccess
p4827
(dp4828
g997
S'previewCacheUpToDate'
p4829
sbasbsbsg1200
Nsg1201
(idelphi
DelphiCompoundStatement
p4830
(dp4831
g985
(lp4832
(i__main__
DelphiAssignStatement
p4833
(dp4834
g989
(i__main__
DelphiIdentAccess
p4835
(dp4836
g14
S'bsSolid'
p4837
sg16
(lp4838
sbsg990
(i__main__
DelphiIdentAccess
p4839
(dp4840
g14
S'grid'
p4841
sg16
(lp4842
(idelphi
DelphiFieldEndAccess
p4843
(dp4844
g997
S'canvas'
p4845
sba(idelphi
DelphiFieldEndAccess
p4846
(dp4847
g997
S'brush'
p4848
sba(idelphi
DelphiFieldEndAccess
p4849
(dp4850
g997
S'style'
p4851
sbasbsg209
(lp4852
S' draw plant '
p4853
aS' draw gray solid box to show delay for drawing plant cache\r'
p4854
asba(i__main__
DelphiAssignStatement
p4855
(dp4856
g989
(i__main__
DelphiIdentAccess
p4857
(dp4858
g14
S'clSilver'
p4859
sg16
(lp4860
sbsg990
(i__main__
DelphiIdentAccess
p4861
(dp4862
g14
S'grid'
p4863
sg16
(lp4864
(idelphi
DelphiFieldEndAccess
p4865
(dp4866
g997
S'canvas'
p4867
sba(idelphi
DelphiFieldEndAccess
p4868
(dp4869
g997
S'brush'
p4870
sba(idelphi
DelphiFieldEndAccess
p4871
(dp4872
g997
S'color'
p4873
sbasbsba(i__main__
DelphiAssignStatement
p4874
(dp4875
g989
(i__main__
DelphiIdentAccess
p4876
(dp4877
g14
S'clSilver'
p4878
sg16
(lp4879
sbsg990
(i__main__
DelphiIdentAccess
p4880
(dp4881
g14
S'grid'
p4882
sg16
(lp4883
(idelphi
DelphiFieldEndAccess
p4884
(dp4885
g997
S'canvas'
p4886
sba(idelphi
DelphiFieldEndAccess
p4887
(dp4888
g997
S'pen'
p4889
sba(idelphi
DelphiFieldEndAccess
p4890
(dp4891
g997
S'color'
p4892
sbasbsba(idelphi
DelphiWithStatement
p4893
(dp4894
g1113
(i__main__
DelphiAssignStatement
p4895
(dp4896
g989
Nsg990
(i__main__
DelphiIdentAccess
p4897
(dp4898
g14
S'grid'
p4899
sg16
(lp4900
(idelphi
DelphiFieldEndAccess
p4901
(dp4902
g997
S'canvas'
p4903
sba(idelphi
DelphiFieldEndAccess
p4904
(dp4905
g997
S'rectangle'
p4906
sba(idelphi
DelphiFunctionEndAccess
p4907
(dp4908
g1001
(lp4909
(idelphi
DelphiAddOp
p4910
(dp4911
g1270
S'+'
sg1271
(idelphi
DelphiIntegerValue
p4912
(dp4913
g37
S'1'
sbsg1274
(i__main__
DelphiIdentAccess
p4914
(dp4915
g14
S'left'
p4916
sg16
(lp4917
sbsba(idelphi
DelphiAddOp
p4918
(dp4919
g1270
S'+'
sg1271
(idelphi
DelphiIntegerValue
p4920
(dp4921
g37
S'1'
sbsg1274
(i__main__
DelphiIdentAccess
p4922
(dp4923
g14
S'top'
p4924
sg16
(lp4925
sbsba(i__main__
DelphiIdentAccess
p4926
(dp4927
g14
S'right'
p4928
sg16
(lp4929
sba(i__main__
DelphiIdentAccess
p4930
(dp4931
g14
S'bottom'
p4932
sg16
(lp4933
sbasbasbsbsg1139
(lp4934
(i__main__
DelphiIdentAccess
p4935
(dp4936
g14
S'rect'
p4937
sg16
(lp4938
sbasba(i__main__
DelphiAssignStatement
p4939
(dp4940
g989
Nsg990
(i__main__
DelphiIdentAccess
p4941
(dp4942
g14
S'plant'
p4943
sg16
(lp4944
(idelphi
DelphiFieldEndAccess
p4945
(dp4946
g997
S'drawPreviewIntoCache'
p4947
sba(idelphi
DelphiFunctionEndAccess
p4948
(dp4949
g1001
(lp4950
(i__main__
DelphiIdentAccess
p4951
(dp4952
g14
S'Point'
p4953
sg16
(lp4954
(idelphi
DelphiFunctionEndAccess
p4955
(dp4956
g1001
(lp4957
(i__main__
DelphiIdentAccess
p4958
(dp4959
g14
S'grid'
p4960
sg16
(lp4961
(idelphi
DelphiFieldEndAccess
p4962
(dp4963
g997
S'defaultColWidth'
p4964
sbasba(i__main__
DelphiIdentAccess
p4965
(dp4966
g14
S'grid'
p4967
sg16
(lp4968
(idelphi
DelphiFieldEndAccess
p4969
(dp4970
g997
S'defaultRowHeight'
p4971
sbasbasbasba(i__main__
DelphiIdentAccess
p4972
(dp4973
g14
S'kDontConsiderDomainScale'
p4974
sg16
(lp4975
sba(i__main__
DelphiIdentAccess
p4976
(dp4977
g14
S'kDrawNow'
p4978
sg16
(lp4979
sbasbasbsbasbsba(i__main__
DelphiAssignStatement
p4980
(dp4981
g989
(i__main__
DelphiIdentAccess
p4982
(dp4983
g14
S'false'
p4984
sg16
(lp4985
sbsg990
(i__main__
DelphiIdentAccess
p4986
(dp4987
g14
S'plant'
p4988
sg16
(lp4989
(idelphi
DelphiFieldEndAccess
p4990
(dp4991
g997
S'previewCache'
p4992
sba(idelphi
DelphiFieldEndAccess
p4993
(dp4994
g997
S'transparent'
p4995
sbasbsba(i__main__
DelphiAssignStatement
p4996
(dp4997
g989
Nsg990
(i__main__
DelphiIdentAccess
p4998
(dp4999
g14
S'copyBitmapToCanvasWithGlobalPalette'
p5000
sg16
(lp5001
(idelphi
DelphiFunctionEndAccess
p5002
(dp5003
g1001
(lp5004
(i__main__
DelphiIdentAccess
p5005
(dp5006
g14
S'plant'
p5007
sg16
(lp5008
(idelphi
DelphiFieldEndAccess
p5009
(dp5010
g997
S'previewCache'
p5011
sbasba(i__main__
DelphiIdentAccess
p5012
(dp5013
g14
S'grid'
p5014
sg16
(lp5015
(idelphi
DelphiFieldEndAccess
p5016
(dp5017
g997
S'canvas'
p5018
sbasba(i__main__
DelphiIdentAccess
p5019
(dp5020
g14
S'rect'
p5021
sg16
(lp5022
sbasbasbsba(i__main__
DelphiAssignStatement
p5023
(dp5024
g989
(i__main__
DelphiIdentAccess
p5025
(dp5026
g14
S'bsClear'
p5027
sg16
(lp5028
sbsg990
(i__main__
DelphiIdentAccess
p5029
(dp5030
g14
S'grid'
p5031
sg16
(lp5032
(idelphi
DelphiFieldEndAccess
p5033
(dp5034
g997
S'canvas'
p5035
sba(idelphi
DelphiFieldEndAccess
p5036
(dp5037
g997
S'brush'
p5038
sba(idelphi
DelphiFieldEndAccess
p5039
(dp5040
g997
S'style'
p5041
sbasbsg209
(lp5042
S' draw selection rectangle '
p5043
asba(i__main__
DelphiAssignStatement
p5044
(dp5045
g989
(idelphi
DelphiIntegerValue
p5046
(dp5047
g37
S'2'
sbsg990
(i__main__
DelphiIdentAccess
p5048
(dp5049
g14
S'grid'
p5050
sg16
(lp5051
(idelphi
DelphiFieldEndAccess
p5052
(dp5053
g997
S'canvas'
p5054
sba(idelphi
DelphiFieldEndAccess
p5055
(dp5056
g997
S'pen'
p5057
sba(idelphi
DelphiFieldEndAccess
p5058
(dp5059
g997
S'width'
p5060
sbasbsba(idelphi
DelphiIfStatement
p5061
(dp5062
g1188
(idelphi
DelphiRelOp
p5063
(dp5064
g1191
(i__main__
DelphiIdentAccess
p5065
(dp5066
g14
S'plant'
p5067
sg16
(lp5068
sbsg1196
(i__main__
DelphiIdentAccess
p5069
(dp5070
g14
S'selectedPlant'
p5071
sg16
(lp5072
sbsg1199
S'='
sbsg1200
(i__main__
DelphiAssignStatement
p5073
(dp5074
g989
(i__main__
DelphiIdentAccess
p5075
(dp5076
g14
S'clSilver'
p5077
sg16
(lp5078
sbsg990
(i__main__
DelphiIdentAccess
p5079
(dp5080
g14
S'grid'
p5081
sg16
(lp5082
(idelphi
DelphiFieldEndAccess
p5083
(dp5084
g997
S'canvas'
p5085
sba(idelphi
DelphiFieldEndAccess
p5086
(dp5087
g997
S'pen'
p5088
sba(idelphi
DelphiFieldEndAccess
p5089
(dp5090
g997
S'color'
p5091
sbasbsbsg1201
(i__main__
DelphiAssignStatement
p5092
(dp5093
g989
(i__main__
DelphiIdentAccess
p5094
(dp5095
g14
S'domain'
p5096
sg16
(lp5097
(idelphi
DelphiFieldEndAccess
p5098
(dp5099
g997
S'options'
p5100
sba(idelphi
DelphiFieldEndAccess
p5101
(dp5102
g997
S'firstSelectionRectangleColor'
p5103
sbasbsg990
(i__main__
DelphiIdentAccess
p5104
(dp5105
g14
S'grid'
p5106
sg16
(lp5107
(idelphi
DelphiFieldEndAccess
p5108
(dp5109
g997
S'canvas'
p5110
sba(idelphi
DelphiFieldEndAccess
p5111
(dp5112
g997
S'pen'
p5113
sba(idelphi
DelphiFieldEndAccess
p5114
(dp5115
g997
S'color'
p5116
sbasbsbsba(idelphi
DelphiWithStatement
p5117
(dp5118
g1113
(i__main__
DelphiAssignStatement
p5119
(dp5120
g989
Nsg990
(i__main__
DelphiIdentAccess
p5121
(dp5122
g14
S'grid'
p5123
sg16
(lp5124
(idelphi
DelphiFieldEndAccess
p5125
(dp5126
g997
S'canvas'
p5127
sba(idelphi
DelphiFieldEndAccess
p5128
(dp5129
g997
S'rectangle'
p5130
sba(idelphi
DelphiFunctionEndAccess
p5131
(dp5132
g1001
(lp5133
(idelphi
DelphiAddOp
p5134
(dp5135
g1270
S'+'
sg1271
(idelphi
DelphiIntegerValue
p5136
(dp5137
g37
S'1'
sbsg1274
(i__main__
DelphiIdentAccess
p5138
(dp5139
g14
S'left'
p5140
sg16
(lp5141
sbsba(idelphi
DelphiAddOp
p5142
(dp5143
g1270
S'+'
sg1271
(idelphi
DelphiIntegerValue
p5144
(dp5145
g37
S'1'
sbsg1274
(i__main__
DelphiIdentAccess
p5146
(dp5147
g14
S'top'
p5148
sg16
(lp5149
sbsba(i__main__
DelphiIdentAccess
p5150
(dp5151
g14
S'right'
p5152
sg16
(lp5153
sba(i__main__
DelphiIdentAccess
p5154
(dp5155
g14
S'bottom'
p5156
sg16
(lp5157
sbasbasbsbsg1139
(lp5158
(i__main__
DelphiIdentAccess
p5159
(dp5160
g14
S'rect'
p5161
sg16
(lp5162
sbasbasbsg1005
(lp5163
(i__main__
DelphiVarSection
p5164
(dp5165
g42
I0
sg1448
(lp5166
(idelphi
DelphiVarDecl
p5167
(dp5168
g11
Nsg1452
(lp5169
S'plant'
p5170
asg19
(i__main__
DelphiNamedType
p5171
(dp5172
g22
S'PdPlant'
p5173
sg158
g1
sg159
Nsbsba(idelphi
DelphiVarDecl
p5174
(dp5175
g11
Nsg1452
(lp5176
S'textDrawRect'
p5177
asg19
(i__main__
DelphiNamedType
p5178
(dp5179
g22
S'TRect'
p5180
sg158
g1
sg159
Nsbsba(idelphi
DelphiVarDecl
p5181
(dp5182
g11
Nsg1452
(lp5183
S'textToDraw'
p5184
asg19
(i__main__
DelphiPrimitiveType
p5185
(dp5186
g22
g37
sbsbasbasbsg209
(lp5187
S' -------------------------------------------------------------------------------------- grid '
p5188
asbsS'formcreate'
p5189
(i__main__
DelphiMethodImplementation
p5190
(dp5191
g958
g580
sg139
g582
sg147
(lp5192
(i__main__
DelphiFormalParameter
p5193
(dp5194
g151
Nsg152
(lp5195
S'Sender'
p5196
asg19
(i__main__
DelphiNamedType
p5197
(dp5198
g22
S'TObject'
p5199
sg158
g1
sg159
Nsbsg160
Nsbasg967
(lp5200
sg969
(lp5201
sg971
(lp5202
g973
ag5196
asg974
(dp5203
g5196
g5197
ssg161
S'TTimeSeriesForm'
p5204
sg162
Nsg977
(lp5205
sg163
I0
sg164
g165
sg979
(i__main__
DelphiBlock
p5206
(dp5207
g982
(idelphi
DelphiCompoundStatement
p5208
(dp5209
g985
(lp5210
(i__main__
DelphiAssignStatement
p5211
(dp5212
g989
(i__main__
DelphiIdentAccess
p5213
(dp5214
g14
S'TListCollection'
p5215
sg16
(lp5216
(idelphi
DelphiFieldEndAccess
p5217
(dp5218
g997
S'create'
p5219
sbasbsg990
(i__main__
DelphiIdentAccess
p5220
(dp5221
g14
S'plants'
p5222
sg16
(lp5223
sbsba(i__main__
DelphiAssignStatement
p5224
(dp5225
g989
(i__main__
DelphiIdentAccess
p5226
(dp5227
g14
S'crDragPlant'
p5228
sg16
(lp5229
sbsg990
(i__main__
DelphiIdentAccess
p5230
(dp5231
g14
S'grid'
p5232
sg16
(lp5233
(idelphi
DelphiFieldEndAccess
p5234
(dp5235
g997
S'dragCursor'
p5236
sbasbsba(i__main__
DelphiAssignStatement
p5237
(dp5238
g989
(i__main__
DelphiIdentAccess
p5239
(dp5240
g14
S'poDesigned'
p5241
sg16
(lp5242
sbsg990
(i__main__
DelphiIdentAccess
p5243
(dp5244
g14
S'self'
p5245
sg16
(lp5246
(idelphi
DelphiFieldEndAccess
p5247
(dp5248
g997
S'position'
p5249
sbasbsba(i__main__
DelphiAssignStatement
p5250
(dp5251
g989
(i__main__
DelphiIdentAccess
p5252
(dp5253
g14
S'domain'
p5254
sg16
(lp5255
(idelphi
DelphiFieldEndAccess
p5256
(dp5257
g997
S'timeSeriesWindowRect'
p5258
sbasbsg990
(i__main__
DelphiIdentAccess
p5259
(dp5260
g14
S'tempBoundsRect'
p5261
sg16
(lp5262
sbsg209
(lp5263
S' keep window on screen - left corner of title bar '
p5264
asba(idelphi
DelphiWithStatement
p5265
(dp5266
g1113
(idelphi
DelphiIfStatement
p5267
(dp5268
g1188
(idelphi
DelphiAddOp
p5269
(dp5270
g1270
g2198
sg1271
(idelphi
DelphiNestedExpressionListAccess
p5271
(dp5272
g16
(lp5273
sg1001
(lp5274
(idelphi
DelphiRelOp
p5275
(dp5276
g1191
(i__main__
DelphiIdentAccess
p5277
(dp5278
g14
S'bottom'
p5279
sg16
(lp5280
sbsg1196
(idelphi
DelphiIntegerValue
p5281
(dp5282
g37
S'0'
sbsg1199
g1506
sbasbsg1274
(idelphi
DelphiAddOp
p5283
(dp5284
g1270
g2198
sg1271
(idelphi
DelphiNestedExpressionListAccess
p5285
(dp5286
g16
(lp5287
sg1001
(lp5288
(idelphi
DelphiRelOp
p5289
(dp5290
g1191
(i__main__
DelphiIdentAccess
p5291
(dp5292
g14
S'top'
p5293
sg16
(lp5294
sbsg1196
(idelphi
DelphiIntegerValue
p5295
(dp5296
g37
S'0'
sbsg1199
g1506
sbasbsg1274
(idelphi
DelphiAddOp
p5297
(dp5298
g1270
g2198
sg1271
(idelphi
DelphiNestedExpressionListAccess
p5299
(dp5300
g16
(lp5301
sg1001
(lp5302
(idelphi
DelphiRelOp
p5303
(dp5304
g1191
(i__main__
DelphiIdentAccess
p5305
(dp5306
g14
S'right'
p5307
sg16
(lp5308
sbsg1196
(idelphi
DelphiIntegerValue
p5309
(dp5310
g37
S'0'
sbsg1199
g1506
sbasbsg1274
(idelphi
DelphiNestedExpressionListAccess
p5311
(dp5312
g16
(lp5313
sg1001
(lp5314
(idelphi
DelphiRelOp
p5315
(dp5316
g1191
(i__main__
DelphiIdentAccess
p5317
(dp5318
g14
S'left'
p5319
sg16
(lp5320
sbsg1196
(idelphi
DelphiIntegerValue
p5321
(dp5322
g37
S'0'
sbsg1199
g1506
sbasbsbsbsbsg1200
Nsg1201
(idelphi
DelphiCompoundStatement
p5323
(dp5324
g985
(lp5325
(idelphi
DelphiIfStatement
p5326
(dp5327
g1188
(idelphi
DelphiRelOp
p5328
(dp5329
g1191
(i__main__
DelphiIdentAccess
p5330
(dp5331
g14
S'left'
p5332
sg16
(lp5333
sbsg1196
(idelphi
DelphiAddOp
p5334
(dp5335
g1270
S'-'
sg1271
(i__main__
DelphiIdentAccess
p5336
(dp5337
g14
S'kMinWidthOnScreen'
p5338
sg16
(lp5339
sbsg1274
(i__main__
DelphiIdentAccess
p5340
(dp5341
g14
S'screen'
p5342
sg16
(lp5343
(idelphi
DelphiFieldEndAccess
p5344
(dp5345
g997
S'width'
p5346
sbasbsbsg1199
S'>'
sbsg1200
Nsg1201
(i__main__
DelphiAssignStatement
p5347
(dp5348
g989
(idelphi
DelphiAddOp
p5349
(dp5350
g1270
S'-'
sg1271
(i__main__
DelphiIdentAccess
p5351
(dp5352
g14
S'kMinWidthOnScreen'
p5353
sg16
(lp5354
sbsg1274
(i__main__
DelphiIdentAccess
p5355
(dp5356
g14
S'screen'
p5357
sg16
(lp5358
(idelphi
DelphiFieldEndAccess
p5359
(dp5360
g997
S'width'
p5361
sbasbsbsg990
(i__main__
DelphiIdentAccess
p5362
(dp5363
g14
S'left'
p5364
sg16
(lp5365
sbsbsba(idelphi
DelphiIfStatement
p5366
(dp5367
g1188
(idelphi
DelphiRelOp
p5368
(dp5369
g1191
(i__main__
DelphiIdentAccess
p5370
(dp5371
g14
S'top'
p5372
sg16
(lp5373
sbsg1196
(idelphi
DelphiAddOp
p5374
(dp5375
g1270
S'-'
sg1271
(i__main__
DelphiIdentAccess
p5376
(dp5377
g14
S'kMinHeightOnScreen'
p5378
sg16
(lp5379
sbsg1274
(i__main__
DelphiIdentAccess
p5380
(dp5381
g14
S'screen'
p5382
sg16
(lp5383
(idelphi
DelphiFieldEndAccess
p5384
(dp5385
g997
S'height'
p5386
sbasbsbsg1199
S'>'
sbsg1200
Nsg1201
(i__main__
DelphiAssignStatement
p5387
(dp5388
g989
(idelphi
DelphiAddOp
p5389
(dp5390
g1270
S'-'
sg1271
(i__main__
DelphiIdentAccess
p5391
(dp5392
g14
S'kMinHeightOnScreen'
p5393
sg16
(lp5394
sbsg1274
(i__main__
DelphiIdentAccess
p5395
(dp5396
g14
S'screen'
p5397
sg16
(lp5398
(idelphi
DelphiFieldEndAccess
p5399
(dp5400
g997
S'height'
p5401
sbasbsbsg990
(i__main__
DelphiIdentAccess
p5402
(dp5403
g14
S'top'
p5404
sg16
(lp5405
sbsbsba(i__main__
DelphiAssignStatement
p5406
(dp5407
g989
Nsg990
(i__main__
DelphiIdentAccess
p5408
(dp5409
g14
S'self'
p5410
sg16
(lp5411
(idelphi
DelphiFieldEndAccess
p5412
(dp5413
g997
S'setBounds'
p5414
sba(idelphi
DelphiFunctionEndAccess
p5415
(dp5416
g1001
(lp5417
(i__main__
DelphiIdentAccess
p5418
(dp5419
g14
S'left'
p5420
sg16
(lp5421
sba(i__main__
DelphiIdentAccess
p5422
(dp5423
g14
S'top'
p5424
sg16
(lp5425
sba(i__main__
DelphiIdentAccess
p5426
(dp5427
g14
S'right'
p5428
sg16
(lp5429
sba(i__main__
DelphiIdentAccess
p5430
(dp5431
g14
S'bottom'
p5432
sg16
(lp5433
sbasbasbsbasbsbsg1139
(lp5434
(i__main__
DelphiIdentAccess
p5435
(dp5436
g14
S'tempBoundsRect'
p5437
sg16
(lp5438
sbasba(idelphi
DelphiCaseStatement
p5439
(dp5440
S'elseStatement'
p5441
Nsg1188
(i__main__
DelphiIdentAccess
p5442
(dp5443
g14
S'domain'
p5444
sg16
(lp5445
(idelphi
DelphiFieldEndAccess
p5446
(dp5447
g997
S'options'
p5448
sba(idelphi
DelphiFieldEndAccess
p5449
(dp5450
g997
S'drawSpeed'
p5451
sbasbsS'caseSelectorList'
p5452
(lp5453
(idelphi
DelphiCaseSelector
p5454
(dp5455
g1113
(i__main__
DelphiAssignStatement
p5456
(dp5457
g989
(i__main__
DelphiIdentAccess
p5458
(dp5459
g14
S'true'
p5460
sg16
(lp5461
sbsg990
(i__main__
DelphiIdentAccess
p5462
(dp5463
g14
S'TimeSeriesMenuOptionsFastDraw'
p5464
sg16
(lp5465
(idelphi
DelphiFieldEndAccess
p5466
(dp5467
g997
S'checked'
p5468
sbasbsbsS'caseLabelList'
p5469
(lp5470
(i__main__
DelphiIdentAccess
p5471
(dp5472
g14
S'kDrawFast'
p5473
sg16
(lp5474
sbasba(idelphi
DelphiCaseSelector
p5475
(dp5476
g1113
(i__main__
DelphiAssignStatement
p5477
(dp5478
g989
(i__main__
DelphiIdentAccess
p5479
(dp5480
g14
S'true'
p5481
sg16
(lp5482
sbsg990
(i__main__
DelphiIdentAccess
p5483
(dp5484
g14
S'TimeSeriesMenuOptionsMediumDraw'
p5485
sg16
(lp5486
(idelphi
DelphiFieldEndAccess
p5487
(dp5488
g997
S'checked'
p5489
sbasbsbsg5469
(lp5490
(i__main__
DelphiIdentAccess
p5491
(dp5492
g14
S'kDrawMedium'
p5493
sg16
(lp5494
sbasba(idelphi
DelphiCaseSelector
p5495
(dp5496
g1113
(i__main__
DelphiAssignStatement
p5497
(dp5498
g989
(i__main__
DelphiIdentAccess
p5499
(dp5500
g14
S'true'
p5501
sg16
(lp5502
sbsg990
(i__main__
DelphiIdentAccess
p5503
(dp5504
g14
S'TimeSeriesMenuOptionsBestDraw'
p5505
sg16
(lp5506
(idelphi
DelphiFieldEndAccess
p5507
(dp5508
g997
S'checked'
p5509
sbasbsbsg5469
(lp5510
(i__main__
DelphiIdentAccess
p5511
(dp5512
g14
S'kDrawBest'
p5513
sg16
(lp5514
sbasba(idelphi
DelphiCaseSelector
p5515
(dp5516
g1113
(i__main__
DelphiAssignStatement
p5517
(dp5518
g989
(i__main__
DelphiIdentAccess
p5519
(dp5520
g14
S'true'
p5521
sg16
(lp5522
sbsg990
(i__main__
DelphiIdentAccess
p5523
(dp5524
g14
S'TimeSeriesMenuOptionsCustomDraw'
p5525
sg16
(lp5526
(idelphi
DelphiFieldEndAccess
p5527
(dp5528
g997
S'checked'
p5529
sbasbsbsg5469
(lp5530
(i__main__
DelphiIdentAccess
p5531
(dp5532
g14
S'kDrawCustom'
p5533
sg16
(lp5534
sbasbasba(i__main__
DelphiAssignStatement
p5535
(dp5536
g989
Nsg990
(i__main__
DelphiIdentAccess
p5537
(dp5538
g14
S'MainForm'
p5539
sg16
(lp5540
(idelphi
DelphiFieldEndAccess
p5541
(dp5542
g997
S'updateMenusForUndoRedo'
p5543
sbasbsg209
(lp5544
S'to get redo messages'
p5545
asba(i__main__
DelphiAssignStatement
p5546
(dp5547
g989
Nsg990
(i__main__
DelphiIdentAccess
p5548
(dp5549
g14
S'self'
p5550
sg16
(lp5551
(idelphi
DelphiFieldEndAccess
p5552
(dp5553
g997
S'updateForChangeToDomainOptions'
p5554
sbasbsba(i__main__
DelphiAssignStatement
p5555
(dp5556
g989
Nsg990
(i__main__
DelphiIdentAccess
p5557
(dp5558
g14
S'self'
p5559
sg16
(lp5560
(idelphi
DelphiFieldEndAccess
p5561
(dp5562
g997
S'updateMenusForChangeToSelectedPlant'
p5563
sbasbsba(i__main__
DelphiAssignStatement
p5564
(dp5565
g989
Nsg990
(i__main__
DelphiIdentAccess
p5566
(dp5567
g14
S'self'
p5568
sg16
(lp5569
(idelphi
DelphiFieldEndAccess
p5570
(dp5571
g997
S'updatePasteMenuForClipboardContents'
p5572
sbasbsba(i__main__
DelphiAssignStatement
p5573
(dp5574
g989
Nsg990
(i__main__
DelphiIdentAccess
p5575
(dp5576
g14
S'emptyWarningPanel'
p5577
sg16
(lp5578
(idelphi
DelphiFieldEndAccess
p5579
(dp5580
g997
S'sendToBack'
p5581
sbasbsba(i__main__
DelphiAssignStatement
p5582
(dp5583
g989
Nsg990
(i__main__
DelphiIdentAccess
p5584
(dp5585
g14
S'emptyWarningPanel'
p5586
sg16
(lp5587
(idelphi
DelphiFieldEndAccess
p5588
(dp5589
g997
S'hide'
p5590
sbasbsbasbsg1005
(lp5591
(i__main__
DelphiVarSection
p5592
(dp5593
g42
I0
sg1448
(lp5594
(idelphi
DelphiVarDecl
p5595
(dp5596
g11
Nsg1452
(lp5597
S'tempBoundsRect'
p5598
asg19
(i__main__
DelphiNamedType
p5599
(dp5600
g22
S'TRect'
p5601
sg158
g1
sg159
Nsbsbasbasbsg209
(lp5602
S'$R *.DFM'
p5603
asbsS'copyplanttopoint'
p5604
(i__main__
DelphiMethodImplementation
p5605
(dp5606
g958
g592
sg139
g594
sg147
(lp5607
(i__main__
DelphiFormalParameter
p5608
(dp5609
g151
Nsg152
(lp5610
S'aPlant'
p5611
asg19
(i__main__
DelphiNamedType
p5612
(dp5613
g22
S'PdPlant'
p5614
sg158
g1
sg159
Nsbsg160
Nsba(i__main__
DelphiFormalParameter
p5615
(dp5616
g151
Nsg152
(lp5617
S'x'
aS'y'
asg19
(i__main__
DelphiPrimitiveType
p5618
(dp5619
g22
g268
sbsg160
Nsbasg967
(lp5620
sg969
(lp5621
sg971
(lp5622
g973
ag5611
aS'x'
aS'y'
asg974
(dp5623
S'y'
g5618
sS'x'
g5618
sg5611
g5612
ssg161
S'TTimeSeriesForm'
p5624
sg162
Nsg977
(lp5625
sg163
I0
sg164
g165
sg979
(i__main__
DelphiBlock
p5626
(dp5627
g982
(idelphi
DelphiCompoundStatement
p5628
(dp5629
g985
(lp5630
(i__main__
DelphiAssignStatement
p5631
(dp5632
g989
(i__main__
DelphiIdentAccess
p5633
(dp5634
g14
S'PdMakeTimeSeriesCommand'
p5635
sg16
(lp5636
(idelphi
DelphiFieldEndAccess
p5637
(dp5638
g997
S'createWithNewPlant'
p5639
sba(idelphi
DelphiFunctionEndAccess
p5640
(dp5641
g1001
(lp5642
(i__main__
DelphiIdentAccess
p5643
(dp5644
g14
S'aPlant'
p5645
sg16
(lp5646
sbasbasbsg990
(i__main__
DelphiIdentAccess
p5647
(dp5648
g14
S'newCommand'
p5649
sg16
(lp5650
sbsba(i__main__
DelphiAssignStatement
p5651
(dp5652
g989
Nsg990
(i__main__
DelphiIdentAccess
p5653
(dp5654
g14
S'MainForm'
p5655
sg16
(lp5656
(idelphi
DelphiFieldEndAccess
p5657
(dp5658
g997
S'doCommand'
p5659
sba(idelphi
DelphiFunctionEndAccess
p5660
(dp5661
g1001
(lp5662
(i__main__
DelphiIdentAccess
p5663
(dp5664
g14
S'newCommand'
p5665
sg16
(lp5666
sbasbasbsbasbsg1005
(lp5667
(i__main__
DelphiVarSection
p5668
(dp5669
g42
I0
sg1448
(lp5670
(idelphi
DelphiVarDecl
p5671
(dp5672
g11
Nsg1452
(lp5673
S'newCommand'
p5674
asg19
(i__main__
DelphiNamedType
p5675
(dp5676
g22
S'PdCommand'
p5677
sg158
g1
sg159
NsbsbasbasbsbsS'formactivate'
p5678
(i__main__
DelphiMethodImplementation
p5679
(dp5680
g958
g568
sg139
g570
sg147
(lp5681
(i__main__
DelphiFormalParameter
p5682
(dp5683
g151
Nsg152
(lp5684
S'Sender'
p5685
asg19
(i__main__
DelphiNamedType
p5686
(dp5687
g22
S'TObject'
p5688
sg158
g1
sg159
Nsbsg160
Nsbasg967
(lp5689
sg969
(lp5690
sg971
(lp5691
g973
ag5685
asg974
(dp5692
g5685
g5686
ssg161
S'TTimeSeriesForm'
p5693
sg162
Nsg977
(lp5694
sg163
I0
sg164
g165
sg979
(i__main__
DelphiBlock
p5695
(dp5696
g982
(idelphi
DelphiCompoundStatement
p5697
(dp5698
g985
(lp5699
(idelphi
DelphiIfStatement
p5700
(dp5701
g1188
(i__main__
DelphiIdentAccess
p5702
(dp5703
g14
S'Application'
p5704
sg16
(lp5705
(idelphi
DelphiFieldEndAccess
p5706
(dp5707
g997
S'terminated'
p5708
sbasbsg1200
Nsg1201
(i__main__
DelphiExitStatement
p5709
(dp5710
g1204
g5679
sbsba(idelphi
DelphiIfStatement
p5711
(dp5712
g1188
(idelphi
DelphiRelOp
p5713
(dp5714
g1191
(i__main__
DelphiIdentAccess
p5715
(dp5716
g14
S'plants'
p5717
sg16
(lp5718
(idelphi
DelphiFieldEndAccess
p5719
(dp5720
g997
S'count'
p5721
sbasbsg1196
(idelphi
DelphiIntegerValue
p5722
(dp5723
g37
S'0'
sbsg1199
g2069
sbsg1200
(idelphi
DelphiIfStatement
p5724
(dp5725
g1188
(i__main__
DelphiIdentAccess
p5726
(dp5727
g14
S'self'
p5728
sg16
(lp5729
(idelphi
DelphiFieldEndAccess
p5730
(dp5731
g997
S'needToRedrawFromChangeToDrawOptions'
p5732
sbasbsg1200
Nsg1201
(idelphi
DelphiCompoundStatement
p5733
(dp5734
g985
(lp5735
(i__main__
DelphiAssignStatement
p5736
(dp5737
g989
Nsg990
(i__main__
DelphiIdentAccess
p5738
(dp5739
g14
S'self'
p5740
sg16
(lp5741
(idelphi
DelphiFieldEndAccess
p5742
(dp5743
g997
S'redrawPlants'
p5744
sbasbsba(i__main__
DelphiAssignStatement
p5745
(dp5746
g989
(i__main__
DelphiIdentAccess
p5747
(dp5748
g14
S'false'
p5749
sg16
(lp5750
sbsg990
(i__main__
DelphiIdentAccess
p5751
(dp5752
g14
S'self'
p5753
sg16
(lp5754
(idelphi
DelphiFieldEndAccess
p5755
(dp5756
g997
S'needToRedrawFromChangeToDrawOptions'
p5757
sbasbsbasbsbsg1201
(idelphi
DelphiCompoundStatement
p5758
(dp5759
g985
(lp5760
(i__main__
DelphiAssignStatement
p5761
(dp5762
g989
Nsg990
(i__main__
DelphiIdentAccess
p5763
(dp5764
g14
S'emptyWarningPanel'
p5765
sg16
(lp5766
(idelphi
DelphiFieldEndAccess
p5767
(dp5768
g997
S'bringToFront'
p5769
sbasbsba(i__main__
DelphiAssignStatement
p5770
(dp5771
g989
Nsg990
(i__main__
DelphiIdentAccess
p5772
(dp5773
g14
S'emptyWarningPanel'
p5774
sg16
(lp5775
(idelphi
DelphiFieldEndAccess
p5776
(dp5777
g997
S'show'
p5778
sbasbsbasbsbasbsg1005
(lp5779
sbsbsS'formdestroy'
p5780
(i__main__
DelphiMethodImplementation
p5781
(dp5782
g958
g621
sg139
g623
sg147
(lp5783
(i__main__
DelphiFormalParameter
p5784
(dp5785
g151
Nsg152
(lp5786
S'Sender'
p5787
asg19
(i__main__
DelphiNamedType
p5788
(dp5789
g22
S'TObject'
p5790
sg158
g1
sg159
Nsbsg160
Nsbasg967
(lp5791
sg969
(lp5792
sg971
(lp5793
g973
ag5787
asg974
(dp5794
g5787
g5788
ssg161
S'TTimeSeriesForm'
p5795
sg162
Nsg977
(lp5796
sg163
I0
sg164
g165
sg979
(i__main__
DelphiBlock
p5797
(dp5798
g982
(idelphi
DelphiCompoundStatement
p5799
(dp5800
g985
(lp5801
(i__main__
DelphiAssignStatement
p5802
(dp5803
g989
Nsg990
(i__main__
DelphiIdentAccess
p5804
(dp5805
g14
S'plants'
p5806
sg16
(lp5807
(idelphi
DelphiFieldEndAccess
p5808
(dp5809
g997
S'free'
p5810
sbasbsba(i__main__
DelphiAssignStatement
p5811
(dp5812
g989
(idelphi
DelphiNilValue
p5813
(dp5814
bsg990
(i__main__
DelphiIdentAccess
p5815
(dp5816
g14
S'plants'
p5817
sg16
(lp5818
sbsbasbsg1005
(lp5819
sbsbsS'formresize'
p5820
(i__main__
DelphiMethodImplementation
p5821
(dp5822
g958
g633
sg139
g635
sg147
(lp5823
(i__main__
DelphiFormalParameter
p5824
(dp5825
g151
Nsg152
(lp5826
S'Sender'
p5827
asg19
(i__main__
DelphiNamedType
p5828
(dp5829
g22
S'TObject'
p5830
sg158
g1
sg159
Nsbsg160
Nsbasg967
(lp5831
sg969
(lp5832
sg971
(lp5833
g973
ag5827
asg974
(dp5834
g5827
g5828
ssg161
S'TTimeSeriesForm'
p5835
sg162
Nsg977
(lp5836
sg163
I0
sg164
g165
sg979
(i__main__
DelphiBlock
p5837
(dp5838
g982
(idelphi
DelphiCompoundStatement
p5839
(dp5840
g985
(lp5841
(idelphi
DelphiIfStatement
p5842
(dp5843
g1188
(i__main__
DelphiIdentAccess
p5844
(dp5845
g14
S'Application'
p5846
sg16
(lp5847
(idelphi
DelphiFieldEndAccess
p5848
(dp5849
g997
S'terminated'
p5850
sbasbsg1200
Nsg1201
(i__main__
DelphiExitStatement
p5851
(dp5852
g1204
g5821
sbsba(idelphi
DelphiIfStatement
p5853
(dp5854
g1188
(idelphi
DelphiRelOp
p5855
(dp5856
g1191
(i__main__
DelphiIdentAccess
p5857
(dp5858
g14
S'plants'
p5859
sg16
(lp5860
sbsg1196
(idelphi
DelphiNilValue
p5861
(dp5862
bsg1199
S'='
sbsg1200
Nsg1201
(i__main__
DelphiExitStatement
p5863
(dp5864
g1204
g5821
sbsba(idelphi
DelphiWithStatement
p5865
(dp5866
g1113
(i__main__
DelphiAssignStatement
p5867
(dp5868
g989
Nsg990
(i__main__
DelphiIdentAccess
p5869
(dp5870
g14
S'setBounds'
p5871
sg16
(lp5872
(idelphi
DelphiFunctionEndAccess
p5873
(dp5874
g1001
(lp5875
(idelphi
DelphiIntegerValue
p5876
(dp5877
g37
S'0'
sba(idelphi
DelphiIntegerValue
p5878
(dp5879
g37
S'0'
sba(i__main__
DelphiIdentAccess
p5880
(dp5881
g14
S'self'
p5882
sg16
(lp5883
(idelphi
DelphiFieldEndAccess
p5884
(dp5885
g997
S'clientWidth'
p5886
sbasba(i__main__
DelphiIdentAccess
p5887
(dp5888
g14
S'intMax'
p5889
sg16
(lp5890
(idelphi
DelphiFunctionEndAccess
p5891
(dp5892
g1001
(lp5893
(idelphi
DelphiIntegerValue
p5894
(dp5895
g37
S'0'
sba(i__main__
DelphiIdentAccess
p5896
(dp5897
g14
S'self'
p5898
sg16
(lp5899
(idelphi
DelphiFieldEndAccess
p5900
(dp5901
g997
S'clientHeight'
p5902
sbasbasbasbasbasbsbsg1139
(lp5903
(i__main__
DelphiIdentAccess
p5904
(dp5905
g14
S'grid'
p5906
sg16
(lp5907
sbasba(idelphi
DelphiWithStatement
p5908
(dp5909
g1113
(i__main__
DelphiAssignStatement
p5910
(dp5911
g989
Nsg990
(i__main__
DelphiIdentAccess
p5912
(dp5913
g14
S'setBounds'
p5914
sg16
(lp5915
(idelphi
DelphiFunctionEndAccess
p5916
(dp5917
g1001
(lp5918
(idelphi
DelphiAddOp
p5919
(dp5920
g1270
S'-'
sg1271
(idelphi
DelphiMulOp
p5921
(dp5922
g1326
(idelphi
DelphiIntegerValue
p5923
(dp5924
g37
S'2'
sbsg1337
g1844
sg1338
(i__main__
DelphiIdentAccess
p5925
(dp5926
g14
S'width'
p5927
sg16
(lp5928
sbsbsg1274
(idelphi
DelphiMulOp
p5929
(dp5930
g1326
(idelphi
DelphiIntegerValue
p5931
(dp5932
g37
S'2'
sbsg1337
g1844
sg1338
(i__main__
DelphiIdentAccess
p5933
(dp5934
g14
S'self'
p5935
sg16
(lp5936
(idelphi
DelphiFieldEndAccess
p5937
(dp5938
g997
S'clientWidth'
p5939
sbasbsbsba(idelphi
DelphiAddOp
p5940
(dp5941
g1270
S'-'
sg1271
(idelphi
DelphiMulOp
p5942
(dp5943
g1326
(idelphi
DelphiIntegerValue
p5944
(dp5945
g37
S'2'
sbsg1337
g1844
sg1338
(i__main__
DelphiIdentAccess
p5946
(dp5947
g14
S'height'
p5948
sg16
(lp5949
sbsbsg1274
(idelphi
DelphiMulOp
p5950
(dp5951
g1326
(idelphi
DelphiIntegerValue
p5952
(dp5953
g37
S'2'
sbsg1337
g1844
sg1338
(i__main__
DelphiIdentAccess
p5954
(dp5955
g14
S'self'
p5956
sg16
(lp5957
(idelphi
DelphiFieldEndAccess
p5958
(dp5959
g997
S'clientHeight'
p5960
sbasbsbsba(i__main__
DelphiIdentAccess
p5961
(dp5962
g14
S'width'
p5963
sg16
(lp5964
sba(i__main__
DelphiIdentAccess
p5965
(dp5966
g14
S'height'
p5967
sg16
(lp5968
sbasbasbsbsg1139
(lp5969
(i__main__
DelphiIdentAccess
p5970
(dp5971
g14
S'emptyWarningPanel'
p5972
sg16
(lp5973
sbasbasbsg1005
(lp5974
sbsg209
(lp5975
S' ------------------------------------------------------------------------------- resizing '
p5976
asbsS'updateplantsfromparent'
p5977
(i__main__
DelphiMethodImplementation
p5978
(dp5979
g958
g650
sg139
g652
sg147
(lp5980
(i__main__
DelphiFormalParameter
p5981
(dp5982
g151
Nsg152
(lp5983
S'aPlant'
p5984
asg19
(i__main__
DelphiNamedType
p5985
(dp5986
g22
S'PdPlant'
p5987
sg158
g1
sg159
Nsbsg160
Nsbasg967
(lp5988
sg969
(lp5989
sg971
(lp5990
g973
ag5984
asg974
(dp5991
g5984
g5985
ssg161
S'TTimeSeriesForm'
p5992
sg162
Nsg977
(lp5993
sg163
I0
sg164
g165
sg979
(i__main__
DelphiBlock
p5994
(dp5995
g982
(idelphi
DelphiCompoundStatement
p5996
(dp5997
g985
(lp5998
(idelphi
DelphiIfStatement
p5999
(dp6000
g1188
(idelphi
DelphiAddOp
p6001
(dp6002
g1270
g2198
sg1271
(idelphi
DelphiNestedExpressionListAccess
p6003
(dp6004
g16
(lp6005
sg1001
(lp6006
(idelphi
DelphiRelOp
p6007
(dp6008
g1191
(i__main__
DelphiIdentAccess
p6009
(dp6010
g14
S'plants'
p6011
sg16
(lp6012
(idelphi
DelphiFieldEndAccess
p6013
(dp6014
g997
S'count'
p6015
sbasbsg1196
(idelphi
DelphiIntegerValue
p6016
(dp6017
g37
S'0'
sbsg1199
g2069
sbasbsg1274
(idelphi
DelphiAddOp
p6018
(dp6019
g1270
g2198
sg1271
(idelphi
DelphiNestedExpressionListAccess
p6020
(dp6021
g16
(lp6022
sg1001
(lp6023
(idelphi
DelphiRelOp
p6024
(dp6025
g1191
(i__main__
DelphiIdentAccess
p6026
(dp6027
g14
S'aPlant'
p6028
sg16
(lp6029
sbsg1196
(i__main__
DelphiIdentAccess
p6030
(dp6031
g14
S'self'
p6032
sg16
(lp6033
(idelphi
DelphiFieldEndAccess
p6034
(dp6035
g997
S'parentPlant'
p6036
sbasbsg1199
g1506
sbasbsg1274
(idelphi
DelphiNestedExpressionListAccess
p6037
(dp6038
g16
(lp6039
sg1001
(lp6040
(idelphi
DelphiRelOp
p6041
(dp6042
g1191
(i__main__
DelphiIdentAccess
p6043
(dp6044
g14
S'aPlant'
p6045
sg16
(lp6046
sbsg1196
(idelphi
DelphiNilValue
p6047
(dp6048
bsg1199
S'='
sbasbsbsbsg1200
Nsg1201
(i__main__
DelphiExitStatement
p6049
(dp6050
g1204
g5978
sbsba(i__main__
DelphiAssignStatement
p6051
(dp6052
g989
Nsg990
(i__main__
DelphiIdentAccess
p6053
(dp6054
g14
S'self'
p6055
sg16
(lp6056
(idelphi
DelphiFieldEndAccess
p6057
(dp6058
g997
S'initializeWithPlant'
p6059
sba(idelphi
DelphiFunctionEndAccess
p6060
(dp6061
g1001
(lp6062
(i__main__
DelphiIdentAccess
p6063
(dp6064
g14
S'aPlant'
p6065
sg16
(lp6066
sba(i__main__
DelphiIdentAccess
p6067
(dp6068
g14
S'kDrawNow'
p6069
sg16
(lp6070
sbasbasbsbasbsg1005
(lp6071
sbsbsS'timeseriesmenupasteclick'
p6072
(i__main__
DelphiMethodImplementation
p6073
(dp6074
g958
g662
sg139
g664
sg147
(lp6075
(i__main__
DelphiFormalParameter
p6076
(dp6077
g151
Nsg152
(lp6078
S'Sender'
p6079
asg19
(i__main__
DelphiNamedType
p6080
(dp6081
g22
S'TObject'
p6082
sg158
g1
sg159
Nsbsg160
Nsbasg967
(lp6083
sg969
(lp6084
sg971
(lp6085
g973
ag6079
asg974
(dp6086
g6079
g6080
ssg161
S'TTimeSeriesForm'
p6087
sg162
Nsg977
(lp6088
sg163
I0
sg164
g165
sg979
(i__main__
DelphiBlock
p6089
(dp6090
g982
(idelphi
DelphiCompoundStatement
p6091
(dp6092
g985
(lp6093
(idelphi
DelphiIfStatement
p6094
(dp6095
g1188
(idelphi
DelphiRelOp
p6096
(dp6097
g1191
(i__main__
DelphiIdentAccess
p6098
(dp6099
g14
S'domain'
p6100
sg16
(lp6101
(idelphi
DelphiFieldEndAccess
p6102
(dp6103
g997
S'plantManager'
p6104
sba(idelphi
DelphiFieldEndAccess
p6105
(dp6106
g997
S'privatePlantClipboard'
p6107
sba(idelphi
DelphiFieldEndAccess
p6108
(dp6109
g997
S'count'
p6110
sbasbsg1196
(idelphi
DelphiIntegerValue
p6111
(dp6112
g37
S'0'
sbsg1199
g2069
sbsg1200
Nsg1201
(i__main__
DelphiExitStatement
p6113
(dp6114
g1204
g6073
sbsba(i__main__
DelphiAssignStatement
p6115
(dp6116
g989
(i__main__
DelphiIdentAccess
p6117
(dp6118
g14
S'PdPlant'
p6119
sg16
(lp6120
(idelphi
DelphiFieldEndAccess
p6121
(dp6122
g997
S'create'
p6123
sbasbsg990
(i__main__
DelphiIdentAccess
p6124
(dp6125
g14
S'newPlant'
p6126
sg16
(lp6127
sbsba(idelphi
DelphiTryFinallyStatement
p6128
(dp6129
g1262
(lp6130
(i__main__
DelphiAssignStatement
p6131
(dp6132
g989
Nsg990
(i__main__
DelphiIdentAccess
p6133
(dp6134
g14
S'domain'
p6135
sg16
(lp6136
(idelphi
DelphiFieldEndAccess
p6137
(dp6138
g997
S'plantManager'
p6139
sba(idelphi
DelphiFieldEndAccess
p6140
(dp6141
g997
S'pasteFirstPlantFromPrivatePlantClipboardToPlant'
p6142
sba(idelphi
DelphiFunctionEndAccess
p6143
(dp6144
g1001
(lp6145
(i__main__
DelphiIdentAccess
p6146
(dp6147
g14
S'newPlant'
p6148
sg16
(lp6149
sbasbasbsba(i__main__
DelphiAssignStatement
p6150
(dp6151
g989
(i__main__
DelphiIdentAccess
p6152
(dp6153
g14
S'PdMakeTimeSeriesCommand'
p6154
sg16
(lp6155
(idelphi
DelphiFieldEndAccess
p6156
(dp6157
g997
S'createWithNewPlant'
p6158
sba(idelphi
DelphiFunctionEndAccess
p6159
(dp6160
g1001
(lp6161
(i__main__
DelphiIdentAccess
p6162
(dp6163
g14
S'newPlant'
p6164
sg16
(lp6165
sbasbasbsg990
(i__main__
DelphiIdentAccess
p6166
(dp6167
g14
S'newCommand'
p6168
sg16
(lp6169
sbsba(i__main__
DelphiAssignStatement
p6170
(dp6171
g989
(i__main__
DelphiIdentAccess
p6172
(dp6173
g14
S'true'
p6174
sg16
(lp6175
sbsg990
(idelphi
DelphiNestedExpressionListAccess
p6176
(dp6177
g16
(lp6178
(idelphi
DelphiFieldEndAccess
p6179
(dp6180
g997
S'isPaste'
p6181
sbasg1001
(lp6182
(idelphi
DelphiMulOp
p6183
(dp6184
g1326
(i__main__
DelphiIdentAccess
p6185
(dp6186
g14
S'PdMakeTimeSeriesCommand'
p6187
sg16
(lp6188
sbsg1337
S'as'
p6189
sg1338
(i__main__
DelphiIdentAccess
p6190
(dp6191
g14
S'newCommand'
p6192
sg16
(lp6193
sbsbasbsba(i__main__
DelphiAssignStatement
p6194
(dp6195
g989
Nsg990
(i__main__
DelphiIdentAccess
p6196
(dp6197
g14
S'MainForm'
p6198
sg16
(lp6199
(idelphi
DelphiFieldEndAccess
p6200
(dp6201
g997
S'doCommand'
p6202
sba(idelphi
DelphiFunctionEndAccess
p6203
(dp6204
g1001
(lp6205
(i__main__
DelphiIdentAccess
p6206
(dp6207
g14
S'newCommand'
p6208
sg16
(lp6209
sbasbasbsbasg1422
(lp6210
(i__main__
DelphiAssignStatement
p6211
(dp6212
g989
Nsg990
(i__main__
DelphiIdentAccess
p6213
(dp6214
g14
S'newPlant'
p6215
sg16
(lp6216
(idelphi
DelphiFieldEndAccess
p6217
(dp6218
g997
S'free'
p6219
sbasbsg209
(lp6220
S'command makes copies from plant, but we must free it'
p6221
asbasbasbsg1005
(lp6222
(i__main__
DelphiVarSection
p6223
(dp6224
g42
I0
sg1448
(lp6225
(idelphi
DelphiVarDecl
p6226
(dp6227
g11
Nsg1452
(lp6228
S'newPlant'
p6229
asg19
(i__main__
DelphiNamedType
p6230
(dp6231
g22
S'PdPlant'
p6232
sg158
g1
sg159
Nsbsba(idelphi
DelphiVarDecl
p6233
(dp6234
g11
Nsg1452
(lp6235
S'newCommand'
p6236
asg19
(i__main__
DelphiNamedType
p6237
(dp6238
g22
S'PdCommand'
p6239
sg158
g1
sg159
NsbsbasbasbsbsS'updateforchangetoplants'
p6240
(i__main__
DelphiMethodImplementation
p6241
(dp6242
g958
g674
sg139
g676
sg147
(lp6243
(i__main__
DelphiFormalParameter
p6244
(dp6245
g151
Nsg152
(lp6246
S'recalcScale'
p6247
asg19
(i__main__
DelphiPrimitiveType
p6248
(dp6249
g22
g208
sbsg160
Nsbasg967
(lp6250
sg969
(lp6251
sg971
(lp6252
g973
ag6247
asg974
(dp6253
g6247
g6248
ssg161
S'TTimeSeriesForm'
p6254
sg162
Nsg977
(lp6255
sg163
I0
sg164
g165
sg979
(i__main__
DelphiBlock
p6256
(dp6257
g982
(idelphi
DelphiCompoundStatement
p6258
(dp6259
g985
(lp6260
(i__main__
DelphiAssignStatement
p6261
(dp6262
g989
(idelphi
DelphiNilValue
p6263
(dp6264
bsg990
(i__main__
DelphiIdentAccess
p6265
(dp6266
g14
S'self'
p6267
sg16
(lp6268
(idelphi
DelphiFieldEndAccess
p6269
(dp6270
g997
S'selectedPlant'
p6271
sbasbsba(idelphi
DelphiIfStatement
p6272
(dp6273
g1188
(idelphi
DelphiRelOp
p6274
(dp6275
g1191
(i__main__
DelphiIdentAccess
p6276
(dp6277
g14
S'plants'
p6278
sg16
(lp6279
(idelphi
DelphiFieldEndAccess
p6280
(dp6281
g997
S'count'
p6282
sbasbsg1196
(idelphi
DelphiIntegerValue
p6283
(dp6284
g37
S'0'
sbsg1199
g2069
sbsg1200
Nsg1201
(i__main__
DelphiAssignStatement
p6285
(dp6286
g989
(idelphi
DelphiNilValue
p6287
(dp6288
bsg990
(i__main__
DelphiIdentAccess
p6289
(dp6290
g14
S'parentPlant'
p6291
sg16
(lp6292
sbsbsba(i__main__
DelphiAssignStatement
p6293
(dp6294
g989
Nsg990
(i__main__
DelphiIdentAccess
p6295
(dp6296
g14
S'self'
p6297
sg16
(lp6298
(idelphi
DelphiFieldEndAccess
p6299
(dp6300
g997
S'updateMenusForChangeToSelectedPlant'
p6301
sbasbsba(idelphi
DelphiIfStatement
p6302
(dp6303
g1188
(idelphi
DelphiNot
p6304
(dp6305
g1209
(i__main__
DelphiIdentAccess
p6306
(dp6307
g14
S'self'
p6308
sg16
(lp6309
(idelphi
DelphiFieldEndAccess
p6310
(dp6311
g997
S'visible'
p6312
sbasbsbsg1200
Nsg1201
(i__main__
DelphiAssignStatement
p6313
(dp6314
g989
Nsg990
(i__main__
DelphiIdentAccess
p6315
(dp6316
g14
S'self'
p6317
sg16
(lp6318
(idelphi
DelphiFieldEndAccess
p6319
(dp6320
g997
S'show'
p6321
sbasbsbsba(i__main__
DelphiAssignStatement
p6322
(dp6323
g989
Nsg990
(i__main__
DelphiIdentAccess
p6324
(dp6325
g14
S'self'
p6326
sg16
(lp6327
(idelphi
DelphiFieldEndAccess
p6328
(dp6329
g997
S'bringToFront'
p6330
sbasbsba(idelphi
DelphiIfStatement
p6331
(dp6332
g1188
(idelphi
DelphiRelOp
p6333
(dp6334
g1191
(i__main__
DelphiIdentAccess
p6335
(dp6336
g14
S'self'
p6337
sg16
(lp6338
(idelphi
DelphiFieldEndAccess
p6339
(dp6340
g997
S'windowState'
p6341
sbasbsg1196
(i__main__
DelphiIdentAccess
p6342
(dp6343
g14
S'wsMinimized'
p6344
sg16
(lp6345
sbsg1199
S'='
sbsg1200
Nsg1201
(i__main__
DelphiAssignStatement
p6346
(dp6347
g989
(i__main__
DelphiIdentAccess
p6348
(dp6349
g14
S'wsNormal'
p6350
sg16
(lp6351
sbsg990
(i__main__
DelphiIdentAccess
p6352
(dp6353
g14
S'self'
p6354
sg16
(lp6355
(idelphi
DelphiFieldEndAccess
p6356
(dp6357
g997
S'windowState'
p6358
sbasbsbsba(i__main__
DelphiAssignStatement
p6359
(dp6360
g989
Nsg990
(i__main__
DelphiIdentAccess
p6361
(dp6362
g14
S'self'
p6363
sg16
(lp6364
(idelphi
DelphiFieldEndAccess
p6365
(dp6366
g997
S'redrawPlants'
p6367
sbasbsbasbsg1005
(lp6368
sbsbsS'timeseriesmenuoptionsfastdrawclick'
p6369
(i__main__
DelphiMethodImplementation
p6370
(dp6371
g958
g431
sg139
g433
sg147
(lp6372
(i__main__
DelphiFormalParameter
p6373
(dp6374
g151
Nsg152
(lp6375
S'Sender'
p6376
asg19
(i__main__
DelphiNamedType
p6377
(dp6378
g22
S'TObject'
p6379
sg158
g1
sg159
Nsbsg160
Nsbasg967
(lp6380
sg969
(lp6381
sg971
(lp6382
g973
ag6376
asg974
(dp6383
g6376
g6377
ssg161
S'TTimeSeriesForm'
p6384
sg162
Nsg977
(lp6385
sg163
I0
sg164
g165
sg979
(i__main__
DelphiBlock
p6386
(dp6387
g982
(idelphi
DelphiCompoundStatement
p6388
(dp6389
g985
(lp6390
(i__main__
DelphiAssignStatement
p6391
(dp6392
g989
Nsg990
(i__main__
DelphiIdentAccess
p6393
(dp6394
g14
S'MainForm'
p6395
sg16
(lp6396
(idelphi
DelphiFieldEndAccess
p6397
(dp6398
g997
S'MenuOptionsFastDrawClick'
p6399
sba(idelphi
DelphiFunctionEndAccess
p6400
(dp6401
g1001
(lp6402
(i__main__
DelphiIdentAccess
p6403
(dp6404
g14
S'MainForm'
p6405
sg16
(lp6406
sbasbasbsbasbsg1005
(lp6407
sbsbsS'timeseriespopupmenubreedclick'
p6408
(i__main__
DelphiMethodImplementation
p6409
(dp6410
g958
g685
sg139
g687
sg147
(lp6411
(i__main__
DelphiFormalParameter
p6412
(dp6413
g151
Nsg152
(lp6414
S'Sender'
p6415
asg19
(i__main__
DelphiNamedType
p6416
(dp6417
g22
S'TObject'
p6418
sg158
g1
sg159
Nsbsg160
Nsbasg967
(lp6419
sg969
(lp6420
sg971
(lp6421
g973
ag6415
asg974
(dp6422
g6415
g6416
ssg161
S'TTimeSeriesForm'
p6423
sg162
Nsg977
(lp6424
sg163
I0
sg164
g165
sg979
(i__main__
DelphiBlock
p6425
(dp6426
g982
(idelphi
DelphiCompoundStatement
p6427
(dp6428
g985
(lp6429
(i__main__
DelphiAssignStatement
p6430
(dp6431
g989
Nsg990
(i__main__
DelphiIdentAccess
p6432
(dp6433
g14
S'self'
p6434
sg16
(lp6435
(idelphi
DelphiFieldEndAccess
p6436
(dp6437
g997
S'TimeSeriesMenuBreedClick'
p6438
sba(idelphi
DelphiFunctionEndAccess
p6439
(dp6440
g1001
(lp6441
(i__main__
DelphiIdentAccess
p6442
(dp6443
g14
S'self'
p6444
sg16
(lp6445
sbasbasbsbasbsg1005
(lp6446
sbsbsS'timeseriespopupmenucopyclick'
p6447
(i__main__
DelphiMethodImplementation
p6448
(dp6449
g958
g239
sg139
g241
sg147
(lp6450
(i__main__
DelphiFormalParameter
p6451
(dp6452
g151
Nsg152
(lp6453
S'Sender'
p6454
asg19
(i__main__
DelphiNamedType
p6455
(dp6456
g22
S'TObject'
p6457
sg158
g1
sg159
Nsbsg160
Nsbasg967
(lp6458
sg969
(lp6459
sg971
(lp6460
g973
ag6454
asg974
(dp6461
g6454
g6455
ssg161
S'TTimeSeriesForm'
p6462
sg162
Nsg977
(lp6463
sg163
I0
sg164
g165
sg979
(i__main__
DelphiBlock
p6464
(dp6465
g982
(idelphi
DelphiCompoundStatement
p6466
(dp6467
g985
(lp6468
(i__main__
DelphiAssignStatement
p6469
(dp6470
g989
Nsg990
(i__main__
DelphiIdentAccess
p6471
(dp6472
g14
S'self'
p6473
sg16
(lp6474
(idelphi
DelphiFieldEndAccess
p6475
(dp6476
g997
S'TimeSeriesMenuCopyClick'
p6477
sba(idelphi
DelphiFunctionEndAccess
p6478
(dp6479
g1001
(lp6480
(i__main__
DelphiIdentAccess
p6481
(dp6482
g14
S'self'
p6483
sg16
(lp6484
sbasbasbsbasbsg1005
(lp6485
sbsbsS'gridenddrag'
p6486
(i__main__
DelphiMethodImplementation
p6487
(dp6488
g958
g251
sg139
g253
sg147
(lp6489
(i__main__
DelphiFormalParameter
p6490
(dp6491
g151
Nsg152
(lp6492
S'Sender'
p6493
aS'Target'
p6494
asg19
(i__main__
DelphiNamedType
p6495
(dp6496
g22
S'TObject'
p6497
sg158
g1
sg159
Nsbsg160
Nsba(i__main__
DelphiFormalParameter
p6498
(dp6499
g151
Nsg152
(lp6500
S'X'
aS'Y'
asg19
(i__main__
DelphiPrimitiveType
p6501
(dp6502
g22
g268
sbsg160
Nsbasg967
(lp6503
sg969
(lp6504
sg971
(lp6505
g973
ag6493
ag6494
aS'X'
aS'Y'
asg974
(dp6506
S'Y'
g6501
sS'X'
g6501
sg6493
g6495
sg6494
g6495
ssg161
S'TTimeSeriesForm'
p6507
sg162
Nsg977
(lp6508
sg163
I0
sg164
g165
sg979
(i__main__
DelphiBlock
p6509
(dp6510
g982
(idelphi
DelphiCompoundStatement
p6511
(dp6512
g985
(lp6513
(idelphi
DelphiIfStatement
p6514
(dp6515
g1188
(i__main__
DelphiIdentAccess
p6516
(dp6517
g14
S'application'
p6518
sg16
(lp6519
(idelphi
DelphiFieldEndAccess
p6520
(dp6521
g997
S'terminated'
p6522
sbasbsg1200
Nsg1201
(i__main__
DelphiExitStatement
p6523
(dp6524
g1204
g6487
sbsba(idelphi
DelphiIfStatement
p6525
(dp6526
g1188
(idelphi
DelphiRelOp
p6527
(dp6528
g1191
(i__main__
DelphiIdentAccess
p6529
(dp6530
g14
S'target'
p6531
sg16
(lp6532
sbsg1196
(idelphi
DelphiNilValue
p6533
(dp6534
bsg1199
S'='
sbsg1200
Nsg1201
(i__main__
DelphiExitStatement
p6535
(dp6536
g1204
g6487
sbsba(i__main__
DelphiAssignStatement
p6537
(dp6538
g989
(i__main__
DelphiIdentAccess
p6539
(dp6540
g14
S'self'
p6541
sg16
(lp6542
(idelphi
DelphiFieldEndAccess
p6543
(dp6544
g997
S'plantAtMouse'
p6545
sba(idelphi
DelphiFunctionEndAccess
p6546
(dp6547
g1001
(lp6548
(i__main__
DelphiIdentAccess
p6549
(dp6550
g14
S'dragPlantStartPoint'
p6551
sg16
(lp6552
(idelphi
DelphiFieldEndAccess
p6553
(dp6554
g997
S'x'
sbasba(i__main__
DelphiIdentAccess
p6555
(dp6556
g14
S'dragPlantStartPoint'
p6557
sg16
(lp6558
(idelphi
DelphiFieldEndAccess
p6559
(dp6560
g997
S'y'
sbasbasbasbsg990
(i__main__
DelphiIdentAccess
p6561
(dp6562
g14
S'plant'
p6563
sg16
(lp6564
sbsg209
(lp6565
S' get plant being dragged '
p6566
asba(idelphi
DelphiIfStatement
p6567
(dp6568
g1188
(idelphi
DelphiRelOp
p6569
(dp6570
g1191
(i__main__
DelphiIdentAccess
p6571
(dp6572
g14
S'plant'
p6573
sg16
(lp6574
sbsg1196
(idelphi
DelphiNilValue
p6575
(dp6576
bsg1199
S'='
sbsg1200
Nsg1201
(i__main__
DelphiExitStatement
p6577
(dp6578
g1204
g6487
sbsba(idelphi
DelphiIfStatement
p6579
(dp6580
g1188
(idelphi
DelphiRelOp
p6581
(dp6582
g1191
(i__main__
DelphiIdentAccess
p6583
(dp6584
g14
S'target'
p6585
sg16
(lp6586
sbsg1196
(i__main__
DelphiIdentAccess
p6587
(dp6588
g14
S'BreederForm'
p6589
sg16
(lp6590
(idelphi
DelphiFieldEndAccess
p6591
(dp6592
g997
S'plantsDrawGrid'
p6593
sbasbsg1199
S'='
sbsg1200
(idelphi
DelphiIfStatement
p6594
(dp6595
g1188
(idelphi
DelphiAddOp
p6596
(dp6597
g1270
g2198
sg1271
(idelphi
DelphiNestedExpressionListAccess
p6598
(dp6599
g16
(lp6600
sg1001
(lp6601
(idelphi
DelphiRelOp
p6602
(dp6603
g1191
(i__main__
DelphiIdentAccess
p6604
(dp6605
g14
S'target'
p6606
sg16
(lp6607
sbsg1196
(i__main__
DelphiIdentAccess
p6608
(dp6609
g14
S'MainForm'
p6610
sg16
(lp6611
(idelphi
DelphiFieldEndAccess
p6612
(dp6613
g997
S'plantListDrawGrid'
p6614
sbasbsg1199
S'='
sbasbsg1274
(idelphi
DelphiNestedExpressionListAccess
p6615
(dp6616
g16
(lp6617
sg1001
(lp6618
(idelphi
DelphiRelOp
p6619
(dp6620
g1191
(i__main__
DelphiIdentAccess
p6621
(dp6622
g14
S'target'
p6623
sg16
(lp6624
sbsg1196
(i__main__
DelphiIdentAccess
p6625
(dp6626
g14
S'MainForm'
p6627
sg16
(lp6628
(idelphi
DelphiFieldEndAccess
p6629
(dp6630
g997
S'drawingPaintBox'
p6631
sbasbsg1199
S'='
sbasbsbsg1200
Nsg1201
(idelphi
DelphiCompoundStatement
p6632
(dp6633
g985
(lp6634
(i__main__
DelphiAssignStatement
p6635
(dp6636
g989
(i__main__
DelphiIdentAccess
p6637
(dp6638
g14
S'PdPlant'
p6639
sg16
(lp6640
(idelphi
DelphiFieldEndAccess
p6641
(dp6642
g997
S'create'
p6643
sbasbsg990
(i__main__
DelphiIdentAccess
p6644
(dp6645
g14
S'newPlant'
p6646
sg16
(lp6647
sbsg209
(lp6648
S' make paste command - wants list of plants '
p6649
asba(i__main__
DelphiAssignStatement
p6650
(dp6651
g989
Nsg990
(i__main__
DelphiIdentAccess
p6652
(dp6653
g14
S'plant'
p6654
sg16
(lp6655
(idelphi
DelphiFieldEndAccess
p6656
(dp6657
g997
S'copyTo'
p6658
sba(idelphi
DelphiFunctionEndAccess
p6659
(dp6660
g1001
(lp6661
(i__main__
DelphiIdentAccess
p6662
(dp6663
g14
S'newPlant'
p6664
sg16
(lp6665
sbasbasbsba(i__main__
DelphiIncOrDecStatement
p6666
(dp6667
g3748
g3749
sg3750
Nsg990
(i__main__
DelphiIdentAccess
p6668
(dp6669
g14
S'numTimeSeriesPlantsCopiedThisSession'
p6670
sg16
(lp6671
sbsba(i__main__
DelphiAssignStatement
p6672
(dp6673
g989
Nsg990
(i__main__
DelphiIdentAccess
p6674
(dp6675
g14
S'newPlant'
p6676
sg16
(lp6677
(idelphi
DelphiFieldEndAccess
p6678
(dp6679
g997
S'setName'
p6680
sba(idelphi
DelphiFunctionEndAccess
p6681
(dp6682
g1001
(lp6683
(idelphi
DelphiAddOp
p6684
(dp6685
g1270
S'+'
sg1271
(i__main__
DelphiIdentAccess
p6686
(dp6687
g14
S'intToStr'
p6688
sg16
(lp6689
(idelphi
DelphiFunctionEndAccess
p6690
(dp6691
g1001
(lp6692
(i__main__
DelphiIdentAccess
p6693
(dp6694
g14
S'numTimeSeriesPlantsCopiedThisSession'
p6695
sg16
(lp6696
sbasbasbsg1274
(idelphi
DelphiStringAccess
p6697
(dp6698
g16
(lp6699
sg37
(idelphi
DelphiStringValue
p6700
(dp6701
g37
S'Time series plant '
p6702
sbsbsbasbasbsba(idelphi
DelphiIfStatement
p6703
(dp6704
g1188
(idelphi
DelphiRelOp
p6705
(dp6706
g1191
(i__main__
DelphiIdentAccess
p6707
(dp6708
g14
S'target'
p6709
sg16
(lp6710
sbsg1196
(i__main__
DelphiIdentAccess
p6711
(dp6712
g14
S'MainForm'
p6713
sg16
(lp6714
(idelphi
DelphiFieldEndAccess
p6715
(dp6716
g997
S'drawingPaintBox'
p6717
sbasbsg1199
S'='
sbsg1200
(i__main__
DelphiAssignStatement
p6718
(dp6719
g989
Nsg990
(i__main__
DelphiIdentAccess
p6720
(dp6721
g14
S'newPlant'
p6722
sg16
(lp6723
(idelphi
DelphiFieldEndAccess
p6724
(dp6725
g997
S'moveTo'
p6726
sba(idelphi
DelphiFunctionEndAccess
p6727
(dp6728
g1001
(lp6729
(i__main__
DelphiIdentAccess
p6730
(dp6731
g14
S'MainForm'
p6732
sg16
(lp6733
(idelphi
DelphiFieldEndAccess
p6734
(dp6735
g997
S'standardPastePosition'
p6736
sbasbasbasbsbsg1201
(i__main__
DelphiAssignStatement
p6737
(dp6738
g989
Nsg990
(i__main__
DelphiIdentAccess
p6739
(dp6740
g14
S'newPlant'
p6741
sg16
(lp6742
(idelphi
DelphiFieldEndAccess
p6743
(dp6744
g997
S'moveTo'
p6745
sba(idelphi
DelphiFunctionEndAccess
p6746
(dp6747
g1001
(lp6748
(i__main__
DelphiIdentAccess
p6749
(dp6750
g14
S'Point'
p6751
sg16
(lp6752
(idelphi
DelphiFunctionEndAccess
p6753
(dp6754
g1001
(lp6755
(i__main__
DelphiIdentAccess
p6756
(dp6757
g14
S'x'
sg16
(lp6758
sba(i__main__
DelphiIdentAccess
p6759
(dp6760
g14
S'y'
sg16
(lp6761
sbasbasbasbasbsbsba(idelphi
DelphiIfStatement
p6762
(dp6763
g1188
(idelphi
DelphiNot
p6764
(dp6765
g1209
(i__main__
DelphiIdentAccess
p6766
(dp6767
g14
S'domain'
p6768
sg16
(lp6769
(idelphi
DelphiFieldEndAccess
p6770
(dp6771
g997
S'viewPlantsInMainWindowOnePlantAtATime'
p6772
sbasbsbsg1200
Nsg1201
(i__main__
DelphiAssignStatement
p6773
(dp6774
g989
Nsg990
(i__main__
DelphiIdentAccess
p6775
(dp6776
g14
S'newPlant'
p6777
sg16
(lp6778
(idelphi
DelphiFieldEndAccess
p6779
(dp6780
g997
S'calculateDrawingScaleToLookTheSameWithDomainScale'
p6781
sbasbsg209
(lp6782
S' v2.1\r'
p6783
asbsba(i__main__
DelphiAssignStatement
p6784
(dp6785
g989
Nsg990
(i__main__
DelphiIdentAccess
p6786
(dp6787
g14
S'newPlant'
p6788
sg16
(lp6789
(idelphi
DelphiFieldEndAccess
p6790
(dp6791
g997
S'shrinkPreviewCache'
p6792
sbasbsg209
(lp6793
S"to save memory - don't need it in main window"
p6794
asba(i__main__
DelphiAssignStatement
p6795
(dp6796
g989
(i__main__
DelphiIdentAccess
p6797
(dp6798
g14
S'TList'
p6799
sg16
(lp6800
(idelphi
DelphiFieldEndAccess
p6801
(dp6802
g997
S'create'
p6803
sbasbsg990
(i__main__
DelphiIdentAccess
p6804
(dp6805
g14
S'newPlants'
p6806
sg16
(lp6807
sbsba(i__main__
DelphiAssignStatement
p6808
(dp6809
g989
Nsg990
(i__main__
DelphiIdentAccess
p6810
(dp6811
g14
S'newPlants'
p6812
sg16
(lp6813
(idelphi
DelphiFieldEndAccess
p6814
(dp6815
g997
S'add'
p6816
sba(idelphi
DelphiFunctionEndAccess
p6817
(dp6818
g1001
(lp6819
(i__main__
DelphiIdentAccess
p6820
(dp6821
g14
S'newPlant'
p6822
sg16
(lp6823
sbasbasbsba(i__main__
DelphiAssignStatement
p6824
(dp6825
g989
(i__main__
DelphiIdentAccess
p6826
(dp6827
g14
S'PdPasteCommand'
p6828
sg16
(lp6829
(idelphi
DelphiFieldEndAccess
p6830
(dp6831
g997
S'createWithListOfPlantsAndOldSelectedList'
p6832
sba(idelphi
DelphiFunctionEndAccess
p6833
(dp6834
g1001
(lp6835
(i__main__
DelphiIdentAccess
p6836
(dp6837
g14
S'newPlants'
p6838
sg16
(lp6839
sba(i__main__
DelphiIdentAccess
p6840
(dp6841
g14
S'MainForm'
p6842
sg16
(lp6843
(idelphi
DelphiFieldEndAccess
p6844
(dp6845
g997
S'selectedPlants'
p6846
sbasbasbasbsg990
(i__main__
DelphiIdentAccess
p6847
(dp6848
g14
S'newCommand'
p6849
sg16
(lp6850
sbsba(i__main__
DelphiAssignStatement
p6851
(dp6852
g989
(i__main__
DelphiIdentAccess
p6853
(dp6854
g14
S'true'
p6855
sg16
(lp6856
sbsg990
(i__main__
DelphiIdentAccess
p6857
(dp6858
g14
S'PdPasteCommand'
p6859
sg16
(lp6860
(idelphi
DelphiFunctionEndAccess
p6861
(dp6862
g1001
(lp6863
(i__main__
DelphiIdentAccess
p6864
(dp6865
g14
S'newCommand'
p6866
sg16
(lp6867
sbasba(idelphi
DelphiFieldEndAccess
p6868
(dp6869
g997
S'useSpecialPastePosition'
p6870
sbasbsba(idelphi
DelphiTryFinallyStatement
p6871
(dp6872
g1262
(lp6873
(i__main__
DelphiAssignStatement
p6874
(dp6875
g989
Nsg990
(i__main__
DelphiIdentAccess
p6876
(dp6877
g14
S'cursor_startWait'
p6878
sg16
(lp6879
sbsg209
(lp6880
S'command will free plant if paste is undone'
p6881
asba(i__main__
DelphiAssignStatement
p6882
(dp6883
g989
Nsg990
(i__main__
DelphiIdentAccess
p6884
(dp6885
g14
S'MainForm'
p6886
sg16
(lp6887
(idelphi
DelphiFieldEndAccess
p6888
(dp6889
g997
S'doCommand'
p6890
sba(idelphi
DelphiFunctionEndAccess
p6891
(dp6892
g1001
(lp6893
(i__main__
DelphiIdentAccess
p6894
(dp6895
g14
S'newCommand'
p6896
sg16
(lp6897
sbasbasbsbasg1422
(lp6898
(i__main__
DelphiAssignStatement
p6899
(dp6900
g989
Nsg990
(i__main__
DelphiIdentAccess
p6901
(dp6902
g14
S'newPlants'
p6903
sg16
(lp6904
(idelphi
DelphiFieldEndAccess
p6905
(dp6906
g997
S'free'
p6907
sbasbsg209
(lp6908
S'command has another list, so we must free this one'
p6909
asba(i__main__
DelphiAssignStatement
p6910
(dp6911
g989
Nsg990
(i__main__
DelphiIdentAccess
p6912
(dp6913
g14
S'cursor_stopWait'
p6914
sg16
(lp6915
sbsbasbasbsbsg1201
(idelphi
DelphiCompoundStatement
p6916
(dp6917
g985
(lp6918
(i__main__
DelphiAssignStatement
p6919
(dp6920
g989
Nsg990
(i__main__
DelphiIdentAccess
p6921
(dp6922
g14
S'BreederForm'
p6923
sg16
(lp6924
(idelphi
DelphiFieldEndAccess
p6925
(dp6926
g997
S'copyPlantToPoint'
p6927
sba(idelphi
DelphiFunctionEndAccess
p6928
(dp6929
g1001
(lp6930
(i__main__
DelphiIdentAccess
p6931
(dp6932
g14
S'plant'
p6933
sg16
(lp6934
sba(i__main__
DelphiIdentAccess
p6935
(dp6936
g14
S'x'
sg16
(lp6937
sba(i__main__
DelphiIdentAccess
p6938
(dp6939
g14
S'y'
sg16
(lp6940
sbasbasbsbasbsbasbsg1005
(lp6941
(i__main__
DelphiVarSection
p6942
(dp6943
g42
I0
sg1448
(lp6944
(idelphi
DelphiVarDecl
p6945
(dp6946
g11
Nsg1452
(lp6947
S'plant'
p6948
asg19
(i__main__
DelphiNamedType
p6949
(dp6950
g22
S'PdPlant'
p6951
sg158
g1
sg159
Nsbsba(idelphi
DelphiVarDecl
p6952
(dp6953
g11
Nsg1452
(lp6954
S'newCommand'
p6955
asg19
(i__main__
DelphiNamedType
p6956
(dp6957
g22
S'PdCommand'
p6958
sg158
g1
sg159
Nsbsba(idelphi
DelphiVarDecl
p6959
(dp6960
g11
Nsg1452
(lp6961
S'newPlants'
p6962
asg19
(i__main__
DelphiNamedType
p6963
(dp6964
g22
S'TList'
p6965
sg158
g1
sg159
Nsbsba(idelphi
DelphiVarDecl
p6966
(dp6967
g11
Nsg1452
(lp6968
S'newPlant'
p6969
asg19
(i__main__
DelphiNamedType
p6970
(dp6971
g22
S'PdPlant'
p6972
sg158
g1
sg159
NsbsbasbasbsbsS'updatefornewnumberofstages'
p6973
(i__main__
DelphiMethodImplementation
p6974
(dp6975
g958
g697
sg139
g699
sg147
(lp6976
sg967
(lp6977
sg969
(lp6978
sg971
(lp6979
g973
asg974
(dp6980
sg161
S'TTimeSeriesForm'
p6981
sg162
Nsg977
(lp6982
sg163
I0
sg164
g165
sg979
(i__main__
DelphiBlock
p6983
(dp6984
g982
(idelphi
DelphiCompoundStatement
p6985
(dp6986
g985
(lp6987
(i__main__
DelphiAssignStatement
p6988
(dp6989
g989
(idelphi
DelphiNilValue
p6990
(dp6991
bsg990
(i__main__
DelphiIdentAccess
p6992
(dp6993
g14
S'keepPlant'
p6994
sg16
(lp6995
sbsba(idelphi
DelphiTryFinallyStatement
p6996
(dp6997
g1262
(lp6998
(idelphi
DelphiIfStatement
p6999
(dp7000
g1188
(idelphi
DelphiRelOp
p7001
(dp7002
g1191
(i__main__
DelphiIdentAccess
p7003
(dp7004
g14
S'plants'
p7005
sg16
(lp7006
(idelphi
DelphiFieldEndAccess
p7007
(dp7008
g997
S'count'
p7009
sbasbsg1196
(idelphi
DelphiIntegerValue
p7010
(dp7011
g37
S'0'
sbsg1199
S'>'
sbsg1200
Nsg1201
(idelphi
DelphiCompoundStatement
p7012
(dp7013
g985
(lp7014
(i__main__
DelphiAssignStatement
p7015
(dp7016
g989
(i__main__
DelphiIdentAccess
p7017
(dp7018
g14
S'PdPlant'
p7019
sg16
(lp7020
(idelphi
DelphiFunctionEndAccess
p7021
(dp7022
g1001
(lp7023
(i__main__
DelphiIdentAccess
p7024
(dp7025
g14
S'plants'
p7026
sg16
(lp7027
(idelphi
DelphiFieldEndAccess
p7028
(dp7029
g997
S'items'
p7030
sba(idelphi
DelphiArrayEndAccess
p7031
(dp7032
g1001
(lp7033
(idelphi
DelphiIntegerValue
p7034
(dp7035
g37
S'0'
sbasbasbasbasbsg990
(i__main__
DelphiIdentAccess
p7036
(dp7037
g14
S'firstPlant'
p7038
sg16
(lp7039
sbsba(idelphi
DelphiIfStatement
p7040
(dp7041
g1188
(idelphi
DelphiRelOp
p7042
(dp7043
g1191
(i__main__
DelphiIdentAccess
p7044
(dp7045
g14
S'firstPlant'
p7046
sg16
(lp7047
sbsg1196
(idelphi
DelphiNilValue
p7048
(dp7049
bsg1199
g1506
sbsg1200
Nsg1201
(idelphi
DelphiCompoundStatement
p7050
(dp7051
g985
(lp7052
(i__main__
DelphiAssignStatement
p7053
(dp7054
g989
(i__main__
DelphiIdentAccess
p7055
(dp7056
g14
S'PdPlant'
p7057
sg16
(lp7058
(idelphi
DelphiFieldEndAccess
p7059
(dp7060
g997
S'create'
p7061
sbasbsg990
(i__main__
DelphiIdentAccess
p7062
(dp7063
g14
S'keepPlant'
p7064
sg16
(lp7065
sbsba(i__main__
DelphiAssignStatement
p7066
(dp7067
g989
Nsg990
(i__main__
DelphiIdentAccess
p7068
(dp7069
g14
S'firstPlant'
p7070
sg16
(lp7071
(idelphi
DelphiFieldEndAccess
p7072
(dp7073
g997
S'copyTo'
p7074
sba(idelphi
DelphiFunctionEndAccess
p7075
(dp7076
g1001
(lp7077
(i__main__
DelphiIdentAccess
p7078
(dp7079
g14
S'keepPlant'
p7080
sg16
(lp7081
sbasbasbsba(i__main__
DelphiAssignStatement
p7082
(dp7083
g989
Nsg990
(i__main__
DelphiIdentAccess
p7084
(dp7085
g14
S'plants'
p7086
sg16
(lp7087
(idelphi
DelphiFieldEndAccess
p7088
(dp7089
g997
S'clear'
p7090
sbasbsbasbsbasbsba(idelphi
DelphiIfStatement
p7091
(dp7092
g1188
(idelphi
DelphiRelOp
p7093
(dp7094
g1191
(i__main__
DelphiIdentAccess
p7095
(dp7096
g14
S'keepPlant'
p7097
sg16
(lp7098
sbsg1196
(idelphi
DelphiNilValue
p7099
(dp7100
bsg1199
g1506
sbsg1200
Nsg1201
(i__main__
DelphiAssignStatement
p7101
(dp7102
g989
Nsg990
(i__main__
DelphiIdentAccess
p7103
(dp7104
g14
S'self'
p7105
sg16
(lp7106
(idelphi
DelphiFieldEndAccess
p7107
(dp7108
g997
S'initializeWithPlant'
p7109
sba(idelphi
DelphiFunctionEndAccess
p7110
(dp7111
g1001
(lp7112
(i__main__
DelphiIdentAccess
p7113
(dp7114
g14
S'keepPlant'
p7115
sg16
(lp7116
sba(i__main__
DelphiIdentAccess
p7117
(dp7118
g14
S'kDontDrawYet'
p7119
sg16
(lp7120
sbasbasbsbsbasg1422
(lp7121
(i__main__
DelphiAssignStatement
p7122
(dp7123
g989
Nsg990
(i__main__
DelphiIdentAccess
p7124
(dp7125
g14
S'keepPlant'
p7126
sg16
(lp7127
(idelphi
DelphiFieldEndAccess
p7128
(dp7129
g997
S'free'
p7130
sbasbsbasba(i__main__
DelphiAssignStatement
p7131
(dp7132
g989
Nsg990
(i__main__
DelphiIdentAccess
p7133
(dp7134
g14
S'self'
p7135
sg16
(lp7136
(idelphi
DelphiFieldEndAccess
p7137
(dp7138
g997
S'redrawPlants'
p7139
sbasbsbasbsg1005
(lp7140
(i__main__
DelphiVarSection
p7141
(dp7142
g42
I0
sg1448
(lp7143
(idelphi
DelphiVarDecl
p7144
(dp7145
g11
Nsg1452
(lp7146
S'i'
asg19
(i__main__
DelphiPrimitiveType
p7147
(dp7148
g22
g387
sbsba(idelphi
DelphiVarDecl
p7149
(dp7150
g11
Nsg1452
(lp7151
S'firstPlant'
p7152
aS'keepPlant'
p7153
asg19
(i__main__
DelphiNamedType
p7154
(dp7155
g22
S'PdPlant'
p7156
sg158
g1
sg159
NsbsbasbasbsbssS'propertyDeclarations'
p7157
(dp7158
sS'variableNamesInDeclaredOrder'
p7159
(lp7160
g100
ag120
ag122
ag102
ag82
ag128
ag58
ag110
ag52
ag50
ag114
ag138
ag118
ag130
ag84
ag92
ag132
ag80
ag134
ag98
ag56
ag60
ag104
ag94
ag136
ag64
ag116
ag74
ag124
ag88
ag86
ag48
ag72
ag54
ag108
ag112
ag96
ag68
ag90
ag66
ag126
ag76
ag62
ag70
ag106
ag78
asba(i__main__
DelphiVarSection
p7161
(dp7162
g42
I1
sg1448
(lp7163
(idelphi
DelphiVarDecl
p7164
(dp7165
g11
Nsg1452
(lp7166
S'TimeSeriesForm'
p7167
asg19
(i__main__
DelphiNamedType
p7168
(dp7169
g22
S'TTimeSeriesForm'
p7170
sg158
g1
sg159
Nsbsbasba(i__main__
DelphiConstSection
p7171
(dp7172
g7
(lp7173
(idelphi
DelphiConstDeclaration
p7174
(dp7175
g11
(idelphi
DelphiIntegerValue
p7176
(dp7177
g37
S'16'
p7178
sbsg14
S'kStageNumberTextHeight'
p7179
sg19
(idelphi
DelphiPrimitiveType
p7180
(dp7181
g22
g23
sbsbasg42
I1
sbasS'includedUnits'
p7182
NsS'implementationUses'
p7183
(lp7184
S'udomain'
p7185
aS'umath'
p7186
aS'usupport'
p7187
aS'ucursor'
p7188
aS'updcom'
p7189
aS'ucommand'
p7190
aS'umain'
p7191
aS'ubreedr'
p7192
aS'ubmpsupport'
p7193
asg139
S'utimeser'
p7194
sS'constSections'
p7195
(lp7196
g5
ag7171
asS'globalsInProperCase'
p7197
NsS'interfaceUses'
p7198
(lp7199
S'delphi_compatability'
p7200
aS'SysUtils'
p7201
aS'WinTypes'
p7202
aS'WinProcs'
p7203
aS'Messages'
p7204
aS'Classes'
p7205
aS'Graphics'
p7206
aS'Controls'
p7207
aS'Forms'
p7208
aS'Dialogs'
p7209
aS'Grids'
p7210
aS'updform'
p7211
aS'ucollect'
p7212
aS'uplant'
p7213
aS'Menus'
p7214
aS'ExtCtrls'
p7215
aS'StdCtrls'
p7216
aS'Buttons'
p7217
asS'finalCommentToken'
p7218
(i__main__
PassStatement
p7219
(dp7220
g1005
(lp7221
sbsS'varSections'
p7222
(lp7223
g7161
asS'globals'
p7224
NsS'originalFileName'
p7225
S'../../PlantStudioInPython/converted_source/utimeser.pas'
p7226
sS'proceduralImplementations'
p7227
(dp7228
sS'fileName'
p7229
S'/Users/pdf/Documents/workspace/PlantStudioInPython/converted_source/utimeser.pas'
p7230
sS'proceduralDeclarations'
p7231
(dp7232
sS'types'
p7233
(dp7234
S'ttimeseriesform'
p7235
g43
ssb.