(i__main__
DelphiUnit
p1
(dp2
S'sectionsInOrderDefined'
p3
(lp4
(i__main__
DelphiClass
p5
(dp6
S'variableNamesInProperCase'
p7
(dp8
S'helpbutton'
p9
S'helpButton'
p10
sS'ok'
p11
S'OK'
p12
sS'redolistlabel'
p13
S'redoListLabel'
p14
sS'redolist'
p15
S'redoList'
p16
sS'undolistlabel'
p17
S'undoListLabel'
p18
sS'undolist'
p19
S'undoList'
p20
sS'cancel'
p21
S'cancel'
p22
ssS'name'
p23
S'TUndoRedoListForm'
p24
sS'methodDeclarations'
p25
(dp26
S'helpbuttonclick'
p27
(i__main__
DelphiMethodDeclaration
p28
(dp29
g23
S'helpButtonClick'
p30
sS'formalParameters'
p31
(lp32
(i__main__
DelphiFormalParameter
p33
(dp34
S'initialValue'
p35
NsS'names'
p36
(lp37
S'Sender'
p38
asS'theType'
p39
(i__main__
DelphiNamedType
p40
(dp41
S'typeName'
p42
S'TObject'
p43
sS'unitDefinedIn'
p44
g1
sS'unitName'
p45
NsbsS'parameterVariety'
p46
NsbasS'className'
p47
g24
sS'resultType'
p48
NsS'isClassMethod'
p49
I0
sS'methodType'
p50
S'procedure'
p51
sbsS'regulatelistselections'
p52
(i__main__
DelphiMethodDeclaration
p53
(dp54
g23
S'regulateListSelections'
p55
sg31
(lp56
(i__main__
DelphiFormalParameter
p57
(dp58
g35
Nsg36
(lp59
S'Sender'
p60
asg39
(i__main__
DelphiNamedType
p61
(dp62
g42
S'TObject'
p63
sg44
g1
sg45
Nsbsg46
Nsbasg47
g24
sg48
Nsg49
I0
sg50
g51
sbsS'formresize'
p64
(i__main__
DelphiMethodDeclaration
p65
(dp66
g23
S'FormResize'
p67
sg31
(lp68
(i__main__
DelphiFormalParameter
p69
(dp70
g35
Nsg36
(lp71
S'Sender'
p72
asg39
(i__main__
DelphiNamedType
p73
(dp74
g42
S'TObject'
p75
sg44
g1
sg45
Nsbsg46
Nsbasg47
g24
sg48
Nsg49
I0
sg50
g51
sbsS'cancelclick'
p76
(i__main__
DelphiMethodDeclaration
p77
(dp78
g23
S'cancelClick'
p79
sg31
(lp80
(i__main__
DelphiFormalParameter
p81
(dp82
g35
Nsg36
(lp83
S'Sender'
p84
asg39
(i__main__
DelphiNamedType
p85
(dp86
g42
S'TObject'
p87
sg44
g1
sg45
Nsbsg46
Nsbasg47
g24
sg48
Nsg49
I0
sg50
g51
sbsS'redotoindex'
p88
(i__main__
DelphiMethodDeclaration
p89
(dp90
g23
S'redoToIndex'
p91
sg31
(lp92
sg47
g24
sg48
(i__main__
DelphiPrimitiveType
p93
(dp94
g42
S'integer'
p95
sbsg49
I0
sg50
S'function'
p96
sbsS'undotoindex'
p97
(i__main__
DelphiMethodDeclaration
p98
(dp99
g23
S'undoToIndex'
p100
sg31
(lp101
sg47
g24
sg48
(i__main__
DelphiPrimitiveType
p102
(dp103
g42
g95
sbsg49
I0
sg50
g96
sbsS'wmgetminmaxinfo'
p104
(i__main__
DelphiMethodDeclaration
p105
(dp106
g23
S'WMGetMinMaxInfo'
p107
sg31
(lp108
(i__main__
DelphiFormalParameter
p109
(dp110
g35
Nsg36
(lp111
S'MSG'
p112
asg39
(i__main__
DelphiNamedType
p113
(dp114
g42
S'Tmessage'
p115
sg44
g1
sg45
Nsbsg46
S'var'
p116
sbasg47
g24
sg48
Nsg49
I0
sg50
g51
sS'commentLinesBefore'
p117
(lp118
S' Private declarations '
p119
asbsS'formclose'
p120
(i__main__
DelphiMethodDeclaration
p121
(dp122
g23
S'FormClose'
p123
sg31
(lp124
(i__main__
DelphiFormalParameter
p125
(dp126
g35
Nsg36
(lp127
S'Sender'
p128
asg39
(i__main__
DelphiNamedType
p129
(dp130
g42
S'TObject'
p131
sg44
g1
sg45
Nsbsg46
Nsba(i__main__
DelphiFormalParameter
p132
(dp133
g35
Nsg36
(lp134
S'Action'
p135
asg39
(i__main__
DelphiNamedType
p136
(dp137
g42
S'TCloseAction'
p138
sg44
g1
sg45
Nsbsg46
g116
sbasg47
g24
sg48
Nsg49
I0
sg50
g51
sbsS'okclick'
p139
(i__main__
DelphiMethodDeclaration
p140
(dp141
g23
S'OKClick'
p142
sg31
(lp143
(i__main__
DelphiFormalParameter
p144
(dp145
g35
Nsg36
(lp146
S'Sender'
p147
asg39
(i__main__
DelphiNamedType
p148
(dp149
g42
S'TObject'
p150
sg44
g1
sg45
Nsbsg46
Nsbasg47
g24
sg48
Nsg49
I0
sg50
g51
sbsS'initializewithcommandlist'
p151
(i__main__
DelphiMethodDeclaration
p152
(dp153
g23
S'initializeWithCommandList'
p154
sg31
(lp155
(i__main__
DelphiFormalParameter
p156
(dp157
g35
Nsg36
(lp158
S'commandList'
p159
asg39
(i__main__
DelphiNamedType
p160
(dp161
g42
S'PdCommandList'
p162
sg44
g1
sg45
Nsbsg46
Nsbasg47
g24
sg48
Nsg49
I0
sg50
g51
sg117
(lp163
S' Public declarations '
p164
asbsS'formcreate'
p165
(i__main__
DelphiMethodDeclaration
p166
(dp167
g23
S'FormCreate'
p168
sg31
(lp169
(i__main__
DelphiFormalParameter
p170
(dp171
g35
Nsg36
(lp172
S'Sender'
p173
asg39
(i__main__
DelphiNamedType
p174
(dp175
g42
S'TObject'
p176
sg44
g1
sg45
Nsbsg46
Nsbasg47
g24
sg48
Nsg49
I0
sg50
g51
sbssS'superclassNamedTypes'
p177
(lp178
(i__main__
DelphiNamedType
p179
(dp180
g42
S'PdForm'
p181
sg44
g1
sg45
NsbasS'variableNames'
p182
(dp183
S'helpbutton'
p184
(i__main__
DelphiNamedType
p185
(dp186
g42
S'TSpeedButton'
p187
sg44
g1
sg45
NsbsS'ok'
p188
(i__main__
DelphiNamedType
p189
(dp190
g42
S'TButton'
p191
sg44
g1
sg45
NsbsS'redolistlabel'
p192
(i__main__
DelphiNamedType
p193
(dp194
g42
S'TLabel'
p195
sg44
g1
sg45
NsbsS'redolist'
p196
(i__main__
DelphiNamedType
p197
(dp198
g42
S'TListBox'
p199
sg44
g1
sg45
NsbsS'undolistlabel'
p200
(i__main__
DelphiNamedType
p201
(dp202
g42
S'TLabel'
p203
sg44
g1
sg45
NsbsS'undolist'
p204
(i__main__
DelphiNamedType
p205
(dp206
g42
S'TListBox'
p207
sg44
g1
sg45
NsbsS'cancel'
p208
(i__main__
DelphiNamedType
p209
(dp210
g42
S'TButton'
p211
sg44
g1
sg45
NsbssS'methodNamesInDefinedOrder'
p212
(lp213
S'formcreate'
p214
aS'initializewithcommandlist'
p215
aS'undotoindex'
p216
aS'redotoindex'
p217
aS'regulatelistselections'
p218
aS'okclick'
p219
aS'cancelclick'
p220
aS'formclose'
p221
aS'helpbuttonclick'
p222
aS'formresize'
p223
aS'wmgetminmaxinfo'
p224
asS'methodImplementations'
p225
(dp226
S'initializewithcommandlist'
p227
(i__main__
DelphiMethodImplementation
p228
(dp229
S'originalDeclaration'
p230
g152
sg23
g154
sg31
(lp231
(i__main__
DelphiFormalParameter
p232
(dp233
g35
Nsg36
(lp234
S'commandList'
p235
asg39
(i__main__
DelphiNamedType
p236
(dp237
g42
S'PdCommandList'
p238
sg44
g1
sg45
Nsbsg46
NsbasS'varParamIndexes'
p239
(lp240
sS'varParamsSkipped'
p241
(lp242
sS'argNames'
p243
(lp244
S'self'
p245
ag235
asS'argTypes'
p246
(dp247
g235
g236
ssg47
S'TUndoRedoListForm'
p248
sg48
NsS'varParamNames'
p249
(lp250
sg49
I0
sg50
g51
sS'block'
p251
(i__main__
DelphiBlock
p252
(dp253
S'compoundStatement'
p254
(idelphi
DelphiCompoundStatement
p255
(dp256
S'statements'
p257
(lp258
(i__main__
DelphiAssignStatement
p259
(dp260
S'newValueExpression'
p261
(i__main__
DelphiIdentAccess
p262
(dp263
S'ident'
p264
S'TStringList'
p265
sS'endAccessList'
p266
(lp267
(idelphi
DelphiFieldEndAccess
p268
(dp269
S'field'
p270
S'create'
p271
sbasbsS'destinationExpression'
p272
(i__main__
DelphiIdentAccess
p273
(dp274
g264
S'aList'
p275
sg266
(lp276
sbsba(idelphi
DelphiTryFinallyStatement
p277
(dp278
S'tryStatements'
p279
(lp280
(i__main__
DelphiAssignStatement
p281
(dp282
g261
Nsg272
(i__main__
DelphiIdentAccess
p283
(dp284
g264
S'commandList'
p285
sg266
(lp286
(idelphi
DelphiFieldEndAccess
p287
(dp288
g270
S'fillListWithUndoableStrings'
p289
sba(idelphi
DelphiFunctionEndAccess
p290
(dp291
S'expressionList'
p292
(lp293
(i__main__
DelphiIdentAccess
p294
(dp295
g264
S'aList'
p296
sg266
(lp297
sbasbasbsba(i__main__
DelphiAssignStatement
p298
(dp299
g261
Nsg272
(i__main__
DelphiIdentAccess
p300
(dp301
g264
S'undoList'
p302
sg266
(lp303
(idelphi
DelphiFieldEndAccess
p304
(dp305
g270
S'items'
p306
sba(idelphi
DelphiFieldEndAccess
p307
(dp308
g270
S'assign'
p309
sba(idelphi
DelphiFunctionEndAccess
p310
(dp311
g292
(lp312
(i__main__
DelphiIdentAccess
p313
(dp314
g264
S'aList'
p315
sg266
(lp316
sbasbasbsba(i__main__
DelphiAssignStatement
p317
(dp318
g261
Nsg272
(i__main__
DelphiIdentAccess
p319
(dp320
g264
S'aList'
p321
sg266
(lp322
(idelphi
DelphiFieldEndAccess
p323
(dp324
g270
S'clear'
p325
sbasbsba(i__main__
DelphiAssignStatement
p326
(dp327
g261
Nsg272
(i__main__
DelphiIdentAccess
p328
(dp329
g264
S'commandList'
p330
sg266
(lp331
(idelphi
DelphiFieldEndAccess
p332
(dp333
g270
S'fillListWithRedoableStrings'
p334
sba(idelphi
DelphiFunctionEndAccess
p335
(dp336
g292
(lp337
(i__main__
DelphiIdentAccess
p338
(dp339
g264
S'aList'
p340
sg266
(lp341
sbasbasbsba(i__main__
DelphiAssignStatement
p342
(dp343
g261
Nsg272
(i__main__
DelphiIdentAccess
p344
(dp345
g264
S'redoList'
p346
sg266
(lp347
(idelphi
DelphiFieldEndAccess
p348
(dp349
g270
S'items'
p350
sba(idelphi
DelphiFieldEndAccess
p351
(dp352
g270
S'assign'
p353
sba(idelphi
DelphiFunctionEndAccess
p354
(dp355
g292
(lp356
(i__main__
DelphiIdentAccess
p357
(dp358
g264
S'aList'
p359
sg266
(lp360
sbasbasbsbasS'finallyStatements'
p361
(lp362
(i__main__
DelphiAssignStatement
p363
(dp364
g261
Nsg272
(i__main__
DelphiIdentAccess
p365
(dp366
g264
S'aList'
p367
sg266
(lp368
(idelphi
DelphiFieldEndAccess
p369
(dp370
g270
S'free'
p371
sbasbsbasba(i__main__
DelphiAssignStatement
p372
(dp373
g261
(idelphi
DelphiAddOp
p374
(dp375
S'addOp'
p376
S'or'
p377
sS'term2'
p378
(idelphi
DelphiNestedExpressionListAccess
p379
(dp380
g266
(lp381
sg292
(lp382
(idelphi
DelphiRelOp
p383
(dp384
S'simpleExpression1'
p385
(i__main__
DelphiIdentAccess
p386
(dp387
g264
S'redoList'
p388
sg266
(lp389
(idelphi
DelphiFieldEndAccess
p390
(dp391
g270
S'selCount'
p392
sbasbsS'simpleExpression2'
p393
(idelphi
DelphiIntegerValue
p394
(dp395
S'string'
p396
S'0'
sbsS'relOp'
p397
S'>'
sbasbsS'term1'
p398
(idelphi
DelphiNestedExpressionListAccess
p399
(dp400
g266
(lp401
sg292
(lp402
(idelphi
DelphiRelOp
p403
(dp404
g385
(i__main__
DelphiIdentAccess
p405
(dp406
g264
S'undoList'
p407
sg266
(lp408
(idelphi
DelphiFieldEndAccess
p409
(dp410
g270
S'selCount'
p411
sbasbsg393
(idelphi
DelphiIntegerValue
p412
(dp413
g396
S'0'
sbsg397
S'>'
sbasbsbsg272
(i__main__
DelphiIdentAccess
p414
(dp415
g264
S'ok'
p416
sg266
(lp417
(idelphi
DelphiFieldEndAccess
p418
(dp419
g270
S'enabled'
p420
sbasbsbasbsS'limitedDeclSectionList'
p421
(lp422
(i__main__
DelphiVarSection
p423
(dp424
S'atTopLevel'
p425
I0
sS'varDeclList'
p426
(lp427
(idelphi
DelphiVarDecl
p428
(dp429
S'constExpression'
p430
NsS'identList'
p431
(lp432
S'aList'
p433
asg39
(i__main__
DelphiNamedType
p434
(dp435
g42
S'TStringList'
p436
sg44
g1
sg45
Nsbsbasbasbsg117
g163
sbsS'regulatelistselections'
p437
(i__main__
DelphiMethodImplementation
p438
(dp439
g230
g53
sg23
g55
sg31
(lp440
(i__main__
DelphiFormalParameter
p441
(dp442
g35
Nsg36
(lp443
S'Sender'
p444
asg39
(i__main__
DelphiNamedType
p445
(dp446
g42
S'TObject'
p447
sg44
g1
sg45
Nsbsg46
Nsbasg239
(lp448
sg241
(lp449
sg243
(lp450
g245
ag444
asg246
(dp451
g444
g445
ssg47
S'TUndoRedoListForm'
p452
sg48
Nsg249
(lp453
sg49
I0
sg50
g51
sg251
(i__main__
DelphiBlock
p454
(dp455
g254
(idelphi
DelphiCompoundStatement
p456
(dp457
g257
(lp458
(idelphi
DelphiIfStatement
p459
(dp460
S'expression'
p461
(idelphi
DelphiAddOp
p462
(dp463
g376
g377
sg378
(idelphi
DelphiNestedExpressionListAccess
p464
(dp465
g266
(lp466
sg292
(lp467
(idelphi
DelphiNot
p468
(dp469
S'factor'
p470
(idelphi
DelphiNestedExpressionListAccess
p471
(dp472
g266
(lp473
sg292
(lp474
(idelphi
DelphiRelOp
p475
(dp476
g385
(i__main__
DelphiIdentAccess
p477
(dp478
g264
S'sender'
p479
sg266
(lp480
sbsg393
(i__main__
DelphiIdentAccess
p481
(dp482
g264
S'TListBox'
p483
sg266
(lp484
sbsg397
S'is'
p485
sbasbsbasbsg398
(idelphi
DelphiNestedExpressionListAccess
p486
(dp487
g266
(lp488
sg292
(lp489
(idelphi
DelphiRelOp
p490
(dp491
g385
(i__main__
DelphiIdentAccess
p492
(dp493
g264
S'sender'
p494
sg266
(lp495
sbsg393
(idelphi
DelphiNilValue
p496
(dp497
bsg397
S'='
sbasbsbsS'ifFalseStatement'
p498
NsS'ifTrueStatement'
p499
(idelphi
DelphiRaiseStatement
p500
(dp501
g461
(i__main__
DelphiIdentAccess
p502
(dp503
g264
S'Exception'
p504
sg266
(lp505
(idelphi
DelphiFieldEndAccess
p506
(dp507
g270
S'create'
p508
sba(idelphi
DelphiFunctionEndAccess
p509
(dp510
g292
(lp511
(idelphi
DelphiStringAccess
p512
(dp513
g266
(lp514
sg396
(idelphi
DelphiStringValue
p515
(dp516
g396
S'Problem: Wrong sender in method TUndoRedoListForm.regulateListSelections.'
p517
sbsbasbasbsbsba(i__main__
DelphiAssignStatement
p518
(dp519
g261
(idelphi
DelphiMulOp
p520
(dp521
S'signedFactor2'
p522
(i__main__
DelphiIdentAccess
p523
(dp524
g264
S'TListBox'
p525
sg266
(lp526
sbsS'mulOp'
p527
S'as'
p528
sS'signedFactor1'
p529
(i__main__
DelphiIdentAccess
p530
(dp531
g264
S'sender'
p532
sg266
(lp533
sbsbsg272
(i__main__
DelphiIdentAccess
p534
(dp535
g264
S'thisListBox'
p536
sg266
(lp537
sbsba(idelphi
DelphiIfStatement
p538
(dp539
g461
(idelphi
DelphiRelOp
p540
(dp541
g385
(i__main__
DelphiIdentAccess
p542
(dp543
g264
S'sender'
p544
sg266
(lp545
sbsg393
(i__main__
DelphiIdentAccess
p546
(dp547
g264
S'undoList'
p548
sg266
(lp549
sbsg397
S'='
sbsg498
(i__main__
DelphiAssignStatement
p550
(dp551
g261
(i__main__
DelphiIdentAccess
p552
(dp553
g264
S'undoList'
p554
sg266
(lp555
sbsg272
(i__main__
DelphiIdentAccess
p556
(dp557
g264
S'otherListBox'
p558
sg266
(lp559
sbsbsg499
(i__main__
DelphiAssignStatement
p560
(dp561
g261
(i__main__
DelphiIdentAccess
p562
(dp563
g264
S'redoList'
p564
sg266
(lp565
sbsg272
(i__main__
DelphiIdentAccess
p566
(dp567
g264
S'otherListBox'
p568
sg266
(lp569
sbsbsba(idelphi
DelphiIfStatement
p570
(dp571
g461
(idelphi
DelphiRelOp
p572
(dp573
g385
(i__main__
DelphiIdentAccess
p574
(dp575
g264
S'sender'
p576
sg266
(lp577
sbsg393
(i__main__
DelphiIdentAccess
p578
(dp579
g264
S'undoList'
p580
sg266
(lp581
sbsg397
S'='
sbsg498
(i__main__
DelphiAssignStatement
p582
(dp583
g261
(idelphi
DelphiStringAccess
p584
(dp585
g266
(lp586
sg396
(idelphi
DelphiStringValue
p587
(dp588
g396
S'Re&do'
p589
sbsbsg272
(i__main__
DelphiIdentAccess
p590
(dp591
g264
S'ok'
p592
sg266
(lp593
(idelphi
DelphiFieldEndAccess
p594
(dp595
g270
S'caption'
p596
sbasbsbsg499
(i__main__
DelphiAssignStatement
p597
(dp598
g261
(idelphi
DelphiStringAccess
p599
(dp600
g266
(lp601
sg396
(idelphi
DelphiStringValue
p602
(dp603
g396
S'Un&do'
p604
sbsbsg272
(i__main__
DelphiIdentAccess
p605
(dp606
g264
S'ok'
p607
sg266
(lp608
(idelphi
DelphiFieldEndAccess
p609
(dp610
g270
S'caption'
p611
sbasbsbsba(i__main__
DelphiAssignStatement
p612
(dp613
g261
(idelphi
DelphiAddOp
p614
(dp615
g376
g377
sg378
(idelphi
DelphiNestedExpressionListAccess
p616
(dp617
g266
(lp618
sg292
(lp619
(idelphi
DelphiRelOp
p620
(dp621
g385
(i__main__
DelphiIdentAccess
p622
(dp623
g264
S'redoList'
p624
sg266
(lp625
(idelphi
DelphiFieldEndAccess
p626
(dp627
g270
S'selCount'
p628
sbasbsg393
(idelphi
DelphiIntegerValue
p629
(dp630
g396
S'0'
sbsg397
S'>'
sbasbsg398
(idelphi
DelphiNestedExpressionListAccess
p631
(dp632
g266
(lp633
sg292
(lp634
(idelphi
DelphiRelOp
p635
(dp636
g385
(i__main__
DelphiIdentAccess
p637
(dp638
g264
S'undoList'
p639
sg266
(lp640
(idelphi
DelphiFieldEndAccess
p641
(dp642
g270
S'selCount'
p643
sbasbsg393
(idelphi
DelphiIntegerValue
p644
(dp645
g396
S'0'
sbsg397
S'>'
sbasbsbsg272
(i__main__
DelphiIdentAccess
p646
(dp647
g264
S'ok'
p648
sg266
(lp649
(idelphi
DelphiFieldEndAccess
p650
(dp651
g270
S'enabled'
p652
sbasbsba(idelphi
DelphiWithStatement
p653
(dp654
S'statement'
p655
(idelphi
DelphiCompoundStatement
p656
(dp657
g257
(lp658
(idelphi
DelphiIfStatement
p659
(dp660
g461
(idelphi
DelphiRelOp
p661
(dp662
g385
(i__main__
DelphiIdentAccess
p663
(dp664
g264
S'itemIndex'
p665
sg266
(lp666
sbsg393
(idelphi
DelphiIntegerValue
p667
(dp668
g396
S'0'
sbsg397
S'>='
p669
sbsg498
Nsg499
(idelphi
DelphiForStatement
p670
(dp671
S'variable'
p672
S'i'
sS'finalValue'
p673
(i__main__
DelphiIdentAccess
p674
(dp675
g264
S'itemIndex'
p676
sg266
(lp677
sbsS'direction'
p678
S'to'
p679
sg35
(idelphi
DelphiIntegerValue
p680
(dp681
g396
S'0'
sbsg655
(i__main__
DelphiAssignStatement
p682
(dp683
g261
(i__main__
DelphiIdentAccess
p684
(dp685
g264
S'true'
p686
sg266
(lp687
sbsg272
(i__main__
DelphiIdentAccess
p688
(dp689
g264
S'selected'
p690
sg266
(lp691
(idelphi
DelphiArrayEndAccess
p692
(dp693
g292
(lp694
(i__main__
DelphiIdentAccess
p695
(dp696
g264
S'i'
sg266
(lp697
sbasbasbsbsbsba(idelphi
DelphiIfStatement
p698
(dp699
g461
(idelphi
DelphiRelOp
p700
(dp701
g385
(idelphi
DelphiAddOp
p702
(dp703
g376
S'+'
sg378
(idelphi
DelphiIntegerValue
p704
(dp705
g396
S'1'
sbsg398
(i__main__
DelphiIdentAccess
p706
(dp707
g264
S'itemIndex'
p708
sg266
(lp709
sbsbsg393
(idelphi
DelphiAddOp
p710
(dp711
g376
S'-'
sg378
(idelphi
DelphiIntegerValue
p712
(dp713
g396
S'1'
sbsg398
(i__main__
DelphiIdentAccess
p714
(dp715
g264
S'items'
p716
sg266
(lp717
(idelphi
DelphiFieldEndAccess
p718
(dp719
g270
S'count'
p720
sbasbsbsg397
S'<='
p721
sbsg498
Nsg499
(idelphi
DelphiForStatement
p722
(dp723
g672
S'i'
sg673
(idelphi
DelphiAddOp
p724
(dp725
g376
S'-'
sg378
(idelphi
DelphiIntegerValue
p726
(dp727
g396
S'1'
sbsg398
(i__main__
DelphiIdentAccess
p728
(dp729
g264
S'items'
p730
sg266
(lp731
(idelphi
DelphiFieldEndAccess
p732
(dp733
g270
S'count'
p734
sbasbsbsg678
g679
sg35
(idelphi
DelphiAddOp
p735
(dp736
g376
S'+'
sg378
(idelphi
DelphiIntegerValue
p737
(dp738
g396
S'1'
sbsg398
(i__main__
DelphiIdentAccess
p739
(dp740
g264
S'itemIndex'
p741
sg266
(lp742
sbsbsg655
(i__main__
DelphiAssignStatement
p743
(dp744
g261
(i__main__
DelphiIdentAccess
p745
(dp746
g264
S'false'
p747
sg266
(lp748
sbsg272
(i__main__
DelphiIdentAccess
p749
(dp750
g264
S'selected'
p751
sg266
(lp752
(idelphi
DelphiArrayEndAccess
p753
(dp754
g292
(lp755
(i__main__
DelphiIdentAccess
p756
(dp757
g264
S'i'
sg266
(lp758
sbasbasbsbsbsbasbsS'variableReferenceList'
p759
(lp760
(i__main__
DelphiIdentAccess
p761
(dp762
g264
S'thisListBox'
p763
sg266
(lp764
sbasba(idelphi
DelphiWithStatement
p765
(dp766
g655
(idelphi
DelphiCompoundStatement
p767
(dp768
g257
(lp769
(idelphi
DelphiIfStatement
p770
(dp771
g461
(idelphi
DelphiRelOp
p772
(dp773
g385
(i__main__
DelphiIdentAccess
p774
(dp775
g264
S'items'
p776
sg266
(lp777
(idelphi
DelphiFieldEndAccess
p778
(dp779
g270
S'count'
p780
sbasbsg393
(idelphi
DelphiIntegerValue
p781
(dp782
g396
S'0'
sbsg397
S'>'
sbsg498
Nsg499
(idelphi
DelphiForStatement
p783
(dp784
g672
S'i'
sg673
(idelphi
DelphiAddOp
p785
(dp786
g376
S'-'
sg378
(idelphi
DelphiIntegerValue
p787
(dp788
g396
S'1'
sbsg398
(i__main__
DelphiIdentAccess
p789
(dp790
g264
S'items'
p791
sg266
(lp792
(idelphi
DelphiFieldEndAccess
p793
(dp794
g270
S'count'
p795
sbasbsbsg678
g679
sg35
(idelphi
DelphiIntegerValue
p796
(dp797
g396
S'0'
sbsg655
(i__main__
DelphiAssignStatement
p798
(dp799
g261
(i__main__
DelphiIdentAccess
p800
(dp801
g264
S'false'
p802
sg266
(lp803
sbsg272
(i__main__
DelphiIdentAccess
p804
(dp805
g264
S'selected'
p806
sg266
(lp807
(idelphi
DelphiArrayEndAccess
p808
(dp809
g292
(lp810
(i__main__
DelphiIdentAccess
p811
(dp812
g264
S'i'
sg266
(lp813
sbasbasbsbsbsba(i__main__
DelphiAssignStatement
p814
(dp815
g261
(idelphi
DelphiSign
p816
(dp817
g470
(idelphi
DelphiIntegerValue
p818
(dp819
g396
S'1'
sbsS'sign'
p820
S'-'
sbsg272
(i__main__
DelphiIdentAccess
p821
(dp822
g264
S'itemIndex'
p823
sg266
(lp824
sbsbasbsg759
(lp825
(i__main__
DelphiIdentAccess
p826
(dp827
g264
S'otherListBox'
p828
sg266
(lp829
sbasbasbsg421
(lp830
(i__main__
DelphiVarSection
p831
(dp832
g425
I0
sg426
(lp833
(idelphi
DelphiVarDecl
p834
(dp835
g430
Nsg431
(lp836
S'i'
asg39
(i__main__
DelphiPrimitiveType
p837
(dp838
g42
g95
sbsba(idelphi
DelphiVarDecl
p839
(dp840
g430
Nsg431
(lp841
S'thisListBox'
p842
aS'otherListBox'
p843
asg39
(i__main__
DelphiNamedType
p844
(dp845
g42
S'TListBox'
p846
sg44
g1
sg45
NsbsbasbasbsbsS'formresize'
p847
(i__main__
DelphiMethodImplementation
p848
(dp849
g230
g65
sg23
g67
sg31
(lp850
(i__main__
DelphiFormalParameter
p851
(dp852
g35
Nsg36
(lp853
S'Sender'
p854
asg39
(i__main__
DelphiNamedType
p855
(dp856
g42
S'TObject'
p857
sg44
g1
sg45
Nsbsg46
Nsbasg239
(lp858
sg241
(lp859
sg243
(lp860
g245
ag854
asg246
(dp861
g854
g855
ssg47
S'TUndoRedoListForm'
p862
sg48
Nsg249
(lp863
sg49
I0
sg50
g51
sg251
(i__main__
DelphiBlock
p864
(dp865
g254
(idelphi
DelphiCompoundStatement
p866
(dp867
g257
(lp868
(idelphi
DelphiIfStatement
p869
(dp870
g461
(i__main__
DelphiIdentAccess
p871
(dp872
g264
S'Application'
p873
sg266
(lp874
(idelphi
DelphiFieldEndAccess
p875
(dp876
g270
S'terminated'
p877
sbasbsg498
Nsg499
(i__main__
DelphiExitStatement
p878
(dp879
S'proceduralOrMethodImplementation'
p880
g848
sbsba(i__main__
DelphiAssignStatement
p881
(dp882
g261
(idelphi
DelphiAddOp
p883
(dp884
g376
S'-'
sg378
(i__main__
DelphiIdentAccess
p885
(dp886
g264
S'kBetweenGap'
p887
sg266
(lp888
sbsg398
(idelphi
DelphiAddOp
p889
(dp890
g376
S'-'
sg378
(i__main__
DelphiIdentAccess
p891
(dp892
g264
S'OK'
p893
sg266
(lp894
(idelphi
DelphiFieldEndAccess
p895
(dp896
g270
S'width'
p897
sbasbsg398
(i__main__
DelphiIdentAccess
p898
(dp899
g264
S'self'
p900
sg266
(lp901
(idelphi
DelphiFieldEndAccess
p902
(dp903
g270
S'clientWidth'
p904
sbasbsbsbsg272
(i__main__
DelphiIdentAccess
p905
(dp906
g264
S'OK'
p907
sg266
(lp908
(idelphi
DelphiFieldEndAccess
p909
(dp910
g270
S'left'
p911
sbasbsba(i__main__
DelphiAssignStatement
p912
(dp913
g261
(i__main__
DelphiIdentAccess
p914
(dp915
g264
S'OK'
p916
sg266
(lp917
(idelphi
DelphiFieldEndAccess
p918
(dp919
g270
S'left'
p920
sbasbsg272
(i__main__
DelphiIdentAccess
p921
(dp922
g264
S'cancel'
p923
sg266
(lp924
(idelphi
DelphiFieldEndAccess
p925
(dp926
g270
S'left'
p927
sbasbsba(i__main__
DelphiAssignStatement
p928
(dp929
g261
(i__main__
DelphiIdentAccess
p930
(dp931
g264
S'OK'
p932
sg266
(lp933
(idelphi
DelphiFieldEndAccess
p934
(dp935
g270
S'left'
p936
sbasbsg272
(i__main__
DelphiIdentAccess
p937
(dp938
g264
S'helpButton'
p939
sg266
(lp940
(idelphi
DelphiFieldEndAccess
p941
(dp942
g270
S'left'
p943
sbasbsba(idelphi
DelphiWithStatement
p944
(dp945
g655
(i__main__
DelphiAssignStatement
p946
(dp947
g261
Nsg272
(i__main__
DelphiIdentAccess
p948
(dp949
g264
S'setBounds'
p950
sg266
(lp951
(idelphi
DelphiFunctionEndAccess
p952
(dp953
g292
(lp954
(i__main__
DelphiIdentAccess
p955
(dp956
g264
S'kBetweenGap'
p957
sg266
(lp958
sba(i__main__
DelphiIdentAccess
p959
(dp960
g264
S'kBetweenGap'
p961
sg266
(lp962
sba(i__main__
DelphiIdentAccess
p963
(dp964
g264
S'width'
p965
sg266
(lp966
sba(i__main__
DelphiIdentAccess
p967
(dp968
g264
S'height'
p969
sg266
(lp970
sbasbasbsbsg759
(lp971
(i__main__
DelphiIdentAccess
p972
(dp973
g264
S'undoListLabel'
p974
sg266
(lp975
sbasba(i__main__
DelphiAssignStatement
p976
(dp977
g261
(i__main__
DelphiIdentAccess
p978
(dp979
g264
S'intMax'
p980
sg266
(lp981
(idelphi
DelphiFunctionEndAccess
p982
(dp983
g292
(lp984
(idelphi
DelphiIntegerValue
p985
(dp986
g396
S'0'
sba(idelphi
DelphiMulOp
p987
(dp988
g522
(idelphi
DelphiIntegerValue
p989
(dp990
g396
S'2'
sbsg527
S'div'
p991
sg529
(idelphi
DelphiNestedExpressionListAccess
p992
(dp993
g266
(lp994
sg292
(lp995
(idelphi
DelphiAddOp
p996
(dp997
g376
S'-'
sg378
(idelphi
DelphiMulOp
p998
(dp999
g522
(idelphi
DelphiIntegerValue
p1000
(dp1001
g396
S'5'
sbsg527
S'*'
sg529
(i__main__
DelphiIdentAccess
p1002
(dp1003
g264
S'kBetweenGap'
p1004
sg266
(lp1005
sbsbsg398
(idelphi
DelphiAddOp
p1006
(dp1007
g376
S'-'
sg378
(idelphi
DelphiMulOp
p1008
(dp1009
g522
(idelphi
DelphiIntegerValue
p1010
(dp1011
g396
S'2'
sbsg527
S'*'
sg529
(i__main__
DelphiIdentAccess
p1012
(dp1013
g264
S'undoListLabel'
p1014
sg266
(lp1015
(idelphi
DelphiFieldEndAccess
p1016
(dp1017
g270
S'height'
p1018
sbasbsbsg398
(i__main__
DelphiIdentAccess
p1019
(dp1020
g264
S'self'
p1021
sg266
(lp1022
(idelphi
DelphiFieldEndAccess
p1023
(dp1024
g270
S'clientHeight'
p1025
sbasbsbsbasbsbasbasbsg272
(i__main__
DelphiIdentAccess
p1026
(dp1027
g264
S'listHeight'
p1028
sg266
(lp1029
sbsba(idelphi
DelphiWithStatement
p1030
(dp1031
g655
(i__main__
DelphiAssignStatement
p1032
(dp1033
g261
Nsg272
(i__main__
DelphiIdentAccess
p1034
(dp1035
g264
S'setBounds'
p1036
sg266
(lp1037
(idelphi
DelphiFunctionEndAccess
p1038
(dp1039
g292
(lp1040
(i__main__
DelphiIdentAccess
p1041
(dp1042
g264
S'kBetweenGap'
p1043
sg266
(lp1044
sba(idelphi
DelphiAddOp
p1045
(dp1046
g376
S'+'
sg378
(i__main__
DelphiIdentAccess
p1047
(dp1048
g264
S'kBetweenGap'
p1049
sg266
(lp1050
sbsg398
(idelphi
DelphiAddOp
p1051
(dp1052
g376
S'+'
sg378
(i__main__
DelphiIdentAccess
p1053
(dp1054
g264
S'undoListLabel'
p1055
sg266
(lp1056
(idelphi
DelphiFieldEndAccess
p1057
(dp1058
g270
S'height'
p1059
sbasbsg398
(i__main__
DelphiIdentAccess
p1060
(dp1061
g264
S'undoListLabel'
p1062
sg266
(lp1063
(idelphi
DelphiFieldEndAccess
p1064
(dp1065
g270
S'top'
p1066
sbasbsbsba(idelphi
DelphiAddOp
p1067
(dp1068
g376
S'-'
sg378
(idelphi
DelphiMulOp
p1069
(dp1070
g522
(idelphi
DelphiIntegerValue
p1071
(dp1072
g396
S'2'
sbsg527
S'*'
sg529
(i__main__
DelphiIdentAccess
p1073
(dp1074
g264
S'kBetweenGap'
p1075
sg266
(lp1076
sbsbsg398
(i__main__
DelphiIdentAccess
p1077
(dp1078
g264
S'OK'
p1079
sg266
(lp1080
(idelphi
DelphiFieldEndAccess
p1081
(dp1082
g270
S'left'
p1083
sbasbsba(i__main__
DelphiIdentAccess
p1084
(dp1085
g264
S'listHeight'
p1086
sg266
(lp1087
sbasbasbsbsg759
(lp1088
(i__main__
DelphiIdentAccess
p1089
(dp1090
g264
S'undoList'
p1091
sg266
(lp1092
sbasba(idelphi
DelphiWithStatement
p1093
(dp1094
g655
(i__main__
DelphiAssignStatement
p1095
(dp1096
g261
Nsg272
(i__main__
DelphiIdentAccess
p1097
(dp1098
g264
S'setBounds'
p1099
sg266
(lp1100
(idelphi
DelphiFunctionEndAccess
p1101
(dp1102
g292
(lp1103
(i__main__
DelphiIdentAccess
p1104
(dp1105
g264
S'kBetweenGap'
p1106
sg266
(lp1107
sba(idelphi
DelphiAddOp
p1108
(dp1109
g376
S'+'
sg378
(i__main__
DelphiIdentAccess
p1110
(dp1111
g264
S'kBetweenGap'
p1112
sg266
(lp1113
sbsg398
(idelphi
DelphiAddOp
p1114
(dp1115
g376
S'+'
sg378
(i__main__
DelphiIdentAccess
p1116
(dp1117
g264
S'undoList'
p1118
sg266
(lp1119
(idelphi
DelphiFieldEndAccess
p1120
(dp1121
g270
S'height'
p1122
sbasbsg398
(i__main__
DelphiIdentAccess
p1123
(dp1124
g264
S'undoList'
p1125
sg266
(lp1126
(idelphi
DelphiFieldEndAccess
p1127
(dp1128
g270
S'top'
p1129
sbasbsbsba(i__main__
DelphiIdentAccess
p1130
(dp1131
g264
S'width'
p1132
sg266
(lp1133
sba(i__main__
DelphiIdentAccess
p1134
(dp1135
g264
S'height'
p1136
sg266
(lp1137
sbasbasbsbsg759
(lp1138
(i__main__
DelphiIdentAccess
p1139
(dp1140
g264
S'redoListLabel'
p1141
sg266
(lp1142
sbasba(idelphi
DelphiWithStatement
p1143
(dp1144
g655
(i__main__
DelphiAssignStatement
p1145
(dp1146
g261
Nsg272
(i__main__
DelphiIdentAccess
p1147
(dp1148
g264
S'setBounds'
p1149
sg266
(lp1150
(idelphi
DelphiFunctionEndAccess
p1151
(dp1152
g292
(lp1153
(i__main__
DelphiIdentAccess
p1154
(dp1155
g264
S'kBetweenGap'
p1156
sg266
(lp1157
sba(idelphi
DelphiAddOp
p1158
(dp1159
g376
S'+'
sg378
(i__main__
DelphiIdentAccess
p1160
(dp1161
g264
S'kBetweenGap'
p1162
sg266
(lp1163
sbsg398
(idelphi
DelphiAddOp
p1164
(dp1165
g376
S'+'
sg378
(i__main__
DelphiIdentAccess
p1166
(dp1167
g264
S'redoListLabel'
p1168
sg266
(lp1169
(idelphi
DelphiFieldEndAccess
p1170
(dp1171
g270
S'height'
p1172
sbasbsg398
(i__main__
DelphiIdentAccess
p1173
(dp1174
g264
S'redoListLabel'
p1175
sg266
(lp1176
(idelphi
DelphiFieldEndAccess
p1177
(dp1178
g270
S'top'
p1179
sbasbsbsba(idelphi
DelphiAddOp
p1180
(dp1181
g376
S'-'
sg378
(idelphi
DelphiMulOp
p1182
(dp1183
g522
(idelphi
DelphiIntegerValue
p1184
(dp1185
g396
S'2'
sbsg527
S'*'
sg529
(i__main__
DelphiIdentAccess
p1186
(dp1187
g264
S'kBetweenGap'
p1188
sg266
(lp1189
sbsbsg398
(i__main__
DelphiIdentAccess
p1190
(dp1191
g264
S'OK'
p1192
sg266
(lp1193
(idelphi
DelphiFieldEndAccess
p1194
(dp1195
g270
S'left'
p1196
sbasbsba(i__main__
DelphiIdentAccess
p1197
(dp1198
g264
S'listHeight'
p1199
sg266
(lp1200
sbasbasbsbsg759
(lp1201
(i__main__
DelphiIdentAccess
p1202
(dp1203
g264
S'redoList'
p1204
sg266
(lp1205
sbasbasbsg421
(lp1206
(i__main__
DelphiVarSection
p1207
(dp1208
g425
I0
sg426
(lp1209
(idelphi
DelphiVarDecl
p1210
(dp1211
g430
Nsg431
(lp1212
S'listHeight'
p1213
asg39
(i__main__
DelphiPrimitiveType
p1214
(dp1215
g42
g95
sbsbasbasbsbsS'cancelclick'
p1216
(i__main__
DelphiMethodImplementation
p1217
(dp1218
g230
g77
sg23
g79
sg31
(lp1219
(i__main__
DelphiFormalParameter
p1220
(dp1221
g35
Nsg36
(lp1222
S'Sender'
p1223
asg39
(i__main__
DelphiNamedType
p1224
(dp1225
g42
S'TObject'
p1226
sg44
g1
sg45
Nsbsg46
Nsbasg239
(lp1227
sg241
(lp1228
sg243
(lp1229
g245
ag1223
asg246
(dp1230
g1223
g1224
ssg47
S'TUndoRedoListForm'
p1231
sg48
Nsg249
(lp1232
sg49
I0
sg50
g51
sg251
(i__main__
DelphiBlock
p1233
(dp1234
g254
(idelphi
DelphiCompoundStatement
p1235
(dp1236
g257
(lp1237
(i__main__
DelphiAssignStatement
p1238
(dp1239
g261
(i__main__
DelphiIdentAccess
p1240
(dp1241
g264
S'mrCancel'
p1242
sg266
(lp1243
sbsg272
(i__main__
DelphiIdentAccess
p1244
(dp1245
g264
S'modalResult'
p1246
sg266
(lp1247
sbsbasbsg421
(lp1248
sbsbsS'redotoindex'
p1249
(i__main__
DelphiMethodImplementation
p1250
(dp1251
g230
g89
sg23
g91
sg31
(lp1252
sg239
(lp1253
sg241
(lp1254
sg243
(lp1255
g245
asg246
(dp1256
sg47
S'TUndoRedoListForm'
p1257
sg48
(i__main__
DelphiPrimitiveType
p1258
(dp1259
g42
g95
sbsg249
(lp1260
sg49
I0
sg50
g96
sg251
(i__main__
DelphiBlock
p1261
(dp1262
g254
(idelphi
DelphiCompoundStatement
p1263
(dp1264
g257
(lp1265
(i__main__
DelphiAssignStatement
p1266
(dp1267
g261
(idelphi
DelphiSign
p1268
(dp1269
g470
(idelphi
DelphiIntegerValue
p1270
(dp1271
g396
S'1'
sbsg820
S'-'
sbsg272
(i__main__
DelphiIdentAccess
p1272
(dp1273
g264
S'result'
p1274
sg266
(lp1275
sbsba(idelphi
DelphiIfStatement
p1276
(dp1277
g461
(idelphi
DelphiRelOp
p1278
(dp1279
g385
(i__main__
DelphiIdentAccess
p1280
(dp1281
g264
S'redoList'
p1282
sg266
(lp1283
(idelphi
DelphiFieldEndAccess
p1284
(dp1285
g270
S'items'
p1286
sba(idelphi
DelphiFieldEndAccess
p1287
(dp1288
g270
S'count'
p1289
sbasbsg393
(idelphi
DelphiIntegerValue
p1290
(dp1291
g396
S'0'
sbsg397
S'>'
sbsg498
Nsg499
(idelphi
DelphiForStatement
p1292
(dp1293
g672
S'i'
sg673
(idelphi
DelphiIntegerValue
p1294
(dp1295
g396
S'0'
sbsg678
S'downto'
p1296
sg35
(idelphi
DelphiAddOp
p1297
(dp1298
g376
S'-'
sg378
(idelphi
DelphiIntegerValue
p1299
(dp1300
g396
S'1'
sbsg398
(i__main__
DelphiIdentAccess
p1301
(dp1302
g264
S'redoList'
p1303
sg266
(lp1304
(idelphi
DelphiFieldEndAccess
p1305
(dp1306
g270
S'items'
p1307
sba(idelphi
DelphiFieldEndAccess
p1308
(dp1309
g270
S'count'
p1310
sbasbsbsg655
(idelphi
DelphiIfStatement
p1311
(dp1312
g461
(i__main__
DelphiIdentAccess
p1313
(dp1314
g264
S'redoList'
p1315
sg266
(lp1316
(idelphi
DelphiFieldEndAccess
p1317
(dp1318
g270
S'selected'
p1319
sba(idelphi
DelphiArrayEndAccess
p1320
(dp1321
g292
(lp1322
(i__main__
DelphiIdentAccess
p1323
(dp1324
g264
S'i'
sg266
(lp1325
sbasbasbsg498
Nsg499
(idelphi
DelphiCompoundStatement
p1326
(dp1327
g257
(lp1328
(i__main__
DelphiAssignStatement
p1329
(dp1330
g261
(i__main__
DelphiIdentAccess
p1331
(dp1332
g264
S'i'
sg266
(lp1333
sbsg272
(i__main__
DelphiIdentAccess
p1334
(dp1335
g264
S'result'
p1336
sg266
(lp1337
sbsba(i__main__
DelphiExitStatement
p1338
(dp1339
g880
g1250
sbasbsbsbsbasbsg421
(lp1340
(i__main__
DelphiVarSection
p1341
(dp1342
g425
I0
sg426
(lp1343
(idelphi
DelphiVarDecl
p1344
(dp1345
g430
Nsg431
(lp1346
S'i'
asg39
(i__main__
DelphiPrimitiveType
p1347
(dp1348
g42
g95
sbsbasbasbsbsS'undotoindex'
p1349
(i__main__
DelphiMethodImplementation
p1350
(dp1351
g230
g98
sg23
g100
sg31
(lp1352
sg239
(lp1353
sg241
(lp1354
sg243
(lp1355
g245
asg246
(dp1356
sg47
S'TUndoRedoListForm'
p1357
sg48
(i__main__
DelphiPrimitiveType
p1358
(dp1359
g42
g95
sbsg249
(lp1360
sg49
I0
sg50
g96
sg251
(i__main__
DelphiBlock
p1361
(dp1362
g254
(idelphi
DelphiCompoundStatement
p1363
(dp1364
g257
(lp1365
(i__main__
DelphiAssignStatement
p1366
(dp1367
g261
(idelphi
DelphiSign
p1368
(dp1369
g470
(idelphi
DelphiIntegerValue
p1370
(dp1371
g396
S'1'
sbsg820
S'-'
sbsg272
(i__main__
DelphiIdentAccess
p1372
(dp1373
g264
S'result'
p1374
sg266
(lp1375
sbsba(idelphi
DelphiIfStatement
p1376
(dp1377
g461
(idelphi
DelphiRelOp
p1378
(dp1379
g385
(i__main__
DelphiIdentAccess
p1380
(dp1381
g264
S'undoList'
p1382
sg266
(lp1383
(idelphi
DelphiFieldEndAccess
p1384
(dp1385
g270
S'items'
p1386
sba(idelphi
DelphiFieldEndAccess
p1387
(dp1388
g270
S'count'
p1389
sbasbsg393
(idelphi
DelphiIntegerValue
p1390
(dp1391
g396
S'0'
sbsg397
S'>'
sbsg498
Nsg499
(idelphi
DelphiForStatement
p1392
(dp1393
g672
S'i'
sg673
(idelphi
DelphiIntegerValue
p1394
(dp1395
g396
S'0'
sbsg678
g1296
sg35
(idelphi
DelphiAddOp
p1396
(dp1397
g376
S'-'
sg378
(idelphi
DelphiIntegerValue
p1398
(dp1399
g396
S'1'
sbsg398
(i__main__
DelphiIdentAccess
p1400
(dp1401
g264
S'undoList'
p1402
sg266
(lp1403
(idelphi
DelphiFieldEndAccess
p1404
(dp1405
g270
S'items'
p1406
sba(idelphi
DelphiFieldEndAccess
p1407
(dp1408
g270
S'count'
p1409
sbasbsbsg655
(idelphi
DelphiIfStatement
p1410
(dp1411
g461
(i__main__
DelphiIdentAccess
p1412
(dp1413
g264
S'undoList'
p1414
sg266
(lp1415
(idelphi
DelphiFieldEndAccess
p1416
(dp1417
g270
S'selected'
p1418
sba(idelphi
DelphiArrayEndAccess
p1419
(dp1420
g292
(lp1421
(i__main__
DelphiIdentAccess
p1422
(dp1423
g264
S'i'
sg266
(lp1424
sbasbasbsg498
Nsg499
(idelphi
DelphiCompoundStatement
p1425
(dp1426
g257
(lp1427
(i__main__
DelphiAssignStatement
p1428
(dp1429
g261
(i__main__
DelphiIdentAccess
p1430
(dp1431
g264
S'i'
sg266
(lp1432
sbsg272
(i__main__
DelphiIdentAccess
p1433
(dp1434
g264
S'result'
p1435
sg266
(lp1436
sbsba(i__main__
DelphiExitStatement
p1437
(dp1438
g880
g1350
sbasbsbsbsbasbsg421
(lp1439
(i__main__
DelphiVarSection
p1440
(dp1441
g425
I0
sg426
(lp1442
(idelphi
DelphiVarDecl
p1443
(dp1444
g430
Nsg431
(lp1445
S'i'
asg39
(i__main__
DelphiPrimitiveType
p1446
(dp1447
g42
g95
sbsbasbasbsbsS'wmgetminmaxinfo'
p1448
(i__main__
DelphiMethodImplementation
p1449
(dp1450
g230
g105
sg23
g107
sg31
(lp1451
(i__main__
DelphiFormalParameter
p1452
(dp1453
g35
Nsg36
(lp1454
S'MSG'
p1455
asg39
(i__main__
DelphiNamedType
p1456
(dp1457
g42
S'Tmessage'
p1458
sg44
g1
sg45
Nsbsg46
g116
sbasg239
(lp1459
sg241
(lp1460
g1455
asg243
(lp1461
g245
ag1455
asg246
(dp1462
g1455
g1456
ssg47
S'TUndoRedoListForm'
p1463
sg48
Nsg249
(lp1464
sg49
I0
sg50
g51
sg251
(i__main__
DelphiBlock
p1465
(dp1466
g254
(idelphi
DelphiCompoundStatement
p1467
(dp1468
g257
(lp1469
(i__main__
DelphiAssignStatement
p1470
(dp1471
g261
Nsg272
(idelphi
DelphiInheritedCall
p1472
(dp1473
g264
Nsg292
Nsbsba(idelphi
DelphiWithStatement
p1474
(dp1475
g655
(idelphi
DelphiCompoundStatement
p1476
(dp1477
g257
(lp1478
(i__main__
DelphiAssignStatement
p1479
(dp1480
g261
(idelphi
DelphiIntegerValue
p1481
(dp1482
g396
S'220'
p1483
sbsg272
(i__main__
DelphiIdentAccess
p1484
(dp1485
g264
S'ptMinTrackSize'
p1486
sg266
(lp1487
(idelphi
DelphiFieldEndAccess
p1488
(dp1489
g270
S'x'
sbasbsba(i__main__
DelphiAssignStatement
p1490
(dp1491
g261
(idelphi
DelphiIntegerValue
p1492
(dp1493
g396
S'220'
p1494
sbsg272
(i__main__
DelphiIdentAccess
p1495
(dp1496
g264
S'ptMinTrackSize'
p1497
sg266
(lp1498
(idelphi
DelphiFieldEndAccess
p1499
(dp1500
g270
S'y'
sbasbsbasbsg759
(lp1501
(i__main__
DelphiIdentAccess
p1502
(dp1503
g264
S'PMinMaxInfo'
p1504
sg266
(lp1505
(idelphi
DelphiFunctionEndAccess
p1506
(dp1507
g292
(lp1508
(i__main__
DelphiIdentAccess
p1509
(dp1510
g264
S'MSG'
p1511
sg266
(lp1512
(idelphi
DelphiFieldEndAccess
p1513
(dp1514
g270
S'lparam'
p1515
sbasbasba(idelphi
DelphiPointerEndAccess
p1516
(dp1517
basbasbasbsg421
(lp1518
sbsg117
g118
sbsS'formclose'
p1519
(i__main__
DelphiMethodImplementation
p1520
(dp1521
g230
g121
sg23
g123
sg31
(lp1522
(i__main__
DelphiFormalParameter
p1523
(dp1524
g35
Nsg36
(lp1525
S'Sender'
p1526
asg39
(i__main__
DelphiNamedType
p1527
(dp1528
g42
S'TObject'
p1529
sg44
g1
sg45
Nsbsg46
Nsba(i__main__
DelphiFormalParameter
p1530
(dp1531
g35
Nsg36
(lp1532
S'Action'
p1533
asg39
(i__main__
DelphiNamedType
p1534
(dp1535
g42
S'TCloseAction'
p1536
sg44
g1
sg45
Nsbsg46
g116
sbasg239
(lp1537
sg241
(lp1538
g1533
asg243
(lp1539
g245
ag1526
ag1533
asg246
(dp1540
g1533
g1534
sg1526
g1527
ssg47
S'TUndoRedoListForm'
p1541
sg48
Nsg249
(lp1542
sg49
I0
sg50
g51
sg251
(i__main__
DelphiBlock
p1543
(dp1544
g254
(idelphi
DelphiCompoundStatement
p1545
(dp1546
g257
(lp1547
(i__main__
DelphiAssignStatement
p1548
(dp1549
g261
(i__main__
DelphiIdentAccess
p1550
(dp1551
g264
S'rect'
p1552
sg266
(lp1553
(idelphi
DelphiFunctionEndAccess
p1554
(dp1555
g292
(lp1556
(i__main__
DelphiIdentAccess
p1557
(dp1558
g264
S'left'
p1559
sg266
(lp1560
sba(i__main__
DelphiIdentAccess
p1561
(dp1562
g264
S'top'
p1563
sg266
(lp1564
sba(i__main__
DelphiIdentAccess
p1565
(dp1566
g264
S'width'
p1567
sg266
(lp1568
sba(i__main__
DelphiIdentAccess
p1569
(dp1570
g264
S'height'
p1571
sg266
(lp1572
sbasbasbsg272
(i__main__
DelphiIdentAccess
p1573
(dp1574
g264
S'domain'
p1575
sg266
(lp1576
(idelphi
DelphiFieldEndAccess
p1577
(dp1578
g270
S'undoRedoListWindowRect'
p1579
sbasbsbasbsg421
(lp1580
sbsbsS'okclick'
p1581
(i__main__
DelphiMethodImplementation
p1582
(dp1583
g230
g140
sg23
g142
sg31
(lp1584
(i__main__
DelphiFormalParameter
p1585
(dp1586
g35
Nsg36
(lp1587
S'Sender'
p1588
asg39
(i__main__
DelphiNamedType
p1589
(dp1590
g42
S'TObject'
p1591
sg44
g1
sg45
Nsbsg46
Nsbasg239
(lp1592
sg241
(lp1593
sg243
(lp1594
g245
ag1588
asg246
(dp1595
g1588
g1589
ssg47
S'TUndoRedoListForm'
p1596
sg48
Nsg249
(lp1597
sg49
I0
sg50
g51
sg251
(i__main__
DelphiBlock
p1598
(dp1599
g254
(idelphi
DelphiCompoundStatement
p1600
(dp1601
g257
(lp1602
(i__main__
DelphiAssignStatement
p1603
(dp1604
g261
(i__main__
DelphiIdentAccess
p1605
(dp1606
g264
S'mrOK'
p1607
sg266
(lp1608
sbsg272
(i__main__
DelphiIdentAccess
p1609
(dp1610
g264
S'modalResult'
p1611
sg266
(lp1612
sbsbasbsg421
(lp1613
sbsbsS'formcreate'
p1614
(i__main__
DelphiMethodImplementation
p1615
(dp1616
g230
g166
sg23
g168
sg31
(lp1617
(i__main__
DelphiFormalParameter
p1618
(dp1619
g35
Nsg36
(lp1620
S'Sender'
p1621
asg39
(i__main__
DelphiNamedType
p1622
(dp1623
g42
S'TObject'
p1624
sg44
g1
sg45
Nsbsg46
Nsbasg239
(lp1625
sg241
(lp1626
sg243
(lp1627
g245
ag1621
asg246
(dp1628
g1621
g1622
ssg47
S'TUndoRedoListForm'
p1629
sg48
Nsg249
(lp1630
sg49
I0
sg50
g51
sg251
(i__main__
DelphiBlock
p1631
(dp1632
g254
(idelphi
DelphiCompoundStatement
p1633
(dp1634
g257
(lp1635
(i__main__
DelphiAssignStatement
p1636
(dp1637
g261
(i__main__
DelphiIdentAccess
p1638
(dp1639
g264
S'domain'
p1640
sg266
(lp1641
(idelphi
DelphiFieldEndAccess
p1642
(dp1643
g270
S'undoRedoListWindowRect'
p1644
sbasbsg272
(i__main__
DelphiIdentAccess
p1645
(dp1646
g264
S'tempBoundsRect'
p1647
sg266
(lp1648
sbsg117
(lp1649
S' keep window on screen - left corner of title bar '
p1650
asba(idelphi
DelphiWithStatement
p1651
(dp1652
g655
(idelphi
DelphiIfStatement
p1653
(dp1654
g461
(idelphi
DelphiAddOp
p1655
(dp1656
g376
g377
sg378
(idelphi
DelphiNestedExpressionListAccess
p1657
(dp1658
g266
(lp1659
sg292
(lp1660
(idelphi
DelphiRelOp
p1661
(dp1662
g385
(i__main__
DelphiIdentAccess
p1663
(dp1664
g264
S'bottom'
p1665
sg266
(lp1666
sbsg393
(idelphi
DelphiIntegerValue
p1667
(dp1668
g396
S'0'
sbsg397
S'<>'
p1669
sbasbsg398
(idelphi
DelphiAddOp
p1670
(dp1671
g376
g377
sg378
(idelphi
DelphiNestedExpressionListAccess
p1672
(dp1673
g266
(lp1674
sg292
(lp1675
(idelphi
DelphiRelOp
p1676
(dp1677
g385
(i__main__
DelphiIdentAccess
p1678
(dp1679
g264
S'top'
p1680
sg266
(lp1681
sbsg393
(idelphi
DelphiIntegerValue
p1682
(dp1683
g396
S'0'
sbsg397
g1669
sbasbsg398
(idelphi
DelphiAddOp
p1684
(dp1685
g376
g377
sg378
(idelphi
DelphiNestedExpressionListAccess
p1686
(dp1687
g266
(lp1688
sg292
(lp1689
(idelphi
DelphiRelOp
p1690
(dp1691
g385
(i__main__
DelphiIdentAccess
p1692
(dp1693
g264
S'right'
p1694
sg266
(lp1695
sbsg393
(idelphi
DelphiIntegerValue
p1696
(dp1697
g396
S'0'
sbsg397
g1669
sbasbsg398
(idelphi
DelphiNestedExpressionListAccess
p1698
(dp1699
g266
(lp1700
sg292
(lp1701
(idelphi
DelphiRelOp
p1702
(dp1703
g385
(i__main__
DelphiIdentAccess
p1704
(dp1705
g264
S'left'
p1706
sg266
(lp1707
sbsg393
(idelphi
DelphiIntegerValue
p1708
(dp1709
g396
S'0'
sbsg397
g1669
sbasbsbsbsbsg498
Nsg499
(idelphi
DelphiCompoundStatement
p1710
(dp1711
g257
(lp1712
(idelphi
DelphiIfStatement
p1713
(dp1714
g461
(idelphi
DelphiRelOp
p1715
(dp1716
g385
(i__main__
DelphiIdentAccess
p1717
(dp1718
g264
S'left'
p1719
sg266
(lp1720
sbsg393
(idelphi
DelphiAddOp
p1721
(dp1722
g376
S'-'
sg378
(i__main__
DelphiIdentAccess
p1723
(dp1724
g264
S'kMinWidthOnScreen'
p1725
sg266
(lp1726
sbsg398
(i__main__
DelphiIdentAccess
p1727
(dp1728
g264
S'screen'
p1729
sg266
(lp1730
(idelphi
DelphiFieldEndAccess
p1731
(dp1732
g270
S'width'
p1733
sbasbsbsg397
S'>'
sbsg498
Nsg499
(i__main__
DelphiAssignStatement
p1734
(dp1735
g261
(idelphi
DelphiAddOp
p1736
(dp1737
g376
S'-'
sg378
(i__main__
DelphiIdentAccess
p1738
(dp1739
g264
S'kMinWidthOnScreen'
p1740
sg266
(lp1741
sbsg398
(i__main__
DelphiIdentAccess
p1742
(dp1743
g264
S'screen'
p1744
sg266
(lp1745
(idelphi
DelphiFieldEndAccess
p1746
(dp1747
g270
S'width'
p1748
sbasbsbsg272
(i__main__
DelphiIdentAccess
p1749
(dp1750
g264
S'left'
p1751
sg266
(lp1752
sbsbsba(idelphi
DelphiIfStatement
p1753
(dp1754
g461
(idelphi
DelphiRelOp
p1755
(dp1756
g385
(i__main__
DelphiIdentAccess
p1757
(dp1758
g264
S'top'
p1759
sg266
(lp1760
sbsg393
(idelphi
DelphiAddOp
p1761
(dp1762
g376
S'-'
sg378
(i__main__
DelphiIdentAccess
p1763
(dp1764
g264
S'kMinHeightOnScreen'
p1765
sg266
(lp1766
sbsg398
(i__main__
DelphiIdentAccess
p1767
(dp1768
g264
S'screen'
p1769
sg266
(lp1770
(idelphi
DelphiFieldEndAccess
p1771
(dp1772
g270
S'height'
p1773
sbasbsbsg397
S'>'
sbsg498
Nsg499
(i__main__
DelphiAssignStatement
p1774
(dp1775
g261
(idelphi
DelphiAddOp
p1776
(dp1777
g376
S'-'
sg378
(i__main__
DelphiIdentAccess
p1778
(dp1779
g264
S'kMinHeightOnScreen'
p1780
sg266
(lp1781
sbsg398
(i__main__
DelphiIdentAccess
p1782
(dp1783
g264
S'screen'
p1784
sg266
(lp1785
(idelphi
DelphiFieldEndAccess
p1786
(dp1787
g270
S'height'
p1788
sbasbsbsg272
(i__main__
DelphiIdentAccess
p1789
(dp1790
g264
S'top'
p1791
sg266
(lp1792
sbsbsba(i__main__
DelphiAssignStatement
p1793
(dp1794
g261
Nsg272
(i__main__
DelphiIdentAccess
p1795
(dp1796
g264
S'self'
p1797
sg266
(lp1798
(idelphi
DelphiFieldEndAccess
p1799
(dp1800
g270
S'setBounds'
p1801
sba(idelphi
DelphiFunctionEndAccess
p1802
(dp1803
g292
(lp1804
(i__main__
DelphiIdentAccess
p1805
(dp1806
g264
S'left'
p1807
sg266
(lp1808
sba(i__main__
DelphiIdentAccess
p1809
(dp1810
g264
S'top'
p1811
sg266
(lp1812
sba(i__main__
DelphiIdentAccess
p1813
(dp1814
g264
S'right'
p1815
sg266
(lp1816
sba(i__main__
DelphiIdentAccess
p1817
(dp1818
g264
S'bottom'
p1819
sg266
(lp1820
sbasbasbsbasbsbsg759
(lp1821
(i__main__
DelphiIdentAccess
p1822
(dp1823
g264
S'tempBoundsRect'
p1824
sg266
(lp1825
sbasba(i__main__
DelphiAssignStatement
p1826
(dp1827
g261
Nsg272
(i__main__
DelphiIdentAccess
p1828
(dp1829
g264
S'sendMessage'
p1830
sg266
(lp1831
(idelphi
DelphiFunctionEndAccess
p1832
(dp1833
g292
(lp1834
(i__main__
DelphiIdentAccess
p1835
(dp1836
g264
S'undoList'
p1837
sg266
(lp1838
(idelphi
DelphiFieldEndAccess
p1839
(dp1840
g270
S'handle'
p1841
sbasba(i__main__
DelphiIdentAccess
p1842
(dp1843
g264
S'LB_SETHORIZONTALEXTENT'
p1844
sg266
(lp1845
sba(idelphi
DelphiIntegerValue
p1846
(dp1847
g396
S'1000'
p1848
sba(i__main__
DelphiValueTypecastAccess
p1849
(dp1850
S'valueTypecast'
p1851
(i__main__
DelphiValueTypecast
p1852
(dp1853
g461
(idelphi
DelphiIntegerValue
p1854
(dp1855
g396
S'0'
sbsS'typeIdentPredefined'
p1856
(i__main__
DelphiPrimitiveType
p1857
(dp1858
g42
S'longint'
p1859
sbsbsg266
(lp1860
sbasbasbsg117
(lp1861
S' make list boxes have horizontal scroll bars\r'
p1862
asba(i__main__
DelphiAssignStatement
p1863
(dp1864
g261
Nsg272
(i__main__
DelphiIdentAccess
p1865
(dp1866
g264
S'sendMessage'
p1867
sg266
(lp1868
(idelphi
DelphiFunctionEndAccess
p1869
(dp1870
g292
(lp1871
(i__main__
DelphiIdentAccess
p1872
(dp1873
g264
S'redoList'
p1874
sg266
(lp1875
(idelphi
DelphiFieldEndAccess
p1876
(dp1877
g270
S'handle'
p1878
sbasba(i__main__
DelphiIdentAccess
p1879
(dp1880
g264
S'LB_SETHORIZONTALEXTENT'
p1881
sg266
(lp1882
sba(idelphi
DelphiIntegerValue
p1883
(dp1884
g396
S'1000'
p1885
sba(i__main__
DelphiValueTypecastAccess
p1886
(dp1887
g1851
(i__main__
DelphiValueTypecast
p1888
(dp1889
g461
(idelphi
DelphiIntegerValue
p1890
(dp1891
g396
S'0'
sbsg1856
(i__main__
DelphiPrimitiveType
p1892
(dp1893
g42
g1859
sbsbsg266
(lp1894
sbasbasbsbasbsg421
(lp1895
(i__main__
DelphiVarSection
p1896
(dp1897
g425
I0
sg426
(lp1898
(idelphi
DelphiVarDecl
p1899
(dp1900
g430
Nsg431
(lp1901
S'tempBoundsRect'
p1902
asg39
(i__main__
DelphiNamedType
p1903
(dp1904
g42
S'TRect'
p1905
sg44
g1
sg45
Nsbsbasbasbsg117
(lp1906
S'$R *.DFM'
p1907
asbsS'helpbuttonclick'
p1908
(i__main__
DelphiMethodImplementation
p1909
(dp1910
g230
g28
sg23
g30
sg31
(lp1911
(i__main__
DelphiFormalParameter
p1912
(dp1913
g35
Nsg36
(lp1914
S'Sender'
p1915
asg39
(i__main__
DelphiNamedType
p1916
(dp1917
g42
S'TObject'
p1918
sg44
g1
sg45
Nsbsg46
Nsbasg239
(lp1919
sg241
(lp1920
sg243
(lp1921
g245
ag1915
asg246
(dp1922
g1915
g1916
ssg47
S'TUndoRedoListForm'
p1923
sg48
Nsg249
(lp1924
sg49
I0
sg50
g51
sg251
(i__main__
DelphiBlock
p1925
(dp1926
g254
(idelphi
DelphiCompoundStatement
p1927
(dp1928
g257
(lp1929
(i__main__
DelphiAssignStatement
p1930
(dp1931
g261
Nsg272
(i__main__
DelphiIdentAccess
p1932
(dp1933
g264
S'application'
p1934
sg266
(lp1935
(idelphi
DelphiFieldEndAccess
p1936
(dp1937
g270
S'helpJump'
p1938
sba(idelphi
DelphiFunctionEndAccess
p1939
(dp1940
g292
(lp1941
(idelphi
DelphiStringAccess
p1942
(dp1943
g266
(lp1944
sg396
(idelphi
DelphiStringValue
p1945
(dp1946
g396
S'Using_the_undo/redo_list'
p1947
sbsbasbasbsbasbsg421
(lp1948
sbsbssS'propertyDeclarations'
p1949
(dp1950
sS'variableNamesInDeclaredOrder'
p1951
(lp1952
g12
ag22
ag10
ag18
ag14
ag20
ag16
asba(i__main__
DelphiConstSection
p1953
(dp1954
S'constDeclList'
p1955
(lp1956
(idelphi
DelphiConstDeclaration
p1957
(dp1958
g430
(idelphi
DelphiIntegerValue
p1959
(dp1960
g396
S'4'
sbsg264
S'kBetweenGap'
p1961
sg39
(idelphi
DelphiPrimitiveType
p1962
(dp1963
g42
S'UNDEFINED_NEEDS_CALCULATION'
p1964
sbsbasg425
I1
sbasS'includedUnits'
p1965
NsS'implementationUses'
p1966
(lp1967
S'umath'
p1968
aS'udomain'
p1969
aS'umain'
p1970
asg23
S'Uundo'
p1971
sS'constSections'
p1972
(lp1973
g1953
asS'globalsInProperCase'
p1974
NsS'interfaceUses'
p1975
(lp1976
S'delphi_compatability'
p1977
aS'Windows'
p1978
aS'Messages'
p1979
aS'SysUtils'
p1980
aS'Classes'
p1981
aS'Graphics'
p1982
aS'Controls'
p1983
aS'Forms'
p1984
aS'Dialogs'
p1985
aS'StdCtrls'
p1986
aS'Buttons'
p1987
aS'ucommand'
p1988
aS'updform'
p1989
asS'finalCommentToken'
p1990
(i__main__
PassStatement
p1991
(dp1992
g421
(lp1993
sbsS'varSections'
p1994
(lp1995
sS'globals'
p1996
NsS'originalFileName'
p1997
S'../../PlantStudioInPython/converted_source/Uundo.pas'
p1998
sS'proceduralImplementations'
p1999
(dp2000
sS'fileName'
p2001
S'/Users/pdf/Documents/workspace/PlantStudioInPython/converted_source/Uundo.pas'
p2002
sS'proceduralDeclarations'
p2003
(dp2004
sS'types'
p2005
(dp2006
S'tundoredolistform'
p2007
g5
ssb.