(i__main__
DelphiUnit
p1
(dp2
S'sectionsInOrderDefined'
p3
(lp4
(i__main__
DelphiClass
p5
(dp6
S'variableNamesInProperCase'
p7
(dp8
S'panel1'
p9
S'Panel1'
p10
sS'image1'
p11
S'Image1'
p12
sS'messagelabel'
p13
S'messageLabel'
p14
ssS'name'
p15
S'TWaitForm'
p16
sS'methodDeclarations'
p17
(dp18
S'createparams'
p19
(i__main__
DelphiMethodDeclaration
p20
(dp21
g15
S'CreateParams'
p22
sS'formalParameters'
p23
(lp24
(i__main__
DelphiFormalParameter
p25
(dp26
S'initialValue'
p27
NsS'names'
p28
(lp29
S'Params'
p30
asS'theType'
p31
(i__main__
DelphiNamedType
p32
(dp33
S'typeName'
p34
S'TCreateParams'
p35
sS'unitDefinedIn'
p36
g1
sS'unitName'
p37
NsbsS'parameterVariety'
p38
S'var'
p39
sbasS'className'
p40
g16
sS'resultType'
p41
NsS'isClassMethod'
p42
I0
sS'methodType'
p43
S'procedure'
p44
sS'commentLinesBefore'
p45
(lp46
S' Private declarations '
p47
aS' Public declarations '
p48
aS'$R *.DFM'
p49
asbssS'superclassNamedTypes'
p50
(lp51
(i__main__
DelphiNamedType
p52
(dp53
g34
S'TForm'
p54
sg36
g1
sg37
NsbasS'variableNames'
p55
(dp56
S'panel1'
p57
(i__main__
DelphiNamedType
p58
(dp59
g34
S'TPanel'
p60
sg36
g1
sg37
NsbsS'image1'
p61
(i__main__
DelphiNamedType
p62
(dp63
g34
S'TImage'
p64
sg36
g1
sg37
NsbsS'messagelabel'
p65
(i__main__
DelphiNamedType
p66
(dp67
g34
S'TLabel'
p68
sg36
g1
sg37
NsbssS'methodNamesInDefinedOrder'
p69
(lp70
S'createparams'
p71
asS'methodImplementations'
p72
(dp73
S'createparams'
p74
(i__main__
DelphiMethodImplementation
p75
(dp76
S'originalDeclaration'
p77
g20
sg15
g22
sg23
(lp78
(i__main__
DelphiFormalParameter
p79
(dp80
g27
Nsg28
(lp81
S'Params'
p82
asg31
(i__main__
DelphiNamedType
p83
(dp84
g34
S'TCreateParams'
p85
sg36
g1
sg37
Nsbsg38
g39
sbasS'varParamIndexes'
p86
(lp87
sS'varParamsSkipped'
p88
(lp89
g82
asS'argNames'
p90
(lp91
S'self'
p92
ag82
asS'argTypes'
p93
(dp94
g82
g83
ssg40
S'TWaitForm'
p95
sg41
NsS'varParamNames'
p96
(lp97
sg42
I0
sg43
g44
sS'block'
p98
(i__main__
DelphiBlock
p99
(dp100
S'compoundStatement'
p101
(idelphi
DelphiCompoundStatement
p102
(dp103
S'statements'
p104
(lp105
(i__main__
DelphiAssignStatement
p106
(dp107
S'newValueExpression'
p108
NsS'destinationExpression'
p109
(idelphi
DelphiInheritedCall
p110
(dp111
S'ident'
p112
S'CreateParams'
p113
sS'expressionList'
p114
(lp115
(i__main__
DelphiIdentAccess
p116
(dp117
g112
S'Params'
p118
sS'endAccessList'
p119
(lp120
sbasbsba(idelphi
DelphiWithStatement
p121
(dp122
S'statement'
p123
(i__main__
DelphiAssignStatement
p124
(dp125
g108
(idelphi
DelphiAddOp
p126
(dp127
S'addOp'
p128
S'or'
p129
sS'term2'
p130
(i__main__
DelphiIdentAccess
p131
(dp132
g112
S'WS_EX_DLGMODALFRAME'
p133
sg119
(lp134
sbsS'term1'
p135
(idelphi
DelphiAddOp
p136
(dp137
g128
g129
sg130
(i__main__
DelphiIdentAccess
p138
(dp139
g112
S'WS_BORDER'
p140
sg119
(lp141
sbsg135
(i__main__
DelphiIdentAccess
p142
(dp143
g112
S'Style'
p144
sg119
(lp145
sbsbsbsg109
(i__main__
DelphiIdentAccess
p146
(dp147
g112
S'Style'
p148
sg119
(lp149
sbsbsS'variableReferenceList'
p150
(lp151
(i__main__
DelphiIdentAccess
p152
(dp153
g112
S'Params'
p154
sg119
(lp155
sbasbasbsS'limitedDeclSectionList'
p156
(lp157
sbsg45
g46
sbssS'propertyDeclarations'
p158
(dp159
sS'variableNamesInDeclaredOrder'
p160
(lp161
g10
ag14
ag12
asba(i__main__
DelphiVarSection
p162
(dp163
S'atTopLevel'
p164
I1
sS'varDeclList'
p165
(lp166
(idelphi
DelphiVarDecl
p167
(dp168
S'constExpression'
p169
NsS'identList'
p170
(lp171
S'WaitForm'
p172
asg31
(i__main__
DelphiNamedType
p173
(dp174
g34
S'TWaitForm'
p175
sg36
g1
sg37
Nsbsbasba(i__main__
DelphiProceduralImplementation
p176
(dp177
g77
(i__main__
DelphiProceduralDeclaration
p178
(dp179
g23
(lp180
(i__main__
DelphiFormalParameter
p181
(dp182
g27
Nsg28
(lp183
S'messageString'
p184
asg31
(i__main__
DelphiPrimitiveType
p185
(dp186
g34
S'string'
p187
sbsg38
Nsbasg15
S'startWaitMessage'
p188
sg41
Nsbsg15
g188
sg41
Nsg86
(lp189
sg88
(lp190
sg90
(lp191
S'messageString'
p192
asg93
(dp193
g192
(i__main__
DelphiPrimitiveType
p194
(dp195
g34
g187
sbssg23
(lp196
(i__main__
DelphiFormalParameter
p197
(dp198
g27
Nsg28
(lp199
g192
asg31
g194
sg38
Nsbasg96
(lp200
sg98
(i__main__
DelphiBlock
p201
(dp202
g101
(idelphi
DelphiCompoundStatement
p203
(dp204
g104
(lp205
(idelphi
DelphiIfStatement
p206
(dp207
S'expression'
p208
(idelphi
DelphiRelOp
p209
(dp210
S'simpleExpression1'
p211
(i__main__
DelphiIdentAccess
p212
(dp213
g112
S'messageString'
p214
sg119
(lp215
sbsS'simpleExpression2'
p216
(idelphi
DelphiStringAccess
p217
(dp218
g119
(lp219
sg187
(idelphi
DelphiStringValue
p220
(dp221
g187
S''
sbsbsS'relOp'
p222
S'='
sbsS'ifFalseStatement'
p223
NsS'ifTrueStatement'
p224
(i__main__
DelphiExitStatement
p225
(dp226
S'proceduralOrMethodImplementation'
p227
g176
sbsba(idelphi
DelphiIfStatement
p228
(dp229
g208
(idelphi
DelphiRelOp
p230
(dp231
g211
(i__main__
DelphiIdentAccess
p232
(dp233
g112
S'WaitForm'
p234
sg119
(lp235
sbsg216
(idelphi
DelphiNilValue
p236
(dp237
bsg222
S'='
sbsg223
Nsg224
(i__main__
DelphiExitStatement
p238
(dp239
g227
g176
sbsba(idelphi
DelphiIfStatement
p240
(dp241
g208
(idelphi
DelphiRelOp
p242
(dp243
g211
(i__main__
DelphiIdentAccess
p244
(dp245
g112
S'WaitForm'
p246
sg119
(lp247
(idelphi
DelphiFieldEndAccess
p248
(dp249
S'field'
p250
S'messageLabel'
p251
sbasbsg216
(idelphi
DelphiNilValue
p252
(dp253
bsg222
S'='
sbsg223
Nsg224
(i__main__
DelphiExitStatement
p254
(dp255
g227
g176
sbsba(idelphi
DelphiIfStatement
p256
(dp257
g208
(idelphi
DelphiRelOp
p258
(dp259
g211
(i__main__
DelphiIdentAccess
p260
(dp261
g112
S'WaitForm'
p262
sg119
(lp263
(idelphi
DelphiFieldEndAccess
p264
(dp265
g250
S'messageLabel'
p266
sba(idelphi
DelphiFieldEndAccess
p267
(dp268
g250
S'canvas'
p269
sbasbsg216
(idelphi
DelphiNilValue
p270
(dp271
bsg222
S'='
sbsg223
Nsg224
(i__main__
DelphiExitStatement
p272
(dp273
g227
g176
sbsba(idelphi
DelphiWithStatement
p274
(dp275
g123
(idelphi
DelphiCompoundStatement
p276
(dp277
g104
(lp278
(i__main__
DelphiAssignStatement
p279
(dp280
g108
(i__main__
DelphiIdentAccess
p281
(dp282
g112
S'messageString'
p283
sg119
(lp284
sbsg109
(i__main__
DelphiIdentAccess
p285
(dp286
g112
S'caption'
p287
sg119
(lp288
sbsba(i__main__
DelphiAssignStatement
p289
(dp290
g108
(idelphi
DelphiAddOp
p291
(dp292
g128
S'+'
sg130
(idelphi
DelphiIntegerValue
p293
(dp294
g187
S'12'
p295
sbsg135
(idelphi
DelphiAddOp
p296
(dp297
g128
S'+'
sg130
(i__main__
DelphiIdentAccess
p298
(dp299
g112
S'width'
p300
sg119
(lp301
sbsg135
(i__main__
DelphiIdentAccess
p302
(dp303
g112
S'left'
p304
sg119
(lp305
sbsbsbsg109
(i__main__
DelphiIdentAccess
p306
(dp307
g112
S'WaitForm'
p308
sg119
(lp309
(idelphi
DelphiFieldEndAccess
p310
(dp311
g250
S'clientWidth'
p312
sbasbsba(idelphi
DelphiIfStatement
p313
(dp314
g208
(idelphi
DelphiRelOp
p315
(dp316
g211
(i__main__
DelphiIdentAccess
p317
(dp318
g112
S'WaitForm'
p319
sg119
(lp320
(idelphi
DelphiFieldEndAccess
p321
(dp322
g250
S'clientHeight'
p323
sbasbsg216
(idelphi
DelphiAddOp
p324
(dp325
g128
S'+'
sg130
(idelphi
DelphiIntegerValue
p326
(dp327
g187
S'8'
sbsg135
(i__main__
DelphiIdentAccess
p328
(dp329
g112
S'canvas'
p330
sg119
(lp331
(idelphi
DelphiFieldEndAccess
p332
(dp333
g250
S'textHeight'
p334
sba(idelphi
DelphiFunctionEndAccess
p335
(dp336
g114
(lp337
(idelphi
DelphiStringAccess
p338
(dp339
g119
(lp340
sg187
(idelphi
DelphiStringValue
p341
(dp342
g187
S'W'
sbsbasbasbsbsg222
S'<'
sbsg223
Nsg224
(i__main__
DelphiAssignStatement
p343
(dp344
g108
(idelphi
DelphiAddOp
p345
(dp346
g128
S'+'
sg130
(idelphi
DelphiIntegerValue
p347
(dp348
g187
S'8'
sbsg135
(i__main__
DelphiIdentAccess
p349
(dp350
g112
S'canvas'
p351
sg119
(lp352
(idelphi
DelphiFieldEndAccess
p353
(dp354
g250
S'textHeight'
p355
sba(idelphi
DelphiFunctionEndAccess
p356
(dp357
g114
(lp358
(idelphi
DelphiStringAccess
p359
(dp360
g119
(lp361
sg187
(idelphi
DelphiStringValue
p362
(dp363
g187
S'W'
sbsbasbasbsbsg109
(i__main__
DelphiIdentAccess
p364
(dp365
g112
S'WaitForm'
p366
sg119
(lp367
(idelphi
DelphiFieldEndAccess
p368
(dp369
g250
S'clientHeight'
p370
sbasbsbsba(i__main__
DelphiAssignStatement
p371
(dp372
g108
Nsg109
(i__main__
DelphiIdentAccess
p373
(dp374
g112
S'invalidate'
p375
sg119
(lp376
sbsbasbsg150
(lp377
(i__main__
DelphiIdentAccess
p378
(dp379
g112
S'WaitForm'
p380
sg119
(lp381
(idelphi
DelphiFieldEndAccess
p382
(dp383
g250
S'messageLabel'
p384
sbasbasba(i__main__
DelphiAssignStatement
p385
(dp386
g108
Nsg109
(i__main__
DelphiIdentAccess
p387
(dp388
g112
S'WaitForm'
p389
sg119
(lp390
(idelphi
DelphiFieldEndAccess
p391
(dp392
g250
S'show'
p393
sbasbsba(i__main__
DelphiAssignStatement
p394
(dp395
g108
Nsg109
(i__main__
DelphiIdentAccess
p396
(dp397
g112
S'application'
p398
sg119
(lp399
(idelphi
DelphiFieldEndAccess
p400
(dp401
g250
S'processMessages'
p402
sbasbsbasbsg156
(lp403
sbsba(i__main__
DelphiProceduralImplementation
p404
(dp405
g77
(i__main__
DelphiProceduralDeclaration
p406
(dp407
g23
(lp408
sg15
S'stopWaitMessage'
p409
sg41
Nsbsg15
g409
sg41
Nsg86
(lp410
sg88
(lp411
sg90
(lp412
sg93
(dp413
sg23
(lp414
sg96
(lp415
sg98
(i__main__
DelphiBlock
p416
(dp417
g101
(idelphi
DelphiCompoundStatement
p418
(dp419
g104
(lp420
(i__main__
DelphiAssignStatement
p421
(dp422
g108
Nsg109
(i__main__
DelphiIdentAccess
p423
(dp424
g112
S'waitForm'
p425
sg119
(lp426
(idelphi
DelphiFieldEndAccess
p427
(dp428
g250
S'hide'
p429
sbasbsba(i__main__
DelphiAssignStatement
p430
(dp431
g108
Nsg109
(i__main__
DelphiIdentAccess
p432
(dp433
g112
S'application'
p434
sg119
(lp435
(idelphi
DelphiFieldEndAccess
p436
(dp437
g250
S'processMessages'
p438
sbasbsbasbsg156
(lp439
sbsbasS'includedUnits'
p440
NsS'implementationUses'
p441
Nsg15
S'Uwait'
p442
sS'constSections'
p443
(lp444
sS'globalsInProperCase'
p445
NsS'interfaceUses'
p446
(lp447
S'delphi_compatability'
p448
aS'SysUtils'
p449
aS'WinTypes'
p450
aS'WinProcs'
p451
aS'Messages'
p452
aS'Classes'
p453
aS'Graphics'
p454
aS'Controls'
p455
aS'Forms'
p456
aS'Dialogs'
p457
aS'StdCtrls'
p458
aS'ExtCtrls'
p459
asS'finalCommentToken'
p460
(i__main__
PassStatement
p461
(dp462
g156
(lp463
sbsS'varSections'
p464
(lp465
g162
asS'globals'
p466
NsS'originalFileName'
p467
S'../../PlantStudioInPython/converted_source/uwait.pas'
p468
sS'proceduralImplementations'
p469
(dp470
S'startwaitmessage'
p471
g176
sS'stopwaitmessage'
p472
g404
ssS'fileName'
p473
S'/Users/pdf/Documents/workspace/PlantStudioInPython/converted_source/uwait.pas'
p474
sS'proceduralDeclarations'
p475
(dp476
S'startwaitmessage'
p477
g178
sS'stopwaitmessage'
p478
g406
ssS'types'
p479
(dp480
S'twaitform'
p481
g5
ssb.