(i__main__
DelphiUnit
p1
(dp2
S'sectionsInOrderDefined'
p3
(lp4
(i__main__
DelphiClass
p5
(dp6
S'variableNamesInProperCase'
p7
(dp8
S'openplantlibrary'
p9
S'openPlantLibrary'
p10
sS'label1'
p11
S'Label1'
p12
sS'label3'
p13
S'Label3'
p14
sS'makenewplant'
p15
S'makeNewPlant'
p16
sS'startusingprogram'
p17
S'startUsingProgram'
p18
sS'readtutorial'
p19
S'readTutorial'
p20
sS'hidewelcomeform'
p21
S'hideWelcomeForm'
p22
sS'image1'
p23
S'Image1'
p24
sS'readquickstarttiplist'
p25
S'readQuickStartTipList'
p26
sS'whattodo'
p27
S'whatToDo'
p28
ssS'name'
p29
S'TWelcomeForm'
p30
sS'methodDeclarations'
p31
(dp32
S'makenewplantclick'
p33
(i__main__
DelphiMethodDeclaration
p34
(dp35
g29
S'makeNewPlantClick'
p36
sS'formalParameters'
p37
(lp38
(i__main__
DelphiFormalParameter
p39
(dp40
S'initialValue'
p41
NsS'names'
p42
(lp43
S'Sender'
p44
asS'theType'
p45
(i__main__
DelphiNamedType
p46
(dp47
S'typeName'
p48
S'TObject'
p49
sS'unitDefinedIn'
p50
g1
sS'unitName'
p51
NsbsS'parameterVariety'
p52
NsbasS'className'
p53
g30
sS'resultType'
p54
NsS'isClassMethod'
p55
I0
sS'methodType'
p56
S'procedure'
p57
sbsS'readquickstarttiplistclick'
p58
(i__main__
DelphiMethodDeclaration
p59
(dp60
g29
S'readQuickStartTipListClick'
p61
sg37
(lp62
(i__main__
DelphiFormalParameter
p63
(dp64
g41
Nsg42
(lp65
S'Sender'
p66
asg45
(i__main__
DelphiNamedType
p67
(dp68
g48
S'TObject'
p69
sg50
g1
sg51
Nsbsg52
Nsbasg53
g30
sg54
Nsg55
I0
sg56
g57
sbsS'openplantlibraryclick'
p70
(i__main__
DelphiMethodDeclaration
p71
(dp72
g29
S'openPlantLibraryClick'
p73
sg37
(lp74
(i__main__
DelphiFormalParameter
p75
(dp76
g41
Nsg42
(lp77
S'Sender'
p78
asg45
(i__main__
DelphiNamedType
p79
(dp80
g48
S'TObject'
p81
sg50
g1
sg51
Nsbsg52
Nsbasg53
g30
sg54
Nsg55
I0
sg56
g57
sbsS'startusingprogramclick'
p82
(i__main__
DelphiMethodDeclaration
p83
(dp84
g29
S'startUsingProgramClick'
p85
sg37
(lp86
(i__main__
DelphiFormalParameter
p87
(dp88
g41
Nsg42
(lp89
S'Sender'
p90
asg45
(i__main__
DelphiNamedType
p91
(dp92
g48
S'TObject'
p93
sg50
g1
sg51
Nsbsg52
Nsbasg53
g30
sg54
Nsg55
I0
sg56
g57
sbsS'readtutorialclick'
p94
(i__main__
DelphiMethodDeclaration
p95
(dp96
g29
S'readTutorialClick'
p97
sg37
(lp98
(i__main__
DelphiFormalParameter
p99
(dp100
g41
Nsg42
(lp101
S'Sender'
p102
asg45
(i__main__
DelphiNamedType
p103
(dp104
g48
S'TObject'
p105
sg50
g1
sg51
Nsbsg52
Nsbasg53
g30
sg54
Nsg55
I0
sg56
g57
sbsS'createparams'
p106
(i__main__
DelphiMethodDeclaration
p107
(dp108
g29
S'CreateParams'
p109
sg37
(lp110
(i__main__
DelphiFormalParameter
p111
(dp112
g41
Nsg42
(lp113
S'Params'
p114
asg45
(i__main__
DelphiNamedType
p115
(dp116
g48
S'TCreateParams'
p117
sg50
g1
sg51
Nsbsg52
S'var'
p118
sbasg53
g30
sg54
Nsg55
I0
sg56
g57
sS'commentLinesBefore'
p119
(lp120
S' Private declarations '
p121
aS' Public declarations '
p122
aS'$R *.DFM'
p123
asbssS'superclassNamedTypes'
p124
(lp125
(i__main__
DelphiNamedType
p126
(dp127
g48
S'PdForm'
p128
sg50
g1
sg51
NsbasS'variableNames'
p129
(dp130
S'openplantlibrary'
p131
(i__main__
DelphiNamedType
p132
(dp133
g48
S'TButton'
p134
sg50
g1
sg51
NsbsS'label1'
p135
(i__main__
DelphiNamedType
p136
(dp137
g48
S'TLabel'
p138
sg50
g1
sg51
NsbsS'label3'
p139
(i__main__
DelphiNamedType
p140
(dp141
g48
S'TLabel'
p142
sg50
g1
sg51
NsbsS'makenewplant'
p143
(i__main__
DelphiNamedType
p144
(dp145
g48
S'TButton'
p146
sg50
g1
sg51
NsbsS'startusingprogram'
p147
(i__main__
DelphiNamedType
p148
(dp149
g48
S'TButton'
p150
sg50
g1
sg51
NsbsS'readtutorial'
p151
(i__main__
DelphiNamedType
p152
(dp153
g48
S'TButton'
p154
sg50
g1
sg51
NsbsS'hidewelcomeform'
p155
(i__main__
DelphiNamedType
p156
(dp157
g48
S'TCheckBox'
p158
sg50
g1
sg51
NsbsS'image1'
p159
(i__main__
DelphiNamedType
p160
(dp161
g48
S'TImage'
p162
sg50
g1
sg51
NsbsS'readquickstarttiplist'
p163
(i__main__
DelphiNamedType
p164
(dp165
g48
S'TButton'
p166
sg50
g1
sg51
NsbsS'whattodo'
p167
(i__main__
DelphiPrimitiveType
p168
(dp169
g48
S'smallint'
p170
sbssS'methodNamesInDefinedOrder'
p171
(lp172
S'createparams'
p173
aS'readquickstarttiplistclick'
p174
aS'readtutorialclick'
p175
aS'makenewplantclick'
p176
aS'openplantlibraryclick'
p177
aS'startusingprogramclick'
p178
asS'methodImplementations'
p179
(dp180
S'makenewplantclick'
p181
(i__main__
DelphiMethodImplementation
p182
(dp183
S'originalDeclaration'
p184
g34
sg29
g36
sg37
(lp185
(i__main__
DelphiFormalParameter
p186
(dp187
g41
Nsg42
(lp188
S'Sender'
p189
asg45
(i__main__
DelphiNamedType
p190
(dp191
g48
S'TObject'
p192
sg50
g1
sg51
Nsbsg52
NsbasS'varParamIndexes'
p193
(lp194
sS'varParamsSkipped'
p195
(lp196
sS'argNames'
p197
(lp198
S'self'
p199
ag189
asS'argTypes'
p200
(dp201
g189
g190
ssg53
S'TWelcomeForm'
p202
sg54
NsS'varParamNames'
p203
(lp204
sg55
I0
sg56
g57
sS'block'
p205
(i__main__
DelphiBlock
p206
(dp207
S'compoundStatement'
p208
(idelphi
DelphiCompoundStatement
p209
(dp210
S'statements'
p211
(lp212
(i__main__
DelphiAssignStatement
p213
(dp214
S'newValueExpression'
p215
(i__main__
DelphiIdentAccess
p216
(dp217
S'ident'
p218
S'kMakeNewPlant'
p219
sS'endAccessList'
p220
(lp221
sbsS'destinationExpression'
p222
(i__main__
DelphiIdentAccess
p223
(dp224
g218
S'whatToDo'
p225
sg220
(lp226
sbsba(i__main__
DelphiAssignStatement
p227
(dp228
g215
(i__main__
DelphiIdentAccess
p229
(dp230
g218
S'mrOk'
p231
sg220
(lp232
sbsg222
(i__main__
DelphiIdentAccess
p233
(dp234
g218
S'modalResult'
p235
sg220
(lp236
sbsbasbsS'limitedDeclSectionList'
p237
(lp238
sbsbsS'readquickstarttiplistclick'
p239
(i__main__
DelphiMethodImplementation
p240
(dp241
g184
g59
sg29
g61
sg37
(lp242
(i__main__
DelphiFormalParameter
p243
(dp244
g41
Nsg42
(lp245
S'Sender'
p246
asg45
(i__main__
DelphiNamedType
p247
(dp248
g48
S'TObject'
p249
sg50
g1
sg51
Nsbsg52
Nsbasg193
(lp250
sg195
(lp251
sg197
(lp252
g199
ag246
asg200
(dp253
g246
g247
ssg53
S'TWelcomeForm'
p254
sg54
Nsg203
(lp255
sg55
I0
sg56
g57
sg205
(i__main__
DelphiBlock
p256
(dp257
g208
(idelphi
DelphiCompoundStatement
p258
(dp259
g211
(lp260
(i__main__
DelphiAssignStatement
p261
(dp262
g215
(i__main__
DelphiIdentAccess
p263
(dp264
g218
S'kReadSuperSpeedTour'
p265
sg220
(lp266
sbsg222
(i__main__
DelphiIdentAccess
p267
(dp268
g218
S'whatToDo'
p269
sg220
(lp270
sbsba(i__main__
DelphiAssignStatement
p271
(dp272
g215
(i__main__
DelphiIdentAccess
p273
(dp274
g218
S'mrOk'
p275
sg220
(lp276
sbsg222
(i__main__
DelphiIdentAccess
p277
(dp278
g218
S'modalResult'
p279
sg220
(lp280
sbsbasbsg237
(lp281
sbsbsS'openplantlibraryclick'
p282
(i__main__
DelphiMethodImplementation
p283
(dp284
g184
g71
sg29
g73
sg37
(lp285
(i__main__
DelphiFormalParameter
p286
(dp287
g41
Nsg42
(lp288
S'Sender'
p289
asg45
(i__main__
DelphiNamedType
p290
(dp291
g48
S'TObject'
p292
sg50
g1
sg51
Nsbsg52
Nsbasg193
(lp293
sg195
(lp294
sg197
(lp295
g199
ag289
asg200
(dp296
g289
g290
ssg53
S'TWelcomeForm'
p297
sg54
Nsg203
(lp298
sg55
I0
sg56
g57
sg205
(i__main__
DelphiBlock
p299
(dp300
g208
(idelphi
DelphiCompoundStatement
p301
(dp302
g211
(lp303
(i__main__
DelphiAssignStatement
p304
(dp305
g215
(i__main__
DelphiIdentAccess
p306
(dp307
g218
S'kOpenPlantLibrary'
p308
sg220
(lp309
sbsg222
(i__main__
DelphiIdentAccess
p310
(dp311
g218
S'whatToDo'
p312
sg220
(lp313
sbsba(i__main__
DelphiAssignStatement
p314
(dp315
g215
(i__main__
DelphiIdentAccess
p316
(dp317
g218
S'mrOk'
p318
sg220
(lp319
sbsg222
(i__main__
DelphiIdentAccess
p320
(dp321
g218
S'modalResult'
p322
sg220
(lp323
sbsbasbsg237
(lp324
sbsbsS'startusingprogramclick'
p325
(i__main__
DelphiMethodImplementation
p326
(dp327
g184
g83
sg29
g85
sg37
(lp328
(i__main__
DelphiFormalParameter
p329
(dp330
g41
Nsg42
(lp331
S'Sender'
p332
asg45
(i__main__
DelphiNamedType
p333
(dp334
g48
S'TObject'
p335
sg50
g1
sg51
Nsbsg52
Nsbasg193
(lp336
sg195
(lp337
sg197
(lp338
g199
ag332
asg200
(dp339
g332
g333
ssg53
S'TWelcomeForm'
p340
sg54
Nsg203
(lp341
sg55
I0
sg56
g57
sg205
(i__main__
DelphiBlock
p342
(dp343
g208
(idelphi
DelphiCompoundStatement
p344
(dp345
g211
(lp346
(i__main__
DelphiAssignStatement
p347
(dp348
g215
(i__main__
DelphiIdentAccess
p349
(dp350
g218
S'kStartUsingProgram'
p351
sg220
(lp352
sbsg222
(i__main__
DelphiIdentAccess
p353
(dp354
g218
S'whatToDo'
p355
sg220
(lp356
sbsba(i__main__
DelphiAssignStatement
p357
(dp358
g215
(i__main__
DelphiIdentAccess
p359
(dp360
g218
S'mrOk'
p361
sg220
(lp362
sbsg222
(i__main__
DelphiIdentAccess
p363
(dp364
g218
S'modalResult'
p365
sg220
(lp366
sbsbasbsg237
(lp367
sbsbsS'readtutorialclick'
p368
(i__main__
DelphiMethodImplementation
p369
(dp370
g184
g95
sg29
g97
sg37
(lp371
(i__main__
DelphiFormalParameter
p372
(dp373
g41
Nsg42
(lp374
S'Sender'
p375
asg45
(i__main__
DelphiNamedType
p376
(dp377
g48
S'TObject'
p378
sg50
g1
sg51
Nsbsg52
Nsbasg193
(lp379
sg195
(lp380
sg197
(lp381
g199
ag375
asg200
(dp382
g375
g376
ssg53
S'TWelcomeForm'
p383
sg54
Nsg203
(lp384
sg55
I0
sg56
g57
sg205
(i__main__
DelphiBlock
p385
(dp386
g208
(idelphi
DelphiCompoundStatement
p387
(dp388
g211
(lp389
(i__main__
DelphiAssignStatement
p390
(dp391
g215
(i__main__
DelphiIdentAccess
p392
(dp393
g218
S'kReadTutorial'
p394
sg220
(lp395
sbsg222
(i__main__
DelphiIdentAccess
p396
(dp397
g218
S'whatToDo'
p398
sg220
(lp399
sbsba(i__main__
DelphiAssignStatement
p400
(dp401
g215
(i__main__
DelphiIdentAccess
p402
(dp403
g218
S'mrOk'
p404
sg220
(lp405
sbsg222
(i__main__
DelphiIdentAccess
p406
(dp407
g218
S'modalResult'
p408
sg220
(lp409
sbsbasbsg237
(lp410
sbsbsS'createparams'
p411
(i__main__
DelphiMethodImplementation
p412
(dp413
g184
g107
sg29
g109
sg37
(lp414
(i__main__
DelphiFormalParameter
p415
(dp416
g41
Nsg42
(lp417
S'Params'
p418
asg45
(i__main__
DelphiNamedType
p419
(dp420
g48
S'TCreateParams'
p421
sg50
g1
sg51
Nsbsg52
g118
sbasg193
(lp422
sg195
(lp423
g418
asg197
(lp424
g199
ag418
asg200
(dp425
g418
g419
ssg53
S'TWelcomeForm'
p426
sg54
Nsg203
(lp427
sg55
I0
sg56
g57
sg205
(i__main__
DelphiBlock
p428
(dp429
g208
(idelphi
DelphiCompoundStatement
p430
(dp431
g211
(lp432
(i__main__
DelphiAssignStatement
p433
(dp434
g215
Nsg222
(idelphi
DelphiInheritedCall
p435
(dp436
g218
S'CreateParams'
p437
sS'expressionList'
p438
(lp439
(i__main__
DelphiIdentAccess
p440
(dp441
g218
S'Params'
p442
sg220
(lp443
sbasbsba(idelphi
DelphiWithStatement
p444
(dp445
S'statement'
p446
(i__main__
DelphiAssignStatement
p447
(dp448
g215
(idelphi
DelphiAddOp
p449
(dp450
S'addOp'
p451
S'or'
p452
sS'term2'
p453
(i__main__
DelphiIdentAccess
p454
(dp455
g218
S'WS_EX_DLGMODALFRAME'
p456
sg220
(lp457
sbsS'term1'
p458
(idelphi
DelphiAddOp
p459
(dp460
g451
g452
sg453
(i__main__
DelphiIdentAccess
p461
(dp462
g218
S'WS_BORDER'
p463
sg220
(lp464
sbsg458
(i__main__
DelphiIdentAccess
p465
(dp466
g218
S'Style'
p467
sg220
(lp468
sbsbsbsg222
(i__main__
DelphiIdentAccess
p469
(dp470
g218
S'Style'
p471
sg220
(lp472
sbsbsS'variableReferenceList'
p473
(lp474
(i__main__
DelphiIdentAccess
p475
(dp476
g218
S'Params'
p477
sg220
(lp478
sbasbasbsg237
(lp479
sbsg119
g120
sbssS'propertyDeclarations'
p480
(dp481
sS'variableNamesInDeclaredOrder'
p482
(lp483
g22
ag14
ag12
ag24
ag26
ag20
ag16
ag10
ag18
ag28
asba(i__main__
DelphiConstSection
p484
(dp485
S'constDeclList'
p486
(lp487
(idelphi
DelphiConstDeclaration
p488
(dp489
S'constExpression'
p490
(idelphi
DelphiIntegerValue
p491
(dp492
S'string'
p493
S'0'
sbsg218
S'kReadSuperSpeedTour'
p494
sg45
(idelphi
DelphiPrimitiveType
p495
(dp496
g48
S'UNDEFINED_NEEDS_CALCULATION'
p497
sbsba(idelphi
DelphiConstDeclaration
p498
(dp499
g490
(idelphi
DelphiIntegerValue
p500
(dp501
g493
S'1'
sbsg218
S'kReadTutorial'
p502
sg45
(idelphi
DelphiPrimitiveType
p503
(dp504
g48
g497
sbsba(idelphi
DelphiConstDeclaration
p505
(dp506
g490
(idelphi
DelphiIntegerValue
p507
(dp508
g493
S'2'
sbsg218
S'kMakeNewPlant'
p509
sg45
(idelphi
DelphiPrimitiveType
p510
(dp511
g48
g497
sbsba(idelphi
DelphiConstDeclaration
p512
(dp513
g490
(idelphi
DelphiIntegerValue
p514
(dp515
g493
S'3'
sbsg218
S'kOpenPlantLibrary'
p516
sg45
(idelphi
DelphiPrimitiveType
p517
(dp518
g48
g497
sbsba(idelphi
DelphiConstDeclaration
p519
(dp520
g490
(idelphi
DelphiIntegerValue
p521
(dp522
g493
S'4'
sbsg218
S'kStartUsingProgram'
p523
sg45
(idelphi
DelphiPrimitiveType
p524
(dp525
g48
g497
sbsbasS'atTopLevel'
p526
I1
sbasS'includedUnits'
p527
NsS'implementationUses'
p528
Nsg29
S'uwelcome'
p529
sS'constSections'
p530
(lp531
g484
asS'globalsInProperCase'
p532
NsS'interfaceUses'
p533
(lp534
S'delphi_compatability'
p535
aS'Windows'
p536
aS'Messages'
p537
aS'SysUtils'
p538
aS'Classes'
p539
aS'Graphics'
p540
aS'Controls'
p541
aS'Forms'
p542
aS'Dialogs'
p543
aS'StdCtrls'
p544
aS'ExtCtrls'
p545
aS'updform'
p546
asS'finalCommentToken'
p547
(i__main__
PassStatement
p548
(dp549
g237
(lp550
sbsS'varSections'
p551
(lp552
sS'globals'
p553
NsS'originalFileName'
p554
S'../../PlantStudioInPython/converted_source/uwelcome.pas'
p555
sS'proceduralImplementations'
p556
(dp557
sS'fileName'
p558
S'/Users/pdf/Documents/workspace/PlantStudioInPython/converted_source/uwelcome.pas'
p559
sS'proceduralDeclarations'
p560
(dp561
sS'types'
p562
(dp563
S'twelcomeform'
p564
g5
ssb.