(i__main__
DelphiUnit
p1
(dp2
S'sectionsInOrderDefined'
p3
(lp4
(i__main__
DelphiClass
p5
(dp6
S'variableNamesInProperCase'
p7
(dp8
S'fminvalue'
p9
S'FMinValue'
p10
sS'fmaxvalue'
p11
S'FMaxValue'
p12
sS'fcurrentvalue'
p13
S'FCurrentValue'
p14
sS'draggerheight'
p15
S'draggerHeight'
p16
sS'originalvalue'
p17
S'originalValue'
p18
sS'dragstart'
p19
S'dragStart'
p20
sS'draggerrect'
p21
S'draggerRect'
p22
sS'dragging'
p23
S'dragging'
p24
sS'draggerwidth'
p25
S'draggerWidth'
p26
sS'freadonly'
p27
S'FReadOnly'
p28
ssS'name'
p29
S'KfWinSlider'
p30
sS'methodDeclarations'
p31
(dp32
S'xdistancefromcurrentvalue'
p33
(i__main__
DelphiMethodDeclaration
p34
(dp35
g29
S'xDistanceFromCurrentValue'
p36
sS'formalParameters'
p37
(lp38
(i__main__
DelphiFormalParameter
p39
(dp40
S'initialValue'
p41
NsS'names'
p42
(lp43
S'distanceInPixels'
p44
asS'theType'
p45
(i__main__
DelphiPrimitiveType
p46
(dp47
S'typeName'
p48
S'longint'
p49
sbsS'parameterVariety'
p50
NsbasS'className'
p51
g30
sS'resultType'
p52
(i__main__
DelphiPrimitiveType
p53
(dp54
g48
g49
sbsS'isClassMethod'
p55
I0
sS'methodType'
p56
S'function'
p57
sbsS'setvalue'
p58
(i__main__
DelphiMethodDeclaration
p59
(dp60
g29
S'setValue'
p61
sg37
(lp62
(i__main__
DelphiFormalParameter
p63
(dp64
g41
Nsg42
(lp65
S'newValue'
p66
asg45
(i__main__
DelphiPrimitiveType
p67
(dp68
g48
g49
sbsg50
Nsbasg51
g30
sg52
(i__main__
DelphiPrimitiveType
p69
(dp70
g48
S'boolean'
p71
sbsg55
I0
sg56
g57
sbsS'create'
p72
(i__main__
DelphiMethodDeclaration
p73
(dp74
g29
S'create'
p75
sg37
(lp76
(i__main__
DelphiFormalParameter
p77
(dp78
g41
Nsg42
(lp79
S'AnOwner'
p80
asg45
(i__main__
DelphiNamedType
p81
(dp82
g48
S'TComponent'
p83
sS'unitDefinedIn'
p84
g1
sS'unitName'
p85
Nsbsg50
Nsbasg51
g30
sg52
Nsg55
I0
sg56
S'constructor'
p86
sbsS'mouseup'
p87
(i__main__
DelphiMethodDeclaration
p88
(dp89
g29
S'mouseUp'
p90
sg37
(lp91
(i__main__
DelphiFormalParameter
p92
(dp93
g41
Nsg42
(lp94
S'Button'
p95
asg45
(i__main__
DelphiNamedType
p96
(dp97
g48
S'TMouseButton'
p98
sg84
g1
sg85
Nsbsg50
Nsba(i__main__
DelphiFormalParameter
p99
(dp100
g41
Nsg42
(lp101
S'Shift'
p102
asg45
(i__main__
DelphiNamedType
p103
(dp104
g48
S'TShiftState'
p105
sg84
g1
sg85
Nsbsg50
Nsba(i__main__
DelphiFormalParameter
p106
(dp107
g41
Nsg42
(lp108
S'X'
aS'Y'
asg45
(i__main__
DelphiPrimitiveType
p109
(dp110
g48
S'integer'
p111
sbsg50
Nsbasg51
g30
sg52
Nsg55
I0
sg56
S'procedure'
p112
sbsS'keydown'
p113
(i__main__
DelphiMethodDeclaration
p114
(dp115
g29
S'keyDown'
p116
sg37
(lp117
(i__main__
DelphiFormalParameter
p118
(dp119
g41
Nsg42
(lp120
S'Key'
p121
asg45
(i__main__
DelphiPrimitiveType
p122
(dp123
g48
S'word'
p124
sbsg50
S'var'
p125
sba(i__main__
DelphiFormalParameter
p126
(dp127
g41
Nsg42
(lp128
S'shift'
p129
asg45
(i__main__
DelphiNamedType
p130
(dp131
g48
S'TShiftState'
p132
sg84
g1
sg85
Nsbsg50
Nsbasg51
g30
sg52
Nsg55
I0
sg56
g112
sbsS'mousemove'
p133
(i__main__
DelphiMethodDeclaration
p134
(dp135
g29
S'mouseMove'
p136
sg37
(lp137
(i__main__
DelphiFormalParameter
p138
(dp139
g41
Nsg42
(lp140
S'Shift'
p141
asg45
(i__main__
DelphiNamedType
p142
(dp143
g48
S'TShiftState'
p144
sg84
g1
sg85
Nsbsg50
Nsba(i__main__
DelphiFormalParameter
p145
(dp146
g41
Nsg42
(lp147
S'X'
aS'Y'
asg45
(i__main__
DelphiPrimitiveType
p148
(dp149
g48
g111
sbsg50
Nsbasg51
g30
sg52
Nsg55
I0
sg56
g112
sbsS'paint'
p150
(i__main__
DelphiMethodDeclaration
p151
(dp152
g29
S'paint'
p153
sg37
(lp154
sg51
g30
sg52
Nsg55
I0
sg56
g112
sbsS'mousedown'
p155
(i__main__
DelphiMethodDeclaration
p156
(dp157
g29
S'mouseDown'
p158
sg37
(lp159
(i__main__
DelphiFormalParameter
p160
(dp161
g41
Nsg42
(lp162
S'Button'
p163
asg45
(i__main__
DelphiNamedType
p164
(dp165
g48
S'TMouseButton'
p166
sg84
g1
sg85
Nsbsg50
Nsba(i__main__
DelphiFormalParameter
p167
(dp168
g41
Nsg42
(lp169
S'Shift'
p170
asg45
(i__main__
DelphiNamedType
p171
(dp172
g48
S'TShiftState'
p173
sg84
g1
sg85
Nsbsg50
Nsba(i__main__
DelphiFormalParameter
p174
(dp175
g41
Nsg42
(lp176
S'X'
aS'Y'
asg45
(i__main__
DelphiPrimitiveType
p177
(dp178
g48
g111
sbsg50
Nsbasg51
g30
sg52
Nsg55
I0
sg56
g112
sbsS'usedefaultsizeanddraggersize'
p179
(i__main__
DelphiMethodDeclaration
p180
(dp181
g29
S'useDefaultSizeAndDraggerSize'
p182
sg37
(lp183
sg51
g30
sg52
Nsg55
I0
sg56
g112
sbsS'wmgetdlgcode'
p184
(i__main__
DelphiMethodDeclaration
p185
(dp186
g29
S'WMGetDlgCode'
p187
sg37
(lp188
(i__main__
DelphiFormalParameter
p189
(dp190
g41
Nsg42
(lp191
S'message'
p192
asg45
(i__main__
DelphiNamedType
p193
(dp194
g48
S'TWMGetDlgCode'
p195
sg84
g1
sg85
Nsbsg50
g125
sbasg51
g30
sg52
Nsg55
I0
sg56
g112
sbsS'pointondragger'
p196
(i__main__
DelphiMethodDeclaration
p197
(dp198
g29
S'pointOnDragger'
p199
sg37
(lp200
(i__main__
DelphiFormalParameter
p201
(dp202
g41
Nsg42
(lp203
S'x'
aS'y'
asg45
(i__main__
DelphiPrimitiveType
p204
(dp205
g48
g49
sbsg50
Nsbasg51
g30
sg52
(i__main__
DelphiPrimitiveType
p206
(dp207
g48
g71
sbsg55
I0
sg56
g57
sbsS'cmfocuschanged'
p208
(i__main__
DelphiMethodDeclaration
p209
(dp210
g29
S'CMFocusChanged'
p211
sg37
(lp212
(i__main__
DelphiFormalParameter
p213
(dp214
g41
Nsg42
(lp215
g192
asg45
(i__main__
DelphiNamedType
p216
(dp217
g48
S'TCMFocusChanged'
p218
sg84
g1
sg85
Nsbsg50
g125
sbasg51
g30
sg52
Nsg55
I0
sg56
g112
sbssS'superclassNamedTypes'
p219
(lp220
(i__main__
DelphiNamedType
p221
(dp222
g48
S'TCustomControl'
p223
sg84
g1
sg85
NsbasS'variableNames'
p224
(dp225
S'fminvalue'
p226
(i__main__
DelphiPrimitiveType
p227
(dp228
g48
g111
sbsS'fmaxvalue'
p229
(i__main__
DelphiPrimitiveType
p230
(dp231
g48
g111
sbsS'fcurrentvalue'
p232
(i__main__
DelphiPrimitiveType
p233
(dp234
g48
g111
sbsS'draggerheight'
p235
(i__main__
DelphiPrimitiveType
p236
(dp237
g48
g111
sbsS'originalvalue'
p238
(i__main__
DelphiPrimitiveType
p239
(dp240
g48
g111
sbsS'dragstart'
p241
(i__main__
DelphiPrimitiveType
p242
(dp243
g48
g111
sbsS'draggerrect'
p244
(i__main__
DelphiNamedType
p245
(dp246
g48
S'TRect'
p247
sg84
g1
sg85
NsbsS'dragging'
p248
(i__main__
DelphiPrimitiveType
p249
(dp250
g48
g71
sbsS'draggerwidth'
p251
g236
sS'freadonly'
p252
(i__main__
DelphiPrimitiveType
p253
(dp254
g48
g71
sbssS'methodNamesInDefinedOrder'
p255
(lp256
S'create'
p257
aS'usedefaultsizeanddraggersize'
p258
aS'cmfocuschanged'
p259
aS'wmgetdlgcode'
p260
aS'setvalue'
p261
aS'keydown'
p262
aS'pointondragger'
p263
aS'mousedown'
p264
aS'mousemove'
p265
aS'mouseup'
p266
aS'xdistancefromcurrentvalue'
p267
aS'paint'
p268
asS'methodImplementations'
p269
(dp270
S'xdistancefromcurrentvalue'
p271
(i__main__
DelphiMethodImplementation
p272
(dp273
S'originalDeclaration'
p274
g34
sg29
g36
sg37
(lp275
(i__main__
DelphiFormalParameter
p276
(dp277
g41
Nsg42
(lp278
S'distanceInPixels'
p279
asg45
(i__main__
DelphiPrimitiveType
p280
(dp281
g48
g49
sbsg50
NsbasS'varParamIndexes'
p282
(lp283
sS'varParamsSkipped'
p284
(lp285
sS'argNames'
p286
(lp287
S'self'
p288
ag279
asS'argTypes'
p289
(dp290
g279
g280
ssg51
S'KfWinSlider'
p291
sg52
(i__main__
DelphiPrimitiveType
p292
(dp293
g48
g49
sbsS'varParamNames'
p294
(lp295
sg55
I0
sg56
g57
sS'block'
p296
(i__main__
DelphiBlock
p297
(dp298
S'compoundStatement'
p299
(idelphi
DelphiCompoundStatement
p300
(dp301
S'statements'
p302
(lp303
(i__main__
DelphiAssignStatement
p304
(dp305
S'newValueExpression'
p306
(idelphi
DelphiMulOp
p307
(dp308
S'signedFactor2'
p309
(idelphi
DelphiNestedExpressionListAccess
p310
(dp311
S'endAccessList'
p312
(lp313
sS'expressionList'
p314
(lp315
(idelphi
DelphiAddOp
p316
(dp317
S'addOp'
p318
S'-'
sS'term2'
p319
(i__main__
DelphiIdentAccess
p320
(dp321
S'ident'
p322
S'minValue'
p323
sg312
(lp324
sbsS'term1'
p325
(i__main__
DelphiIdentAccess
p326
(dp327
g322
S'maxValue'
p328
sg312
(lp329
sbsbasbsS'mulOp'
p330
S'/'
sS'signedFactor1'
p331
(idelphi
DelphiNestedExpressionListAccess
p332
(dp333
g312
(lp334
sg314
(lp335
(idelphi
DelphiAddOp
p336
(dp337
g318
S'-'
sg319
(i__main__
DelphiIdentAccess
p338
(dp339
g322
S'minValue'
p340
sg312
(lp341
sbsg325
(i__main__
DelphiIdentAccess
p342
(dp343
g322
S'currentValue'
p344
sg312
(lp345
sbsbasbsbsS'destinationExpression'
p346
(i__main__
DelphiIdentAccess
p347
(dp348
g322
S'proportion'
p349
sg312
(lp350
sbsba(idelphi
DelphiTryExceptStatement
p351
(dp352
S'tryStatements'
p353
(lp354
(i__main__
DelphiAssignStatement
p355
(dp356
g306
(i__main__
DelphiIdentAccess
p357
(dp358
g322
S'round'
p359
sg312
(lp360
(idelphi
DelphiFunctionEndAccess
p361
(dp362
g314
(lp363
(idelphi
DelphiMulOp
p364
(dp365
g309
(i__main__
DelphiIdentAccess
p366
(dp367
g322
S'distanceInPixels'
p368
sg312
(lp369
sbsg330
S'*'
sg331
(i__main__
DelphiIdentAccess
p370
(dp371
g322
S'proportion'
p372
sg312
(lp373
sbsbasbasbsg346
(i__main__
DelphiIdentAccess
p374
(dp375
g322
S'result'
p376
sg312
(lp377
sbsbasS'exceptionHandlers'
p378
(idelphi
DelphiExceptionHandlers
p379
(dp380
S'exceptionHandlerList'
p381
NsS'statementList'
p382
(lp383
(i__main__
DelphiAssignStatement
p384
(dp385
g306
(idelphi
DelphiIntegerValue
p386
(dp387
S'string'
p388
S'0'
sbsg346
(i__main__
DelphiIdentAccess
p389
(dp390
g322
S'result'
p391
sg312
(lp392
sbsbasbsbasbsS'limitedDeclSectionList'
p393
(lp394
(i__main__
DelphiVarSection
p395
(dp396
S'atTopLevel'
p397
I0
sS'varDeclList'
p398
(lp399
(idelphi
DelphiVarDecl
p400
(dp401
S'constExpression'
p402
NsS'identList'
p403
(lp404
S'proportion'
p405
asg45
(i__main__
DelphiPrimitiveType
p406
(dp407
g48
S'single'
p408
sbsbasbasbsbsS'setvalue'
p409
(i__main__
DelphiMethodImplementation
p410
(dp411
g274
g59
sg29
g61
sg37
(lp412
(i__main__
DelphiFormalParameter
p413
(dp414
g41
Nsg42
(lp415
S'newValue'
p416
asg45
(i__main__
DelphiPrimitiveType
p417
(dp418
g48
g49
sbsg50
Nsbasg282
(lp419
sg284
(lp420
sg286
(lp421
g288
ag416
asg289
(dp422
g416
g417
ssg51
S'KfWinSlider'
p423
sg52
(i__main__
DelphiPrimitiveType
p424
(dp425
g48
g71
sbsg294
(lp426
sg55
I0
sg56
g57
sg296
(i__main__
DelphiBlock
p427
(dp428
g299
(idelphi
DelphiCompoundStatement
p429
(dp430
g302
(lp431
(i__main__
DelphiAssignStatement
p432
(dp433
g306
(i__main__
DelphiIdentAccess
p434
(dp435
g322
S'false'
p436
sg312
(lp437
sbsg346
(i__main__
DelphiIdentAccess
p438
(dp439
g322
S'result'
p440
sg312
(lp441
sbsba(idelphi
DelphiIfStatement
p442
(dp443
S'expression'
p444
(idelphi
DelphiRelOp
p445
(dp446
S'simpleExpression1'
p447
(i__main__
DelphiIdentAccess
p448
(dp449
g322
S'newValue'
p450
sg312
(lp451
sbsS'simpleExpression2'
p452
(i__main__
DelphiIdentAccess
p453
(dp454
g322
S'maxValue'
p455
sg312
(lp456
sbsS'relOp'
p457
S'>'
sbsS'ifFalseStatement'
p458
NsS'ifTrueStatement'
p459
(i__main__
DelphiAssignStatement
p460
(dp461
g306
(i__main__
DelphiIdentAccess
p462
(dp463
g322
S'maxValue'
p464
sg312
(lp465
sbsg346
(i__main__
DelphiIdentAccess
p466
(dp467
g322
S'newValue'
p468
sg312
(lp469
sbsbsba(idelphi
DelphiIfStatement
p470
(dp471
g444
(idelphi
DelphiRelOp
p472
(dp473
g447
(i__main__
DelphiIdentAccess
p474
(dp475
g322
S'newValue'
p476
sg312
(lp477
sbsg452
(i__main__
DelphiIdentAccess
p478
(dp479
g322
S'minValue'
p480
sg312
(lp481
sbsg457
S'<'
sbsg458
Nsg459
(i__main__
DelphiAssignStatement
p482
(dp483
g306
(i__main__
DelphiIdentAccess
p484
(dp485
g322
S'minValue'
p486
sg312
(lp487
sbsg346
(i__main__
DelphiIdentAccess
p488
(dp489
g322
S'newValue'
p490
sg312
(lp491
sbsbsba(idelphi
DelphiIfStatement
p492
(dp493
g444
(idelphi
DelphiRelOp
p494
(dp495
g447
(i__main__
DelphiIdentAccess
p496
(dp497
g322
S'newValue'
p498
sg312
(lp499
sbsg452
(i__main__
DelphiIdentAccess
p500
(dp501
g322
S'currentValue'
p502
sg312
(lp503
sbsg457
S'='
sbsg458
Nsg459
(i__main__
DelphiExitStatement
p504
(dp505
S'proceduralOrMethodImplementation'
p506
g410
sbsba(i__main__
DelphiAssignStatement
p507
(dp508
g306
(i__main__
DelphiIdentAccess
p509
(dp510
g322
S'newValue'
p511
sg312
(lp512
sbsg346
(i__main__
DelphiIdentAccess
p513
(dp514
g322
S'currentValue'
p515
sg312
(lp516
sbsba(i__main__
DelphiAssignStatement
p517
(dp518
g306
(i__main__
DelphiIdentAccess
p519
(dp520
g322
S'true'
p521
sg312
(lp522
sbsg346
(i__main__
DelphiIdentAccess
p523
(dp524
g322
S'result'
p525
sg312
(lp526
sbsS'commentLinesBefore'
p527
(lp528
S'repaint;   '
p529
asbasbsg393
(lp530
sbsg527
(lp531
S'returns true if current value changed'
p532
asbsS'create'
p533
(i__main__
DelphiMethodImplementation
p534
(dp535
g274
g73
sg29
g75
sg37
(lp536
(i__main__
DelphiFormalParameter
p537
(dp538
g41
Nsg42
(lp539
S'AnOwner'
p540
asg45
(i__main__
DelphiNamedType
p541
(dp542
g48
S'TComponent'
p543
sg84
g1
sg85
Nsbsg50
Nsbasg282
(lp544
sg284
(lp545
sg286
(lp546
g288
ag540
asg289
(dp547
g540
g541
ssg51
S'KfWinSlider'
p548
sg52
Nsg294
(lp549
sg55
I0
sg56
g86
sg296
(i__main__
DelphiBlock
p550
(dp551
g299
(idelphi
DelphiCompoundStatement
p552
(dp553
g302
(lp554
(i__main__
DelphiAssignStatement
p555
(dp556
g306
Nsg346
(idelphi
DelphiInheritedCall
p557
(dp558
g322
S'Create'
p559
sg314
(lp560
(i__main__
DelphiIdentAccess
p561
(dp562
g322
S'AnOwner'
p563
sg312
(lp564
sbasbsba(i__main__
DelphiAssignStatement
p565
(dp566
g306
(idelphi
DelphiIntegerValue
p567
(dp568
g388
S'140'
p569
sbsg346
(i__main__
DelphiIdentAccess
p570
(dp571
g322
S'width'
p572
sg312
(lp573
sbsba(i__main__
DelphiAssignStatement
p574
(dp575
g306
(idelphi
DelphiIntegerValue
p576
(dp577
g388
S'35'
p578
sbsg346
(i__main__
DelphiIdentAccess
p579
(dp580
g322
S'height'
p581
sg312
(lp582
sbsba(i__main__
DelphiAssignStatement
p583
(dp584
g306
(idelphi
DelphiIntegerValue
p585
(dp586
g388
S'0'
sbsg346
(i__main__
DelphiIdentAccess
p587
(dp588
g322
S'minValue'
p589
sg312
(lp590
sbsba(i__main__
DelphiAssignStatement
p591
(dp592
g306
(idelphi
DelphiIntegerValue
p593
(dp594
g388
S'100'
p595
sbsg346
(i__main__
DelphiIdentAccess
p596
(dp597
g322
S'maxValue'
p598
sg312
(lp599
sbsba(i__main__
DelphiAssignStatement
p600
(dp601
g306
(i__main__
DelphiIdentAccess
p602
(dp603
g322
S'kSliderDraggerHeight'
p604
sg312
(lp605
sbsg346
(i__main__
DelphiIdentAccess
p606
(dp607
g322
S'draggerHeight'
p608
sg312
(lp609
sbsba(i__main__
DelphiAssignStatement
p610
(dp611
g306
(i__main__
DelphiIdentAccess
p612
(dp613
g322
S'kSliderDraggerWidth'
p614
sg312
(lp615
sbsg346
(i__main__
DelphiIdentAccess
p616
(dp617
g322
S'draggerWidth'
p618
sg312
(lp619
sbsba(i__main__
DelphiAssignStatement
p620
(dp621
g306
(i__main__
DelphiIdentAccess
p622
(dp623
g322
S'false'
p624
sg312
(lp625
sbsg346
(i__main__
DelphiIdentAccess
p626
(dp627
g322
S'readOnly'
p628
sg312
(lp629
sbsba(i__main__
DelphiAssignStatement
p630
(dp631
g306
(idelphi
DelphiIntegerValue
p632
(dp633
g388
S'0'
sbsg346
(i__main__
DelphiIdentAccess
p634
(dp635
g322
S'currentValue'
p636
sg312
(lp637
sbsba(i__main__
DelphiAssignStatement
p638
(dp639
g306
(i__main__
DelphiIdentAccess
p640
(dp641
g322
S'false'
p642
sg312
(lp643
sbsg346
(i__main__
DelphiIdentAccess
p644
(dp645
g322
S'dragging'
p646
sg312
(lp647
sbsba(i__main__
DelphiAssignStatement
p648
(dp649
g306
(i__main__
DelphiIdentAccess
p650
(dp651
g322
S'True'
p652
sg312
(lp653
sbsg346
(i__main__
DelphiIdentAccess
p654
(dp655
g322
S'TabStop'
p656
sg312
(lp657
sbsba(i__main__
DelphiAssignStatement
p658
(dp659
g306
Nsg346
(i__main__
DelphiIdentAccess
p660
(dp661
g322
S'useDefaultSizeAndDraggerSize'
p662
sg312
(lp663
sbsbasbsg393
(lp664
sbsbsS'mouseup'
p665
(i__main__
DelphiMethodImplementation
p666
(dp667
g274
g88
sg29
g90
sg37
(lp668
(i__main__
DelphiFormalParameter
p669
(dp670
g41
Nsg42
(lp671
S'Button'
p672
asg45
(i__main__
DelphiNamedType
p673
(dp674
g48
S'TMouseButton'
p675
sg84
g1
sg85
Nsbsg50
Nsba(i__main__
DelphiFormalParameter
p676
(dp677
g41
Nsg42
(lp678
S'Shift'
p679
asg45
(i__main__
DelphiNamedType
p680
(dp681
g48
S'TShiftState'
p682
sg84
g1
sg85
Nsbsg50
Nsba(i__main__
DelphiFormalParameter
p683
(dp684
g41
Nsg42
(lp685
S'X'
aS'Y'
asg45
(i__main__
DelphiPrimitiveType
p686
(dp687
g48
g111
sbsg50
Nsbasg282
(lp688
sg284
(lp689
sg286
(lp690
g288
ag672
ag679
aS'X'
aS'Y'
asg289
(dp691
S'Y'
g686
sg679
g680
sg672
g673
sS'X'
g686
ssg51
S'KfWinSlider'
p692
sg52
Nsg294
(lp693
sg55
I0
sg56
g112
sg296
(i__main__
DelphiBlock
p694
(dp695
g299
(idelphi
DelphiCompoundStatement
p696
(dp697
g302
(lp698
(i__main__
DelphiAssignStatement
p699
(dp700
g306
Nsg346
(idelphi
DelphiInheritedCall
p701
(dp702
g322
Nsg314
Nsbsba(idelphi
DelphiIfStatement
p703
(dp704
g444
(i__main__
DelphiIdentAccess
p705
(dp706
g322
S'dragging'
p707
sg312
(lp708
sbsg458
Nsg459
(i__main__
DelphiAssignStatement
p709
(dp710
g306
(i__main__
DelphiIdentAccess
p711
(dp712
g322
S'false'
p713
sg312
(lp714
sbsg346
(i__main__
DelphiIdentAccess
p715
(dp716
g322
S'dragging'
p717
sg312
(lp718
sbsbsbasbsg393
(lp719
sbsbsS'keydown'
p720
(i__main__
DelphiMethodImplementation
p721
(dp722
g274
g114
sg29
g116
sg37
(lp723
(i__main__
DelphiFormalParameter
p724
(dp725
g41
Nsg42
(lp726
S'Key'
p727
asg45
(i__main__
DelphiPrimitiveType
p728
(dp729
g48
g124
sbsg50
g125
sba(i__main__
DelphiFormalParameter
p730
(dp731
g41
Nsg42
(lp732
S'shift'
p733
asg45
(i__main__
DelphiNamedType
p734
(dp735
g48
S'TShiftState'
p736
sg84
g1
sg85
Nsbsg50
Nsbasg282
(lp737
I0
asg284
(lp738
sg286
(lp739
g288
ag727
ag733
asg289
(dp740
g733
g734
sg727
g728
ssg51
S'KfWinSlider'
p741
sg52
Nsg294
(lp742
g727
asg55
I0
sg56
g112
sg296
(i__main__
DelphiBlock
p743
(dp744
g299
(idelphi
DelphiCompoundStatement
p745
(dp746
g302
(lp747
(i__main__
DelphiAssignStatement
p748
(dp749
g306
Nsg346
(idelphi
DelphiInheritedCall
p750
(dp751
g322
Nsg314
Nsbsba(idelphi
DelphiIfStatement
p752
(dp753
g444
(idelphi
DelphiNot
p754
(dp755
S'factor'
p756
(i__main__
DelphiIdentAccess
p757
(dp758
g322
S'self'
p759
sg312
(lp760
(idelphi
DelphiFieldEndAccess
p761
(dp762
S'field'
p763
S'readOnly'
p764
sbasbsbsg458
Nsg459
(idelphi
DelphiCompoundStatement
p765
(dp766
g302
(lp767
(idelphi
DelphiCaseStatement
p768
(dp769
S'elseStatement'
p770
(i__main__
DelphiExitStatement
p771
(dp772
g506
g721
sbsg444
(i__main__
DelphiIdentAccess
p773
(dp774
g322
S'key'
p775
sg312
(lp776
sbsS'caseSelectorList'
p777
(lp778
(idelphi
DelphiCaseSelector
p779
(dp780
S'statement'
p781
(i__main__
DelphiAssignStatement
p782
(dp783
g306
(idelphi
DelphiAddOp
p784
(dp785
g318
S'-'
sg319
(idelphi
DelphiIntegerValue
p786
(dp787
g388
S'1'
sbsg325
(i__main__
DelphiIdentAccess
p788
(dp789
g322
S'currentValue'
p790
sg312
(lp791
sbsbsg346
(i__main__
DelphiIdentAccess
p792
(dp793
g322
S'newValue'
p794
sg312
(lp795
sbsbsS'caseLabelList'
p796
(lp797
(i__main__
DelphiIdentAccess
p798
(dp799
g322
S'VK_LEFT'
p800
sg312
(lp801
sbasba(idelphi
DelphiCaseSelector
p802
(dp803
g781
(i__main__
DelphiAssignStatement
p804
(dp805
g306
(idelphi
DelphiAddOp
p806
(dp807
g318
S'+'
sg319
(idelphi
DelphiIntegerValue
p808
(dp809
g388
S'1'
sbsg325
(i__main__
DelphiIdentAccess
p810
(dp811
g322
S'currentValue'
p812
sg312
(lp813
sbsbsg346
(i__main__
DelphiIdentAccess
p814
(dp815
g322
S'newValue'
p816
sg312
(lp817
sbsbsg796
(lp818
(i__main__
DelphiIdentAccess
p819
(dp820
g322
S'VK_RIGHT'
p821
sg312
(lp822
sbasba(idelphi
DelphiCaseSelector
p823
(dp824
g781
(i__main__
DelphiAssignStatement
p825
(dp826
g306
(idelphi
DelphiAddOp
p827
(dp828
g318
S'+'
sg319
(idelphi
DelphiIntegerValue
p829
(dp830
g388
S'1'
sbsg325
(i__main__
DelphiIdentAccess
p831
(dp832
g322
S'currentValue'
p833
sg312
(lp834
sbsbsg346
(i__main__
DelphiIdentAccess
p835
(dp836
g322
S'newValue'
p837
sg312
(lp838
sbsbsg796
(lp839
(i__main__
DelphiIdentAccess
p840
(dp841
g322
S'VK_UP'
p842
sg312
(lp843
sbasba(idelphi
DelphiCaseSelector
p844
(dp845
g781
(i__main__
DelphiAssignStatement
p846
(dp847
g306
(idelphi
DelphiAddOp
p848
(dp849
g318
S'-'
sg319
(idelphi
DelphiIntegerValue
p850
(dp851
g388
S'1'
sbsg325
(i__main__
DelphiIdentAccess
p852
(dp853
g322
S'currentValue'
p854
sg312
(lp855
sbsbsg346
(i__main__
DelphiIdentAccess
p856
(dp857
g322
S'newValue'
p858
sg312
(lp859
sbsbsg796
(lp860
(i__main__
DelphiIdentAccess
p861
(dp862
g322
S'VK_DOWN'
p863
sg312
(lp864
sbasba(idelphi
DelphiCaseSelector
p865
(dp866
g781
(i__main__
DelphiAssignStatement
p867
(dp868
g306
(idelphi
DelphiAddOp
p869
(dp870
g318
S'-'
sg319
(idelphi
DelphiIntegerValue
p871
(dp872
g388
S'5'
sbsg325
(i__main__
DelphiIdentAccess
p873
(dp874
g322
S'currentValue'
p875
sg312
(lp876
sbsbsg346
(i__main__
DelphiIdentAccess
p877
(dp878
g322
S'newValue'
p879
sg312
(lp880
sbsg527
(lp881
S'page up'
p882
asbsg796
(lp883
(i__main__
DelphiIdentAccess
p884
(dp885
g322
S'VK_NEXT'
p886
sg312
(lp887
sbasba(idelphi
DelphiCaseSelector
p888
(dp889
g781
(i__main__
DelphiAssignStatement
p890
(dp891
g306
(idelphi
DelphiAddOp
p892
(dp893
g318
S'+'
sg319
(idelphi
DelphiIntegerValue
p894
(dp895
g388
S'5'
sbsg325
(i__main__
DelphiIdentAccess
p896
(dp897
g322
S'currentValue'
p898
sg312
(lp899
sbsbsg346
(i__main__
DelphiIdentAccess
p900
(dp901
g322
S'newValue'
p902
sg312
(lp903
sbsg527
(lp904
S'page down'
p905
asbsg796
(lp906
(i__main__
DelphiIdentAccess
p907
(dp908
g322
S'VK_PRIOR'
p909
sg312
(lp910
sbasbasba(i__main__
DelphiAssignStatement
p911
(dp912
g306
Nsg346
(i__main__
DelphiIdentAccess
p913
(dp914
g322
S'self'
p915
sg312
(lp916
(idelphi
DelphiFieldEndAccess
p917
(dp918
g763
S'invalidate'
p919
sbasbsba(i__main__
DelphiAssignStatement
p920
(dp921
g306
Nsg346
(i__main__
DelphiIdentAccess
p922
(dp923
g322
S'self'
p924
sg312
(lp925
(idelphi
DelphiFieldEndAccess
p926
(dp927
g763
S'refresh'
p928
sbasbsba(i__main__
DelphiAssignStatement
p929
(dp930
g306
Nsg346
(i__main__
DelphiIdentAccess
p931
(dp932
g322
S'self'
p933
sg312
(lp934
(idelphi
DelphiFieldEndAccess
p935
(dp936
g763
S'setValue'
p937
sba(idelphi
DelphiFunctionEndAccess
p938
(dp939
g314
(lp940
(i__main__
DelphiIdentAccess
p941
(dp942
g322
S'newValue'
p943
sg312
(lp944
sbasbasbsbasbsbasbsg393
(lp945
(i__main__
DelphiVarSection
p946
(dp947
g397
I0
sg398
(lp948
(idelphi
DelphiVarDecl
p949
(dp950
g402
Nsg403
(lp951
S'newValue'
p952
asg45
(i__main__
DelphiPrimitiveType
p953
(dp954
g48
g49
sbsbasbasbsbsS'mousemove'
p955
(i__main__
DelphiMethodImplementation
p956
(dp957
g274
g134
sg29
g136
sg37
(lp958
(i__main__
DelphiFormalParameter
p959
(dp960
g41
Nsg42
(lp961
S'Shift'
p962
asg45
(i__main__
DelphiNamedType
p963
(dp964
g48
S'TShiftState'
p965
sg84
g1
sg85
Nsbsg50
Nsba(i__main__
DelphiFormalParameter
p966
(dp967
g41
Nsg42
(lp968
S'X'
aS'Y'
asg45
(i__main__
DelphiPrimitiveType
p969
(dp970
g48
g111
sbsg50
Nsbasg282
(lp971
sg284
(lp972
sg286
(lp973
g288
ag962
aS'X'
aS'Y'
asg289
(dp974
S'Y'
g969
sg962
g963
sS'X'
g969
ssg51
S'KfWinSlider'
p975
sg52
Nsg294
(lp976
sg55
I0
sg56
g112
sg296
(i__main__
DelphiBlock
p977
(dp978
g299
(idelphi
DelphiCompoundStatement
p979
(dp980
g302
(lp981
(i__main__
DelphiAssignStatement
p982
(dp983
g306
Nsg346
(idelphi
DelphiInheritedCall
p984
(dp985
g322
Nsg314
Nsbsba(idelphi
DelphiIfStatement
p986
(dp987
g444
(i__main__
DelphiIdentAccess
p988
(dp989
g322
S'dragging'
p990
sg312
(lp991
sbsg458
Nsg459
(idelphi
DelphiCompoundStatement
p992
(dp993
g302
(lp994
(i__main__
DelphiAssignStatement
p995
(dp996
g306
(idelphi
DelphiAddOp
p997
(dp998
g318
S'-'
sg319
(i__main__
DelphiIdentAccess
p999
(dp1000
g322
S'dragStart'
p1001
sg312
(lp1002
sbsg325
(i__main__
DelphiIdentAccess
p1003
(dp1004
g322
S'x'
sg312
(lp1005
sbsbsg346
(i__main__
DelphiIdentAccess
p1006
(dp1007
g322
S'delta'
p1008
sg312
(lp1009
sbsba(i__main__
DelphiAssignStatement
p1010
(dp1011
g306
(idelphi
DelphiAddOp
p1012
(dp1013
g318
S'-'
sg319
(idelphi
DelphiMulOp
p1014
(dp1015
g309
(idelphi
DelphiNestedExpressionListAccess
p1016
(dp1017
g312
(lp1018
sg314
(lp1019
(idelphi
DelphiMulOp
p1020
(dp1021
g309
(idelphi
DelphiIntegerValue
p1022
(dp1023
g388
S'2'
sbsg330
S'div'
p1024
sg331
(i__main__
DelphiIdentAccess
p1025
(dp1026
g322
S'draggerWidth'
p1027
sg312
(lp1028
sbsbasbsg330
S'*'
sg331
(idelphi
DelphiIntegerValue
p1029
(dp1030
g388
S'2'
sbsbsg325
(i__main__
DelphiIdentAccess
p1031
(dp1032
g322
S'self'
p1033
sg312
(lp1034
(idelphi
DelphiFieldEndAccess
p1035
(dp1036
g763
S'width'
p1037
sbasbsbsg346
(i__main__
DelphiIdentAccess
p1038
(dp1039
g322
S'lineLength'
p1040
sg312
(lp1041
sbsg527
(lp1042
S"pdf fix - won't snap to grid - will just change relative..."
p1043
asba(i__main__
DelphiAssignStatement
p1044
(dp1045
g306
(idelphi
DelphiAddOp
p1046
(dp1047
g318
S'+'
sg319
(i__main__
DelphiIdentAccess
p1048
(dp1049
g322
S'round'
p1050
sg312
(lp1051
(idelphi
DelphiFunctionEndAccess
p1052
(dp1053
g314
(lp1054
(idelphi
DelphiMulOp
p1055
(dp1056
g309
(i__main__
DelphiIdentAccess
p1057
(dp1058
g322
S'lineLength'
p1059
sg312
(lp1060
sbsg330
S'/'
sg331
(idelphi
DelphiMulOp
p1061
(dp1062
g309
(idelphi
DelphiNestedExpressionListAccess
p1063
(dp1064
g312
(lp1065
sg314
(lp1066
(idelphi
DelphiAddOp
p1067
(dp1068
g318
S'-'
sg319
(i__main__
DelphiIdentAccess
p1069
(dp1070
g322
S'minValue'
p1071
sg312
(lp1072
sbsg325
(i__main__
DelphiIdentAccess
p1073
(dp1074
g322
S'maxValue'
p1075
sg312
(lp1076
sbsbasbsg330
S'*'
sg331
(i__main__
DelphiIdentAccess
p1077
(dp1078
g322
S'delta'
p1079
sg312
(lp1080
sbsbsbasbasbsg325
(i__main__
DelphiIdentAccess
p1081
(dp1082
g322
S'originalValue'
p1083
sg312
(lp1084
sbsbsg346
(i__main__
DelphiIdentAccess
p1085
(dp1086
g322
S'newValue'
p1087
sg312
(lp1088
sbsba(i__main__
DelphiAssignStatement
p1089
(dp1090
g306
Nsg346
(i__main__
DelphiIdentAccess
p1091
(dp1092
g322
S'self'
p1093
sg312
(lp1094
(idelphi
DelphiFieldEndAccess
p1095
(dp1096
g763
S'invalidate'
p1097
sbasbsba(i__main__
DelphiAssignStatement
p1098
(dp1099
g306
Nsg346
(i__main__
DelphiIdentAccess
p1100
(dp1101
g322
S'self'
p1102
sg312
(lp1103
(idelphi
DelphiFieldEndAccess
p1104
(dp1105
g763
S'refresh'
p1106
sbasbsba(i__main__
DelphiAssignStatement
p1107
(dp1108
g306
Nsg346
(i__main__
DelphiIdentAccess
p1109
(dp1110
g322
S'self'
p1111
sg312
(lp1112
(idelphi
DelphiFieldEndAccess
p1113
(dp1114
g763
S'setValue'
p1115
sba(idelphi
DelphiFunctionEndAccess
p1116
(dp1117
g314
(lp1118
(i__main__
DelphiIdentAccess
p1119
(dp1120
g322
S'newValue'
p1121
sg312
(lp1122
sbasbasbsbasbsbasbsg393
(lp1123
(i__main__
DelphiVarSection
p1124
(dp1125
g397
I0
sg398
(lp1126
(idelphi
DelphiVarDecl
p1127
(dp1128
g402
Nsg403
(lp1129
S'delta'
p1130
aS'newValue'
p1131
aS'lineLength'
p1132
asg45
(i__main__
DelphiPrimitiveType
p1133
(dp1134
g48
g49
sbsbasbasbsbsS'paint'
p1135
(i__main__
DelphiMethodImplementation
p1136
(dp1137
g274
g151
sg29
g153
sg37
(lp1138
sg282
(lp1139
sg284
(lp1140
sg286
(lp1141
g288
asg289
(dp1142
sg51
S'KfWinSlider'
p1143
sg52
Nsg294
(lp1144
sg55
I0
sg56
g112
sg296
(i__main__
DelphiBlock
p1145
(dp1146
g299
(idelphi
DelphiCompoundStatement
p1147
(dp1148
g302
(lp1149
(idelphi
DelphiWithStatement
p1150
(dp1151
g781
(idelphi
DelphiCompoundStatement
p1152
(dp1153
g302
(lp1154
(i__main__
DelphiAssignStatement
p1155
(dp1156
g306
(i__main__
DelphiIdentAccess
p1157
(dp1158
g322
S'self'
p1159
sg312
(lp1160
(idelphi
DelphiFieldEndAccess
p1161
(dp1162
g763
S'getClientRect'
p1163
sbasbsg346
(i__main__
DelphiIdentAccess
p1164
(dp1165
g322
S'fullRect'
p1166
sg312
(lp1167
sbsba(i__main__
DelphiAssignStatement
p1168
(dp1169
g306
(i__main__
DelphiIdentAccess
p1170
(dp1171
g322
S'clBtnFace'
p1172
sg312
(lp1173
sbsg346
(i__main__
DelphiIdentAccess
p1174
(dp1175
g322
S'brush'
p1176
sg312
(lp1177
(idelphi
DelphiFieldEndAccess
p1178
(dp1179
g763
S'color'
p1180
sbasbsg527
(lp1181
S' start with total fill '
p1182
asba(i__main__
DelphiAssignStatement
p1183
(dp1184
g306
(i__main__
DelphiIdentAccess
p1185
(dp1186
g322
S'bsSolid'
p1187
sg312
(lp1188
sbsg346
(i__main__
DelphiIdentAccess
p1189
(dp1190
g322
S'brush'
p1191
sg312
(lp1192
(idelphi
DelphiFieldEndAccess
p1193
(dp1194
g763
S'style'
p1195
sbasbsba(i__main__
DelphiAssignStatement
p1196
(dp1197
g306
Nsg346
(i__main__
DelphiIdentAccess
p1198
(dp1199
g322
S'fillRect'
p1200
sg312
(lp1201
(idelphi
DelphiFunctionEndAccess
p1202
(dp1203
g314
(lp1204
(i__main__
DelphiIdentAccess
p1205
(dp1206
g322
S'fullRect'
p1207
sg312
(lp1208
sbasbasbsba(i__main__
DelphiAssignStatement
p1209
(dp1210
g306
(i__main__
DelphiIdentAccess
p1211
(dp1212
g322
S'fullRect'
p1213
sg312
(lp1214
sbsg346
(i__main__
DelphiIdentAccess
p1215
(dp1216
g322
S'lineRect'
p1217
sg312
(lp1218
sbsg527
(lp1219
S' rect for line '
p1220
asba(idelphi
DelphiWithStatement
p1221
(dp1222
g781
(idelphi
DelphiCompoundStatement
p1223
(dp1224
g302
(lp1225
(i__main__
DelphiAssignStatement
p1226
(dp1227
g306
(idelphi
DelphiAddOp
p1228
(dp1229
g318
S'+'
sg319
(idelphi
DelphiIntegerValue
p1230
(dp1231
g388
S'2'
sbsg325
(idelphi
DelphiAddOp
p1232
(dp1233
g318
S'+'
sg319
(idelphi
DelphiMulOp
p1234
(dp1235
g309
(idelphi
DelphiIntegerValue
p1236
(dp1237
g388
S'2'
sbsg330
g1024
sg331
(i__main__
DelphiIdentAccess
p1238
(dp1239
g322
S'draggerWidth'
p1240
sg312
(lp1241
sbsbsg325
(i__main__
DelphiIdentAccess
p1242
(dp1243
g322
S'left'
p1244
sg312
(lp1245
sbsbsbsg346
(i__main__
DelphiIdentAccess
p1246
(dp1247
g322
S'left'
p1248
sg312
(lp1249
sbsba(i__main__
DelphiAssignStatement
p1250
(dp1251
g306
(idelphi
DelphiAddOp
p1252
(dp1253
g318
S'-'
sg319
(idelphi
DelphiIntegerValue
p1254
(dp1255
g388
S'1'
sbsg325
(idelphi
DelphiAddOp
p1256
(dp1257
g318
S'-'
sg319
(idelphi
DelphiMulOp
p1258
(dp1259
g309
(idelphi
DelphiIntegerValue
p1260
(dp1261
g388
S'2'
sbsg330
g1024
sg331
(i__main__
DelphiIdentAccess
p1262
(dp1263
g322
S'draggerWidth'
p1264
sg312
(lp1265
sbsbsg325
(i__main__
DelphiIdentAccess
p1266
(dp1267
g322
S'right'
p1268
sg312
(lp1269
sbsbsbsg346
(i__main__
DelphiIdentAccess
p1270
(dp1271
g322
S'right'
p1272
sg312
(lp1273
sbsba(i__main__
DelphiAssignStatement
p1274
(dp1275
g306
(idelphi
DelphiAddOp
p1276
(dp1277
g318
S'-'
sg319
(idelphi
DelphiMulOp
p1278
(dp1279
g309
(idelphi
DelphiIntegerValue
p1280
(dp1281
g388
S'2'
sbsg330
g1024
sg331
(i__main__
DelphiIdentAccess
p1282
(dp1283
g322
S'kSliderBlueLineThickness'
p1284
sg312
(lp1285
sbsbsg325
(idelphi
DelphiAddOp
p1286
(dp1287
g318
S'+'
sg319
(idelphi
DelphiMulOp
p1288
(dp1289
g309
(idelphi
DelphiIntegerValue
p1290
(dp1291
g388
S'2'
sbsg330
g1024
sg331
(idelphi
DelphiNestedExpressionListAccess
p1292
(dp1293
g312
(lp1294
sg314
(lp1295
(idelphi
DelphiAddOp
p1296
(dp1297
g318
S'-'
sg319
(i__main__
DelphiIdentAccess
p1298
(dp1299
g322
S'top'
p1300
sg312
(lp1301
sbsg325
(i__main__
DelphiIdentAccess
p1302
(dp1303
g322
S'bottom'
p1304
sg312
(lp1305
sbsbasbsbsg325
(i__main__
DelphiIdentAccess
p1306
(dp1307
g322
S'top'
p1308
sg312
(lp1309
sbsbsbsg346
(i__main__
DelphiIdentAccess
p1310
(dp1311
g322
S'top'
p1312
sg312
(lp1313
sbsba(i__main__
DelphiAssignStatement
p1314
(dp1315
g306
(idelphi
DelphiAddOp
p1316
(dp1317
g318
S'+'
sg319
(i__main__
DelphiIdentAccess
p1318
(dp1319
g322
S'kSliderBlueLineThickness'
p1320
sg312
(lp1321
sbsg325
(i__main__
DelphiIdentAccess
p1322
(dp1323
g322
S'top'
p1324
sg312
(lp1325
sbsbsg346
(i__main__
DelphiIdentAccess
p1326
(dp1327
g322
S'bottom'
p1328
sg312
(lp1329
sbsbasbsS'variableReferenceList'
p1330
(lp1331
(i__main__
DelphiIdentAccess
p1332
(dp1333
g322
S'lineRect'
p1334
sg312
(lp1335
sbasba(i__main__
DelphiAssignStatement
p1336
(dp1337
g306
(i__main__
DelphiIdentAccess
p1338
(dp1339
g322
S'self'
p1340
sg312
(lp1341
(idelphi
DelphiFieldEndAccess
p1342
(dp1343
g763
S'xDistanceFromCurrentValue'
p1344
sba(idelphi
DelphiFunctionEndAccess
p1345
(dp1346
g314
(lp1347
(idelphi
DelphiAddOp
p1348
(dp1349
g318
S'-'
sg319
(i__main__
DelphiIdentAccess
p1350
(dp1351
g322
S'lineRect'
p1352
sg312
(lp1353
(idelphi
DelphiFieldEndAccess
p1354
(dp1355
g763
S'left'
p1356
sbasbsg325
(i__main__
DelphiIdentAccess
p1357
(dp1358
g322
S'lineRect'
p1359
sg312
(lp1360
(idelphi
DelphiFieldEndAccess
p1361
(dp1362
g763
S'right'
p1363
sbasbsbasbasbsg346
(i__main__
DelphiIdentAccess
p1364
(dp1365
g322
S'distance'
p1366
sg312
(lp1367
sbsg527
(lp1368
S' rect for dragger '
p1369
asba(idelphi
DelphiWithStatement
p1370
(dp1371
g781
(idelphi
DelphiCompoundStatement
p1372
(dp1373
g302
(lp1374
(i__main__
DelphiAssignStatement
p1375
(dp1376
g306
(idelphi
DelphiAddOp
p1377
(dp1378
g318
S'-'
sg319
(idelphi
DelphiMulOp
p1379
(dp1380
g309
(idelphi
DelphiIntegerValue
p1381
(dp1382
g388
S'2'
sbsg330
S'mod'
p1383
sg331
(i__main__
DelphiIdentAccess
p1384
(dp1385
g322
S'draggerWidth'
p1386
sg312
(lp1387
sbsbsg325
(idelphi
DelphiAddOp
p1388
(dp1389
g318
S'-'
sg319
(idelphi
DelphiMulOp
p1390
(dp1391
g309
(idelphi
DelphiIntegerValue
p1392
(dp1393
g388
S'2'
sbsg330
g1024
sg331
(i__main__
DelphiIdentAccess
p1394
(dp1395
g322
S'draggerWidth'
p1396
sg312
(lp1397
sbsbsg325
(idelphi
DelphiAddOp
p1398
(dp1399
g318
S'+'
sg319
(i__main__
DelphiIdentAccess
p1400
(dp1401
g322
S'distance'
p1402
sg312
(lp1403
sbsg325
(i__main__
DelphiIdentAccess
p1404
(dp1405
g322
S'lineRect'
p1406
sg312
(lp1407
(idelphi
DelphiFieldEndAccess
p1408
(dp1409
g763
S'left'
p1410
sbasbsbsbsbsg346
(i__main__
DelphiIdentAccess
p1411
(dp1412
g322
S'left'
p1413
sg312
(lp1414
sbsba(i__main__
DelphiAssignStatement
p1415
(dp1416
g306
(idelphi
DelphiAddOp
p1417
(dp1418
g318
S'+'
sg319
(i__main__
DelphiIdentAccess
p1419
(dp1420
g322
S'draggerWidth'
p1421
sg312
(lp1422
sbsg325
(i__main__
DelphiIdentAccess
p1423
(dp1424
g322
S'left'
p1425
sg312
(lp1426
sbsbsg346
(i__main__
DelphiIdentAccess
p1427
(dp1428
g322
S'right'
p1429
sg312
(lp1430
sbsba(i__main__
DelphiAssignStatement
p1431
(dp1432
g306
(idelphi
DelphiAddOp
p1433
(dp1434
g318
S'+'
sg319
(idelphi
DelphiMulOp
p1435
(dp1436
g309
(idelphi
DelphiIntegerValue
p1437
(dp1438
g388
S'2'
sbsg330
g1024
sg331
(i__main__
DelphiIdentAccess
p1439
(dp1440
g322
S'kSliderBlueLineThickness'
p1441
sg312
(lp1442
sbsbsg325
(idelphi
DelphiAddOp
p1443
(dp1444
g318
S'-'
sg319
(idelphi
DelphiMulOp
p1445
(dp1446
g309
(idelphi
DelphiIntegerValue
p1447
(dp1448
g388
S'2'
sbsg330
g1024
sg331
(i__main__
DelphiIdentAccess
p1449
(dp1450
g322
S'draggerHeight'
p1451
sg312
(lp1452
sbsbsg325
(i__main__
DelphiIdentAccess
p1453
(dp1454
g322
S'lineRect'
p1455
sg312
(lp1456
(idelphi
DelphiFieldEndAccess
p1457
(dp1458
g763
S'top'
p1459
sbasbsbsbsg346
(i__main__
DelphiIdentAccess
p1460
(dp1461
g322
S'top'
p1462
sg312
(lp1463
sbsba(i__main__
DelphiAssignStatement
p1464
(dp1465
g306
(idelphi
DelphiAddOp
p1466
(dp1467
g318
S'+'
sg319
(i__main__
DelphiIdentAccess
p1468
(dp1469
g322
S'draggerHeight'
p1470
sg312
(lp1471
sbsg325
(i__main__
DelphiIdentAccess
p1472
(dp1473
g322
S'top'
p1474
sg312
(lp1475
sbsbsg346
(i__main__
DelphiIdentAccess
p1476
(dp1477
g322
S'bottom'
p1478
sg312
(lp1479
sbsbasbsg1330
(lp1480
(i__main__
DelphiIdentAccess
p1481
(dp1482
g322
S'draggerRect'
p1483
sg312
(lp1484
sbasba(i__main__
DelphiAssignStatement
p1485
(dp1486
g306
(i__main__
DelphiIdentAccess
p1487
(dp1488
g322
S'lineRect'
p1489
sg312
(lp1490
sbsg346
(i__main__
DelphiIdentAccess
p1491
(dp1492
g322
S'blueRect'
p1493
sg312
(lp1494
sbsg527
(lp1495
S' blue rect '
p1496
asba(i__main__
DelphiAssignStatement
p1497
(dp1498
g306
(idelphi
DelphiAddOp
p1499
(dp1500
g318
S'+'
sg319
(i__main__
DelphiIdentAccess
p1501
(dp1502
g322
S'distance'
p1503
sg312
(lp1504
sbsg325
(i__main__
DelphiIdentAccess
p1505
(dp1506
g322
S'blueRect'
p1507
sg312
(lp1508
(idelphi
DelphiFieldEndAccess
p1509
(dp1510
g763
S'left'
p1511
sbasbsbsg346
(i__main__
DelphiIdentAccess
p1512
(dp1513
g322
S'blueRect'
p1514
sg312
(lp1515
(idelphi
DelphiFieldEndAccess
p1516
(dp1517
g763
S'right'
p1518
sbasbsba(i__main__
DelphiAssignStatement
p1519
(dp1520
g306
(i__main__
DelphiIdentAccess
p1521
(dp1522
g322
S'lineRect'
p1523
sg312
(lp1524
sbsg346
(i__main__
DelphiIdentAccess
p1525
(dp1526
g322
S'grayRect'
p1527
sg312
(lp1528
sbsg527
(lp1529
S' gray rect '
p1530
asba(i__main__
DelphiAssignStatement
p1531
(dp1532
g306
(idelphi
DelphiAddOp
p1533
(dp1534
g318
S'+'
sg319
(idelphi
DelphiMulOp
p1535
(dp1536
g309
(idelphi
DelphiIntegerValue
p1537
(dp1538
g388
S'2'
sbsg330
g1024
sg331
(idelphi
DelphiNestedExpressionListAccess
p1539
(dp1540
g312
(lp1541
sg314
(lp1542
(idelphi
DelphiAddOp
p1543
(dp1544
g318
S'-'
sg319
(i__main__
DelphiIdentAccess
p1545
(dp1546
g322
S'grayRect'
p1547
sg312
(lp1548
(idelphi
DelphiFieldEndAccess
p1549
(dp1550
g763
S'top'
p1551
sbasbsg325
(i__main__
DelphiIdentAccess
p1552
(dp1553
g322
S'grayRect'
p1554
sg312
(lp1555
(idelphi
DelphiFieldEndAccess
p1556
(dp1557
g763
S'bottom'
p1558
sbasbsbasbsbsg325
(i__main__
DelphiIdentAccess
p1559
(dp1560
g322
S'grayRect'
p1561
sg312
(lp1562
(idelphi
DelphiFieldEndAccess
p1563
(dp1564
g763
S'top'
p1565
sbasbsbsg346
(i__main__
DelphiIdentAccess
p1566
(dp1567
g322
S'grayRect'
p1568
sg312
(lp1569
(idelphi
DelphiFieldEndAccess
p1570
(dp1571
g763
S'top'
p1572
sbasbsba(i__main__
DelphiAssignStatement
p1573
(dp1574
g306
(idelphi
DelphiAddOp
p1575
(dp1576
g318
S'+'
sg319
(i__main__
DelphiIdentAccess
p1577
(dp1578
g322
S'kSliderGrayLineThickness'
p1579
sg312
(lp1580
sbsg325
(i__main__
DelphiIdentAccess
p1581
(dp1582
g322
S'grayRect'
p1583
sg312
(lp1584
(idelphi
DelphiFieldEndAccess
p1585
(dp1586
g763
S'top'
p1587
sbasbsbsg346
(i__main__
DelphiIdentAccess
p1588
(dp1589
g322
S'grayRect'
p1590
sg312
(lp1591
(idelphi
DelphiFieldEndAccess
p1592
(dp1593
g763
S'bottom'
p1594
sbasbsba(idelphi
DelphiIfStatement
p1595
(dp1596
g444
(i__main__
DelphiIdentAccess
p1597
(dp1598
g322
S'self'
p1599
sg312
(lp1600
(idelphi
DelphiFieldEndAccess
p1601
(dp1602
g763
S'enabled'
p1603
sbasbsg458
Nsg459
(i__main__
DelphiAssignStatement
p1604
(dp1605
g306
(idelphi
DelphiAddOp
p1606
(dp1607
g318
S'+'
sg319
(idelphi
DelphiIntegerValue
p1608
(dp1609
g388
S'1'
sbsg325
(i__main__
DelphiIdentAccess
p1610
(dp1611
g322
S'blueRect'
p1612
sg312
(lp1613
(idelphi
DelphiFieldEndAccess
p1614
(dp1615
g763
S'right'
p1616
sbasbsbsg346
(i__main__
DelphiIdentAccess
p1617
(dp1618
g322
S'grayRect'
p1619
sg312
(lp1620
(idelphi
DelphiFieldEndAccess
p1621
(dp1622
g763
S'left'
p1623
sbasbsbsba(i__main__
DelphiAssignStatement
p1624
(dp1625
g306
(i__main__
DelphiIdentAccess
p1626
(dp1627
g322
S'clBtnShadow'
p1628
sg312
(lp1629
sbsg346
(i__main__
DelphiIdentAccess
p1630
(dp1631
g322
S'brush'
p1632
sg312
(lp1633
(idelphi
DelphiFieldEndAccess
p1634
(dp1635
g763
S'color'
p1636
sbasbsg527
(lp1637
S'draw gray line'
p1638
asba(i__main__
DelphiAssignStatement
p1639
(dp1640
g306
Nsg346
(i__main__
DelphiIdentAccess
p1641
(dp1642
g322
S'fillRect'
p1643
sg312
(lp1644
(idelphi
DelphiFunctionEndAccess
p1645
(dp1646
g314
(lp1647
(i__main__
DelphiIdentAccess
p1648
(dp1649
g322
S'grayRect'
p1650
sg312
(lp1651
sbasbasbsba(idelphi
DelphiIfStatement
p1652
(dp1653
g444
(i__main__
DelphiIdentAccess
p1654
(dp1655
g322
S'self'
p1656
sg312
(lp1657
(idelphi
DelphiFieldEndAccess
p1658
(dp1659
g763
S'enabled'
p1660
sbasbsg458
Nsg459
(idelphi
DelphiCompoundStatement
p1661
(dp1662
g302
(lp1663
(i__main__
DelphiAssignStatement
p1664
(dp1665
g306
(i__main__
DelphiIdentAccess
p1666
(dp1667
g322
S'clBlue'
p1668
sg312
(lp1669
sbsg346
(i__main__
DelphiIdentAccess
p1670
(dp1671
g322
S'brush'
p1672
sg312
(lp1673
(idelphi
DelphiFieldEndAccess
p1674
(dp1675
g763
S'color'
p1676
sbasbsg527
(lp1677
S'draw blue line'
p1678
asba(i__main__
DelphiAssignStatement
p1679
(dp1680
g306
Nsg346
(i__main__
DelphiIdentAccess
p1681
(dp1682
g322
S'fillRect'
p1683
sg312
(lp1684
(idelphi
DelphiFunctionEndAccess
p1685
(dp1686
g314
(lp1687
(i__main__
DelphiIdentAccess
p1688
(dp1689
g322
S'blueRect'
p1690
sg312
(lp1691
sbasbasbsbasbsba(idelphi
DelphiIfStatement
p1692
(dp1693
g444
(idelphi
DelphiNot
p1694
(dp1695
g756
(i__main__
DelphiIdentAccess
p1696
(dp1697
g322
S'self'
p1698
sg312
(lp1699
(idelphi
DelphiFieldEndAccess
p1700
(dp1701
g763
S'readOnly'
p1702
sbasbsbsg458
Nsg459
(i__main__
DelphiAssignStatement
p1703
(dp1704
g306
Nsg346
(i__main__
DelphiIdentAccess
p1705
(dp1706
g322
S'KfDrawButton'
p1707
sg312
(lp1708
(idelphi
DelphiFunctionEndAccess
p1709
(dp1710
g314
(lp1711
(i__main__
DelphiIdentAccess
p1712
(dp1713
g322
S'Canvas'
p1714
sg312
(lp1715
sba(i__main__
DelphiIdentAccess
p1716
(dp1717
g322
S'draggerRect'
p1718
sg312
(lp1719
sba(i__main__
DelphiIdentAccess
p1720
(dp1721
g322
S'self'
p1722
sg312
(lp1723
(idelphi
DelphiFieldEndAccess
p1724
(dp1725
g763
S'focused'
p1726
sbasba(i__main__
DelphiIdentAccess
p1727
(dp1728
g322
S'self'
p1729
sg312
(lp1730
(idelphi
DelphiFieldEndAccess
p1731
(dp1732
g763
S'enabled'
p1733
sbasbasbasbsg527
(lp1734
S'draw dragger if not read only '
p1735
asbsba(idelphi
DelphiIfStatement
p1736
(dp1737
g444
(idelphi
DelphiNestedExpressionListAccess
p1738
(dp1739
g312
(lp1740
sg314
(lp1741
(i__main__
DelphiIdentAccess
p1742
(dp1743
g322
S'self'
p1744
sg312
(lp1745
(idelphi
DelphiFieldEndAccess
p1746
(dp1747
g763
S'focused'
p1748
sbasbasbsg458
Nsg459
(idelphi
DelphiCompoundStatement
p1749
(dp1750
g302
(lp1751
(i__main__
DelphiAssignStatement
p1752
(dp1753
g306
(i__main__
DelphiIdentAccess
p1754
(dp1755
g322
S'clBtnShadow'
p1756
sg312
(lp1757
sbsg346
(i__main__
DelphiIdentAccess
p1758
(dp1759
g322
S'pen'
p1760
sg312
(lp1761
(idelphi
DelphiFieldEndAccess
p1762
(dp1763
g763
S'color'
p1764
sbasbsba(idelphi
DelphiWithStatement
p1765
(dp1766
g781
(idelphi
DelphiCompoundStatement
p1767
(dp1768
g302
(lp1769
(i__main__
DelphiAssignStatement
p1770
(dp1771
g306
Nsg346
(i__main__
DelphiIdentAccess
p1772
(dp1773
g322
S'moveTo'
p1774
sg312
(lp1775
(idelphi
DelphiFunctionEndAccess
p1776
(dp1777
g314
(lp1778
(idelphi
DelphiAddOp
p1779
(dp1780
g318
S'-'
sg319
(idelphi
DelphiIntegerValue
p1781
(dp1782
g388
S'1'
sbsg325
(i__main__
DelphiIdentAccess
p1783
(dp1784
g322
S'right'
p1785
sg312
(lp1786
sbsba(i__main__
DelphiIdentAccess
p1787
(dp1788
g322
S'top'
p1789
sg312
(lp1790
sbasbasbsba(i__main__
DelphiAssignStatement
p1791
(dp1792
g306
Nsg346
(i__main__
DelphiIdentAccess
p1793
(dp1794
g322
S'lineTo'
p1795
sg312
(lp1796
(idelphi
DelphiFunctionEndAccess
p1797
(dp1798
g314
(lp1799
(i__main__
DelphiIdentAccess
p1800
(dp1801
g322
S'left'
p1802
sg312
(lp1803
sba(i__main__
DelphiIdentAccess
p1804
(dp1805
g322
S'top'
p1806
sg312
(lp1807
sbasbasbsba(i__main__
DelphiAssignStatement
p1808
(dp1809
g306
Nsg346
(i__main__
DelphiIdentAccess
p1810
(dp1811
g322
S'lineTo'
p1812
sg312
(lp1813
(idelphi
DelphiFunctionEndAccess
p1814
(dp1815
g314
(lp1816
(i__main__
DelphiIdentAccess
p1817
(dp1818
g322
S'left'
p1819
sg312
(lp1820
sba(idelphi
DelphiAddOp
p1821
(dp1822
g318
S'-'
sg319
(idelphi
DelphiIntegerValue
p1823
(dp1824
g388
S'1'
sbsg325
(i__main__
DelphiIdentAccess
p1825
(dp1826
g322
S'bottom'
p1827
sg312
(lp1828
sbsbasbasbsba(i__main__
DelphiAssignStatement
p1829
(dp1830
g306
Nsg346
(i__main__
DelphiIdentAccess
p1831
(dp1832
g322
S'lineTo'
p1833
sg312
(lp1834
(idelphi
DelphiFunctionEndAccess
p1835
(dp1836
g314
(lp1837
(idelphi
DelphiAddOp
p1838
(dp1839
g318
S'-'
sg319
(idelphi
DelphiIntegerValue
p1840
(dp1841
g388
S'1'
sbsg325
(i__main__
DelphiIdentAccess
p1842
(dp1843
g322
S'right'
p1844
sg312
(lp1845
sbsba(idelphi
DelphiAddOp
p1846
(dp1847
g318
S'-'
sg319
(idelphi
DelphiIntegerValue
p1848
(dp1849
g388
S'1'
sbsg325
(i__main__
DelphiIdentAccess
p1850
(dp1851
g322
S'bottom'
p1852
sg312
(lp1853
sbsbasbasbsba(i__main__
DelphiAssignStatement
p1854
(dp1855
g306
Nsg346
(i__main__
DelphiIdentAccess
p1856
(dp1857
g322
S'lineTo'
p1858
sg312
(lp1859
(idelphi
DelphiFunctionEndAccess
p1860
(dp1861
g314
(lp1862
(idelphi
DelphiAddOp
p1863
(dp1864
g318
S'-'
sg319
(idelphi
DelphiIntegerValue
p1865
(dp1866
g388
S'1'
sbsg325
(i__main__
DelphiIdentAccess
p1867
(dp1868
g322
S'right'
p1869
sg312
(lp1870
sbsba(i__main__
DelphiIdentAccess
p1871
(dp1872
g322
S'top'
p1873
sg312
(lp1874
sbasbasbsbasbsg1330
(lp1875
(i__main__
DelphiIdentAccess
p1876
(dp1877
g322
S'fullRect'
p1878
sg312
(lp1879
sbasbasbsbasbsg1330
(lp1880
(i__main__
DelphiIdentAccess
p1881
(dp1882
g322
S'Canvas'
p1883
sg312
(lp1884
sbasbasbsg393
(lp1885
(i__main__
DelphiVarSection
p1886
(dp1887
g397
I0
sg398
(lp1888
(idelphi
DelphiVarDecl
p1889
(dp1890
g402
Nsg403
(lp1891
S'grayRect'
p1892
aS'blueRect'
p1893
aS'fullRect'
p1894
aS'lineRect'
p1895
asg45
(i__main__
DelphiNamedType
p1896
(dp1897
g48
S'TRect'
p1898
sg84
g1
sg85
Nsbsba(idelphi
DelphiVarDecl
p1899
(dp1900
g402
Nsg403
(lp1901
S'distance'
p1902
asg45
(i__main__
DelphiPrimitiveType
p1903
(dp1904
g48
g49
sbsbasbasbsbsS'mousedown'
p1905
(i__main__
DelphiMethodImplementation
p1906
(dp1907
g274
g156
sg29
g158
sg37
(lp1908
(i__main__
DelphiFormalParameter
p1909
(dp1910
g41
Nsg42
(lp1911
S'Button'
p1912
asg45
(i__main__
DelphiNamedType
p1913
(dp1914
g48
S'TMouseButton'
p1915
sg84
g1
sg85
Nsbsg50
Nsba(i__main__
DelphiFormalParameter
p1916
(dp1917
g41
Nsg42
(lp1918
S'Shift'
p1919
asg45
(i__main__
DelphiNamedType
p1920
(dp1921
g48
S'TShiftState'
p1922
sg84
g1
sg85
Nsbsg50
Nsba(i__main__
DelphiFormalParameter
p1923
(dp1924
g41
Nsg42
(lp1925
S'X'
aS'Y'
asg45
(i__main__
DelphiPrimitiveType
p1926
(dp1927
g48
g111
sbsg50
Nsbasg282
(lp1928
sg284
(lp1929
sg286
(lp1930
g288
ag1912
ag1919
aS'X'
aS'Y'
asg289
(dp1931
S'Y'
g1926
sg1919
g1920
sg1912
g1913
sS'X'
g1926
ssg51
S'KfWinSlider'
p1932
sg52
Nsg294
(lp1933
sg55
I0
sg56
g112
sg296
(i__main__
DelphiBlock
p1934
(dp1935
g299
(idelphi
DelphiCompoundStatement
p1936
(dp1937
g302
(lp1938
(i__main__
DelphiAssignStatement
p1939
(dp1940
g306
Nsg346
(idelphi
DelphiInheritedCall
p1941
(dp1942
g322
Nsg314
Nsbsba(i__main__
DelphiAssignStatement
p1943
(dp1944
g306
Nsg346
(i__main__
DelphiIdentAccess
p1945
(dp1946
g322
S'self'
p1947
sg312
(lp1948
(idelphi
DelphiFieldEndAccess
p1949
(dp1950
g763
S'setFocus'
p1951
sbasbsba(idelphi
DelphiIfStatement
p1952
(dp1953
g444
(idelphi
DelphiNot
p1954
(dp1955
g756
(i__main__
DelphiIdentAccess
p1956
(dp1957
g322
S'self'
p1958
sg312
(lp1959
(idelphi
DelphiFieldEndAccess
p1960
(dp1961
g763
S'readOnly'
p1962
sbasbsbsg458
Nsg459
(idelphi
DelphiCompoundStatement
p1963
(dp1964
g302
(lp1965
(idelphi
DelphiIfStatement
p1966
(dp1967
g444
(idelphi
DelphiNestedExpressionListAccess
p1968
(dp1969
g312
(lp1970
sg314
(lp1971
(idelphi
DelphiRelOp
p1972
(dp1973
g447
(i__main__
DelphiIdentAccess
p1974
(dp1975
g322
S'Button'
p1976
sg312
(lp1977
sbsg452
(i__main__
DelphiIdentAccess
p1978
(dp1979
g322
S'mbLeft'
p1980
sg312
(lp1981
sbsg457
S'='
sbasbsg458
Nsg459
(idelphi
DelphiCompoundStatement
p1982
(dp1983
g302
(lp1984
(i__main__
DelphiAssignStatement
p1985
(dp1986
g306
(i__main__
DelphiIdentAccess
p1987
(dp1988
g322
S'true'
p1989
sg312
(lp1990
sbsg346
(i__main__
DelphiIdentAccess
p1991
(dp1992
g322
S'dragging'
p1993
sg312
(lp1994
sbsg527
(lp1995
S'and (pointOnDragger(x, y))'
p1996
asba(i__main__
DelphiAssignStatement
p1997
(dp1998
g306
(i__main__
DelphiIdentAccess
p1999
(dp2000
g322
S'x'
sg312
(lp2001
sbsg346
(i__main__
DelphiIdentAccess
p2002
(dp2003
g322
S'dragStart'
p2004
sg312
(lp2005
sbsba(i__main__
DelphiAssignStatement
p2006
(dp2007
g306
(i__main__
DelphiIdentAccess
p2008
(dp2009
g322
S'currentValue'
p2010
sg312
(lp2011
sbsg346
(i__main__
DelphiIdentAccess
p2012
(dp2013
g322
S'originalValue'
p2014
sg312
(lp2015
sbsbasbsba(i__main__
DelphiAssignStatement
p2016
(dp2017
g306
Nsg346
(i__main__
DelphiIdentAccess
p2018
(dp2019
g322
S'self'
p2020
sg312
(lp2021
(idelphi
DelphiFieldEndAccess
p2022
(dp2023
g763
S'invalidate'
p2024
sbasbsba(i__main__
DelphiAssignStatement
p2025
(dp2026
g306
Nsg346
(i__main__
DelphiIdentAccess
p2027
(dp2028
g322
S'self'
p2029
sg312
(lp2030
(idelphi
DelphiFieldEndAccess
p2031
(dp2032
g763
S'refresh'
p2033
sbasbsbasbsbasbsg393
(lp2034
sbsbsS'usedefaultsizeanddraggersize'
p2035
(i__main__
DelphiMethodImplementation
p2036
(dp2037
g274
g180
sg29
g182
sg37
(lp2038
sg282
(lp2039
sg284
(lp2040
sg286
(lp2041
g288
asg289
(dp2042
sg51
S'KfWinSlider'
p2043
sg52
Nsg294
(lp2044
sg55
I0
sg56
g112
sg296
(i__main__
DelphiBlock
p2045
(dp2046
g299
(idelphi
DelphiCompoundStatement
p2047
(dp2048
g302
(lp2049
(idelphi
DelphiIfStatement
p2050
(dp2051
g444
(i__main__
DelphiIdentAccess
p2052
(dp2053
g322
S'readOnly'
p2054
sg312
(lp2055
sbsg458
(idelphi
DelphiCompoundStatement
p2056
(dp2057
g302
(lp2058
(i__main__
DelphiAssignStatement
p2059
(dp2060
g306
(i__main__
DelphiIdentAccess
p2061
(dp2062
g322
S'kSliderHeightNotReadOnly'
p2063
sg312
(lp2064
sbsg346
(i__main__
DelphiIdentAccess
p2065
(dp2066
g322
S'height'
p2067
sg312
(lp2068
sbsba(i__main__
DelphiAssignStatement
p2069
(dp2070
g306
(i__main__
DelphiIdentAccess
p2071
(dp2072
g322
S'kSliderDefaultWidth'
p2073
sg312
(lp2074
sbsg346
(i__main__
DelphiIdentAccess
p2075
(dp2076
g322
S'width'
p2077
sg312
(lp2078
sbsba(i__main__
DelphiAssignStatement
p2079
(dp2080
g306
(i__main__
DelphiIdentAccess
p2081
(dp2082
g322
S'kSliderDraggerHeight'
p2083
sg312
(lp2084
sbsg346
(i__main__
DelphiIdentAccess
p2085
(dp2086
g322
S'draggerHeight'
p2087
sg312
(lp2088
sbsba(i__main__
DelphiAssignStatement
p2089
(dp2090
g306
(i__main__
DelphiIdentAccess
p2091
(dp2092
g322
S'kSliderDraggerWidth'
p2093
sg312
(lp2094
sbsg346
(i__main__
DelphiIdentAccess
p2095
(dp2096
g322
S'draggerWidth'
p2097
sg312
(lp2098
sbsbasbsg459
(idelphi
DelphiCompoundStatement
p2099
(dp2100
g302
(lp2101
(i__main__
DelphiAssignStatement
p2102
(dp2103
g306
(i__main__
DelphiIdentAccess
p2104
(dp2105
g322
S'kSliderHeightReadOnly'
p2106
sg312
(lp2107
sbsg346
(i__main__
DelphiIdentAccess
p2108
(dp2109
g322
S'height'
p2110
sg312
(lp2111
sbsg527
(lp2112
S' assumes that readOnly is already set, and assumes that value of readOnly will not be changed\r'
p2113
aS'    unless this is called again afterward '
p2114
asba(i__main__
DelphiAssignStatement
p2115
(dp2116
g306
(i__main__
DelphiIdentAccess
p2117
(dp2118
g322
S'kSliderDefaultWidth'
p2119
sg312
(lp2120
sbsg346
(i__main__
DelphiIdentAccess
p2121
(dp2122
g322
S'width'
p2123
sg312
(lp2124
sbsba(i__main__
DelphiAssignStatement
p2125
(dp2126
g306
(idelphi
DelphiIntegerValue
p2127
(dp2128
g388
S'0'
sbsg346
(i__main__
DelphiIdentAccess
p2129
(dp2130
g322
S'draggerHeight'
p2131
sg312
(lp2132
sbsba(i__main__
DelphiAssignStatement
p2133
(dp2134
g306
(idelphi
DelphiIntegerValue
p2135
(dp2136
g388
S'0'
sbsg346
(i__main__
DelphiIdentAccess
p2137
(dp2138
g322
S'draggerWidth'
p2139
sg312
(lp2140
sbsbasbsbasbsg393
(lp2141
sbsbsS'wmgetdlgcode'
p2142
(i__main__
DelphiMethodImplementation
p2143
(dp2144
g274
g185
sg29
g187
sg37
(lp2145
(i__main__
DelphiFormalParameter
p2146
(dp2147
g41
Nsg42
(lp2148
g192
asg45
(i__main__
DelphiNamedType
p2149
(dp2150
g48
S'TWMGetDlgCode'
p2151
sg84
g1
sg85
Nsbsg50
g125
sbasg282
(lp2152
sg284
(lp2153
g192
asg286
(lp2154
g288
ag192
asg289
(dp2155
g192
g2149
ssg51
S'KfWinSlider'
p2156
sg52
Nsg294
(lp2157
sg55
I0
sg56
g112
sg296
(i__main__
DelphiBlock
p2158
(dp2159
g299
(idelphi
DelphiCompoundStatement
p2160
(dp2161
g302
(lp2162
(i__main__
DelphiAssignStatement
p2163
(dp2164
g306
(i__main__
DelphiIdentAccess
p2165
(dp2166
g322
S'DLGC_WANTARROWS'
p2167
sg312
(lp2168
sbsg346
(i__main__
DelphiIdentAccess
p2169
(dp2170
g322
g192
sg312
(lp2171
(idelphi
DelphiFieldEndAccess
p2172
(dp2173
g763
S'result'
p2174
sbasbsbasbsg393
(lp2175
sbsbsS'pointondragger'
p2176
(i__main__
DelphiMethodImplementation
p2177
(dp2178
g274
g197
sg29
g199
sg37
(lp2179
(i__main__
DelphiFormalParameter
p2180
(dp2181
g41
Nsg42
(lp2182
S'x'
aS'y'
asg45
(i__main__
DelphiPrimitiveType
p2183
(dp2184
g48
g49
sbsg50
Nsbasg282
(lp2185
sg284
(lp2186
sg286
(lp2187
g288
aS'x'
aS'y'
asg289
(dp2188
S'y'
g2183
sS'x'
g2183
ssg51
S'KfWinSlider'
p2189
sg52
(i__main__
DelphiPrimitiveType
p2190
(dp2191
g48
g71
sbsg294
(lp2192
sg55
I0
sg56
g57
sg296
(i__main__
DelphiBlock
p2193
(dp2194
g299
(idelphi
DelphiCompoundStatement
p2195
(dp2196
g302
(lp2197
(i__main__
DelphiAssignStatement
p2198
(dp2199
g306
(i__main__
DelphiIdentAccess
p2200
(dp2201
g322
S'ptInRect'
p2202
sg312
(lp2203
(idelphi
DelphiFunctionEndAccess
p2204
(dp2205
g314
(lp2206
(i__main__
DelphiIdentAccess
p2207
(dp2208
g322
S'draggerRect'
p2209
sg312
(lp2210
sba(i__main__
DelphiIdentAccess
p2211
(dp2212
g322
S'Point'
p2213
sg312
(lp2214
(idelphi
DelphiFunctionEndAccess
p2215
(dp2216
g314
(lp2217
(i__main__
DelphiIdentAccess
p2218
(dp2219
g322
S'x'
sg312
(lp2220
sba(i__main__
DelphiIdentAccess
p2221
(dp2222
g322
S'y'
sg312
(lp2223
sbasbasbasbasbsg346
(i__main__
DelphiIdentAccess
p2224
(dp2225
g322
S'result'
p2226
sg312
(lp2227
sbsbasbsg393
(lp2228
sbsbsS'cmfocuschanged'
p2229
(i__main__
DelphiMethodImplementation
p2230
(dp2231
g274
g209
sg29
g211
sg37
(lp2232
(i__main__
DelphiFormalParameter
p2233
(dp2234
g41
Nsg42
(lp2235
g192
asg45
(i__main__
DelphiNamedType
p2236
(dp2237
g48
S'TCMFocusChanged'
p2238
sg84
g1
sg85
Nsbsg50
g125
sbasg282
(lp2239
sg284
(lp2240
g192
asg286
(lp2241
g288
ag192
asg289
(dp2242
g192
g2236
ssg51
S'KfWinSlider'
p2243
sg52
Nsg294
(lp2244
sg55
I0
sg56
g112
sg296
(i__main__
DelphiBlock
p2245
(dp2246
g299
(idelphi
DelphiCompoundStatement
p2247
(dp2248
g302
(lp2249
(i__main__
DelphiAssignStatement
p2250
(dp2251
g306
Nsg346
(idelphi
DelphiInheritedCall
p2252
(dp2253
g322
Nsg314
Nsbsba(i__main__
DelphiAssignStatement
p2254
(dp2255
g306
Nsg346
(i__main__
DelphiIdentAccess
p2256
(dp2257
g322
S'repaint'
p2258
sg312
(lp2259
sbsbasbsg393
(lp2260
sbsbssS'propertyDeclarations'
p2261
(dp2262
S'currentvalue'
p2263
(i__main__
DelphiPropertyDeclaration
p2264
(dp2265
g52
(i__main__
DelphiPrimitiveType
p2266
(dp2267
g48
g111
sbsg29
S'CurrentValue'
p2268
sbsS'readonly'
p2269
(i__main__
DelphiPropertyDeclaration
p2270
(dp2271
g52
(i__main__
DelphiPrimitiveType
p2272
(dp2273
g48
g71
sbsg29
S'ReadOnly'
p2274
sbsS'maxvalue'
p2275
(i__main__
DelphiPropertyDeclaration
p2276
(dp2277
g52
(i__main__
DelphiPrimitiveType
p2278
(dp2279
g48
g111
sbsg29
S'MaxValue'
p2280
sbsS'minvalue'
p2281
(i__main__
DelphiPropertyDeclaration
p2282
(dp2283
g52
(i__main__
DelphiPrimitiveType
p2284
(dp2285
g48
g111
sbsg29
S'MinValue'
p2286
sbssS'variableNamesInDeclaredOrder'
p2287
(lp2288
g16
ag26
ag10
ag12
ag28
ag14
ag24
ag20
ag18
ag22
asba(i__main__
DelphiConstSection
p2289
(dp2290
S'constDeclList'
p2291
(lp2292
(idelphi
DelphiConstDeclaration
p2293
(dp2294
g402
(idelphi
DelphiIntegerValue
p2295
(dp2296
g388
S'5'
sbsg322
S'kSliderHeightReadOnly'
p2297
sg45
(idelphi
DelphiPrimitiveType
p2298
(dp2299
g48
S'UNDEFINED_NEEDS_CALCULATION'
p2300
sbsba(idelphi
DelphiConstDeclaration
p2301
(dp2302
g402
(idelphi
DelphiIntegerValue
p2303
(dp2304
g388
S'11'
p2305
sbsg322
S'kSliderHeightNotReadOnly'
p2306
sg45
(idelphi
DelphiPrimitiveType
p2307
(dp2308
g48
g2300
sbsba(idelphi
DelphiConstDeclaration
p2309
(dp2310
g402
(idelphi
DelphiIntegerValue
p2311
(dp2312
g388
S'7'
sbsg322
S'kSliderDraggerHeight'
p2313
sg45
(idelphi
DelphiPrimitiveType
p2314
(dp2315
g48
g2300
sbsba(idelphi
DelphiConstDeclaration
p2316
(dp2317
g402
(idelphi
DelphiIntegerValue
p2318
(dp2319
g388
S'5'
sbsg322
S'kSliderDraggerWidth'
p2320
sg45
(idelphi
DelphiPrimitiveType
p2321
(dp2322
g48
g2300
sbsba(idelphi
DelphiConstDeclaration
p2323
(dp2324
g402
(idelphi
DelphiIntegerValue
p2325
(dp2326
g388
S'1'
sbsg322
S'kSliderGrayLineThickness'
p2327
sg45
(idelphi
DelphiPrimitiveType
p2328
(dp2329
g48
g2300
sbsba(idelphi
DelphiConstDeclaration
p2330
(dp2331
g402
(idelphi
DelphiIntegerValue
p2332
(dp2333
g388
S'3'
sbsg322
S'kSliderBlueLineThickness'
p2334
sg45
(idelphi
DelphiPrimitiveType
p2335
(dp2336
g48
g2300
sbsba(idelphi
DelphiConstDeclaration
p2337
(dp2338
g402
(idelphi
DelphiIntegerValue
p2339
(dp2340
g388
S'20'
p2341
sbsg322
S'kSliderDefaultWidth'
p2342
sg45
(idelphi
DelphiPrimitiveType
p2343
(dp2344
g48
g2300
sbsbasg397
I1
sba(i__main__
DelphiProceduralImplementation
p2345
(dp2346
g274
(i__main__
DelphiProceduralDeclaration
p2347
(dp2348
g37
(lp2349
(i__main__
DelphiFormalParameter
p2350
(dp2351
g41
Nsg42
(lp2352
S'aCanvas'
p2353
asg45
(i__main__
DelphiNamedType
p2354
(dp2355
g48
S'TCanvas'
p2356
sg84
g1
sg85
Nsbsg50
Nsba(i__main__
DelphiFormalParameter
p2357
(dp2358
g41
Nsg42
(lp2359
S'aRect'
p2360
asg45
(i__main__
DelphiNamedType
p2361
(dp2362
g48
S'TRect'
p2363
sg84
g1
sg85
Nsbsg50
Nsba(i__main__
DelphiFormalParameter
p2364
(dp2365
g41
Nsg42
(lp2366
S'selected'
p2367
asg45
(i__main__
DelphiPrimitiveType
p2368
(dp2369
g48
g71
sbsg50
Nsba(i__main__
DelphiFormalParameter
p2370
(dp2371
g41
Nsg42
(lp2372
S'enabled'
p2373
asg45
(i__main__
DelphiPrimitiveType
p2374
(dp2375
g48
g71
sbsg50
Nsbasg29
S'KfDrawButton'
p2376
sg52
Nsbsg29
g2376
sg52
Nsg282
(lp2377
sg284
(lp2378
sg286
(lp2379
S'aCanvas'
p2380
aS'aRect'
p2381
aS'selected'
p2382
aS'enabled'
p2383
asg289
(dp2384
g2380
(i__main__
DelphiNamedType
p2385
(dp2386
g48
S'TCanvas'
p2387
sg84
g1
sg85
Nsbsg2382
(i__main__
DelphiPrimitiveType
p2388
(dp2389
g48
g71
sbsg2383
(i__main__
DelphiPrimitiveType
p2390
(dp2391
g48
g71
sbsg2381
(i__main__
DelphiNamedType
p2392
(dp2393
g48
S'TRect'
p2394
sg84
g1
sg85
Nsbssg37
(lp2395
(i__main__
DelphiFormalParameter
p2396
(dp2397
g41
Nsg42
(lp2398
g2380
asg45
g2385
sg50
Nsba(i__main__
DelphiFormalParameter
p2399
(dp2400
g41
Nsg42
(lp2401
g2381
asg45
g2392
sg50
Nsba(i__main__
DelphiFormalParameter
p2402
(dp2403
g41
Nsg42
(lp2404
g2382
asg45
g2388
sg50
Nsba(i__main__
DelphiFormalParameter
p2405
(dp2406
g41
Nsg42
(lp2407
g2383
asg45
g2390
sg50
Nsbasg294
(lp2408
sg296
(i__main__
DelphiBlock
p2409
(dp2410
g299
(idelphi
DelphiCompoundStatement
p2411
(dp2412
g302
(lp2413
(idelphi
DelphiWithStatement
p2414
(dp2415
g781
(idelphi
DelphiCompoundStatement
p2416
(dp2417
g302
(lp2418
(i__main__
DelphiAssignStatement
p2419
(dp2420
g306
(i__main__
DelphiIdentAccess
p2421
(dp2422
g322
S'bsSolid'
p2423
sg312
(lp2424
sbsg346
(i__main__
DelphiIdentAccess
p2425
(dp2426
g322
S'brush'
p2427
sg312
(lp2428
(idelphi
DelphiFieldEndAccess
p2429
(dp2430
g763
S'style'
p2431
sbasbsba(idelphi
DelphiIfStatement
p2432
(dp2433
g444
(i__main__
DelphiIdentAccess
p2434
(dp2435
g322
S'enabled'
p2436
sg312
(lp2437
sbsg458
(idelphi
DelphiCompoundStatement
p2438
(dp2439
g302
(lp2440
(i__main__
DelphiAssignStatement
p2441
(dp2442
g306
(i__main__
DelphiIdentAccess
p2443
(dp2444
g322
S'clBtnShadow'
p2445
sg312
(lp2446
sbsg346
(i__main__
DelphiIdentAccess
p2447
(dp2448
g322
S'brush'
p2449
sg312
(lp2450
(idelphi
DelphiFieldEndAccess
p2451
(dp2452
g763
S'color'
p2453
sbasbsba(i__main__
DelphiAssignStatement
p2454
(dp2455
g306
(i__main__
DelphiIdentAccess
p2456
(dp2457
g322
S'clBtnShadow'
p2458
sg312
(lp2459
sbsg346
(i__main__
DelphiIdentAccess
p2460
(dp2461
g322
S'pen'
p2462
sg312
(lp2463
(idelphi
DelphiFieldEndAccess
p2464
(dp2465
g763
S'color'
p2466
sbasbsbasbsg459
(idelphi
DelphiCompoundStatement
p2467
(dp2468
g302
(lp2469
(i__main__
DelphiAssignStatement
p2470
(dp2471
g306
(i__main__
DelphiIdentAccess
p2472
(dp2473
g322
S'clBlack'
p2474
sg312
(lp2475
sbsg346
(i__main__
DelphiIdentAccess
p2476
(dp2477
g322
S'pen'
p2478
sg312
(lp2479
(idelphi
DelphiFieldEndAccess
p2480
(dp2481
g763
S'color'
p2482
sbasbsba(i__main__
DelphiAssignStatement
p2483
(dp2484
g306
(i__main__
DelphiIdentAccess
p2485
(dp2486
g322
S'clWhite'
p2487
sg312
(lp2488
sbsg346
(i__main__
DelphiIdentAccess
p2489
(dp2490
g322
S'brush'
p2491
sg312
(lp2492
(idelphi
DelphiFieldEndAccess
p2493
(dp2494
g763
S'color'
p2495
sbasbsbasbsba(idelphi
DelphiWithStatement
p2496
(dp2497
g781
(i__main__
DelphiAssignStatement
p2498
(dp2499
g306
Nsg346
(i__main__
DelphiIdentAccess
p2500
(dp2501
g322
S'rectangle'
p2502
sg312
(lp2503
(idelphi
DelphiFunctionEndAccess
p2504
(dp2505
g314
(lp2506
(i__main__
DelphiIdentAccess
p2507
(dp2508
g322
S'left'
p2509
sg312
(lp2510
sba(i__main__
DelphiIdentAccess
p2511
(dp2512
g322
S'top'
p2513
sg312
(lp2514
sba(i__main__
DelphiIdentAccess
p2515
(dp2516
g322
S'right'
p2517
sg312
(lp2518
sba(i__main__
DelphiIdentAccess
p2519
(dp2520
g322
S'bottom'
p2521
sg312
(lp2522
sbasbasbsbsg1330
(lp2523
(i__main__
DelphiIdentAccess
p2524
(dp2525
g322
S'aRect'
p2526
sg312
(lp2527
sbasba(idelphi
DelphiIfStatement
p2528
(dp2529
g444
(i__main__
DelphiIdentAccess
p2530
(dp2531
g322
S'selected'
p2532
sg312
(lp2533
sbsg458
Nsg459
(idelphi
DelphiCompoundStatement
p2534
(dp2535
g302
(lp2536
(i__main__
DelphiAssignStatement
p2537
(dp2538
g306
(i__main__
DelphiIdentAccess
p2539
(dp2540
g322
S'aRect'
p2541
sg312
(lp2542
sbsg346
(i__main__
DelphiIdentAccess
p2543
(dp2544
g322
S'internalRect'
p2545
sg312
(lp2546
sbsba(i__main__
DelphiAssignStatement
p2547
(dp2548
g306
Nsg346
(i__main__
DelphiIdentAccess
p2549
(dp2550
g322
S'inflateRect'
p2551
sg312
(lp2552
(idelphi
DelphiFunctionEndAccess
p2553
(dp2554
g314
(lp2555
(i__main__
DelphiIdentAccess
p2556
(dp2557
g322
S'internalRect'
p2558
sg312
(lp2559
sba(idelphi
DelphiSign
p2560
(dp2561
g756
(idelphi
DelphiIntegerValue
p2562
(dp2563
g388
S'1'
sbsS'sign'
p2564
S'-'
sba(idelphi
DelphiSign
p2565
(dp2566
g756
(idelphi
DelphiIntegerValue
p2567
(dp2568
g388
S'1'
sbsg2564
S'-'
sbasbasbsba(i__main__
DelphiAssignStatement
p2569
(dp2570
g306
(i__main__
DelphiIdentAccess
p2571
(dp2572
g322
S'clAqua'
p2573
sg312
(lp2574
sbsg346
(i__main__
DelphiIdentAccess
p2575
(dp2576
g322
S'brush'
p2577
sg312
(lp2578
(idelphi
DelphiFieldEndAccess
p2579
(dp2580
g763
S'color'
p2581
sbasbsba(i__main__
DelphiAssignStatement
p2582
(dp2583
g306
Nsg346
(i__main__
DelphiIdentAccess
p2584
(dp2585
g322
S'fillRect'
p2586
sg312
(lp2587
(idelphi
DelphiFunctionEndAccess
p2588
(dp2589
g314
(lp2590
(i__main__
DelphiIdentAccess
p2591
(dp2592
g322
S'internalRect'
p2593
sg312
(lp2594
sbasbasbsbasbsbasbsg1330
(lp2595
(i__main__
DelphiIdentAccess
p2596
(dp2597
g322
S'aCanvas'
p2598
sg312
(lp2599
sbasbasbsg393
(lp2600
(i__main__
DelphiVarSection
p2601
(dp2602
g397
I0
sg398
(lp2603
(idelphi
DelphiVarDecl
p2604
(dp2605
g402
Nsg403
(lp2606
S'internalRect'
p2607
asg45
(i__main__
DelphiNamedType
p2608
(dp2609
g48
S'TRect'
p2610
sg84
g1
sg85
Nsbsbasbasbsba(i__main__
DelphiProceduralImplementation
p2611
(dp2612
g274
(i__main__
DelphiProceduralDeclaration
p2613
(dp2614
g37
(lp2615
sg527
(lp2616
S' Published declarations '
p2617
aS' must be at least 4 more than dragger height '
p2618
aS' should be odd number '
p2619
aS' PDF PORT -- not used anyway\r'
p2620
asg29
S'Register1'
p2621
sg52
Nsbsg29
g2621
sg52
Nsg282
(lp2622
sg284
(lp2623
sg286
(lp2624
sg289
(dp2625
sg37
(lp2626
sg294
(lp2627
sg296
(i__main__
DelphiBlock
p2628
(dp2629
g299
(idelphi
DelphiCompoundStatement
p2630
(dp2631
g302
(lp2632
(i__main__
DelphiAssignStatement
p2633
(dp2634
g306
Nsg346
(i__main__
DelphiIdentAccess
p2635
(dp2636
g322
S'RegisterComponents'
p2637
sg312
(lp2638
(idelphi
DelphiFunctionEndAccess
p2639
(dp2640
g314
(lp2641
(idelphi
DelphiStringAccess
p2642
(dp2643
g312
(lp2644
sg388
(idelphi
DelphiStringValue
p2645
(dp2646
g388
S'Samples'
p2647
sbsba(idelphi
DelphiSetConstructor
p2648
(dp2649
S'setElementList'
p2650
(lp2651
(i__main__
DelphiIdentAccess
p2652
(dp2653
g322
S'KfWinSlider'
p2654
sg312
(lp2655
sbasbasbasbsbasbsg393
(lp2656
sbsg527
g2616
sbasS'includedUnits'
p2657
NsS'implementationUses'
p2658
Nsg29
S'UWinSliders'
p2659
sS'constSections'
p2660
(lp2661
g2289
asS'globalsInProperCase'
p2662
NsS'interfaceUses'
p2663
(lp2664
S'delphi_compatability'
p2665
aS'Wintypes'
p2666
aS'WinProcs'
p2667
aS'Messages'
p2668
aS'Classes'
p2669
aS'Forms'
p2670
aS'StdCtrls'
p2671
aS'ExtCtrls'
p2672
aS'Controls'
p2673
aS'Graphics'
p2674
aS'SysUtils'
p2675
aS'Dialogs'
p2676
aS'Menus'
p2677
asS'finalCommentToken'
p2678
(i__main__
PassStatement
p2679
(dp2680
g393
(lp2681
sbsS'varSections'
p2682
(lp2683
sS'globals'
p2684
NsS'originalFileName'
p2685
S'../../PlantStudioInPython/converted_source/uwinsliders.pas'
p2686
sS'proceduralImplementations'
p2687
(dp2688
S'register1'
p2689
g2611
sS'kfdrawbutton'
p2690
g2345
ssS'fileName'
p2691
S'/Users/pdf/Documents/workspace/PlantStudioInPython/converted_source/uwinsliders.pas'
p2692
sS'proceduralDeclarations'
p2693
(dp2694
S'register1'
p2695
g2613
sS'kfdrawbutton'
p2696
g2347
ssS'types'
p2697
(dp2698
S'kfwinslider'
p2699
g5
ssb.